ARM GAS  /tmp/ccjDPDsq.s 			page 1


   1              		.syntax unified
   2              		.cpu cortex-m4
   3              		.fpu softvfp
   4              		.eabi_attribute 20, 1
   5              		.eabi_attribute 21, 1
   6              		.eabi_attribute 23, 3
   7              		.eabi_attribute 24, 1
   8              		.eabi_attribute 25, 1
   9              		.eabi_attribute 26, 1
  10              		.eabi_attribute 30, 2
  11              		.eabi_attribute 34, 1
  12              		.eabi_attribute 18, 4
  13              		.thumb
  14              		.file	"hal.c"
  15              		.text
  16              	.Ltext0:
  17              		.cfi_sections	.debug_frame
  18              		.section	.text.halInit,"ax",%progbits
  19              		.align	2
  20              		.p2align 4,,15
  21              		.global	halInit
  22              		.thumb
  23              		.thumb_func
  24              		.type	halInit, %function
  25              	halInit:
  26              	.LFB118:
  27              		.file 1 "../../os/hal/src/hal.c"
  28              		.loc 1 68 0
  29              		.cfi_startproc
  30              		@ args = 0, pretend = 0, frame = 0
  31              		@ frame_needed = 0, uses_anonymous_args = 0
  32 0000 08B5     		push	{r3, lr}
  33              		.cfi_def_cfa_offset 8
  34              		.cfi_offset 3, -8
  35              		.cfi_offset 14, -4
  36              		.loc 1 70 0
  37 0002 FFF7FEFF 		bl	hal_lld_init
  38              	.LVL0:
  39              		.loc 1 76 0
  40 0006 40F20000 		movw	r0, #:lower16:pal_default_config
  41 000a C0F20000 		movt	r0, #:upper16:pal_default_config
  42 000e FFF7FEFF 		bl	_pal_lld_init
  43              	.LVL1:
  44              		.loc 1 103 0
  45 0012 FFF7FEFF 		bl	sdInit
  46              	.LVL2:
  47              		.loc 1 109 0
  48 0016 FFF7FEFF 		bl	spiInit
  49              	.LVL3:
  50              		.loc 1 118 0
  51 001a FFF7FEFF 		bl	mmcInit
  52              	.LVL4:
  53              		.loc 1 128 0
  54 001e BDE80840 		pop	{r3, lr}
  55              		.loc 1 127 0
  56 0022 FFF7FEBF 		b	boardInit
  57              	.LVL5:
ARM GAS  /tmp/ccjDPDsq.s 			page 2


  58              		.cfi_endproc
  59              	.LFE118:
  60              		.size	halInit, .-halInit
  61 0026 00BFAFF3 		.section	.text.halIsCounterWithin,"ax",%progbits
  61      0080AFF3 
  61      0080
  62              		.align	2
  63              		.p2align 4,,15
  64              		.global	halIsCounterWithin
  65              		.thumb
  66              		.thumb_func
  67              		.type	halIsCounterWithin, %function
  68              	halIsCounterWithin:
  69              	.LFB119:
  70              		.loc 1 174 0
  71              		.cfi_startproc
  72              		@ args = 0, pretend = 0, frame = 0
  73              		@ frame_needed = 0, uses_anonymous_args = 0
  74              		@ link register save eliminated.
  75              	.LVL6:
  76              		.loc 1 175 0
  77 0000 4FF48053 		mov	r3, #4096
  78 0004 CEF20003 		movt	r3, 57344
  79              		.loc 1 177 0
  80 0008 8142     		cmp	r1, r0
  81              		.loc 1 174 0
  82 000a 0246     		mov	r2, r0
  83              		.loc 1 175 0
  84 000c 5B68     		ldr	r3, [r3, #4]
  85              	.LVL7:
  86              		.loc 1 177 0
  87 000e 09D8     		bhi	.L6
  88              		.loc 1 178 0 discriminator 2
  89 0010 8342     		cmp	r3, r0
  90 0012 34BF     		ite	cc
  91 0014 0022     		movcc	r2, #0
  92 0016 0122     		movcs	r2, #1
  93 0018 8B42     		cmp	r3, r1
  94 001a 2CBF     		ite	cs
  95 001c 1046     		movcs	r0, r2
  96 001e 42F00100 		orrcc	r0, r2, #1
  97              	.LVL8:
  98              		.loc 1 179 0 discriminator 2
  99 0022 7047     		bx	lr
 100              	.LVL9:
 101              	.L6:
 102              		.loc 1 177 0 discriminator 1
 103 0024 8B42     		cmp	r3, r1
 104 0026 2CBF     		ite	cs
 105 0028 0020     		movcs	r0, #0
 106              	.LVL10:
 107 002a 0120     		movcc	r0, #1
 108 002c 9342     		cmp	r3, r2
 109 002e 38BF     		it	cc
 110 0030 0020     		movcc	r0, #0
 111 0032 7047     		bx	lr
 112              		.cfi_endproc
ARM GAS  /tmp/ccjDPDsq.s 			page 3


 113              	.LFE119:
 114              		.size	halIsCounterWithin, .-halIsCounterWithin
 115 0034 AFF30080 		.section	.text.halPolledDelay,"ax",%progbits
 115      AFF30080 
 115      AFF30080 
 116              		.align	2
 117              		.p2align 4,,15
 118              		.global	halPolledDelay
 119              		.thumb
 120              		.thumb_func
 121              		.type	halPolledDelay, %function
 122              	halPolledDelay:
 123              	.LFB120:
 124              		.loc 1 193 0
 125              		.cfi_startproc
 126              		@ args = 0, pretend = 0, frame = 0
 127              		@ frame_needed = 0, uses_anonymous_args = 0
 128              		@ link register save eliminated.
 129              	.LVL11:
 130              		.loc 1 194 0
 131 0000 4FF48053 		mov	r3, #4096
 132 0004 CEF20003 		movt	r3, 57344
 133              		.loc 1 193 0
 134 0008 10B4     		push	{r4}
 135              		.cfi_def_cfa_offset 4
 136              		.cfi_offset 4, -4
 137              		.loc 1 194 0
 138 000a 5A68     		ldr	r2, [r3, #4]
 139              	.LVL12:
 140              	.LBB4:
 141              	.LBB5:
 142              		.loc 1 175 0
 143 000c 1C46     		mov	r4, r3
 144              	.LBE5:
 145              	.LBE4:
 146              		.loc 1 195 0
 147 000e 1044     		add	r0, r0, r2
 148              	.LVL13:
 149              	.L11:
 150              	.LBB8:
 151              	.LBB6:
 152              		.loc 1 177 0 discriminator 1
 153 0010 8242     		cmp	r2, r0
 154              		.loc 1 175 0 discriminator 1
 155 0012 6368     		ldr	r3, [r4, #4]
 156              	.LVL14:
 157              		.loc 1 177 0 discriminator 1
 158 0014 0BD2     		bcs	.L8
 159              		.loc 1 177 0 is_stmt 0
 160 0016 9842     		cmp	r0, r3
 161 0018 94BF     		ite	ls
 162 001a 0021     		movls	r1, #0
 163 001c 0121     		movhi	r1, #1
 164 001e 9A42     		cmp	r2, r3
 165 0020 88BF     		it	hi
 166 0022 0021     		movhi	r1, #0
 167              	.LBE6:
ARM GAS  /tmp/ccjDPDsq.s 			page 4


 168              	.LBE8:
 169              		.loc 1 196 0 is_stmt 1
 170 0024 0029     		cmp	r1, #0
 171 0026 F3D1     		bne	.L11
 172              	.L12:
 173              		.loc 1 198 0
 174 0028 5DF8044B 		ldr	r4, [sp], #4
 175 002c 7047     		bx	lr
 176              	.L8:
 177              	.LBB9:
 178              	.LBB7:
 179              		.loc 1 178 0
 180 002e 9A42     		cmp	r2, r3
 181 0030 8CBF     		ite	hi
 182 0032 0021     		movhi	r1, #0
 183 0034 0121     		movls	r1, #1
 184 0036 9842     		cmp	r0, r3
 185 0038 88BF     		it	hi
 186 003a 41F00101 		orrhi	r1, r1, #1
 187              	.LBE7:
 188              	.LBE9:
 189              		.loc 1 196 0
 190 003e 0029     		cmp	r1, #0
 191 0040 E6D1     		bne	.L11
 192 0042 F1E7     		b	.L12
 193              		.cfi_endproc
 194              	.LFE120:
 195              		.size	halPolledDelay, .-halPolledDelay
 196 0044 AFF30080 		.text
 196      AFF30080 
 196      AFF30080 
 197              	.Letext0:
 198              		.file 2 "/usr/arm-none-eabi/include/machine/_default_types.h"
 199              		.file 3 "/usr/arm-none-eabi/include/stdint.h"
 200              		.file 4 "../../os/ports/GCC/ARMCMx/chtypes.h"
 201              		.file 5 "../../os/ports/common/ARMCMx/nvic.h"
 202              		.file 6 "../../os/hal/platforms/STM32F4xx/hal_lld.h"
 203              		.file 7 "../../os/hal/platforms/STM32/GPIOv2/pal_lld.h"
 204              		.file 8 "../../os/ports/common/ARMCMx/CMSIS/include/core_cm4.h"
 205              		.file 9 "../../os/hal/include/serial.h"
 206              		.file 10 "../../os/hal/include/spi.h"
 207              		.file 11 "../../os/hal/include/mmc_spi.h"
 208              		.file 12 "../../boards/ST_STM32F4_DISCOVERY/board.h"