ARM GAS  /tmp/cc368KMQ.s 			page 1


   1              		.syntax unified
   2              		.cpu cortex-m4
   3              		.fpu softvfp
   4              		.eabi_attribute 20, 1
   5              		.eabi_attribute 21, 1
   6              		.eabi_attribute 23, 3
   7              		.eabi_attribute 24, 1
   8              		.eabi_attribute 25, 1
   9              		.eabi_attribute 26, 1
  10              		.eabi_attribute 30, 2
  11              		.eabi_attribute 34, 1
  12              		.eabi_attribute 18, 4
  13              		.thumb
  14              		.file	"lis302dl.c"
  15              		.text
  16              	.Ltext0:
  17              		.cfi_sections	.debug_frame
  18              		.section	.text.lis302dlReadRegister,"ax",%progbits
  19              		.align	2
  20              		.p2align 4,,15
  21              		.global	lis302dlReadRegister
  22              		.thumb
  23              		.thumb_func
  24              		.type	lis302dlReadRegister, %function
  25              	lis302dlReadRegister:
  26              	.LFB118:
  27              		.file 1 "../../os/various/devices_lib/accel/lis302dl.c"
  28              		.loc 1 60 0
  29              		.cfi_startproc
  30              		@ args = 0, pretend = 0, frame = 0
  31              		@ frame_needed = 0, uses_anonymous_args = 0
  32              	.LVL0:
  33 0000 F8B5     		push	{r3, r4, r5, r6, r7, lr}
  34              		.cfi_def_cfa_offset 24
  35              		.cfi_offset 3, -24
  36              		.cfi_offset 4, -20
  37              		.cfi_offset 5, -16
  38              		.cfi_offset 6, -12
  39              		.cfi_offset 7, -8
  40              		.cfi_offset 14, -4
  41              		.loc 1 65 0
  42 0002 40F20005 		movw	r5, #:lower16:.LANCHOR1
  43              		.loc 1 63 0
  44 0006 40F20004 		movw	r4, #:lower16:.LANCHOR0
  45              		.loc 1 60 0
  46 000a 0F46     		mov	r7, r1
  47 000c 0646     		mov	r6, r0
  48              		.loc 1 63 0
  49 000e C0F20004 		movt	r4, #:upper16:.LANCHOR0
  50              		.loc 1 65 0
  51 0012 C0F20005 		movt	r5, #:upper16:.LANCHOR1
  52              		.loc 1 62 0
  53 0016 FFF7FEFF 		bl	spiSelect
  54              	.LVL1:
  55              		.loc 1 63 0
  56 001a 67F07F0E 		orn	lr, r7, #127
  57              		.loc 1 65 0
ARM GAS  /tmp/cc368KMQ.s 			page 2


  58 001e 2246     		mov	r2, r4
  59 0020 2B46     		mov	r3, r5
  60 0022 3046     		mov	r0, r6
  61 0024 0221     		movs	r1, #2
  62              		.loc 1 64 0
  63 0026 FF27     		movs	r7, #255
  64              		.loc 1 63 0
  65 0028 84F800E0 		strb	lr, [r4]
  66              		.loc 1 64 0
  67 002c 6770     		strb	r7, [r4, #1]
  68              		.loc 1 65 0
  69 002e FFF7FEFF 		bl	spiExchange
  70              	.LVL2:
  71              		.loc 1 66 0
  72 0032 3046     		mov	r0, r6
  73 0034 FFF7FEFF 		bl	spiUnselect
  74              	.LVL3:
  75              		.loc 1 68 0
  76 0038 6878     		ldrb	r0, [r5, #1]	@ zero_extendqisi2
  77 003a F8BD     		pop	{r3, r4, r5, r6, r7, pc}
  78              		.cfi_endproc
  79              	.LFE118:
  80              		.size	lis302dlReadRegister, .-lis302dlReadRegister
  81 003c AFF30080 		.section	.text.lis302dlWriteRegister,"ax",%progbits
  82              		.align	2
  83              		.p2align 4,,15
  84              		.global	lis302dlWriteRegister
  85              		.thumb
  86              		.thumb_func
  87              		.type	lis302dlWriteRegister, %function
  88              	lis302dlWriteRegister:
  89              	.LFB119:
  90              		.loc 1 78 0
  91              		.cfi_startproc
  92              		@ args = 0, pretend = 0, frame = 0
  93              		@ frame_needed = 0, uses_anonymous_args = 0
  94              	.LVL4:
  95 0000 F8B5     		push	{r3, r4, r5, r6, r7, lr}
  96              		.cfi_def_cfa_offset 24
  97              		.cfi_offset 3, -24
  98              		.cfi_offset 4, -20
  99              		.cfi_offset 5, -16
 100              		.cfi_offset 6, -12
 101              		.cfi_offset 7, -8
 102              		.cfi_offset 14, -4
 103 0002 A1F12004 		sub	r4, r1, #32
 104 0006 E4B2     		uxtb	r4, r4
 105 0008 1F2C     		cmp	r4, #31
 106              		.loc 1 78 0
 107 000a 0D46     		mov	r5, r1
 108 000c 1746     		mov	r7, r2
 109 000e 0646     		mov	r6, r0
 110 0010 07D8     		bhi	.L2
 111 0012 0121     		movs	r1, #1
 112              	.LVL5:
 113 0014 0723     		movs	r3, #7
 114 0016 01FA04F4 		lsl	r4, r1, r4
ARM GAS  /tmp/cc368KMQ.s 			page 3


 115 001a CFF6DD13 		movt	r3, 63965
 116 001e 2340     		ands	r3, r3, r4
 117 0020 03B9     		cbnz	r3, .L8
 118              	.L2:
 119 0022 F8BD     		pop	{r3, r4, r5, r6, r7, pc}
 120              	.L8:
 121              		.loc 1 111 0
 122 0024 FFF7FEFF 		bl	spiSelect
 123              	.LVL6:
 124              		.loc 1 112 0
 125 0028 40F20003 		movw	r3, #:lower16:.LANCHOR0
 126 002c C0F20003 		movt	r3, #:upper16:.LANCHOR0
 127              		.loc 1 114 0
 128 0030 3046     		mov	r0, r6
 129 0032 1A46     		mov	r2, r3
 130 0034 0221     		movs	r1, #2
 131              		.loc 1 112 0
 132 0036 1D70     		strb	r5, [r3]
 133              		.loc 1 113 0
 134 0038 5F70     		strb	r7, [r3, #1]
 135              		.loc 1 114 0
 136 003a FFF7FEFF 		bl	spiSend
 137              	.LVL7:
 138              		.loc 1 115 0
 139 003e 3046     		mov	r0, r6
 140              		.loc 1 117 0
 141 0040 BDE8F840 		pop	{r3, r4, r5, r6, r7, lr}
 142              	.LVL8:
 143              		.loc 1 115 0
 144 0044 FFF7FEBF 		b	spiUnselect
 145              	.LVL9:
 146              		.cfi_endproc
 147              	.LFE119:
 148              		.size	lis302dlWriteRegister, .-lis302dlWriteRegister
 149 0048 AFF30080 		.section	.bss.rxbuf,"aw",%nobits
 149      AFF30080 
 150              		.align	2
 151              		.set	.LANCHOR1,. + 0
 152              		.type	rxbuf, %object
 153              		.size	rxbuf, 2
 154              	rxbuf:
 155 0000 0000     		.space	2
 156 0002 0000     		.section	.bss.txbuf,"aw",%nobits
 157              		.align	2
 158              		.set	.LANCHOR0,. + 0
 159              		.type	txbuf, %object
 160              		.size	txbuf, 2
 161              	txbuf:
 162 0000 0000     		.space	2
 163 0002 0000     		.text
 164              	.Letext0:
 165              		.file 2 "/usr/lib/gcc/arm-none-eabi/4.8.2/include/stddef.h"
 166              		.file 3 "/usr/arm-none-eabi/include/machine/_default_types.h"
 167              		.file 4 "/usr/arm-none-eabi/include/stdint.h"
 168              		.file 5 "../../os/ports/GCC/ARMCMx/chtypes.h"
 169              		.file 6 "../../os/kernel/include/chlists.h"
 170              		.file 7 "../../os/kernel/include/chthreads.h"
ARM GAS  /tmp/cc368KMQ.s 			page 4


 171              		.file 8 "../../os/ports/GCC/ARMCMx/chcore_v7m.h"
 172              		.file 9 "../../os/kernel/include/chmtx.h"
 173              		.file 10 "../../os/hal/platforms/STM32F4xx/stm32f4xx.h"
 174              		.file 11 "../../os/hal/platforms/STM32F4xx/stm32_dma.h"
 175              		.file 12 "../../os/hal/platforms/STM32/GPIOv2/pal_lld.h"
 176              		.file 13 "../../os/hal/include/spi.h"
 177              		.file 14 "../../os/hal/platforms/STM32/SPIv1/spi_lld.h"
 178              		.file 15 "../../os/ports/common/ARMCMx/CMSIS/include/core_cm4.h"