ARM GAS  /tmp/ccm53Ykq.s 			page 1


   1              		.syntax unified
   2              		.cpu cortex-m4
   3              		.fpu softvfp
   4              		.eabi_attribute 20, 1
   5              		.eabi_attribute 21, 1
   6              		.eabi_attribute 23, 3
   7              		.eabi_attribute 24, 1
   8              		.eabi_attribute 25, 1
   9              		.eabi_attribute 26, 1
  10              		.eabi_attribute 30, 2
  11              		.eabi_attribute 34, 1
  12              		.eabi_attribute 18, 4
  13              		.thumb
  14              		.file	"main.c"
  15              		.text
  16              	.Ltext0:
  17              		.cfi_sections	.debug_frame
  18              		.section	.text.chprintf.constprop.1,"ax",%progbits
  19              		.align	2
  20              		.p2align 4,,15
  21              		.thumb
  22              		.thumb_func
  23              		.type	chprintf.constprop.1, %function
  24              	chprintf.constprop.1:
  25              	.LFB130:
  26              		.file 1 "../../os/various/chprintf.h"
  27              		.loc 1 69 0
  28              		.cfi_startproc
  29              		@ args = 4, pretend = 12, frame = 8
  30              		@ frame_needed = 0, uses_anonymous_args = 1
  31              	.LVL0:
  32 0000 0EB4     		push	{r1, r2, r3}
  33              		.cfi_def_cfa_offset 12
  34              		.cfi_offset 1, -12
  35              		.cfi_offset 2, -8
  36              		.cfi_offset 3, -4
  37 0002 00B5     		push	{lr}
  38              		.cfi_def_cfa_offset 16
  39              		.cfi_offset 14, -16
  40 0004 82B0     		sub	sp, sp, #8
  41              		.cfi_def_cfa_offset 24
  42              		.loc 1 69 0
  43 0006 03AB     		add	r3, sp, #12
  44              		.loc 1 73 0
  45 0008 40F20000 		movw	r0, #:lower16:SD2
  46              	.LVL1:
  47              		.loc 1 69 0
  48 000c 53F8041B 		ldr	r1, [r3], #4
  49              		.loc 1 73 0
  50 0010 C0F20000 		movt	r0, #:upper16:SD2
  51 0014 1A46     		mov	r2, r3
  52              		.loc 1 72 0
  53 0016 0193     		str	r3, [sp, #4]
  54              		.loc 1 73 0
  55 0018 FFF7FEFF 		bl	chvprintf
  56              	.LVL2:
  57              		.loc 1 75 0
ARM GAS  /tmp/ccm53Ykq.s 			page 2


  58 001c 02B0     		add	sp, sp, #8
  59              		@ sp needed
  60 001e 5DF804EB 		ldr	lr, [sp], #4
  61 0022 03B0     		add	sp, sp, #12
  62 0024 7047     		bx	lr
  63              		.cfi_endproc
  64              	.LFE130:
  65              		.size	chprintf.constprop.1, .-chprintf.constprop.1
  66 0026 00BFAFF3 		.section	.text.print_msg,"ax",%progbits
  66      0080AFF3 
  66      0080
  67              		.align	2
  68              		.p2align 4,,15
  69              		.global	print_msg
  70              		.thumb
  71              		.thumb_func
  72              		.type	print_msg, %function
  73              	print_msg:
  74              	.LFB123:
  75              		.file 2 "main.c"
  76              		.loc 2 144 0
  77              		.cfi_startproc
  78              		@ args = 0, pretend = 0, frame = 0
  79              		@ frame_needed = 0, uses_anonymous_args = 0
  80              	.LVL3:
  81 0000 F8B5     		push	{r3, r4, r5, r6, r7, lr}
  82              		.cfi_def_cfa_offset 24
  83              		.cfi_offset 3, -24
  84              		.cfi_offset 4, -20
  85              		.cfi_offset 5, -16
  86              		.cfi_offset 6, -12
  87              		.cfi_offset 7, -8
  88              		.cfi_offset 14, -4
  89              		.loc 2 144 0
  90 0002 1546     		mov	r5, r2
  91 0004 1E46     		mov	r6, r3
  92 0006 0446     		mov	r4, r0
  93 0008 0F46     		mov	r7, r1
  94              		.loc 2 145 0
  95 000a FFF7FEFF 		bl	puttop
  96              	.LVL4:
  97              		.loc 2 147 0
  98 000e 2846     		mov	r0, r5
  99 0010 FFF7FEFF 		bl	movv
 100              	.LVL5:
 101              		.loc 2 148 0
 102 0014 3046     		mov	r0, r6
 103 0016 FFF7FEFF 		bl	movh
 104              	.LVL6:
 105              		.loc 2 150 0
 106 001a 042C     		cmp	r4, #4
 107 001c 0DD8     		bhi	.L2
 108 001e DFE804F0 		tbb	[pc, r4]
 109              	.L5:
 110 0022 03       		.byte	(.L9-.L5)/2
 111 0023 03       		.byte	(.L9-.L5)/2
 112 0024 03       		.byte	(.L9-.L5)/2
ARM GAS  /tmp/ccm53Ykq.s 			page 3


 113 0025 03       		.byte	(.L9-.L5)/2
 114 0026 03       		.byte	(.L9-.L5)/2
 115 0027 00       		.align	1
 116              	.L9:
 117              		.loc 2 164 0
 118 0028 40F20000 		movw	r0, #:lower16:SD2
 119 002c 3946     		mov	r1, r7
 120 002e C0F20000 		movt	r0, #:upper16:SD2
 121              		.loc 2 169 0
 122 0032 BDE8F840 		pop	{r3, r4, r5, r6, r7, lr}
 123              	.LVL7:
 124              		.loc 2 164 0
 125 0036 FFF7FEBF 		b	chprintf.constprop.1
 126              	.LVL8:
 127              	.L2:
 128 003a F8BD     		pop	{r3, r4, r5, r6, r7, pc}
 129              		.cfi_endproc
 130              	.LFE123:
 131              		.size	print_msg, .-print_msg
 132 003c AFF30080 		.section	.text.print_num,"ax",%progbits
 133              		.align	2
 134              		.p2align 4,,15
 135              		.global	print_num
 136              		.thumb
 137              		.thumb_func
 138              		.type	print_num, %function
 139              	print_num:
 140              	.LFB124:
 141              		.loc 2 171 0
 142              		.cfi_startproc
 143              		@ args = 0, pretend = 0, frame = 0
 144              		@ frame_needed = 0, uses_anonymous_args = 0
 145              	.LVL9:
 146 0000 F8B5     		push	{r3, r4, r5, r6, r7, lr}
 147              		.cfi_def_cfa_offset 24
 148              		.cfi_offset 3, -24
 149              		.cfi_offset 4, -20
 150              		.cfi_offset 5, -16
 151              		.cfi_offset 6, -12
 152              		.cfi_offset 7, -8
 153              		.cfi_offset 14, -4
 154              		.loc 2 171 0
 155 0002 1546     		mov	r5, r2
 156 0004 1E46     		mov	r6, r3
 157 0006 0446     		mov	r4, r0
 158 0008 0F46     		mov	r7, r1
 159              		.loc 2 172 0
 160 000a FFF7FEFF 		bl	puttop
 161              	.LVL10:
 162              		.loc 2 173 0
 163 000e 2846     		mov	r0, r5
 164 0010 FFF7FEFF 		bl	movv
 165              	.LVL11:
 166              		.loc 2 174 0
 167 0014 3046     		mov	r0, r6
 168 0016 FFF7FEFF 		bl	movh
 169              	.LVL12:
ARM GAS  /tmp/ccm53Ykq.s 			page 4


 170              		.loc 2 176 0
 171 001a 042C     		cmp	r4, #4
 172 001c 11D8     		bhi	.L11
 173 001e DFE804F0 		tbb	[pc, r4]
 174              	.L14:
 175 0022 03       		.byte	(.L18-.L14)/2
 176 0023 03       		.byte	(.L18-.L14)/2
 177 0024 03       		.byte	(.L18-.L14)/2
 178 0025 03       		.byte	(.L18-.L14)/2
 179 0026 03       		.byte	(.L18-.L14)/2
 180 0027 00       		.align	1
 181              	.L18:
 182              		.loc 2 190 0
 183 0028 40F20000 		movw	r0, #:lower16:SD2
 184 002c 40F20001 		movw	r1, #:lower16:.LC0
 185 0030 3A46     		mov	r2, r7
 186 0032 C0F20000 		movt	r0, #:upper16:SD2
 187 0036 C0F20001 		movt	r1, #:upper16:.LC0
 188              		.loc 2 196 0
 189 003a BDE8F840 		pop	{r3, r4, r5, r6, r7, lr}
 190              	.LVL13:
 191              		.loc 2 190 0
 192 003e FFF7FEBF 		b	chprintf.constprop.1
 193              	.LVL14:
 194              	.L11:
 195 0042 F8BD     		pop	{r3, r4, r5, r6, r7, pc}
 196              		.cfi_endproc
 197              	.LFE124:
 198              		.size	print_num, .-print_num
 199 0044 AFF30080 		.section	.text.updatePrioTable,"ax",%progbits
 199      AFF30080 
 199      AFF30080 
 200              		.align	2
 201              		.p2align 4,,15
 202              		.global	updatePrioTable
 203              		.thumb
 204              		.thumb_func
 205              		.type	updatePrioTable, %function
 206              	updatePrioTable:
 207              	.LFB125:
 208              		.loc 2 198 0
 209              		.cfi_startproc
 210              		@ args = 0, pretend = 0, frame = 0
 211              		@ frame_needed = 0, uses_anonymous_args = 0
 212 0000 70B5     		push	{r4, r5, r6, lr}
 213              		.cfi_def_cfa_offset 16
 214              		.cfi_offset 4, -16
 215              		.cfi_offset 5, -12
 216              		.cfi_offset 6, -8
 217              		.cfi_offset 14, -4
 218              		.loc 2 199 0
 219 0002 FFF7FEFF 		bl	puttop
 220              	.LVL15:
 221              		.loc 2 200 0
 222 0006 1620     		movs	r0, #22
 223 0008 FFF7FEFF 		bl	movv
 224              	.LVL16:
ARM GAS  /tmp/ccm53Ykq.s 			page 5


 225              		.loc 2 201 0
 226 000c 3720     		movs	r0, #55
 227 000e FFF7FEFF 		bl	movh
 228              	.LVL17:
 229 0012 40F20005 		movw	r5, #:lower16:.LANCHOR0
 230 0016 40F20006 		movw	r6, #:lower16:.LANCHOR1
 231 001a C0F20005 		movt	r5, #:upper16:.LANCHOR0
 232 001e C0F20006 		movt	r6, #:upper16:.LANCHOR1
 233 0022 1724     		movs	r4, #23
 234              	.LVL18:
 235              	.L23:
 236              		.loc 2 204 0
 237 0024 55F8043B 		ldr	r3, [r5], #4
 238              		.loc 2 205 0
 239 0028 3C21     		movs	r1, #60
 240 002a 2046     		mov	r0, r4
 241              		.loc 2 204 0
 242 002c B3B1     		cbz	r3, .L20
 243              		.loc 2 205 0
 244 002e FFF7FEFF 		bl	putcursor
 245              	.LVL19:
 246              		.loc 2 206 0
 247 0032 3720     		movs	r0, #55
 248 0034 FFF7FEFF 		bl	movh
 249              	.LVL20:
 250              	.LBB6:
 251              	.LBB7:
 252              		.loc 2 228 0
 253 0038 55F8043C 		ldr	r3, [r5, #-4]
 254 003c 1B7F     		ldrb	r3, [r3, #28]	@ zero_extendqisi2
 255              	.LBE7:
 256              	.LBE6:
 257              		.loc 2 207 0
 258 003e 40F20000 		movw	r0, #:lower16:SD2
 259 0042 0E2B     		cmp	r3, #14
 260 0044 40F20002 		movw	r2, #:lower16:.LC1
 261 0048 94BF     		ite	ls
 262 004a 56F82310 		ldrls	r1, [r6, r3, lsl #2]
 263              	.LBB9:
 264              	.LBB8:
 265              		.loc 2 228 0
 266 004e 0021     		movhi	r1, #0
 267              	.LBE8:
 268              	.LBE9:
 269              		.loc 2 207 0
 270 0050 C0F20000 		movt	r0, #:upper16:SD2
 271 0054 C0F20002 		movt	r2, #:upper16:.LC1
 272 0058 FFF7FEFF 		bl	chprintf.constprop.1
 273              	.LVL21:
 274              	.L20:
 275 005c 0134     		adds	r4, r4, #1
 276              	.LVL22:
 277              		.loc 2 203 0
 278 005e 1C2C     		cmp	r4, #28
 279 0060 E0D1     		bne	.L23
 280              		.loc 2 211 0
 281 0062 70BD     		pop	{r4, r5, r6, pc}
ARM GAS  /tmp/ccm53Ykq.s 			page 6


 282              		.cfi_endproc
 283              	.LFE125:
 284              		.size	updatePrioTable, .-updatePrioTable
 285 0064 AFF30080 		.section	.text.thread3,"ax",%progbits
 285      AFF30080 
 285      AFF30080 
 286              		.align	2
 287              		.p2align 4,,15
 288              		.thumb
 289              		.thumb_func
 290              		.type	thread3, %function
 291              	thread3:
 292              	.LFB121:
 293              		.loc 2 90 0
 294              		.cfi_startproc
 295              		@ Volatile: function does not return.
 296              		@ args = 0, pretend = 0, frame = 0
 297              		@ frame_needed = 0, uses_anonymous_args = 0
 298              	.LVL23:
 299              		.loc 2 93 0
 300 0000 40F20005 		movw	r5, #:lower16:rlist
 301 0004 C0F20005 		movt	r5, #:upper16:rlist
 302              		.loc 2 95 0
 303 0008 40F20003 		movw	r3, #:lower16:.LANCHOR0
 304              		.loc 2 93 0
 305 000c A969     		ldr	r1, [r5, #24]
 306 000e 40F20002 		movw	r2, #:lower16:.LC2
 307              		.loc 2 95 0
 308 0012 C0F20003 		movt	r3, #:upper16:.LANCHOR0
 309              		.loc 2 90 0
 310 0016 80B5     		push	{r7, lr}
 311              		.cfi_def_cfa_offset 8
 312              		.cfi_offset 7, -8
 313              		.cfi_offset 14, -4
 314              		.loc 2 93 0
 315 0018 C0F20002 		movt	r2, #:upper16:.LC2
 316              		.loc 2 99 0
 317 001c 4FF44066 		mov	r6, #3072
 318 0020 4FF48047 		mov	r7, #16384
 319              		.loc 2 93 0
 320 0024 8A61     		str	r2, [r1, #24]
 321              	.LVL24:
 322              		.loc 2 99 0
 323 0026 C4F20206 		movt	r6, 16386
 324              		.loc 2 95 0
 325 002a 9960     		str	r1, [r3, #8]
 326              	.LVL25:
 327              		.loc 2 99 0
 328 002c B846     		mov	r8, r7	@ movhi
 329              		.loc 2 97 0
 330 002e 0024     		movs	r4, #0
 331              	.LVL26:
 332              	.L29:
 333              		.loc 2 101 0 discriminator 1
 334 0030 40F20000 		movw	r0, #:lower16:.LANCHOR2
 335              		.loc 2 99 0 discriminator 1
 336 0034 A6F81880 		strh	r8, [r6, #24]	@ movhi
ARM GAS  /tmp/ccm53Ykq.s 			page 7


 337              		.loc 2 101 0 discriminator 1
 338 0038 C0F20000 		movt	r0, #:upper16:.LANCHOR2
 339 003c FFF7FEFF 		bl	chMtxLock
 340              	.LVL27:
 341              		.loc 2 102 0 discriminator 1
 342 0040 0320     		movs	r0, #3
 343 0042 40F20001 		movw	r1, #:lower16:.LC3
 344 0046 0246     		mov	r2, r0
 345 0048 C0F20001 		movt	r1, #:upper16:.LC3
 346 004c 0223     		movs	r3, #2
 347 004e FFF7FEFF 		bl	print_msg
 348              	.LVL28:
 349              		.loc 2 103 0 discriminator 1
 350 0052 0320     		movs	r0, #3
 351 0054 0246     		mov	r2, r0
 352 0056 2146     		mov	r1, r4
 353 0058 1423     		movs	r3, #20
 354 005a FFF7FEFF 		bl	print_num
 355              	.LVL29:
 356              		.loc 2 104 0 discriminator 1
 357 005e AB69     		ldr	r3, [r5, #24]
 358 0060 0320     		movs	r0, #3
 359 0062 9969     		ldr	r1, [r3, #24]
 360 0064 1822     		movs	r2, #24
 361 0066 0023     		movs	r3, #0
 362 0068 FFF7FEFF 		bl	print_msg
 363              	.LVL30:
 364              		.loc 2 105 0 discriminator 1
 365 006c AB69     		ldr	r3, [r5, #24]
 366 006e 1822     		movs	r2, #24
 367 0070 9968     		ldr	r1, [r3, #8]
 368 0072 0320     		movs	r0, #3
 369 0074 1E23     		movs	r3, #30
 370 0076 FFF7FEFF 		bl	print_num
 371              	.LVL31:
 372              		.loc 2 106 0 discriminator 1
 373 007a FFF7FEFF 		bl	updatePrioTable
 374              	.LVL32:
 375              		.loc 2 107 0 discriminator 1
 376 007e FFF7FEFF 		bl	chMtxUnlock
 377              	.LVL33:
 378              		.loc 2 109 0 discriminator 1
 379 0082 4FF47A70 		mov	r0, #1000
 380 0086 FFF7FEFF 		bl	chThdSleep
 381              	.LVL34:
 382              		.loc 2 110 0 discriminator 1
 383 008a 7783     		strh	r7, [r6, #26]	@ movhi
 384              		.loc 2 111 0 discriminator 1
 385 008c 4FF47A70 		mov	r0, #1000
 386              		.loc 2 113 0 discriminator 1
 387 0090 0134     		adds	r4, r4, #1
 388              	.LVL35:
 389              		.loc 2 111 0 discriminator 1
 390 0092 FFF7FEFF 		bl	chThdSleep
 391              	.LVL36:
 392 0096 CBE7     		b	.L29
 393              		.cfi_endproc
ARM GAS  /tmp/ccm53Ykq.s 			page 8


 394              	.LFE121:
 395              		.size	thread3, .-thread3
 396 0098 AFF30080 		.section	.text.thread2,"ax",%progbits
 396      AFF30080 
 397              		.align	2
 398              		.p2align 4,,15
 399              		.thumb
 400              		.thumb_func
 401              		.type	thread2, %function
 402              	thread2:
 403              	.LFB120:
 404              		.loc 2 64 0
 405              		.cfi_startproc
 406              		@ Volatile: function does not return.
 407              		@ args = 0, pretend = 0, frame = 0
 408              		@ frame_needed = 0, uses_anonymous_args = 0
 409              	.LVL37:
 410              		.loc 2 66 0
 411 0000 40F20005 		movw	r5, #:lower16:rlist
 412 0004 C0F20005 		movt	r5, #:upper16:rlist
 413              		.loc 2 68 0
 414 0008 40F20003 		movw	r3, #:lower16:.LANCHOR0
 415              		.loc 2 66 0
 416 000c A969     		ldr	r1, [r5, #24]
 417 000e 40F20002 		movw	r2, #:lower16:.LC4
 418              		.loc 2 68 0
 419 0012 C0F20003 		movt	r3, #:upper16:.LANCHOR0
 420              		.loc 2 64 0
 421 0016 80B5     		push	{r7, lr}
 422              		.cfi_def_cfa_offset 8
 423              		.cfi_offset 7, -8
 424              		.cfi_offset 14, -4
 425              		.loc 2 66 0
 426 0018 C0F20002 		movt	r2, #:upper16:.LC4
 427              		.loc 2 72 0
 428 001c 4FF44066 		mov	r6, #3072
 429 0020 4FF48057 		mov	r7, #4096
 430              		.loc 2 66 0
 431 0024 8A61     		str	r2, [r1, #24]
 432              	.LVL38:
 433              		.loc 2 68 0
 434 0026 5960     		str	r1, [r3, #4]
 435              	.LVL39:
 436              		.loc 2 72 0
 437 0028 C4F20206 		movt	r6, 16386
 438 002c B846     		mov	r8, r7	@ movhi
 439              		.loc 2 70 0
 440 002e 0024     		movs	r4, #0
 441              	.LVL40:
 442              	.L31:
 443              		.loc 2 74 0 discriminator 1
 444 0030 40F20000 		movw	r0, #:lower16:.LANCHOR2
 445              		.loc 2 72 0 discriminator 1
 446 0034 A6F81880 		strh	r8, [r6, #24]	@ movhi
 447              		.loc 2 74 0 discriminator 1
 448 0038 C0F20000 		movt	r0, #:upper16:.LANCHOR2
 449 003c FFF7FEFF 		bl	chMtxLock
ARM GAS  /tmp/ccm53Ykq.s 			page 9


 450              	.LVL41:
 451              		.loc 2 75 0 discriminator 1
 452 0040 0222     		movs	r2, #2
 453 0042 40F20001 		movw	r1, #:lower16:.LC5
 454 0046 1346     		mov	r3, r2
 455 0048 C0F20001 		movt	r1, #:upper16:.LC5
 456 004c 0120     		movs	r0, #1
 457 004e FFF7FEFF 		bl	print_msg
 458              	.LVL42:
 459              		.loc 2 76 0 discriminator 1
 460 0052 2146     		mov	r1, r4
 461 0054 0120     		movs	r0, #1
 462 0056 0222     		movs	r2, #2
 463 0058 1423     		movs	r3, #20
 464 005a FFF7FEFF 		bl	print_num
 465              	.LVL43:
 466              		.loc 2 77 0 discriminator 1
 467 005e AB69     		ldr	r3, [r5, #24]
 468 0060 0120     		movs	r0, #1
 469 0062 9969     		ldr	r1, [r3, #24]
 470 0064 1722     		movs	r2, #23
 471 0066 0023     		movs	r3, #0
 472 0068 FFF7FEFF 		bl	print_msg
 473              	.LVL44:
 474              		.loc 2 78 0 discriminator 1
 475 006c AB69     		ldr	r3, [r5, #24]
 476 006e 1722     		movs	r2, #23
 477 0070 9968     		ldr	r1, [r3, #8]
 478 0072 0120     		movs	r0, #1
 479 0074 1E23     		movs	r3, #30
 480 0076 FFF7FEFF 		bl	print_num
 481              	.LVL45:
 482              		.loc 2 79 0 discriminator 1
 483 007a FFF7FEFF 		bl	updatePrioTable
 484              	.LVL46:
 485              		.loc 2 80 0 discriminator 1
 486 007e FFF7FEFF 		bl	chMtxUnlock
 487              	.LVL47:
 488              		.loc 2 82 0 discriminator 1
 489 0082 4FF4FA70 		mov	r0, #500
 490 0086 FFF7FEFF 		bl	chThdSleep
 491              	.LVL48:
 492              		.loc 2 83 0 discriminator 1
 493 008a 7783     		strh	r7, [r6, #26]	@ movhi
 494              		.loc 2 84 0 discriminator 1
 495 008c 4FF4FA70 		mov	r0, #500
 496              		.loc 2 86 0 discriminator 1
 497 0090 0134     		adds	r4, r4, #1
 498              	.LVL49:
 499              		.loc 2 84 0 discriminator 1
 500 0092 FFF7FEFF 		bl	chThdSleep
 501              	.LVL50:
 502 0096 CBE7     		b	.L31
 503              		.cfi_endproc
 504              	.LFE120:
 505              		.size	thread2, .-thread2
 506 0098 AFF30080 		.section	.text.thread1,"ax",%progbits
ARM GAS  /tmp/ccm53Ykq.s 			page 10


 506      AFF30080 
 507              		.align	2
 508              		.p2align 4,,15
 509              		.thumb
 510              		.thumb_func
 511              		.type	thread1, %function
 512              	thread1:
 513              	.LFB119:
 514              		.loc 2 40 0
 515              		.cfi_startproc
 516              		@ Volatile: function does not return.
 517              		@ args = 0, pretend = 0, frame = 0
 518              		@ frame_needed = 0, uses_anonymous_args = 0
 519              	.LVL51:
 520              		.loc 2 42 0
 521 0000 40F20005 		movw	r5, #:lower16:rlist
 522 0004 C0F20005 		movt	r5, #:upper16:rlist
 523              		.loc 2 45 0
 524 0008 40F20003 		movw	r3, #:lower16:.LANCHOR0
 525              		.loc 2 42 0
 526 000c A969     		ldr	r1, [r5, #24]
 527 000e 40F20002 		movw	r2, #:lower16:.LC6
 528              		.loc 2 45 0
 529 0012 C0F20003 		movt	r3, #:upper16:.LANCHOR0
 530              		.loc 2 40 0
 531 0016 80B5     		push	{r7, lr}
 532              		.cfi_def_cfa_offset 8
 533              		.cfi_offset 7, -8
 534              		.cfi_offset 14, -4
 535              		.loc 2 42 0
 536 0018 C0F20002 		movt	r2, #:upper16:.LC6
 537              		.loc 2 47 0
 538 001c 4FF44066 		mov	r6, #3072
 539 0020 4FF40057 		mov	r7, #8192
 540              		.loc 2 42 0
 541 0024 8A61     		str	r2, [r1, #24]
 542              	.LVL52:
 543              		.loc 2 45 0
 544 0026 1960     		str	r1, [r3]
 545              		.loc 2 47 0
 546 0028 C4F20206 		movt	r6, 16386
 547 002c B846     		mov	r8, r7	@ movhi
 548              		.loc 2 44 0
 549 002e 0024     		movs	r4, #0
 550              	.LVL53:
 551              	.L33:
 552              		.loc 2 49 0 discriminator 1
 553 0030 40F20000 		movw	r0, #:lower16:.LANCHOR2
 554              		.loc 2 47 0 discriminator 1
 555 0034 A6F81880 		strh	r8, [r6, #24]	@ movhi
 556              		.loc 2 49 0 discriminator 1
 557 0038 C0F20000 		movt	r0, #:upper16:.LANCHOR2
 558 003c FFF7FEFF 		bl	chMtxLock
 559              	.LVL54:
 560              		.loc 2 50 0 discriminator 1
 561 0040 40F20001 		movw	r1, #:lower16:.LC7
 562 0044 C0F20001 		movt	r1, #:upper16:.LC7
ARM GAS  /tmp/ccm53Ykq.s 			page 11


 563 0048 0020     		movs	r0, #0
 564 004a 0122     		movs	r2, #1
 565 004c 0223     		movs	r3, #2
 566 004e FFF7FEFF 		bl	print_msg
 567              	.LVL55:
 568              		.loc 2 51 0 discriminator 1
 569 0052 2146     		mov	r1, r4
 570 0054 0020     		movs	r0, #0
 571 0056 0122     		movs	r2, #1
 572 0058 1423     		movs	r3, #20
 573 005a FFF7FEFF 		bl	print_num
 574              	.LVL56:
 575              		.loc 2 52 0 discriminator 1
 576 005e AB69     		ldr	r3, [r5, #24]
 577 0060 0020     		movs	r0, #0
 578 0062 9969     		ldr	r1, [r3, #24]
 579 0064 1622     		movs	r2, #22
 580 0066 0346     		mov	r3, r0
 581 0068 FFF7FEFF 		bl	print_msg
 582              	.LVL57:
 583              		.loc 2 53 0 discriminator 1
 584 006c AB69     		ldr	r3, [r5, #24]
 585 006e 1622     		movs	r2, #22
 586 0070 9968     		ldr	r1, [r3, #8]
 587 0072 0020     		movs	r0, #0
 588 0074 1E23     		movs	r3, #30
 589 0076 FFF7FEFF 		bl	print_num
 590              	.LVL58:
 591              		.loc 2 54 0 discriminator 1
 592 007a FFF7FEFF 		bl	updatePrioTable
 593              	.LVL59:
 594              		.loc 2 55 0 discriminator 1
 595 007e FFF7FEFF 		bl	chMtxUnlock
 596              	.LVL60:
 597              		.loc 2 57 0 discriminator 1
 598 0082 FA20     		movs	r0, #250
 599 0084 FFF7FEFF 		bl	chThdSleep
 600              	.LVL61:
 601              		.loc 2 58 0 discriminator 1
 602 0088 7783     		strh	r7, [r6, #26]	@ movhi
 603              		.loc 2 59 0 discriminator 1
 604 008a FA20     		movs	r0, #250
 605              		.loc 2 60 0 discriminator 1
 606 008c 0134     		adds	r4, r4, #1
 607              	.LVL62:
 608              		.loc 2 59 0 discriminator 1
 609 008e FFF7FEFF 		bl	chThdSleep
 610              	.LVL63:
 611 0092 CDE7     		b	.L33
 612              		.cfi_endproc
 613              	.LFE119:
 614              		.size	thread1, .-thread1
 615 0094 AFF30080 		.section	.text.updateThdTicksTable,"ax",%progbits
 615      AFF30080 
 615      AFF30080 
 616              		.align	2
 617              		.p2align 4,,15
ARM GAS  /tmp/ccm53Ykq.s 			page 12


 618              		.global	updateThdTicksTable
 619              		.thumb
 620              		.thumb_func
 621              		.type	updateThdTicksTable, %function
 622              	updateThdTicksTable:
 623              	.LFB126:
 624              		.loc 2 213 0
 625              		.cfi_startproc
 626              		@ args = 0, pretend = 0, frame = 0
 627              		@ frame_needed = 0, uses_anonymous_args = 0
 628 0000 38B5     		push	{r3, r4, r5, lr}
 629              		.cfi_def_cfa_offset 16
 630              		.cfi_offset 3, -16
 631              		.cfi_offset 4, -12
 632              		.cfi_offset 5, -8
 633              		.cfi_offset 14, -4
 634              		.loc 2 214 0
 635 0002 FFF7FEFF 		bl	puttop
 636              	.LVL64:
 637              		.loc 2 215 0
 638 0006 1720     		movs	r0, #23
 639 0008 FFF7FEFF 		bl	movv
 640              	.LVL65:
 641              		.loc 2 216 0
 642 000c 2D20     		movs	r0, #45
 643 000e FFF7FEFF 		bl	movh
 644              	.LVL66:
 645 0012 40F20005 		movw	r5, #:lower16:.LANCHOR0
 646 0016 C0F20005 		movt	r5, #:upper16:.LANCHOR0
 647 001a 1724     		movs	r4, #23
 648              	.LVL67:
 649              	.L37:
 650              		.loc 2 219 0
 651 001c 55F8043B 		ldr	r3, [r5], #4
 652              		.loc 2 220 0
 653 0020 2046     		mov	r0, r4
 654 0022 2821     		movs	r1, #40
 655 0024 0134     		adds	r4, r4, #1
 656              	.LVL68:
 657              		.loc 2 219 0
 658 0026 8BB1     		cbz	r3, .L35
 659              		.loc 2 220 0
 660 0028 FFF7FEFF 		bl	putcursor
 661              	.LVL69:
 662              		.loc 2 221 0
 663 002c 2D20     		movs	r0, #45
 664 002e FFF7FEFF 		bl	movh
 665              	.LVL70:
 666              		.loc 2 222 0
 667 0032 55F8043C 		ldr	r3, [r5, #-4]
 668 0036 40F20000 		movw	r0, #:lower16:SD2
 669 003a 40F20001 		movw	r1, #:lower16:.LC8
 670 003e 1A6A     		ldr	r2, [r3, #32]
 671 0040 C0F20000 		movt	r0, #:upper16:SD2
 672 0044 C0F20001 		movt	r1, #:upper16:.LC8
 673 0048 FFF7FEFF 		bl	chprintf.constprop.1
 674              	.LVL71:
ARM GAS  /tmp/ccm53Ykq.s 			page 13


 675              	.L35:
 676              		.loc 2 218 0
 677 004c 1C2C     		cmp	r4, #28
 678 004e E5D1     		bne	.L37
 679              		.loc 2 225 0
 680 0050 38BD     		pop	{r3, r4, r5, pc}
 681              		.cfi_endproc
 682              	.LFE126:
 683              		.size	updateThdTicksTable, .-updateThdTicksTable
 684 0052 00BFAFF3 		.section	.text.thread4,"ax",%progbits
 684      0080AFF3 
 684      0080AFF3 
 684      0080
 685              		.align	2
 686              		.p2align 4,,15
 687              		.thumb
 688              		.thumb_func
 689              		.type	thread4, %function
 690              	thread4:
 691              	.LFB122:
 692              		.loc 2 117 0
 693              		.cfi_startproc
 694              		@ Volatile: function does not return.
 695              		@ args = 0, pretend = 0, frame = 0
 696              		@ frame_needed = 0, uses_anonymous_args = 0
 697              	.LVL72:
 698              		.loc 2 120 0
 699 0000 40F20005 		movw	r5, #:lower16:rlist
 700 0004 C0F20005 		movt	r5, #:upper16:rlist
 701              		.loc 2 122 0
 702 0008 40F20003 		movw	r3, #:lower16:.LANCHOR0
 703              		.loc 2 120 0
 704 000c A969     		ldr	r1, [r5, #24]
 705 000e 40F20002 		movw	r2, #:lower16:.LC9
 706              		.loc 2 122 0
 707 0012 C0F20003 		movt	r3, #:upper16:.LANCHOR0
 708              		.loc 2 120 0
 709 0016 C0F20002 		movt	r2, #:upper16:.LC9
 710              		.loc 2 126 0
 711 001a 4FF44066 		mov	r6, #3072
 712              		.loc 2 117 0
 713 001e 80B5     		push	{r7, lr}
 714              		.cfi_def_cfa_offset 8
 715              		.cfi_offset 7, -8
 716              		.cfi_offset 14, -4
 717              		.loc 2 126 0
 718 0020 C4F20206 		movt	r6, 16386
 719              		.loc 2 120 0
 720 0024 8A61     		str	r2, [r1, #24]
 721              	.LVL73:
 722              		.loc 2 124 0
 723 0026 0024     		movs	r4, #0
 724              		.loc 2 122 0
 725 0028 D960     		str	r1, [r3, #12]
 726              	.LVL74:
 727              		.loc 2 126 0
 728 002a 4FF40048 		mov	r8, #32768
ARM GAS  /tmp/ccm53Ykq.s 			page 14


 729 002e 48F20007 		movw	r7, 32768	@ movhi
 730              	.LVL75:
 731              	.L42:
 732              		.loc 2 128 0 discriminator 1
 733 0032 40F20000 		movw	r0, #:lower16:.LANCHOR2
 734              		.loc 2 126 0 discriminator 1
 735 0036 3783     		strh	r7, [r6, #24]	@ movhi
 736              		.loc 2 128 0 discriminator 1
 737 0038 C0F20000 		movt	r0, #:upper16:.LANCHOR2
 738 003c FFF7FEFF 		bl	chMtxLock
 739              	.LVL76:
 740              		.loc 2 129 0 discriminator 1
 741 0040 0220     		movs	r0, #2
 742 0042 40F20001 		movw	r1, #:lower16:.LC10
 743 0046 0346     		mov	r3, r0
 744 0048 C0F20001 		movt	r1, #:upper16:.LC10
 745 004c 0422     		movs	r2, #4
 746 004e FFF7FEFF 		bl	print_msg
 747              	.LVL77:
 748              		.loc 2 130 0 discriminator 1
 749 0052 2146     		mov	r1, r4
 750 0054 0220     		movs	r0, #2
 751 0056 0422     		movs	r2, #4
 752 0058 1423     		movs	r3, #20
 753 005a FFF7FEFF 		bl	print_num
 754              	.LVL78:
 755              		.loc 2 131 0 discriminator 1
 756 005e AB69     		ldr	r3, [r5, #24]
 757 0060 0220     		movs	r0, #2
 758 0062 9969     		ldr	r1, [r3, #24]
 759 0064 1922     		movs	r2, #25
 760 0066 0023     		movs	r3, #0
 761 0068 FFF7FEFF 		bl	print_msg
 762              	.LVL79:
 763              		.loc 2 132 0 discriminator 1
 764 006c AB69     		ldr	r3, [r5, #24]
 765 006e 1922     		movs	r2, #25
 766 0070 9968     		ldr	r1, [r3, #8]
 767 0072 0220     		movs	r0, #2
 768 0074 1E23     		movs	r3, #30
 769 0076 FFF7FEFF 		bl	print_num
 770              	.LVL80:
 771              		.loc 2 133 0 discriminator 1
 772 007a FFF7FEFF 		bl	updatePrioTable
 773              	.LVL81:
 774              		.loc 2 134 0 discriminator 1
 775 007e FFF7FEFF 		bl	updateThdTicksTable
 776              	.LVL82:
 777              		.loc 2 135 0 discriminator 1
 778 0082 FFF7FEFF 		bl	chMtxUnlock
 779              	.LVL83:
 780              		.loc 2 137 0 discriminator 1
 781 0086 4FF4FA60 		mov	r0, #2000
 782 008a FFF7FEFF 		bl	chThdSleep
 783              	.LVL84:
 784              		.loc 2 138 0 discriminator 1
 785 008e A6F81A80 		strh	r8, [r6, #26]	@ movhi
ARM GAS  /tmp/ccm53Ykq.s 			page 15


 786              		.loc 2 139 0 discriminator 1
 787 0092 4FF4FA60 		mov	r0, #2000
 788              		.loc 2 140 0 discriminator 1
 789 0096 0134     		adds	r4, r4, #1
 790              	.LVL85:
 791              		.loc 2 139 0 discriminator 1
 792 0098 FFF7FEFF 		bl	chThdSleep
 793              	.LVL86:
 794 009c C9E7     		b	.L42
 795              		.cfi_endproc
 796              	.LFE122:
 797              		.size	thread4, .-thread4
 798              		.section	.text.getThreadStateName,"ax",%progbits
 799              		.align	2
 800              		.p2align 4,,15
 801              		.global	getThreadStateName
 802              		.thumb
 803              		.thumb_func
 804              		.type	getThreadStateName, %function
 805              	getThreadStateName:
 806              	.LFB127:
 807              		.loc 2 227 0
 808              		.cfi_startproc
 809              		@ args = 0, pretend = 0, frame = 0
 810              		@ frame_needed = 0, uses_anonymous_args = 0
 811              		@ link register save eliminated.
 812              	.LVL87:
 813              		.loc 2 228 0
 814 0000 037F     		ldrb	r3, [r0, #28]	@ zero_extendqisi2
 815 0002 0E2B     		cmp	r3, #14
 816 0004 9DBF     		ittte	ls
 817 0006 40F20002 		movwls	r2, #:lower16:.LANCHOR1
 818 000a C0F20002 		movtls	r2, #:upper16:.LANCHOR1
 819 000e 52F82300 		ldrls	r0, [r2, r3, lsl #2]
 820              	.LVL88:
 821 0012 0020     		movhi	r0, #0
 822              		.loc 2 261 0
 823 0014 7047     		bx	lr
 824              		.cfi_endproc
 825              	.LFE127:
 826              		.size	getThreadStateName, .-getThreadStateName
 827 0016 00BFAFF3 		.section	.text.startup.main,"ax",%progbits
 827      0080AFF3 
 827      0080
 828              		.align	2
 829              		.p2align 4,,15
 830              		.global	main
 831              		.thumb
 832              		.thumb_func
 833              		.type	main, %function
 834              	main:
 835              	.LFB128:
 836              		.loc 2 263 0
 837              		.cfi_startproc
 838              		@ args = 0, pretend = 0, frame = 0
 839              		@ frame_needed = 0, uses_anonymous_args = 0
 840 0000 F0B5     		push	{r4, r5, r6, r7, lr}
ARM GAS  /tmp/ccm53Ykq.s 			page 16


 841              		.cfi_def_cfa_offset 20
 842              		.cfi_offset 4, -20
 843              		.cfi_offset 5, -16
 844              		.cfi_offset 6, -12
 845              		.cfi_offset 7, -8
 846              		.cfi_offset 14, -4
 847 0002 83B0     		sub	sp, sp, #12
 848              		.cfi_def_cfa_offset 32
 849              		.loc 2 264 0
 850 0004 FFF7FEFF 		bl	halInit
 851              	.LVL89:
 852              		.loc 2 265 0
 853 0008 FFF7FEFF 		bl	chSysInit
 854              	.LVL90:
 855              		.loc 2 266 0
 856 000c 40F20000 		movw	r0, #:lower16:.LANCHOR2
 857 0010 C0F20000 		movt	r0, #:upper16:.LANCHOR2
 858 0014 FFF7FEFF 		bl	chMtxInit
 859              	.LVL91:
 860              		.loc 2 269 0
 861 0018 40F20000 		movw	r0, #:lower16:SD2
 862 001c C0F20000 		movt	r0, #:upper16:SD2
 863 0020 0021     		movs	r1, #0
 864 0022 FFF7FEFF 		bl	sdStart
 865              	.LVL92:
 866              		.loc 2 270 0
 867 0026 0020     		movs	r0, #0
 868 0028 C4F20200 		movt	r0, 16386
 869 002c 0421     		movs	r1, #4
 870 002e 40F28232 		movw	r2, #898
 871 0032 FFF7FEFF 		bl	_pal_lld_setgroupmode
 872              	.LVL93:
 873              		.loc 2 271 0
 874 0036 0020     		movs	r0, #0
 875 0038 0821     		movs	r1, #8
 876 003a 40F28232 		movw	r2, #898
 877 003e C4F20200 		movt	r0, 16386
 878 0042 FFF7FEFF 		bl	_pal_lld_setgroupmode
 879              	.LVL94:
 880              		.loc 2 273 0
 881 0046 FFF7FEFF 		bl	cls
 882              	.LVL95:
 883              		.loc 2 274 0
 884 004a FFF7FEFF 		bl	puttop
 885              	.LVL96:
 886              		.loc 2 276 0
 887 004e 40F20000 		movw	r0, #:lower16:SD2
 888 0052 40F20001 		movw	r1, #:lower16:.LC11
 889 0056 40F20002 		movw	r2, #:lower16:.LC12
 890 005a C0F20002 		movt	r2, #:upper16:.LC12
 891 005e C0F20001 		movt	r1, #:upper16:.LC11
 892 0062 C0F20000 		movt	r0, #:upper16:SD2
 893 0066 FFF7FEFF 		bl	chprintf.constprop.1
 894              	.LVL97:
 895              		.loc 2 278 0
 896 006a 1320     		movs	r0, #19
 897 006c FFF7FEFF 		bl	movv
ARM GAS  /tmp/ccm53Ykq.s 			page 17


 898              	.LVL98:
 899              		.loc 2 279 0
 900 0070 40F20000 		movw	r0, #:lower16:SD2
 901 0074 40F20001 		movw	r1, #:lower16:.LC13
 902 0078 C0F20000 		movt	r0, #:upper16:SD2
 903 007c C0F20001 		movt	r1, #:upper16:.LC13
 904              		.loc 2 282 0
 905 0080 40F20004 		movw	r4, #:lower16:rlist
 906              		.loc 2 279 0
 907 0084 FFF7FEFF 		bl	chprintf.constprop.1
 908              	.LVL99:
 909              		.loc 2 282 0
 910 0088 C0F20004 		movt	r4, #:upper16:rlist
 911              		.loc 2 280 0
 912 008c 40F20000 		movw	r0, #:lower16:SD2
 913 0090 40F20001 		movw	r1, #:lower16:.LC14
 914 0094 C0F20000 		movt	r0, #:upper16:SD2
 915 0098 C0F20001 		movt	r1, #:upper16:.LC14
 916              		.loc 2 282 0
 917 009c 40F20006 		movw	r6, #:lower16:.LANCHOR0
 918              		.loc 2 280 0
 919 00a0 FFF7FEFF 		bl	chprintf.constprop.1
 920              	.LVL100:
 921              		.loc 2 287 0
 922 00a4 0025     		movs	r5, #0
 923              		.loc 2 282 0
 924 00a6 A769     		ldr	r7, [r4, #24]
 925              		.loc 2 287 0
 926 00a8 0095     		str	r5, [sp]
 927              		.loc 2 282 0
 928 00aa C0F20006 		movt	r6, #:upper16:.LANCHOR0
 929              		.loc 2 287 0
 930 00ae 40F20000 		movw	r0, #:lower16:.LANCHOR3
 931 00b2 40F20003 		movw	r3, #:lower16:thread1
 932 00b6 C0F20003 		movt	r3, #:upper16:thread1
 933 00ba 4FF42C71 		mov	r1, #688
 934 00be 4022     		movs	r2, #64
 935 00c0 C0F20000 		movt	r0, #:upper16:.LANCHOR3
 936              		.loc 2 282 0
 937 00c4 3761     		str	r7, [r6, #16]
 938              	.LVL101:
 939              		.loc 2 287 0
 940 00c6 FFF7FEFF 		bl	chThdCreateStatic
 941              	.LVL102:
 942              		.loc 2 288 0
 943 00ca 40F20000 		movw	r0, #:lower16:.LANCHOR4
 944 00ce 40F20003 		movw	r3, #:lower16:thread2
 945 00d2 C0F20003 		movt	r3, #:upper16:thread2
 946 00d6 4FF42C71 		mov	r1, #688
 947 00da 4022     		movs	r2, #64
 948 00dc 0095     		str	r5, [sp]
 949 00de C0F20000 		movt	r0, #:upper16:.LANCHOR4
 950 00e2 FFF7FEFF 		bl	chThdCreateStatic
 951              	.LVL103:
 952              		.loc 2 289 0
 953 00e6 40F20000 		movw	r0, #:lower16:.LANCHOR5
 954 00ea 40F20003 		movw	r3, #:lower16:thread3
ARM GAS  /tmp/ccm53Ykq.s 			page 18


 955 00ee C0F20003 		movt	r3, #:upper16:thread3
 956 00f2 4FF42C71 		mov	r1, #688
 957 00f6 4022     		movs	r2, #64
 958 00f8 0095     		str	r5, [sp]
 959 00fa C0F20000 		movt	r0, #:upper16:.LANCHOR5
 960 00fe FFF7FEFF 		bl	chThdCreateStatic
 961              	.LVL104:
 962              		.loc 2 290 0
 963 0102 40F20000 		movw	r0, #:lower16:.LANCHOR6
 964 0106 40F20003 		movw	r3, #:lower16:thread4
 965 010a 0095     		str	r5, [sp]
 966 010c C0F20000 		movt	r0, #:upper16:.LANCHOR6
 967 0110 C0F20003 		movt	r3, #:upper16:thread4
 968 0114 4FF42C71 		mov	r1, #688
 969 0118 4022     		movs	r2, #64
 970 011a FFF7FEFF 		bl	chThdCreateStatic
 971              	.LVL105:
 972              	.L47:
 973              		.loc 2 293 0 discriminator 1
 974 011e 40F20000 		movw	r0, #:lower16:.LANCHOR2
 975 0122 C0F20000 		movt	r0, #:upper16:.LANCHOR2
 976 0126 FFF7FEFF 		bl	chMtxLock
 977              	.LVL106:
 978              		.loc 2 294 0 discriminator 1
 979 012a 40F20001 		movw	r1, #:lower16:.LC15
 980 012e C0F20001 		movt	r1, #:upper16:.LC15
 981 0132 0420     		movs	r0, #4
 982 0134 1A22     		movs	r2, #26
 983 0136 0023     		movs	r3, #0
 984 0138 FFF7FEFF 		bl	print_msg
 985              	.LVL107:
 986              		.loc 2 295 0 discriminator 1
 987 013c A369     		ldr	r3, [r4, #24]
 988 013e 1A22     		movs	r2, #26
 989 0140 9968     		ldr	r1, [r3, #8]
 990 0142 0420     		movs	r0, #4
 991 0144 1E23     		movs	r3, #30
 992 0146 FFF7FEFF 		bl	print_num
 993              	.LVL108:
 994              		.loc 2 296 0 discriminator 1
 995 014a FFF7FEFF 		bl	updatePrioTable
 996              	.LVL109:
 997              		.loc 2 297 0 discriminator 1
 998 014e FFF7FEFF 		bl	updateThdTicksTable
 999              	.LVL110:
 1000              		.loc 2 299 0 discriminator 1
 1001 0152 FFF7FEFF 		bl	chMtxUnlock
 1002              	.LVL111:
 1003 0156 E2E7     		b	.L47
 1004              		.cfi_endproc
 1005              	.LFE128:
 1006              		.size	main, .-main
 1007 0158 AFF30080 		.section	.bss.waThread1,"aw",%nobits
 1007      AFF30080 
 1008              		.align	3
 1009              		.set	.LANCHOR3,. + 0
 1010              		.type	waThread1, %object
ARM GAS  /tmp/ccm53Ykq.s 			page 19


 1011              		.size	waThread1, 688
 1012              	waThread1:
 1013 0000 00000000 		.space	688
 1013      00000000 
 1013      00000000 
 1013      00000000 
 1013      00000000 
 1014              		.section	.bss.waThread2,"aw",%nobits
 1015              		.align	3
 1016              		.set	.LANCHOR4,. + 0
 1017              		.type	waThread2, %object
 1018              		.size	waThread2, 688
 1019              	waThread2:
 1020 0000 00000000 		.space	688
 1020      00000000 
 1020      00000000 
 1020      00000000 
 1020      00000000 
 1021              		.section	.rodata.CSWTCH.9,"a",%progbits
 1022              		.align	2
 1023              		.set	.LANCHOR1,. + 0
 1024              		.type	CSWTCH.9, %object
 1025              		.size	CSWTCH.9, 60
 1026              	CSWTCH.9:
 1027 0000 E0000000 		.word	.LC16
 1028 0004 F0000000 		.word	.LC17
 1029 0008 00010000 		.word	.LC18
 1030 000c 10010000 		.word	.LC19
 1031 0010 20010000 		.word	.LC20
 1032 0014 30010000 		.word	.LC21
 1033 0018 40010000 		.word	.LC22
 1034 001c 50010000 		.word	.LC23
 1035 0020 60010000 		.word	.LC24
 1036 0024 70010000 		.word	.LC25
 1037 0028 80010000 		.word	.LC26
 1038 002c 90010000 		.word	.LC27
 1039 0030 A0010000 		.word	.LC28
 1040 0034 B0010000 		.word	.LC29
 1041 0038 C0010000 		.word	.LC30
 1042              		.section	.bss.waThread4,"aw",%nobits
 1043              		.align	3
 1044              		.set	.LANCHOR6,. + 0
 1045              		.type	waThread4, %object
 1046              		.size	waThread4, 688
 1047              	waThread4:
 1048 0000 00000000 		.space	688
 1048      00000000 
 1048      00000000 
 1048      00000000 
 1048      00000000 
 1049              		.section	.bss.THREAD_POINTERS,"aw",%nobits
 1050              		.align	2
 1051              		.set	.LANCHOR0,. + 0
 1052              		.type	THREAD_POINTERS, %object
 1053              		.size	THREAD_POINTERS, 20
 1054              	THREAD_POINTERS:
 1055 0000 00000000 		.space	20
ARM GAS  /tmp/ccm53Ykq.s 			page 20


 1055      00000000 
 1055      00000000 
 1055      00000000 
 1055      00000000 
 1056              		.section	.bss.waThread3,"aw",%nobits
 1057              		.align	3
 1058              		.set	.LANCHOR5,. + 0
 1059              		.type	waThread3, %object
 1060              		.size	waThread3, 688
 1061              	waThread3:
 1062 0000 00000000 		.space	688
 1062      00000000 
 1062      00000000 
 1062      00000000 
 1062      00000000 
 1063              		.section	.rodata.str1.4,"aMS",%progbits,1
 1064              		.align	2
 1065              	.LC0:
 1066 0000 256900   		.ascii	"%i\000"
 1067 0003 00       		.space	1
 1068              	.LC1:
 1069 0004 0D0A00   		.ascii	"\015\012\000"
 1070 0007 00       		.space	1
 1071              	.LC2:
 1072 0008 52656420 		.ascii	"Red blinker\000"
 1072      626C696E 
 1072      6B657200 
 1073              	.LC3:
 1074 0014 5245443A 		.ascii	"RED:\000"
 1074      00
 1075 0019 000000   		.space	3
 1076              	.LC4:
 1077 001c 47726565 		.ascii	"Green blinker\000"
 1077      6E20626C 
 1077      696E6B65 
 1077      7200
 1078 002a 0000     		.space	2
 1079              	.LC5:
 1080 002c 47524545 		.ascii	"GREEN:\000"
 1080      4E3A00
 1081 0033 00       		.space	1
 1082              	.LC6:
 1083 0034 4F72616E 		.ascii	"Orange blinker\000"
 1083      67652062 
 1083      6C696E6B 
 1083      657200
 1084 0043 00       		.space	1
 1085              	.LC7:
 1086 0044 4F52414E 		.ascii	"ORANGE:\000"
 1086      47453A00 
 1087              	.LC8:
 1088 004c 25690D0A 		.ascii	"%i\015\012\000"
 1088      00
 1089 0051 000000   		.space	3
 1090              	.LC9:
 1091 0054 426C7565 		.ascii	"Blue blinker\000"
 1091      20626C69 
ARM GAS  /tmp/ccm53Ykq.s 			page 21


 1091      6E6B6572 
 1091      00
 1092 0061 000000   		.space	3
 1093              	.LC10:
 1094 0064 424C5545 		.ascii	"BLUE:\000"
 1094      3A00
 1095 006a 0000     		.space	2
 1096              	.LC11:
 1097 006c 57656C63 		.ascii	"Welcome to ChibiOS-%s\015\012\000"
 1097      6F6D6520 
 1097      746F2043 
 1097      68696269 
 1097      4F532D25 
 1098              	.LC12:
 1099 0084 322E362E 		.ascii	"2.6.3\000"
 1099      3300
 1100 008a 0000     		.space	2
 1101              	.LC13:
 1102 008c 54687265 		.ascii	"Thread Information\015\012\000"
 1102      61642049 
 1102      6E666F72 
 1102      6D617469 
 1102      6F6E0D0A 
 1103 00a1 000000   		.space	3
 1104              	.LC14:
 1105 00a4 54485245 		.ascii	"THREAD NAME\011\011\011THREAD PRIO\011THREAD TICKS\011"
 1105      4144204E 
 1105      414D4509 
 1105      09095448 
 1105      52454144 
 1106 00cb 54485245 		.ascii	"THREAD_STATE\000"
 1106      41445F53 
 1106      54415445 
 1106      00
 1107              	.LC15:
 1108 00d8 4D61696E 		.ascii	"Main\000"
 1108      00
 1109 00dd 000000   		.space	3
 1110              	.LC16:
 1111 00e0 5448445F 		.ascii	"THD_STATE_READY\000"
 1111      53544154 
 1111      455F5245 
 1111      41445900 
 1112              	.LC17:
 1113 00f0 5448445F 		.ascii	"THD_STATE_CURRE\000"
 1113      53544154 
 1113      455F4355 
 1113      52524500 
 1114              	.LC18:
 1115 0100 5448445F 		.ascii	"THD_STATE_SUSPE\000"
 1115      53544154 
 1115      455F5355 
 1115      53504500 
 1116              	.LC19:
 1117 0110 5448445F 		.ascii	"THD_STATE_WTSEM\000"
 1117      53544154 
 1117      455F5754 
ARM GAS  /tmp/ccm53Ykq.s 			page 22


 1117      53454D00 
 1118              	.LC20:
 1119 0120 5448445F 		.ascii	"THD_STATE_WTMTX\000"
 1119      53544154 
 1119      455F5754 
 1119      4D545800 
 1120              	.LC21:
 1121 0130 5448445F 		.ascii	"THD_STATE_WTCON\000"
 1121      53544154 
 1121      455F5754 
 1121      434F4E00 
 1122              	.LC22:
 1123 0140 5448445F 		.ascii	"THD_STATE_SLEEP\000"
 1123      53544154 
 1123      455F534C 
 1123      45455000 
 1124              	.LC23:
 1125 0150 5448445F 		.ascii	"THD_STATE_WTEXI\000"
 1125      53544154 
 1125      455F5754 
 1125      45584900 
 1126              	.LC24:
 1127 0160 5448445F 		.ascii	"THD_STATE_WTORE\000"
 1127      53544154 
 1127      455F5754 
 1127      4F524500 
 1128              	.LC25:
 1129 0170 5448445F 		.ascii	"THD_STATE_WTAND\000"
 1129      53544154 
 1129      455F5754 
 1129      414E4400 
 1130              	.LC26:
 1131 0180 5448445F 		.ascii	"THD_STATE_SNDMS\000"
 1131      53544154 
 1131      455F534E 
 1131      444D5300 
 1132              	.LC27:
 1133 0190 5448445F 		.ascii	"THD_STATE_WTMSG\000"
 1133      53544154 
 1133      455F5754 
 1133      4D534700 
 1134              	.LC28:
 1135 01a0 5448445F 		.ascii	"THD_STATE_WTQUE\000"
 1135      53544154 
 1135      455F5754 
 1135      51554500 
 1136              	.LC29:
 1137 01b0 5448445F 		.ascii	"THD_STATE_FINAL\000"
 1137      53544154 
 1137      455F4649 
 1137      4E414C00 
 1138              	.LC30:
 1139 01c0 5448445F 		.ascii	"THD_STATE_NAMES\000"
 1139      53544154 
 1139      455F4E41 
 1139      4D455300 
 1140              		.section	.bss.mutex_thmsg,"aw",%nobits
ARM GAS  /tmp/ccm53Ykq.s 			page 23


 1141              		.align	2
 1142              		.set	.LANCHOR2,. + 0
 1143              		.type	mutex_thmsg, %object
 1144              		.size	mutex_thmsg, 16
 1145              	mutex_thmsg:
 1146 0000 00000000 		.space	16
 1146      00000000 
 1146      00000000 
 1146      00000000 
 1147              		.text
 1148              	.Letext0:
 1149              		.file 3 "/usr/lib/gcc/arm-none-eabi/4.8.2/include/stddef.h"
 1150              		.file 4 "/usr/arm-none-eabi/include/machine/_default_types.h"
 1151              		.file 5 "/usr/arm-none-eabi/include/stdint.h"
 1152              		.file 6 "../../os/ports/GCC/ARMCMx/chtypes.h"
 1153              		.file 7 "../../os/kernel/include/chlists.h"
 1154              		.file 8 "../../os/kernel/include/chthreads.h"
 1155              		.file 9 "../../os/ports/GCC/ARMCMx/chcore_v7m.h"
 1156              		.file 10 "../../os/kernel/include/chschd.h"
 1157              		.file 11 "../../os/kernel/include/chmtx.h"
 1158              		.file 12 "../../os/kernel/include/chevents.h"
 1159              		.file 13 "../../os/kernel/include/chqueues.h"
 1160              		.file 14 "../../os/kernel/include/chstreams.h"
 1161              		.file 15 "../../os/hal/platforms/STM32F4xx/stm32f4xx.h"
 1162              		.file 16 "../../os/hal/platforms/STM32/GPIOv2/pal_lld.h"
 1163              		.file 17 "../../os/hal/include/serial.h"
 1164              		.file 18 "../../os/hal/platforms/STM32/USARTv1/serial_lld.h"
 1165              		.file 19 "/usr/lib/gcc/arm-none-eabi/4.8.2/include/stdarg.h"
 1166              		.file 20 "<built-in>"
 1167              		.file 21 "../../os/ports/common/ARMCMx/CMSIS/include/core_cm4.h"
 1168              		.file 22 "pretty.h"
 1169              		.file 23 "../../os/hal/include/hal.h"
 1170              		.file 24 "../../os/kernel/include/chsys.h"