ARM GAS  /tmp/ccJ3Kfe0.s 			page 1


   1              		.syntax unified
   2              		.cpu cortex-m4
   3              		.fpu softvfp
   4              		.eabi_attribute 20, 1
   5              		.eabi_attribute 21, 1
   6              		.eabi_attribute 23, 3
   7              		.eabi_attribute 24, 1
   8              		.eabi_attribute 25, 1
   9              		.eabi_attribute 26, 1
  10              		.eabi_attribute 30, 2
  11              		.eabi_attribute 34, 1
  12              		.eabi_attribute 18, 4
  13              		.thumb
  14              		.file	"main.c"
  15              		.text
  16              	.Ltext0:
  17              		.cfi_sections	.debug_frame
  18              		.section	.text.Thread1,"ax",%progbits
  19              		.align	2
  20              		.p2align 4,,15
  21              		.thumb
  22              		.thumb_func
  23              		.type	Thread1, %function
  24              	Thread1:
  25              	.LFB121:
  26              		.file 1 "main.c"
  27              		.loc 1 154 0
  28              		.cfi_startproc
  29              		@ Volatile: function does not return.
  30              		@ args = 0, pretend = 0, frame = 0
  31              		@ frame_needed = 0, uses_anonymous_args = 0
  32              	.LVL0:
  33              		.loc 1 157 0
  34 0000 40F20002 		movw	r2, #:lower16:rlist
  35 0004 C0F20002 		movt	r2, #:upper16:rlist
  36              		.loc 1 154 0
  37 0008 08B5     		push	{r3, lr}
  38              		.cfi_def_cfa_offset 8
  39              		.cfi_offset 3, -8
  40              		.cfi_offset 14, -4
  41              		.loc 1 157 0
  42 000a 9269     		ldr	r2, [r2, #24]
  43 000c 40F20003 		movw	r3, #:lower16:.LC0
  44 0010 C0F20003 		movt	r3, #:upper16:.LC0
  45              		.loc 1 159 0
  46 0014 4FF44064 		mov	r4, #3072
  47 0018 4FF40055 		mov	r5, #8192
  48              		.loc 1 157 0
  49 001c 9361     		str	r3, [r2, #24]
  50              		.loc 1 159 0
  51 001e C4F20204 		movt	r4, 16386
  52 0022 2E46     		mov	r6, r5	@ movhi
  53              	.LVL1:
  54              	.L2:
  55              		.loc 1 159 0 is_stmt 0 discriminator 1
  56 0024 2683     		strh	r6, [r4, #24]	@ movhi
  57              		.loc 1 160 0 is_stmt 1 discriminator 1
ARM GAS  /tmp/ccJ3Kfe0.s 			page 2


  58 0026 4FF4FA70 		mov	r0, #500
  59 002a FFF7FEFF 		bl	chThdSleep
  60              	.LVL2:
  61              		.loc 1 161 0 discriminator 1
  62 002e 6583     		strh	r5, [r4, #26]	@ movhi
  63              		.loc 1 162 0 discriminator 1
  64 0030 4FF4FA70 		mov	r0, #500
  65 0034 FFF7FEFF 		bl	chThdSleep
  66              	.LVL3:
  67 0038 F4E7     		b	.L2
  68              		.cfi_endproc
  69              	.LFE121:
  70              		.size	Thread1, .-Thread1
  71 003a 00BFAFF3 		.section	.text.pwmpcb,"ax",%progbits
  71      0080
  72              		.align	2
  73              		.p2align 4,,15
  74              		.thumb
  75              		.thumb_func
  76              		.type	pwmpcb, %function
  77              	pwmpcb:
  78              	.LFB118:
  79              		.loc 1 94 0
  80              		.cfi_startproc
  81              		@ args = 0, pretend = 0, frame = 0
  82              		@ frame_needed = 0, uses_anonymous_args = 0
  83              	.LVL4:
  84 0000 08B5     		push	{r3, lr}
  85              		.cfi_def_cfa_offset 8
  86              		.cfi_offset 3, -8
  87              		.cfi_offset 14, -4
  88              	.LBB5:
  89              		.loc 1 101 0
  90 0002 2023     		movs	r3, #32
  91              	@ 101 "main.c" 1
  92 0004 83F31188 		msr     BASEPRI, r3
  93              	@ 0 "" 2
  94              		.thumb
  95              	.LBE5:
  96              		.loc 1 102 0
  97 0008 40F20000 		movw	r0, #:lower16:ADCD1
  98              	.LVL5:
  99 000c 40F20001 		movw	r1, #:lower16:.LANCHOR0
 100 0010 40F20002 		movw	r2, #:lower16:.LANCHOR1
 101 0014 C0F20000 		movt	r0, #:upper16:ADCD1
 102 0018 C0F20001 		movt	r1, #:upper16:.LANCHOR0
 103 001c C0F20002 		movt	r2, #:upper16:.LANCHOR1
 104 0020 0423     		movs	r3, #4
 105 0022 FFF7FEFF 		bl	adcStartConversionI
 106              	.LVL6:
 107              	.LBB6:
 108              		.loc 1 103 0
 109 0026 0023     		movs	r3, #0
 110              	@ 103 "main.c" 1
 111 0028 83F31188 		msr     BASEPRI, r3
 112              	@ 0 "" 2
 113              		.thumb
ARM GAS  /tmp/ccJ3Kfe0.s 			page 3


 114 002c 08BD     		pop	{r3, pc}
 115              	.LBE6:
 116              		.cfi_endproc
 117              	.LFE118:
 118              		.size	pwmpcb, .-pwmpcb
 119 002e 00BF     		.section	.text.spicb,"ax",%progbits
 120              		.align	2
 121              		.p2align 4,,15
 122              		.thumb
 123              		.thumb_func
 124              		.type	spicb, %function
 125              	spicb:
 126              	.LFB120:
 127              		.loc 1 141 0
 128              		.cfi_startproc
 129              		@ args = 0, pretend = 0, frame = 0
 130              		@ frame_needed = 0, uses_anonymous_args = 0
 131              	.LVL7:
 132 0000 08B5     		push	{r3, lr}
 133              		.cfi_def_cfa_offset 8
 134              		.cfi_offset 3, -8
 135              		.cfi_offset 14, -4
 136              	.LBB7:
 137              		.loc 1 144 0
 138 0002 2023     		movs	r3, #32
 139              	@ 144 "main.c" 1
 140 0004 83F31188 		msr     BASEPRI, r3
 141              	@ 0 "" 2
 142              		.thumb
 143              	.LBE7:
 144              		.loc 1 145 0
 145 0008 FFF7FEFF 		bl	spi_lld_unselect
 146              	.LVL8:
 147              	.LBB8:
 148              		.loc 1 146 0
 149 000c 0023     		movs	r3, #0
 150              	@ 146 "main.c" 1
 151 000e 83F31188 		msr     BASEPRI, r3
 152              	@ 0 "" 2
 153              		.thumb
 154 0012 08BD     		pop	{r3, pc}
 155              	.LBE8:
 156              		.cfi_endproc
 157              	.LFE120:
 158              		.size	spicb, .-spicb
 159 0014 AFF30080 		.section	.text.adccb,"ax",%progbits
 159      AFF30080 
 159      AFF30080 
 160              		.align	2
 161              		.p2align 4,,15
 162              		.thumb
 163              		.thumb_func
 164              		.type	adccb, %function
 165              	adccb:
 166              	.LFB119:
 167              		.loc 1 111 0
 168              		.cfi_startproc
ARM GAS  /tmp/ccJ3Kfe0.s 			page 4


 169              		@ args = 0, pretend = 0, frame = 0
 170              		@ frame_needed = 0, uses_anonymous_args = 0
 171              	.LVL9:
 172 0000 F8B5     		push	{r3, r4, r5, r6, r7, lr}
 173              		.cfi_def_cfa_offset 24
 174              		.cfi_offset 3, -24
 175              		.cfi_offset 4, -20
 176              		.cfi_offset 5, -16
 177              		.cfi_offset 6, -12
 178              		.cfi_offset 7, -8
 179              		.cfi_offset 14, -4
 180              		.loc 1 116 0
 181 0002 0378     		ldrb	r3, [r0]	@ zero_extendqisi2
 182 0004 042B     		cmp	r3, #4
 183 0006 00D0     		beq	.L8
 184 0008 F8BD     		pop	{r3, r4, r5, r6, r7, pc}
 185              	.L8:
 186              	.LVL10:
 187              	.LBB14:
 188              	.LBB15:
 189              		.loc 1 120 0
 190 000a 40F20002 		movw	r2, #:lower16:.LANCHOR1
 191              	.LVL11:
 192 000e C0F20002 		movt	r2, #:upper16:.LANCHOR1
 193              	.LBB16:
 194              		.loc 1 123 0
 195 0012 2023     		movs	r3, #32
 196              	.LBE16:
 197              		.loc 1 121 0
 198 0014 5788     		ldrh	r7, [r2, #2]
 199 0016 D688     		ldrh	r6, [r2, #6]
 200              		.loc 1 120 0
 201 0018 B2F800C0 		ldrh	ip, [r2]
 202 001c B2F804E0 		ldrh	lr, [r2, #4]
 203 0020 1589     		ldrh	r5, [r2, #8]
 204              		.loc 1 121 0
 205 0022 5489     		ldrh	r4, [r2, #10]
 206              		.loc 1 120 0
 207 0024 9089     		ldrh	r0, [r2, #12]
 208              	.LVL12:
 209              		.loc 1 121 0
 210 0026 D189     		ldrh	r1, [r2, #14]
 211              	.LVL13:
 212 0028 3E44     		add	r6, r6, r7
 213              		.loc 1 120 0
 214 002a 0CEB0E02 		add	r2, ip, lr
 215 002e 2A44     		add	r2, r2, r5
 216              		.loc 1 121 0
 217 0030 2644     		add	r6, r6, r4
 218              		.loc 1 120 0
 219 0032 0244     		add	r2, r2, r0
 220              		.loc 1 121 0
 221 0034 0E44     		add	r6, r6, r1
 222              		.loc 1 120 0
 223 0036 9210     		asrs	r2, r2, #2
 224              	.LVL14:
 225              		.loc 1 121 0
ARM GAS  /tmp/ccJ3Kfe0.s 			page 5


 226 0038 B610     		asrs	r6, r6, #2
 227              	.LVL15:
 228              	.LBB17:
 229              		.loc 1 123 0
 230              	@ 123 "main.c" 1
 231 003a 83F31188 		msr     BASEPRI, r3
 232              	@ 0 "" 2
 233              		.thumb
 234              	.LBE17:
 235              		.loc 1 127 0
 236 003e 40F20004 		movw	r4, #:lower16:PWMD4
 237 0042 C0F20004 		movt	r4, #:upper16:PWMD4
 238 0046 2046     		mov	r0, r4
 239 0048 2389     		ldrh	r3, [r4, #8]
 240 004a 03FB02F2 		mul	r2, r3, r2
 241              	.LVL16:
 242 004e C2F30F32 		ubfx	r2, r2, #12, #16
 243 0052 0021     		movs	r1, #0
 244 0054 FFF7FEFF 		bl	pwm_lld_enable_channel
 245              	.LVL17:
 246              		.loc 1 128 0
 247 0058 2389     		ldrh	r3, [r4, #8]
 248              		.loc 1 131 0
 249 005a 40F20005 		movw	r5, #:lower16:SPID2
 250              		.loc 1 128 0
 251 005e 03FB06F2 		mul	r2, r3, r6
 252              		.loc 1 131 0
 253 0062 C0F20005 		movt	r5, #:upper16:SPID2
 254              		.loc 1 128 0
 255 0066 C2F30F32 		ubfx	r2, r2, #12, #16
 256 006a 2046     		mov	r0, r4
 257 006c 0321     		movs	r1, #3
 258 006e FFF7FEFF 		bl	pwm_lld_enable_channel
 259              	.LVL18:
 260              		.loc 1 131 0
 261 0072 2846     		mov	r0, r5
 262 0074 FFF7FEFF 		bl	spi_lld_select
 263              	.LVL19:
 264              		.loc 1 132 0
 265 0078 40F20002 		movw	r2, #:lower16:.LANCHOR1
 266 007c 0323     		movs	r3, #3
 267 007e 2846     		mov	r0, r5
 268 0080 C0F20002 		movt	r2, #:upper16:.LANCHOR1
 269 0084 0821     		movs	r1, #8
 270 0086 2B70     		strb	r3, [r5]
 271 0088 FFF7FEFF 		bl	spi_lld_send
 272              	.LVL20:
 273              	.LBB18:
 274              		.loc 1 134 0
 275 008c 0023     		movs	r3, #0
 276              	@ 134 "main.c" 1
 277 008e 83F31188 		msr     BASEPRI, r3
 278              	@ 0 "" 2
 279              		.thumb
 280 0092 F8BD     		pop	{r3, r4, r5, r6, r7, pc}
 281              	.LBE18:
 282              	.LBE15:
ARM GAS  /tmp/ccJ3Kfe0.s 			page 6


 283              	.LBE14:
 284              		.cfi_endproc
 285              	.LFE119:
 286              		.size	adccb, .-adccb
 287 0094 AFF30080 		.section	.text.startup.main,"ax",%progbits
 287      AFF30080 
 287      AFF30080 
 288              		.align	2
 289              		.p2align 4,,15
 290              		.global	main
 291              		.thumb
 292              		.thumb_func
 293              		.type	main, %function
 294              	main:
 295              	.LFB122:
 296              		.loc 1 169 0
 297              		.cfi_startproc
 298              		@ Volatile: function does not return.
 299              		@ args = 0, pretend = 0, frame = 0
 300              		@ frame_needed = 0, uses_anonymous_args = 0
 301 0000 00B5     		push	{lr}
 302              		.cfi_def_cfa_offset 4
 303              		.cfi_offset 14, -4
 304 0002 83B0     		sub	sp, sp, #12
 305              		.cfi_def_cfa_offset 16
 306              		.loc 1 178 0
 307 0004 FFF7FEFF 		bl	halInit
 308              	.LVL21:
 309              		.loc 1 186 0
 310 0008 0024     		movs	r4, #0
 311              		.loc 1 179 0
 312 000a FFF7FEFF 		bl	chSysInit
 313              	.LVL22:
 314              		.loc 1 185 0
 315 000e 40F20000 		movw	r0, #:lower16:SD2
 316 0012 2146     		mov	r1, r4
 317 0014 C0F20000 		movt	r0, #:upper16:SD2
 318              		.loc 1 186 0
 319 0018 C4F20204 		movt	r4, 16386
 320              		.loc 1 185 0
 321 001c FFF7FEFF 		bl	sdStart
 322              	.LVL23:
 323              		.loc 1 186 0
 324 0020 2046     		mov	r0, r4
 325 0022 0421     		movs	r1, #4
 326 0024 40F28232 		movw	r2, #898
 327 0028 FFF7FEFF 		bl	_pal_lld_setgroupmode
 328              	.LVL24:
 329              		.loc 1 187 0
 330 002c 40F28232 		movw	r2, #898
 331 0030 2046     		mov	r0, r4
 332 0032 0821     		movs	r1, #8
 333 0034 FFF7FEFF 		bl	_pal_lld_setgroupmode
 334              	.LVL25:
 335              		.loc 1 194 0
 336 0038 2369     		ldr	r3, [r4, #16]
 337 003a DA07     		lsls	r2, r3, #31
ARM GAS  /tmp/ccJ3Kfe0.s 			page 7


 338 003c 79D4     		bmi	.L19
 339              	.L10:
 340              		.loc 1 205 0
 341 003e 4FF48064 		mov	r4, #1024
 342 0042 C4F20204 		movt	r4, 16386
 343              		.loc 1 204 0
 344 0046 40F20000 		movw	r0, #:lower16:SPID2
 345 004a 40F20001 		movw	r1, #:lower16:.LANCHOR2
 346              		.loc 1 205 0
 347 004e 4FF48055 		mov	r5, #4096
 348              		.loc 1 204 0
 349 0052 C0F20000 		movt	r0, #:upper16:SPID2
 350 0056 C0F20001 		movt	r1, #:upper16:.LANCHOR2
 351 005a FFF7FEFF 		bl	spiStart
 352              	.LVL26:
 353              		.loc 1 206 0
 354 005e 2046     		mov	r0, r4
 355              		.loc 1 205 0
 356 0060 2583     		strh	r5, [r4, #24]	@ movhi
 357              		.loc 1 206 0
 358 0062 2946     		mov	r1, r5
 359 0064 1922     		movs	r2, #25
 360 0066 FFF7FEFF 		bl	_pal_lld_setgroupmode
 361              	.LVL27:
 362              		.loc 1 208 0
 363 006a 2046     		mov	r0, r4
 364 006c 4FF40051 		mov	r1, #8192
 365 0070 40F29A22 		movw	r2, #666
 366 0074 FFF7FEFF 		bl	_pal_lld_setgroupmode
 367              	.LVL28:
 368              		.loc 1 210 0
 369 0078 2046     		mov	r0, r4
 370 007a 4FF48041 		mov	r1, #16384
 371 007e 40F28222 		movw	r2, #642
 372 0082 FFF7FEFF 		bl	_pal_lld_setgroupmode
 373              	.LVL29:
 374              		.loc 1 211 0
 375 0086 40F29A22 		movw	r2, #666
 376 008a 2046     		mov	r0, r4
 377 008c 4FF40041 		mov	r1, #32768
 378 0090 FFF7FEFF 		bl	_pal_lld_setgroupmode
 379              	.LVL30:
 380              		.loc 1 218 0
 381 0094 40F20000 		movw	r0, #:lower16:ADCD1
 382 0098 C0F20000 		movt	r0, #:upper16:ADCD1
 383 009c 0021     		movs	r1, #0
 384 009e FFF7FEFF 		bl	adcStart
 385              	.LVL31:
 386              		.loc 1 219 0
 387 00a2 FFF7FEFF 		bl	adcSTM32EnableTSVREFE
 388              	.LVL32:
 389              		.loc 1 220 0
 390 00a6 4FF40060 		mov	r0, #2048
 391 00aa 0322     		movs	r2, #3
 392 00ac C4F20200 		movt	r0, 16386
 393 00b0 0221     		movs	r1, #2
 394 00b2 FFF7FEFF 		bl	_pal_lld_setgroupmode
ARM GAS  /tmp/ccJ3Kfe0.s 			page 8


 395              	.LVL33:
 396              		.loc 1 225 0
 397 00b6 40F20000 		movw	r0, #:lower16:PWMD4
 398 00ba 40F20001 		movw	r1, #:lower16:.LANCHOR3
 399 00be C0F20000 		movt	r0, #:upper16:PWMD4
 400 00c2 C0F20001 		movt	r1, #:upper16:.LANCHOR3
 401 00c6 FFF7FEFF 		bl	pwmStart
 402              	.LVL34:
 403              		.loc 1 226 0
 404 00ca 4FF44060 		mov	r0, #3072
 405 00ce 2946     		mov	r1, r5
 406 00d0 C4F20200 		movt	r0, 16386
 407 00d4 4FF48172 		mov	r2, #258
 408 00d8 FFF7FEFF 		bl	_pal_lld_setgroupmode
 409              	.LVL35:
 410              		.loc 1 227 0
 411 00dc 4FF44060 		mov	r0, #3072
 412 00e0 C4F20200 		movt	r0, 16386
 413 00e4 4FF40041 		mov	r1, #32768
 414 00e8 4FF48172 		mov	r2, #258
 415 00ec FFF7FEFF 		bl	_pal_lld_setgroupmode
 416              	.LVL36:
 417              		.loc 1 232 0
 418 00f0 0022     		movs	r2, #0
 419 00f2 40F20000 		movw	r0, #:lower16:.LANCHOR4
 420 00f6 40F20003 		movw	r3, #:lower16:Thread1
 421 00fa 0092     		str	r2, [sp]
 422 00fc C0F20000 		movt	r0, #:upper16:.LANCHOR4
 423 0100 C0F20003 		movt	r3, #:upper16:Thread1
 424 0104 4FF49871 		mov	r1, #304
 425 0108 4022     		movs	r2, #64
 426              		.loc 1 241 0
 427 010a 0024     		movs	r4, #0
 428              		.loc 1 232 0
 429 010c FFF7FEFF 		bl	chThdCreateStatic
 430              	.LVL37:
 431              		.loc 1 241 0
 432 0110 C4F20204 		movt	r4, 16386
 433 0114 03E0     		b	.L12
 434              	.L11:
 435              		.loc 1 243 0
 436 0116 4FF4FA70 		mov	r0, #500
 437 011a FFF7FEFF 		bl	chThdSleep
 438              	.LVL38:
 439              	.L12:
 440              		.loc 1 241 0
 441 011e 2369     		ldr	r3, [r4, #16]
 442 0120 DB07     		lsls	r3, r3, #31
 443 0122 F8D5     		bpl	.L11
 444              		.loc 1 242 0
 445 0124 40F20000 		movw	r0, #:lower16:SD2
 446 0128 C0F20000 		movt	r0, #:upper16:SD2
 447 012c FFF7FEFF 		bl	TestThread
 448              	.LVL39:
 449 0130 F1E7     		b	.L11
 450              	.L19:
 451              		.loc 1 195 0
ARM GAS  /tmp/ccJ3Kfe0.s 			page 9


 452 0132 40F20000 		movw	r0, #:lower16:SD2
 453 0136 C0F20000 		movt	r0, #:upper16:SD2
 454 013a FFF7FEFF 		bl	TestThread
 455              	.LVL40:
 456 013e 7EE7     		b	.L10
 457              		.cfi_endproc
 458              	.LFE122:
 459              		.size	main, .-main
 460              		.section	.bss.waThread1,"aw",%nobits
 461              		.align	3
 462              		.set	.LANCHOR4,. + 0
 463              		.type	waThread1, %object
 464              		.size	waThread1, 304
 465              	waThread1:
 466 0000 00000000 		.space	304
 466      00000000 
 466      00000000 
 466      00000000 
 466      00000000 
 467              		.section	.data.pwmcfg,"aw",%progbits
 468              		.align	2
 469              		.set	.LANCHOR3,. + 0
 470              		.type	pwmcfg, %object
 471              		.size	pwmcfg, 52
 472              	pwmcfg:
 473 0000 10270000 		.word	10000
 474 0004 1027     		.short	10000
 475 0006 0000     		.space	2
 476 0008 00000000 		.word	pwmpcb
 477 000c 01000000 		.word	1
 478 0010 00000000 		.word	0
 479 0014 00000000 		.word	0
 480 0018 00000000 		.word	0
 481 001c 00000000 		.word	0
 482 0020 00000000 		.word	0
 483 0024 01000000 		.word	1
 484 0028 00000000 		.word	0
 485 002c 00000000 		.word	0
 486 0030 00000000 		.word	0
 487              		.section	.rodata.spi2cfg,"a",%progbits
 488              		.align	2
 489              		.set	.LANCHOR2,. + 0
 490              		.type	spi2cfg, %object
 491              		.size	spi2cfg, 12
 492              	spi2cfg:
 493 0000 00000000 		.word	spicb
 494 0004 00040240 		.word	1073873920
 495 0008 0C00     		.short	12
 496 000a 0008     		.short	2048
 497              		.section	.rodata.str1.4,"aMS",%progbits,1
 498              		.align	2
 499              	.LC0:
 500 0000 626C696E 		.ascii	"blinker\000"
 500      6B657200 
 501              		.section	.rodata.adcgrpcfg,"a",%progbits
 502              		.align	2
 503              		.set	.LANCHOR0,. + 0
ARM GAS  /tmp/ccJ3Kfe0.s 			page 10


 504              		.type	adcgrpcfg, %object
 505              		.size	adcgrpcfg, 40
 506              	adcgrpcfg:
 507 0000 00       		.byte	0
 508 0001 00       		.space	1
 509 0002 0200     		.short	2
 510 0004 00000000 		.word	adccb
 511 0008 00000000 		.word	0
 512 000c 00000000 		.word	0
 513 0010 00000040 		.word	1073741824
 514 0014 18001800 		.word	1572888
 515 0018 00000000 		.word	0
 516 001c 00001000 		.word	1048576
 517 0020 00000000 		.word	0
 518 0024 70010000 		.word	368
 519              		.section	.bss.samples,"aw",%nobits
 520              		.align	2
 521              		.set	.LANCHOR1,. + 0
 522              		.type	samples, %object
 523              		.size	samples, 16
 524              	samples:
 525 0000 00000000 		.space	16
 525      00000000 
 525      00000000 
 525      00000000 
 526              		.text
 527              	.Letext0:
 528              		.file 2 "/usr/lib/gcc/arm-none-eabi/4.8.2/include/stddef.h"
 529              		.file 3 "/usr/arm-none-eabi/include/machine/_default_types.h"
 530              		.file 4 "/usr/arm-none-eabi/include/stdint.h"
 531              		.file 5 "../../os/ports/GCC/ARMCMx/chtypes.h"
 532              		.file 6 "../../os/kernel/include/chlists.h"
 533              		.file 7 "../../os/kernel/include/chthreads.h"
 534              		.file 8 "../../os/ports/GCC/ARMCMx/chcore_v7m.h"
 535              		.file 9 "../../os/kernel/include/chschd.h"
 536              		.file 10 "../../os/kernel/include/chmtx.h"
 537              		.file 11 "../../os/kernel/include/chevents.h"
 538              		.file 12 "../../os/kernel/include/chqueues.h"
 539              		.file 13 "../../os/hal/platforms/STM32F4xx/stm32f4xx.h"
 540              		.file 14 "../../os/hal/platforms/STM32F4xx/stm32_dma.h"
 541              		.file 15 "../../os/hal/platforms/STM32/GPIOv2/pal_lld.h"
 542              		.file 16 "../../os/hal/include/adc.h"
 543              		.file 17 "../../os/hal/platforms/STM32F4xx/adc_lld.h"
 544              		.file 18 "../../os/hal/include/pwm.h"
 545              		.file 19 "../../os/hal/platforms/STM32/TIMv1/pwm_lld.h"
 546              		.file 20 "../../os/hal/platforms/STM32/TIMv1/stm32_tim.h"
 547              		.file 21 "../../os/hal/include/serial.h"
 548              		.file 22 "../../os/hal/platforms/STM32/USARTv1/serial_lld.h"
 549              		.file 23 "../../os/hal/include/spi.h"
 550              		.file 24 "../../os/hal/platforms/STM32/SPIv1/spi_lld.h"
 551              		.file 25 "../../os/ports/common/ARMCMx/CMSIS/include/core_cm4.h"
 552              		.file 26 "../../os/hal/include/hal.h"
 553              		.file 27 "../../os/kernel/include/chsys.h"
 554              		.file 28 "../../test/test.h"