ARM GAS  /tmp/cc7SW5zJ.s 			page 1


   1              		.syntax unified
   2              		.cpu cortex-m4
   3              		.fpu softvfp
   4              		.eabi_attribute 20, 1
   5              		.eabi_attribute 21, 1
   6              		.eabi_attribute 23, 3
   7              		.eabi_attribute 24, 1
   8              		.eabi_attribute 25, 1
   9              		.eabi_attribute 26, 1
  10              		.eabi_attribute 30, 2
  11              		.eabi_attribute 34, 1
  12              		.eabi_attribute 18, 4
  13              		.thumb
  14              		.file	"chcore_v7m.c"
  15              		.text
  16              	.Ltext0:
  17              		.cfi_sections	.debug_frame
  18              		.section	.text._port_switch_from_isr,"ax",%progbits
  19              		.align	2
  20              		.p2align 4,,15
  21              		.global	_port_switch_from_isr
  22              		.thumb
  23              		.thumb_func
  24              		.type	_port_switch_from_isr, %function
  25              	_port_switch_from_isr:
  26              	.LFB6:
  27              		.file 1 "../../../os/ports/GCC/ARMCMx/chcore_v7m.c"
  28              		.loc 1 207 0
  29              		.cfi_startproc
  30              		@ Naked Function: prologue and epilogue provided by programmer.
  31              		@ args = 0, pretend = 0, frame = 0
  32              		@ frame_needed = 0, uses_anonymous_args = 0
  33              		.loc 1 209 0
  34 0000 FFF7FEFF 		bl	dbg_check_lock
  35              	.LVL0:
  36              		.loc 1 210 0
  37 0004 FFF7FEFF 		bl	chSchDoReschedule
  38              	.LVL1:
  39              		.loc 1 211 0
  40 0008 FFF7FEFF 		bl	dbg_check_unlock
  41              	.LVL2:
  42              		.loc 1 212 0
  43              	@ 212 "../../../os/ports/GCC/ARMCMx/chcore_v7m.c" 1
  44              		_port_exit_from_isr:
  45              	@ 0 "" 2
  46              		.loc 1 214 0
  47              	@ 214 "../../../os/ports/GCC/ARMCMx/chcore_v7m.c" 1
  48 000c 00DF     		svc     #0
  49              	@ 0 "" 2
  50              		.loc 1 221 0
  51              		.thumb
  52              		.cfi_endproc
  53              	.LFE6:
  54              		.size	_port_switch_from_isr, .-_port_switch_from_isr
  55 000e 00BF     		.section	.text.SVCallVector,"ax",%progbits
  56              		.align	2
  57              		.p2align 4,,15
ARM GAS  /tmp/cc7SW5zJ.s 			page 2


  58              		.global	SVCallVector
  59              		.thumb
  60              		.thumb_func
  61              		.type	SVCallVector, %function
  62              	SVCallVector:
  63              	.LFB1:
  64              		.loc 1 65 0
  65              		.cfi_startproc
  66              		@ args = 0, pretend = 0, frame = 0
  67              		@ frame_needed = 0, uses_anonymous_args = 0
  68 0000 00B5     		push	{lr}
  69              		.cfi_def_cfa_offset 4
  70              		.cfi_offset 14, -4
  71              		.loc 1 69 0
  72              	@ 69 "../../../os/ports/GCC/ARMCMx/chcore_v7m.c" 1
  73 0002 EFF30983 		mrs     r3, PSP
  74              	@ 0 "" 2
  75              	.LVL3:
  76              		.loc 1 73 0
  77              		.thumb
  78 0006 2033     		adds	r3, r3, #32
  79              	.LVL4:
  80              		.loc 1 80 0
  81              	@ 80 "../../../os/ports/GCC/ARMCMx/chcore_v7m.c" 1
  82 0008 83F30988 		msr     PSP, r3
  83              	@ 0 "" 2
  84              		.loc 1 81 0
  85              	@ 81 "../../../os/ports/GCC/ARMCMx/chcore_v7m.c" 1
  86 000c FFF7FEFF 		bl      _port_unlock
  87              	@ 0 "" 2
  88              	.LVL5:
  89              		.thumb
  90 0010 5DF804FB 		ldr	pc, [sp], #4
  91              		.cfi_endproc
  92              	.LFE1:
  93              		.size	SVCallVector, .-SVCallVector
  94              		.section	.text._port_init,"ax",%progbits
  95              		.align	2
  96              		.p2align 4,,15
  97              		.global	_port_init
  98              		.thumb
  99              		.thumb_func
 100              		.type	_port_init, %function
 101              	_port_init:
 102              	.LFB2:
 103              		.loc 1 118 0
 104              		.cfi_startproc
 105              		@ args = 0, pretend = 0, frame = 0
 106              		@ frame_needed = 0, uses_anonymous_args = 0
 107 0000 08B5     		push	{r3, lr}
 108              		.cfi_def_cfa_offset 8
 109              		.cfi_offset 3, -8
 110              		.cfi_offset 14, -4
 111              		.loc 1 121 0
 112 0002 4FF46D43 		mov	r3, #60672
 113 0006 CEF20003 		movt	r3, 57344
 114              		.loc 1 122 0
ARM GAS  /tmp/cc7SW5zJ.s 			page 3


 115 000a 4FF44072 		mov	r2, #768
 116 000e C0F2FA52 		movt	r2, 1530
 117              		.loc 1 121 0
 118 0012 0021     		movs	r1, #0
 119 0014 9960     		str	r1, [r3, #8]
 120              		.loc 1 125 0
 121 0016 0720     		movs	r0, #7
 122              		.loc 1 122 0
 123 0018 DA60     		str	r2, [r3, #12]
 124              		.loc 1 125 0
 125 001a 1021     		movs	r1, #16
 126 001c FFF7FEFF 		bl	nvicSetSystemHandlerPriority
 127              	.LVL6:
 128              		.loc 1 127 0
 129 0020 0A20     		movs	r0, #10
 130 0022 2021     		movs	r1, #32
 131 0024 FFF7FEFF 		bl	nvicSetSystemHandlerPriority
 132              	.LVL7:
 133              		.loc 1 129 0
 134 0028 0B20     		movs	r0, #11
 135 002a 8021     		movs	r1, #128
 136              		.loc 1 131 0
 137 002c BDE80840 		pop	{r3, lr}
 138              		.loc 1 129 0
 139 0030 FFF7FEBF 		b	nvicSetSystemHandlerPriority
 140              	.LVL8:
 141              		.cfi_endproc
 142              	.LFE2:
 143              		.size	_port_init, .-_port_init
 144 0034 AFF30080 		.section	.text._port_lock,"ax",%progbits
 144      AFF30080 
 144      AFF30080 
 145              		.align	2
 146              		.p2align 4,,15
 147              		.global	_port_lock
 148              		.thumb
 149              		.thumb_func
 150              		.type	_port_lock, %function
 151              	_port_lock:
 152              	.LFB3:
 153              		.loc 1 134 0
 154              		.cfi_startproc
 155              		@ args = 0, pretend = 0, frame = 0
 156              		@ frame_needed = 0, uses_anonymous_args = 0
 157              		@ link register save eliminated.
 158              		.loc 1 135 0
 159 0000 2023     		movs	r3, #32
 160              		.loc 1 136 0
 161              	@ 136 "../../../os/ports/GCC/ARMCMx/chcore_v7m.c" 1
 162 0002 83F31188 		msr     BASEPRI, r3
 163              	@ 0 "" 2
 164              		.thumb
 165 0006 7047     		bx	lr
 166              		.cfi_endproc
 167              	.LFE3:
 168              		.size	_port_lock, .-_port_lock
 169 0008 AFF30080 		.section	.text._port_unlock,"ax",%progbits
ARM GAS  /tmp/cc7SW5zJ.s 			page 4


 169      AFF30080 
 170              		.align	2
 171              		.p2align 4,,15
 172              		.global	_port_unlock
 173              		.thumb
 174              		.thumb_func
 175              		.type	_port_unlock, %function
 176              	_port_unlock:
 177              	.LFB4:
 178              		.loc 1 139 0
 179              		.cfi_startproc
 180              		@ args = 0, pretend = 0, frame = 0
 181              		@ frame_needed = 0, uses_anonymous_args = 0
 182              		@ link register save eliminated.
 183              		.loc 1 140 0
 184 0000 0023     		movs	r3, #0
 185              		.loc 1 141 0
 186              	@ 141 "../../../os/ports/GCC/ARMCMx/chcore_v7m.c" 1
 187 0002 83F31188 		msr     BASEPRI, r3
 188              	@ 0 "" 2
 189              		.thumb
 190 0006 7047     		bx	lr
 191              		.cfi_endproc
 192              	.LFE4:
 193              		.size	_port_unlock, .-_port_unlock
 194 0008 AFF30080 		.section	.text._port_irq_epilogue,"ax",%progbits
 194      AFF30080 
 195              		.align	2
 196              		.p2align 4,,15
 197              		.global	_port_irq_epilogue
 198              		.thumb
 199              		.thumb_func
 200              		.type	_port_irq_epilogue, %function
 201              	_port_irq_epilogue:
 202              	.LFB5:
 203              		.loc 1 148 0
 204              		.cfi_startproc
 205              		@ args = 0, pretend = 0, frame = 0
 206              		@ frame_needed = 0, uses_anonymous_args = 0
 207 0000 00B5     		push	{lr}
 208              		.cfi_def_cfa_offset 4
 209              		.cfi_offset 14, -4
 210              		.loc 1 150 0
 211              	@ 150 "../../../os/ports/GCC/ARMCMx/chcore_v7m.c" 1
 212 0002 FFF7FEFF 		bl      _port_lock
 213              	@ 0 "" 2
 214              		.loc 1 151 0
 215              		.thumb
 216 0006 4FF46D43 		mov	r3, #60672
 217 000a CEF20003 		movt	r3, 57344
 218 000e 5B68     		ldr	r3, [r3, #4]
 219 0010 1B05     		lsls	r3, r3, #20
 220 0012 1FD5     		bpl	.L7
 221              	.LBB2:
 222              		.loc 1 155 0
 223              	@ 155 "../../../os/ports/GCC/ARMCMx/chcore_v7m.c" 1
 224 0014 EFF30982 		mrs     r2, PSP
ARM GAS  /tmp/cc7SW5zJ.s 			page 5


 225              	@ 0 "" 2
 226              	.LVL9:
 227              		.loc 1 159 0
 228              		.thumb
 229 0018 A2F12003 		sub	r3, r2, #32
 230              	.LVL10:
 231              		.loc 1 160 0
 232              	@ 160 "../../../os/ports/GCC/ARMCMx/chcore_v7m.c" 1
 233 001c 83F30988 		msr     PSP, r3
 234              	@ 0 "" 2
 235              		.loc 1 165 0
 236              		.thumb
 237 0020 40F20003 		movw	r3, #:lower16:rlist
 238              	.LVL11:
 239 0024 C0F20003 		movt	r3, #:upper16:rlist
 240              		.loc 1 161 0
 241 0028 4FF08070 		mov	r0, #16777216
 242              		.loc 1 165 0
 243 002c 1968     		ldr	r1, [r3]
 244 002e 9B69     		ldr	r3, [r3, #24]
 245 0030 8968     		ldr	r1, [r1, #8]
 246 0032 9B68     		ldr	r3, [r3, #8]
 247              		.loc 1 161 0
 248 0034 42F8040C 		str	r0, [r2, #-4]
 249              		.loc 1 165 0
 250 0038 9942     		cmp	r1, r3
 251              		.loc 1 167 0
 252 003a 8BBF     		itete	hi
 253 003c 40F20003 		movwhi	r3, #:lower16:_port_switch_from_isr
 254              		.loc 1 176 0
 255 0040 40F20003 		movwls	r3, #:lower16:_port_exit_from_isr
 256              		.loc 1 167 0
 257 0044 C0F20003 		movthi	r3, #:upper16:_port_switch_from_isr
 258              		.loc 1 176 0
 259 0048 C0F20003 		movtls	r3, #:upper16:_port_exit_from_isr
 260 004c 42F8083C 		str	r3, [r2, #-8]
 261 0050 5DF804FB 		ldr	pc, [sp], #4
 262              	.LVL12:
 263              	.L7:
 264              	.LBE2:
 265              		.loc 1 197 0
 266              	@ 197 "../../../os/ports/GCC/ARMCMx/chcore_v7m.c" 1
 267 0054 FFF7FEFF 		bl      _port_unlock
 268              	@ 0 "" 2
 269              		.thumb
 270 0058 5DF804FB 		ldr	pc, [sp], #4
 271              		.cfi_endproc
 272              	.LFE5:
 273              		.size	_port_irq_epilogue, .-_port_irq_epilogue
 274 005c AFF30080 		.section	.text.SysTickVector,"ax",%progbits
 275              		.align	2
 276              		.p2align 4,,15
 277              		.global	SysTickVector
 278              		.thumb
 279              		.thumb_func
 280              		.type	SysTickVector, %function
 281              	SysTickVector:
ARM GAS  /tmp/cc7SW5zJ.s 			page 6


 282              	.LFB0:
 283              		.loc 1 47 0
 284              		.cfi_startproc
 285              		@ args = 0, pretend = 0, frame = 0
 286              		@ frame_needed = 0, uses_anonymous_args = 0
 287 0000 08B5     		push	{r3, lr}
 288              		.cfi_def_cfa_offset 8
 289              		.cfi_offset 3, -8
 290              		.cfi_offset 14, -4
 291              		.loc 1 49 0
 292 0002 FFF7FEFF 		bl	dbg_check_enter_isr
 293              	.LVL13:
 294              		.loc 1 51 0
 295              	@ 51 "../../../os/ports/GCC/ARMCMx/chcore_v7m.c" 1
 296 0006 FFF7FEFF 		bl      _port_lock
 297              	@ 0 "" 2
 298              		.thumb
 299 000a FFF7FEFF 		bl	dbg_check_lock_from_isr
 300              	.LVL14:
 301              		.loc 1 52 0
 302 000e FFF7FEFF 		bl	chSysTimerHandlerI
 303              	.LVL15:
 304              		.loc 1 53 0
 305 0012 FFF7FEFF 		bl	dbg_check_unlock_from_isr
 306              	.LVL16:
 307              	@ 53 "../../../os/ports/GCC/ARMCMx/chcore_v7m.c" 1
 308 0016 FFF7FEFF 		bl      _port_unlock
 309              	@ 0 "" 2
 310              		.loc 1 55 0
 311              		.thumb
 312 001a FFF7FEFF 		bl	dbg_check_leave_isr
 313              	.LVL17:
 314              		.loc 1 56 0
 315 001e BDE80840 		pop	{r3, lr}
 316              		.loc 1 55 0
 317 0022 FFF7FEBF 		b	_port_irq_epilogue
 318              	.LVL18:
 319              		.cfi_endproc
 320              	.LFE0:
 321              		.size	SysTickVector, .-SysTickVector
 322 0026 00BFAFF3 		.section	.text._port_switch,"ax",%progbits
 322      0080AFF3 
 322      0080
 323              		.align	2
 324              		.p2align 4,,15
 325              		.global	_port_switch
 326              		.thumb
 327              		.thumb_func
 328              		.type	_port_switch, %function
 329              	_port_switch:
 330              	.LFB7:
 331              		.loc 1 236 0
 332              		.cfi_startproc
 333              		@ Naked Function: prologue and epilogue provided by programmer.
 334              		@ args = 0, pretend = 0, frame = 0
 335              		@ frame_needed = 0, uses_anonymous_args = 0
 336              	.LVL19:
ARM GAS  /tmp/cc7SW5zJ.s 			page 7


 337              		.loc 1 238 0
 338              	@ 238 "../../../os/ports/GCC/ARMCMx/chcore_v7m.c" 1
 339 0000 2DE9F04F 		push    {r4, r5, r6, r7, r8, r9, r10, r11, lr}
 340              	@ 0 "" 2
 341              		.loc 1 244 0
 342              	@ 244 "../../../os/ports/GCC/ARMCMx/chcore_v7m.c" 1
 343 0004 C1F80CD0 		str     sp, [r1, #12]                          
 344 0008 D0F80CD0 		ldr     sp, [r0, #12]
 345              	@ 0 "" 2
 346              		.loc 1 250 0
 347              	@ 250 "../../../os/ports/GCC/ARMCMx/chcore_v7m.c" 1
 348 000c BDE8F08F 		pop     {r4, r5, r6, r7, r8, r9, r10, r11, pc}
 349              	@ 0 "" 2
 350              		.loc 1 252 0
 351              		.thumb
 352              		.cfi_endproc
 353              	.LFE7:
 354              		.size	_port_switch, .-_port_switch
 355              		.section	.text._port_thread_start,"ax",%progbits
 356              		.align	2
 357              		.p2align 4,,15
 358              		.global	_port_thread_start
 359              		.thumb
 360              		.thumb_func
 361              		.type	_port_thread_start, %function
 362              	_port_thread_start:
 363              	.LFB8:
 364              		.loc 1 259 0
 365              		.cfi_startproc
 366              		@ args = 0, pretend = 0, frame = 0
 367              		@ frame_needed = 0, uses_anonymous_args = 0
 368 0000 08B5     		push	{r3, lr}
 369              		.cfi_def_cfa_offset 8
 370              		.cfi_offset 3, -8
 371              		.cfi_offset 14, -4
 372              		.loc 1 261 0
 373 0002 FFF7FEFF 		bl	dbg_check_unlock
 374              	.LVL20:
 375              	@ 261 "../../../os/ports/GCC/ARMCMx/chcore_v7m.c" 1
 376 0006 FFF7FEFF 		bl      _port_unlock
 377              	@ 0 "" 2
 378              		.loc 1 262 0
 379              	@ 262 "../../../os/ports/GCC/ARMCMx/chcore_v7m.c" 1
 380 000a 2846     		mov     r0, r5                                 
 381 000c A047     		blx     r4                                     
 382 000e FFF7FEFF 		bl      chThdExit
 383              	@ 0 "" 2
 384              		.thumb
 385 0012 08BD     		pop	{r3, pc}
 386              		.cfi_endproc
 387              	.LFE8:
 388              		.size	_port_thread_start, .-_port_thread_start
 389 0014 AFF30080 		.text
 389      AFF30080 
 389      AFF30080 
 390              	.Letext0:
 391              		.file 2 "/usr/arm-none-eabi/include/machine/_default_types.h"
ARM GAS  /tmp/cc7SW5zJ.s 			page 8


 392              		.file 3 "/usr/arm-none-eabi/include/stdint.h"
 393              		.file 4 "../../../os/ports/GCC/ARMCMx/chtypes.h"
 394              		.file 5 "../../../os/kernel/include/chlists.h"
 395              		.file 6 "../../../os/kernel/include/chthreads.h"
 396              		.file 7 "../../../os/ports/GCC/ARMCMx/chcore_v7m.h"
 397              		.file 8 "../../../os/ports/common/ARMCMx/nvic.h"
 398              		.file 9 "../../../os/kernel/include/chschd.h"
 399              		.file 10 "../../../os/kernel/include/chmtx.h"
 400              		.file 11 "../../../os/kernel/include/chdebug.h"
 401              		.file 12 "../../../os/kernel/include/chsys.h"