ARM GAS  /tmp/cc7SW5zJ.s 			page 1


   1              		.syntax unified
   2              		.cpu cortex-m4
   3              		.fpu softvfp
   4              		.eabi_attribute 20, 1
   5              		.eabi_attribute 21, 1
   6              		.eabi_attribute 23, 3
   7              		.eabi_attribute 24, 1
   8              		.eabi_attribute 25, 1
   9              		.eabi_attribute 26, 1
  10              		.eabi_attribute 30, 2
  11              		.eabi_attribute 34, 1
  12              		.eabi_attribute 18, 4
  13              		.thumb
  14              		.file	"chcore_v7m.c"
  15              		.text
  16              	.Ltext0:
  17              		.cfi_sections	.debug_frame
  18              		.section	.text._port_switch_from_isr,"ax",%progbits
  19              		.align	2
  20              		.p2align 4,,15
  21              		.global	_port_switch_from_isr
  22              		.thumb
  23              		.thumb_func
  24              		.type	_port_switch_from_isr, %function
  25              	_port_switch_from_isr:
  26              	.LFB6:
  27              		.file 1 "../../../os/ports/GCC/ARMCMx/chcore_v7m.c"
  28              		.loc 1 207 0
  29              		.cfi_startproc
  30              		@ Naked Function: prologue and epilogue provided by programmer.
  31              		@ args = 0, pretend = 0, frame = 0
  32              		@ frame_needed = 0, uses_anonymous_args = 0
  33              		.loc 1 209 0
  34 0000 FFF7FEFF 		bl	dbg_check_lock
  35              	.LVL0:
  36              		.loc 1 210 0
  37 0004 FFF7FEFF 		bl	chSchDoReschedule
  38              	.LVL1:
  39              		.loc 1 211 0
  40 0008 FFF7FEFF 		bl	dbg_check_unlock
  41              	.LVL2:
  42              		.loc 1 212 0
  43              	@ 212 "../../../os/ports/GCC/ARMCMx/chcore_v7m.c" 1
  44              		_port_exit_from_isr:
  45              	@ 0 "" 2
  46              		.loc 1 214 0
  47              	@ 214 "../../../os/ports/GCC/ARMCMx/chcore_v7m.c" 1
  48 000c 00DF     		svc     #0
  49              	@ 0 "" 2
  50              		.loc 1 221 0
  51              		.thumb
  52              		.cfi_endproc
  53              	.LFE6:
  54              		.size	_port_switch_from_isr, .-_port_switch_from_isr
  55 000e 00BF     		.section	.text.SVCallVector,"ax",%progbits
  56              		.align	2
  57              		.p2align 4,,15
ARM GAS  /tmp/cc7SW5zJ.s 			page 2


  58              		.global	SVCallVector
  59              		.thumb
  60              		.thumb_func
  61              		.type	SVCallVector, %function
  62              	SVCallVector:
  63              	.LFB1:
  64              		.loc 1 65 0
  65              		.cfi_startproc
  66              		@ args = 0, pretend = 0, frame = 0
  67              		@ frame_needed = 0, uses_anonymous_args = 0
  68 0000 00B5     		push	{lr}
  69              		.cfi_def_cfa_offset 4
  70              		.cfi_offset 14, -4
  71              		.loc 1 69 0
  72              	@ 69 "../../../os/ports/GCC/ARMCMx/chcore_v7m.c" 1
  73 0002 EFF30983 		mrs     r3, PSP
  74              	@ 0 "" 2
  75              	.LVL3:
  76              		.loc 1 73 0
  77              		.thumb
  78 0006 2033     		adds	r3, r3, #32
  79              	.LVL4:
  80              		.loc 1 80 0
  81              	@ 80 "../../../os/ports/GCC/ARMCMx/chcore_v7m.c" 1
  82 0008 83F30988 		msr     PSP, r3
  83              	@ 0 "" 2
  84              		.loc 1 81 0
  85              	@ 81 "../../../os/ports/GCC/ARMCMx/chcore_v7m.c" 1
  86 000c FFF7FEFF 		bl      _port_unlock
  87              	@ 0 "" 2
  88              	.LVL5:
  89              		.thumb
  90 0010 5DF804FB 		ldr	pc, [sp], #4
  91              		.cfi_endproc
  92              	.LFE1:
  93              		.size	SVCallVector, .-SVCallVector
  94              		.section	.text._port_init,"ax",%progbits
  95              		.align	2
  96              		.p2align 4,,15
  97              		.global	_port_init
  98              		.thumb
  99              		.thumb_func
 100              		.type	_port_init, %function
 101              	_port_init:
 102              	.LFB2:
 103              		.loc 1 118 0
 104              		.cfi_startproc
 105              		@ args = 0, pretend = 0, frame = 0
 106              		@ frame_needed = 0, uses_anonymous_args = 0
 107 0000 08B5     		push	{r3, lr}
 108              		.cfi_def_cfa_offset 8
 109              		.cfi_offset 3, -8
 110              		.cfi_offset 14, -4
 111              		.loc 1 121 0
 112 0002 4FF46D43 		mov	r3, #60672
 113 0006 CEF20003 		movt	r3, 57344
 114              		.loc 1 122 0
ARM GAS  /tmp/cc7SW5zJ.s 			page 3


 115 000a 4FF44072 		mov	r2, #768
 116 000e C0F2FA52 		movt	r2, 1530
 117              		.loc 1 121 0
 118 0012 0021     		movs	r1, #0
 119 0014 9960     		str	r1, [r3, #8]
 120              		.loc 1 125 0
 121 0016 0720     		movs	r0, #7
 122              		.loc 1 122 0
 123 0018 DA60     		str	r2, [r3, #12]
 124              		.loc 1 125 0
 125 001a 1021     		movs	r1, #16
 126 001c FFF7FEFF 		bl	nvicSetSystemHandlerPriority
 127              	.LVL6:
 128              		.loc 1 127 0
 129 0020 0A20     		movs	r0, #10
 130 0022 2021     		movs	r1, #32
 131 0024 FFF7FEFF 		bl	nvicSetSystemHandlerPriority
 132              	.LVL7:
 133              		.loc 1 129 0
 134 0028 0B20     		movs	r0, #11
 135 002a 8021     		movs	r1, #128
 136              		.loc 1 131 0
 137 002c BDE80840 		pop	{r3, lr}
 138              		.loc 1 129 0
 139 0030 FFF7FEBF 		b	nvicSetSystemHandlerPriority
 140              	.LVL8:
 141              		.cfi_endproc
 142              	.LFE2:
 143              		.size	_port_init, .-_port_init
 144 0034 AFF30080 		.section	.text._port_lock,"ax",%progbits
 144      AFF30080 
 144      AFF30080 
 145              		.align	2
 146              		.p2align 4,,15
 147              		.global	_port_lock
 148              		.thumb
 149              		.thumb_func
 150              		.type	_port_lock, %function
 151              	_port_lock:
 152              	.LFB3:
 153              		.loc 1 134 0
 154              		.cfi_startproc
 155              		@ args = 0, pretend = 0, frame = 0
 156              		@ frame_needed = 0, uses_anonymous_args = 0
 157              		@ link register save eliminated.
 158              		.loc 1 135 0
 159 0000 2023     		movs	r3, #32
 160              		.loc 1 136 0
 161              	@ 136 "../../../os/ports/GCC/ARMCMx/chcore_v7m.c" 1
 162 0002 83F31188 		msr     BASEPRI, r3
 163              	@ 0 "" 2
 164              		.thumb
 165 0006 7047     		bx	lr
 166              		.cfi_endproc
 167              	.LFE3:
 168              		.size	_port_lock, .-_port_lock
 169 0008 AFF30080 		.section	.text._port_unlock,"ax",%progbits
ARM GAS  /tmp/cc7SW5zJ.s 			page 4


 169      AFF30080 
 170              		.align	2
 171              		.p2align 4,,15
 172              		.global	_port_unlock
 173              		.thumb
 174              		.thumb_func
 175              		.type	_port_unlock, %function
 176              	_port_unlock:
 177              	.LFB4:
 178              		.loc 1 139 0
 179              		.cfi_startproc
 180              		@ args = 0, pretend = 0, frame = 0
 181              		@ frame_needed = 0, uses_anonymous_args = 0
 182              		@ link register save eliminated.
 183              		.loc 1 140 0
 184 0000 0023     		movs	r3, #0
 185              		.loc 1 141 0
 186              	@ 141 "../../../os/ports/GCC/ARMCMx/chcore_v7m.c" 1
 187 0002 83F31188 		msr     BASEPRI, r3
 188              	@ 0 "" 2
 189              		.thumb
 190 0006 7047     		bx	lr
 191              		.cfi_endproc
 192              	.LFE4:
 193              		.size	_port_unlock, .-_port_unlock
 194 0008 AFF30080 		.section	.text._port_irq_epilogue,"ax",%progbits
 194      AFF30080 
 195              		.align	2
 196              		.p2align 4,,15
 197              		.global	_port_irq_epilogue
 198              		.thumb
 199              		.thumb_func
 200              		.type	_port_irq_epilogue, %function
 201              	_port_irq_epilogue:
 202              	.LFB5:
 203              		.loc 1 148 0
 204              		.cfi_startproc
 205              		@ args = 0, pretend = 0, frame = 0
 206              		@ frame_needed = 0, uses_anonymous_args = 0
 207 0000 00B5     		push	{lr}
 208              		.cfi_def_cfa_offset 4
 209              		.cfi_offset 14, -4
 210              		.loc 1 150 0
 211              	@ 150 "../../../os/ports/GCC/ARMCMx/chcore_v7m.c" 1
 212 0002 FFF7FEFF 		bl      _port_lock
 213              	@ 0 "" 2
 214              		.loc 1 151 0
 215              		.thumb
 216 0006 4FF46D43 		mov	r3, #60672
 217 000a CEF20003 		movt	r3, 57344
 218 000e 5B68     		ldr	r3, [r3, #4]
 219 0010 1B05     		lsls	r3, r3, #20
 220 0012 1FD5     		bpl	.L7
 221              	.LBB2:
 222              		.loc 1 155 0
 223              	@ 155 "../../../os/ports/GCC/ARMCMx/chcore_v7m.c" 1
 224 0014 EFF30982 		mrs     r2, PSP
ARM GAS  /tmp/cc7SW5zJ.s 			page 5


 225              	@ 0 "" 2
 226              	.LVL9:
 227              		.loc 1 159 0
 228              		.thumb
 229 0018 A2F12003 		sub	r3, r2, #32
 230              	.LVL10:
 231              		.loc 1 160 0
 232              	@ 160 "../../../os/ports/GCC/ARMCMx/chcore_v7m.c" 1
 233 001c 83F30988 		msr     PSP, r3
 234              	@ 0 "" 2
 235              		.loc 1 165 0
 236              		.thumb
 237 0020 40F20003 		movw	r3, #:lower16:rlist
 238              	.LVL11:
 239 0024 C0F20003 		movt	r3, #:upper16:rlist
 240              		.loc 1 161 0
 241 0028 4FF08070 		mov	r0, #16777216
 242              		.loc 1 165 0
 243 002c 1968     		ldr	r1, [r3]
 244 002e 9B69     		ldr	r3, [r3, #24]
 245 0030 8968     		ldr	r1, [r1, #8]
 246 0032 9B68     		ldr	r3, [r3, #8]
 247              		.loc 1 161 0
 248 0034 42F8040C 		str	r0, [r2, #-4]
 249              		.loc 1 165 0
 250 0038 9942     		cmp	r1, r3
 251              		.loc 1 167 0
 252 003a 8BBF     		itete	hi
 253 003c 40F20003 		movwhi	r3, #:lower16:_port_switch_from_isr
 254              		.loc 1 176 0
 255 0040 40F20003 		movwls	r3, #:lower16:_port_exit_from_isr
 256              		.loc 1 167 0
 257 0044 C0F20003 		movthi	r3, #:upper16:_port_switch_from_isr
 258              		.loc 1 176 0
 259 0048 C0F20003 		movtls	r3, #:upper16:_port_exit_from_isr
 260 004c 42F8083C 		str	r3, [r2, #-8]
 261 0050 5DF804FB 		ldr	pc, [sp], #4
 262              	.LVL12:
 263              	.L7:
 264              	.LBE2:
 265              		.loc 1 197 0
 266              	@ 197 "../../../os/ports/GCC/ARMCMx/chcore_v7m.c" 1
 267 0054 FFF7FEFF 		bl      _port_unlock
 268              	@ 0 "" 2
 269              		.thumb
 270 0058 5DF804FB 		ldr	pc, [sp], #4
 271              		.cfi_endproc
 272              	.LFE5:
 273              		.size	_port_irq_epilogue, .-_port_irq_epilogue
 274 005c AFF30080 		.section	.text.SysTickVector,"ax",%progbits
 275              		.align	2
 276              		.p2align 4,,15
 277              		.global	SysTickVector
 278              		.thumb
 279              		.thumb_func
 280              		.type	SysTickVector, %function
 281              	SysTickVector:
ARM GAS  /tmp/cc7SW5zJ.s 			page 6


 282              	.LFB0:
 283              		.loc 1 47 0
 284              		.cfi_startproc
 285              		@ args = 0, pretend = 0, frame = 0
 286              		@ frame_needed = 0, uses_anonymous_args = 0
 287 0000 08B5     		push	{r3, lr}
 288              		.cfi_def_cfa_offset 8
 289              		.cfi_offset 3, -8
 290              		.cfi_offset 14, -4
 291              		.loc 1 49 0
 292 0002 FFF7FEFF 		bl	dbg_check_enter_isr
 293              	.LVL13:
 294              		.loc 1 51 0
 295              	@ 51 "../../../os/ports/GCC/ARMCMx/chcore_v7m.c" 1
 296 0006 FFF7FEFF 		bl      _port_lock
 297              	@ 0 "" 2
 298              		.thumb
 299 000a FFF7FEFF 		bl	dbg_check_lock_from_isr
 300              	.LVL14:
 301              		.loc 1 52 0
 302 000e FFF7FEFF 		bl	chSysTimerHandlerI
 303              	.LVL15:
 304              		.loc 1 53 0
 305 0012 FFF7FEFF 		bl	dbg_check_unlock_from_isr
 306              	.LVL16:
 307              	@ 53 "../../../os/ports/GCC/ARMCMx/chcore_v7m.c" 1
 308 0016 FFF7FEFF 		bl      _port_unlock
 309              	@ 0 "" 2
 310              		.loc 1 55 0
 311              		.thumb
 312 001a FFF7FEFF 		bl	dbg_check_leave_isr
 313              	.LVL17:
 314              		.loc 1 56 0
 315 001e BDE80840 		pop	{r3, lr}
 316              		.loc 1 55 0
 317 0022 FFF7FEBF 		b	_port_irq_epilogue
 318              	.LVL18:
 319              		.cfi_endproc
 320              	.LFE0:
 321              		.size	SysTickVector, .-SysTickVector
 322 0026 00BFAFF3 		.section	.text._port_switch,"ax",%progbits
 322      0080AFF3 
 322      0080
 323              		.align	2
 324              		.p2align 4,,15
 325              		.global	_port_switch
 326              		.thumb
 327              		.thumb_func
 328              		.type	_port_switch, %function
 329              	_port_switch:
 330              	.LFB7:
 331              		.loc 1 236 0
 332              		.cfi_startproc
 333              		@ Naked Function: prologue and epilogue provided by programmer.
 334              		@ args = 0, pretend = 0, frame = 0
 335              		@ frame_needed = 0, uses_anonymous_args = 0
 336              	.LVL19:
ARM GAS  /tmp/cc7SW5zJ.s 			page 7


 337              		.loc 1 238 0
 338              	@ 238 "../../../os/ports/GCC/ARMCMx/chcore_v7m.c" 1
 339 0000 2DE9F04F 		push    {r4, r5, r6, r7, r8, r9, r10, r11, lr}
 340              	@ 0 "" 2
 341              		.loc 1 244 0
 342              	@ 244 "../../../os/ports/GCC/ARMCMx/chcore_v7m.c" 1
 343 0004 C1F80CD0 		str     sp, [r1, #12]                          
 344 0008 D0F80CD0 		ldr     sp, [r0, #12]
 345              	@ 0 "" 2
 346              		.loc 1 250 0
 347              	@ 250 "../../../os/ports/GCC/ARMCMx/chcore_v7m.c" 1
 348 000c BDE8F08F 		pop     {r4, r5, r6, r7, r8, r9, r10, r11, pc}
 349              	@ 0 "" 2
 350              		.loc 1 252 0
 351              		.thumb
 352              		.cfi_endproc
 353              	.LFE7:
 354              		.size	_port_switch, .-_port_switch
 355              		.section	.text._port_thread_start,"ax",%progbits
 356              		.align	2
 357              		.p2align 4,,15
 358              		.global	_port_thread_start
 359              		.thumb
 360              		.thumb_func
 361              		.type	_port_thread_start, %function
 362              	_port_thread_start:
 363              	.LFB8:
 364              		.loc 1 259 0
 365              		.cfi_startproc
 366              		@ args = 0, pretend = 0, frame = 0
 367              		@ frame_needed = 0, uses_anonymous_args = 0
 368 0000 08B5     		push	{r3, lr}
 369              		.cfi_def_cfa_offset 8
 370              		.cfi_offset 3, -8
 371              		.cfi_offset 14, -4
 372              		.loc 1 261 0
 373 0002 FFF7FEFF 		bl	dbg_check_unlock
 374              	.LVL20:
 375              	@ 261 "../../../os/ports/GCC/ARMCMx/chcore_v7m.c" 1
 376 0006 FFF7FEFF 		bl      _port_unlock
 377              	@ 0 "" 2
 378              		.loc 1 262 0
 379              	@ 262 "../../../os/ports/GCC/ARMCMx/chcore_v7m.c" 1
 380 000a 2846     		mov     r0, r5                                 
 381 000c A047     		blx     r4                                     
 382 000e FFF7FEFF 		bl      chThdExit
 383              	@ 0 "" 2
 384              		.thumb
 385 0012 08BD     		pop	{r3, pc}
 386              		.cfi_endproc
 387              	.LFE8:
 388              		.size	_port_thread_start, .-_port_thread_start
 389 0014 AFF30080 		.text
 389      AFF30080 
 389      AFF30080 
 390              	.Letext0:
 391              		.file 2 "/usr/arm-none-eabi/include/machine/_default_types.h"
ARM GAS  /tmp/cc7SW5zJ.s 			page 8


 392              		.file 3 "/usr/arm-none-eabi/include/stdint.h"
 393              		.file 4 "../../../os/ports/GCC/ARMCMx/chtypes.h"
 394              		.file 5 "../../../os/kernel/include/chlists.h"
 395              		.file 6 "../../../os/kernel/include/chthreads.h"
 396              		.file 7 "../../../os/ports/GCC/ARMCMx/chcore_v7m.h"
 397              		.file 8 "../../../os/ports/common/ARMCMx/nvic.h"
 398              		.file 9 "../../../os/kernel/include/chschd.h"
 399              		.file 10 "../../../os/kernel/include/chmtx.h"
 400              		.file 11 "../../../os/kernel/include/chdebug.h"
 401              		.file 12 "../../../os/kernel/include/chsys.h"
 402              		.section	.debug_info,"",%progbits
 403              	.Ldebug_info0:
 404 0000 01080000 		.4byte	0x801
 405 0004 0400     		.2byte	0x4
 406 0006 00000000 		.4byte	.Ldebug_abbrev0
 407 000a 04       		.byte	0x4
 408 000b 01       		.uleb128 0x1
 409 000c 3B000000 		.4byte	.LASF103
 410 0010 01       		.byte	0x1
 411 0011 C5020000 		.4byte	.LASF104
 412 0015 50020000 		.4byte	.LASF105
 413 0019 00000000 		.4byte	.Ldebug_ranges0+0
 414 001d 00000000 		.4byte	0
 415 0021 00000000 		.4byte	.Ldebug_line0
 416 0025 02       		.uleb128 0x2
 417 0026 04       		.byte	0x4
 418 0027 05       		.byte	0x5
 419 0028 696E7400 		.ascii	"int\000"
 420 002c 03       		.uleb128 0x3
 421 002d 04       		.byte	0x4
 422 002e 07       		.byte	0x7
 423 002f FB010000 		.4byte	.LASF0
 424 0033 03       		.uleb128 0x3
 425 0034 01       		.byte	0x1
 426 0035 06       		.byte	0x6
 427 0036 21010000 		.4byte	.LASF1
 428 003a 04       		.uleb128 0x4
 429 003b 16000000 		.4byte	.LASF5
 430 003f 02       		.byte	0x2
 431 0040 1C       		.byte	0x1c
 432 0041 45000000 		.4byte	0x45
 433 0045 03       		.uleb128 0x3
 434 0046 01       		.byte	0x1
 435 0047 08       		.byte	0x8
 436 0048 D4030000 		.4byte	.LASF2
 437 004c 03       		.uleb128 0x3
 438 004d 02       		.byte	0x2
 439 004e 05       		.byte	0x5
 440 004f F2030000 		.4byte	.LASF3
 441 0053 03       		.uleb128 0x3
 442 0054 02       		.byte	0x2
 443 0055 07       		.byte	0x7
 444 0056 A7020000 		.4byte	.LASF4
 445 005a 04       		.uleb128 0x4
 446 005b 7F040000 		.4byte	.LASF6
 447 005f 02       		.byte	0x2
 448 0060 37       		.byte	0x37
ARM GAS  /tmp/cc7SW5zJ.s 			page 9


 449 0061 65000000 		.4byte	0x65
 450 0065 03       		.uleb128 0x3
 451 0066 04       		.byte	0x4
 452 0067 05       		.byte	0x5
 453 0068 4F010000 		.4byte	.LASF7
 454 006c 04       		.uleb128 0x4
 455 006d 8E010000 		.4byte	.LASF8
 456 0071 02       		.byte	0x2
 457 0072 38       		.byte	0x38
 458 0073 77000000 		.4byte	0x77
 459 0077 03       		.uleb128 0x3
 460 0078 04       		.byte	0x4
 461 0079 07       		.byte	0x7
 462 007a 23020000 		.4byte	.LASF9
 463 007e 03       		.uleb128 0x3
 464 007f 08       		.byte	0x8
 465 0080 05       		.byte	0x5
 466 0081 13010000 		.4byte	.LASF10
 467 0085 04       		.uleb128 0x4
 468 0086 A2030000 		.4byte	.LASF11
 469 008a 02       		.byte	0x2
 470 008b 4E       		.byte	0x4e
 471 008c 90000000 		.4byte	0x90
 472 0090 03       		.uleb128 0x3
 473 0091 08       		.byte	0x8
 474 0092 07       		.byte	0x7
 475 0093 E6000000 		.4byte	.LASF12
 476 0097 04       		.uleb128 0x4
 477 0098 DD040000 		.4byte	.LASF13
 478 009c 03       		.byte	0x3
 479 009d 2A       		.byte	0x2a
 480 009e 3A000000 		.4byte	0x3a
 481 00a2 04       		.uleb128 0x4
 482 00a3 CC030000 		.4byte	.LASF14
 483 00a7 03       		.byte	0x3
 484 00a8 41       		.byte	0x41
 485 00a9 5A000000 		.4byte	0x5a
 486 00ad 04       		.uleb128 0x4
 487 00ae 38040000 		.4byte	.LASF15
 488 00b2 03       		.byte	0x3
 489 00b3 42       		.byte	0x42
 490 00b4 6C000000 		.4byte	0x6c
 491 00b8 04       		.uleb128 0x4
 492 00b9 0D000000 		.4byte	.LASF16
 493 00bd 03       		.byte	0x3
 494 00be 4E       		.byte	0x4e
 495 00bf 85000000 		.4byte	0x85
 496 00c3 03       		.uleb128 0x3
 497 00c4 01       		.byte	0x1
 498 00c5 02       		.byte	0x2
 499 00c6 C6030000 		.4byte	.LASF17
 500 00ca 04       		.uleb128 0x4
 501 00cb 16030000 		.4byte	.LASF18
 502 00cf 04       		.byte	0x4
 503 00d0 2C       		.byte	0x2c
 504 00d1 97000000 		.4byte	0x97
 505 00d5 04       		.uleb128 0x4
ARM GAS  /tmp/cc7SW5zJ.s 			page 10


 506 00d6 65010000 		.4byte	.LASF19
 507 00da 04       		.byte	0x4
 508 00db 2D       		.byte	0x2d
 509 00dc 97000000 		.4byte	0x97
 510 00e0 04       		.uleb128 0x4
 511 00e1 BE030000 		.4byte	.LASF20
 512 00e5 04       		.byte	0x4
 513 00e6 30       		.byte	0x30
 514 00e7 AD000000 		.4byte	0xad
 515 00eb 04       		.uleb128 0x4
 516 00ec BF020000 		.4byte	.LASF21
 517 00f0 04       		.byte	0x4
 518 00f1 31       		.byte	0x31
 519 00f2 A2000000 		.4byte	0xa2
 520 00f6 04       		.uleb128 0x4
 521 00f7 2A030000 		.4byte	.LASF22
 522 00fb 04       		.byte	0x4
 523 00fc 33       		.byte	0x33
 524 00fd AD000000 		.4byte	0xad
 525 0101 04       		.uleb128 0x4
 526 0102 6A040000 		.4byte	.LASF23
 527 0106 04       		.byte	0x4
 528 0107 35       		.byte	0x35
 529 0108 AD000000 		.4byte	0xad
 530 010c 04       		.uleb128 0x4
 531 010d 26040000 		.4byte	.LASF24
 532 0111 05       		.byte	0x5
 533 0112 2A       		.byte	0x2a
 534 0113 17010000 		.4byte	0x117
 535 0117 05       		.uleb128 0x5
 536 0118 26040000 		.4byte	.LASF24
 537 011c 48       		.byte	0x48
 538 011d 06       		.byte	0x6
 539 011e 5E       		.byte	0x5e
 540 011f FC010000 		.4byte	0x1fc
 541 0123 06       		.uleb128 0x6
 542 0124 17040000 		.4byte	.LASF25
 543 0128 06       		.byte	0x6
 544 0129 5F       		.byte	0x5f
 545 012a 1D020000 		.4byte	0x21d
 546 012e 00       		.byte	0
 547 012f 06       		.uleb128 0x6
 548 0130 B7030000 		.4byte	.LASF26
 549 0134 06       		.byte	0x6
 550 0135 61       		.byte	0x61
 551 0136 1D020000 		.4byte	0x21d
 552 013a 04       		.byte	0x4
 553 013b 06       		.uleb128 0x6
 554 013c 0C010000 		.4byte	.LASF27
 555 0140 06       		.byte	0x6
 556 0141 63       		.byte	0x63
 557 0142 E0000000 		.4byte	0xe0
 558 0146 08       		.byte	0x8
 559 0147 06       		.uleb128 0x6
 560 0148 29050000 		.4byte	.LASF28
 561 014c 06       		.byte	0x6
 562 014d 64       		.byte	0x64
ARM GAS  /tmp/cc7SW5zJ.s 			page 11


 563 014e 4A030000 		.4byte	0x34a
 564 0152 0C       		.byte	0xc
 565 0153 06       		.uleb128 0x6
 566 0154 81010000 		.4byte	.LASF29
 567 0158 06       		.byte	0x6
 568 0159 66       		.byte	0x66
 569 015a 1D020000 		.4byte	0x21d
 570 015e 10       		.byte	0x10
 571 015f 06       		.uleb128 0x6
 572 0160 64030000 		.4byte	.LASF30
 573 0164 06       		.byte	0x6
 574 0165 67       		.byte	0x67
 575 0166 1D020000 		.4byte	0x21d
 576 016a 14       		.byte	0x14
 577 016b 06       		.uleb128 0x6
 578 016c 0F050000 		.4byte	.LASF31
 579 0170 06       		.byte	0x6
 580 0171 6E       		.byte	0x6e
 581 0172 C3050000 		.4byte	0x5c3
 582 0176 18       		.byte	0x18
 583 0177 06       		.uleb128 0x6
 584 0178 F0010000 		.4byte	.LASF32
 585 017c 06       		.byte	0x6
 586 017d 74       		.byte	0x74
 587 017e D5050000 		.4byte	0x5d5
 588 0182 1C       		.byte	0x1c
 589 0183 06       		.uleb128 0x6
 590 0184 FC030000 		.4byte	.LASF33
 591 0188 06       		.byte	0x6
 592 0189 79       		.byte	0x79
 593 018a D5000000 		.4byte	0xd5
 594 018e 20       		.byte	0x20
 595 018f 06       		.uleb128 0x6
 596 0190 1E040000 		.4byte	.LASF34
 597 0194 06       		.byte	0x6
 598 0195 7D       		.byte	0x7d
 599 0196 CA000000 		.4byte	0xca
 600 019a 21       		.byte	0x21
 601 019b 06       		.uleb128 0x6
 602 019c 96040000 		.4byte	.LASF35
 603 01a0 06       		.byte	0x6
 604 01a1 8F       		.byte	0x8f
 605 01a2 EB040000 		.4byte	0x4eb
 606 01a6 24       		.byte	0x24
 607 01a7 07       		.uleb128 0x7
 608 01a8 705F7500 		.ascii	"p_u\000"
 609 01ac 06       		.byte	0x6
 610 01ad B4       		.byte	0xb4
 611 01ae 8E050000 		.4byte	0x58e
 612 01b2 28       		.byte	0x28
 613 01b3 06       		.uleb128 0x6
 614 01b4 2F050000 		.4byte	.LASF36
 615 01b8 06       		.byte	0x6
 616 01b9 B9       		.byte	0xb9
 617 01ba 43020000 		.4byte	0x243
 618 01be 2C       		.byte	0x2c
 619 01bf 06       		.uleb128 0x6
ARM GAS  /tmp/cc7SW5zJ.s 			page 12


 620 01c0 BD040000 		.4byte	.LASF37
 621 01c4 06       		.byte	0x6
 622 01c5 BF       		.byte	0xbf
 623 01c6 23020000 		.4byte	0x223
 624 01ca 30       		.byte	0x30
 625 01cb 06       		.uleb128 0x6
 626 01cc 00000000 		.4byte	.LASF38
 627 01d0 06       		.byte	0x6
 628 01d1 C3       		.byte	0xc3
 629 01d2 EB000000 		.4byte	0xeb
 630 01d6 38       		.byte	0x38
 631 01d7 06       		.uleb128 0x6
 632 01d8 2D040000 		.4byte	.LASF39
 633 01dc 06       		.byte	0x6
 634 01dd C9       		.byte	0xc9
 635 01de F6000000 		.4byte	0xf6
 636 01e2 3C       		.byte	0x3c
 637 01e3 06       		.uleb128 0x6
 638 01e4 E8030000 		.4byte	.LASF40
 639 01e8 06       		.byte	0x6
 640 01e9 D0       		.byte	0xd0
 641 01ea DB050000 		.4byte	0x5db
 642 01ee 40       		.byte	0x40
 643 01ef 06       		.uleb128 0x6
 644 01f0 74040000 		.4byte	.LASF41
 645 01f4 06       		.byte	0x6
 646 01f5 D4       		.byte	0xd4
 647 01f6 E0000000 		.4byte	0xe0
 648 01fa 44       		.byte	0x44
 649 01fb 00       		.byte	0
 650 01fc 08       		.uleb128 0x8
 651 01fd 08       		.byte	0x8
 652 01fe 05       		.byte	0x5
 653 01ff 61       		.byte	0x61
 654 0200 1D020000 		.4byte	0x21d
 655 0204 06       		.uleb128 0x6
 656 0205 17040000 		.4byte	.LASF25
 657 0209 05       		.byte	0x5
 658 020a 62       		.byte	0x62
 659 020b 1D020000 		.4byte	0x21d
 660 020f 00       		.byte	0
 661 0210 06       		.uleb128 0x6
 662 0211 B7030000 		.4byte	.LASF26
 663 0215 05       		.byte	0x5
 664 0216 64       		.byte	0x64
 665 0217 1D020000 		.4byte	0x21d
 666 021b 04       		.byte	0x4
 667 021c 00       		.byte	0
 668 021d 09       		.uleb128 0x9
 669 021e 04       		.byte	0x4
 670 021f 0C010000 		.4byte	0x10c
 671 0223 04       		.uleb128 0x4
 672 0224 72030000 		.4byte	.LASF42
 673 0228 05       		.byte	0x5
 674 0229 66       		.byte	0x66
 675 022a FC010000 		.4byte	0x1fc
 676 022e 08       		.uleb128 0x8
ARM GAS  /tmp/cc7SW5zJ.s 			page 13


 677 022f 04       		.byte	0x4
 678 0230 05       		.byte	0x5
 679 0231 6B       		.byte	0x6b
 680 0232 43020000 		.4byte	0x243
 681 0236 06       		.uleb128 0x6
 682 0237 17040000 		.4byte	.LASF25
 683 023b 05       		.byte	0x5
 684 023c 6D       		.byte	0x6d
 685 023d 1D020000 		.4byte	0x21d
 686 0241 00       		.byte	0
 687 0242 00       		.byte	0
 688 0243 04       		.uleb128 0x4
 689 0244 1E030000 		.4byte	.LASF43
 690 0248 05       		.byte	0x5
 691 0249 70       		.byte	0x70
 692 024a 2E020000 		.4byte	0x22e
 693 024e 04       		.uleb128 0x4
 694 024f B6010000 		.4byte	.LASF44
 695 0253 07       		.byte	0x7
 696 0254 E5       		.byte	0xe5
 697 0255 59020000 		.4byte	0x259
 698 0259 0A       		.uleb128 0xa
 699 025a 04       		.byte	0x4
 700 025b 04       		.uleb128 0x4
 701 025c 3C030000 		.4byte	.LASF45
 702 0260 07       		.byte	0x7
 703 0261 EB       		.byte	0xeb
 704 0262 B8000000 		.4byte	0xb8
 705 0266 05       		.uleb128 0x5
 706 0267 0F020000 		.4byte	.LASF46
 707 026b 20       		.byte	0x20
 708 026c 07       		.byte	0x7
 709 026d ED       		.byte	0xed
 710 026e CE020000 		.4byte	0x2ce
 711 0272 07       		.uleb128 0x7
 712 0273 723000   		.ascii	"r0\000"
 713 0276 07       		.byte	0x7
 714 0277 EE       		.byte	0xee
 715 0278 4E020000 		.4byte	0x24e
 716 027c 00       		.byte	0
 717 027d 07       		.uleb128 0x7
 718 027e 723100   		.ascii	"r1\000"
 719 0281 07       		.byte	0x7
 720 0282 EF       		.byte	0xef
 721 0283 4E020000 		.4byte	0x24e
 722 0287 04       		.byte	0x4
 723 0288 07       		.uleb128 0x7
 724 0289 723200   		.ascii	"r2\000"
 725 028c 07       		.byte	0x7
 726 028d F0       		.byte	0xf0
 727 028e 4E020000 		.4byte	0x24e
 728 0292 08       		.byte	0x8
 729 0293 07       		.uleb128 0x7
 730 0294 723300   		.ascii	"r3\000"
 731 0297 07       		.byte	0x7
 732 0298 F1       		.byte	0xf1
 733 0299 4E020000 		.4byte	0x24e
ARM GAS  /tmp/cc7SW5zJ.s 			page 14


 734 029d 0C       		.byte	0xc
 735 029e 07       		.uleb128 0x7
 736 029f 72313200 		.ascii	"r12\000"
 737 02a3 07       		.byte	0x7
 738 02a4 F2       		.byte	0xf2
 739 02a5 4E020000 		.4byte	0x24e
 740 02a9 10       		.byte	0x10
 741 02aa 06       		.uleb128 0x6
 742 02ab 08020000 		.4byte	.LASF47
 743 02af 07       		.byte	0x7
 744 02b0 F3       		.byte	0xf3
 745 02b1 4E020000 		.4byte	0x24e
 746 02b5 14       		.byte	0x14
 747 02b6 07       		.uleb128 0x7
 748 02b7 706300   		.ascii	"pc\000"
 749 02ba 07       		.byte	0x7
 750 02bb F4       		.byte	0xf4
 751 02bc 4E020000 		.4byte	0x24e
 752 02c0 18       		.byte	0x18
 753 02c1 06       		.uleb128 0x6
 754 02c2 04040000 		.4byte	.LASF48
 755 02c6 07       		.byte	0x7
 756 02c7 F5       		.byte	0xf5
 757 02c8 4E020000 		.4byte	0x24e
 758 02cc 1C       		.byte	0x1c
 759 02cd 00       		.byte	0
 760 02ce 0B       		.uleb128 0xb
 761 02cf B6040000 		.4byte	.LASF49
 762 02d3 24       		.byte	0x24
 763 02d4 07       		.byte	0x7
 764 02d5 0C01     		.2byte	0x10c
 765 02d7 4A030000 		.4byte	0x34a
 766 02db 0C       		.uleb128 0xc
 767 02dc 723400   		.ascii	"r4\000"
 768 02df 07       		.byte	0x7
 769 02e0 1F01     		.2byte	0x11f
 770 02e2 4E020000 		.4byte	0x24e
 771 02e6 00       		.byte	0
 772 02e7 0C       		.uleb128 0xc
 773 02e8 723500   		.ascii	"r5\000"
 774 02eb 07       		.byte	0x7
 775 02ec 2001     		.2byte	0x120
 776 02ee 4E020000 		.4byte	0x24e
 777 02f2 04       		.byte	0x4
 778 02f3 0C       		.uleb128 0xc
 779 02f4 723600   		.ascii	"r6\000"
 780 02f7 07       		.byte	0x7
 781 02f8 2101     		.2byte	0x121
 782 02fa 4E020000 		.4byte	0x24e
 783 02fe 08       		.byte	0x8
 784 02ff 0C       		.uleb128 0xc
 785 0300 723700   		.ascii	"r7\000"
 786 0303 07       		.byte	0x7
 787 0304 2201     		.2byte	0x122
 788 0306 4E020000 		.4byte	0x24e
 789 030a 0C       		.byte	0xc
 790 030b 0C       		.uleb128 0xc
ARM GAS  /tmp/cc7SW5zJ.s 			page 15


 791 030c 723800   		.ascii	"r8\000"
 792 030f 07       		.byte	0x7
 793 0310 2301     		.2byte	0x123
 794 0312 4E020000 		.4byte	0x24e
 795 0316 10       		.byte	0x10
 796 0317 0C       		.uleb128 0xc
 797 0318 723900   		.ascii	"r9\000"
 798 031b 07       		.byte	0x7
 799 031c 2401     		.2byte	0x124
 800 031e 4E020000 		.4byte	0x24e
 801 0322 14       		.byte	0x14
 802 0323 0C       		.uleb128 0xc
 803 0324 72313000 		.ascii	"r10\000"
 804 0328 07       		.byte	0x7
 805 0329 2501     		.2byte	0x125
 806 032b 4E020000 		.4byte	0x24e
 807 032f 18       		.byte	0x18
 808 0330 0C       		.uleb128 0xc
 809 0331 72313100 		.ascii	"r11\000"
 810 0335 07       		.byte	0x7
 811 0336 2601     		.2byte	0x126
 812 0338 4E020000 		.4byte	0x24e
 813 033c 1C       		.byte	0x1c
 814 033d 0C       		.uleb128 0xc
 815 033e 6C7200   		.ascii	"lr\000"
 816 0341 07       		.byte	0x7
 817 0342 2701     		.2byte	0x127
 818 0344 4E020000 		.4byte	0x24e
 819 0348 20       		.byte	0x20
 820 0349 00       		.byte	0
 821 034a 0B       		.uleb128 0xb
 822 034b 9F020000 		.4byte	.LASF50
 823 034f 04       		.byte	0x4
 824 0350 07       		.byte	0x7
 825 0351 3101     		.2byte	0x131
 826 0353 65030000 		.4byte	0x365
 827 0357 0C       		.uleb128 0xc
 828 0358 72313300 		.ascii	"r13\000"
 829 035c 07       		.byte	0x7
 830 035d 3201     		.2byte	0x132
 831 035f 65030000 		.4byte	0x365
 832 0363 00       		.byte	0
 833 0364 00       		.byte	0
 834 0365 09       		.uleb128 0x9
 835 0366 04       		.byte	0x4
 836 0367 CE020000 		.4byte	0x2ce
 837 036b 04       		.uleb128 0x4
 838 036c 5B040000 		.4byte	.LASF51
 839 0370 08       		.byte	0x8
 840 0371 3A       		.byte	0x3a
 841 0372 76030000 		.4byte	0x376
 842 0376 0D       		.uleb128 0xd
 843 0377 AD000000 		.4byte	0xad
 844 037b 03       		.uleb128 0x3
 845 037c 04       		.byte	0x4
 846 037d 07       		.byte	0x7
 847 037e 47030000 		.4byte	.LASF52
ARM GAS  /tmp/cc7SW5zJ.s 			page 16


 848 0382 08       		.uleb128 0x8
 849 0383 8C       		.byte	0x8c
 850 0384 08       		.byte	0x8
 851 0385 89       		.byte	0x89
 852 0386 87040000 		.4byte	0x487
 853 038a 06       		.uleb128 0x6
 854 038b 06010000 		.4byte	.LASF53
 855 038f 08       		.byte	0x8
 856 0390 8A       		.byte	0x8a
 857 0391 6B030000 		.4byte	0x36b
 858 0395 00       		.byte	0
 859 0396 06       		.uleb128 0x6
 860 0397 BA020000 		.4byte	.LASF54
 861 039b 08       		.byte	0x8
 862 039c 8B       		.byte	0x8b
 863 039d 6B030000 		.4byte	0x36b
 864 03a1 04       		.byte	0x4
 865 03a2 06       		.uleb128 0x6
 866 03a3 35020000 		.4byte	.LASF55
 867 03a7 08       		.byte	0x8
 868 03a8 8C       		.byte	0x8c
 869 03a9 6B030000 		.4byte	0x36b
 870 03ad 08       		.byte	0x8
 871 03ae 06       		.uleb128 0x6
 872 03af EF020000 		.4byte	.LASF56
 873 03b3 08       		.byte	0x8
 874 03b4 8D       		.byte	0x8d
 875 03b5 6B030000 		.4byte	0x36b
 876 03b9 0C       		.byte	0xc
 877 03ba 07       		.uleb128 0x7
 878 03bb 53435200 		.ascii	"SCR\000"
 879 03bf 08       		.byte	0x8
 880 03c0 8E       		.byte	0x8e
 881 03c1 6B030000 		.4byte	0x36b
 882 03c5 10       		.byte	0x10
 883 03c6 07       		.uleb128 0x7
 884 03c7 43435200 		.ascii	"CCR\000"
 885 03cb 08       		.byte	0x8
 886 03cc 8F       		.byte	0x8f
 887 03cd 6B030000 		.4byte	0x36b
 888 03d1 14       		.byte	0x14
 889 03d2 06       		.uleb128 0x6
 890 03d3 9D040000 		.4byte	.LASF57
 891 03d7 08       		.byte	0x8
 892 03d8 90       		.byte	0x90
 893 03d9 97040000 		.4byte	0x497
 894 03dd 18       		.byte	0x18
 895 03de 06       		.uleb128 0x6
 896 03df E2030000 		.4byte	.LASF58
 897 03e3 08       		.byte	0x8
 898 03e4 91       		.byte	0x91
 899 03e5 6B030000 		.4byte	0x36b
 900 03e9 24       		.byte	0x24
 901 03ea 06       		.uleb128 0x6
 902 03eb 5F030000 		.4byte	.LASF59
 903 03ef 08       		.byte	0x8
 904 03f0 92       		.byte	0x92
ARM GAS  /tmp/cc7SW5zJ.s 			page 17


 905 03f1 6B030000 		.4byte	0x36b
 906 03f5 28       		.byte	0x28
 907 03f6 06       		.uleb128 0x6
 908 03f7 1C050000 		.4byte	.LASF60
 909 03fb 08       		.byte	0x8
 910 03fc 93       		.byte	0x93
 911 03fd 6B030000 		.4byte	0x36b
 912 0401 2C       		.byte	0x2c
 913 0402 06       		.uleb128 0x6
 914 0403 AD030000 		.4byte	.LASF61
 915 0407 08       		.byte	0x8
 916 0408 94       		.byte	0x94
 917 0409 6B030000 		.4byte	0x36b
 918 040d 30       		.byte	0x30
 919 040e 06       		.uleb128 0x6
 920 040f FD020000 		.4byte	.LASF62
 921 0413 08       		.byte	0x8
 922 0414 95       		.byte	0x95
 923 0415 6B030000 		.4byte	0x36b
 924 0419 34       		.byte	0x34
 925 041a 06       		.uleb128 0x6
 926 041b 89010000 		.4byte	.LASF63
 927 041f 08       		.byte	0x8
 928 0420 96       		.byte	0x96
 929 0421 6B030000 		.4byte	0x36b
 930 0425 38       		.byte	0x38
 931 0426 06       		.uleb128 0x6
 932 0427 49040000 		.4byte	.LASF64
 933 042b 08       		.byte	0x8
 934 042c 97       		.byte	0x97
 935 042d 6B030000 		.4byte	0x36b
 936 0431 3C       		.byte	0x3c
 937 0432 07       		.uleb128 0x7
 938 0433 50465200 		.ascii	"PFR\000"
 939 0437 08       		.byte	0x8
 940 0438 98       		.byte	0x98
 941 0439 AC040000 		.4byte	0x4ac
 942 043d 40       		.byte	0x40
 943 043e 07       		.uleb128 0x7
 944 043f 44465200 		.ascii	"DFR\000"
 945 0443 08       		.byte	0x8
 946 0444 99       		.byte	0x99
 947 0445 6B030000 		.4byte	0x36b
 948 0449 48       		.byte	0x48
 949 044a 07       		.uleb128 0x7
 950 044b 41445200 		.ascii	"ADR\000"
 951 044f 08       		.byte	0x8
 952 0450 9A       		.byte	0x9a
 953 0451 6B030000 		.4byte	0x36b
 954 0455 4C       		.byte	0x4c
 955 0456 06       		.uleb128 0x6
 956 0457 D2040000 		.4byte	.LASF65
 957 045b 08       		.byte	0x8
 958 045c 9B       		.byte	0x9b
 959 045d C1040000 		.4byte	0x4c1
 960 0461 50       		.byte	0x50
 961 0462 07       		.uleb128 0x7
ARM GAS  /tmp/cc7SW5zJ.s 			page 18


 962 0463 53415200 		.ascii	"SAR\000"
 963 0467 08       		.byte	0x8
 964 0468 9C       		.byte	0x9c
 965 0469 D6040000 		.4byte	0x4d6
 966 046d 60       		.byte	0x60
 967 046e 06       		.uleb128 0x6
 968 046f 4E040000 		.4byte	.LASF66
 969 0473 08       		.byte	0x8
 970 0474 9D       		.byte	0x9d
 971 0475 DB040000 		.4byte	0x4db
 972 0479 74       		.byte	0x74
 973 047a 06       		.uleb128 0x6
 974 047b 16050000 		.4byte	.LASF67
 975 047f 08       		.byte	0x8
 976 0480 9E       		.byte	0x9e
 977 0481 6B030000 		.4byte	0x36b
 978 0485 88       		.byte	0x88
 979 0486 00       		.byte	0
 980 0487 0E       		.uleb128 0xe
 981 0488 6B030000 		.4byte	0x36b
 982 048c 97040000 		.4byte	0x497
 983 0490 0F       		.uleb128 0xf
 984 0491 7B030000 		.4byte	0x37b
 985 0495 02       		.byte	0x2
 986 0496 00       		.byte	0
 987 0497 0D       		.uleb128 0xd
 988 0498 87040000 		.4byte	0x487
 989 049c 0E       		.uleb128 0xe
 990 049d 6B030000 		.4byte	0x36b
 991 04a1 AC040000 		.4byte	0x4ac
 992 04a5 0F       		.uleb128 0xf
 993 04a6 7B030000 		.4byte	0x37b
 994 04aa 01       		.byte	0x1
 995 04ab 00       		.byte	0
 996 04ac 0D       		.uleb128 0xd
 997 04ad 9C040000 		.4byte	0x49c
 998 04b1 0E       		.uleb128 0xe
 999 04b2 6B030000 		.4byte	0x36b
 1000 04b6 C1040000 		.4byte	0x4c1
 1001 04ba 0F       		.uleb128 0xf
 1002 04bb 7B030000 		.4byte	0x37b
 1003 04bf 03       		.byte	0x3
 1004 04c0 00       		.byte	0
 1005 04c1 0D       		.uleb128 0xd
 1006 04c2 B1040000 		.4byte	0x4b1
 1007 04c6 0E       		.uleb128 0xe
 1008 04c7 6B030000 		.4byte	0x36b
 1009 04cb D6040000 		.4byte	0x4d6
 1010 04cf 0F       		.uleb128 0xf
 1011 04d0 7B030000 		.4byte	0x37b
 1012 04d4 04       		.byte	0x4
 1013 04d5 00       		.byte	0
 1014 04d6 0D       		.uleb128 0xd
 1015 04d7 C6040000 		.4byte	0x4c6
 1016 04db 0D       		.uleb128 0xd
 1017 04dc C6040000 		.4byte	0x4c6
 1018 04e0 04       		.uleb128 0x4
ARM GAS  /tmp/cc7SW5zJ.s 			page 19


 1019 04e1 20000000 		.4byte	.LASF68
 1020 04e5 08       		.byte	0x8
 1021 04e6 9F       		.byte	0x9f
 1022 04e7 82030000 		.4byte	0x382
 1023 04eb 0D       		.uleb128 0xd
 1024 04ec 01010000 		.4byte	0x101
 1025 04f0 08       		.uleb128 0x8
 1026 04f1 1C       		.byte	0x1c
 1027 04f2 09       		.byte	0x9
 1028 04f3 5E       		.byte	0x5e
 1029 04f4 41050000 		.4byte	0x541
 1030 04f8 06       		.uleb128 0x6
 1031 04f9 41040000 		.4byte	.LASF69
 1032 04fd 09       		.byte	0x9
 1033 04fe 5F       		.byte	0x5f
 1034 04ff 23020000 		.4byte	0x223
 1035 0503 00       		.byte	0
 1036 0504 06       		.uleb128 0x6
 1037 0505 09040000 		.4byte	.LASF70
 1038 0509 09       		.byte	0x9
 1039 050a 60       		.byte	0x60
 1040 050b E0000000 		.4byte	0xe0
 1041 050f 08       		.byte	0x8
 1042 0510 06       		.uleb128 0x6
 1043 0511 6C030000 		.4byte	.LASF71
 1044 0515 09       		.byte	0x9
 1045 0516 62       		.byte	0x62
 1046 0517 4A030000 		.4byte	0x34a
 1047 051b 0C       		.byte	0xc
 1048 051c 06       		.uleb128 0x6
 1049 051d F5020000 		.4byte	.LASF72
 1050 0521 09       		.byte	0x9
 1051 0522 65       		.byte	0x65
 1052 0523 1D020000 		.4byte	0x21d
 1053 0527 10       		.byte	0x10
 1054 0528 06       		.uleb128 0x6
 1055 0529 89030000 		.4byte	.LASF73
 1056 052d 09       		.byte	0x9
 1057 052e 66       		.byte	0x66
 1058 052f 1D020000 		.4byte	0x21d
 1059 0533 14       		.byte	0x14
 1060 0534 06       		.uleb128 0x6
 1061 0535 7F030000 		.4byte	.LASF74
 1062 0539 09       		.byte	0x9
 1063 053a 69       		.byte	0x69
 1064 053b 1D020000 		.4byte	0x21d
 1065 053f 18       		.byte	0x18
 1066 0540 00       		.byte	0
 1067 0541 04       		.uleb128 0x4
 1068 0542 C8040000 		.4byte	.LASF75
 1069 0546 09       		.byte	0x9
 1070 0547 6B       		.byte	0x6b
 1071 0548 F0040000 		.4byte	0x4f0
 1072 054c 05       		.uleb128 0x5
 1073 054d 36030000 		.4byte	.LASF76
 1074 0551 10       		.byte	0x10
 1075 0552 0A       		.byte	0xa
ARM GAS  /tmp/cc7SW5zJ.s 			page 20


 1076 0553 2C       		.byte	0x2c
 1077 0554 7D050000 		.4byte	0x57d
 1078 0558 06       		.uleb128 0x6
 1079 0559 47010000 		.4byte	.LASF77
 1080 055d 0A       		.byte	0xa
 1081 055e 2D       		.byte	0x2d
 1082 055f 23020000 		.4byte	0x223
 1083 0563 00       		.byte	0
 1084 0564 06       		.uleb128 0x6
 1085 0565 21050000 		.4byte	.LASF78
 1086 0569 0A       		.byte	0xa
 1087 056a 2F       		.byte	0x2f
 1088 056b 1D020000 		.4byte	0x21d
 1089 056f 08       		.byte	0x8
 1090 0570 06       		.uleb128 0x6
 1091 0571 63040000 		.4byte	.LASF79
 1092 0575 0A       		.byte	0xa
 1093 0576 31       		.byte	0x31
 1094 0577 7D050000 		.4byte	0x57d
 1095 057b 0C       		.byte	0xc
 1096 057c 00       		.byte	0
 1097 057d 09       		.uleb128 0x9
 1098 057e 04       		.byte	0x4
 1099 057f 4C050000 		.4byte	0x54c
 1100 0583 04       		.uleb128 0x4
 1101 0584 36030000 		.4byte	.LASF76
 1102 0588 0A       		.byte	0xa
 1103 0589 33       		.byte	0x33
 1104 058a 4C050000 		.4byte	0x54c
 1105 058e 10       		.uleb128 0x10
 1106 058f 04       		.byte	0x4
 1107 0590 06       		.byte	0x6
 1108 0591 96       		.byte	0x96
 1109 0592 C3050000 		.4byte	0x5c3
 1110 0596 11       		.uleb128 0x11
 1111 0597 06000000 		.4byte	.LASF80
 1112 059b 06       		.byte	0x6
 1113 059c 9D       		.byte	0x9d
 1114 059d EB000000 		.4byte	0xeb
 1115 05a1 11       		.uleb128 0x11
 1116 05a2 FD000000 		.4byte	.LASF81
 1117 05a6 06       		.byte	0x6
 1118 05a7 A4       		.byte	0xa4
 1119 05a8 EB000000 		.4byte	0xeb
 1120 05ac 11       		.uleb128 0x11
 1121 05ad FD040000 		.4byte	.LASF82
 1122 05b1 06       		.byte	0x6
 1123 05b2 AB       		.byte	0xab
 1124 05b3 59020000 		.4byte	0x259
 1125 05b7 11       		.uleb128 0x11
 1126 05b8 10040000 		.4byte	.LASF83
 1127 05bc 06       		.byte	0x6
 1128 05bd B2       		.byte	0xb2
 1129 05be F6000000 		.4byte	0xf6
 1130 05c2 00       		.byte	0
 1131 05c3 09       		.uleb128 0x9
 1132 05c4 04       		.byte	0x4
ARM GAS  /tmp/cc7SW5zJ.s 			page 21


 1133 05c5 C9050000 		.4byte	0x5c9
 1134 05c9 12       		.uleb128 0x12
 1135 05ca CE050000 		.4byte	0x5ce
 1136 05ce 03       		.uleb128 0x3
 1137 05cf 01       		.byte	0x1
 1138 05d0 08       		.byte	0x8
 1139 05d1 56040000 		.4byte	.LASF84
 1140 05d5 09       		.uleb128 0x9
 1141 05d6 04       		.byte	0x4
 1142 05d7 5B020000 		.4byte	0x25b
 1143 05db 09       		.uleb128 0x9
 1144 05dc 04       		.byte	0x4
 1145 05dd 83050000 		.4byte	0x583
 1146 05e1 13       		.uleb128 0x13
 1147 05e2 3A020000 		.4byte	.LASF85
 1148 05e6 01       		.byte	0x1
 1149 05e7 CF       		.byte	0xcf
 1150 05e8 00000000 		.4byte	.LFB6
 1151 05ec 0E000000 		.4byte	.LFE6-.LFB6
 1152 05f0 01       		.uleb128 0x1
 1153 05f1 9C       		.byte	0x9c
 1154 05f2 12060000 		.4byte	0x612
 1155 05f6 14       		.uleb128 0x14
 1156 05f7 04000000 		.4byte	.LVL0
 1157 05fb B5070000 		.4byte	0x7b5
 1158 05ff 14       		.uleb128 0x14
 1159 0600 08000000 		.4byte	.LVL1
 1160 0604 BC070000 		.4byte	0x7bc
 1161 0608 14       		.uleb128 0x14
 1162 0609 0C000000 		.4byte	.LVL2
 1163 060d C3070000 		.4byte	0x7c3
 1164 0611 00       		.byte	0
 1165 0612 13       		.uleb128 0x13
 1166 0613 58010000 		.4byte	.LASF86
 1167 0617 01       		.byte	0x1
 1168 0618 41       		.byte	0x41
 1169 0619 00000000 		.4byte	.LFB1
 1170 061d 14000000 		.4byte	.LFE1-.LFB1
 1171 0621 01       		.uleb128 0x1
 1172 0622 9C       		.byte	0x9c
 1173 0623 37060000 		.4byte	0x637
 1174 0627 15       		.uleb128 0x15
 1175 0628 B2030000 		.4byte	.LASF89
 1176 062c 01       		.byte	0x1
 1177 062d 42       		.byte	0x42
 1178 062e 37060000 		.4byte	0x637
 1179 0632 00000000 		.4byte	.LLST0
 1180 0636 00       		.byte	0
 1181 0637 09       		.uleb128 0x9
 1182 0638 04       		.byte	0x4
 1183 0639 66020000 		.4byte	0x266
 1184 063d 13       		.uleb128 0x13
 1185 063e 04050000 		.4byte	.LASF87
 1186 0642 01       		.byte	0x1
 1187 0643 76       		.byte	0x76
 1188 0644 00000000 		.4byte	.LFB2
 1189 0648 34000000 		.4byte	.LFE2-.LFB2
ARM GAS  /tmp/cc7SW5zJ.s 			page 22


 1190 064c 01       		.uleb128 0x1
 1191 064d 9C       		.byte	0x9c
 1192 064e 99060000 		.4byte	0x699
 1193 0652 16       		.uleb128 0x16
 1194 0653 20000000 		.4byte	.LVL6
 1195 0657 CA070000 		.4byte	0x7ca
 1196 065b 6A060000 		.4byte	0x66a
 1197 065f 17       		.uleb128 0x17
 1198 0660 01       		.uleb128 0x1
 1199 0661 51       		.byte	0x51
 1200 0662 01       		.uleb128 0x1
 1201 0663 40       		.byte	0x40
 1202 0664 17       		.uleb128 0x17
 1203 0665 01       		.uleb128 0x1
 1204 0666 50       		.byte	0x50
 1205 0667 01       		.uleb128 0x1
 1206 0668 37       		.byte	0x37
 1207 0669 00       		.byte	0
 1208 066a 16       		.uleb128 0x16
 1209 066b 28000000 		.4byte	.LVL7
 1210 066f CA070000 		.4byte	0x7ca
 1211 0673 83060000 		.4byte	0x683
 1212 0677 17       		.uleb128 0x17
 1213 0678 01       		.uleb128 0x1
 1214 0679 51       		.byte	0x51
 1215 067a 02       		.uleb128 0x2
 1216 067b 08       		.byte	0x8
 1217 067c 20       		.byte	0x20
 1218 067d 17       		.uleb128 0x17
 1219 067e 01       		.uleb128 0x1
 1220 067f 50       		.byte	0x50
 1221 0680 01       		.uleb128 0x1
 1222 0681 3A       		.byte	0x3a
 1223 0682 00       		.byte	0
 1224 0683 18       		.uleb128 0x18
 1225 0684 34000000 		.4byte	.LVL8
 1226 0688 CA070000 		.4byte	0x7ca
 1227 068c 17       		.uleb128 0x17
 1228 068d 01       		.uleb128 0x1
 1229 068e 51       		.byte	0x51
 1230 068f 02       		.uleb128 0x2
 1231 0690 08       		.byte	0x8
 1232 0691 80       		.byte	0x80
 1233 0692 17       		.uleb128 0x17
 1234 0693 01       		.uleb128 0x1
 1235 0694 50       		.byte	0x50
 1236 0695 01       		.uleb128 0x1
 1237 0696 3B       		.byte	0x3b
 1238 0697 00       		.byte	0
 1239 0698 00       		.byte	0
 1240 0699 13       		.uleb128 0x13
 1241 069a D1010000 		.4byte	.LASF88
 1242 069e 01       		.byte	0x1
 1243 069f 86       		.byte	0x86
 1244 06a0 00000000 		.4byte	.LFB3
 1245 06a4 08000000 		.4byte	.LFE3-.LFB3
 1246 06a8 01       		.uleb128 0x1
ARM GAS  /tmp/cc7SW5zJ.s 			page 23


 1247 06a9 9C       		.byte	0x9c
 1248 06aa BC060000 		.4byte	0x6bc
 1249 06ae 19       		.uleb128 0x19
 1250 06af 746D7000 		.ascii	"tmp\000"
 1251 06b3 01       		.byte	0x1
 1252 06b4 87       		.byte	0x87
 1253 06b5 AD000000 		.4byte	0xad
 1254 06b9 01       		.uleb128 0x1
 1255 06ba 53       		.byte	0x53
 1256 06bb 00       		.byte	0
 1257 06bc 13       		.uleb128 0x13
 1258 06bd 89040000 		.4byte	.LASF90
 1259 06c1 01       		.byte	0x1
 1260 06c2 8B       		.byte	0x8b
 1261 06c3 00000000 		.4byte	.LFB4
 1262 06c7 08000000 		.4byte	.LFE4-.LFB4
 1263 06cb 01       		.uleb128 0x1
 1264 06cc 9C       		.byte	0x9c
 1265 06cd DF060000 		.4byte	0x6df
 1266 06d1 19       		.uleb128 0x19
 1267 06d2 746D7000 		.ascii	"tmp\000"
 1268 06d6 01       		.byte	0x1
 1269 06d7 8C       		.byte	0x8c
 1270 06d8 AD000000 		.4byte	0xad
 1271 06dc 01       		.uleb128 0x1
 1272 06dd 53       		.byte	0x53
 1273 06de 00       		.byte	0
 1274 06df 13       		.uleb128 0x13
 1275 06e0 03030000 		.4byte	.LASF91
 1276 06e4 01       		.byte	0x1
 1277 06e5 94       		.byte	0x94
 1278 06e6 00000000 		.4byte	.LFB5
 1279 06ea 5C000000 		.4byte	.LFE5-.LFB5
 1280 06ee 01       		.uleb128 0x1
 1281 06ef 9C       		.byte	0x9c
 1282 06f0 0E070000 		.4byte	0x70e
 1283 06f4 1A       		.uleb128 0x1a
 1284 06f5 14000000 		.4byte	.LBB2
 1285 06f9 40000000 		.4byte	.LBE2-.LBB2
 1286 06fd 15       		.uleb128 0x15
 1287 06fe B2030000 		.4byte	.LASF89
 1288 0702 01       		.byte	0x1
 1289 0703 98       		.byte	0x98
 1290 0704 37060000 		.4byte	0x637
 1291 0708 20000000 		.4byte	.LLST1
 1292 070c 00       		.byte	0
 1293 070d 00       		.byte	0
 1294 070e 13       		.uleb128 0x13
 1295 070f D8000000 		.4byte	.LASF92
 1296 0713 01       		.byte	0x1
 1297 0714 2F       		.byte	0x2f
 1298 0715 00000000 		.4byte	.LFB0
 1299 0719 26000000 		.4byte	.LFE0-.LFB0
 1300 071d 01       		.uleb128 0x1
 1301 071e 9C       		.byte	0x9c
 1302 071f 5A070000 		.4byte	0x75a
 1303 0723 14       		.uleb128 0x14
ARM GAS  /tmp/cc7SW5zJ.s 			page 24


 1304 0724 06000000 		.4byte	.LVL13
 1305 0728 E1070000 		.4byte	0x7e1
 1306 072c 14       		.uleb128 0x14
 1307 072d 0E000000 		.4byte	.LVL14
 1308 0731 E8070000 		.4byte	0x7e8
 1309 0735 14       		.uleb128 0x14
 1310 0736 12000000 		.4byte	.LVL15
 1311 073a EF070000 		.4byte	0x7ef
 1312 073e 14       		.uleb128 0x14
 1313 073f 16000000 		.4byte	.LVL16
 1314 0743 F6070000 		.4byte	0x7f6
 1315 0747 14       		.uleb128 0x14
 1316 0748 1E000000 		.4byte	.LVL17
 1317 074c FD070000 		.4byte	0x7fd
 1318 0750 1B       		.uleb128 0x1b
 1319 0751 26000000 		.4byte	.LVL18
 1320 0755 DF060000 		.4byte	0x6df
 1321 0759 00       		.byte	0
 1322 075a 13       		.uleb128 0x13
 1323 075b 16020000 		.4byte	.LASF93
 1324 075f 01       		.byte	0x1
 1325 0760 EC       		.byte	0xec
 1326 0761 00000000 		.4byte	.LFB7
 1327 0765 10000000 		.4byte	.LFE7-.LFB7
 1328 0769 01       		.uleb128 0x1
 1329 076a 9C       		.byte	0x9c
 1330 076b 8A070000 		.4byte	0x78a
 1331 076f 1C       		.uleb128 0x1c
 1332 0770 6E747000 		.ascii	"ntp\000"
 1333 0774 01       		.byte	0x1
 1334 0775 EC       		.byte	0xec
 1335 0776 1D020000 		.4byte	0x21d
 1336 077a 01       		.uleb128 0x1
 1337 077b 50       		.byte	0x50
 1338 077c 1C       		.uleb128 0x1c
 1339 077d 6F747000 		.ascii	"otp\000"
 1340 0781 01       		.byte	0x1
 1341 0782 EC       		.byte	0xec
 1342 0783 1D020000 		.4byte	0x21d
 1343 0787 01       		.uleb128 0x1
 1344 0788 51       		.byte	0x51
 1345 0789 00       		.byte	0
 1346 078a 1D       		.uleb128 0x1d
 1347 078b 6E010000 		.4byte	.LASF94
 1348 078f 01       		.byte	0x1
 1349 0790 0301     		.2byte	0x103
 1350 0792 00000000 		.4byte	.LFB8
 1351 0796 14000000 		.4byte	.LFE8-.LFB8
 1352 079a 01       		.uleb128 0x1
 1353 079b 9C       		.byte	0x9c
 1354 079c AA070000 		.4byte	0x7aa
 1355 07a0 14       		.uleb128 0x14
 1356 07a1 06000000 		.4byte	.LVL20
 1357 07a5 C3070000 		.4byte	0x7c3
 1358 07a9 00       		.byte	0
 1359 07aa 1E       		.uleb128 0x1e
 1360 07ab D7040000 		.4byte	.LASF106
ARM GAS  /tmp/cc7SW5zJ.s 			page 25


 1361 07af 09       		.byte	0x9
 1362 07b0 6F       		.byte	0x6f
 1363 07b1 41050000 		.4byte	0x541
 1364 07b5 1F       		.uleb128 0x1f
 1365 07b6 50030000 		.4byte	.LASF95
 1366 07ba 0B       		.byte	0xb
 1367 07bb E7       		.byte	0xe7
 1368 07bc 1F       		.uleb128 0x1f
 1369 07bd BF010000 		.4byte	.LASF96
 1370 07c1 09       		.byte	0x9
 1371 07c2 A8       		.byte	0xa8
 1372 07c3 1F       		.uleb128 0x1f
 1373 07c4 91030000 		.4byte	.LASF97
 1374 07c8 0B       		.byte	0xb
 1375 07c9 E8       		.byte	0xe8
 1376 07ca 20       		.uleb128 0x20
 1377 07cb 99010000 		.4byte	.LASF107
 1378 07cf 08       		.byte	0x8
 1379 07d0 2501     		.2byte	0x125
 1380 07d2 E1070000 		.4byte	0x7e1
 1381 07d6 21       		.uleb128 0x21
 1382 07d7 AD000000 		.4byte	0xad
 1383 07db 21       		.uleb128 0x21
 1384 07dc AD000000 		.4byte	0xad
 1385 07e0 00       		.byte	0
 1386 07e1 1F       		.uleb128 0x1f
 1387 07e2 DC010000 		.4byte	.LASF98
 1388 07e6 0B       		.byte	0xb
 1389 07e7 EB       		.byte	0xeb
 1390 07e8 1F       		.uleb128 0x1f
 1391 07e9 E5040000 		.4byte	.LASF99
 1392 07ed 0B       		.byte	0xb
 1393 07ee E9       		.byte	0xe9
 1394 07ef 1F       		.uleb128 0x1f
 1395 07f0 28000000 		.4byte	.LASF100
 1396 07f4 0C       		.byte	0xc
 1397 07f5 F7       		.byte	0xf7
 1398 07f6 1F       		.uleb128 0x1f
 1399 07f7 2D010000 		.4byte	.LASF101
 1400 07fb 0B       		.byte	0xb
 1401 07fc EA       		.byte	0xea
 1402 07fd 1F       		.uleb128 0x1f
 1403 07fe A2040000 		.4byte	.LASF102
 1404 0802 0B       		.byte	0xb
 1405 0803 EC       		.byte	0xec
 1406 0804 00       		.byte	0
 1407              		.section	.debug_abbrev,"",%progbits
 1408              	.Ldebug_abbrev0:
 1409 0000 01       		.uleb128 0x1
 1410 0001 11       		.uleb128 0x11
 1411 0002 01       		.byte	0x1
 1412 0003 25       		.uleb128 0x25
 1413 0004 0E       		.uleb128 0xe
 1414 0005 13       		.uleb128 0x13
 1415 0006 0B       		.uleb128 0xb
 1416 0007 03       		.uleb128 0x3
 1417 0008 0E       		.uleb128 0xe
ARM GAS  /tmp/cc7SW5zJ.s 			page 26


 1418 0009 1B       		.uleb128 0x1b
 1419 000a 0E       		.uleb128 0xe
 1420 000b 55       		.uleb128 0x55
 1421 000c 17       		.uleb128 0x17
 1422 000d 11       		.uleb128 0x11
 1423 000e 01       		.uleb128 0x1
 1424 000f 10       		.uleb128 0x10
 1425 0010 17       		.uleb128 0x17
 1426 0011 00       		.byte	0
 1427 0012 00       		.byte	0
 1428 0013 02       		.uleb128 0x2
 1429 0014 24       		.uleb128 0x24
 1430 0015 00       		.byte	0
 1431 0016 0B       		.uleb128 0xb
 1432 0017 0B       		.uleb128 0xb
 1433 0018 3E       		.uleb128 0x3e
 1434 0019 0B       		.uleb128 0xb
 1435 001a 03       		.uleb128 0x3
 1436 001b 08       		.uleb128 0x8
 1437 001c 00       		.byte	0
 1438 001d 00       		.byte	0
 1439 001e 03       		.uleb128 0x3
 1440 001f 24       		.uleb128 0x24
 1441 0020 00       		.byte	0
 1442 0021 0B       		.uleb128 0xb
 1443 0022 0B       		.uleb128 0xb
 1444 0023 3E       		.uleb128 0x3e
 1445 0024 0B       		.uleb128 0xb
 1446 0025 03       		.uleb128 0x3
 1447 0026 0E       		.uleb128 0xe
 1448 0027 00       		.byte	0
 1449 0028 00       		.byte	0
 1450 0029 04       		.uleb128 0x4
 1451 002a 16       		.uleb128 0x16
 1452 002b 00       		.byte	0
 1453 002c 03       		.uleb128 0x3
 1454 002d 0E       		.uleb128 0xe
 1455 002e 3A       		.uleb128 0x3a
 1456 002f 0B       		.uleb128 0xb
 1457 0030 3B       		.uleb128 0x3b
 1458 0031 0B       		.uleb128 0xb
 1459 0032 49       		.uleb128 0x49
 1460 0033 13       		.uleb128 0x13
 1461 0034 00       		.byte	0
 1462 0035 00       		.byte	0
 1463 0036 05       		.uleb128 0x5
 1464 0037 13       		.uleb128 0x13
 1465 0038 01       		.byte	0x1
 1466 0039 03       		.uleb128 0x3
 1467 003a 0E       		.uleb128 0xe
 1468 003b 0B       		.uleb128 0xb
 1469 003c 0B       		.uleb128 0xb
 1470 003d 3A       		.uleb128 0x3a
 1471 003e 0B       		.uleb128 0xb
 1472 003f 3B       		.uleb128 0x3b
 1473 0040 0B       		.uleb128 0xb
 1474 0041 01       		.uleb128 0x1
ARM GAS  /tmp/cc7SW5zJ.s 			page 27


 1475 0042 13       		.uleb128 0x13
 1476 0043 00       		.byte	0
 1477 0044 00       		.byte	0
 1478 0045 06       		.uleb128 0x6
 1479 0046 0D       		.uleb128 0xd
 1480 0047 00       		.byte	0
 1481 0048 03       		.uleb128 0x3
 1482 0049 0E       		.uleb128 0xe
 1483 004a 3A       		.uleb128 0x3a
 1484 004b 0B       		.uleb128 0xb
 1485 004c 3B       		.uleb128 0x3b
 1486 004d 0B       		.uleb128 0xb
 1487 004e 49       		.uleb128 0x49
 1488 004f 13       		.uleb128 0x13
 1489 0050 38       		.uleb128 0x38
 1490 0051 0B       		.uleb128 0xb
 1491 0052 00       		.byte	0
 1492 0053 00       		.byte	0
 1493 0054 07       		.uleb128 0x7
 1494 0055 0D       		.uleb128 0xd
 1495 0056 00       		.byte	0
 1496 0057 03       		.uleb128 0x3
 1497 0058 08       		.uleb128 0x8
 1498 0059 3A       		.uleb128 0x3a
 1499 005a 0B       		.uleb128 0xb
 1500 005b 3B       		.uleb128 0x3b
 1501 005c 0B       		.uleb128 0xb
 1502 005d 49       		.uleb128 0x49
 1503 005e 13       		.uleb128 0x13
 1504 005f 38       		.uleb128 0x38
 1505 0060 0B       		.uleb128 0xb
 1506 0061 00       		.byte	0
 1507 0062 00       		.byte	0
 1508 0063 08       		.uleb128 0x8
 1509 0064 13       		.uleb128 0x13
 1510 0065 01       		.byte	0x1
 1511 0066 0B       		.uleb128 0xb
 1512 0067 0B       		.uleb128 0xb
 1513 0068 3A       		.uleb128 0x3a
 1514 0069 0B       		.uleb128 0xb
 1515 006a 3B       		.uleb128 0x3b
 1516 006b 0B       		.uleb128 0xb
 1517 006c 01       		.uleb128 0x1
 1518 006d 13       		.uleb128 0x13
 1519 006e 00       		.byte	0
 1520 006f 00       		.byte	0
 1521 0070 09       		.uleb128 0x9
 1522 0071 0F       		.uleb128 0xf
 1523 0072 00       		.byte	0
 1524 0073 0B       		.uleb128 0xb
 1525 0074 0B       		.uleb128 0xb
 1526 0075 49       		.uleb128 0x49
 1527 0076 13       		.uleb128 0x13
 1528 0077 00       		.byte	0
 1529 0078 00       		.byte	0
 1530 0079 0A       		.uleb128 0xa
 1531 007a 0F       		.uleb128 0xf
ARM GAS  /tmp/cc7SW5zJ.s 			page 28


 1532 007b 00       		.byte	0
 1533 007c 0B       		.uleb128 0xb
 1534 007d 0B       		.uleb128 0xb
 1535 007e 00       		.byte	0
 1536 007f 00       		.byte	0
 1537 0080 0B       		.uleb128 0xb
 1538 0081 13       		.uleb128 0x13
 1539 0082 01       		.byte	0x1
 1540 0083 03       		.uleb128 0x3
 1541 0084 0E       		.uleb128 0xe
 1542 0085 0B       		.uleb128 0xb
 1543 0086 0B       		.uleb128 0xb
 1544 0087 3A       		.uleb128 0x3a
 1545 0088 0B       		.uleb128 0xb
 1546 0089 3B       		.uleb128 0x3b
 1547 008a 05       		.uleb128 0x5
 1548 008b 01       		.uleb128 0x1
 1549 008c 13       		.uleb128 0x13
 1550 008d 00       		.byte	0
 1551 008e 00       		.byte	0
 1552 008f 0C       		.uleb128 0xc
 1553 0090 0D       		.uleb128 0xd
 1554 0091 00       		.byte	0
 1555 0092 03       		.uleb128 0x3
 1556 0093 08       		.uleb128 0x8
 1557 0094 3A       		.uleb128 0x3a
 1558 0095 0B       		.uleb128 0xb
 1559 0096 3B       		.uleb128 0x3b
 1560 0097 05       		.uleb128 0x5
 1561 0098 49       		.uleb128 0x49
 1562 0099 13       		.uleb128 0x13
 1563 009a 38       		.uleb128 0x38
 1564 009b 0B       		.uleb128 0xb
 1565 009c 00       		.byte	0
 1566 009d 00       		.byte	0
 1567 009e 0D       		.uleb128 0xd
 1568 009f 35       		.uleb128 0x35
 1569 00a0 00       		.byte	0
 1570 00a1 49       		.uleb128 0x49
 1571 00a2 13       		.uleb128 0x13
 1572 00a3 00       		.byte	0
 1573 00a4 00       		.byte	0
 1574 00a5 0E       		.uleb128 0xe
 1575 00a6 01       		.uleb128 0x1
 1576 00a7 01       		.byte	0x1
 1577 00a8 49       		.uleb128 0x49
 1578 00a9 13       		.uleb128 0x13
 1579 00aa 01       		.uleb128 0x1
 1580 00ab 13       		.uleb128 0x13
 1581 00ac 00       		.byte	0
 1582 00ad 00       		.byte	0
 1583 00ae 0F       		.uleb128 0xf
 1584 00af 21       		.uleb128 0x21
 1585 00b0 00       		.byte	0
 1586 00b1 49       		.uleb128 0x49
 1587 00b2 13       		.uleb128 0x13
 1588 00b3 2F       		.uleb128 0x2f
ARM GAS  /tmp/cc7SW5zJ.s 			page 29


 1589 00b4 0B       		.uleb128 0xb
 1590 00b5 00       		.byte	0
 1591 00b6 00       		.byte	0
 1592 00b7 10       		.uleb128 0x10
 1593 00b8 17       		.uleb128 0x17
 1594 00b9 01       		.byte	0x1
 1595 00ba 0B       		.uleb128 0xb
 1596 00bb 0B       		.uleb128 0xb
 1597 00bc 3A       		.uleb128 0x3a
 1598 00bd 0B       		.uleb128 0xb
 1599 00be 3B       		.uleb128 0x3b
 1600 00bf 0B       		.uleb128 0xb
 1601 00c0 01       		.uleb128 0x1
 1602 00c1 13       		.uleb128 0x13
 1603 00c2 00       		.byte	0
 1604 00c3 00       		.byte	0
 1605 00c4 11       		.uleb128 0x11
 1606 00c5 0D       		.uleb128 0xd
 1607 00c6 00       		.byte	0
 1608 00c7 03       		.uleb128 0x3
 1609 00c8 0E       		.uleb128 0xe
 1610 00c9 3A       		.uleb128 0x3a
 1611 00ca 0B       		.uleb128 0xb
 1612 00cb 3B       		.uleb128 0x3b
 1613 00cc 0B       		.uleb128 0xb
 1614 00cd 49       		.uleb128 0x49
 1615 00ce 13       		.uleb128 0x13
 1616 00cf 00       		.byte	0
 1617 00d0 00       		.byte	0
 1618 00d1 12       		.uleb128 0x12
 1619 00d2 26       		.uleb128 0x26
 1620 00d3 00       		.byte	0
 1621 00d4 49       		.uleb128 0x49
 1622 00d5 13       		.uleb128 0x13
 1623 00d6 00       		.byte	0
 1624 00d7 00       		.byte	0
 1625 00d8 13       		.uleb128 0x13
 1626 00d9 2E       		.uleb128 0x2e
 1627 00da 01       		.byte	0x1
 1628 00db 3F       		.uleb128 0x3f
 1629 00dc 19       		.uleb128 0x19
 1630 00dd 03       		.uleb128 0x3
 1631 00de 0E       		.uleb128 0xe
 1632 00df 3A       		.uleb128 0x3a
 1633 00e0 0B       		.uleb128 0xb
 1634 00e1 3B       		.uleb128 0x3b
 1635 00e2 0B       		.uleb128 0xb
 1636 00e3 27       		.uleb128 0x27
 1637 00e4 19       		.uleb128 0x19
 1638 00e5 11       		.uleb128 0x11
 1639 00e6 01       		.uleb128 0x1
 1640 00e7 12       		.uleb128 0x12
 1641 00e8 06       		.uleb128 0x6
 1642 00e9 40       		.uleb128 0x40
 1643 00ea 18       		.uleb128 0x18
 1644 00eb 9742     		.uleb128 0x2117
 1645 00ed 19       		.uleb128 0x19
ARM GAS  /tmp/cc7SW5zJ.s 			page 30


 1646 00ee 01       		.uleb128 0x1
 1647 00ef 13       		.uleb128 0x13
 1648 00f0 00       		.byte	0
 1649 00f1 00       		.byte	0
 1650 00f2 14       		.uleb128 0x14
 1651 00f3 898201   		.uleb128 0x4109
 1652 00f6 00       		.byte	0
 1653 00f7 11       		.uleb128 0x11
 1654 00f8 01       		.uleb128 0x1
 1655 00f9 31       		.uleb128 0x31
 1656 00fa 13       		.uleb128 0x13
 1657 00fb 00       		.byte	0
 1658 00fc 00       		.byte	0
 1659 00fd 15       		.uleb128 0x15
 1660 00fe 34       		.uleb128 0x34
 1661 00ff 00       		.byte	0
 1662 0100 03       		.uleb128 0x3
 1663 0101 0E       		.uleb128 0xe
 1664 0102 3A       		.uleb128 0x3a
 1665 0103 0B       		.uleb128 0xb
 1666 0104 3B       		.uleb128 0x3b
 1667 0105 0B       		.uleb128 0xb
 1668 0106 49       		.uleb128 0x49
 1669 0107 13       		.uleb128 0x13
 1670 0108 02       		.uleb128 0x2
 1671 0109 17       		.uleb128 0x17
 1672 010a 00       		.byte	0
 1673 010b 00       		.byte	0
 1674 010c 16       		.uleb128 0x16
 1675 010d 898201   		.uleb128 0x4109
 1676 0110 01       		.byte	0x1
 1677 0111 11       		.uleb128 0x11
 1678 0112 01       		.uleb128 0x1
 1679 0113 31       		.uleb128 0x31
 1680 0114 13       		.uleb128 0x13
 1681 0115 01       		.uleb128 0x1
 1682 0116 13       		.uleb128 0x13
 1683 0117 00       		.byte	0
 1684 0118 00       		.byte	0
 1685 0119 17       		.uleb128 0x17
 1686 011a 8A8201   		.uleb128 0x410a
 1687 011d 00       		.byte	0
 1688 011e 02       		.uleb128 0x2
 1689 011f 18       		.uleb128 0x18
 1690 0120 9142     		.uleb128 0x2111
 1691 0122 18       		.uleb128 0x18
 1692 0123 00       		.byte	0
 1693 0124 00       		.byte	0
 1694 0125 18       		.uleb128 0x18
 1695 0126 898201   		.uleb128 0x4109
 1696 0129 01       		.byte	0x1
 1697 012a 11       		.uleb128 0x11
 1698 012b 01       		.uleb128 0x1
 1699 012c 9542     		.uleb128 0x2115
 1700 012e 19       		.uleb128 0x19
 1701 012f 31       		.uleb128 0x31
 1702 0130 13       		.uleb128 0x13
ARM GAS  /tmp/cc7SW5zJ.s 			page 31


 1703 0131 00       		.byte	0
 1704 0132 00       		.byte	0
 1705 0133 19       		.uleb128 0x19
 1706 0134 34       		.uleb128 0x34
 1707 0135 00       		.byte	0
 1708 0136 03       		.uleb128 0x3
 1709 0137 08       		.uleb128 0x8
 1710 0138 3A       		.uleb128 0x3a
 1711 0139 0B       		.uleb128 0xb
 1712 013a 3B       		.uleb128 0x3b
 1713 013b 0B       		.uleb128 0xb
 1714 013c 49       		.uleb128 0x49
 1715 013d 13       		.uleb128 0x13
 1716 013e 02       		.uleb128 0x2
 1717 013f 18       		.uleb128 0x18
 1718 0140 00       		.byte	0
 1719 0141 00       		.byte	0
 1720 0142 1A       		.uleb128 0x1a
 1721 0143 0B       		.uleb128 0xb
 1722 0144 01       		.byte	0x1
 1723 0145 11       		.uleb128 0x11
 1724 0146 01       		.uleb128 0x1
 1725 0147 12       		.uleb128 0x12
 1726 0148 06       		.uleb128 0x6
 1727 0149 00       		.byte	0
 1728 014a 00       		.byte	0
 1729 014b 1B       		.uleb128 0x1b
 1730 014c 898201   		.uleb128 0x4109
 1731 014f 00       		.byte	0
 1732 0150 11       		.uleb128 0x11
 1733 0151 01       		.uleb128 0x1
 1734 0152 9542     		.uleb128 0x2115
 1735 0154 19       		.uleb128 0x19
 1736 0155 31       		.uleb128 0x31
 1737 0156 13       		.uleb128 0x13
 1738 0157 00       		.byte	0
 1739 0158 00       		.byte	0
 1740 0159 1C       		.uleb128 0x1c
 1741 015a 05       		.uleb128 0x5
 1742 015b 00       		.byte	0
 1743 015c 03       		.uleb128 0x3
 1744 015d 08       		.uleb128 0x8
 1745 015e 3A       		.uleb128 0x3a
 1746 015f 0B       		.uleb128 0xb
 1747 0160 3B       		.uleb128 0x3b
 1748 0161 0B       		.uleb128 0xb
 1749 0162 49       		.uleb128 0x49
 1750 0163 13       		.uleb128 0x13
 1751 0164 02       		.uleb128 0x2
 1752 0165 18       		.uleb128 0x18
 1753 0166 00       		.byte	0
 1754 0167 00       		.byte	0
 1755 0168 1D       		.uleb128 0x1d
 1756 0169 2E       		.uleb128 0x2e
 1757 016a 01       		.byte	0x1
 1758 016b 3F       		.uleb128 0x3f
 1759 016c 19       		.uleb128 0x19
ARM GAS  /tmp/cc7SW5zJ.s 			page 32


 1760 016d 03       		.uleb128 0x3
 1761 016e 0E       		.uleb128 0xe
 1762 016f 3A       		.uleb128 0x3a
 1763 0170 0B       		.uleb128 0xb
 1764 0171 3B       		.uleb128 0x3b
 1765 0172 05       		.uleb128 0x5
 1766 0173 27       		.uleb128 0x27
 1767 0174 19       		.uleb128 0x19
 1768 0175 11       		.uleb128 0x11
 1769 0176 01       		.uleb128 0x1
 1770 0177 12       		.uleb128 0x12
 1771 0178 06       		.uleb128 0x6
 1772 0179 40       		.uleb128 0x40
 1773 017a 18       		.uleb128 0x18
 1774 017b 9742     		.uleb128 0x2117
 1775 017d 19       		.uleb128 0x19
 1776 017e 01       		.uleb128 0x1
 1777 017f 13       		.uleb128 0x13
 1778 0180 00       		.byte	0
 1779 0181 00       		.byte	0
 1780 0182 1E       		.uleb128 0x1e
 1781 0183 34       		.uleb128 0x34
 1782 0184 00       		.byte	0
 1783 0185 03       		.uleb128 0x3
 1784 0186 0E       		.uleb128 0xe
 1785 0187 3A       		.uleb128 0x3a
 1786 0188 0B       		.uleb128 0xb
 1787 0189 3B       		.uleb128 0x3b
 1788 018a 0B       		.uleb128 0xb
 1789 018b 49       		.uleb128 0x49
 1790 018c 13       		.uleb128 0x13
 1791 018d 3F       		.uleb128 0x3f
 1792 018e 19       		.uleb128 0x19
 1793 018f 3C       		.uleb128 0x3c
 1794 0190 19       		.uleb128 0x19
 1795 0191 00       		.byte	0
 1796 0192 00       		.byte	0
 1797 0193 1F       		.uleb128 0x1f
 1798 0194 2E       		.uleb128 0x2e
 1799 0195 00       		.byte	0
 1800 0196 3F       		.uleb128 0x3f
 1801 0197 19       		.uleb128 0x19
 1802 0198 03       		.uleb128 0x3
 1803 0199 0E       		.uleb128 0xe
 1804 019a 3A       		.uleb128 0x3a
 1805 019b 0B       		.uleb128 0xb
 1806 019c 3B       		.uleb128 0x3b
 1807 019d 0B       		.uleb128 0xb
 1808 019e 27       		.uleb128 0x27
 1809 019f 19       		.uleb128 0x19
 1810 01a0 3C       		.uleb128 0x3c
 1811 01a1 19       		.uleb128 0x19
 1812 01a2 00       		.byte	0
 1813 01a3 00       		.byte	0
 1814 01a4 20       		.uleb128 0x20
 1815 01a5 2E       		.uleb128 0x2e
 1816 01a6 01       		.byte	0x1
ARM GAS  /tmp/cc7SW5zJ.s 			page 33


 1817 01a7 3F       		.uleb128 0x3f
 1818 01a8 19       		.uleb128 0x19
 1819 01a9 03       		.uleb128 0x3
 1820 01aa 0E       		.uleb128 0xe
 1821 01ab 3A       		.uleb128 0x3a
 1822 01ac 0B       		.uleb128 0xb
 1823 01ad 3B       		.uleb128 0x3b
 1824 01ae 05       		.uleb128 0x5
 1825 01af 27       		.uleb128 0x27
 1826 01b0 19       		.uleb128 0x19
 1827 01b1 3C       		.uleb128 0x3c
 1828 01b2 19       		.uleb128 0x19
 1829 01b3 01       		.uleb128 0x1
 1830 01b4 13       		.uleb128 0x13
 1831 01b5 00       		.byte	0
 1832 01b6 00       		.byte	0
 1833 01b7 21       		.uleb128 0x21
 1834 01b8 05       		.uleb128 0x5
 1835 01b9 00       		.byte	0
 1836 01ba 49       		.uleb128 0x49
 1837 01bb 13       		.uleb128 0x13
 1838 01bc 00       		.byte	0
 1839 01bd 00       		.byte	0
 1840 01be 00       		.byte	0
 1841              		.section	.debug_loc,"",%progbits
 1842              	.Ldebug_loc0:
 1843              	.LLST0:
 1844 0000 06000000 		.4byte	.LVL3
 1845 0004 08000000 		.4byte	.LVL4
 1846 0008 0300     		.2byte	0x3
 1847 000a 73       		.byte	0x73
 1848 000b 20       		.sleb128 32
 1849 000c 9F       		.byte	0x9f
 1850 000d 08000000 		.4byte	.LVL4
 1851 0011 10000000 		.4byte	.LVL5
 1852 0015 0100     		.2byte	0x1
 1853 0017 53       		.byte	0x53
 1854 0018 00000000 		.4byte	0
 1855 001c 00000000 		.4byte	0
 1856              	.LLST1:
 1857 0020 18000000 		.4byte	.LVL9
 1858 0024 1C000000 		.4byte	.LVL10
 1859 0028 0300     		.2byte	0x3
 1860 002a 72       		.byte	0x72
 1861 002b 60       		.sleb128 -32
 1862 002c 9F       		.byte	0x9f
 1863 002d 1C000000 		.4byte	.LVL10
 1864 0031 24000000 		.4byte	.LVL11
 1865 0035 0100     		.2byte	0x1
 1866 0037 53       		.byte	0x53
 1867 0038 24000000 		.4byte	.LVL11
 1868 003c 54000000 		.4byte	.LVL12
 1869 0040 0300     		.2byte	0x3
 1870 0042 72       		.byte	0x72
 1871 0043 60       		.sleb128 -32
 1872 0044 9F       		.byte	0x9f
 1873 0045 00000000 		.4byte	0
ARM GAS  /tmp/cc7SW5zJ.s 			page 34


 1874 0049 00000000 		.4byte	0
 1875              		.section	.debug_aranges,"",%progbits
 1876 0000 5C000000 		.4byte	0x5c
 1877 0004 0200     		.2byte	0x2
 1878 0006 00000000 		.4byte	.Ldebug_info0
 1879 000a 04       		.byte	0x4
 1880 000b 00       		.byte	0
 1881 000c 0000     		.2byte	0
 1882 000e 0000     		.2byte	0
 1883 0010 00000000 		.4byte	.LFB6
 1884 0014 0E000000 		.4byte	.LFE6-.LFB6
 1885 0018 00000000 		.4byte	.LFB1
 1886 001c 14000000 		.4byte	.LFE1-.LFB1
 1887 0020 00000000 		.4byte	.LFB2
 1888 0024 34000000 		.4byte	.LFE2-.LFB2
 1889 0028 00000000 		.4byte	.LFB3
 1890 002c 08000000 		.4byte	.LFE3-.LFB3
 1891 0030 00000000 		.4byte	.LFB4
 1892 0034 08000000 		.4byte	.LFE4-.LFB4
 1893 0038 00000000 		.4byte	.LFB5
 1894 003c 5C000000 		.4byte	.LFE5-.LFB5
 1895 0040 00000000 		.4byte	.LFB0
 1896 0044 26000000 		.4byte	.LFE0-.LFB0
 1897 0048 00000000 		.4byte	.LFB7
 1898 004c 10000000 		.4byte	.LFE7-.LFB7
 1899 0050 00000000 		.4byte	.LFB8
 1900 0054 14000000 		.4byte	.LFE8-.LFB8
 1901 0058 00000000 		.4byte	0
 1902 005c 00000000 		.4byte	0
 1903              		.section	.debug_ranges,"",%progbits
 1904              	.Ldebug_ranges0:
 1905 0000 00000000 		.4byte	.LFB6
 1906 0004 0E000000 		.4byte	.LFE6
 1907 0008 00000000 		.4byte	.LFB1
 1908 000c 14000000 		.4byte	.LFE1
 1909 0010 00000000 		.4byte	.LFB2
 1910 0014 34000000 		.4byte	.LFE2
 1911 0018 00000000 		.4byte	.LFB3
 1912 001c 08000000 		.4byte	.LFE3
 1913 0020 00000000 		.4byte	.LFB4
 1914 0024 08000000 		.4byte	.LFE4
 1915 0028 00000000 		.4byte	.LFB5
 1916 002c 5C000000 		.4byte	.LFE5
 1917 0030 00000000 		.4byte	.LFB0
 1918 0034 26000000 		.4byte	.LFE0
 1919 0038 00000000 		.4byte	.LFB7
 1920 003c 10000000 		.4byte	.LFE7
 1921 0040 00000000 		.4byte	.LFB8
 1922 0044 14000000 		.4byte	.LFE8
 1923 0048 00000000 		.4byte	0
 1924 004c 00000000 		.4byte	0
 1925              		.section	.debug_line,"",%progbits
 1926              	.Ldebug_line0:
 1927 0000 1F020000 		.section	.debug_str,"MS",%progbits,1
 1927      02004B01 
 1927      00000201 
 1927      FB0E0D00 
ARM GAS  /tmp/cc7SW5zJ.s 			page 35


 1927      01010101 
 1928              	.LASF38:
 1929 0000 705F6D73 		.ascii	"p_msg\000"
 1929      6700
 1930              	.LASF80:
 1931 0006 7264796D 		.ascii	"rdymsg\000"
 1931      736700
 1932              	.LASF16:
 1933 000d 75696E74 		.ascii	"uint64_t\000"
 1933      36345F74 
 1933      00
 1934              	.LASF5:
 1935 0016 5F5F7569 		.ascii	"__uint8_t\000"
 1935      6E74385F 
 1935      7400
 1936              	.LASF68:
 1937 0020 434D785F 		.ascii	"CMx_SCB\000"
 1937      53434200 
 1938              	.LASF100:
 1939 0028 63685379 		.ascii	"chSysTimerHandlerI\000"
 1939      7354696D 
 1939      65724861 
 1939      6E646C65 
 1939      724900
 1940              	.LASF103:
 1941 003b 474E5520 		.ascii	"GNU C 4.8.2 -mcpu=cortex-m4 -mno-thumb-interwork -m"
 1941      4320342E 
 1941      382E3220 
 1941      2D6D6370 
 1941      753D636F 
 1942 006e 7468756D 		.ascii	"thumb -ggdb -O2 -fomit-frame-pointer -falign-functi"
 1942      62202D67 
 1942      67646220 
 1942      2D4F3220 
 1942      2D666F6D 
 1943 00a1 6F6E733D 		.ascii	"ons=16 -ffunction-sections -fdata-sections -fno-com"
 1943      3136202D 
 1943      6666756E 
 1943      6374696F 
 1943      6E2D7365 
 1944 00d4 6D6F6E00 		.ascii	"mon\000"
 1945              	.LASF92:
 1946 00d8 53797354 		.ascii	"SysTickVector\000"
 1946      69636B56 
 1946      6563746F 
 1946      7200
 1947              	.LASF12:
 1948 00e6 6C6F6E67 		.ascii	"long long unsigned int\000"
 1948      206C6F6E 
 1948      6720756E 
 1948      7369676E 
 1948      65642069 
 1949              	.LASF81:
 1950 00fd 65786974 		.ascii	"exitcode\000"
 1950      636F6465 
 1950      00
 1951              	.LASF53:
ARM GAS  /tmp/cc7SW5zJ.s 			page 36


 1952 0106 43505549 		.ascii	"CPUID\000"
 1952      4400
 1953              	.LASF27:
 1954 010c 705F7072 		.ascii	"p_prio\000"
 1954      696F00
 1955              	.LASF10:
 1956 0113 6C6F6E67 		.ascii	"long long int\000"
 1956      206C6F6E 
 1956      6720696E 
 1956      7400
 1957              	.LASF1:
 1958 0121 7369676E 		.ascii	"signed char\000"
 1958      65642063 
 1958      68617200 
 1959              	.LASF101:
 1960 012d 6462675F 		.ascii	"dbg_check_unlock_from_isr\000"
 1960      63686563 
 1960      6B5F756E 
 1960      6C6F636B 
 1960      5F66726F 
 1961              	.LASF77:
 1962 0147 6D5F7175 		.ascii	"m_queue\000"
 1962      65756500 
 1963              	.LASF7:
 1964 014f 6C6F6E67 		.ascii	"long int\000"
 1964      20696E74 
 1964      00
 1965              	.LASF86:
 1966 0158 53564361 		.ascii	"SVCallVector\000"
 1966      6C6C5665 
 1966      63746F72 
 1966      00
 1967              	.LASF19:
 1968 0165 74737461 		.ascii	"tstate_t\000"
 1968      74655F74 
 1968      00
 1969              	.LASF94:
 1970 016e 5F706F72 		.ascii	"_port_thread_start\000"
 1970      745F7468 
 1970      72656164 
 1970      5F737461 
 1970      727400
 1971              	.LASF29:
 1972 0181 705F6E65 		.ascii	"p_newer\000"
 1972      77657200 
 1973              	.LASF63:
 1974 0189 42464152 		.ascii	"BFAR\000"
 1974      00
 1975              	.LASF8:
 1976 018e 5F5F7569 		.ascii	"__uint32_t\000"
 1976      6E743332 
 1976      5F7400
 1977              	.LASF107:
 1978 0199 6E766963 		.ascii	"nvicSetSystemHandlerPriority\000"
 1978      53657453 
 1978      79737465 
 1978      6D48616E 
ARM GAS  /tmp/cc7SW5zJ.s 			page 37


 1978      646C6572 
 1979              	.LASF44:
 1980 01b6 72656761 		.ascii	"regarm_t\000"
 1980      726D5F74 
 1980      00
 1981              	.LASF96:
 1982 01bf 63685363 		.ascii	"chSchDoReschedule\000"
 1982      68446F52 
 1982      65736368 
 1982      6564756C 
 1982      6500
 1983              	.LASF88:
 1984 01d1 5F706F72 		.ascii	"_port_lock\000"
 1984      745F6C6F 
 1984      636B00
 1985              	.LASF98:
 1986 01dc 6462675F 		.ascii	"dbg_check_enter_isr\000"
 1986      63686563 
 1986      6B5F656E 
 1986      7465725F 
 1986      69737200 
 1987              	.LASF32:
 1988 01f0 705F7374 		.ascii	"p_stklimit\000"
 1988      6B6C696D 
 1988      697400
 1989              	.LASF0:
 1990 01fb 756E7369 		.ascii	"unsigned int\000"
 1990      676E6564 
 1990      20696E74 
 1990      00
 1991              	.LASF47:
 1992 0208 6C725F74 		.ascii	"lr_thd\000"
 1992      686400
 1993              	.LASF46:
 1994 020f 65787463 		.ascii	"extctx\000"
 1994      747800
 1995              	.LASF93:
 1996 0216 5F706F72 		.ascii	"_port_switch\000"
 1996      745F7377 
 1996      69746368 
 1996      00
 1997              	.LASF9:
 1998 0223 6C6F6E67 		.ascii	"long unsigned int\000"
 1998      20756E73 
 1998      69676E65 
 1998      6420696E 
 1998      7400
 1999              	.LASF55:
 2000 0235 56544F52 		.ascii	"VTOR\000"
 2000      00
 2001              	.LASF85:
 2002 023a 5F706F72 		.ascii	"_port_switch_from_isr\000"
 2002      745F7377 
 2002      69746368 
 2002      5F66726F 
 2002      6D5F6973 
 2003              	.LASF105:
ARM GAS  /tmp/cc7SW5zJ.s 			page 38


 2004 0250 2F686F6D 		.ascii	"/home/ece497/vbox-shared/mplayer/ChibiOS-RT-stable_"
 2004      652F6563 
 2004      65343937 
 2004      2F76626F 
 2004      782D7368 
 2005 0283 322E362E 		.ascii	"2.6.x/testhal/STM32F4xx/I2C\000"
 2005      782F7465 
 2005      73746861 
 2005      6C2F5354 
 2005      4D333246 
 2006              	.LASF50:
 2007 029f 636F6E74 		.ascii	"context\000"
 2007      65787400 
 2008              	.LASF4:
 2009 02a7 73686F72 		.ascii	"short unsigned int\000"
 2009      7420756E 
 2009      7369676E 
 2009      65642069 
 2009      6E7400
 2010              	.LASF54:
 2011 02ba 49435352 		.ascii	"ICSR\000"
 2011      00
 2012              	.LASF21:
 2013 02bf 6D73675F 		.ascii	"msg_t\000"
 2013      7400
 2014              	.LASF104:
 2015 02c5 2E2E2F2E 		.ascii	"../../../os/ports/GCC/ARMCMx/chcore_v7m.c\000"
 2015      2E2F2E2E 
 2015      2F6F732F 
 2015      706F7274 
 2015      732F4743 
 2016              	.LASF56:
 2017 02ef 41495243 		.ascii	"AIRCR\000"
 2017      5200
 2018              	.LASF72:
 2019 02f5 725F6E65 		.ascii	"r_newer\000"
 2019      77657200 
 2020              	.LASF62:
 2021 02fd 4D4D4641 		.ascii	"MMFAR\000"
 2021      5200
 2022              	.LASF91:
 2023 0303 5F706F72 		.ascii	"_port_irq_epilogue\000"
 2023      745F6972 
 2023      715F6570 
 2023      696C6F67 
 2023      756500
 2024              	.LASF18:
 2025 0316 746D6F64 		.ascii	"tmode_t\000"
 2025      655F7400 
 2026              	.LASF43:
 2027 031e 54687265 		.ascii	"ThreadsList\000"
 2027      6164734C 
 2027      69737400 
 2028              	.LASF22:
 2029 032a 6576656E 		.ascii	"eventmask_t\000"
 2029      746D6173 
 2029      6B5F7400 
ARM GAS  /tmp/cc7SW5zJ.s 			page 39


 2030              	.LASF76:
 2031 0336 4D757465 		.ascii	"Mutex\000"
 2031      7800
 2032              	.LASF45:
 2033 033c 73746B61 		.ascii	"stkalign_t\000"
 2033      6C69676E 
 2033      5F7400
 2034              	.LASF52:
 2035 0347 73697A65 		.ascii	"sizetype\000"
 2035      74797065 
 2035      00
 2036              	.LASF95:
 2037 0350 6462675F 		.ascii	"dbg_check_lock\000"
 2037      63686563 
 2037      6B5F6C6F 
 2037      636B00
 2038              	.LASF59:
 2039 035f 43465352 		.ascii	"CFSR\000"
 2039      00
 2040              	.LASF30:
 2041 0364 705F6F6C 		.ascii	"p_older\000"
 2041      64657200 
 2042              	.LASF71:
 2043 036c 725F6374 		.ascii	"r_ctx\000"
 2043      7800
 2044              	.LASF42:
 2045 0372 54687265 		.ascii	"ThreadsQueue\000"
 2045      61647351 
 2045      75657565 
 2045      00
 2046              	.LASF74:
 2047 037f 725F6375 		.ascii	"r_current\000"
 2047      7272656E 
 2047      7400
 2048              	.LASF73:
 2049 0389 725F6F6C 		.ascii	"r_older\000"
 2049      64657200 
 2050              	.LASF97:
 2051 0391 6462675F 		.ascii	"dbg_check_unlock\000"
 2051      63686563 
 2051      6B5F756E 
 2051      6C6F636B 
 2051      00
 2052              	.LASF11:
 2053 03a2 5F5F7569 		.ascii	"__uint64_t\000"
 2053      6E743634 
 2053      5F7400
 2054              	.LASF61:
 2055 03ad 44465352 		.ascii	"DFSR\000"
 2055      00
 2056              	.LASF89:
 2057 03b2 63747870 		.ascii	"ctxp\000"
 2057      00
 2058              	.LASF26:
 2059 03b7 705F7072 		.ascii	"p_prev\000"
 2059      657600
 2060              	.LASF20:
ARM GAS  /tmp/cc7SW5zJ.s 			page 40


 2061 03be 74707269 		.ascii	"tprio_t\000"
 2061      6F5F7400 
 2062              	.LASF17:
 2063 03c6 5F426F6F 		.ascii	"_Bool\000"
 2063      6C00
 2064              	.LASF14:
 2065 03cc 696E7433 		.ascii	"int32_t\000"
 2065      325F7400 
 2066              	.LASF2:
 2067 03d4 756E7369 		.ascii	"unsigned char\000"
 2067      676E6564 
 2067      20636861 
 2067      7200
 2068              	.LASF58:
 2069 03e2 53484353 		.ascii	"SHCSR\000"
 2069      5200
 2070              	.LASF40:
 2071 03e8 705F6D74 		.ascii	"p_mtxlist\000"
 2071      786C6973 
 2071      7400
 2072              	.LASF3:
 2073 03f2 73686F72 		.ascii	"short int\000"
 2073      7420696E 
 2073      7400
 2074              	.LASF33:
 2075 03fc 705F7374 		.ascii	"p_state\000"
 2075      61746500 
 2076              	.LASF48:
 2077 0404 78707372 		.ascii	"xpsr\000"
 2077      00
 2078              	.LASF70:
 2079 0409 725F7072 		.ascii	"r_prio\000"
 2079      696F00
 2080              	.LASF83:
 2081 0410 65776D61 		.ascii	"ewmask\000"
 2081      736B00
 2082              	.LASF25:
 2083 0417 705F6E65 		.ascii	"p_next\000"
 2083      787400
 2084              	.LASF34:
 2085 041e 705F666C 		.ascii	"p_flags\000"
 2085      61677300 
 2086              	.LASF24:
 2087 0426 54687265 		.ascii	"Thread\000"
 2087      616400
 2088              	.LASF39:
 2089 042d 705F6570 		.ascii	"p_epending\000"
 2089      656E6469 
 2089      6E6700
 2090              	.LASF15:
 2091 0438 75696E74 		.ascii	"uint32_t\000"
 2091      33325F74 
 2091      00
 2092              	.LASF69:
 2093 0441 725F7175 		.ascii	"r_queue\000"
 2093      65756500 
 2094              	.LASF64:
ARM GAS  /tmp/cc7SW5zJ.s 			page 41


 2095 0449 41465352 		.ascii	"AFSR\000"
 2095      00
 2096              	.LASF66:
 2097 044e 756E7573 		.ascii	"unused1\000"
 2097      65643100 
 2098              	.LASF84:
 2099 0456 63686172 		.ascii	"char\000"
 2099      00
 2100              	.LASF51:
 2101 045b 494F5245 		.ascii	"IOREG32\000"
 2101      47333200 
 2102              	.LASF79:
 2103 0463 6D5F6E65 		.ascii	"m_next\000"
 2103      787400
 2104              	.LASF23:
 2105 046a 73797374 		.ascii	"systime_t\000"
 2105      696D655F 
 2105      7400
 2106              	.LASF41:
 2107 0474 705F7265 		.ascii	"p_realprio\000"
 2107      616C7072 
 2107      696F00
 2108              	.LASF6:
 2109 047f 5F5F696E 		.ascii	"__int32_t\000"
 2109      7433325F 
 2109      7400
 2110              	.LASF90:
 2111 0489 5F706F72 		.ascii	"_port_unlock\000"
 2111      745F756E 
 2111      6C6F636B 
 2111      00
 2112              	.LASF35:
 2113 0496 705F7469 		.ascii	"p_time\000"
 2113      6D6500
 2114              	.LASF57:
 2115 049d 53485052 		.ascii	"SHPR\000"
 2115      00
 2116              	.LASF102:
 2117 04a2 6462675F 		.ascii	"dbg_check_leave_isr\000"
 2117      63686563 
 2117      6B5F6C65 
 2117      6176655F 
 2117      69737200 
 2118              	.LASF49:
 2119 04b6 696E7463 		.ascii	"intctx\000"
 2119      747800
 2120              	.LASF37:
 2121 04bd 705F6D73 		.ascii	"p_msgqueue\000"
 2121      67717565 
 2121      756500
 2122              	.LASF75:
 2123 04c8 52656164 		.ascii	"ReadyList\000"
 2123      794C6973 
 2123      7400
 2124              	.LASF65:
 2125 04d2 4D4D4652 		.ascii	"MMFR\000"
 2125      00
ARM GAS  /tmp/cc7SW5zJ.s 			page 42


 2126              	.LASF106:
 2127 04d7 726C6973 		.ascii	"rlist\000"
 2127      7400
 2128              	.LASF13:
 2129 04dd 75696E74 		.ascii	"uint8_t\000"
 2129      385F7400 
 2130              	.LASF99:
 2131 04e5 6462675F 		.ascii	"dbg_check_lock_from_isr\000"
 2131      63686563 
 2131      6B5F6C6F 
 2131      636B5F66 
 2131      726F6D5F 
 2132              	.LASF82:
 2133 04fd 77746F62 		.ascii	"wtobjp\000"
 2133      6A7000
 2134              	.LASF87:
 2135 0504 5F706F72 		.ascii	"_port_init\000"
 2135      745F696E 
 2135      697400
 2136              	.LASF31:
 2137 050f 705F6E61 		.ascii	"p_name\000"
 2137      6D6500
 2138              	.LASF67:
 2139 0516 43504143 		.ascii	"CPACR\000"
 2139      5200
 2140              	.LASF60:
 2141 051c 48465352 		.ascii	"HFSR\000"
 2141      00
 2142              	.LASF78:
 2143 0521 6D5F6F77 		.ascii	"m_owner\000"
 2143      6E657200 
 2144              	.LASF28:
 2145 0529 705F6374 		.ascii	"p_ctx\000"
 2145      7800
 2146              	.LASF36:
 2147 052f 705F7761 		.ascii	"p_waiting\000"
 2147      6974696E 
 2147      6700
 2148              		.ident	"GCC: (Arch Repository) 4.8.2"
ARM GAS  /tmp/cc7SW5zJ.s 			page 43


DEFINED SYMBOLS
                            *ABS*:0000000000000000 chcore_v7m.c
     /tmp/cc7SW5zJ.s:19     .text._port_switch_from_isr:0000000000000000 $t
     /tmp/cc7SW5zJ.s:25     .text._port_switch_from_isr:0000000000000000 _port_switch_from_isr
     /tmp/cc7SW5zJ.s:44     .text._port_switch_from_isr:000000000000000c _port_exit_from_isr
     /tmp/cc7SW5zJ.s:56     .text.SVCallVector:0000000000000000 $t
     /tmp/cc7SW5zJ.s:62     .text.SVCallVector:0000000000000000 SVCallVector
     /tmp/cc7SW5zJ.s:176    .text._port_unlock:0000000000000000 _port_unlock
     /tmp/cc7SW5zJ.s:95     .text._port_init:0000000000000000 $t
     /tmp/cc7SW5zJ.s:101    .text._port_init:0000000000000000 _port_init
     /tmp/cc7SW5zJ.s:145    .text._port_lock:0000000000000000 $t
     /tmp/cc7SW5zJ.s:151    .text._port_lock:0000000000000000 _port_lock
     /tmp/cc7SW5zJ.s:170    .text._port_unlock:0000000000000000 $t
     /tmp/cc7SW5zJ.s:195    .text._port_irq_epilogue:0000000000000000 $t
     /tmp/cc7SW5zJ.s:201    .text._port_irq_epilogue:0000000000000000 _port_irq_epilogue
     /tmp/cc7SW5zJ.s:275    .text.SysTickVector:0000000000000000 $t
     /tmp/cc7SW5zJ.s:281    .text.SysTickVector:0000000000000000 SysTickVector
     /tmp/cc7SW5zJ.s:323    .text._port_switch:0000000000000000 $t
     /tmp/cc7SW5zJ.s:329    .text._port_switch:0000000000000000 _port_switch
     /tmp/cc7SW5zJ.s:356    .text._port_thread_start:0000000000000000 $t
     /tmp/cc7SW5zJ.s:362    .text._port_thread_start:0000000000000000 _port_thread_start
                     .debug_frame:0000000000000010 $d

UNDEFINED SYMBOLS
dbg_check_lock
chSchDoReschedule
dbg_check_unlock
nvicSetSystemHandlerPriority
rlist
dbg_check_enter_isr
dbg_check_lock_from_isr
chSysTimerHandlerI
dbg_check_unlock_from_isr
dbg_check_leave_isr
chThdExit
