ARM GAS  /tmp/cchm2wPZ.s 			page 1


   1              		.syntax unified
   2              		.cpu cortex-m4
   3              		.fpu softvfp
   4              		.eabi_attribute 20, 1
   5              		.eabi_attribute 21, 1
   6              		.eabi_attribute 23, 3
   7              		.eabi_attribute 24, 1
   8              		.eabi_attribute 25, 1
   9              		.eabi_attribute 26, 1
  10              		.eabi_attribute 30, 2
  11              		.eabi_attribute 34, 1
  12              		.eabi_attribute 18, 4
  13              		.thumb
  14              		.file	"chdebug.c"
  15              		.text
  16              	.Ltext0:
  17              		.cfi_sections	.debug_frame
  18              		.section	.text.dbg_check_disable,"ax",%progbits
  19              		.align	2
  20              		.p2align 4,,15
  21              		.global	dbg_check_disable
  22              		.thumb
  23              		.thumb_func
  24              		.type	dbg_check_disable, %function
  25              	dbg_check_disable:
  26              	.LFB0:
  27              		.file 1 "../../../os/kernel/src/chdebug.c"
  28              		.loc 1 81 0
  29              		.cfi_startproc
  30              		@ args = 0, pretend = 0, frame = 0
  31              		@ frame_needed = 0, uses_anonymous_args = 0
  32              		@ link register save eliminated.
  33              		.loc 1 83 0
  34 0000 40F20003 		movw	r3, #:lower16:.LANCHOR0
  35 0004 C0F20003 		movt	r3, #:upper16:.LANCHOR0
  36 0008 1B68     		ldr	r3, [r3]
  37 000a 2BB9     		cbnz	r3, .L2
  38              		.loc 1 83 0 is_stmt 0 discriminator 1
  39 000c 40F20003 		movw	r3, #:lower16:.LANCHOR1
  40 0010 C0F20003 		movt	r3, #:upper16:.LANCHOR1
  41 0014 1B68     		ldr	r3, [r3]
  42 0016 53B1     		cbz	r3, .L1
  43              	.L2:
  44              	.LVL0:
  45              	.LBB24:
  46              	.LBB25:
  47              		.loc 1 273 0 is_stmt 1
  48 0018 40F20003 		movw	r3, #:lower16:.LANCHOR2
  49 001c C0F20003 		movt	r3, #:upper16:.LANCHOR2
  50 0020 40F20002 		movw	r2, #:lower16:.LC0
  51 0024 C0F20002 		movt	r2, #:upper16:.LC0
  52 0028 1A60     		str	r2, [r3]
  53              		.loc 1 274 0
  54 002a FFF7FEBF 		b	port_halt
  55              	.LVL1:
  56              	.L1:
  57 002e 7047     		bx	lr
ARM GAS  /tmp/cchm2wPZ.s 			page 2


  58              	.LBE25:
  59              	.LBE24:
  60              		.cfi_endproc
  61              	.LFE0:
  62              		.size	dbg_check_disable, .-dbg_check_disable
  63              		.section	.text.dbg_check_suspend,"ax",%progbits
  64              		.align	2
  65              		.p2align 4,,15
  66              		.global	dbg_check_suspend
  67              		.thumb
  68              		.thumb_func
  69              		.type	dbg_check_suspend, %function
  70              	dbg_check_suspend:
  71              	.LFB1:
  72              		.loc 1 92 0
  73              		.cfi_startproc
  74              		@ args = 0, pretend = 0, frame = 0
  75              		@ frame_needed = 0, uses_anonymous_args = 0
  76              		@ link register save eliminated.
  77              		.loc 1 94 0
  78 0000 40F20003 		movw	r3, #:lower16:.LANCHOR0
  79 0004 C0F20003 		movt	r3, #:upper16:.LANCHOR0
  80 0008 1B68     		ldr	r3, [r3]
  81 000a 2BB9     		cbnz	r3, .L6
  82              		.loc 1 94 0 is_stmt 0 discriminator 1
  83 000c 40F20003 		movw	r3, #:lower16:.LANCHOR1
  84 0010 C0F20003 		movt	r3, #:upper16:.LANCHOR1
  85 0014 1B68     		ldr	r3, [r3]
  86 0016 53B1     		cbz	r3, .L5
  87              	.L6:
  88              	.LVL2:
  89              	.LBB26:
  90              	.LBB27:
  91              		.loc 1 273 0 is_stmt 1
  92 0018 40F20003 		movw	r3, #:lower16:.LANCHOR2
  93 001c C0F20003 		movt	r3, #:upper16:.LANCHOR2
  94 0020 40F20002 		movw	r2, #:lower16:.LC1
  95 0024 C0F20002 		movt	r2, #:upper16:.LC1
  96 0028 1A60     		str	r2, [r3]
  97              		.loc 1 274 0
  98 002a FFF7FEBF 		b	port_halt
  99              	.LVL3:
 100              	.L5:
 101 002e 7047     		bx	lr
 102              	.LBE27:
 103              	.LBE26:
 104              		.cfi_endproc
 105              	.LFE1:
 106              		.size	dbg_check_suspend, .-dbg_check_suspend
 107              		.section	.text.dbg_check_enable,"ax",%progbits
 108              		.align	2
 109              		.p2align 4,,15
 110              		.global	dbg_check_enable
 111              		.thumb
 112              		.thumb_func
 113              		.type	dbg_check_enable, %function
 114              	dbg_check_enable:
ARM GAS  /tmp/cchm2wPZ.s 			page 3


 115              	.LFB2:
 116              		.loc 1 103 0
 117              		.cfi_startproc
 118              		@ args = 0, pretend = 0, frame = 0
 119              		@ frame_needed = 0, uses_anonymous_args = 0
 120              		@ link register save eliminated.
 121              		.loc 1 105 0
 122 0000 40F20003 		movw	r3, #:lower16:.LANCHOR0
 123 0004 C0F20003 		movt	r3, #:upper16:.LANCHOR0
 124 0008 1B68     		ldr	r3, [r3]
 125 000a 2BB9     		cbnz	r3, .L9
 126              		.loc 1 105 0 is_stmt 0 discriminator 1
 127 000c 40F20003 		movw	r3, #:lower16:.LANCHOR1
 128 0010 C0F20003 		movt	r3, #:upper16:.LANCHOR1
 129 0014 1B68     		ldr	r3, [r3]
 130 0016 53B1     		cbz	r3, .L8
 131              	.L9:
 132              	.LVL4:
 133              	.LBB28:
 134              	.LBB29:
 135              		.loc 1 273 0 is_stmt 1
 136 0018 40F20003 		movw	r3, #:lower16:.LANCHOR2
 137 001c C0F20003 		movt	r3, #:upper16:.LANCHOR2
 138 0020 40F20002 		movw	r2, #:lower16:.LC2
 139 0024 C0F20002 		movt	r2, #:upper16:.LC2
 140 0028 1A60     		str	r2, [r3]
 141              		.loc 1 274 0
 142 002a FFF7FEBF 		b	port_halt
 143              	.LVL5:
 144              	.L8:
 145 002e 7047     		bx	lr
 146              	.LBE29:
 147              	.LBE28:
 148              		.cfi_endproc
 149              	.LFE2:
 150              		.size	dbg_check_enable, .-dbg_check_enable
 151              		.section	.text.dbg_check_lock,"ax",%progbits
 152              		.align	2
 153              		.p2align 4,,15
 154              		.global	dbg_check_lock
 155              		.thumb
 156              		.thumb_func
 157              		.type	dbg_check_lock, %function
 158              	dbg_check_lock:
 159              	.LFB3:
 160              		.loc 1 114 0
 161              		.cfi_startproc
 162              		@ args = 0, pretend = 0, frame = 0
 163              		@ frame_needed = 0, uses_anonymous_args = 0
 164              		.loc 1 116 0
 165 0000 40F20003 		movw	r3, #:lower16:.LANCHOR0
 166 0004 C0F20003 		movt	r3, #:upper16:.LANCHOR0
 167              		.loc 1 114 0
 168 0008 10B5     		push	{r4, lr}
 169              		.cfi_def_cfa_offset 8
 170              		.cfi_offset 4, -8
 171              		.cfi_offset 14, -4
ARM GAS  /tmp/cchm2wPZ.s 			page 4


 172              		.loc 1 116 0
 173 000a 1B68     		ldr	r3, [r3]
 174 000c 40F20004 		movw	r4, #:lower16:.LANCHOR1
 175 0010 C0F20004 		movt	r4, #:upper16:.LANCHOR1
 176 0014 0BB9     		cbnz	r3, .L12
 177              		.loc 1 116 0 is_stmt 0 discriminator 1
 178 0016 2368     		ldr	r3, [r4]
 179 0018 53B1     		cbz	r3, .L13
 180              	.L12:
 181              	.LVL6:
 182              	.LBB30:
 183              	.LBB31:
 184              		.loc 1 273 0 is_stmt 1
 185 001a 40F20003 		movw	r3, #:lower16:.LANCHOR2
 186 001e C0F20003 		movt	r3, #:upper16:.LANCHOR2
 187 0022 40F20002 		movw	r2, #:lower16:.LC3
 188 0026 C0F20002 		movt	r2, #:upper16:.LC3
 189 002a 1A60     		str	r2, [r3]
 190              		.loc 1 274 0
 191 002c FFF7FEFF 		bl	port_halt
 192              	.LVL7:
 193              	.L13:
 194              	.LBE31:
 195              	.LBE30:
 196              		.loc 1 118 0
 197 0030 0123     		movs	r3, #1
 198 0032 2360     		str	r3, [r4]
 199 0034 10BD     		pop	{r4, pc}
 200              		.cfi_endproc
 201              	.LFE3:
 202              		.size	dbg_check_lock, .-dbg_check_lock
 203 0036 00BFAFF3 		.section	.text.dbg_check_unlock,"ax",%progbits
 203      0080AFF3 
 203      0080
 204              		.align	2
 205              		.p2align 4,,15
 206              		.global	dbg_check_unlock
 207              		.thumb
 208              		.thumb_func
 209              		.type	dbg_check_unlock, %function
 210              	dbg_check_unlock:
 211              	.LFB4:
 212              		.loc 1 126 0
 213              		.cfi_startproc
 214              		@ args = 0, pretend = 0, frame = 0
 215              		@ frame_needed = 0, uses_anonymous_args = 0
 216              		.loc 1 128 0
 217 0000 40F20003 		movw	r3, #:lower16:.LANCHOR0
 218 0004 C0F20003 		movt	r3, #:upper16:.LANCHOR0
 219              		.loc 1 126 0
 220 0008 10B5     		push	{r4, lr}
 221              		.cfi_def_cfa_offset 8
 222              		.cfi_offset 4, -8
 223              		.cfi_offset 14, -4
 224              		.loc 1 128 0
 225 000a 1B68     		ldr	r3, [r3]
 226 000c 40F20004 		movw	r4, #:lower16:.LANCHOR1
ARM GAS  /tmp/cchm2wPZ.s 			page 5


 227 0010 C0F20004 		movt	r4, #:upper16:.LANCHOR1
 228 0014 2BB9     		cbnz	r3, .L20
 229              		.loc 1 128 0 is_stmt 0 discriminator 1
 230 0016 2368     		ldr	r3, [r4]
 231 0018 002B     		cmp	r3, #0
 232 001a 02DD     		ble	.L20
 233              		.loc 1 130 0 is_stmt 1
 234 001c 0023     		movs	r3, #0
 235 001e 2360     		str	r3, [r4]
 236 0020 10BD     		pop	{r4, pc}
 237              	.L20:
 238              	.LVL8:
 239              	.LBB32:
 240              	.LBB33:
 241              		.loc 1 273 0
 242 0022 40F20003 		movw	r3, #:lower16:.LANCHOR2
 243 0026 C0F20003 		movt	r3, #:upper16:.LANCHOR2
 244 002a 40F20002 		movw	r2, #:lower16:.LC4
 245 002e C0F20002 		movt	r2, #:upper16:.LC4
 246 0032 1A60     		str	r2, [r3]
 247              		.loc 1 274 0
 248 0034 FFF7FEFF 		bl	port_halt
 249              	.LVL9:
 250              	.LBE33:
 251              	.LBE32:
 252              		.loc 1 130 0
 253 0038 0023     		movs	r3, #0
 254 003a 2360     		str	r3, [r4]
 255 003c 10BD     		pop	{r4, pc}
 256              		.cfi_endproc
 257              	.LFE4:
 258              		.size	dbg_check_unlock, .-dbg_check_unlock
 259 003e 00BF     		.section	.text.dbg_check_lock_from_isr,"ax",%progbits
 260              		.align	2
 261              		.p2align 4,,15
 262              		.global	dbg_check_lock_from_isr
 263              		.thumb
 264              		.thumb_func
 265              		.type	dbg_check_lock_from_isr, %function
 266              	dbg_check_lock_from_isr:
 267              	.LFB5:
 268              		.loc 1 138 0
 269              		.cfi_startproc
 270              		@ args = 0, pretend = 0, frame = 0
 271              		@ frame_needed = 0, uses_anonymous_args = 0
 272              		.loc 1 140 0
 273 0000 40F20003 		movw	r3, #:lower16:.LANCHOR0
 274 0004 C0F20003 		movt	r3, #:upper16:.LANCHOR0
 275              		.loc 1 138 0
 276 0008 10B5     		push	{r4, lr}
 277              		.cfi_def_cfa_offset 8
 278              		.cfi_offset 4, -8
 279              		.cfi_offset 14, -4
 280              		.loc 1 140 0
 281 000a 1B68     		ldr	r3, [r3]
 282 000c 40F20004 		movw	r4, #:lower16:.LANCHOR1
 283 0010 002B     		cmp	r3, #0
ARM GAS  /tmp/cchm2wPZ.s 			page 6


 284 0012 C0F20004 		movt	r4, #:upper16:.LANCHOR1
 285 0016 01DD     		ble	.L25
 286              		.loc 1 140 0 is_stmt 0 discriminator 1
 287 0018 2368     		ldr	r3, [r4]
 288 001a 53B1     		cbz	r3, .L26
 289              	.L25:
 290              	.LVL10:
 291              	.LBB34:
 292              	.LBB35:
 293              		.loc 1 273 0 is_stmt 1
 294 001c 40F20003 		movw	r3, #:lower16:.LANCHOR2
 295 0020 C0F20003 		movt	r3, #:upper16:.LANCHOR2
 296 0024 40F20002 		movw	r2, #:lower16:.LC5
 297 0028 C0F20002 		movt	r2, #:upper16:.LC5
 298 002c 1A60     		str	r2, [r3]
 299              		.loc 1 274 0
 300 002e FFF7FEFF 		bl	port_halt
 301              	.LVL11:
 302              	.L26:
 303              	.LBE35:
 304              	.LBE34:
 305              		.loc 1 142 0
 306 0032 0123     		movs	r3, #1
 307 0034 2360     		str	r3, [r4]
 308 0036 10BD     		pop	{r4, pc}
 309              		.cfi_endproc
 310              	.LFE5:
 311              		.size	dbg_check_lock_from_isr, .-dbg_check_lock_from_isr
 312 0038 AFF30080 		.section	.text.dbg_check_unlock_from_isr,"ax",%progbits
 312      AFF30080 
 313              		.align	2
 314              		.p2align 4,,15
 315              		.global	dbg_check_unlock_from_isr
 316              		.thumb
 317              		.thumb_func
 318              		.type	dbg_check_unlock_from_isr, %function
 319              	dbg_check_unlock_from_isr:
 320              	.LFB6:
 321              		.loc 1 150 0
 322              		.cfi_startproc
 323              		@ args = 0, pretend = 0, frame = 0
 324              		@ frame_needed = 0, uses_anonymous_args = 0
 325              		.loc 1 152 0
 326 0000 40F20003 		movw	r3, #:lower16:.LANCHOR0
 327 0004 C0F20003 		movt	r3, #:upper16:.LANCHOR0
 328              		.loc 1 150 0
 329 0008 10B5     		push	{r4, lr}
 330              		.cfi_def_cfa_offset 8
 331              		.cfi_offset 4, -8
 332              		.cfi_offset 14, -4
 333              		.loc 1 152 0
 334 000a 1B68     		ldr	r3, [r3]
 335 000c 40F20004 		movw	r4, #:lower16:.LANCHOR1
 336 0010 002B     		cmp	r3, #0
 337 0012 C0F20004 		movt	r4, #:upper16:.LANCHOR1
 338 0016 05DD     		ble	.L33
 339              		.loc 1 152 0 is_stmt 0 discriminator 1
ARM GAS  /tmp/cchm2wPZ.s 			page 7


 340 0018 2368     		ldr	r3, [r4]
 341 001a 002B     		cmp	r3, #0
 342 001c 02DD     		ble	.L33
 343              		.loc 1 154 0 is_stmt 1
 344 001e 0023     		movs	r3, #0
 345 0020 2360     		str	r3, [r4]
 346 0022 10BD     		pop	{r4, pc}
 347              	.L33:
 348              	.LVL12:
 349              	.LBB36:
 350              	.LBB37:
 351              		.loc 1 273 0
 352 0024 40F20003 		movw	r3, #:lower16:.LANCHOR2
 353 0028 C0F20003 		movt	r3, #:upper16:.LANCHOR2
 354 002c 40F20002 		movw	r2, #:lower16:.LC6
 355 0030 C0F20002 		movt	r2, #:upper16:.LC6
 356 0034 1A60     		str	r2, [r3]
 357              		.loc 1 274 0
 358 0036 FFF7FEFF 		bl	port_halt
 359              	.LVL13:
 360              	.LBE37:
 361              	.LBE36:
 362              		.loc 1 154 0
 363 003a 0023     		movs	r3, #0
 364 003c 2360     		str	r3, [r4]
 365 003e 10BD     		pop	{r4, pc}
 366              		.cfi_endproc
 367              	.LFE6:
 368              		.size	dbg_check_unlock_from_isr, .-dbg_check_unlock_from_isr
 369              		.section	.text.dbg_check_enter_isr,"ax",%progbits
 370              		.align	2
 371              		.p2align 4,,15
 372              		.global	dbg_check_enter_isr
 373              		.thumb
 374              		.thumb_func
 375              		.type	dbg_check_enter_isr, %function
 376              	dbg_check_enter_isr:
 377              	.LFB7:
 378              		.loc 1 162 0
 379              		.cfi_startproc
 380              		@ args = 0, pretend = 0, frame = 0
 381              		@ frame_needed = 0, uses_anonymous_args = 0
 382 0000 10B5     		push	{r4, lr}
 383              		.cfi_def_cfa_offset 8
 384              		.cfi_offset 4, -8
 385              		.cfi_offset 14, -4
 386              		.loc 1 164 0
 387              	@ 164 "../../../os/kernel/src/chdebug.c" 1
 388 0002 FFF7FEFF 		bl      _port_lock
 389              	@ 0 "" 2
 390              		.loc 1 165 0
 391              		.thumb
 392 0006 40F20004 		movw	r4, #:lower16:.LANCHOR0
 393 000a C0F20004 		movt	r4, #:upper16:.LANCHOR0
 394 000e 2268     		ldr	r2, [r4]
 395 0010 002A     		cmp	r2, #0
 396 0012 05DB     		blt	.L38
ARM GAS  /tmp/cchm2wPZ.s 			page 8


 397              		.loc 1 165 0 is_stmt 0 discriminator 1
 398 0014 40F20003 		movw	r3, #:lower16:.LANCHOR1
 399 0018 C0F20003 		movt	r3, #:upper16:.LANCHOR1
 400 001c 1B68     		ldr	r3, [r3]
 401 001e 5BB1     		cbz	r3, .L39
 402              	.L38:
 403              	.LVL14:
 404              	.LBB38:
 405              	.LBB39:
 406              		.loc 1 273 0 is_stmt 1
 407 0020 40F20003 		movw	r3, #:lower16:.LANCHOR2
 408 0024 C0F20003 		movt	r3, #:upper16:.LANCHOR2
 409 0028 40F20002 		movw	r2, #:lower16:.LC7
 410 002c C0F20002 		movt	r2, #:upper16:.LC7
 411 0030 1A60     		str	r2, [r3]
 412              		.loc 1 274 0
 413 0032 FFF7FEFF 		bl	port_halt
 414              	.LVL15:
 415 0036 2268     		ldr	r2, [r4]
 416              	.LVL16:
 417              	.L39:
 418              	.LBE39:
 419              	.LBE38:
 420              		.loc 1 167 0
 421 0038 0132     		adds	r2, r2, #1
 422 003a 2260     		str	r2, [r4]
 423              		.loc 1 168 0
 424              	@ 168 "../../../os/kernel/src/chdebug.c" 1
 425 003c FFF7FEFF 		bl      _port_unlock
 426              	@ 0 "" 2
 427              		.thumb
 428 0040 10BD     		pop	{r4, pc}
 429              		.cfi_endproc
 430              	.LFE7:
 431              		.size	dbg_check_enter_isr, .-dbg_check_enter_isr
 432 0042 00BFAFF3 		.section	.text.dbg_check_leave_isr,"ax",%progbits
 432      0080AFF3 
 432      0080AFF3 
 432      0080
 433              		.align	2
 434              		.p2align 4,,15
 435              		.global	dbg_check_leave_isr
 436              		.thumb
 437              		.thumb_func
 438              		.type	dbg_check_leave_isr, %function
 439              	dbg_check_leave_isr:
 440              	.LFB8:
 441              		.loc 1 176 0
 442              		.cfi_startproc
 443              		@ args = 0, pretend = 0, frame = 0
 444              		@ frame_needed = 0, uses_anonymous_args = 0
 445 0000 10B5     		push	{r4, lr}
 446              		.cfi_def_cfa_offset 8
 447              		.cfi_offset 4, -8
 448              		.cfi_offset 14, -4
 449              		.loc 1 178 0
 450              	@ 178 "../../../os/kernel/src/chdebug.c" 1
ARM GAS  /tmp/cchm2wPZ.s 			page 9


 451 0002 FFF7FEFF 		bl      _port_lock
 452              	@ 0 "" 2
 453              		.loc 1 179 0
 454              		.thumb
 455 0006 40F20004 		movw	r4, #:lower16:.LANCHOR0
 456 000a C0F20004 		movt	r4, #:upper16:.LANCHOR0
 457 000e 2268     		ldr	r2, [r4]
 458 0010 002A     		cmp	r2, #0
 459 0012 05DD     		ble	.L42
 460              		.loc 1 179 0 is_stmt 0 discriminator 1
 461 0014 40F20003 		movw	r3, #:lower16:.LANCHOR1
 462 0018 C0F20003 		movt	r3, #:upper16:.LANCHOR1
 463 001c 1B68     		ldr	r3, [r3]
 464 001e 5BB1     		cbz	r3, .L43
 465              	.L42:
 466              	.LVL17:
 467              	.LBB40:
 468              	.LBB41:
 469              		.loc 1 273 0 is_stmt 1
 470 0020 40F20003 		movw	r3, #:lower16:.LANCHOR2
 471 0024 C0F20003 		movt	r3, #:upper16:.LANCHOR2
 472 0028 40F20002 		movw	r2, #:lower16:.LC8
 473 002c C0F20002 		movt	r2, #:upper16:.LC8
 474 0030 1A60     		str	r2, [r3]
 475              		.loc 1 274 0
 476 0032 FFF7FEFF 		bl	port_halt
 477              	.LVL18:
 478 0036 2268     		ldr	r2, [r4]
 479              	.LVL19:
 480              	.L43:
 481              	.LBE41:
 482              	.LBE40:
 483              		.loc 1 181 0
 484 0038 013A     		subs	r2, r2, #1
 485 003a 2260     		str	r2, [r4]
 486              		.loc 1 182 0
 487              	@ 182 "../../../os/kernel/src/chdebug.c" 1
 488 003c FFF7FEFF 		bl      _port_unlock
 489              	@ 0 "" 2
 490              		.thumb
 491 0040 10BD     		pop	{r4, pc}
 492              		.cfi_endproc
 493              	.LFE8:
 494              		.size	dbg_check_leave_isr, .-dbg_check_leave_isr
 495 0042 00BFAFF3 		.section	.text.chDbgCheckClassI,"ax",%progbits
 495      0080AFF3 
 495      0080AFF3 
 495      0080
 496              		.align	2
 497              		.p2align 4,,15
 498              		.global	chDbgCheckClassI
 499              		.thumb
 500              		.thumb_func
 501              		.type	chDbgCheckClassI, %function
 502              	chDbgCheckClassI:
 503              	.LFB9:
 504              		.loc 1 193 0
ARM GAS  /tmp/cchm2wPZ.s 			page 10


 505              		.cfi_startproc
 506              		@ args = 0, pretend = 0, frame = 0
 507              		@ frame_needed = 0, uses_anonymous_args = 0
 508              		@ link register save eliminated.
 509              		.loc 1 195 0
 510 0000 40F20003 		movw	r3, #:lower16:.LANCHOR0
 511 0004 C0F20003 		movt	r3, #:upper16:.LANCHOR0
 512 0008 1B68     		ldr	r3, [r3]
 513 000a 002B     		cmp	r3, #0
 514 000c 07DB     		blt	.L46
 515              		.loc 1 195 0 is_stmt 0 discriminator 1
 516 000e 40F20003 		movw	r3, #:lower16:.LANCHOR1
 517 0012 C0F20003 		movt	r3, #:upper16:.LANCHOR1
 518 0016 1B68     		ldr	r3, [r3]
 519 0018 002B     		cmp	r3, #0
 520 001a 00DD     		ble	.L46
 521 001c 7047     		bx	lr
 522              	.L46:
 523              	.LVL20:
 524              	.LBB42:
 525              	.LBB43:
 526              		.loc 1 273 0 is_stmt 1
 527 001e 40F20003 		movw	r3, #:lower16:.LANCHOR2
 528 0022 C0F20003 		movt	r3, #:upper16:.LANCHOR2
 529 0026 40F20002 		movw	r2, #:lower16:.LC9
 530 002a C0F20002 		movt	r2, #:upper16:.LC9
 531 002e 1A60     		str	r2, [r3]
 532              		.loc 1 274 0
 533 0030 FFF7FEBF 		b	port_halt
 534              	.LVL21:
 535              	.LBE43:
 536              	.LBE42:
 537              		.cfi_endproc
 538              	.LFE9:
 539              		.size	chDbgCheckClassI, .-chDbgCheckClassI
 540 0034 AFF30080 		.section	.text.chDbgCheckClassS,"ax",%progbits
 540      AFF30080 
 540      AFF30080 
 541              		.align	2
 542              		.p2align 4,,15
 543              		.global	chDbgCheckClassS
 544              		.thumb
 545              		.thumb_func
 546              		.type	chDbgCheckClassS, %function
 547              	chDbgCheckClassS:
 548              	.LFB10:
 549              		.loc 1 207 0
 550              		.cfi_startproc
 551              		@ args = 0, pretend = 0, frame = 0
 552              		@ frame_needed = 0, uses_anonymous_args = 0
 553              		@ link register save eliminated.
 554              		.loc 1 209 0
 555 0000 40F20003 		movw	r3, #:lower16:.LANCHOR0
 556 0004 C0F20003 		movt	r3, #:upper16:.LANCHOR0
 557 0008 1B68     		ldr	r3, [r3]
 558 000a 3BB9     		cbnz	r3, .L49
 559              		.loc 1 209 0 is_stmt 0 discriminator 1
ARM GAS  /tmp/cchm2wPZ.s 			page 11


 560 000c 40F20003 		movw	r3, #:lower16:.LANCHOR1
 561 0010 C0F20003 		movt	r3, #:upper16:.LANCHOR1
 562 0014 1B68     		ldr	r3, [r3]
 563 0016 002B     		cmp	r3, #0
 564 0018 00DD     		ble	.L49
 565 001a 7047     		bx	lr
 566              	.L49:
 567              	.LVL22:
 568              	.LBB44:
 569              	.LBB45:
 570              		.loc 1 273 0 is_stmt 1
 571 001c 40F20003 		movw	r3, #:lower16:.LANCHOR2
 572 0020 C0F20003 		movt	r3, #:upper16:.LANCHOR2
 573 0024 40F20002 		movw	r2, #:lower16:.LC10
 574 0028 C0F20002 		movt	r2, #:upper16:.LC10
 575 002c 1A60     		str	r2, [r3]
 576              		.loc 1 274 0
 577 002e FFF7FEBF 		b	port_halt
 578              	.LVL23:
 579              	.LBE45:
 580              	.LBE44:
 581              		.cfi_endproc
 582              	.LFE10:
 583              		.size	chDbgCheckClassS, .-chDbgCheckClassS
 584 0032 00BFAFF3 		.section	.text._trace_init,"ax",%progbits
 584      0080AFF3 
 584      0080AFF3 
 584      0080
 585              		.align	2
 586              		.p2align 4,,15
 587              		.global	_trace_init
 588              		.thumb
 589              		.thumb_func
 590              		.type	_trace_init, %function
 591              	_trace_init:
 592              	.LFB11:
 593              		.loc 1 229 0
 594              		.cfi_startproc
 595              		@ args = 0, pretend = 0, frame = 0
 596              		@ frame_needed = 0, uses_anonymous_args = 0
 597              		@ link register save eliminated.
 598              		.loc 1 231 0
 599 0000 40F20003 		movw	r3, #:lower16:.LANCHOR3
 600 0004 C0F20003 		movt	r3, #:upper16:.LANCHOR3
 601 0008 1A46     		mov	r2, r3
 602 000a 4021     		movs	r1, #64
 603 000c 42F8081B 		str	r1, [r2], #8
 604              		.loc 1 232 0
 605 0010 5A60     		str	r2, [r3, #4]
 606 0012 7047     		bx	lr
 607              		.cfi_endproc
 608              	.LFE11:
 609              		.size	_trace_init, .-_trace_init
 610 0014 AFF30080 		.section	.text.dbg_trace,"ax",%progbits
 610      AFF30080 
 610      AFF30080 
 611              		.align	2
ARM GAS  /tmp/cchm2wPZ.s 			page 12


 612              		.p2align 4,,15
 613              		.global	dbg_trace
 614              		.thumb
 615              		.thumb_func
 616              		.type	dbg_trace, %function
 617              	dbg_trace:
 618              	.LFB12:
 619              		.loc 1 242 0
 620              		.cfi_startproc
 621              		@ args = 0, pretend = 0, frame = 0
 622              		@ frame_needed = 0, uses_anonymous_args = 0
 623              		@ link register save eliminated.
 624              	.LVL24:
 625 0000 10B4     		push	{r4}
 626              		.cfi_def_cfa_offset 4
 627              		.cfi_offset 4, -4
 628              		.loc 1 244 0
 629 0002 40F20003 		movw	r3, #:lower16:.LANCHOR3
 630 0006 40F20004 		movw	r4, #:lower16:vtlist
 631              		.loc 1 245 0
 632 000a 40F20001 		movw	r1, #:lower16:rlist
 633              		.loc 1 244 0
 634 000e C0F20003 		movt	r3, #:upper16:.LANCHOR3
 635 0012 C0F20004 		movt	r4, #:upper16:vtlist
 636              		.loc 1 245 0
 637 0016 C0F20001 		movt	r1, #:upper16:rlist
 638              		.loc 1 244 0
 639 001a 5A68     		ldr	r2, [r3, #4]
 640 001c E468     		ldr	r4, [r4, #12]
 641              		.loc 1 245 0
 642 001e 8969     		ldr	r1, [r1, #24]
 643              		.loc 1 244 0
 644 0020 1460     		str	r4, [r2]
 645              		.loc 1 245 0
 646 0022 5160     		str	r1, [r2, #4]
 647              		.loc 1 246 0
 648 0024 816A     		ldr	r1, [r0, #40]
 649 0026 9160     		str	r1, [r2, #8]
 650              		.loc 1 247 0
 651 0028 90F82040 		ldrb	r4, [r0, #32]	@ zero_extendqisi2
 652              		.loc 1 248 0
 653 002c 02F11001 		add	r1, r2, #16
 654 0030 03F58160 		add	r0, r3, #1032
 655              	.LVL25:
 656 0034 8142     		cmp	r1, r0
 657              		.loc 1 247 0
 658 0036 1473     		strb	r4, [r2, #12]
 659              		.loc 1 250 0
 660 0038 2ABF     		itet	cs
 661 003a 03F10802 		addcs	r2, r3, #8
 662              		.loc 1 248 0
 663 003e 5960     		strcc	r1, [r3, #4]
 664              		.loc 1 250 0
 665 0040 5A60     		strcs	r2, [r3, #4]
 666              		.loc 1 251 0
 667 0042 5DF8044B 		ldr	r4, [sp], #4
 668 0046 7047     		bx	lr
ARM GAS  /tmp/cchm2wPZ.s 			page 13


 669              		.cfi_endproc
 670              	.LFE12:
 671              		.size	dbg_trace, .-dbg_trace
 672 0048 AFF30080 		.section	.text.chDbgPanic,"ax",%progbits
 672      AFF30080 
 673              		.align	2
 674              		.p2align 4,,15
 675              		.global	chDbgPanic
 676              		.thumb
 677              		.thumb_func
 678              		.type	chDbgPanic, %function
 679              	chDbgPanic:
 680              	.LFB13:
 681              		.loc 1 271 0
 682              		.cfi_startproc
 683              		@ args = 0, pretend = 0, frame = 0
 684              		@ frame_needed = 0, uses_anonymous_args = 0
 685              		@ link register save eliminated.
 686              	.LVL26:
 687              		.loc 1 273 0
 688 0000 40F20003 		movw	r3, #:lower16:.LANCHOR2
 689 0004 C0F20003 		movt	r3, #:upper16:.LANCHOR2
 690 0008 1860     		str	r0, [r3]
 691              		.loc 1 274 0
 692 000a FFF7FEBF 		b	port_halt
 693              	.LVL27:
 694              		.cfi_endproc
 695              	.LFE13:
 696              		.size	chDbgPanic, .-chDbgPanic
 697              		.global	dbg_panic_msg
 698              		.global	dbg_trace_buffer
 699              		.global	dbg_lock_cnt
 700              		.global	dbg_isr_cnt
 701 000e 00BF     		.section	.bss.dbg_isr_cnt,"aw",%nobits
 702              		.align	2
 703              		.set	.LANCHOR0,. + 0
 704              		.type	dbg_isr_cnt, %object
 705              		.size	dbg_isr_cnt, 4
 706              	dbg_isr_cnt:
 707 0000 00000000 		.space	4
 708              		.section	.bss.dbg_trace_buffer,"aw",%nobits
 709              		.align	2
 710              		.set	.LANCHOR3,. + 0
 711              		.type	dbg_trace_buffer, %object
 712              		.size	dbg_trace_buffer, 1032
 713              	dbg_trace_buffer:
 714 0000 00000000 		.space	1032
 714      00000000 
 714      00000000 
 714      00000000 
 714      00000000 
 715              		.section	.rodata.str1.4,"aMS",%progbits,1
 716              		.align	2
 717              	.LC0:
 718 0000 53562331 		.ascii	"SV#1\000"
 718      00
 719 0005 000000   		.space	3
ARM GAS  /tmp/cchm2wPZ.s 			page 14


 720              	.LC1:
 721 0008 53562332 		.ascii	"SV#2\000"
 721      00
 722 000d 000000   		.space	3
 723              	.LC2:
 724 0010 53562333 		.ascii	"SV#3\000"
 724      00
 725 0015 000000   		.space	3
 726              	.LC3:
 727 0018 53562334 		.ascii	"SV#4\000"
 727      00
 728 001d 000000   		.space	3
 729              	.LC4:
 730 0020 53562335 		.ascii	"SV#5\000"
 730      00
 731 0025 000000   		.space	3
 732              	.LC5:
 733 0028 53562336 		.ascii	"SV#6\000"
 733      00
 734 002d 000000   		.space	3
 735              	.LC6:
 736 0030 53562337 		.ascii	"SV#7\000"
 736      00
 737 0035 000000   		.space	3
 738              	.LC7:
 739 0038 53562338 		.ascii	"SV#8\000"
 739      00
 740 003d 000000   		.space	3
 741              	.LC8:
 742 0040 53562339 		.ascii	"SV#9\000"
 742      00
 743 0045 000000   		.space	3
 744              	.LC9:
 745 0048 53562331 		.ascii	"SV#10\000"
 745      3000
 746 004e 0000     		.space	2
 747              	.LC10:
 748 0050 53562331 		.ascii	"SV#11\000"
 748      3100
 749 0056 0000     		.section	.bss.dbg_lock_cnt,"aw",%nobits
 750              		.align	2
 751              		.set	.LANCHOR1,. + 0
 752              		.type	dbg_lock_cnt, %object
 753              		.size	dbg_lock_cnt, 4
 754              	dbg_lock_cnt:
 755 0000 00000000 		.space	4
 756              		.section	.bss.dbg_panic_msg,"aw",%nobits
 757              		.align	2
 758              		.set	.LANCHOR2,. + 0
 759              		.type	dbg_panic_msg, %object
 760              		.size	dbg_panic_msg, 4
 761              	dbg_panic_msg:
 762 0000 00000000 		.space	4
 763              		.text
 764              	.Letext0:
 765              		.file 2 "/usr/arm-none-eabi/include/machine/_default_types.h"
 766              		.file 3 "/usr/arm-none-eabi/include/stdint.h"
ARM GAS  /tmp/cchm2wPZ.s 			page 15


 767              		.file 4 "../../../os/ports/GCC/ARMCMx/chtypes.h"
 768              		.file 5 "../../../os/kernel/include/chlists.h"
 769              		.file 6 "../../../os/kernel/include/chthreads.h"
 770              		.file 7 "../../../os/ports/GCC/ARMCMx/chcore_v7m.h"
 771              		.file 8 "../../../os/kernel/include/chvt.h"
 772              		.file 9 "../../../os/kernel/include/chschd.h"
 773              		.file 10 "../../../os/kernel/include/chmtx.h"
 774              		.file 11 "../../../os/kernel/include/chdebug.h"