ARM GAS  /tmp/cchm2wPZ.s 			page 1


   1              		.syntax unified
   2              		.cpu cortex-m4
   3              		.fpu softvfp
   4              		.eabi_attribute 20, 1
   5              		.eabi_attribute 21, 1
   6              		.eabi_attribute 23, 3
   7              		.eabi_attribute 24, 1
   8              		.eabi_attribute 25, 1
   9              		.eabi_attribute 26, 1
  10              		.eabi_attribute 30, 2
  11              		.eabi_attribute 34, 1
  12              		.eabi_attribute 18, 4
  13              		.thumb
  14              		.file	"chdebug.c"
  15              		.text
  16              	.Ltext0:
  17              		.cfi_sections	.debug_frame
  18              		.section	.text.dbg_check_disable,"ax",%progbits
  19              		.align	2
  20              		.p2align 4,,15
  21              		.global	dbg_check_disable
  22              		.thumb
  23              		.thumb_func
  24              		.type	dbg_check_disable, %function
  25              	dbg_check_disable:
  26              	.LFB0:
  27              		.file 1 "../../../os/kernel/src/chdebug.c"
  28              		.loc 1 81 0
  29              		.cfi_startproc
  30              		@ args = 0, pretend = 0, frame = 0
  31              		@ frame_needed = 0, uses_anonymous_args = 0
  32              		@ link register save eliminated.
  33              		.loc 1 83 0
  34 0000 40F20003 		movw	r3, #:lower16:.LANCHOR0
  35 0004 C0F20003 		movt	r3, #:upper16:.LANCHOR0
  36 0008 1B68     		ldr	r3, [r3]
  37 000a 2BB9     		cbnz	r3, .L2
  38              		.loc 1 83 0 is_stmt 0 discriminator 1
  39 000c 40F20003 		movw	r3, #:lower16:.LANCHOR1
  40 0010 C0F20003 		movt	r3, #:upper16:.LANCHOR1
  41 0014 1B68     		ldr	r3, [r3]
  42 0016 53B1     		cbz	r3, .L1
  43              	.L2:
  44              	.LVL0:
  45              	.LBB24:
  46              	.LBB25:
  47              		.loc 1 273 0 is_stmt 1
  48 0018 40F20003 		movw	r3, #:lower16:.LANCHOR2
  49 001c C0F20003 		movt	r3, #:upper16:.LANCHOR2
  50 0020 40F20002 		movw	r2, #:lower16:.LC0
  51 0024 C0F20002 		movt	r2, #:upper16:.LC0
  52 0028 1A60     		str	r2, [r3]
  53              		.loc 1 274 0
  54 002a FFF7FEBF 		b	port_halt
  55              	.LVL1:
  56              	.L1:
  57 002e 7047     		bx	lr
ARM GAS  /tmp/cchm2wPZ.s 			page 2


  58              	.LBE25:
  59              	.LBE24:
  60              		.cfi_endproc
  61              	.LFE0:
  62              		.size	dbg_check_disable, .-dbg_check_disable
  63              		.section	.text.dbg_check_suspend,"ax",%progbits
  64              		.align	2
  65              		.p2align 4,,15
  66              		.global	dbg_check_suspend
  67              		.thumb
  68              		.thumb_func
  69              		.type	dbg_check_suspend, %function
  70              	dbg_check_suspend:
  71              	.LFB1:
  72              		.loc 1 92 0
  73              		.cfi_startproc
  74              		@ args = 0, pretend = 0, frame = 0
  75              		@ frame_needed = 0, uses_anonymous_args = 0
  76              		@ link register save eliminated.
  77              		.loc 1 94 0
  78 0000 40F20003 		movw	r3, #:lower16:.LANCHOR0
  79 0004 C0F20003 		movt	r3, #:upper16:.LANCHOR0
  80 0008 1B68     		ldr	r3, [r3]
  81 000a 2BB9     		cbnz	r3, .L6
  82              		.loc 1 94 0 is_stmt 0 discriminator 1
  83 000c 40F20003 		movw	r3, #:lower16:.LANCHOR1
  84 0010 C0F20003 		movt	r3, #:upper16:.LANCHOR1
  85 0014 1B68     		ldr	r3, [r3]
  86 0016 53B1     		cbz	r3, .L5
  87              	.L6:
  88              	.LVL2:
  89              	.LBB26:
  90              	.LBB27:
  91              		.loc 1 273 0 is_stmt 1
  92 0018 40F20003 		movw	r3, #:lower16:.LANCHOR2
  93 001c C0F20003 		movt	r3, #:upper16:.LANCHOR2
  94 0020 40F20002 		movw	r2, #:lower16:.LC1
  95 0024 C0F20002 		movt	r2, #:upper16:.LC1
  96 0028 1A60     		str	r2, [r3]
  97              		.loc 1 274 0
  98 002a FFF7FEBF 		b	port_halt
  99              	.LVL3:
 100              	.L5:
 101 002e 7047     		bx	lr
 102              	.LBE27:
 103              	.LBE26:
 104              		.cfi_endproc
 105              	.LFE1:
 106              		.size	dbg_check_suspend, .-dbg_check_suspend
 107              		.section	.text.dbg_check_enable,"ax",%progbits
 108              		.align	2
 109              		.p2align 4,,15
 110              		.global	dbg_check_enable
 111              		.thumb
 112              		.thumb_func
 113              		.type	dbg_check_enable, %function
 114              	dbg_check_enable:
ARM GAS  /tmp/cchm2wPZ.s 			page 3


 115              	.LFB2:
 116              		.loc 1 103 0
 117              		.cfi_startproc
 118              		@ args = 0, pretend = 0, frame = 0
 119              		@ frame_needed = 0, uses_anonymous_args = 0
 120              		@ link register save eliminated.
 121              		.loc 1 105 0
 122 0000 40F20003 		movw	r3, #:lower16:.LANCHOR0
 123 0004 C0F20003 		movt	r3, #:upper16:.LANCHOR0
 124 0008 1B68     		ldr	r3, [r3]
 125 000a 2BB9     		cbnz	r3, .L9
 126              		.loc 1 105 0 is_stmt 0 discriminator 1
 127 000c 40F20003 		movw	r3, #:lower16:.LANCHOR1
 128 0010 C0F20003 		movt	r3, #:upper16:.LANCHOR1
 129 0014 1B68     		ldr	r3, [r3]
 130 0016 53B1     		cbz	r3, .L8
 131              	.L9:
 132              	.LVL4:
 133              	.LBB28:
 134              	.LBB29:
 135              		.loc 1 273 0 is_stmt 1
 136 0018 40F20003 		movw	r3, #:lower16:.LANCHOR2
 137 001c C0F20003 		movt	r3, #:upper16:.LANCHOR2
 138 0020 40F20002 		movw	r2, #:lower16:.LC2
 139 0024 C0F20002 		movt	r2, #:upper16:.LC2
 140 0028 1A60     		str	r2, [r3]
 141              		.loc 1 274 0
 142 002a FFF7FEBF 		b	port_halt
 143              	.LVL5:
 144              	.L8:
 145 002e 7047     		bx	lr
 146              	.LBE29:
 147              	.LBE28:
 148              		.cfi_endproc
 149              	.LFE2:
 150              		.size	dbg_check_enable, .-dbg_check_enable
 151              		.section	.text.dbg_check_lock,"ax",%progbits
 152              		.align	2
 153              		.p2align 4,,15
 154              		.global	dbg_check_lock
 155              		.thumb
 156              		.thumb_func
 157              		.type	dbg_check_lock, %function
 158              	dbg_check_lock:
 159              	.LFB3:
 160              		.loc 1 114 0
 161              		.cfi_startproc
 162              		@ args = 0, pretend = 0, frame = 0
 163              		@ frame_needed = 0, uses_anonymous_args = 0
 164              		.loc 1 116 0
 165 0000 40F20003 		movw	r3, #:lower16:.LANCHOR0
 166 0004 C0F20003 		movt	r3, #:upper16:.LANCHOR0
 167              		.loc 1 114 0
 168 0008 10B5     		push	{r4, lr}
 169              		.cfi_def_cfa_offset 8
 170              		.cfi_offset 4, -8
 171              		.cfi_offset 14, -4
ARM GAS  /tmp/cchm2wPZ.s 			page 4


 172              		.loc 1 116 0
 173 000a 1B68     		ldr	r3, [r3]
 174 000c 40F20004 		movw	r4, #:lower16:.LANCHOR1
 175 0010 C0F20004 		movt	r4, #:upper16:.LANCHOR1
 176 0014 0BB9     		cbnz	r3, .L12
 177              		.loc 1 116 0 is_stmt 0 discriminator 1
 178 0016 2368     		ldr	r3, [r4]
 179 0018 53B1     		cbz	r3, .L13
 180              	.L12:
 181              	.LVL6:
 182              	.LBB30:
 183              	.LBB31:
 184              		.loc 1 273 0 is_stmt 1
 185 001a 40F20003 		movw	r3, #:lower16:.LANCHOR2
 186 001e C0F20003 		movt	r3, #:upper16:.LANCHOR2
 187 0022 40F20002 		movw	r2, #:lower16:.LC3
 188 0026 C0F20002 		movt	r2, #:upper16:.LC3
 189 002a 1A60     		str	r2, [r3]
 190              		.loc 1 274 0
 191 002c FFF7FEFF 		bl	port_halt
 192              	.LVL7:
 193              	.L13:
 194              	.LBE31:
 195              	.LBE30:
 196              		.loc 1 118 0
 197 0030 0123     		movs	r3, #1
 198 0032 2360     		str	r3, [r4]
 199 0034 10BD     		pop	{r4, pc}
 200              		.cfi_endproc
 201              	.LFE3:
 202              		.size	dbg_check_lock, .-dbg_check_lock
 203 0036 00BFAFF3 		.section	.text.dbg_check_unlock,"ax",%progbits
 203      0080AFF3 
 203      0080
 204              		.align	2
 205              		.p2align 4,,15
 206              		.global	dbg_check_unlock
 207              		.thumb
 208              		.thumb_func
 209              		.type	dbg_check_unlock, %function
 210              	dbg_check_unlock:
 211              	.LFB4:
 212              		.loc 1 126 0
 213              		.cfi_startproc
 214              		@ args = 0, pretend = 0, frame = 0
 215              		@ frame_needed = 0, uses_anonymous_args = 0
 216              		.loc 1 128 0
 217 0000 40F20003 		movw	r3, #:lower16:.LANCHOR0
 218 0004 C0F20003 		movt	r3, #:upper16:.LANCHOR0
 219              		.loc 1 126 0
 220 0008 10B5     		push	{r4, lr}
 221              		.cfi_def_cfa_offset 8
 222              		.cfi_offset 4, -8
 223              		.cfi_offset 14, -4
 224              		.loc 1 128 0
 225 000a 1B68     		ldr	r3, [r3]
 226 000c 40F20004 		movw	r4, #:lower16:.LANCHOR1
ARM GAS  /tmp/cchm2wPZ.s 			page 5


 227 0010 C0F20004 		movt	r4, #:upper16:.LANCHOR1
 228 0014 2BB9     		cbnz	r3, .L20
 229              		.loc 1 128 0 is_stmt 0 discriminator 1
 230 0016 2368     		ldr	r3, [r4]
 231 0018 002B     		cmp	r3, #0
 232 001a 02DD     		ble	.L20
 233              		.loc 1 130 0 is_stmt 1
 234 001c 0023     		movs	r3, #0
 235 001e 2360     		str	r3, [r4]
 236 0020 10BD     		pop	{r4, pc}
 237              	.L20:
 238              	.LVL8:
 239              	.LBB32:
 240              	.LBB33:
 241              		.loc 1 273 0
 242 0022 40F20003 		movw	r3, #:lower16:.LANCHOR2
 243 0026 C0F20003 		movt	r3, #:upper16:.LANCHOR2
 244 002a 40F20002 		movw	r2, #:lower16:.LC4
 245 002e C0F20002 		movt	r2, #:upper16:.LC4
 246 0032 1A60     		str	r2, [r3]
 247              		.loc 1 274 0
 248 0034 FFF7FEFF 		bl	port_halt
 249              	.LVL9:
 250              	.LBE33:
 251              	.LBE32:
 252              		.loc 1 130 0
 253 0038 0023     		movs	r3, #0
 254 003a 2360     		str	r3, [r4]
 255 003c 10BD     		pop	{r4, pc}
 256              		.cfi_endproc
 257              	.LFE4:
 258              		.size	dbg_check_unlock, .-dbg_check_unlock
 259 003e 00BF     		.section	.text.dbg_check_lock_from_isr,"ax",%progbits
 260              		.align	2
 261              		.p2align 4,,15
 262              		.global	dbg_check_lock_from_isr
 263              		.thumb
 264              		.thumb_func
 265              		.type	dbg_check_lock_from_isr, %function
 266              	dbg_check_lock_from_isr:
 267              	.LFB5:
 268              		.loc 1 138 0
 269              		.cfi_startproc
 270              		@ args = 0, pretend = 0, frame = 0
 271              		@ frame_needed = 0, uses_anonymous_args = 0
 272              		.loc 1 140 0
 273 0000 40F20003 		movw	r3, #:lower16:.LANCHOR0
 274 0004 C0F20003 		movt	r3, #:upper16:.LANCHOR0
 275              		.loc 1 138 0
 276 0008 10B5     		push	{r4, lr}
 277              		.cfi_def_cfa_offset 8
 278              		.cfi_offset 4, -8
 279              		.cfi_offset 14, -4
 280              		.loc 1 140 0
 281 000a 1B68     		ldr	r3, [r3]
 282 000c 40F20004 		movw	r4, #:lower16:.LANCHOR1
 283 0010 002B     		cmp	r3, #0
ARM GAS  /tmp/cchm2wPZ.s 			page 6


 284 0012 C0F20004 		movt	r4, #:upper16:.LANCHOR1
 285 0016 01DD     		ble	.L25
 286              		.loc 1 140 0 is_stmt 0 discriminator 1
 287 0018 2368     		ldr	r3, [r4]
 288 001a 53B1     		cbz	r3, .L26
 289              	.L25:
 290              	.LVL10:
 291              	.LBB34:
 292              	.LBB35:
 293              		.loc 1 273 0 is_stmt 1
 294 001c 40F20003 		movw	r3, #:lower16:.LANCHOR2
 295 0020 C0F20003 		movt	r3, #:upper16:.LANCHOR2
 296 0024 40F20002 		movw	r2, #:lower16:.LC5
 297 0028 C0F20002 		movt	r2, #:upper16:.LC5
 298 002c 1A60     		str	r2, [r3]
 299              		.loc 1 274 0
 300 002e FFF7FEFF 		bl	port_halt
 301              	.LVL11:
 302              	.L26:
 303              	.LBE35:
 304              	.LBE34:
 305              		.loc 1 142 0
 306 0032 0123     		movs	r3, #1
 307 0034 2360     		str	r3, [r4]
 308 0036 10BD     		pop	{r4, pc}
 309              		.cfi_endproc
 310              	.LFE5:
 311              		.size	dbg_check_lock_from_isr, .-dbg_check_lock_from_isr
 312 0038 AFF30080 		.section	.text.dbg_check_unlock_from_isr,"ax",%progbits
 312      AFF30080 
 313              		.align	2
 314              		.p2align 4,,15
 315              		.global	dbg_check_unlock_from_isr
 316              		.thumb
 317              		.thumb_func
 318              		.type	dbg_check_unlock_from_isr, %function
 319              	dbg_check_unlock_from_isr:
 320              	.LFB6:
 321              		.loc 1 150 0
 322              		.cfi_startproc
 323              		@ args = 0, pretend = 0, frame = 0
 324              		@ frame_needed = 0, uses_anonymous_args = 0
 325              		.loc 1 152 0
 326 0000 40F20003 		movw	r3, #:lower16:.LANCHOR0
 327 0004 C0F20003 		movt	r3, #:upper16:.LANCHOR0
 328              		.loc 1 150 0
 329 0008 10B5     		push	{r4, lr}
 330              		.cfi_def_cfa_offset 8
 331              		.cfi_offset 4, -8
 332              		.cfi_offset 14, -4
 333              		.loc 1 152 0
 334 000a 1B68     		ldr	r3, [r3]
 335 000c 40F20004 		movw	r4, #:lower16:.LANCHOR1
 336 0010 002B     		cmp	r3, #0
 337 0012 C0F20004 		movt	r4, #:upper16:.LANCHOR1
 338 0016 05DD     		ble	.L33
 339              		.loc 1 152 0 is_stmt 0 discriminator 1
ARM GAS  /tmp/cchm2wPZ.s 			page 7


 340 0018 2368     		ldr	r3, [r4]
 341 001a 002B     		cmp	r3, #0
 342 001c 02DD     		ble	.L33
 343              		.loc 1 154 0 is_stmt 1
 344 001e 0023     		movs	r3, #0
 345 0020 2360     		str	r3, [r4]
 346 0022 10BD     		pop	{r4, pc}
 347              	.L33:
 348              	.LVL12:
 349              	.LBB36:
 350              	.LBB37:
 351              		.loc 1 273 0
 352 0024 40F20003 		movw	r3, #:lower16:.LANCHOR2
 353 0028 C0F20003 		movt	r3, #:upper16:.LANCHOR2
 354 002c 40F20002 		movw	r2, #:lower16:.LC6
 355 0030 C0F20002 		movt	r2, #:upper16:.LC6
 356 0034 1A60     		str	r2, [r3]
 357              		.loc 1 274 0
 358 0036 FFF7FEFF 		bl	port_halt
 359              	.LVL13:
 360              	.LBE37:
 361              	.LBE36:
 362              		.loc 1 154 0
 363 003a 0023     		movs	r3, #0
 364 003c 2360     		str	r3, [r4]
 365 003e 10BD     		pop	{r4, pc}
 366              		.cfi_endproc
 367              	.LFE6:
 368              		.size	dbg_check_unlock_from_isr, .-dbg_check_unlock_from_isr
 369              		.section	.text.dbg_check_enter_isr,"ax",%progbits
 370              		.align	2
 371              		.p2align 4,,15
 372              		.global	dbg_check_enter_isr
 373              		.thumb
 374              		.thumb_func
 375              		.type	dbg_check_enter_isr, %function
 376              	dbg_check_enter_isr:
 377              	.LFB7:
 378              		.loc 1 162 0
 379              		.cfi_startproc
 380              		@ args = 0, pretend = 0, frame = 0
 381              		@ frame_needed = 0, uses_anonymous_args = 0
 382 0000 10B5     		push	{r4, lr}
 383              		.cfi_def_cfa_offset 8
 384              		.cfi_offset 4, -8
 385              		.cfi_offset 14, -4
 386              		.loc 1 164 0
 387              	@ 164 "../../../os/kernel/src/chdebug.c" 1
 388 0002 FFF7FEFF 		bl      _port_lock
 389              	@ 0 "" 2
 390              		.loc 1 165 0
 391              		.thumb
 392 0006 40F20004 		movw	r4, #:lower16:.LANCHOR0
 393 000a C0F20004 		movt	r4, #:upper16:.LANCHOR0
 394 000e 2268     		ldr	r2, [r4]
 395 0010 002A     		cmp	r2, #0
 396 0012 05DB     		blt	.L38
ARM GAS  /tmp/cchm2wPZ.s 			page 8


 397              		.loc 1 165 0 is_stmt 0 discriminator 1
 398 0014 40F20003 		movw	r3, #:lower16:.LANCHOR1
 399 0018 C0F20003 		movt	r3, #:upper16:.LANCHOR1
 400 001c 1B68     		ldr	r3, [r3]
 401 001e 5BB1     		cbz	r3, .L39
 402              	.L38:
 403              	.LVL14:
 404              	.LBB38:
 405              	.LBB39:
 406              		.loc 1 273 0 is_stmt 1
 407 0020 40F20003 		movw	r3, #:lower16:.LANCHOR2
 408 0024 C0F20003 		movt	r3, #:upper16:.LANCHOR2
 409 0028 40F20002 		movw	r2, #:lower16:.LC7
 410 002c C0F20002 		movt	r2, #:upper16:.LC7
 411 0030 1A60     		str	r2, [r3]
 412              		.loc 1 274 0
 413 0032 FFF7FEFF 		bl	port_halt
 414              	.LVL15:
 415 0036 2268     		ldr	r2, [r4]
 416              	.LVL16:
 417              	.L39:
 418              	.LBE39:
 419              	.LBE38:
 420              		.loc 1 167 0
 421 0038 0132     		adds	r2, r2, #1
 422 003a 2260     		str	r2, [r4]
 423              		.loc 1 168 0
 424              	@ 168 "../../../os/kernel/src/chdebug.c" 1
 425 003c FFF7FEFF 		bl      _port_unlock
 426              	@ 0 "" 2
 427              		.thumb
 428 0040 10BD     		pop	{r4, pc}
 429              		.cfi_endproc
 430              	.LFE7:
 431              		.size	dbg_check_enter_isr, .-dbg_check_enter_isr
 432 0042 00BFAFF3 		.section	.text.dbg_check_leave_isr,"ax",%progbits
 432      0080AFF3 
 432      0080AFF3 
 432      0080
 433              		.align	2
 434              		.p2align 4,,15
 435              		.global	dbg_check_leave_isr
 436              		.thumb
 437              		.thumb_func
 438              		.type	dbg_check_leave_isr, %function
 439              	dbg_check_leave_isr:
 440              	.LFB8:
 441              		.loc 1 176 0
 442              		.cfi_startproc
 443              		@ args = 0, pretend = 0, frame = 0
 444              		@ frame_needed = 0, uses_anonymous_args = 0
 445 0000 10B5     		push	{r4, lr}
 446              		.cfi_def_cfa_offset 8
 447              		.cfi_offset 4, -8
 448              		.cfi_offset 14, -4
 449              		.loc 1 178 0
 450              	@ 178 "../../../os/kernel/src/chdebug.c" 1
ARM GAS  /tmp/cchm2wPZ.s 			page 9


 451 0002 FFF7FEFF 		bl      _port_lock
 452              	@ 0 "" 2
 453              		.loc 1 179 0
 454              		.thumb
 455 0006 40F20004 		movw	r4, #:lower16:.LANCHOR0
 456 000a C0F20004 		movt	r4, #:upper16:.LANCHOR0
 457 000e 2268     		ldr	r2, [r4]
 458 0010 002A     		cmp	r2, #0
 459 0012 05DD     		ble	.L42
 460              		.loc 1 179 0 is_stmt 0 discriminator 1
 461 0014 40F20003 		movw	r3, #:lower16:.LANCHOR1
 462 0018 C0F20003 		movt	r3, #:upper16:.LANCHOR1
 463 001c 1B68     		ldr	r3, [r3]
 464 001e 5BB1     		cbz	r3, .L43
 465              	.L42:
 466              	.LVL17:
 467              	.LBB40:
 468              	.LBB41:
 469              		.loc 1 273 0 is_stmt 1
 470 0020 40F20003 		movw	r3, #:lower16:.LANCHOR2
 471 0024 C0F20003 		movt	r3, #:upper16:.LANCHOR2
 472 0028 40F20002 		movw	r2, #:lower16:.LC8
 473 002c C0F20002 		movt	r2, #:upper16:.LC8
 474 0030 1A60     		str	r2, [r3]
 475              		.loc 1 274 0
 476 0032 FFF7FEFF 		bl	port_halt
 477              	.LVL18:
 478 0036 2268     		ldr	r2, [r4]
 479              	.LVL19:
 480              	.L43:
 481              	.LBE41:
 482              	.LBE40:
 483              		.loc 1 181 0
 484 0038 013A     		subs	r2, r2, #1
 485 003a 2260     		str	r2, [r4]
 486              		.loc 1 182 0
 487              	@ 182 "../../../os/kernel/src/chdebug.c" 1
 488 003c FFF7FEFF 		bl      _port_unlock
 489              	@ 0 "" 2
 490              		.thumb
 491 0040 10BD     		pop	{r4, pc}
 492              		.cfi_endproc
 493              	.LFE8:
 494              		.size	dbg_check_leave_isr, .-dbg_check_leave_isr
 495 0042 00BFAFF3 		.section	.text.chDbgCheckClassI,"ax",%progbits
 495      0080AFF3 
 495      0080AFF3 
 495      0080
 496              		.align	2
 497              		.p2align 4,,15
 498              		.global	chDbgCheckClassI
 499              		.thumb
 500              		.thumb_func
 501              		.type	chDbgCheckClassI, %function
 502              	chDbgCheckClassI:
 503              	.LFB9:
 504              		.loc 1 193 0
ARM GAS  /tmp/cchm2wPZ.s 			page 10


 505              		.cfi_startproc
 506              		@ args = 0, pretend = 0, frame = 0
 507              		@ frame_needed = 0, uses_anonymous_args = 0
 508              		@ link register save eliminated.
 509              		.loc 1 195 0
 510 0000 40F20003 		movw	r3, #:lower16:.LANCHOR0
 511 0004 C0F20003 		movt	r3, #:upper16:.LANCHOR0
 512 0008 1B68     		ldr	r3, [r3]
 513 000a 002B     		cmp	r3, #0
 514 000c 07DB     		blt	.L46
 515              		.loc 1 195 0 is_stmt 0 discriminator 1
 516 000e 40F20003 		movw	r3, #:lower16:.LANCHOR1
 517 0012 C0F20003 		movt	r3, #:upper16:.LANCHOR1
 518 0016 1B68     		ldr	r3, [r3]
 519 0018 002B     		cmp	r3, #0
 520 001a 00DD     		ble	.L46
 521 001c 7047     		bx	lr
 522              	.L46:
 523              	.LVL20:
 524              	.LBB42:
 525              	.LBB43:
 526              		.loc 1 273 0 is_stmt 1
 527 001e 40F20003 		movw	r3, #:lower16:.LANCHOR2
 528 0022 C0F20003 		movt	r3, #:upper16:.LANCHOR2
 529 0026 40F20002 		movw	r2, #:lower16:.LC9
 530 002a C0F20002 		movt	r2, #:upper16:.LC9
 531 002e 1A60     		str	r2, [r3]
 532              		.loc 1 274 0
 533 0030 FFF7FEBF 		b	port_halt
 534              	.LVL21:
 535              	.LBE43:
 536              	.LBE42:
 537              		.cfi_endproc
 538              	.LFE9:
 539              		.size	chDbgCheckClassI, .-chDbgCheckClassI
 540 0034 AFF30080 		.section	.text.chDbgCheckClassS,"ax",%progbits
 540      AFF30080 
 540      AFF30080 
 541              		.align	2
 542              		.p2align 4,,15
 543              		.global	chDbgCheckClassS
 544              		.thumb
 545              		.thumb_func
 546              		.type	chDbgCheckClassS, %function
 547              	chDbgCheckClassS:
 548              	.LFB10:
 549              		.loc 1 207 0
 550              		.cfi_startproc
 551              		@ args = 0, pretend = 0, frame = 0
 552              		@ frame_needed = 0, uses_anonymous_args = 0
 553              		@ link register save eliminated.
 554              		.loc 1 209 0
 555 0000 40F20003 		movw	r3, #:lower16:.LANCHOR0
 556 0004 C0F20003 		movt	r3, #:upper16:.LANCHOR0
 557 0008 1B68     		ldr	r3, [r3]
 558 000a 3BB9     		cbnz	r3, .L49
 559              		.loc 1 209 0 is_stmt 0 discriminator 1
ARM GAS  /tmp/cchm2wPZ.s 			page 11


 560 000c 40F20003 		movw	r3, #:lower16:.LANCHOR1
 561 0010 C0F20003 		movt	r3, #:upper16:.LANCHOR1
 562 0014 1B68     		ldr	r3, [r3]
 563 0016 002B     		cmp	r3, #0
 564 0018 00DD     		ble	.L49
 565 001a 7047     		bx	lr
 566              	.L49:
 567              	.LVL22:
 568              	.LBB44:
 569              	.LBB45:
 570              		.loc 1 273 0 is_stmt 1
 571 001c 40F20003 		movw	r3, #:lower16:.LANCHOR2
 572 0020 C0F20003 		movt	r3, #:upper16:.LANCHOR2
 573 0024 40F20002 		movw	r2, #:lower16:.LC10
 574 0028 C0F20002 		movt	r2, #:upper16:.LC10
 575 002c 1A60     		str	r2, [r3]
 576              		.loc 1 274 0
 577 002e FFF7FEBF 		b	port_halt
 578              	.LVL23:
 579              	.LBE45:
 580              	.LBE44:
 581              		.cfi_endproc
 582              	.LFE10:
 583              		.size	chDbgCheckClassS, .-chDbgCheckClassS
 584 0032 00BFAFF3 		.section	.text._trace_init,"ax",%progbits
 584      0080AFF3 
 584      0080AFF3 
 584      0080
 585              		.align	2
 586              		.p2align 4,,15
 587              		.global	_trace_init
 588              		.thumb
 589              		.thumb_func
 590              		.type	_trace_init, %function
 591              	_trace_init:
 592              	.LFB11:
 593              		.loc 1 229 0
 594              		.cfi_startproc
 595              		@ args = 0, pretend = 0, frame = 0
 596              		@ frame_needed = 0, uses_anonymous_args = 0
 597              		@ link register save eliminated.
 598              		.loc 1 231 0
 599 0000 40F20003 		movw	r3, #:lower16:.LANCHOR3
 600 0004 C0F20003 		movt	r3, #:upper16:.LANCHOR3
 601 0008 1A46     		mov	r2, r3
 602 000a 4021     		movs	r1, #64
 603 000c 42F8081B 		str	r1, [r2], #8
 604              		.loc 1 232 0
 605 0010 5A60     		str	r2, [r3, #4]
 606 0012 7047     		bx	lr
 607              		.cfi_endproc
 608              	.LFE11:
 609              		.size	_trace_init, .-_trace_init
 610 0014 AFF30080 		.section	.text.dbg_trace,"ax",%progbits
 610      AFF30080 
 610      AFF30080 
 611              		.align	2
ARM GAS  /tmp/cchm2wPZ.s 			page 12


 612              		.p2align 4,,15
 613              		.global	dbg_trace
 614              		.thumb
 615              		.thumb_func
 616              		.type	dbg_trace, %function
 617              	dbg_trace:
 618              	.LFB12:
 619              		.loc 1 242 0
 620              		.cfi_startproc
 621              		@ args = 0, pretend = 0, frame = 0
 622              		@ frame_needed = 0, uses_anonymous_args = 0
 623              		@ link register save eliminated.
 624              	.LVL24:
 625 0000 10B4     		push	{r4}
 626              		.cfi_def_cfa_offset 4
 627              		.cfi_offset 4, -4
 628              		.loc 1 244 0
 629 0002 40F20003 		movw	r3, #:lower16:.LANCHOR3
 630 0006 40F20004 		movw	r4, #:lower16:vtlist
 631              		.loc 1 245 0
 632 000a 40F20001 		movw	r1, #:lower16:rlist
 633              		.loc 1 244 0
 634 000e C0F20003 		movt	r3, #:upper16:.LANCHOR3
 635 0012 C0F20004 		movt	r4, #:upper16:vtlist
 636              		.loc 1 245 0
 637 0016 C0F20001 		movt	r1, #:upper16:rlist
 638              		.loc 1 244 0
 639 001a 5A68     		ldr	r2, [r3, #4]
 640 001c E468     		ldr	r4, [r4, #12]
 641              		.loc 1 245 0
 642 001e 8969     		ldr	r1, [r1, #24]
 643              		.loc 1 244 0
 644 0020 1460     		str	r4, [r2]
 645              		.loc 1 245 0
 646 0022 5160     		str	r1, [r2, #4]
 647              		.loc 1 246 0
 648 0024 816A     		ldr	r1, [r0, #40]
 649 0026 9160     		str	r1, [r2, #8]
 650              		.loc 1 247 0
 651 0028 90F82040 		ldrb	r4, [r0, #32]	@ zero_extendqisi2
 652              		.loc 1 248 0
 653 002c 02F11001 		add	r1, r2, #16
 654 0030 03F58160 		add	r0, r3, #1032
 655              	.LVL25:
 656 0034 8142     		cmp	r1, r0
 657              		.loc 1 247 0
 658 0036 1473     		strb	r4, [r2, #12]
 659              		.loc 1 250 0
 660 0038 2ABF     		itet	cs
 661 003a 03F10802 		addcs	r2, r3, #8
 662              		.loc 1 248 0
 663 003e 5960     		strcc	r1, [r3, #4]
 664              		.loc 1 250 0
 665 0040 5A60     		strcs	r2, [r3, #4]
 666              		.loc 1 251 0
 667 0042 5DF8044B 		ldr	r4, [sp], #4
 668 0046 7047     		bx	lr
ARM GAS  /tmp/cchm2wPZ.s 			page 13


 669              		.cfi_endproc
 670              	.LFE12:
 671              		.size	dbg_trace, .-dbg_trace
 672 0048 AFF30080 		.section	.text.chDbgPanic,"ax",%progbits
 672      AFF30080 
 673              		.align	2
 674              		.p2align 4,,15
 675              		.global	chDbgPanic
 676              		.thumb
 677              		.thumb_func
 678              		.type	chDbgPanic, %function
 679              	chDbgPanic:
 680              	.LFB13:
 681              		.loc 1 271 0
 682              		.cfi_startproc
 683              		@ args = 0, pretend = 0, frame = 0
 684              		@ frame_needed = 0, uses_anonymous_args = 0
 685              		@ link register save eliminated.
 686              	.LVL26:
 687              		.loc 1 273 0
 688 0000 40F20003 		movw	r3, #:lower16:.LANCHOR2
 689 0004 C0F20003 		movt	r3, #:upper16:.LANCHOR2
 690 0008 1860     		str	r0, [r3]
 691              		.loc 1 274 0
 692 000a FFF7FEBF 		b	port_halt
 693              	.LVL27:
 694              		.cfi_endproc
 695              	.LFE13:
 696              		.size	chDbgPanic, .-chDbgPanic
 697              		.global	dbg_panic_msg
 698              		.global	dbg_trace_buffer
 699              		.global	dbg_lock_cnt
 700              		.global	dbg_isr_cnt
 701 000e 00BF     		.section	.bss.dbg_isr_cnt,"aw",%nobits
 702              		.align	2
 703              		.set	.LANCHOR0,. + 0
 704              		.type	dbg_isr_cnt, %object
 705              		.size	dbg_isr_cnt, 4
 706              	dbg_isr_cnt:
 707 0000 00000000 		.space	4
 708              		.section	.bss.dbg_trace_buffer,"aw",%nobits
 709              		.align	2
 710              		.set	.LANCHOR3,. + 0
 711              		.type	dbg_trace_buffer, %object
 712              		.size	dbg_trace_buffer, 1032
 713              	dbg_trace_buffer:
 714 0000 00000000 		.space	1032
 714      00000000 
 714      00000000 
 714      00000000 
 714      00000000 
 715              		.section	.rodata.str1.4,"aMS",%progbits,1
 716              		.align	2
 717              	.LC0:
 718 0000 53562331 		.ascii	"SV#1\000"
 718      00
 719 0005 000000   		.space	3
ARM GAS  /tmp/cchm2wPZ.s 			page 14


 720              	.LC1:
 721 0008 53562332 		.ascii	"SV#2\000"
 721      00
 722 000d 000000   		.space	3
 723              	.LC2:
 724 0010 53562333 		.ascii	"SV#3\000"
 724      00
 725 0015 000000   		.space	3
 726              	.LC3:
 727 0018 53562334 		.ascii	"SV#4\000"
 727      00
 728 001d 000000   		.space	3
 729              	.LC4:
 730 0020 53562335 		.ascii	"SV#5\000"
 730      00
 731 0025 000000   		.space	3
 732              	.LC5:
 733 0028 53562336 		.ascii	"SV#6\000"
 733      00
 734 002d 000000   		.space	3
 735              	.LC6:
 736 0030 53562337 		.ascii	"SV#7\000"
 736      00
 737 0035 000000   		.space	3
 738              	.LC7:
 739 0038 53562338 		.ascii	"SV#8\000"
 739      00
 740 003d 000000   		.space	3
 741              	.LC8:
 742 0040 53562339 		.ascii	"SV#9\000"
 742      00
 743 0045 000000   		.space	3
 744              	.LC9:
 745 0048 53562331 		.ascii	"SV#10\000"
 745      3000
 746 004e 0000     		.space	2
 747              	.LC10:
 748 0050 53562331 		.ascii	"SV#11\000"
 748      3100
 749 0056 0000     		.section	.bss.dbg_lock_cnt,"aw",%nobits
 750              		.align	2
 751              		.set	.LANCHOR1,. + 0
 752              		.type	dbg_lock_cnt, %object
 753              		.size	dbg_lock_cnt, 4
 754              	dbg_lock_cnt:
 755 0000 00000000 		.space	4
 756              		.section	.bss.dbg_panic_msg,"aw",%nobits
 757              		.align	2
 758              		.set	.LANCHOR2,. + 0
 759              		.type	dbg_panic_msg, %object
 760              		.size	dbg_panic_msg, 4
 761              	dbg_panic_msg:
 762 0000 00000000 		.space	4
 763              		.text
 764              	.Letext0:
 765              		.file 2 "/usr/arm-none-eabi/include/machine/_default_types.h"
 766              		.file 3 "/usr/arm-none-eabi/include/stdint.h"
ARM GAS  /tmp/cchm2wPZ.s 			page 15


 767              		.file 4 "../../../os/ports/GCC/ARMCMx/chtypes.h"
 768              		.file 5 "../../../os/kernel/include/chlists.h"
 769              		.file 6 "../../../os/kernel/include/chthreads.h"
 770              		.file 7 "../../../os/ports/GCC/ARMCMx/chcore_v7m.h"
 771              		.file 8 "../../../os/kernel/include/chvt.h"
 772              		.file 9 "../../../os/kernel/include/chschd.h"
 773              		.file 10 "../../../os/kernel/include/chmtx.h"
 774              		.file 11 "../../../os/kernel/include/chdebug.h"
 775              		.section	.debug_info,"",%progbits
 776              	.Ldebug_info0:
 777 0000 A2080000 		.4byte	0x8a2
 778 0004 0400     		.2byte	0x4
 779 0006 00000000 		.4byte	.Ldebug_abbrev0
 780 000a 04       		.byte	0x4
 781 000b 01       		.uleb128 0x1
 782 000c 32000000 		.4byte	.LASF102
 783 0010 01       		.byte	0x1
 784 0011 8B020000 		.4byte	.LASF103
 785 0015 EE010000 		.4byte	.LASF104
 786 0019 00000000 		.4byte	.Ldebug_ranges0+0
 787 001d 00000000 		.4byte	0
 788 0021 00000000 		.4byte	.Ldebug_line0
 789 0025 02       		.uleb128 0x2
 790 0026 04       		.byte	0x4
 791 0027 05       		.byte	0x5
 792 0028 696E7400 		.ascii	"int\000"
 793 002c 03       		.uleb128 0x3
 794 002d 04       		.byte	0x4
 795 002e 07       		.byte	0x7
 796 002f A2010000 		.4byte	.LASF0
 797 0033 03       		.uleb128 0x3
 798 0034 01       		.byte	0x1
 799 0035 06       		.byte	0x6
 800 0036 1F010000 		.4byte	.LASF1
 801 003a 04       		.uleb128 0x4
 802 003b 21000000 		.4byte	.LASF5
 803 003f 02       		.byte	0x2
 804 0040 1C       		.byte	0x1c
 805 0041 45000000 		.4byte	0x45
 806 0045 03       		.uleb128 0x3
 807 0046 01       		.byte	0x1
 808 0047 08       		.byte	0x8
 809 0048 C3030000 		.4byte	.LASF2
 810 004c 03       		.uleb128 0x3
 811 004d 02       		.byte	0x2
 812 004e 05       		.byte	0x5
 813 004f E9030000 		.4byte	.LASF3
 814 0053 03       		.uleb128 0x3
 815 0054 02       		.byte	0x2
 816 0055 07       		.byte	0x7
 817 0056 45020000 		.4byte	.LASF4
 818 005a 04       		.uleb128 0x4
 819 005b 69040000 		.4byte	.LASF6
 820 005f 02       		.byte	0x2
 821 0060 37       		.byte	0x37
 822 0061 65000000 		.4byte	0x65
 823 0065 03       		.uleb128 0x3
ARM GAS  /tmp/cchm2wPZ.s 			page 16


 824 0066 04       		.byte	0x4
 825 0067 05       		.byte	0x5
 826 0068 4D010000 		.4byte	.LASF7
 827 006c 04       		.uleb128 0x4
 828 006d 75010000 		.4byte	.LASF8
 829 0071 02       		.byte	0x2
 830 0072 38       		.byte	0x38
 831 0073 77000000 		.4byte	0x77
 832 0077 03       		.uleb128 0x3
 833 0078 04       		.byte	0x4
 834 0079 07       		.byte	0x7
 835 007a C1010000 		.4byte	.LASF9
 836 007e 03       		.uleb128 0x3
 837 007f 08       		.byte	0x8
 838 0080 05       		.byte	0x5
 839 0081 11010000 		.4byte	.LASF10
 840 0085 04       		.uleb128 0x4
 841 0086 78030000 		.4byte	.LASF11
 842 008a 02       		.byte	0x2
 843 008b 4E       		.byte	0x4e
 844 008c 90000000 		.4byte	0x90
 845 0090 03       		.uleb128 0x3
 846 0091 08       		.byte	0x8
 847 0092 07       		.byte	0x7
 848 0093 CF000000 		.4byte	.LASF12
 849 0097 04       		.uleb128 0x4
 850 0098 E9040000 		.4byte	.LASF13
 851 009c 03       		.byte	0x3
 852 009d 2A       		.byte	0x2a
 853 009e 3A000000 		.4byte	0x3a
 854 00a2 04       		.uleb128 0x4
 855 00a3 BB030000 		.4byte	.LASF14
 856 00a7 03       		.byte	0x3
 857 00a8 41       		.byte	0x41
 858 00a9 5A000000 		.4byte	0x5a
 859 00ad 04       		.uleb128 0x4
 860 00ae 2A040000 		.4byte	.LASF15
 861 00b2 03       		.byte	0x3
 862 00b3 42       		.byte	0x42
 863 00b4 6C000000 		.4byte	0x6c
 864 00b8 04       		.uleb128 0x4
 865 00b9 18000000 		.4byte	.LASF16
 866 00bd 03       		.byte	0x3
 867 00be 4E       		.byte	0x4e
 868 00bf 85000000 		.4byte	0x85
 869 00c3 03       		.uleb128 0x3
 870 00c4 01       		.byte	0x1
 871 00c5 02       		.byte	0x2
 872 00c6 B5030000 		.4byte	.LASF17
 873 00ca 04       		.uleb128 0x4
 874 00cb 83020000 		.4byte	.LASF18
 875 00cf 04       		.byte	0x4
 876 00d0 2C       		.byte	0x2c
 877 00d1 97000000 		.4byte	0x97
 878 00d5 04       		.uleb128 0x4
 879 00d6 56010000 		.4byte	.LASF19
 880 00da 04       		.byte	0x4
ARM GAS  /tmp/cchm2wPZ.s 			page 17


 881 00db 2D       		.byte	0x2d
 882 00dc 97000000 		.4byte	0x97
 883 00e0 04       		.uleb128 0x4
 884 00e1 AD030000 		.4byte	.LASF20
 885 00e5 04       		.byte	0x4
 886 00e6 30       		.byte	0x30
 887 00e7 AD000000 		.4byte	0xad
 888 00eb 04       		.uleb128 0x4
 889 00ec 64020000 		.4byte	.LASF21
 890 00f0 04       		.byte	0x4
 891 00f1 31       		.byte	0x31
 892 00f2 A2000000 		.4byte	0xa2
 893 00f6 04       		.uleb128 0x4
 894 00f7 D5020000 		.4byte	.LASF22
 895 00fb 04       		.byte	0x4
 896 00fc 33       		.byte	0x33
 897 00fd AD000000 		.4byte	0xad
 898 0101 04       		.uleb128 0x4
 899 0102 54040000 		.4byte	.LASF23
 900 0106 04       		.byte	0x4
 901 0107 35       		.byte	0x35
 902 0108 AD000000 		.4byte	0xad
 903 010c 04       		.uleb128 0x4
 904 010d 91010000 		.4byte	.LASF24
 905 0111 04       		.byte	0x4
 906 0112 36       		.byte	0x36
 907 0113 A2000000 		.4byte	0xa2
 908 0117 04       		.uleb128 0x4
 909 0118 18040000 		.4byte	.LASF25
 910 011c 05       		.byte	0x5
 911 011d 2A       		.byte	0x2a
 912 011e 22010000 		.4byte	0x122
 913 0122 05       		.uleb128 0x5
 914 0123 18040000 		.4byte	.LASF25
 915 0127 48       		.byte	0x48
 916 0128 06       		.byte	0x6
 917 0129 5E       		.byte	0x5e
 918 012a 07020000 		.4byte	0x207
 919 012e 06       		.uleb128 0x6
 920 012f 09040000 		.4byte	.LASF26
 921 0133 06       		.byte	0x6
 922 0134 5F       		.byte	0x5f
 923 0135 28020000 		.4byte	0x228
 924 0139 00       		.byte	0
 925 013a 06       		.uleb128 0x6
 926 013b A6030000 		.4byte	.LASF27
 927 013f 06       		.byte	0x6
 928 0140 61       		.byte	0x61
 929 0141 28020000 		.4byte	0x228
 930 0145 04       		.byte	0x4
 931 0146 06       		.uleb128 0x6
 932 0147 0A010000 		.4byte	.LASF28
 933 014b 06       		.byte	0x6
 934 014c 63       		.byte	0x63
 935 014d E0000000 		.4byte	0xe0
 936 0151 08       		.byte	0x8
 937 0152 06       		.uleb128 0x6
ARM GAS  /tmp/cchm2wPZ.s 			page 18


 938 0153 4D050000 		.4byte	.LASF29
 939 0157 06       		.byte	0x6
 940 0158 64       		.byte	0x64
 941 0159 ED020000 		.4byte	0x2ed
 942 015d 0C       		.byte	0xc
 943 015e 06       		.uleb128 0x6
 944 015f 65010000 		.4byte	.LASF30
 945 0163 06       		.byte	0x6
 946 0164 66       		.byte	0x66
 947 0165 28020000 		.4byte	0x228
 948 0169 10       		.byte	0x10
 949 016a 06       		.uleb128 0x6
 950 016b 3A030000 		.4byte	.LASF31
 951 016f 06       		.byte	0x6
 952 0170 67       		.byte	0x67
 953 0171 28020000 		.4byte	0x228
 954 0175 14       		.byte	0x14
 955 0176 06       		.uleb128 0x6
 956 0177 10050000 		.4byte	.LASF32
 957 017b 06       		.byte	0x6
 958 017c 6E       		.byte	0x6e
 959 017d A7040000 		.4byte	0x4a7
 960 0181 18       		.byte	0x18
 961 0182 06       		.uleb128 0x6
 962 0183 97010000 		.4byte	.LASF33
 963 0187 06       		.byte	0x6
 964 0188 74       		.byte	0x74
 965 0189 B9040000 		.4byte	0x4b9
 966 018d 1C       		.byte	0x1c
 967 018e 06       		.uleb128 0x6
 968 018f F3030000 		.4byte	.LASF34
 969 0193 06       		.byte	0x6
 970 0194 79       		.byte	0x79
 971 0195 D5000000 		.4byte	0xd5
 972 0199 20       		.byte	0x20
 973 019a 06       		.uleb128 0x6
 974 019b 10040000 		.4byte	.LASF35
 975 019f 06       		.byte	0x6
 976 01a0 7D       		.byte	0x7d
 977 01a1 CA000000 		.4byte	0xca
 978 01a5 21       		.byte	0x21
 979 01a6 06       		.uleb128 0x6
 980 01a7 80040000 		.4byte	.LASF36
 981 01ab 06       		.byte	0x6
 982 01ac 8F       		.byte	0x8f
 983 01ad C4030000 		.4byte	0x3c4
 984 01b1 24       		.byte	0x24
 985 01b2 07       		.uleb128 0x7
 986 01b3 705F7500 		.ascii	"p_u\000"
 987 01b7 06       		.byte	0x6
 988 01b8 B4       		.byte	0xb4
 989 01b9 72040000 		.4byte	0x472
 990 01bd 28       		.byte	0x28
 991 01be 06       		.uleb128 0x6
 992 01bf 53050000 		.4byte	.LASF37
 993 01c3 06       		.byte	0x6
 994 01c4 B9       		.byte	0xb9
ARM GAS  /tmp/cchm2wPZ.s 			page 19


 995 01c5 4E020000 		.4byte	0x24e
 996 01c9 2C       		.byte	0x2c
 997 01ca 06       		.uleb128 0x6
 998 01cb A2040000 		.4byte	.LASF38
 999 01cf 06       		.byte	0x6
 1000 01d0 BF       		.byte	0xbf
 1001 01d1 2E020000 		.4byte	0x22e
 1002 01d5 30       		.byte	0x30
 1003 01d6 06       		.uleb128 0x6
 1004 01d7 00000000 		.4byte	.LASF39
 1005 01db 06       		.byte	0x6
 1006 01dc C3       		.byte	0xc3
 1007 01dd EB000000 		.4byte	0xeb
 1008 01e1 38       		.byte	0x38
 1009 01e2 06       		.uleb128 0x6
 1010 01e3 1F040000 		.4byte	.LASF40
 1011 01e7 06       		.byte	0x6
 1012 01e8 C9       		.byte	0xc9
 1013 01e9 F6000000 		.4byte	0xf6
 1014 01ed 3C       		.byte	0x3c
 1015 01ee 06       		.uleb128 0x6
 1016 01ef DF030000 		.4byte	.LASF41
 1017 01f3 06       		.byte	0x6
 1018 01f4 D0       		.byte	0xd0
 1019 01f5 BF040000 		.4byte	0x4bf
 1020 01f9 40       		.byte	0x40
 1021 01fa 06       		.uleb128 0x6
 1022 01fb 5E040000 		.4byte	.LASF42
 1023 01ff 06       		.byte	0x6
 1024 0200 D4       		.byte	0xd4
 1025 0201 E0000000 		.4byte	0xe0
 1026 0205 44       		.byte	0x44
 1027 0206 00       		.byte	0
 1028 0207 08       		.uleb128 0x8
 1029 0208 08       		.byte	0x8
 1030 0209 05       		.byte	0x5
 1031 020a 61       		.byte	0x61
 1032 020b 28020000 		.4byte	0x228
 1033 020f 06       		.uleb128 0x6
 1034 0210 09040000 		.4byte	.LASF26
 1035 0214 05       		.byte	0x5
 1036 0215 62       		.byte	0x62
 1037 0216 28020000 		.4byte	0x228
 1038 021a 00       		.byte	0
 1039 021b 06       		.uleb128 0x6
 1040 021c A6030000 		.4byte	.LASF27
 1041 0220 05       		.byte	0x5
 1042 0221 64       		.byte	0x64
 1043 0222 28020000 		.4byte	0x228
 1044 0226 04       		.byte	0x4
 1045 0227 00       		.byte	0
 1046 0228 09       		.uleb128 0x9
 1047 0229 04       		.byte	0x4
 1048 022a 17010000 		.4byte	0x117
 1049 022e 04       		.uleb128 0x4
 1050 022f 48030000 		.4byte	.LASF43
 1051 0233 05       		.byte	0x5
ARM GAS  /tmp/cchm2wPZ.s 			page 20


 1052 0234 66       		.byte	0x66
 1053 0235 07020000 		.4byte	0x207
 1054 0239 08       		.uleb128 0x8
 1055 023a 04       		.byte	0x4
 1056 023b 05       		.byte	0x5
 1057 023c 6B       		.byte	0x6b
 1058 023d 4E020000 		.4byte	0x24e
 1059 0241 06       		.uleb128 0x6
 1060 0242 09040000 		.4byte	.LASF26
 1061 0246 05       		.byte	0x5
 1062 0247 6D       		.byte	0x6d
 1063 0248 28020000 		.4byte	0x228
 1064 024c 00       		.byte	0
 1065 024d 00       		.byte	0
 1066 024e 04       		.uleb128 0x4
 1067 024f C9020000 		.4byte	.LASF44
 1068 0253 05       		.byte	0x5
 1069 0254 70       		.byte	0x70
 1070 0255 39020000 		.4byte	0x239
 1071 0259 04       		.uleb128 0x4
 1072 025a 80010000 		.4byte	.LASF45
 1073 025e 07       		.byte	0x7
 1074 025f E5       		.byte	0xe5
 1075 0260 64020000 		.4byte	0x264
 1076 0264 0A       		.uleb128 0xa
 1077 0265 04       		.byte	0x4
 1078 0266 04       		.uleb128 0x4
 1079 0267 E7020000 		.4byte	.LASF46
 1080 026b 07       		.byte	0x7
 1081 026c EB       		.byte	0xeb
 1082 026d B8000000 		.4byte	0xb8
 1083 0271 0B       		.uleb128 0xb
 1084 0272 9B040000 		.4byte	.LASF47
 1085 0276 24       		.byte	0x24
 1086 0277 07       		.byte	0x7
 1087 0278 0C01     		.2byte	0x10c
 1088 027a ED020000 		.4byte	0x2ed
 1089 027e 0C       		.uleb128 0xc
 1090 027f 723400   		.ascii	"r4\000"
 1091 0282 07       		.byte	0x7
 1092 0283 1F01     		.2byte	0x11f
 1093 0285 59020000 		.4byte	0x259
 1094 0289 00       		.byte	0
 1095 028a 0C       		.uleb128 0xc
 1096 028b 723500   		.ascii	"r5\000"
 1097 028e 07       		.byte	0x7
 1098 028f 2001     		.2byte	0x120
 1099 0291 59020000 		.4byte	0x259
 1100 0295 04       		.byte	0x4
 1101 0296 0C       		.uleb128 0xc
 1102 0297 723600   		.ascii	"r6\000"
 1103 029a 07       		.byte	0x7
 1104 029b 2101     		.2byte	0x121
 1105 029d 59020000 		.4byte	0x259
 1106 02a1 08       		.byte	0x8
 1107 02a2 0C       		.uleb128 0xc
 1108 02a3 723700   		.ascii	"r7\000"
ARM GAS  /tmp/cchm2wPZ.s 			page 21


 1109 02a6 07       		.byte	0x7
 1110 02a7 2201     		.2byte	0x122
 1111 02a9 59020000 		.4byte	0x259
 1112 02ad 0C       		.byte	0xc
 1113 02ae 0C       		.uleb128 0xc
 1114 02af 723800   		.ascii	"r8\000"
 1115 02b2 07       		.byte	0x7
 1116 02b3 2301     		.2byte	0x123
 1117 02b5 59020000 		.4byte	0x259
 1118 02b9 10       		.byte	0x10
 1119 02ba 0C       		.uleb128 0xc
 1120 02bb 723900   		.ascii	"r9\000"
 1121 02be 07       		.byte	0x7
 1122 02bf 2401     		.2byte	0x124
 1123 02c1 59020000 		.4byte	0x259
 1124 02c5 14       		.byte	0x14
 1125 02c6 0C       		.uleb128 0xc
 1126 02c7 72313000 		.ascii	"r10\000"
 1127 02cb 07       		.byte	0x7
 1128 02cc 2501     		.2byte	0x125
 1129 02ce 59020000 		.4byte	0x259
 1130 02d2 18       		.byte	0x18
 1131 02d3 0C       		.uleb128 0xc
 1132 02d4 72313100 		.ascii	"r11\000"
 1133 02d8 07       		.byte	0x7
 1134 02d9 2601     		.2byte	0x126
 1135 02db 59020000 		.4byte	0x259
 1136 02df 1C       		.byte	0x1c
 1137 02e0 0C       		.uleb128 0xc
 1138 02e1 6C7200   		.ascii	"lr\000"
 1139 02e4 07       		.byte	0x7
 1140 02e5 2701     		.2byte	0x127
 1141 02e7 59020000 		.4byte	0x259
 1142 02eb 20       		.byte	0x20
 1143 02ec 00       		.byte	0
 1144 02ed 0B       		.uleb128 0xb
 1145 02ee 3D020000 		.4byte	.LASF48
 1146 02f2 04       		.byte	0x4
 1147 02f3 07       		.byte	0x7
 1148 02f4 3101     		.2byte	0x131
 1149 02f6 08030000 		.4byte	0x308
 1150 02fa 0C       		.uleb128 0xc
 1151 02fb 72313300 		.ascii	"r13\000"
 1152 02ff 07       		.byte	0x7
 1153 0300 3201     		.2byte	0x132
 1154 0302 08030000 		.4byte	0x308
 1155 0306 00       		.byte	0
 1156 0307 00       		.byte	0
 1157 0308 09       		.uleb128 0x9
 1158 0309 04       		.byte	0x4
 1159 030a 71020000 		.4byte	0x271
 1160 030e 03       		.uleb128 0x3
 1161 030f 04       		.byte	0x4
 1162 0310 07       		.byte	0x7
 1163 0311 01030000 		.4byte	.LASF49
 1164 0315 04       		.uleb128 0x4
 1165 0316 D3010000 		.4byte	.LASF50
ARM GAS  /tmp/cchm2wPZ.s 			page 22


 1166 031a 08       		.byte	0x8
 1167 031b 58       		.byte	0x58
 1168 031c 20030000 		.4byte	0x320
 1169 0320 09       		.uleb128 0x9
 1170 0321 04       		.byte	0x4
 1171 0322 26030000 		.4byte	0x326
 1172 0326 0D       		.uleb128 0xd
 1173 0327 31030000 		.4byte	0x331
 1174 032b 0E       		.uleb128 0xe
 1175 032c 64020000 		.4byte	0x264
 1176 0330 00       		.byte	0
 1177 0331 04       		.uleb128 0x4
 1178 0332 3B040000 		.4byte	.LASF51
 1179 0336 08       		.byte	0x8
 1180 0337 5D       		.byte	0x5d
 1181 0338 3C030000 		.4byte	0x33c
 1182 033c 05       		.uleb128 0x5
 1183 033d 3B040000 		.4byte	.LASF51
 1184 0341 14       		.byte	0x14
 1185 0342 08       		.byte	0x8
 1186 0343 64       		.byte	0x64
 1187 0344 85030000 		.4byte	0x385
 1188 0348 06       		.uleb128 0x6
 1189 0349 AF010000 		.4byte	.LASF52
 1190 034d 08       		.byte	0x8
 1191 034e 65       		.byte	0x65
 1192 034f 85030000 		.4byte	0x385
 1193 0353 00       		.byte	0
 1194 0354 06       		.uleb128 0x6
 1195 0355 89010000 		.4byte	.LASF53
 1196 0359 08       		.byte	0x8
 1197 035a 67       		.byte	0x67
 1198 035b 85030000 		.4byte	0x385
 1199 035f 04       		.byte	0x4
 1200 0360 06       		.uleb128 0x6
 1201 0361 F2020000 		.4byte	.LASF54
 1202 0365 08       		.byte	0x8
 1203 0366 69       		.byte	0x69
 1204 0367 01010000 		.4byte	0x101
 1205 036b 08       		.byte	0x8
 1206 036c 06       		.uleb128 0x6
 1207 036d 14030000 		.4byte	.LASF55
 1208 0371 08       		.byte	0x8
 1209 0372 6A       		.byte	0x6a
 1210 0373 15030000 		.4byte	0x315
 1211 0377 0C       		.byte	0xc
 1212 0378 06       		.uleb128 0x6
 1213 0379 BE040000 		.4byte	.LASF56
 1214 037d 08       		.byte	0x8
 1215 037e 6C       		.byte	0x6c
 1216 037f 64020000 		.4byte	0x264
 1217 0383 10       		.byte	0x10
 1218 0384 00       		.byte	0
 1219 0385 09       		.uleb128 0x9
 1220 0386 04       		.byte	0x4
 1221 0387 31030000 		.4byte	0x331
 1222 038b 08       		.uleb128 0x8
ARM GAS  /tmp/cchm2wPZ.s 			page 23


 1223 038c 10       		.byte	0x10
 1224 038d 08       		.byte	0x8
 1225 038e 76       		.byte	0x76
 1226 038f C4030000 		.4byte	0x3c4
 1227 0393 06       		.uleb128 0x6
 1228 0394 AF010000 		.4byte	.LASF52
 1229 0398 08       		.byte	0x8
 1230 0399 77       		.byte	0x77
 1231 039a 85030000 		.4byte	0x385
 1232 039e 00       		.byte	0
 1233 039f 06       		.uleb128 0x6
 1234 03a0 89010000 		.4byte	.LASF53
 1235 03a4 08       		.byte	0x8
 1236 03a5 79       		.byte	0x79
 1237 03a6 85030000 		.4byte	0x385
 1238 03aa 04       		.byte	0x4
 1239 03ab 06       		.uleb128 0x6
 1240 03ac F2020000 		.4byte	.LASF54
 1241 03b0 08       		.byte	0x8
 1242 03b1 7B       		.byte	0x7b
 1243 03b2 01010000 		.4byte	0x101
 1244 03b6 08       		.byte	0x8
 1245 03b7 06       		.uleb128 0x6
 1246 03b8 17050000 		.4byte	.LASF57
 1247 03bc 08       		.byte	0x8
 1248 03bd 7C       		.byte	0x7c
 1249 03be C4030000 		.4byte	0x3c4
 1250 03c2 0C       		.byte	0xc
 1251 03c3 00       		.byte	0
 1252 03c4 0F       		.uleb128 0xf
 1253 03c5 01010000 		.4byte	0x101
 1254 03c9 04       		.uleb128 0x4
 1255 03ca 22050000 		.4byte	.LASF58
 1256 03ce 08       		.byte	0x8
 1257 03cf 7D       		.byte	0x7d
 1258 03d0 8B030000 		.4byte	0x38b
 1259 03d4 08       		.uleb128 0x8
 1260 03d5 1C       		.byte	0x1c
 1261 03d6 09       		.byte	0x9
 1262 03d7 5E       		.byte	0x5e
 1263 03d8 25040000 		.4byte	0x425
 1264 03dc 06       		.uleb128 0x6
 1265 03dd 33040000 		.4byte	.LASF59
 1266 03e1 09       		.byte	0x9
 1267 03e2 5F       		.byte	0x5f
 1268 03e3 2E020000 		.4byte	0x22e
 1269 03e7 00       		.byte	0
 1270 03e8 06       		.uleb128 0x6
 1271 03e9 FB030000 		.4byte	.LASF60
 1272 03ed 09       		.byte	0x9
 1273 03ee 60       		.byte	0x60
 1274 03ef E0000000 		.4byte	0xe0
 1275 03f3 08       		.byte	0x8
 1276 03f4 06       		.uleb128 0x6
 1277 03f5 42030000 		.4byte	.LASF61
 1278 03f9 09       		.byte	0x9
 1279 03fa 62       		.byte	0x62
ARM GAS  /tmp/cchm2wPZ.s 			page 24


 1280 03fb ED020000 		.4byte	0x2ed
 1281 03ff 0C       		.byte	0xc
 1282 0400 06       		.uleb128 0x6
 1283 0401 6A020000 		.4byte	.LASF62
 1284 0405 09       		.byte	0x9
 1285 0406 65       		.byte	0x65
 1286 0407 28020000 		.4byte	0x228
 1287 040b 10       		.byte	0x10
 1288 040c 06       		.uleb128 0x6
 1289 040d 5F030000 		.4byte	.LASF63
 1290 0411 09       		.byte	0x9
 1291 0412 66       		.byte	0x66
 1292 0413 28020000 		.4byte	0x228
 1293 0417 14       		.byte	0x14
 1294 0418 06       		.uleb128 0x6
 1295 0419 55030000 		.4byte	.LASF64
 1296 041d 09       		.byte	0x9
 1297 041e 69       		.byte	0x69
 1298 041f 28020000 		.4byte	0x228
 1299 0423 18       		.byte	0x18
 1300 0424 00       		.byte	0
 1301 0425 04       		.uleb128 0x4
 1302 0426 C5040000 		.4byte	.LASF65
 1303 042a 09       		.byte	0x9
 1304 042b 6B       		.byte	0x6b
 1305 042c D4030000 		.4byte	0x3d4
 1306 0430 05       		.uleb128 0x5
 1307 0431 E1020000 		.4byte	.LASF66
 1308 0435 10       		.byte	0x10
 1309 0436 0A       		.byte	0xa
 1310 0437 2C       		.byte	0x2c
 1311 0438 61040000 		.4byte	0x461
 1312 043c 06       		.uleb128 0x6
 1313 043d 45010000 		.4byte	.LASF67
 1314 0441 0A       		.byte	0xa
 1315 0442 2D       		.byte	0x2d
 1316 0443 2E020000 		.4byte	0x22e
 1317 0447 00       		.byte	0
 1318 0448 06       		.uleb128 0x6
 1319 0449 3B050000 		.4byte	.LASF68
 1320 044d 0A       		.byte	0xa
 1321 044e 2F       		.byte	0x2f
 1322 044f 28020000 		.4byte	0x228
 1323 0453 08       		.byte	0x8
 1324 0454 06       		.uleb128 0x6
 1325 0455 4D040000 		.4byte	.LASF69
 1326 0459 0A       		.byte	0xa
 1327 045a 31       		.byte	0x31
 1328 045b 61040000 		.4byte	0x461
 1329 045f 0C       		.byte	0xc
 1330 0460 00       		.byte	0
 1331 0461 09       		.uleb128 0x9
 1332 0462 04       		.byte	0x4
 1333 0463 30040000 		.4byte	0x430
 1334 0467 04       		.uleb128 0x4
 1335 0468 E1020000 		.4byte	.LASF66
 1336 046c 0A       		.byte	0xa
ARM GAS  /tmp/cchm2wPZ.s 			page 25


 1337 046d 33       		.byte	0x33
 1338 046e 30040000 		.4byte	0x430
 1339 0472 10       		.uleb128 0x10
 1340 0473 04       		.byte	0x4
 1341 0474 06       		.byte	0x6
 1342 0475 96       		.byte	0x96
 1343 0476 A7040000 		.4byte	0x4a7
 1344 047a 11       		.uleb128 0x11
 1345 047b 11000000 		.4byte	.LASF70
 1346 047f 06       		.byte	0x6
 1347 0480 9D       		.byte	0x9d
 1348 0481 EB000000 		.4byte	0xeb
 1349 0485 11       		.uleb128 0x11
 1350 0486 01010000 		.4byte	.LASF71
 1351 048a 06       		.byte	0x6
 1352 048b A4       		.byte	0xa4
 1353 048c EB000000 		.4byte	0xeb
 1354 0490 11       		.uleb128 0x11
 1355 0491 09050000 		.4byte	.LASF72
 1356 0495 06       		.byte	0x6
 1357 0496 AB       		.byte	0xab
 1358 0497 64020000 		.4byte	0x264
 1359 049b 11       		.uleb128 0x11
 1360 049c 02040000 		.4byte	.LASF73
 1361 04a0 06       		.byte	0x6
 1362 04a1 B2       		.byte	0xb2
 1363 04a2 F6000000 		.4byte	0xf6
 1364 04a6 00       		.byte	0
 1365 04a7 09       		.uleb128 0x9
 1366 04a8 04       		.byte	0x4
 1367 04a9 AD040000 		.4byte	0x4ad
 1368 04ad 12       		.uleb128 0x12
 1369 04ae B2040000 		.4byte	0x4b2
 1370 04b2 03       		.uleb128 0x3
 1371 04b3 01       		.byte	0x1
 1372 04b4 08       		.byte	0x8
 1373 04b5 48040000 		.4byte	.LASF74
 1374 04b9 09       		.uleb128 0x9
 1375 04ba 04       		.byte	0x4
 1376 04bb 66020000 		.4byte	0x266
 1377 04bf 09       		.uleb128 0x9
 1378 04c0 04       		.byte	0x4
 1379 04c1 67040000 		.4byte	0x467
 1380 04c5 08       		.uleb128 0x8
 1381 04c6 10       		.byte	0x10
 1382 04c7 0B       		.byte	0xb
 1383 04c8 71       		.byte	0x71
 1384 04c9 FE040000 		.4byte	0x4fe
 1385 04cd 06       		.uleb128 0x6
 1386 04ce 94030000 		.4byte	.LASF75
 1387 04d2 0B       		.byte	0xb
 1388 04d3 72       		.byte	0x72
 1389 04d4 01010000 		.4byte	0x101
 1390 04d8 00       		.byte	0
 1391 04d9 06       		.uleb128 0x6
 1392 04da 5F010000 		.4byte	.LASF76
 1393 04de 0B       		.byte	0xb
ARM GAS  /tmp/cchm2wPZ.s 			page 26


 1394 04df 73       		.byte	0x73
 1395 04e0 28020000 		.4byte	0x228
 1396 04e4 04       		.byte	0x4
 1397 04e5 06       		.uleb128 0x6
 1398 04e6 43050000 		.4byte	.LASF77
 1399 04ea 0B       		.byte	0xb
 1400 04eb 74       		.byte	0x74
 1401 04ec 64020000 		.4byte	0x264
 1402 04f0 08       		.byte	0x8
 1403 04f1 06       		.uleb128 0x6
 1404 04f2 F8000000 		.4byte	.LASF78
 1405 04f6 0B       		.byte	0xb
 1406 04f7 75       		.byte	0x75
 1407 04f8 97000000 		.4byte	0x97
 1408 04fc 0C       		.byte	0xc
 1409 04fd 00       		.byte	0
 1410 04fe 04       		.uleb128 0x4
 1411 04ff 2B030000 		.4byte	.LASF79
 1412 0503 0B       		.byte	0xb
 1413 0504 76       		.byte	0x76
 1414 0505 C5040000 		.4byte	0x4c5
 1415 0509 13       		.uleb128 0x13
 1416 050a 0804     		.2byte	0x408
 1417 050c 0B       		.byte	0xb
 1418 050d 7B       		.byte	0x7b
 1419 050e 37050000 		.4byte	0x537
 1420 0512 06       		.uleb128 0x6
 1421 0513 6D010000 		.4byte	.LASF80
 1422 0517 0B       		.byte	0xb
 1423 0518 7C       		.byte	0x7c
 1424 0519 2C000000 		.4byte	0x2c
 1425 051d 00       		.byte	0
 1426 051e 06       		.uleb128 0x6
 1427 051f FA020000 		.4byte	.LASF81
 1428 0523 0B       		.byte	0xb
 1429 0524 7D       		.byte	0x7d
 1430 0525 37050000 		.4byte	0x537
 1431 0529 04       		.byte	0x4
 1432 052a 06       		.uleb128 0x6
 1433 052b 9C030000 		.4byte	.LASF82
 1434 052f 0B       		.byte	0xb
 1435 0530 7F       		.byte	0x7f
 1436 0531 3D050000 		.4byte	0x53d
 1437 0535 08       		.byte	0x8
 1438 0536 00       		.byte	0
 1439 0537 09       		.uleb128 0x9
 1440 0538 04       		.byte	0x4
 1441 0539 FE040000 		.4byte	0x4fe
 1442 053d 14       		.uleb128 0x14
 1443 053e FE040000 		.4byte	0x4fe
 1444 0542 4D050000 		.4byte	0x54d
 1445 0546 15       		.uleb128 0x15
 1446 0547 0E030000 		.4byte	0x30e
 1447 054b 3F       		.byte	0x3f
 1448 054c 00       		.byte	0
 1449 054d 04       		.uleb128 0x4
 1450 054e E6000000 		.4byte	.LASF83
ARM GAS  /tmp/cchm2wPZ.s 			page 27


 1451 0552 0B       		.byte	0xb
 1452 0553 80       		.byte	0x80
 1453 0554 09050000 		.4byte	0x509
 1454 0558 16       		.uleb128 0x16
 1455 0559 06000000 		.4byte	.LASF105
 1456 055d 01       		.byte	0x1
 1457 055e 0F01     		.2byte	0x10f
 1458 0560 01       		.byte	0x1
 1459 0561 72050000 		.4byte	0x572
 1460 0565 17       		.uleb128 0x17
 1461 0566 6D736700 		.ascii	"msg\000"
 1462 056a 01       		.byte	0x1
 1463 056b 0F01     		.2byte	0x10f
 1464 056d A7040000 		.4byte	0x4a7
 1465 0571 00       		.byte	0
 1466 0572 18       		.uleb128 0x18
 1467 0573 29050000 		.4byte	.LASF84
 1468 0577 01       		.byte	0x1
 1469 0578 51       		.byte	0x51
 1470 0579 00000000 		.4byte	.LFB0
 1471 057d 30000000 		.4byte	.LFE0-.LFB0
 1472 0581 01       		.uleb128 0x1
 1473 0582 9C       		.byte	0x9c
 1474 0583 AA050000 		.4byte	0x5aa
 1475 0587 19       		.uleb128 0x19
 1476 0588 58050000 		.4byte	0x558
 1477 058c 18000000 		.4byte	.LBB24
 1478 0590 18000000 		.4byte	.LBE24-.LBB24
 1479 0594 01       		.byte	0x1
 1480 0595 54       		.byte	0x54
 1481 0596 1A       		.uleb128 0x1a
 1482 0597 65050000 		.4byte	0x565
 1483 059b 00000000 		.4byte	.LLST0
 1484 059f 1B       		.uleb128 0x1b
 1485 05a0 2E000000 		.4byte	.LVL1
 1486 05a4 9D080000 		.4byte	0x89d
 1487 05a8 00       		.byte	0
 1488 05a9 00       		.byte	0
 1489 05aa 18       		.uleb128 0x18
 1490 05ab DC010000 		.4byte	.LASF85
 1491 05af 01       		.byte	0x1
 1492 05b0 5C       		.byte	0x5c
 1493 05b1 00000000 		.4byte	.LFB1
 1494 05b5 30000000 		.4byte	.LFE1-.LFB1
 1495 05b9 01       		.uleb128 0x1
 1496 05ba 9C       		.byte	0x9c
 1497 05bb E2050000 		.4byte	0x5e2
 1498 05bf 19       		.uleb128 0x19
 1499 05c0 58050000 		.4byte	0x558
 1500 05c4 18000000 		.4byte	.LBB26
 1501 05c8 18000000 		.4byte	.LBE26-.LBB26
 1502 05cc 01       		.byte	0x1
 1503 05cd 5F       		.byte	0x5f
 1504 05ce 1A       		.uleb128 0x1a
 1505 05cf 65050000 		.4byte	0x565
 1506 05d3 18000000 		.4byte	.LLST1
 1507 05d7 1B       		.uleb128 0x1b
ARM GAS  /tmp/cchm2wPZ.s 			page 28


 1508 05d8 2E000000 		.4byte	.LVL3
 1509 05dc 9D080000 		.4byte	0x89d
 1510 05e0 00       		.byte	0
 1511 05e1 00       		.byte	0
 1512 05e2 18       		.uleb128 0x18
 1513 05e3 AD040000 		.4byte	.LASF86
 1514 05e7 01       		.byte	0x1
 1515 05e8 67       		.byte	0x67
 1516 05e9 00000000 		.4byte	.LFB2
 1517 05ed 30000000 		.4byte	.LFE2-.LFB2
 1518 05f1 01       		.uleb128 0x1
 1519 05f2 9C       		.byte	0x9c
 1520 05f3 1A060000 		.4byte	0x61a
 1521 05f7 19       		.uleb128 0x19
 1522 05f8 58050000 		.4byte	0x558
 1523 05fc 18000000 		.4byte	.LBB28
 1524 0600 18000000 		.4byte	.LBE28-.LBB28
 1525 0604 01       		.byte	0x1
 1526 0605 6A       		.byte	0x6a
 1527 0606 1A       		.uleb128 0x1a
 1528 0607 65050000 		.4byte	0x565
 1529 060b 30000000 		.4byte	.LLST2
 1530 060f 1B       		.uleb128 0x1b
 1531 0610 2E000000 		.4byte	.LVL5
 1532 0614 9D080000 		.4byte	0x89d
 1533 0618 00       		.byte	0
 1534 0619 00       		.byte	0
 1535 061a 18       		.uleb128 0x18
 1536 061b 1C030000 		.4byte	.LASF87
 1537 061f 01       		.byte	0x1
 1538 0620 72       		.byte	0x72
 1539 0621 00000000 		.4byte	.LFB3
 1540 0625 36000000 		.4byte	.LFE3-.LFB3
 1541 0629 01       		.uleb128 0x1
 1542 062a 9C       		.byte	0x9c
 1543 062b 52060000 		.4byte	0x652
 1544 062f 19       		.uleb128 0x19
 1545 0630 58050000 		.4byte	0x558
 1546 0634 1A000000 		.4byte	.LBB30
 1547 0638 16000000 		.4byte	.LBE30-.LBB30
 1548 063c 01       		.byte	0x1
 1549 063d 75       		.byte	0x75
 1550 063e 1A       		.uleb128 0x1a
 1551 063f 65050000 		.4byte	0x565
 1552 0643 48000000 		.4byte	.LLST3
 1553 0647 1C       		.uleb128 0x1c
 1554 0648 30000000 		.4byte	.LVL7
 1555 064c 9D080000 		.4byte	0x89d
 1556 0650 00       		.byte	0
 1557 0651 00       		.byte	0
 1558 0652 18       		.uleb128 0x18
 1559 0653 67030000 		.4byte	.LASF88
 1560 0657 01       		.byte	0x1
 1561 0658 7E       		.byte	0x7e
 1562 0659 00000000 		.4byte	.LFB4
 1563 065d 3E000000 		.4byte	.LFE4-.LFB4
 1564 0661 01       		.uleb128 0x1
ARM GAS  /tmp/cchm2wPZ.s 			page 29


 1565 0662 9C       		.byte	0x9c
 1566 0663 8D060000 		.4byte	0x68d
 1567 0667 19       		.uleb128 0x19
 1568 0668 58050000 		.4byte	0x558
 1569 066c 22000000 		.4byte	.LBB32
 1570 0670 16000000 		.4byte	.LBE32-.LBB32
 1571 0674 01       		.byte	0x1
 1572 0675 81       		.byte	0x81
 1573 0676 1D       		.uleb128 0x1d
 1574 0677 65050000 		.4byte	0x565
 1575 067b 06       		.uleb128 0x6
 1576 067c 03       		.byte	0x3
 1577 067d 20000000 		.4byte	.LC4
 1578 0681 9F       		.byte	0x9f
 1579 0682 1C       		.uleb128 0x1c
 1580 0683 38000000 		.4byte	.LVL9
 1581 0687 9D080000 		.4byte	0x89d
 1582 068b 00       		.byte	0
 1583 068c 00       		.byte	0
 1584 068d 18       		.uleb128 0x18
 1585 068e F1040000 		.4byte	.LASF89
 1586 0692 01       		.byte	0x1
 1587 0693 8A       		.byte	0x8a
 1588 0694 00000000 		.4byte	.LFB5
 1589 0698 38000000 		.4byte	.LFE5-.LFB5
 1590 069c 01       		.uleb128 0x1
 1591 069d 9C       		.byte	0x9c
 1592 069e C5060000 		.4byte	0x6c5
 1593 06a2 19       		.uleb128 0x19
 1594 06a3 58050000 		.4byte	0x558
 1595 06a7 1C000000 		.4byte	.LBB34
 1596 06ab 16000000 		.4byte	.LBE34-.LBB34
 1597 06af 01       		.byte	0x1
 1598 06b0 8D       		.byte	0x8d
 1599 06b1 1A       		.uleb128 0x1a
 1600 06b2 65050000 		.4byte	0x565
 1601 06b6 60000000 		.4byte	.LLST4
 1602 06ba 1C       		.uleb128 0x1c
 1603 06bb 32000000 		.4byte	.LVL11
 1604 06bf 9D080000 		.4byte	0x89d
 1605 06c3 00       		.byte	0
 1606 06c4 00       		.byte	0
 1607 06c5 18       		.uleb128 0x18
 1608 06c6 2B010000 		.4byte	.LASF90
 1609 06ca 01       		.byte	0x1
 1610 06cb 96       		.byte	0x96
 1611 06cc 00000000 		.4byte	.LFB6
 1612 06d0 40000000 		.4byte	.LFE6-.LFB6
 1613 06d4 01       		.uleb128 0x1
 1614 06d5 9C       		.byte	0x9c
 1615 06d6 00070000 		.4byte	0x700
 1616 06da 19       		.uleb128 0x19
 1617 06db 58050000 		.4byte	0x558
 1618 06df 24000000 		.4byte	.LBB36
 1619 06e3 16000000 		.4byte	.LBE36-.LBB36
 1620 06e7 01       		.byte	0x1
 1621 06e8 99       		.byte	0x99
ARM GAS  /tmp/cchm2wPZ.s 			page 30


 1622 06e9 1D       		.uleb128 0x1d
 1623 06ea 65050000 		.4byte	0x565
 1624 06ee 06       		.uleb128 0x6
 1625 06ef 03       		.byte	0x3
 1626 06f0 30000000 		.4byte	.LC6
 1627 06f4 9F       		.byte	0x9f
 1628 06f5 1C       		.uleb128 0x1c
 1629 06f6 3A000000 		.4byte	.LVL13
 1630 06fa 9D080000 		.4byte	0x89d
 1631 06fe 00       		.byte	0
 1632 06ff 00       		.byte	0
 1633 0700 18       		.uleb128 0x18
 1634 0701 CF040000 		.4byte	.LASF91
 1635 0705 01       		.byte	0x1
 1636 0706 A2       		.byte	0xa2
 1637 0707 00000000 		.4byte	.LFB7
 1638 070b 42000000 		.4byte	.LFE7-.LFB7
 1639 070f 01       		.uleb128 0x1
 1640 0710 9C       		.byte	0x9c
 1641 0711 38070000 		.4byte	0x738
 1642 0715 19       		.uleb128 0x19
 1643 0716 58050000 		.4byte	0x558
 1644 071a 20000000 		.4byte	.LBB38
 1645 071e 18000000 		.4byte	.LBE38-.LBB38
 1646 0722 01       		.byte	0x1
 1647 0723 A6       		.byte	0xa6
 1648 0724 1A       		.uleb128 0x1a
 1649 0725 65050000 		.4byte	0x565
 1650 0729 78000000 		.4byte	.LLST5
 1651 072d 1C       		.uleb128 0x1c
 1652 072e 36000000 		.4byte	.LVL15
 1653 0732 9D080000 		.4byte	0x89d
 1654 0736 00       		.byte	0
 1655 0737 00       		.byte	0
 1656 0738 18       		.uleb128 0x18
 1657 0739 87040000 		.4byte	.LASF92
 1658 073d 01       		.byte	0x1
 1659 073e B0       		.byte	0xb0
 1660 073f 00000000 		.4byte	.LFB8
 1661 0743 42000000 		.4byte	.LFE8-.LFB8
 1662 0747 01       		.uleb128 0x1
 1663 0748 9C       		.byte	0x9c
 1664 0749 70070000 		.4byte	0x770
 1665 074d 19       		.uleb128 0x19
 1666 074e 58050000 		.4byte	0x558
 1667 0752 20000000 		.4byte	.LBB40
 1668 0756 18000000 		.4byte	.LBE40-.LBB40
 1669 075a 01       		.byte	0x1
 1670 075b B4       		.byte	0xb4
 1671 075c 1A       		.uleb128 0x1a
 1672 075d 65050000 		.4byte	0x565
 1673 0761 90000000 		.4byte	.LLST6
 1674 0765 1C       		.uleb128 0x1c
 1675 0766 36000000 		.4byte	.LVL18
 1676 076a 9D080000 		.4byte	0x89d
 1677 076e 00       		.byte	0
 1678 076f 00       		.byte	0
ARM GAS  /tmp/cchm2wPZ.s 			page 31


 1679 0770 18       		.uleb128 0x18
 1680 0771 72020000 		.4byte	.LASF93
 1681 0775 01       		.byte	0x1
 1682 0776 C1       		.byte	0xc1
 1683 0777 00000000 		.4byte	.LFB9
 1684 077b 34000000 		.4byte	.LFE9-.LFB9
 1685 077f 01       		.uleb128 0x1
 1686 0780 9C       		.byte	0x9c
 1687 0781 AB070000 		.4byte	0x7ab
 1688 0785 19       		.uleb128 0x19
 1689 0786 58050000 		.4byte	0x558
 1690 078a 1E000000 		.4byte	.LBB42
 1691 078e 16000000 		.4byte	.LBE42-.LBB42
 1692 0792 01       		.byte	0x1
 1693 0793 C4       		.byte	0xc4
 1694 0794 1D       		.uleb128 0x1d
 1695 0795 65050000 		.4byte	0x565
 1696 0799 06       		.uleb128 0x6
 1697 079a 03       		.byte	0x3
 1698 079b 48000000 		.4byte	.LC9
 1699 079f 9F       		.byte	0x9f
 1700 07a0 1B       		.uleb128 0x1b
 1701 07a1 34000000 		.4byte	.LVL21
 1702 07a5 9D080000 		.4byte	0x89d
 1703 07a9 00       		.byte	0
 1704 07aa 00       		.byte	0
 1705 07ab 18       		.uleb128 0x18
 1706 07ac B8020000 		.4byte	.LASF94
 1707 07b0 01       		.byte	0x1
 1708 07b1 CF       		.byte	0xcf
 1709 07b2 00000000 		.4byte	.LFB10
 1710 07b6 32000000 		.4byte	.LFE10-.LFB10
 1711 07ba 01       		.uleb128 0x1
 1712 07bb 9C       		.byte	0x9c
 1713 07bc E6070000 		.4byte	0x7e6
 1714 07c0 19       		.uleb128 0x19
 1715 07c1 58050000 		.4byte	0x558
 1716 07c5 1C000000 		.4byte	.LBB44
 1717 07c9 16000000 		.4byte	.LBE44-.LBB44
 1718 07cd 01       		.byte	0x1
 1719 07ce D2       		.byte	0xd2
 1720 07cf 1D       		.uleb128 0x1d
 1721 07d0 65050000 		.4byte	0x565
 1722 07d4 06       		.uleb128 0x6
 1723 07d5 03       		.byte	0x3
 1724 07d6 50000000 		.4byte	.LC10
 1725 07da 9F       		.byte	0x9f
 1726 07db 1B       		.uleb128 0x1b
 1727 07dc 32000000 		.4byte	.LVL23
 1728 07e0 9D080000 		.4byte	0x89d
 1729 07e4 00       		.byte	0
 1730 07e5 00       		.byte	0
 1731 07e6 1E       		.uleb128 0x1e
 1732 07e7 58020000 		.4byte	.LASF106
 1733 07eb 01       		.byte	0x1
 1734 07ec E5       		.byte	0xe5
 1735 07ed 00000000 		.4byte	.LFB11
ARM GAS  /tmp/cchm2wPZ.s 			page 32


 1736 07f1 14000000 		.4byte	.LFE11-.LFB11
 1737 07f5 01       		.uleb128 0x1
 1738 07f6 9C       		.byte	0x9c
 1739 07f7 18       		.uleb128 0x18
 1740 07f8 B7010000 		.4byte	.LASF95
 1741 07fc 01       		.byte	0x1
 1742 07fd F2       		.byte	0xf2
 1743 07fe 00000000 		.4byte	.LFB12
 1744 0802 48000000 		.4byte	.LFE12-.LFB12
 1745 0806 01       		.uleb128 0x1
 1746 0807 9C       		.byte	0x9c
 1747 0808 1C080000 		.4byte	0x81c
 1748 080c 1F       		.uleb128 0x1f
 1749 080d 6F747000 		.ascii	"otp\000"
 1750 0811 01       		.byte	0x1
 1751 0812 F2       		.byte	0xf2
 1752 0813 28020000 		.4byte	0x228
 1753 0817 A8000000 		.4byte	.LLST7
 1754 081b 00       		.byte	0
 1755 081c 20       		.uleb128 0x20
 1756 081d 58050000 		.4byte	0x558
 1757 0821 00000000 		.4byte	.LFB13
 1758 0825 0E000000 		.4byte	.LFE13-.LFB13
 1759 0829 01       		.uleb128 0x1
 1760 082a 9C       		.byte	0x9c
 1761 082b 42080000 		.4byte	0x842
 1762 082f 1A       		.uleb128 0x1a
 1763 0830 65050000 		.4byte	0x565
 1764 0834 C9000000 		.4byte	.LLST8
 1765 0838 1B       		.uleb128 0x1b
 1766 0839 0E000000 		.4byte	.LVL27
 1767 083d 9D080000 		.4byte	0x89d
 1768 0841 00       		.byte	0
 1769 0842 21       		.uleb128 0x21
 1770 0843 2B000000 		.4byte	.LASF96
 1771 0847 08       		.byte	0x8
 1772 0848 F5       		.byte	0xf5
 1773 0849 C9030000 		.4byte	0x3c9
 1774 084d 21       		.uleb128 0x21
 1775 084e E3040000 		.4byte	.LASF97
 1776 0852 09       		.byte	0x9
 1777 0853 6F       		.byte	0x6f
 1778 0854 25040000 		.4byte	0x425
 1779 0858 22       		.uleb128 0x22
 1780 0859 83030000 		.4byte	.LASF98
 1781 085d 01       		.byte	0x1
 1782 085e DF       		.byte	0xdf
 1783 085f 4D050000 		.4byte	0x54d
 1784 0863 05       		.uleb128 0x5
 1785 0864 03       		.byte	0x3
 1786 0865 00000000 		.4byte	dbg_trace_buffer
 1787 0869 22       		.uleb128 0x22
 1788 086a AC020000 		.4byte	.LASF99
 1789 086e 01       		.byte	0x1
 1790 086f 45       		.byte	0x45
 1791 0870 0C010000 		.4byte	0x10c
 1792 0874 05       		.uleb128 0x5
ARM GAS  /tmp/cchm2wPZ.s 			page 33


 1793 0875 03       		.byte	0x3
 1794 0876 00000000 		.4byte	dbg_isr_cnt
 1795 087a 22       		.uleb128 0x22
 1796 087b 73040000 		.4byte	.LASF100
 1797 087f 01       		.byte	0x1
 1798 0880 4A       		.byte	0x4a
 1799 0881 0C010000 		.4byte	0x10c
 1800 0885 05       		.uleb128 0x5
 1801 0886 03       		.byte	0x3
 1802 0887 00000000 		.4byte	dbg_lock_cnt
 1803 088b 23       		.uleb128 0x23
 1804 088c D1030000 		.4byte	.LASF101
 1805 0890 01       		.byte	0x1
 1806 0891 0801     		.2byte	0x108
 1807 0893 A7040000 		.4byte	0x4a7
 1808 0897 05       		.uleb128 0x5
 1809 0898 03       		.byte	0x3
 1810 0899 00000000 		.4byte	dbg_panic_msg
 1811 089d 24       		.uleb128 0x24
 1812 089e 0A030000 		.4byte	.LASF107
 1813 08a2 07       		.byte	0x7
 1814 08a3 0102     		.2byte	0x201
 1815 08a5 00       		.byte	0
 1816              		.section	.debug_abbrev,"",%progbits
 1817              	.Ldebug_abbrev0:
 1818 0000 01       		.uleb128 0x1
 1819 0001 11       		.uleb128 0x11
 1820 0002 01       		.byte	0x1
 1821 0003 25       		.uleb128 0x25
 1822 0004 0E       		.uleb128 0xe
 1823 0005 13       		.uleb128 0x13
 1824 0006 0B       		.uleb128 0xb
 1825 0007 03       		.uleb128 0x3
 1826 0008 0E       		.uleb128 0xe
 1827 0009 1B       		.uleb128 0x1b
 1828 000a 0E       		.uleb128 0xe
 1829 000b 55       		.uleb128 0x55
 1830 000c 17       		.uleb128 0x17
 1831 000d 11       		.uleb128 0x11
 1832 000e 01       		.uleb128 0x1
 1833 000f 10       		.uleb128 0x10
 1834 0010 17       		.uleb128 0x17
 1835 0011 00       		.byte	0
 1836 0012 00       		.byte	0
 1837 0013 02       		.uleb128 0x2
 1838 0014 24       		.uleb128 0x24
 1839 0015 00       		.byte	0
 1840 0016 0B       		.uleb128 0xb
 1841 0017 0B       		.uleb128 0xb
 1842 0018 3E       		.uleb128 0x3e
 1843 0019 0B       		.uleb128 0xb
 1844 001a 03       		.uleb128 0x3
 1845 001b 08       		.uleb128 0x8
 1846 001c 00       		.byte	0
 1847 001d 00       		.byte	0
 1848 001e 03       		.uleb128 0x3
 1849 001f 24       		.uleb128 0x24
ARM GAS  /tmp/cchm2wPZ.s 			page 34


 1850 0020 00       		.byte	0
 1851 0021 0B       		.uleb128 0xb
 1852 0022 0B       		.uleb128 0xb
 1853 0023 3E       		.uleb128 0x3e
 1854 0024 0B       		.uleb128 0xb
 1855 0025 03       		.uleb128 0x3
 1856 0026 0E       		.uleb128 0xe
 1857 0027 00       		.byte	0
 1858 0028 00       		.byte	0
 1859 0029 04       		.uleb128 0x4
 1860 002a 16       		.uleb128 0x16
 1861 002b 00       		.byte	0
 1862 002c 03       		.uleb128 0x3
 1863 002d 0E       		.uleb128 0xe
 1864 002e 3A       		.uleb128 0x3a
 1865 002f 0B       		.uleb128 0xb
 1866 0030 3B       		.uleb128 0x3b
 1867 0031 0B       		.uleb128 0xb
 1868 0032 49       		.uleb128 0x49
 1869 0033 13       		.uleb128 0x13
 1870 0034 00       		.byte	0
 1871 0035 00       		.byte	0
 1872 0036 05       		.uleb128 0x5
 1873 0037 13       		.uleb128 0x13
 1874 0038 01       		.byte	0x1
 1875 0039 03       		.uleb128 0x3
 1876 003a 0E       		.uleb128 0xe
 1877 003b 0B       		.uleb128 0xb
 1878 003c 0B       		.uleb128 0xb
 1879 003d 3A       		.uleb128 0x3a
 1880 003e 0B       		.uleb128 0xb
 1881 003f 3B       		.uleb128 0x3b
 1882 0040 0B       		.uleb128 0xb
 1883 0041 01       		.uleb128 0x1
 1884 0042 13       		.uleb128 0x13
 1885 0043 00       		.byte	0
 1886 0044 00       		.byte	0
 1887 0045 06       		.uleb128 0x6
 1888 0046 0D       		.uleb128 0xd
 1889 0047 00       		.byte	0
 1890 0048 03       		.uleb128 0x3
 1891 0049 0E       		.uleb128 0xe
 1892 004a 3A       		.uleb128 0x3a
 1893 004b 0B       		.uleb128 0xb
 1894 004c 3B       		.uleb128 0x3b
 1895 004d 0B       		.uleb128 0xb
 1896 004e 49       		.uleb128 0x49
 1897 004f 13       		.uleb128 0x13
 1898 0050 38       		.uleb128 0x38
 1899 0051 0B       		.uleb128 0xb
 1900 0052 00       		.byte	0
 1901 0053 00       		.byte	0
 1902 0054 07       		.uleb128 0x7
 1903 0055 0D       		.uleb128 0xd
 1904 0056 00       		.byte	0
 1905 0057 03       		.uleb128 0x3
 1906 0058 08       		.uleb128 0x8
ARM GAS  /tmp/cchm2wPZ.s 			page 35


 1907 0059 3A       		.uleb128 0x3a
 1908 005a 0B       		.uleb128 0xb
 1909 005b 3B       		.uleb128 0x3b
 1910 005c 0B       		.uleb128 0xb
 1911 005d 49       		.uleb128 0x49
 1912 005e 13       		.uleb128 0x13
 1913 005f 38       		.uleb128 0x38
 1914 0060 0B       		.uleb128 0xb
 1915 0061 00       		.byte	0
 1916 0062 00       		.byte	0
 1917 0063 08       		.uleb128 0x8
 1918 0064 13       		.uleb128 0x13
 1919 0065 01       		.byte	0x1
 1920 0066 0B       		.uleb128 0xb
 1921 0067 0B       		.uleb128 0xb
 1922 0068 3A       		.uleb128 0x3a
 1923 0069 0B       		.uleb128 0xb
 1924 006a 3B       		.uleb128 0x3b
 1925 006b 0B       		.uleb128 0xb
 1926 006c 01       		.uleb128 0x1
 1927 006d 13       		.uleb128 0x13
 1928 006e 00       		.byte	0
 1929 006f 00       		.byte	0
 1930 0070 09       		.uleb128 0x9
 1931 0071 0F       		.uleb128 0xf
 1932 0072 00       		.byte	0
 1933 0073 0B       		.uleb128 0xb
 1934 0074 0B       		.uleb128 0xb
 1935 0075 49       		.uleb128 0x49
 1936 0076 13       		.uleb128 0x13
 1937 0077 00       		.byte	0
 1938 0078 00       		.byte	0
 1939 0079 0A       		.uleb128 0xa
 1940 007a 0F       		.uleb128 0xf
 1941 007b 00       		.byte	0
 1942 007c 0B       		.uleb128 0xb
 1943 007d 0B       		.uleb128 0xb
 1944 007e 00       		.byte	0
 1945 007f 00       		.byte	0
 1946 0080 0B       		.uleb128 0xb
 1947 0081 13       		.uleb128 0x13
 1948 0082 01       		.byte	0x1
 1949 0083 03       		.uleb128 0x3
 1950 0084 0E       		.uleb128 0xe
 1951 0085 0B       		.uleb128 0xb
 1952 0086 0B       		.uleb128 0xb
 1953 0087 3A       		.uleb128 0x3a
 1954 0088 0B       		.uleb128 0xb
 1955 0089 3B       		.uleb128 0x3b
 1956 008a 05       		.uleb128 0x5
 1957 008b 01       		.uleb128 0x1
 1958 008c 13       		.uleb128 0x13
 1959 008d 00       		.byte	0
 1960 008e 00       		.byte	0
 1961 008f 0C       		.uleb128 0xc
 1962 0090 0D       		.uleb128 0xd
 1963 0091 00       		.byte	0
ARM GAS  /tmp/cchm2wPZ.s 			page 36


 1964 0092 03       		.uleb128 0x3
 1965 0093 08       		.uleb128 0x8
 1966 0094 3A       		.uleb128 0x3a
 1967 0095 0B       		.uleb128 0xb
 1968 0096 3B       		.uleb128 0x3b
 1969 0097 05       		.uleb128 0x5
 1970 0098 49       		.uleb128 0x49
 1971 0099 13       		.uleb128 0x13
 1972 009a 38       		.uleb128 0x38
 1973 009b 0B       		.uleb128 0xb
 1974 009c 00       		.byte	0
 1975 009d 00       		.byte	0
 1976 009e 0D       		.uleb128 0xd
 1977 009f 15       		.uleb128 0x15
 1978 00a0 01       		.byte	0x1
 1979 00a1 27       		.uleb128 0x27
 1980 00a2 19       		.uleb128 0x19
 1981 00a3 01       		.uleb128 0x1
 1982 00a4 13       		.uleb128 0x13
 1983 00a5 00       		.byte	0
 1984 00a6 00       		.byte	0
 1985 00a7 0E       		.uleb128 0xe
 1986 00a8 05       		.uleb128 0x5
 1987 00a9 00       		.byte	0
 1988 00aa 49       		.uleb128 0x49
 1989 00ab 13       		.uleb128 0x13
 1990 00ac 00       		.byte	0
 1991 00ad 00       		.byte	0
 1992 00ae 0F       		.uleb128 0xf
 1993 00af 35       		.uleb128 0x35
 1994 00b0 00       		.byte	0
 1995 00b1 49       		.uleb128 0x49
 1996 00b2 13       		.uleb128 0x13
 1997 00b3 00       		.byte	0
 1998 00b4 00       		.byte	0
 1999 00b5 10       		.uleb128 0x10
 2000 00b6 17       		.uleb128 0x17
 2001 00b7 01       		.byte	0x1
 2002 00b8 0B       		.uleb128 0xb
 2003 00b9 0B       		.uleb128 0xb
 2004 00ba 3A       		.uleb128 0x3a
 2005 00bb 0B       		.uleb128 0xb
 2006 00bc 3B       		.uleb128 0x3b
 2007 00bd 0B       		.uleb128 0xb
 2008 00be 01       		.uleb128 0x1
 2009 00bf 13       		.uleb128 0x13
 2010 00c0 00       		.byte	0
 2011 00c1 00       		.byte	0
 2012 00c2 11       		.uleb128 0x11
 2013 00c3 0D       		.uleb128 0xd
 2014 00c4 00       		.byte	0
 2015 00c5 03       		.uleb128 0x3
 2016 00c6 0E       		.uleb128 0xe
 2017 00c7 3A       		.uleb128 0x3a
 2018 00c8 0B       		.uleb128 0xb
 2019 00c9 3B       		.uleb128 0x3b
 2020 00ca 0B       		.uleb128 0xb
ARM GAS  /tmp/cchm2wPZ.s 			page 37


 2021 00cb 49       		.uleb128 0x49
 2022 00cc 13       		.uleb128 0x13
 2023 00cd 00       		.byte	0
 2024 00ce 00       		.byte	0
 2025 00cf 12       		.uleb128 0x12
 2026 00d0 26       		.uleb128 0x26
 2027 00d1 00       		.byte	0
 2028 00d2 49       		.uleb128 0x49
 2029 00d3 13       		.uleb128 0x13
 2030 00d4 00       		.byte	0
 2031 00d5 00       		.byte	0
 2032 00d6 13       		.uleb128 0x13
 2033 00d7 13       		.uleb128 0x13
 2034 00d8 01       		.byte	0x1
 2035 00d9 0B       		.uleb128 0xb
 2036 00da 05       		.uleb128 0x5
 2037 00db 3A       		.uleb128 0x3a
 2038 00dc 0B       		.uleb128 0xb
 2039 00dd 3B       		.uleb128 0x3b
 2040 00de 0B       		.uleb128 0xb
 2041 00df 01       		.uleb128 0x1
 2042 00e0 13       		.uleb128 0x13
 2043 00e1 00       		.byte	0
 2044 00e2 00       		.byte	0
 2045 00e3 14       		.uleb128 0x14
 2046 00e4 01       		.uleb128 0x1
 2047 00e5 01       		.byte	0x1
 2048 00e6 49       		.uleb128 0x49
 2049 00e7 13       		.uleb128 0x13
 2050 00e8 01       		.uleb128 0x1
 2051 00e9 13       		.uleb128 0x13
 2052 00ea 00       		.byte	0
 2053 00eb 00       		.byte	0
 2054 00ec 15       		.uleb128 0x15
 2055 00ed 21       		.uleb128 0x21
 2056 00ee 00       		.byte	0
 2057 00ef 49       		.uleb128 0x49
 2058 00f0 13       		.uleb128 0x13
 2059 00f1 2F       		.uleb128 0x2f
 2060 00f2 0B       		.uleb128 0xb
 2061 00f3 00       		.byte	0
 2062 00f4 00       		.byte	0
 2063 00f5 16       		.uleb128 0x16
 2064 00f6 2E       		.uleb128 0x2e
 2065 00f7 01       		.byte	0x1
 2066 00f8 3F       		.uleb128 0x3f
 2067 00f9 19       		.uleb128 0x19
 2068 00fa 03       		.uleb128 0x3
 2069 00fb 0E       		.uleb128 0xe
 2070 00fc 3A       		.uleb128 0x3a
 2071 00fd 0B       		.uleb128 0xb
 2072 00fe 3B       		.uleb128 0x3b
 2073 00ff 05       		.uleb128 0x5
 2074 0100 27       		.uleb128 0x27
 2075 0101 19       		.uleb128 0x19
 2076 0102 20       		.uleb128 0x20
 2077 0103 0B       		.uleb128 0xb
ARM GAS  /tmp/cchm2wPZ.s 			page 38


 2078 0104 01       		.uleb128 0x1
 2079 0105 13       		.uleb128 0x13
 2080 0106 00       		.byte	0
 2081 0107 00       		.byte	0
 2082 0108 17       		.uleb128 0x17
 2083 0109 05       		.uleb128 0x5
 2084 010a 00       		.byte	0
 2085 010b 03       		.uleb128 0x3
 2086 010c 08       		.uleb128 0x8
 2087 010d 3A       		.uleb128 0x3a
 2088 010e 0B       		.uleb128 0xb
 2089 010f 3B       		.uleb128 0x3b
 2090 0110 05       		.uleb128 0x5
 2091 0111 49       		.uleb128 0x49
 2092 0112 13       		.uleb128 0x13
 2093 0113 00       		.byte	0
 2094 0114 00       		.byte	0
 2095 0115 18       		.uleb128 0x18
 2096 0116 2E       		.uleb128 0x2e
 2097 0117 01       		.byte	0x1
 2098 0118 3F       		.uleb128 0x3f
 2099 0119 19       		.uleb128 0x19
 2100 011a 03       		.uleb128 0x3
 2101 011b 0E       		.uleb128 0xe
 2102 011c 3A       		.uleb128 0x3a
 2103 011d 0B       		.uleb128 0xb
 2104 011e 3B       		.uleb128 0x3b
 2105 011f 0B       		.uleb128 0xb
 2106 0120 27       		.uleb128 0x27
 2107 0121 19       		.uleb128 0x19
 2108 0122 11       		.uleb128 0x11
 2109 0123 01       		.uleb128 0x1
 2110 0124 12       		.uleb128 0x12
 2111 0125 06       		.uleb128 0x6
 2112 0126 40       		.uleb128 0x40
 2113 0127 18       		.uleb128 0x18
 2114 0128 9742     		.uleb128 0x2117
 2115 012a 19       		.uleb128 0x19
 2116 012b 01       		.uleb128 0x1
 2117 012c 13       		.uleb128 0x13
 2118 012d 00       		.byte	0
 2119 012e 00       		.byte	0
 2120 012f 19       		.uleb128 0x19
 2121 0130 1D       		.uleb128 0x1d
 2122 0131 01       		.byte	0x1
 2123 0132 31       		.uleb128 0x31
 2124 0133 13       		.uleb128 0x13
 2125 0134 11       		.uleb128 0x11
 2126 0135 01       		.uleb128 0x1
 2127 0136 12       		.uleb128 0x12
 2128 0137 06       		.uleb128 0x6
 2129 0138 58       		.uleb128 0x58
 2130 0139 0B       		.uleb128 0xb
 2131 013a 59       		.uleb128 0x59
 2132 013b 0B       		.uleb128 0xb
 2133 013c 00       		.byte	0
 2134 013d 00       		.byte	0
ARM GAS  /tmp/cchm2wPZ.s 			page 39


 2135 013e 1A       		.uleb128 0x1a
 2136 013f 05       		.uleb128 0x5
 2137 0140 00       		.byte	0
 2138 0141 31       		.uleb128 0x31
 2139 0142 13       		.uleb128 0x13
 2140 0143 02       		.uleb128 0x2
 2141 0144 17       		.uleb128 0x17
 2142 0145 00       		.byte	0
 2143 0146 00       		.byte	0
 2144 0147 1B       		.uleb128 0x1b
 2145 0148 898201   		.uleb128 0x4109
 2146 014b 00       		.byte	0
 2147 014c 11       		.uleb128 0x11
 2148 014d 01       		.uleb128 0x1
 2149 014e 9542     		.uleb128 0x2115
 2150 0150 19       		.uleb128 0x19
 2151 0151 31       		.uleb128 0x31
 2152 0152 13       		.uleb128 0x13
 2153 0153 00       		.byte	0
 2154 0154 00       		.byte	0
 2155 0155 1C       		.uleb128 0x1c
 2156 0156 898201   		.uleb128 0x4109
 2157 0159 00       		.byte	0
 2158 015a 11       		.uleb128 0x11
 2159 015b 01       		.uleb128 0x1
 2160 015c 31       		.uleb128 0x31
 2161 015d 13       		.uleb128 0x13
 2162 015e 00       		.byte	0
 2163 015f 00       		.byte	0
 2164 0160 1D       		.uleb128 0x1d
 2165 0161 05       		.uleb128 0x5
 2166 0162 00       		.byte	0
 2167 0163 31       		.uleb128 0x31
 2168 0164 13       		.uleb128 0x13
 2169 0165 02       		.uleb128 0x2
 2170 0166 18       		.uleb128 0x18
 2171 0167 00       		.byte	0
 2172 0168 00       		.byte	0
 2173 0169 1E       		.uleb128 0x1e
 2174 016a 2E       		.uleb128 0x2e
 2175 016b 00       		.byte	0
 2176 016c 3F       		.uleb128 0x3f
 2177 016d 19       		.uleb128 0x19
 2178 016e 03       		.uleb128 0x3
 2179 016f 0E       		.uleb128 0xe
 2180 0170 3A       		.uleb128 0x3a
 2181 0171 0B       		.uleb128 0xb
 2182 0172 3B       		.uleb128 0x3b
 2183 0173 0B       		.uleb128 0xb
 2184 0174 27       		.uleb128 0x27
 2185 0175 19       		.uleb128 0x19
 2186 0176 11       		.uleb128 0x11
 2187 0177 01       		.uleb128 0x1
 2188 0178 12       		.uleb128 0x12
 2189 0179 06       		.uleb128 0x6
 2190 017a 40       		.uleb128 0x40
 2191 017b 18       		.uleb128 0x18
ARM GAS  /tmp/cchm2wPZ.s 			page 40


 2192 017c 9742     		.uleb128 0x2117
 2193 017e 19       		.uleb128 0x19
 2194 017f 00       		.byte	0
 2195 0180 00       		.byte	0
 2196 0181 1F       		.uleb128 0x1f
 2197 0182 05       		.uleb128 0x5
 2198 0183 00       		.byte	0
 2199 0184 03       		.uleb128 0x3
 2200 0185 08       		.uleb128 0x8
 2201 0186 3A       		.uleb128 0x3a
 2202 0187 0B       		.uleb128 0xb
 2203 0188 3B       		.uleb128 0x3b
 2204 0189 0B       		.uleb128 0xb
 2205 018a 49       		.uleb128 0x49
 2206 018b 13       		.uleb128 0x13
 2207 018c 02       		.uleb128 0x2
 2208 018d 17       		.uleb128 0x17
 2209 018e 00       		.byte	0
 2210 018f 00       		.byte	0
 2211 0190 20       		.uleb128 0x20
 2212 0191 2E       		.uleb128 0x2e
 2213 0192 01       		.byte	0x1
 2214 0193 31       		.uleb128 0x31
 2215 0194 13       		.uleb128 0x13
 2216 0195 11       		.uleb128 0x11
 2217 0196 01       		.uleb128 0x1
 2218 0197 12       		.uleb128 0x12
 2219 0198 06       		.uleb128 0x6
 2220 0199 40       		.uleb128 0x40
 2221 019a 18       		.uleb128 0x18
 2222 019b 9742     		.uleb128 0x2117
 2223 019d 19       		.uleb128 0x19
 2224 019e 01       		.uleb128 0x1
 2225 019f 13       		.uleb128 0x13
 2226 01a0 00       		.byte	0
 2227 01a1 00       		.byte	0
 2228 01a2 21       		.uleb128 0x21
 2229 01a3 34       		.uleb128 0x34
 2230 01a4 00       		.byte	0
 2231 01a5 03       		.uleb128 0x3
 2232 01a6 0E       		.uleb128 0xe
 2233 01a7 3A       		.uleb128 0x3a
 2234 01a8 0B       		.uleb128 0xb
 2235 01a9 3B       		.uleb128 0x3b
 2236 01aa 0B       		.uleb128 0xb
 2237 01ab 49       		.uleb128 0x49
 2238 01ac 13       		.uleb128 0x13
 2239 01ad 3F       		.uleb128 0x3f
 2240 01ae 19       		.uleb128 0x19
 2241 01af 3C       		.uleb128 0x3c
 2242 01b0 19       		.uleb128 0x19
 2243 01b1 00       		.byte	0
 2244 01b2 00       		.byte	0
 2245 01b3 22       		.uleb128 0x22
 2246 01b4 34       		.uleb128 0x34
 2247 01b5 00       		.byte	0
 2248 01b6 03       		.uleb128 0x3
ARM GAS  /tmp/cchm2wPZ.s 			page 41


 2249 01b7 0E       		.uleb128 0xe
 2250 01b8 3A       		.uleb128 0x3a
 2251 01b9 0B       		.uleb128 0xb
 2252 01ba 3B       		.uleb128 0x3b
 2253 01bb 0B       		.uleb128 0xb
 2254 01bc 49       		.uleb128 0x49
 2255 01bd 13       		.uleb128 0x13
 2256 01be 3F       		.uleb128 0x3f
 2257 01bf 19       		.uleb128 0x19
 2258 01c0 02       		.uleb128 0x2
 2259 01c1 18       		.uleb128 0x18
 2260 01c2 00       		.byte	0
 2261 01c3 00       		.byte	0
 2262 01c4 23       		.uleb128 0x23
 2263 01c5 34       		.uleb128 0x34
 2264 01c6 00       		.byte	0
 2265 01c7 03       		.uleb128 0x3
 2266 01c8 0E       		.uleb128 0xe
 2267 01c9 3A       		.uleb128 0x3a
 2268 01ca 0B       		.uleb128 0xb
 2269 01cb 3B       		.uleb128 0x3b
 2270 01cc 05       		.uleb128 0x5
 2271 01cd 49       		.uleb128 0x49
 2272 01ce 13       		.uleb128 0x13
 2273 01cf 3F       		.uleb128 0x3f
 2274 01d0 19       		.uleb128 0x19
 2275 01d1 02       		.uleb128 0x2
 2276 01d2 18       		.uleb128 0x18
 2277 01d3 00       		.byte	0
 2278 01d4 00       		.byte	0
 2279 01d5 24       		.uleb128 0x24
 2280 01d6 2E       		.uleb128 0x2e
 2281 01d7 00       		.byte	0
 2282 01d8 3F       		.uleb128 0x3f
 2283 01d9 19       		.uleb128 0x19
 2284 01da 03       		.uleb128 0x3
 2285 01db 0E       		.uleb128 0xe
 2286 01dc 3A       		.uleb128 0x3a
 2287 01dd 0B       		.uleb128 0xb
 2288 01de 3B       		.uleb128 0x3b
 2289 01df 05       		.uleb128 0x5
 2290 01e0 27       		.uleb128 0x27
 2291 01e1 19       		.uleb128 0x19
 2292 01e2 3C       		.uleb128 0x3c
 2293 01e3 19       		.uleb128 0x19
 2294 01e4 00       		.byte	0
 2295 01e5 00       		.byte	0
 2296 01e6 00       		.byte	0
 2297              		.section	.debug_loc,"",%progbits
 2298              	.Ldebug_loc0:
 2299              	.LLST0:
 2300 0000 18000000 		.4byte	.LVL0
 2301 0004 2E000000 		.4byte	.LVL1
 2302 0008 0600     		.2byte	0x6
 2303 000a 03       		.byte	0x3
 2304 000b 00000000 		.4byte	.LC0
 2305 000f 9F       		.byte	0x9f
ARM GAS  /tmp/cchm2wPZ.s 			page 42


 2306 0010 00000000 		.4byte	0
 2307 0014 00000000 		.4byte	0
 2308              	.LLST1:
 2309 0018 18000000 		.4byte	.LVL2
 2310 001c 2E000000 		.4byte	.LVL3
 2311 0020 0600     		.2byte	0x6
 2312 0022 03       		.byte	0x3
 2313 0023 08000000 		.4byte	.LC1
 2314 0027 9F       		.byte	0x9f
 2315 0028 00000000 		.4byte	0
 2316 002c 00000000 		.4byte	0
 2317              	.LLST2:
 2318 0030 18000000 		.4byte	.LVL4
 2319 0034 2E000000 		.4byte	.LVL5
 2320 0038 0600     		.2byte	0x6
 2321 003a 03       		.byte	0x3
 2322 003b 10000000 		.4byte	.LC2
 2323 003f 9F       		.byte	0x9f
 2324 0040 00000000 		.4byte	0
 2325 0044 00000000 		.4byte	0
 2326              	.LLST3:
 2327 0048 1A000000 		.4byte	.LVL6
 2328 004c 30000000 		.4byte	.LVL7
 2329 0050 0600     		.2byte	0x6
 2330 0052 03       		.byte	0x3
 2331 0053 18000000 		.4byte	.LC3
 2332 0057 9F       		.byte	0x9f
 2333 0058 00000000 		.4byte	0
 2334 005c 00000000 		.4byte	0
 2335              	.LLST4:
 2336 0060 1C000000 		.4byte	.LVL10
 2337 0064 32000000 		.4byte	.LVL11
 2338 0068 0600     		.2byte	0x6
 2339 006a 03       		.byte	0x3
 2340 006b 28000000 		.4byte	.LC5
 2341 006f 9F       		.byte	0x9f
 2342 0070 00000000 		.4byte	0
 2343 0074 00000000 		.4byte	0
 2344              	.LLST5:
 2345 0078 20000000 		.4byte	.LVL14
 2346 007c 38000000 		.4byte	.LVL16
 2347 0080 0600     		.2byte	0x6
 2348 0082 03       		.byte	0x3
 2349 0083 38000000 		.4byte	.LC7
 2350 0087 9F       		.byte	0x9f
 2351 0088 00000000 		.4byte	0
 2352 008c 00000000 		.4byte	0
 2353              	.LLST6:
 2354 0090 20000000 		.4byte	.LVL17
 2355 0094 38000000 		.4byte	.LVL19
 2356 0098 0600     		.2byte	0x6
 2357 009a 03       		.byte	0x3
 2358 009b 40000000 		.4byte	.LC8
 2359 009f 9F       		.byte	0x9f
 2360 00a0 00000000 		.4byte	0
 2361 00a4 00000000 		.4byte	0
 2362              	.LLST7:
ARM GAS  /tmp/cchm2wPZ.s 			page 43


 2363 00a8 00000000 		.4byte	.LVL24
 2364 00ac 34000000 		.4byte	.LVL25
 2365 00b0 0100     		.2byte	0x1
 2366 00b2 50       		.byte	0x50
 2367 00b3 34000000 		.4byte	.LVL25
 2368 00b7 48000000 		.4byte	.LFE12
 2369 00bb 0400     		.2byte	0x4
 2370 00bd F3       		.byte	0xf3
 2371 00be 01       		.uleb128 0x1
 2372 00bf 50       		.byte	0x50
 2373 00c0 9F       		.byte	0x9f
 2374 00c1 00000000 		.4byte	0
 2375 00c5 00000000 		.4byte	0
 2376              	.LLST8:
 2377 00c9 00000000 		.4byte	.LVL26
 2378 00cd 0D000000 		.4byte	.LVL27-1
 2379 00d1 0100     		.2byte	0x1
 2380 00d3 50       		.byte	0x50
 2381 00d4 0D000000 		.4byte	.LVL27-1
 2382 00d8 0E000000 		.4byte	.LFE13
 2383 00dc 0400     		.2byte	0x4
 2384 00de F3       		.byte	0xf3
 2385 00df 01       		.uleb128 0x1
 2386 00e0 50       		.byte	0x50
 2387 00e1 9F       		.byte	0x9f
 2388 00e2 00000000 		.4byte	0
 2389 00e6 00000000 		.4byte	0
 2390              		.section	.debug_aranges,"",%progbits
 2391 0000 84000000 		.4byte	0x84
 2392 0004 0200     		.2byte	0x2
 2393 0006 00000000 		.4byte	.Ldebug_info0
 2394 000a 04       		.byte	0x4
 2395 000b 00       		.byte	0
 2396 000c 0000     		.2byte	0
 2397 000e 0000     		.2byte	0
 2398 0010 00000000 		.4byte	.LFB0
 2399 0014 30000000 		.4byte	.LFE0-.LFB0
 2400 0018 00000000 		.4byte	.LFB1
 2401 001c 30000000 		.4byte	.LFE1-.LFB1
 2402 0020 00000000 		.4byte	.LFB2
 2403 0024 30000000 		.4byte	.LFE2-.LFB2
 2404 0028 00000000 		.4byte	.LFB3
 2405 002c 36000000 		.4byte	.LFE3-.LFB3
 2406 0030 00000000 		.4byte	.LFB4
 2407 0034 3E000000 		.4byte	.LFE4-.LFB4
 2408 0038 00000000 		.4byte	.LFB5
 2409 003c 38000000 		.4byte	.LFE5-.LFB5
 2410 0040 00000000 		.4byte	.LFB6
 2411 0044 40000000 		.4byte	.LFE6-.LFB6
 2412 0048 00000000 		.4byte	.LFB7
 2413 004c 42000000 		.4byte	.LFE7-.LFB7
 2414 0050 00000000 		.4byte	.LFB8
 2415 0054 42000000 		.4byte	.LFE8-.LFB8
 2416 0058 00000000 		.4byte	.LFB9
 2417 005c 34000000 		.4byte	.LFE9-.LFB9
 2418 0060 00000000 		.4byte	.LFB10
 2419 0064 32000000 		.4byte	.LFE10-.LFB10
ARM GAS  /tmp/cchm2wPZ.s 			page 44


 2420 0068 00000000 		.4byte	.LFB11
 2421 006c 14000000 		.4byte	.LFE11-.LFB11
 2422 0070 00000000 		.4byte	.LFB12
 2423 0074 48000000 		.4byte	.LFE12-.LFB12
 2424 0078 00000000 		.4byte	.LFB13
 2425 007c 0E000000 		.4byte	.LFE13-.LFB13
 2426 0080 00000000 		.4byte	0
 2427 0084 00000000 		.4byte	0
 2428              		.section	.debug_ranges,"",%progbits
 2429              	.Ldebug_ranges0:
 2430 0000 00000000 		.4byte	.LFB0
 2431 0004 30000000 		.4byte	.LFE0
 2432 0008 00000000 		.4byte	.LFB1
 2433 000c 30000000 		.4byte	.LFE1
 2434 0010 00000000 		.4byte	.LFB2
 2435 0014 30000000 		.4byte	.LFE2
 2436 0018 00000000 		.4byte	.LFB3
 2437 001c 36000000 		.4byte	.LFE3
 2438 0020 00000000 		.4byte	.LFB4
 2439 0024 3E000000 		.4byte	.LFE4
 2440 0028 00000000 		.4byte	.LFB5
 2441 002c 38000000 		.4byte	.LFE5
 2442 0030 00000000 		.4byte	.LFB6
 2443 0034 40000000 		.4byte	.LFE6
 2444 0038 00000000 		.4byte	.LFB7
 2445 003c 42000000 		.4byte	.LFE7
 2446 0040 00000000 		.4byte	.LFB8
 2447 0044 42000000 		.4byte	.LFE8
 2448 0048 00000000 		.4byte	.LFB9
 2449 004c 34000000 		.4byte	.LFE9
 2450 0050 00000000 		.4byte	.LFB10
 2451 0054 32000000 		.4byte	.LFE10
 2452 0058 00000000 		.4byte	.LFB11
 2453 005c 14000000 		.4byte	.LFE11
 2454 0060 00000000 		.4byte	.LFB12
 2455 0064 48000000 		.4byte	.LFE12
 2456 0068 00000000 		.4byte	.LFB13
 2457 006c 0E000000 		.4byte	.LFE13
 2458 0070 00000000 		.4byte	0
 2459 0074 00000000 		.4byte	0
 2460              		.section	.debug_line,"",%progbits
 2461              	.Ldebug_line0:
 2462 0000 E3020000 		.section	.debug_str,"MS",%progbits,1
 2462      02003401 
 2462      00000201 
 2462      FB0E0D00 
 2462      01010101 
 2463              	.LASF39:
 2464 0000 705F6D73 		.ascii	"p_msg\000"
 2464      6700
 2465              	.LASF105:
 2466 0006 63684462 		.ascii	"chDbgPanic\000"
 2466      6750616E 
 2466      696300
 2467              	.LASF70:
 2468 0011 7264796D 		.ascii	"rdymsg\000"
 2468      736700
ARM GAS  /tmp/cchm2wPZ.s 			page 45


 2469              	.LASF16:
 2470 0018 75696E74 		.ascii	"uint64_t\000"
 2470      36345F74 
 2470      00
 2471              	.LASF5:
 2472 0021 5F5F7569 		.ascii	"__uint8_t\000"
 2472      6E74385F 
 2472      7400
 2473              	.LASF96:
 2474 002b 76746C69 		.ascii	"vtlist\000"
 2474      737400
 2475              	.LASF102:
 2476 0032 474E5520 		.ascii	"GNU C 4.8.2 -mcpu=cortex-m4 -mno-thumb-interwork -m"
 2476      4320342E 
 2476      382E3220 
 2476      2D6D6370 
 2476      753D636F 
 2477 0065 7468756D 		.ascii	"thumb -ggdb -O2 -fomit-frame-pointer -falign-functi"
 2477      62202D67 
 2477      67646220 
 2477      2D4F3220 
 2477      2D666F6D 
 2478 0098 6F6E733D 		.ascii	"ons=16 -ffunction-sections -fdata-sections -fno-com"
 2478      3136202D 
 2478      6666756E 
 2478      6374696F 
 2478      6E2D7365 
 2479 00cb 6D6F6E00 		.ascii	"mon\000"
 2480              	.LASF12:
 2481 00cf 6C6F6E67 		.ascii	"long long unsigned int\000"
 2481      206C6F6E 
 2481      6720756E 
 2481      7369676E 
 2481      65642069 
 2482              	.LASF83:
 2483 00e6 63685F74 		.ascii	"ch_trace_buffer_t\000"
 2483      72616365 
 2483      5F627566 
 2483      6665725F 
 2483      7400
 2484              	.LASF78:
 2485 00f8 73655F73 		.ascii	"se_state\000"
 2485      74617465 
 2485      00
 2486              	.LASF71:
 2487 0101 65786974 		.ascii	"exitcode\000"
 2487      636F6465 
 2487      00
 2488              	.LASF28:
 2489 010a 705F7072 		.ascii	"p_prio\000"
 2489      696F00
 2490              	.LASF10:
 2491 0111 6C6F6E67 		.ascii	"long long int\000"
 2491      206C6F6E 
 2491      6720696E 
 2491      7400
 2492              	.LASF1:
ARM GAS  /tmp/cchm2wPZ.s 			page 46


 2493 011f 7369676E 		.ascii	"signed char\000"
 2493      65642063 
 2493      68617200 
 2494              	.LASF90:
 2495 012b 6462675F 		.ascii	"dbg_check_unlock_from_isr\000"
 2495      63686563 
 2495      6B5F756E 
 2495      6C6F636B 
 2495      5F66726F 
 2496              	.LASF67:
 2497 0145 6D5F7175 		.ascii	"m_queue\000"
 2497      65756500 
 2498              	.LASF7:
 2499 014d 6C6F6E67 		.ascii	"long int\000"
 2499      20696E74 
 2499      00
 2500              	.LASF19:
 2501 0156 74737461 		.ascii	"tstate_t\000"
 2501      74655F74 
 2501      00
 2502              	.LASF76:
 2503 015f 73655F74 		.ascii	"se_tp\000"
 2503      7000
 2504              	.LASF30:
 2505 0165 705F6E65 		.ascii	"p_newer\000"
 2505      77657200 
 2506              	.LASF80:
 2507 016d 74625F73 		.ascii	"tb_size\000"
 2507      697A6500 
 2508              	.LASF8:
 2509 0175 5F5F7569 		.ascii	"__uint32_t\000"
 2509      6E743332 
 2509      5F7400
 2510              	.LASF45:
 2511 0180 72656761 		.ascii	"regarm_t\000"
 2511      726D5F74 
 2511      00
 2512              	.LASF53:
 2513 0189 76745F70 		.ascii	"vt_prev\000"
 2513      72657600 
 2514              	.LASF24:
 2515 0191 636E745F 		.ascii	"cnt_t\000"
 2515      7400
 2516              	.LASF33:
 2517 0197 705F7374 		.ascii	"p_stklimit\000"
 2517      6B6C696D 
 2517      697400
 2518              	.LASF0:
 2519 01a2 756E7369 		.ascii	"unsigned int\000"
 2519      676E6564 
 2519      20696E74 
 2519      00
 2520              	.LASF52:
 2521 01af 76745F6E 		.ascii	"vt_next\000"
 2521      65787400 
 2522              	.LASF95:
 2523 01b7 6462675F 		.ascii	"dbg_trace\000"
ARM GAS  /tmp/cchm2wPZ.s 			page 47


 2523      74726163 
 2523      6500
 2524              	.LASF9:
 2525 01c1 6C6F6E67 		.ascii	"long unsigned int\000"
 2525      20756E73 
 2525      69676E65 
 2525      6420696E 
 2525      7400
 2526              	.LASF50:
 2527 01d3 76746675 		.ascii	"vtfunc_t\000"
 2527      6E635F74 
 2527      00
 2528              	.LASF85:
 2529 01dc 6462675F 		.ascii	"dbg_check_suspend\000"
 2529      63686563 
 2529      6B5F7375 
 2529      7370656E 
 2529      6400
 2530              	.LASF104:
 2531 01ee 2F686F6D 		.ascii	"/home/ece497/vbox-shared/mplayer/ChibiOS-RT-stable_"
 2531      652F6563 
 2531      65343937 
 2531      2F76626F 
 2531      782D7368 
 2532 0221 322E362E 		.ascii	"2.6.x/testhal/STM32F4xx/I2C\000"
 2532      782F7465 
 2532      73746861 
 2532      6C2F5354 
 2532      4D333246 
 2533              	.LASF48:
 2534 023d 636F6E74 		.ascii	"context\000"
 2534      65787400 
 2535              	.LASF4:
 2536 0245 73686F72 		.ascii	"short unsigned int\000"
 2536      7420756E 
 2536      7369676E 
 2536      65642069 
 2536      6E7400
 2537              	.LASF106:
 2538 0258 5F747261 		.ascii	"_trace_init\000"
 2538      63655F69 
 2538      6E697400 
 2539              	.LASF21:
 2540 0264 6D73675F 		.ascii	"msg_t\000"
 2540      7400
 2541              	.LASF62:
 2542 026a 725F6E65 		.ascii	"r_newer\000"
 2542      77657200 
 2543              	.LASF93:
 2544 0272 63684462 		.ascii	"chDbgCheckClassI\000"
 2544      67436865 
 2544      636B436C 
 2544      61737349 
 2544      00
 2545              	.LASF18:
 2546 0283 746D6F64 		.ascii	"tmode_t\000"
 2546      655F7400 
ARM GAS  /tmp/cchm2wPZ.s 			page 48


 2547              	.LASF103:
 2548 028b 2E2E2F2E 		.ascii	"../../../os/kernel/src/chdebug.c\000"
 2548      2E2F2E2E 
 2548      2F6F732F 
 2548      6B65726E 
 2548      656C2F73 
 2549              	.LASF99:
 2550 02ac 6462675F 		.ascii	"dbg_isr_cnt\000"
 2550      6973725F 
 2550      636E7400 
 2551              	.LASF94:
 2552 02b8 63684462 		.ascii	"chDbgCheckClassS\000"
 2552      67436865 
 2552      636B436C 
 2552      61737353 
 2552      00
 2553              	.LASF44:
 2554 02c9 54687265 		.ascii	"ThreadsList\000"
 2554      6164734C 
 2554      69737400 
 2555              	.LASF22:
 2556 02d5 6576656E 		.ascii	"eventmask_t\000"
 2556      746D6173 
 2556      6B5F7400 
 2557              	.LASF66:
 2558 02e1 4D757465 		.ascii	"Mutex\000"
 2558      7800
 2559              	.LASF46:
 2560 02e7 73746B61 		.ascii	"stkalign_t\000"
 2560      6C69676E 
 2560      5F7400
 2561              	.LASF54:
 2562 02f2 76745F74 		.ascii	"vt_time\000"
 2562      696D6500 
 2563              	.LASF81:
 2564 02fa 74625F70 		.ascii	"tb_ptr\000"
 2564      747200
 2565              	.LASF49:
 2566 0301 73697A65 		.ascii	"sizetype\000"
 2566      74797065 
 2566      00
 2567              	.LASF107:
 2568 030a 706F7274 		.ascii	"port_halt\000"
 2568      5F68616C 
 2568      7400
 2569              	.LASF55:
 2570 0314 76745F66 		.ascii	"vt_func\000"
 2570      756E6300 
 2571              	.LASF87:
 2572 031c 6462675F 		.ascii	"dbg_check_lock\000"
 2572      63686563 
 2572      6B5F6C6F 
 2572      636B00
 2573              	.LASF79:
 2574 032b 63685F73 		.ascii	"ch_swc_event_t\000"
 2574      77635F65 
 2574      76656E74 
ARM GAS  /tmp/cchm2wPZ.s 			page 49


 2574      5F7400
 2575              	.LASF31:
 2576 033a 705F6F6C 		.ascii	"p_older\000"
 2576      64657200 
 2577              	.LASF61:
 2578 0342 725F6374 		.ascii	"r_ctx\000"
 2578      7800
 2579              	.LASF43:
 2580 0348 54687265 		.ascii	"ThreadsQueue\000"
 2580      61647351 
 2580      75657565 
 2580      00
 2581              	.LASF64:
 2582 0355 725F6375 		.ascii	"r_current\000"
 2582      7272656E 
 2582      7400
 2583              	.LASF63:
 2584 035f 725F6F6C 		.ascii	"r_older\000"
 2584      64657200 
 2585              	.LASF88:
 2586 0367 6462675F 		.ascii	"dbg_check_unlock\000"
 2586      63686563 
 2586      6B5F756E 
 2586      6C6F636B 
 2586      00
 2587              	.LASF11:
 2588 0378 5F5F7569 		.ascii	"__uint64_t\000"
 2588      6E743634 
 2588      5F7400
 2589              	.LASF98:
 2590 0383 6462675F 		.ascii	"dbg_trace_buffer\000"
 2590      74726163 
 2590      655F6275 
 2590      66666572 
 2590      00
 2591              	.LASF75:
 2592 0394 73655F74 		.ascii	"se_time\000"
 2592      696D6500 
 2593              	.LASF82:
 2594 039c 74625F62 		.ascii	"tb_buffer\000"
 2594      75666665 
 2594      7200
 2595              	.LASF27:
 2596 03a6 705F7072 		.ascii	"p_prev\000"
 2596      657600
 2597              	.LASF20:
 2598 03ad 74707269 		.ascii	"tprio_t\000"
 2598      6F5F7400 
 2599              	.LASF17:
 2600 03b5 5F426F6F 		.ascii	"_Bool\000"
 2600      6C00
 2601              	.LASF14:
 2602 03bb 696E7433 		.ascii	"int32_t\000"
 2602      325F7400 
 2603              	.LASF2:
 2604 03c3 756E7369 		.ascii	"unsigned char\000"
 2604      676E6564 
ARM GAS  /tmp/cchm2wPZ.s 			page 50


 2604      20636861 
 2604      7200
 2605              	.LASF101:
 2606 03d1 6462675F 		.ascii	"dbg_panic_msg\000"
 2606      70616E69 
 2606      635F6D73 
 2606      6700
 2607              	.LASF41:
 2608 03df 705F6D74 		.ascii	"p_mtxlist\000"
 2608      786C6973 
 2608      7400
 2609              	.LASF3:
 2610 03e9 73686F72 		.ascii	"short int\000"
 2610      7420696E 
 2610      7400
 2611              	.LASF34:
 2612 03f3 705F7374 		.ascii	"p_state\000"
 2612      61746500 
 2613              	.LASF60:
 2614 03fb 725F7072 		.ascii	"r_prio\000"
 2614      696F00
 2615              	.LASF73:
 2616 0402 65776D61 		.ascii	"ewmask\000"
 2616      736B00
 2617              	.LASF26:
 2618 0409 705F6E65 		.ascii	"p_next\000"
 2618      787400
 2619              	.LASF35:
 2620 0410 705F666C 		.ascii	"p_flags\000"
 2620      61677300 
 2621              	.LASF25:
 2622 0418 54687265 		.ascii	"Thread\000"
 2622      616400
 2623              	.LASF40:
 2624 041f 705F6570 		.ascii	"p_epending\000"
 2624      656E6469 
 2624      6E6700
 2625              	.LASF15:
 2626 042a 75696E74 		.ascii	"uint32_t\000"
 2626      33325F74 
 2626      00
 2627              	.LASF59:
 2628 0433 725F7175 		.ascii	"r_queue\000"
 2628      65756500 
 2629              	.LASF51:
 2630 043b 56697274 		.ascii	"VirtualTimer\000"
 2630      75616C54 
 2630      696D6572 
 2630      00
 2631              	.LASF74:
 2632 0448 63686172 		.ascii	"char\000"
 2632      00
 2633              	.LASF69:
 2634 044d 6D5F6E65 		.ascii	"m_next\000"
 2634      787400
 2635              	.LASF23:
 2636 0454 73797374 		.ascii	"systime_t\000"
ARM GAS  /tmp/cchm2wPZ.s 			page 51


 2636      696D655F 
 2636      7400
 2637              	.LASF42:
 2638 045e 705F7265 		.ascii	"p_realprio\000"
 2638      616C7072 
 2638      696F00
 2639              	.LASF6:
 2640 0469 5F5F696E 		.ascii	"__int32_t\000"
 2640      7433325F 
 2640      7400
 2641              	.LASF100:
 2642 0473 6462675F 		.ascii	"dbg_lock_cnt\000"
 2642      6C6F636B 
 2642      5F636E74 
 2642      00
 2643              	.LASF36:
 2644 0480 705F7469 		.ascii	"p_time\000"
 2644      6D6500
 2645              	.LASF92:
 2646 0487 6462675F 		.ascii	"dbg_check_leave_isr\000"
 2646      63686563 
 2646      6B5F6C65 
 2646      6176655F 
 2646      69737200 
 2647              	.LASF47:
 2648 049b 696E7463 		.ascii	"intctx\000"
 2648      747800
 2649              	.LASF38:
 2650 04a2 705F6D73 		.ascii	"p_msgqueue\000"
 2650      67717565 
 2650      756500
 2651              	.LASF86:
 2652 04ad 6462675F 		.ascii	"dbg_check_enable\000"
 2652      63686563 
 2652      6B5F656E 
 2652      61626C65 
 2652      00
 2653              	.LASF56:
 2654 04be 76745F70 		.ascii	"vt_par\000"
 2654      617200
 2655              	.LASF65:
 2656 04c5 52656164 		.ascii	"ReadyList\000"
 2656      794C6973 
 2656      7400
 2657              	.LASF91:
 2658 04cf 6462675F 		.ascii	"dbg_check_enter_isr\000"
 2658      63686563 
 2658      6B5F656E 
 2658      7465725F 
 2658      69737200 
 2659              	.LASF97:
 2660 04e3 726C6973 		.ascii	"rlist\000"
 2660      7400
 2661              	.LASF13:
 2662 04e9 75696E74 		.ascii	"uint8_t\000"
 2662      385F7400 
 2663              	.LASF89:
ARM GAS  /tmp/cchm2wPZ.s 			page 52


 2664 04f1 6462675F 		.ascii	"dbg_check_lock_from_isr\000"
 2664      63686563 
 2664      6B5F6C6F 
 2664      636B5F66 
 2664      726F6D5F 
 2665              	.LASF72:
 2666 0509 77746F62 		.ascii	"wtobjp\000"
 2666      6A7000
 2667              	.LASF32:
 2668 0510 705F6E61 		.ascii	"p_name\000"
 2668      6D6500
 2669              	.LASF57:
 2670 0517 76745F73 		.ascii	"vt_systime\000"
 2670      79737469 
 2670      6D6500
 2671              	.LASF58:
 2672 0522 56544C69 		.ascii	"VTList\000"
 2672      737400
 2673              	.LASF84:
 2674 0529 6462675F 		.ascii	"dbg_check_disable\000"
 2674      63686563 
 2674      6B5F6469 
 2674      7361626C 
 2674      6500
 2675              	.LASF68:
 2676 053b 6D5F6F77 		.ascii	"m_owner\000"
 2676      6E657200 
 2677              	.LASF77:
 2678 0543 73655F77 		.ascii	"se_wtobjp\000"
 2678      746F626A 
 2678      7000
 2679              	.LASF29:
 2680 054d 705F6374 		.ascii	"p_ctx\000"
 2680      7800
 2681              	.LASF37:
 2682 0553 705F7761 		.ascii	"p_waiting\000"
 2682      6974696E 
 2682      6700
 2683              		.ident	"GCC: (Arch Repository) 4.8.2"
ARM GAS  /tmp/cchm2wPZ.s 			page 53


DEFINED SYMBOLS
                            *ABS*:0000000000000000 chdebug.c
     /tmp/cchm2wPZ.s:19     .text.dbg_check_disable:0000000000000000 $t
     /tmp/cchm2wPZ.s:25     .text.dbg_check_disable:0000000000000000 dbg_check_disable
     /tmp/cchm2wPZ.s:703    .bss.dbg_isr_cnt:0000000000000000 .LANCHOR0
     /tmp/cchm2wPZ.s:751    .bss.dbg_lock_cnt:0000000000000000 .LANCHOR1
     /tmp/cchm2wPZ.s:758    .bss.dbg_panic_msg:0000000000000000 .LANCHOR2
     /tmp/cchm2wPZ.s:717    .rodata.str1.4:0000000000000000 .LC0
     /tmp/cchm2wPZ.s:64     .text.dbg_check_suspend:0000000000000000 $t
     /tmp/cchm2wPZ.s:70     .text.dbg_check_suspend:0000000000000000 dbg_check_suspend
     /tmp/cchm2wPZ.s:720    .rodata.str1.4:0000000000000008 .LC1
     /tmp/cchm2wPZ.s:108    .text.dbg_check_enable:0000000000000000 $t
     /tmp/cchm2wPZ.s:114    .text.dbg_check_enable:0000000000000000 dbg_check_enable
     /tmp/cchm2wPZ.s:723    .rodata.str1.4:0000000000000010 .LC2
     /tmp/cchm2wPZ.s:152    .text.dbg_check_lock:0000000000000000 $t
     /tmp/cchm2wPZ.s:158    .text.dbg_check_lock:0000000000000000 dbg_check_lock
     /tmp/cchm2wPZ.s:726    .rodata.str1.4:0000000000000018 .LC3
     /tmp/cchm2wPZ.s:204    .text.dbg_check_unlock:0000000000000000 $t
     /tmp/cchm2wPZ.s:210    .text.dbg_check_unlock:0000000000000000 dbg_check_unlock
     /tmp/cchm2wPZ.s:729    .rodata.str1.4:0000000000000020 .LC4
     /tmp/cchm2wPZ.s:260    .text.dbg_check_lock_from_isr:0000000000000000 $t
     /tmp/cchm2wPZ.s:266    .text.dbg_check_lock_from_isr:0000000000000000 dbg_check_lock_from_isr
     /tmp/cchm2wPZ.s:732    .rodata.str1.4:0000000000000028 .LC5
     /tmp/cchm2wPZ.s:313    .text.dbg_check_unlock_from_isr:0000000000000000 $t
     /tmp/cchm2wPZ.s:319    .text.dbg_check_unlock_from_isr:0000000000000000 dbg_check_unlock_from_isr
     /tmp/cchm2wPZ.s:735    .rodata.str1.4:0000000000000030 .LC6
     /tmp/cchm2wPZ.s:370    .text.dbg_check_enter_isr:0000000000000000 $t
     /tmp/cchm2wPZ.s:376    .text.dbg_check_enter_isr:0000000000000000 dbg_check_enter_isr
     /tmp/cchm2wPZ.s:738    .rodata.str1.4:0000000000000038 .LC7
     /tmp/cchm2wPZ.s:433    .text.dbg_check_leave_isr:0000000000000000 $t
     /tmp/cchm2wPZ.s:439    .text.dbg_check_leave_isr:0000000000000000 dbg_check_leave_isr
     /tmp/cchm2wPZ.s:741    .rodata.str1.4:0000000000000040 .LC8
     /tmp/cchm2wPZ.s:496    .text.chDbgCheckClassI:0000000000000000 $t
     /tmp/cchm2wPZ.s:502    .text.chDbgCheckClassI:0000000000000000 chDbgCheckClassI
     /tmp/cchm2wPZ.s:744    .rodata.str1.4:0000000000000048 .LC9
     /tmp/cchm2wPZ.s:541    .text.chDbgCheckClassS:0000000000000000 $t
     /tmp/cchm2wPZ.s:547    .text.chDbgCheckClassS:0000000000000000 chDbgCheckClassS
     /tmp/cchm2wPZ.s:747    .rodata.str1.4:0000000000000050 .LC10
     /tmp/cchm2wPZ.s:585    .text._trace_init:0000000000000000 $t
     /tmp/cchm2wPZ.s:591    .text._trace_init:0000000000000000 _trace_init
     /tmp/cchm2wPZ.s:710    .bss.dbg_trace_buffer:0000000000000000 .LANCHOR3
     /tmp/cchm2wPZ.s:611    .text.dbg_trace:0000000000000000 $t
     /tmp/cchm2wPZ.s:617    .text.dbg_trace:0000000000000000 dbg_trace
     /tmp/cchm2wPZ.s:673    .text.chDbgPanic:0000000000000000 $t
     /tmp/cchm2wPZ.s:679    .text.chDbgPanic:0000000000000000 chDbgPanic
     /tmp/cchm2wPZ.s:761    .bss.dbg_panic_msg:0000000000000000 dbg_panic_msg
     /tmp/cchm2wPZ.s:713    .bss.dbg_trace_buffer:0000000000000000 dbg_trace_buffer
     /tmp/cchm2wPZ.s:754    .bss.dbg_lock_cnt:0000000000000000 dbg_lock_cnt
     /tmp/cchm2wPZ.s:706    .bss.dbg_isr_cnt:0000000000000000 dbg_isr_cnt
     /tmp/cchm2wPZ.s:702    .bss.dbg_isr_cnt:0000000000000000 $d
     /tmp/cchm2wPZ.s:709    .bss.dbg_trace_buffer:0000000000000000 $d
     /tmp/cchm2wPZ.s:716    .rodata.str1.4:0000000000000000 $d
     /tmp/cchm2wPZ.s:750    .bss.dbg_lock_cnt:0000000000000000 $d
     /tmp/cchm2wPZ.s:757    .bss.dbg_panic_msg:0000000000000000 $d
                     .debug_frame:0000000000000010 $d

UNDEFINED SYMBOLS
ARM GAS  /tmp/cchm2wPZ.s 			page 54


port_halt
_port_lock
_port_unlock
vtlist
rlist
