ARM GAS  /tmp/ccpdBNO5.s 			page 1


   1              		.syntax unified
   2              		.cpu cortex-m4
   3              		.fpu softvfp
   4              		.eabi_attribute 20, 1
   5              		.eabi_attribute 21, 1
   6              		.eabi_attribute 23, 3
   7              		.eabi_attribute 24, 1
   8              		.eabi_attribute 25, 1
   9              		.eabi_attribute 26, 1
  10              		.eabi_attribute 30, 2
  11              		.eabi_attribute 34, 1
  12              		.eabi_attribute 18, 4
  13              		.thumb
  14              		.file	"chlists.c"
  15              		.text
  16              	.Ltext0:
  17              		.cfi_sections	.debug_frame
  18              		.section	.text.prio_insert,"ax",%progbits
  19              		.align	2
  20              		.p2align 4,,15
  21              		.global	prio_insert
  22              		.thumb
  23              		.thumb_func
  24              		.type	prio_insert, %function
  25              	prio_insert:
  26              	.LFB0:
  27              		.file 1 "../../../os/kernel/src/chlists.c"
  28              		.loc 1 51 0
  29              		.cfi_startproc
  30              		@ args = 0, pretend = 0, frame = 0
  31              		@ frame_needed = 0, uses_anonymous_args = 0
  32              		@ link register save eliminated.
  33              	.LVL0:
  34 0000 10B4     		push	{r4}
  35              		.cfi_def_cfa_offset 4
  36              		.cfi_offset 4, -4
  37              		.loc 1 54 0
  38 0002 0B46     		mov	r3, r1
  39 0004 03E0     		b	.L4
  40              	.LVL1:
  41              	.L2:
  42              		.loc 1 59 0 discriminator 1
  43 0006 9C68     		ldr	r4, [r3, #8]
  44 0008 8268     		ldr	r2, [r0, #8]
  45 000a 9442     		cmp	r4, r2
  46 000c 02D3     		bcc	.L3
  47              	.L4:
  48              		.loc 1 57 0 discriminator 1
  49 000e 1B68     		ldr	r3, [r3]
  50              	.LVL2:
  51              		.loc 1 59 0 discriminator 1
  52 0010 8B42     		cmp	r3, r1
  53 0012 F8D1     		bne	.L2
  54              	.L3:
  55              		.loc 1 62 0
  56 0014 5A68     		ldr	r2, [r3, #4]
  57              		.loc 1 64 0
ARM GAS  /tmp/ccpdBNO5.s 			page 2


  58 0016 5DF8044B 		ldr	r4, [sp], #4
  59              		.loc 1 61 0
  60 001a 0360     		str	r3, [r0]
  61              		.loc 1 62 0
  62 001c 4260     		str	r2, [r0, #4]
  63              		.loc 1 63 0
  64 001e 5860     		str	r0, [r3, #4]
  65 0020 1060     		str	r0, [r2]
  66              		.loc 1 64 0
  67 0022 7047     		bx	lr
  68              		.cfi_endproc
  69              	.LFE0:
  70              		.size	prio_insert, .-prio_insert
  71 0024 AFF30080 		.section	.text.queue_insert,"ax",%progbits
  71      AFF30080 
  71      AFF30080 
  72              		.align	2
  73              		.p2align 4,,15
  74              		.global	queue_insert
  75              		.thumb
  76              		.thumb_func
  77              		.type	queue_insert, %function
  78              	queue_insert:
  79              	.LFB1:
  80              		.loc 1 74 0
  81              		.cfi_startproc
  82              		@ args = 0, pretend = 0, frame = 0
  83              		@ frame_needed = 0, uses_anonymous_args = 0
  84              		@ link register save eliminated.
  85              	.LVL3:
  86              		.loc 1 77 0
  87 0000 4B68     		ldr	r3, [r1, #4]
  88 0002 80E80A00 		stmia	r0, {r1, r3}
  89              		.loc 1 78 0
  90 0006 4860     		str	r0, [r1, #4]
  91 0008 1860     		str	r0, [r3]
  92 000a 7047     		bx	lr
  93              		.cfi_endproc
  94              	.LFE1:
  95              		.size	queue_insert, .-queue_insert
  96 000c AFF30080 		.section	.text.fifo_remove,"ax",%progbits
  97              		.align	2
  98              		.p2align 4,,15
  99              		.global	fifo_remove
 100              		.thumb
 101              		.thumb_func
 102              		.type	fifo_remove, %function
 103              	fifo_remove:
 104              	.LFB2:
 105              		.loc 1 91 0
 106              		.cfi_startproc
 107              		@ args = 0, pretend = 0, frame = 0
 108              		@ frame_needed = 0, uses_anonymous_args = 0
 109              		@ link register save eliminated.
 110              	.LVL4:
 111              		.loc 1 91 0
 112 0000 0346     		mov	r3, r0
ARM GAS  /tmp/ccpdBNO5.s 			page 3


 113              		.loc 1 92 0
 114 0002 0068     		ldr	r0, [r0]
 115              	.LVL5:
 116              		.loc 1 94 0
 117 0004 0268     		ldr	r2, [r0]
 118 0006 1A60     		str	r2, [r3]
 119 0008 5360     		str	r3, [r2, #4]
 120              		.loc 1 96 0
 121 000a 7047     		bx	lr
 122              		.cfi_endproc
 123              	.LFE2:
 124              		.size	fifo_remove, .-fifo_remove
 125 000c AFF30080 		.section	.text.lifo_remove,"ax",%progbits
 126              		.align	2
 127              		.p2align 4,,15
 128              		.global	lifo_remove
 129              		.thumb
 130              		.thumb_func
 131              		.type	lifo_remove, %function
 132              	lifo_remove:
 133              	.LFB3:
 134              		.loc 1 108 0
 135              		.cfi_startproc
 136              		@ args = 0, pretend = 0, frame = 0
 137              		@ frame_needed = 0, uses_anonymous_args = 0
 138              		@ link register save eliminated.
 139              	.LVL6:
 140              		.loc 1 108 0
 141 0000 0346     		mov	r3, r0
 142              		.loc 1 109 0
 143 0002 4068     		ldr	r0, [r0, #4]
 144              	.LVL7:
 145              		.loc 1 111 0
 146 0004 4268     		ldr	r2, [r0, #4]
 147 0006 5A60     		str	r2, [r3, #4]
 148 0008 1360     		str	r3, [r2]
 149              		.loc 1 113 0
 150 000a 7047     		bx	lr
 151              		.cfi_endproc
 152              	.LFE3:
 153              		.size	lifo_remove, .-lifo_remove
 154 000c AFF30080 		.section	.text.dequeue,"ax",%progbits
 155              		.align	2
 156              		.p2align 4,,15
 157              		.global	dequeue
 158              		.thumb
 159              		.thumb_func
 160              		.type	dequeue, %function
 161              	dequeue:
 162              	.LFB4:
 163              		.loc 1 125 0
 164              		.cfi_startproc
 165              		@ args = 0, pretend = 0, frame = 0
 166              		@ frame_needed = 0, uses_anonymous_args = 0
 167              		@ link register save eliminated.
 168              	.LVL8:
 169              		.loc 1 127 0
ARM GAS  /tmp/ccpdBNO5.s 			page 4


 170 0000 90E80600 		ldmia	r0, {r1, r2}
 171 0004 1160     		str	r1, [r2]
 172              		.loc 1 128 0
 173 0006 0368     		ldr	r3, [r0]
 174 0008 5A60     		str	r2, [r3, #4]
 175              		.loc 1 130 0
 176 000a 7047     		bx	lr
 177              		.cfi_endproc
 178              	.LFE4:
 179              		.size	dequeue, .-dequeue
 180 000c AFF30080 		.section	.text.list_insert,"ax",%progbits
 181              		.align	2
 182              		.p2align 4,,15
 183              		.global	list_insert
 184              		.thumb
 185              		.thumb_func
 186              		.type	list_insert, %function
 187              	list_insert:
 188              	.LFB5:
 189              		.loc 1 140 0
 190              		.cfi_startproc
 191              		@ args = 0, pretend = 0, frame = 0
 192              		@ frame_needed = 0, uses_anonymous_args = 0
 193              		@ link register save eliminated.
 194              	.LVL9:
 195              		.loc 1 142 0
 196 0000 0B68     		ldr	r3, [r1]
 197 0002 0360     		str	r3, [r0]
 198              		.loc 1 143 0
 199 0004 0860     		str	r0, [r1]
 200 0006 7047     		bx	lr
 201              		.cfi_endproc
 202              	.LFE5:
 203              		.size	list_insert, .-list_insert
 204 0008 AFF30080 		.section	.text.list_remove,"ax",%progbits
 204      AFF30080 
 205              		.align	2
 206              		.p2align 4,,15
 207              		.global	list_remove
 208              		.thumb
 209              		.thumb_func
 210              		.type	list_remove, %function
 211              	list_remove:
 212              	.LFB6:
 213              		.loc 1 155 0
 214              		.cfi_startproc
 215              		@ args = 0, pretend = 0, frame = 0
 216              		@ frame_needed = 0, uses_anonymous_args = 0
 217              		@ link register save eliminated.
 218              	.LVL10:
 219              		.loc 1 155 0
 220 0000 0346     		mov	r3, r0
 221              		.loc 1 157 0
 222 0002 0068     		ldr	r0, [r0]
 223              	.LVL11:
 224              		.loc 1 158 0
 225 0004 0268     		ldr	r2, [r0]
ARM GAS  /tmp/ccpdBNO5.s 			page 5


 226 0006 1A60     		str	r2, [r3]
 227              		.loc 1 160 0
 228 0008 7047     		bx	lr
 229              		.cfi_endproc
 230              	.LFE6:
 231              		.size	list_remove, .-list_remove
 232 000a 00BFAFF3 		.text
 232      0080
 233              	.Letext0:
 234              		.file 2 "/usr/arm-none-eabi/include/machine/_default_types.h"
 235              		.file 3 "/usr/arm-none-eabi/include/stdint.h"
 236              		.file 4 "../../../os/ports/GCC/ARMCMx/chtypes.h"
 237              		.file 5 "../../../os/kernel/include/chlists.h"
 238              		.file 6 "../../../os/kernel/include/chthreads.h"
 239              		.file 7 "../../../os/ports/GCC/ARMCMx/chcore_v7m.h"
 240              		.file 8 "../../../os/kernel/include/chmtx.h"