ARM GAS  /tmp/ccpdBNO5.s 			page 1


   1              		.syntax unified
   2              		.cpu cortex-m4
   3              		.fpu softvfp
   4              		.eabi_attribute 20, 1
   5              		.eabi_attribute 21, 1
   6              		.eabi_attribute 23, 3
   7              		.eabi_attribute 24, 1
   8              		.eabi_attribute 25, 1
   9              		.eabi_attribute 26, 1
  10              		.eabi_attribute 30, 2
  11              		.eabi_attribute 34, 1
  12              		.eabi_attribute 18, 4
  13              		.thumb
  14              		.file	"chlists.c"
  15              		.text
  16              	.Ltext0:
  17              		.cfi_sections	.debug_frame
  18              		.section	.text.prio_insert,"ax",%progbits
  19              		.align	2
  20              		.p2align 4,,15
  21              		.global	prio_insert
  22              		.thumb
  23              		.thumb_func
  24              		.type	prio_insert, %function
  25              	prio_insert:
  26              	.LFB0:
  27              		.file 1 "../../../os/kernel/src/chlists.c"
  28              		.loc 1 51 0
  29              		.cfi_startproc
  30              		@ args = 0, pretend = 0, frame = 0
  31              		@ frame_needed = 0, uses_anonymous_args = 0
  32              		@ link register save eliminated.
  33              	.LVL0:
  34 0000 10B4     		push	{r4}
  35              		.cfi_def_cfa_offset 4
  36              		.cfi_offset 4, -4
  37              		.loc 1 54 0
  38 0002 0B46     		mov	r3, r1
  39 0004 03E0     		b	.L4
  40              	.LVL1:
  41              	.L2:
  42              		.loc 1 59 0 discriminator 1
  43 0006 9C68     		ldr	r4, [r3, #8]
  44 0008 8268     		ldr	r2, [r0, #8]
  45 000a 9442     		cmp	r4, r2
  46 000c 02D3     		bcc	.L3
  47              	.L4:
  48              		.loc 1 57 0 discriminator 1
  49 000e 1B68     		ldr	r3, [r3]
  50              	.LVL2:
  51              		.loc 1 59 0 discriminator 1
  52 0010 8B42     		cmp	r3, r1
  53 0012 F8D1     		bne	.L2
  54              	.L3:
  55              		.loc 1 62 0
  56 0014 5A68     		ldr	r2, [r3, #4]
  57              		.loc 1 64 0
ARM GAS  /tmp/ccpdBNO5.s 			page 2


  58 0016 5DF8044B 		ldr	r4, [sp], #4
  59              		.loc 1 61 0
  60 001a 0360     		str	r3, [r0]
  61              		.loc 1 62 0
  62 001c 4260     		str	r2, [r0, #4]
  63              		.loc 1 63 0
  64 001e 5860     		str	r0, [r3, #4]
  65 0020 1060     		str	r0, [r2]
  66              		.loc 1 64 0
  67 0022 7047     		bx	lr
  68              		.cfi_endproc
  69              	.LFE0:
  70              		.size	prio_insert, .-prio_insert
  71 0024 AFF30080 		.section	.text.queue_insert,"ax",%progbits
  71      AFF30080 
  71      AFF30080 
  72              		.align	2
  73              		.p2align 4,,15
  74              		.global	queue_insert
  75              		.thumb
  76              		.thumb_func
  77              		.type	queue_insert, %function
  78              	queue_insert:
  79              	.LFB1:
  80              		.loc 1 74 0
  81              		.cfi_startproc
  82              		@ args = 0, pretend = 0, frame = 0
  83              		@ frame_needed = 0, uses_anonymous_args = 0
  84              		@ link register save eliminated.
  85              	.LVL3:
  86              		.loc 1 77 0
  87 0000 4B68     		ldr	r3, [r1, #4]
  88 0002 80E80A00 		stmia	r0, {r1, r3}
  89              		.loc 1 78 0
  90 0006 4860     		str	r0, [r1, #4]
  91 0008 1860     		str	r0, [r3]
  92 000a 7047     		bx	lr
  93              		.cfi_endproc
  94              	.LFE1:
  95              		.size	queue_insert, .-queue_insert
  96 000c AFF30080 		.section	.text.fifo_remove,"ax",%progbits
  97              		.align	2
  98              		.p2align 4,,15
  99              		.global	fifo_remove
 100              		.thumb
 101              		.thumb_func
 102              		.type	fifo_remove, %function
 103              	fifo_remove:
 104              	.LFB2:
 105              		.loc 1 91 0
 106              		.cfi_startproc
 107              		@ args = 0, pretend = 0, frame = 0
 108              		@ frame_needed = 0, uses_anonymous_args = 0
 109              		@ link register save eliminated.
 110              	.LVL4:
 111              		.loc 1 91 0
 112 0000 0346     		mov	r3, r0
ARM GAS  /tmp/ccpdBNO5.s 			page 3


 113              		.loc 1 92 0
 114 0002 0068     		ldr	r0, [r0]
 115              	.LVL5:
 116              		.loc 1 94 0
 117 0004 0268     		ldr	r2, [r0]
 118 0006 1A60     		str	r2, [r3]
 119 0008 5360     		str	r3, [r2, #4]
 120              		.loc 1 96 0
 121 000a 7047     		bx	lr
 122              		.cfi_endproc
 123              	.LFE2:
 124              		.size	fifo_remove, .-fifo_remove
 125 000c AFF30080 		.section	.text.lifo_remove,"ax",%progbits
 126              		.align	2
 127              		.p2align 4,,15
 128              		.global	lifo_remove
 129              		.thumb
 130              		.thumb_func
 131              		.type	lifo_remove, %function
 132              	lifo_remove:
 133              	.LFB3:
 134              		.loc 1 108 0
 135              		.cfi_startproc
 136              		@ args = 0, pretend = 0, frame = 0
 137              		@ frame_needed = 0, uses_anonymous_args = 0
 138              		@ link register save eliminated.
 139              	.LVL6:
 140              		.loc 1 108 0
 141 0000 0346     		mov	r3, r0
 142              		.loc 1 109 0
 143 0002 4068     		ldr	r0, [r0, #4]
 144              	.LVL7:
 145              		.loc 1 111 0
 146 0004 4268     		ldr	r2, [r0, #4]
 147 0006 5A60     		str	r2, [r3, #4]
 148 0008 1360     		str	r3, [r2]
 149              		.loc 1 113 0
 150 000a 7047     		bx	lr
 151              		.cfi_endproc
 152              	.LFE3:
 153              		.size	lifo_remove, .-lifo_remove
 154 000c AFF30080 		.section	.text.dequeue,"ax",%progbits
 155              		.align	2
 156              		.p2align 4,,15
 157              		.global	dequeue
 158              		.thumb
 159              		.thumb_func
 160              		.type	dequeue, %function
 161              	dequeue:
 162              	.LFB4:
 163              		.loc 1 125 0
 164              		.cfi_startproc
 165              		@ args = 0, pretend = 0, frame = 0
 166              		@ frame_needed = 0, uses_anonymous_args = 0
 167              		@ link register save eliminated.
 168              	.LVL8:
 169              		.loc 1 127 0
ARM GAS  /tmp/ccpdBNO5.s 			page 4


 170 0000 90E80600 		ldmia	r0, {r1, r2}
 171 0004 1160     		str	r1, [r2]
 172              		.loc 1 128 0
 173 0006 0368     		ldr	r3, [r0]
 174 0008 5A60     		str	r2, [r3, #4]
 175              		.loc 1 130 0
 176 000a 7047     		bx	lr
 177              		.cfi_endproc
 178              	.LFE4:
 179              		.size	dequeue, .-dequeue
 180 000c AFF30080 		.section	.text.list_insert,"ax",%progbits
 181              		.align	2
 182              		.p2align 4,,15
 183              		.global	list_insert
 184              		.thumb
 185              		.thumb_func
 186              		.type	list_insert, %function
 187              	list_insert:
 188              	.LFB5:
 189              		.loc 1 140 0
 190              		.cfi_startproc
 191              		@ args = 0, pretend = 0, frame = 0
 192              		@ frame_needed = 0, uses_anonymous_args = 0
 193              		@ link register save eliminated.
 194              	.LVL9:
 195              		.loc 1 142 0
 196 0000 0B68     		ldr	r3, [r1]
 197 0002 0360     		str	r3, [r0]
 198              		.loc 1 143 0
 199 0004 0860     		str	r0, [r1]
 200 0006 7047     		bx	lr
 201              		.cfi_endproc
 202              	.LFE5:
 203              		.size	list_insert, .-list_insert
 204 0008 AFF30080 		.section	.text.list_remove,"ax",%progbits
 204      AFF30080 
 205              		.align	2
 206              		.p2align 4,,15
 207              		.global	list_remove
 208              		.thumb
 209              		.thumb_func
 210              		.type	list_remove, %function
 211              	list_remove:
 212              	.LFB6:
 213              		.loc 1 155 0
 214              		.cfi_startproc
 215              		@ args = 0, pretend = 0, frame = 0
 216              		@ frame_needed = 0, uses_anonymous_args = 0
 217              		@ link register save eliminated.
 218              	.LVL10:
 219              		.loc 1 155 0
 220 0000 0346     		mov	r3, r0
 221              		.loc 1 157 0
 222 0002 0068     		ldr	r0, [r0]
 223              	.LVL11:
 224              		.loc 1 158 0
 225 0004 0268     		ldr	r2, [r0]
ARM GAS  /tmp/ccpdBNO5.s 			page 5


 226 0006 1A60     		str	r2, [r3]
 227              		.loc 1 160 0
 228 0008 7047     		bx	lr
 229              		.cfi_endproc
 230              	.LFE6:
 231              		.size	list_remove, .-list_remove
 232 000a 00BFAFF3 		.text
 232      0080
 233              	.Letext0:
 234              		.file 2 "/usr/arm-none-eabi/include/machine/_default_types.h"
 235              		.file 3 "/usr/arm-none-eabi/include/stdint.h"
 236              		.file 4 "../../../os/ports/GCC/ARMCMx/chtypes.h"
 237              		.file 5 "../../../os/kernel/include/chlists.h"
 238              		.file 6 "../../../os/kernel/include/chthreads.h"
 239              		.file 7 "../../../os/ports/GCC/ARMCMx/chcore_v7m.h"
 240              		.file 8 "../../../os/kernel/include/chmtx.h"
 241              		.section	.debug_info,"",%progbits
 242              	.Ldebug_info0:
 243 0000 09050000 		.4byte	0x509
 244 0004 0400     		.2byte	0x4
 245 0006 00000000 		.4byte	.Ldebug_abbrev0
 246 000a 04       		.byte	0x4
 247 000b 01       		.uleb128 0x1
 248 000c 2D000000 		.4byte	.LASF65
 249 0010 01       		.byte	0x1
 250 0011 39010000 		.4byte	.LASF66
 251 0015 98010000 		.4byte	.LASF67
 252 0019 00000000 		.4byte	.Ldebug_ranges0+0
 253 001d 00000000 		.4byte	0
 254 0021 00000000 		.4byte	.Ldebug_line0
 255 0025 02       		.uleb128 0x2
 256 0026 04       		.byte	0x4
 257 0027 05       		.byte	0x5
 258 0028 696E7400 		.ascii	"int\000"
 259 002c 03       		.uleb128 0x3
 260 002d 04       		.byte	0x4
 261 002e 07       		.byte	0x7
 262 002f 79010000 		.4byte	.LASF0
 263 0033 03       		.uleb128 0x3
 264 0034 01       		.byte	0x1
 265 0035 06       		.byte	0x6
 266 0036 FF000000 		.4byte	.LASF1
 267 003a 04       		.uleb128 0x4
 268 003b 23000000 		.4byte	.LASF5
 269 003f 02       		.byte	0x2
 270 0040 1C       		.byte	0x1c
 271 0041 45000000 		.4byte	0x45
 272 0045 03       		.uleb128 0x3
 273 0046 01       		.byte	0x1
 274 0047 08       		.byte	0x8
 275 0048 9F020000 		.4byte	.LASF2
 276 004c 03       		.uleb128 0x3
 277 004d 02       		.byte	0x2
 278 004e 05       		.byte	0x5
 279 004f B7020000 		.4byte	.LASF3
 280 0053 03       		.uleb128 0x3
 281 0054 02       		.byte	0x2
ARM GAS  /tmp/ccpdBNO5.s 			page 6


 282 0055 07       		.byte	0x7
 283 0056 EF010000 		.4byte	.LASF4
 284 005a 04       		.uleb128 0x4
 285 005b 27030000 		.4byte	.LASF6
 286 005f 02       		.byte	0x2
 287 0060 37       		.byte	0x37
 288 0061 65000000 		.4byte	0x65
 289 0065 03       		.uleb128 0x3
 290 0066 04       		.byte	0x4
 291 0067 05       		.byte	0x5
 292 0068 13010000 		.4byte	.LASF7
 293 006c 04       		.uleb128 0x4
 294 006d 5A010000 		.4byte	.LASF8
 295 0071 02       		.byte	0x2
 296 0072 38       		.byte	0x38
 297 0073 77000000 		.4byte	0x77
 298 0077 03       		.uleb128 0x3
 299 0078 04       		.byte	0x4
 300 0079 07       		.byte	0x7
 301 007a 86010000 		.4byte	.LASF9
 302 007e 03       		.uleb128 0x3
 303 007f 08       		.byte	0x8
 304 0080 05       		.byte	0x5
 305 0081 F1000000 		.4byte	.LASF10
 306 0085 04       		.uleb128 0x4
 307 0086 77020000 		.4byte	.LASF11
 308 008a 02       		.byte	0x2
 309 008b 4E       		.byte	0x4e
 310 008c 90000000 		.4byte	0x90
 311 0090 03       		.uleb128 0x3
 312 0091 08       		.byte	0x8
 313 0092 07       		.byte	0x7
 314 0093 CA000000 		.4byte	.LASF12
 315 0097 04       		.uleb128 0x4
 316 0098 56030000 		.4byte	.LASF13
 317 009c 03       		.byte	0x3
 318 009d 2A       		.byte	0x2a
 319 009e 3A000000 		.4byte	0x3a
 320 00a2 04       		.uleb128 0x4
 321 00a3 97020000 		.4byte	.LASF14
 322 00a7 03       		.byte	0x3
 323 00a8 41       		.byte	0x41
 324 00a9 5A000000 		.4byte	0x5a
 325 00ad 04       		.uleb128 0x4
 326 00ae F1020000 		.4byte	.LASF15
 327 00b2 03       		.byte	0x3
 328 00b3 42       		.byte	0x42
 329 00b4 6C000000 		.4byte	0x6c
 330 00b8 04       		.uleb128 0x4
 331 00b9 1A000000 		.4byte	.LASF16
 332 00bd 03       		.byte	0x3
 333 00be 4E       		.byte	0x4e
 334 00bf 85000000 		.4byte	0x85
 335 00c3 03       		.uleb128 0x3
 336 00c4 01       		.byte	0x1
 337 00c5 02       		.byte	0x2
 338 00c6 91020000 		.4byte	.LASF17
ARM GAS  /tmp/ccpdBNO5.s 			page 7


 339 00ca 04       		.uleb128 0x4
 340 00cb 14020000 		.4byte	.LASF18
 341 00cf 04       		.byte	0x4
 342 00d0 2C       		.byte	0x2c
 343 00d1 97000000 		.4byte	0x97
 344 00d5 04       		.uleb128 0x4
 345 00d6 1C010000 		.4byte	.LASF19
 346 00da 04       		.byte	0x4
 347 00db 2D       		.byte	0x2d
 348 00dc 97000000 		.4byte	0x97
 349 00e0 04       		.uleb128 0x4
 350 00e1 89020000 		.4byte	.LASF20
 351 00e5 04       		.byte	0x4
 352 00e6 30       		.byte	0x30
 353 00e7 AD000000 		.4byte	0xad
 354 00eb 04       		.uleb128 0x4
 355 00ec 02020000 		.4byte	.LASF21
 356 00f0 04       		.byte	0x4
 357 00f1 31       		.byte	0x31
 358 00f2 A2000000 		.4byte	0xa2
 359 00f6 04       		.uleb128 0x4
 360 00f7 28020000 		.4byte	.LASF22
 361 00fb 04       		.byte	0x4
 362 00fc 33       		.byte	0x33
 363 00fd AD000000 		.4byte	0xad
 364 0101 04       		.uleb128 0x4
 365 0102 12030000 		.4byte	.LASF23
 366 0106 04       		.byte	0x4
 367 0107 35       		.byte	0x35
 368 0108 AD000000 		.4byte	0xad
 369 010c 04       		.uleb128 0x4
 370 010d DF020000 		.4byte	.LASF24
 371 0111 05       		.byte	0x5
 372 0112 2A       		.byte	0x2a
 373 0113 17010000 		.4byte	0x117
 374 0117 05       		.uleb128 0x5
 375 0118 DF020000 		.4byte	.LASF24
 376 011c 48       		.byte	0x48
 377 011d 06       		.byte	0x6
 378 011e 5E       		.byte	0x5e
 379 011f FC010000 		.4byte	0x1fc
 380 0123 06       		.uleb128 0x6
 381 0124 D0020000 		.4byte	.LASF25
 382 0128 06       		.byte	0x6
 383 0129 5F       		.byte	0x5f
 384 012a 1D020000 		.4byte	0x21d
 385 012e 00       		.byte	0
 386 012f 06       		.uleb128 0x6
 387 0130 82020000 		.4byte	.LASF26
 388 0134 06       		.byte	0x6
 389 0135 61       		.byte	0x61
 390 0136 1D020000 		.4byte	0x21d
 391 013a 04       		.byte	0x4
 392 013b 06       		.uleb128 0x6
 393 013c EA000000 		.4byte	.LASF27
 394 0140 06       		.byte	0x6
 395 0141 63       		.byte	0x63
ARM GAS  /tmp/ccpdBNO5.s 			page 8


 396 0142 E0000000 		.4byte	0xe0
 397 0146 08       		.byte	0x8
 398 0147 06       		.uleb128 0x6
 399 0148 74030000 		.4byte	.LASF28
 400 014c 06       		.byte	0x6
 401 014d 64       		.byte	0x64
 402 014e E2020000 		.4byte	0x2e2
 403 0152 0C       		.byte	0xc
 404 0153 06       		.uleb128 0x6
 405 0154 25010000 		.4byte	.LASF29
 406 0158 06       		.byte	0x6
 407 0159 66       		.byte	0x66
 408 015a 1D020000 		.4byte	0x21d
 409 015e 10       		.byte	0x10
 410 015f 06       		.uleb128 0x6
 411 0160 4E020000 		.4byte	.LASF30
 412 0164 06       		.byte	0x6
 413 0165 67       		.byte	0x67
 414 0166 1D020000 		.4byte	0x21d
 415 016a 14       		.byte	0x14
 416 016b 06       		.uleb128 0x6
 417 016c 65030000 		.4byte	.LASF31
 418 0170 06       		.byte	0x6
 419 0171 6E       		.byte	0x6e
 420 0172 86030000 		.4byte	0x386
 421 0176 18       		.byte	0x18
 422 0177 06       		.uleb128 0x6
 423 0178 6E010000 		.4byte	.LASF32
 424 017c 06       		.byte	0x6
 425 017d 74       		.byte	0x74
 426 017e 98030000 		.4byte	0x398
 427 0182 1C       		.byte	0x1c
 428 0183 06       		.uleb128 0x6
 429 0184 C1020000 		.4byte	.LASF33
 430 0188 06       		.byte	0x6
 431 0189 79       		.byte	0x79
 432 018a D5000000 		.4byte	0xd5
 433 018e 20       		.byte	0x20
 434 018f 06       		.uleb128 0x6
 435 0190 D7020000 		.4byte	.LASF34
 436 0194 06       		.byte	0x6
 437 0195 7D       		.byte	0x7d
 438 0196 CA000000 		.4byte	0xca
 439 019a 21       		.byte	0x21
 440 019b 06       		.uleb128 0x6
 441 019c 31030000 		.4byte	.LASF35
 442 01a0 06       		.byte	0x6
 443 01a1 8F       		.byte	0x8f
 444 01a2 0A030000 		.4byte	0x30a
 445 01a6 24       		.byte	0x24
 446 01a7 07       		.uleb128 0x7
 447 01a8 705F7500 		.ascii	"p_u\000"
 448 01ac 06       		.byte	0x6
 449 01ad B4       		.byte	0xb4
 450 01ae 51030000 		.4byte	0x351
 451 01b2 28       		.byte	0x28
 452 01b3 06       		.uleb128 0x6
ARM GAS  /tmp/ccpdBNO5.s 			page 9


 453 01b4 7A030000 		.4byte	.LASF36
 454 01b8 06       		.byte	0x6
 455 01b9 B9       		.byte	0xb9
 456 01ba 43020000 		.4byte	0x243
 457 01be 2C       		.byte	0x2c
 458 01bf 06       		.uleb128 0x6
 459 01c0 4B030000 		.4byte	.LASF37
 460 01c4 06       		.byte	0x6
 461 01c5 BF       		.byte	0xbf
 462 01c6 23020000 		.4byte	0x223
 463 01ca 30       		.byte	0x30
 464 01cb 06       		.uleb128 0x6
 465 01cc 00000000 		.4byte	.LASF38
 466 01d0 06       		.byte	0x6
 467 01d1 C3       		.byte	0xc3
 468 01d2 EB000000 		.4byte	0xeb
 469 01d6 38       		.byte	0x38
 470 01d7 06       		.uleb128 0x6
 471 01d8 E6020000 		.4byte	.LASF39
 472 01dc 06       		.byte	0x6
 473 01dd C9       		.byte	0xc9
 474 01de F6000000 		.4byte	0xf6
 475 01e2 3C       		.byte	0x3c
 476 01e3 06       		.uleb128 0x6
 477 01e4 AD020000 		.4byte	.LASF40
 478 01e8 06       		.byte	0x6
 479 01e9 D0       		.byte	0xd0
 480 01ea 9E030000 		.4byte	0x39e
 481 01ee 40       		.byte	0x40
 482 01ef 06       		.uleb128 0x6
 483 01f0 1C030000 		.4byte	.LASF41
 484 01f4 06       		.byte	0x6
 485 01f5 D4       		.byte	0xd4
 486 01f6 E0000000 		.4byte	0xe0
 487 01fa 44       		.byte	0x44
 488 01fb 00       		.byte	0
 489 01fc 08       		.uleb128 0x8
 490 01fd 08       		.byte	0x8
 491 01fe 05       		.byte	0x5
 492 01ff 61       		.byte	0x61
 493 0200 1D020000 		.4byte	0x21d
 494 0204 06       		.uleb128 0x6
 495 0205 D0020000 		.4byte	.LASF25
 496 0209 05       		.byte	0x5
 497 020a 62       		.byte	0x62
 498 020b 1D020000 		.4byte	0x21d
 499 020f 00       		.byte	0
 500 0210 06       		.uleb128 0x6
 501 0211 82020000 		.4byte	.LASF26
 502 0215 05       		.byte	0x5
 503 0216 64       		.byte	0x64
 504 0217 1D020000 		.4byte	0x21d
 505 021b 04       		.byte	0x4
 506 021c 00       		.byte	0
 507 021d 09       		.uleb128 0x9
 508 021e 04       		.byte	0x4
 509 021f 0C010000 		.4byte	0x10c
ARM GAS  /tmp/ccpdBNO5.s 			page 10


 510 0223 04       		.uleb128 0x4
 511 0224 56020000 		.4byte	.LASF42
 512 0228 05       		.byte	0x5
 513 0229 66       		.byte	0x66
 514 022a FC010000 		.4byte	0x1fc
 515 022e 08       		.uleb128 0x8
 516 022f 04       		.byte	0x4
 517 0230 05       		.byte	0x5
 518 0231 6B       		.byte	0x6b
 519 0232 43020000 		.4byte	0x243
 520 0236 06       		.uleb128 0x6
 521 0237 D0020000 		.4byte	.LASF25
 522 023b 05       		.byte	0x5
 523 023c 6D       		.byte	0x6d
 524 023d 1D020000 		.4byte	0x21d
 525 0241 00       		.byte	0
 526 0242 00       		.byte	0
 527 0243 04       		.uleb128 0x4
 528 0244 1C020000 		.4byte	.LASF43
 529 0248 05       		.byte	0x5
 530 0249 70       		.byte	0x70
 531 024a 2E020000 		.4byte	0x22e
 532 024e 04       		.uleb128 0x4
 533 024f 65010000 		.4byte	.LASF44
 534 0253 07       		.byte	0x7
 535 0254 E5       		.byte	0xe5
 536 0255 59020000 		.4byte	0x259
 537 0259 0A       		.uleb128 0xa
 538 025a 04       		.byte	0x4
 539 025b 04       		.uleb128 0x4
 540 025c 3A020000 		.4byte	.LASF45
 541 0260 07       		.byte	0x7
 542 0261 EB       		.byte	0xeb
 543 0262 B8000000 		.4byte	0xb8
 544 0266 0B       		.uleb128 0xb
 545 0267 44030000 		.4byte	.LASF46
 546 026b 24       		.byte	0x24
 547 026c 07       		.byte	0x7
 548 026d 0C01     		.2byte	0x10c
 549 026f E2020000 		.4byte	0x2e2
 550 0273 0C       		.uleb128 0xc
 551 0274 723400   		.ascii	"r4\000"
 552 0277 07       		.byte	0x7
 553 0278 1F01     		.2byte	0x11f
 554 027a 4E020000 		.4byte	0x24e
 555 027e 00       		.byte	0
 556 027f 0C       		.uleb128 0xc
 557 0280 723500   		.ascii	"r5\000"
 558 0283 07       		.byte	0x7
 559 0284 2001     		.2byte	0x120
 560 0286 4E020000 		.4byte	0x24e
 561 028a 04       		.byte	0x4
 562 028b 0C       		.uleb128 0xc
 563 028c 723600   		.ascii	"r6\000"
 564 028f 07       		.byte	0x7
 565 0290 2101     		.2byte	0x121
 566 0292 4E020000 		.4byte	0x24e
ARM GAS  /tmp/ccpdBNO5.s 			page 11


 567 0296 08       		.byte	0x8
 568 0297 0C       		.uleb128 0xc
 569 0298 723700   		.ascii	"r7\000"
 570 029b 07       		.byte	0x7
 571 029c 2201     		.2byte	0x122
 572 029e 4E020000 		.4byte	0x24e
 573 02a2 0C       		.byte	0xc
 574 02a3 0C       		.uleb128 0xc
 575 02a4 723800   		.ascii	"r8\000"
 576 02a7 07       		.byte	0x7
 577 02a8 2301     		.2byte	0x123
 578 02aa 4E020000 		.4byte	0x24e
 579 02ae 10       		.byte	0x10
 580 02af 0C       		.uleb128 0xc
 581 02b0 723900   		.ascii	"r9\000"
 582 02b3 07       		.byte	0x7
 583 02b4 2401     		.2byte	0x124
 584 02b6 4E020000 		.4byte	0x24e
 585 02ba 14       		.byte	0x14
 586 02bb 0C       		.uleb128 0xc
 587 02bc 72313000 		.ascii	"r10\000"
 588 02c0 07       		.byte	0x7
 589 02c1 2501     		.2byte	0x125
 590 02c3 4E020000 		.4byte	0x24e
 591 02c7 18       		.byte	0x18
 592 02c8 0C       		.uleb128 0xc
 593 02c9 72313100 		.ascii	"r11\000"
 594 02cd 07       		.byte	0x7
 595 02ce 2601     		.2byte	0x126
 596 02d0 4E020000 		.4byte	0x24e
 597 02d4 1C       		.byte	0x1c
 598 02d5 0C       		.uleb128 0xc
 599 02d6 6C7200   		.ascii	"lr\000"
 600 02d9 07       		.byte	0x7
 601 02da 2701     		.2byte	0x127
 602 02dc 4E020000 		.4byte	0x24e
 603 02e0 20       		.byte	0x20
 604 02e1 00       		.byte	0
 605 02e2 0B       		.uleb128 0xb
 606 02e3 E7010000 		.4byte	.LASF47
 607 02e7 04       		.byte	0x4
 608 02e8 07       		.byte	0x7
 609 02e9 3101     		.2byte	0x131
 610 02eb FD020000 		.4byte	0x2fd
 611 02ef 0C       		.uleb128 0xc
 612 02f0 72313300 		.ascii	"r13\000"
 613 02f4 07       		.byte	0x7
 614 02f5 3201     		.2byte	0x132
 615 02f7 FD020000 		.4byte	0x2fd
 616 02fb 00       		.byte	0
 617 02fc 00       		.byte	0
 618 02fd 09       		.uleb128 0x9
 619 02fe 04       		.byte	0x4
 620 02ff 66020000 		.4byte	0x266
 621 0303 03       		.uleb128 0x3
 622 0304 04       		.byte	0x4
 623 0305 07       		.byte	0x7
ARM GAS  /tmp/ccpdBNO5.s 			page 12


 624 0306 45020000 		.4byte	.LASF48
 625 030a 0D       		.uleb128 0xd
 626 030b 01010000 		.4byte	0x101
 627 030f 05       		.uleb128 0x5
 628 0310 34020000 		.4byte	.LASF49
 629 0314 10       		.byte	0x10
 630 0315 08       		.byte	0x8
 631 0316 2C       		.byte	0x2c
 632 0317 40030000 		.4byte	0x340
 633 031b 06       		.uleb128 0x6
 634 031c 0B010000 		.4byte	.LASF50
 635 0320 08       		.byte	0x8
 636 0321 2D       		.byte	0x2d
 637 0322 23020000 		.4byte	0x223
 638 0326 00       		.byte	0
 639 0327 06       		.uleb128 0x6
 640 0328 6C030000 		.4byte	.LASF51
 641 032c 08       		.byte	0x8
 642 032d 2F       		.byte	0x2f
 643 032e 1D020000 		.4byte	0x21d
 644 0332 08       		.byte	0x8
 645 0333 06       		.uleb128 0x6
 646 0334 0B030000 		.4byte	.LASF52
 647 0338 08       		.byte	0x8
 648 0339 31       		.byte	0x31
 649 033a 40030000 		.4byte	0x340
 650 033e 0C       		.byte	0xc
 651 033f 00       		.byte	0
 652 0340 09       		.uleb128 0x9
 653 0341 04       		.byte	0x4
 654 0342 0F030000 		.4byte	0x30f
 655 0346 04       		.uleb128 0x4
 656 0347 34020000 		.4byte	.LASF49
 657 034b 08       		.byte	0x8
 658 034c 33       		.byte	0x33
 659 034d 0F030000 		.4byte	0x30f
 660 0351 0E       		.uleb128 0xe
 661 0352 04       		.byte	0x4
 662 0353 06       		.byte	0x6
 663 0354 96       		.byte	0x96
 664 0355 86030000 		.4byte	0x386
 665 0359 0F       		.uleb128 0xf
 666 035a 13000000 		.4byte	.LASF53
 667 035e 06       		.byte	0x6
 668 035f 9D       		.byte	0x9d
 669 0360 EB000000 		.4byte	0xeb
 670 0364 0F       		.uleb128 0xf
 671 0365 E1000000 		.4byte	.LASF54
 672 0369 06       		.byte	0x6
 673 036a A4       		.byte	0xa4
 674 036b EB000000 		.4byte	0xeb
 675 036f 0F       		.uleb128 0xf
 676 0370 5E030000 		.4byte	.LASF55
 677 0374 06       		.byte	0x6
 678 0375 AB       		.byte	0xab
 679 0376 59020000 		.4byte	0x259
 680 037a 0F       		.uleb128 0xf
ARM GAS  /tmp/ccpdBNO5.s 			page 13


 681 037b C9020000 		.4byte	.LASF56
 682 037f 06       		.byte	0x6
 683 0380 B2       		.byte	0xb2
 684 0381 F6000000 		.4byte	0xf6
 685 0385 00       		.byte	0
 686 0386 09       		.uleb128 0x9
 687 0387 04       		.byte	0x4
 688 0388 8C030000 		.4byte	0x38c
 689 038c 10       		.uleb128 0x10
 690 038d 91030000 		.4byte	0x391
 691 0391 03       		.uleb128 0x3
 692 0392 01       		.byte	0x1
 693 0393 08       		.byte	0x8
 694 0394 FA020000 		.4byte	.LASF57
 695 0398 09       		.uleb128 0x9
 696 0399 04       		.byte	0x4
 697 039a 5B020000 		.4byte	0x25b
 698 039e 09       		.uleb128 0x9
 699 039f 04       		.byte	0x4
 700 03a0 46030000 		.4byte	0x346
 701 03a4 11       		.uleb128 0x11
 702 03a5 08020000 		.4byte	.LASF58
 703 03a9 01       		.byte	0x1
 704 03aa 33       		.byte	0x33
 705 03ab 00000000 		.4byte	.LFB0
 706 03af 24000000 		.4byte	.LFE0-.LFB0
 707 03b3 01       		.uleb128 0x1
 708 03b4 9C       		.byte	0x9c
 709 03b5 E1030000 		.4byte	0x3e1
 710 03b9 12       		.uleb128 0x12
 711 03ba 747000   		.ascii	"tp\000"
 712 03bd 01       		.byte	0x1
 713 03be 33       		.byte	0x33
 714 03bf 1D020000 		.4byte	0x21d
 715 03c3 01       		.uleb128 0x1
 716 03c4 50       		.byte	0x50
 717 03c5 12       		.uleb128 0x12
 718 03c6 74717000 		.ascii	"tqp\000"
 719 03ca 01       		.byte	0x1
 720 03cb 33       		.byte	0x33
 721 03cc E1030000 		.4byte	0x3e1
 722 03d0 01       		.uleb128 0x1
 723 03d1 51       		.byte	0x51
 724 03d2 13       		.uleb128 0x13
 725 03d3 637000   		.ascii	"cp\000"
 726 03d6 01       		.byte	0x1
 727 03d7 36       		.byte	0x36
 728 03d8 1D020000 		.4byte	0x21d
 729 03dc 00000000 		.4byte	.LLST0
 730 03e0 00       		.byte	0
 731 03e1 09       		.uleb128 0x9
 732 03e2 04       		.byte	0x4
 733 03e3 23020000 		.4byte	0x223
 734 03e7 11       		.uleb128 0x11
 735 03e8 06000000 		.4byte	.LASF59
 736 03ec 01       		.byte	0x1
 737 03ed 4A       		.byte	0x4a
ARM GAS  /tmp/ccpdBNO5.s 			page 14


 738 03ee 00000000 		.4byte	.LFB1
 739 03f2 0C000000 		.4byte	.LFE1-.LFB1
 740 03f6 01       		.uleb128 0x1
 741 03f7 9C       		.byte	0x9c
 742 03f8 16040000 		.4byte	0x416
 743 03fc 12       		.uleb128 0x12
 744 03fd 747000   		.ascii	"tp\000"
 745 0400 01       		.byte	0x1
 746 0401 4A       		.byte	0x4a
 747 0402 1D020000 		.4byte	0x21d
 748 0406 01       		.uleb128 0x1
 749 0407 50       		.byte	0x50
 750 0408 12       		.uleb128 0x12
 751 0409 74717000 		.ascii	"tqp\000"
 752 040d 01       		.byte	0x1
 753 040e 4A       		.byte	0x4a
 754 040f E1030000 		.4byte	0x3e1
 755 0413 01       		.uleb128 0x1
 756 0414 51       		.byte	0x51
 757 0415 00       		.byte	0
 758 0416 14       		.uleb128 0x14
 759 0417 FF020000 		.4byte	.LASF60
 760 041b 01       		.byte	0x1
 761 041c 5B       		.byte	0x5b
 762 041d 1D020000 		.4byte	0x21d
 763 0421 00000000 		.4byte	.LFB2
 764 0425 0C000000 		.4byte	.LFE2-.LFB2
 765 0429 01       		.uleb128 0x1
 766 042a 9C       		.byte	0x9c
 767 042b 4B040000 		.4byte	0x44b
 768 042f 15       		.uleb128 0x15
 769 0430 74717000 		.ascii	"tqp\000"
 770 0434 01       		.byte	0x1
 771 0435 5B       		.byte	0x5b
 772 0436 E1030000 		.4byte	0x3e1
 773 043a 1E000000 		.4byte	.LLST1
 774 043e 16       		.uleb128 0x16
 775 043f 747000   		.ascii	"tp\000"
 776 0442 01       		.byte	0x1
 777 0443 5C       		.byte	0x5c
 778 0444 1D020000 		.4byte	0x21d
 779 0448 01       		.uleb128 0x1
 780 0449 50       		.byte	0x50
 781 044a 00       		.byte	0
 782 044b 14       		.uleb128 0x14
 783 044c 38030000 		.4byte	.LASF61
 784 0450 01       		.byte	0x1
 785 0451 6C       		.byte	0x6c
 786 0452 1D020000 		.4byte	0x21d
 787 0456 00000000 		.4byte	.LFB3
 788 045a 0C000000 		.4byte	.LFE3-.LFB3
 789 045e 01       		.uleb128 0x1
 790 045f 9C       		.byte	0x9c
 791 0460 80040000 		.4byte	0x480
 792 0464 15       		.uleb128 0x15
 793 0465 74717000 		.ascii	"tqp\000"
 794 0469 01       		.byte	0x1
ARM GAS  /tmp/ccpdBNO5.s 			page 15


 795 046a 6C       		.byte	0x6c
 796 046b E1030000 		.4byte	0x3e1
 797 046f 3C000000 		.4byte	.LLST2
 798 0473 16       		.uleb128 0x16
 799 0474 747000   		.ascii	"tp\000"
 800 0477 01       		.byte	0x1
 801 0478 6D       		.byte	0x6d
 802 0479 1D020000 		.4byte	0x21d
 803 047d 01       		.uleb128 0x1
 804 047e 50       		.byte	0x50
 805 047f 00       		.byte	0
 806 0480 14       		.uleb128 0x14
 807 0481 63020000 		.4byte	.LASF62
 808 0485 01       		.byte	0x1
 809 0486 7D       		.byte	0x7d
 810 0487 1D020000 		.4byte	0x21d
 811 048b 00000000 		.4byte	.LFB4
 812 048f 0C000000 		.4byte	.LFE4-.LFB4
 813 0493 01       		.uleb128 0x1
 814 0494 9C       		.byte	0x9c
 815 0495 A6040000 		.4byte	0x4a6
 816 0499 12       		.uleb128 0x12
 817 049a 747000   		.ascii	"tp\000"
 818 049d 01       		.byte	0x1
 819 049e 7D       		.byte	0x7d
 820 049f 1D020000 		.4byte	0x21d
 821 04a3 01       		.uleb128 0x1
 822 04a4 50       		.byte	0x50
 823 04a5 00       		.byte	0
 824 04a6 11       		.uleb128 0x11
 825 04a7 6B020000 		.4byte	.LASF63
 826 04ab 01       		.byte	0x1
 827 04ac 8C       		.byte	0x8c
 828 04ad 00000000 		.4byte	.LFB5
 829 04b1 08000000 		.4byte	.LFE5-.LFB5
 830 04b5 01       		.uleb128 0x1
 831 04b6 9C       		.byte	0x9c
 832 04b7 D5040000 		.4byte	0x4d5
 833 04bb 12       		.uleb128 0x12
 834 04bc 747000   		.ascii	"tp\000"
 835 04bf 01       		.byte	0x1
 836 04c0 8C       		.byte	0x8c
 837 04c1 1D020000 		.4byte	0x21d
 838 04c5 01       		.uleb128 0x1
 839 04c6 50       		.byte	0x50
 840 04c7 12       		.uleb128 0x12
 841 04c8 746C7000 		.ascii	"tlp\000"
 842 04cc 01       		.byte	0x1
 843 04cd 8C       		.byte	0x8c
 844 04ce D5040000 		.4byte	0x4d5
 845 04d2 01       		.uleb128 0x1
 846 04d3 51       		.byte	0x51
 847 04d4 00       		.byte	0
 848 04d5 09       		.uleb128 0x9
 849 04d6 04       		.byte	0x4
 850 04d7 43020000 		.4byte	0x243
 851 04db 17       		.uleb128 0x17
ARM GAS  /tmp/ccpdBNO5.s 			page 16


 852 04dc 2D010000 		.4byte	.LASF64
 853 04e0 01       		.byte	0x1
 854 04e1 9B       		.byte	0x9b
 855 04e2 1D020000 		.4byte	0x21d
 856 04e6 00000000 		.4byte	.LFB6
 857 04ea 0A000000 		.4byte	.LFE6-.LFB6
 858 04ee 01       		.uleb128 0x1
 859 04ef 9C       		.byte	0x9c
 860 04f0 15       		.uleb128 0x15
 861 04f1 746C7000 		.ascii	"tlp\000"
 862 04f5 01       		.byte	0x1
 863 04f6 9B       		.byte	0x9b
 864 04f7 D5040000 		.4byte	0x4d5
 865 04fb 5A000000 		.4byte	.LLST3
 866 04ff 16       		.uleb128 0x16
 867 0500 747000   		.ascii	"tp\000"
 868 0503 01       		.byte	0x1
 869 0504 9D       		.byte	0x9d
 870 0505 1D020000 		.4byte	0x21d
 871 0509 01       		.uleb128 0x1
 872 050a 50       		.byte	0x50
 873 050b 00       		.byte	0
 874 050c 00       		.byte	0
 875              		.section	.debug_abbrev,"",%progbits
 876              	.Ldebug_abbrev0:
 877 0000 01       		.uleb128 0x1
 878 0001 11       		.uleb128 0x11
 879 0002 01       		.byte	0x1
 880 0003 25       		.uleb128 0x25
 881 0004 0E       		.uleb128 0xe
 882 0005 13       		.uleb128 0x13
 883 0006 0B       		.uleb128 0xb
 884 0007 03       		.uleb128 0x3
 885 0008 0E       		.uleb128 0xe
 886 0009 1B       		.uleb128 0x1b
 887 000a 0E       		.uleb128 0xe
 888 000b 55       		.uleb128 0x55
 889 000c 17       		.uleb128 0x17
 890 000d 11       		.uleb128 0x11
 891 000e 01       		.uleb128 0x1
 892 000f 10       		.uleb128 0x10
 893 0010 17       		.uleb128 0x17
 894 0011 00       		.byte	0
 895 0012 00       		.byte	0
 896 0013 02       		.uleb128 0x2
 897 0014 24       		.uleb128 0x24
 898 0015 00       		.byte	0
 899 0016 0B       		.uleb128 0xb
 900 0017 0B       		.uleb128 0xb
 901 0018 3E       		.uleb128 0x3e
 902 0019 0B       		.uleb128 0xb
 903 001a 03       		.uleb128 0x3
 904 001b 08       		.uleb128 0x8
 905 001c 00       		.byte	0
 906 001d 00       		.byte	0
 907 001e 03       		.uleb128 0x3
 908 001f 24       		.uleb128 0x24
ARM GAS  /tmp/ccpdBNO5.s 			page 17


 909 0020 00       		.byte	0
 910 0021 0B       		.uleb128 0xb
 911 0022 0B       		.uleb128 0xb
 912 0023 3E       		.uleb128 0x3e
 913 0024 0B       		.uleb128 0xb
 914 0025 03       		.uleb128 0x3
 915 0026 0E       		.uleb128 0xe
 916 0027 00       		.byte	0
 917 0028 00       		.byte	0
 918 0029 04       		.uleb128 0x4
 919 002a 16       		.uleb128 0x16
 920 002b 00       		.byte	0
 921 002c 03       		.uleb128 0x3
 922 002d 0E       		.uleb128 0xe
 923 002e 3A       		.uleb128 0x3a
 924 002f 0B       		.uleb128 0xb
 925 0030 3B       		.uleb128 0x3b
 926 0031 0B       		.uleb128 0xb
 927 0032 49       		.uleb128 0x49
 928 0033 13       		.uleb128 0x13
 929 0034 00       		.byte	0
 930 0035 00       		.byte	0
 931 0036 05       		.uleb128 0x5
 932 0037 13       		.uleb128 0x13
 933 0038 01       		.byte	0x1
 934 0039 03       		.uleb128 0x3
 935 003a 0E       		.uleb128 0xe
 936 003b 0B       		.uleb128 0xb
 937 003c 0B       		.uleb128 0xb
 938 003d 3A       		.uleb128 0x3a
 939 003e 0B       		.uleb128 0xb
 940 003f 3B       		.uleb128 0x3b
 941 0040 0B       		.uleb128 0xb
 942 0041 01       		.uleb128 0x1
 943 0042 13       		.uleb128 0x13
 944 0043 00       		.byte	0
 945 0044 00       		.byte	0
 946 0045 06       		.uleb128 0x6
 947 0046 0D       		.uleb128 0xd
 948 0047 00       		.byte	0
 949 0048 03       		.uleb128 0x3
 950 0049 0E       		.uleb128 0xe
 951 004a 3A       		.uleb128 0x3a
 952 004b 0B       		.uleb128 0xb
 953 004c 3B       		.uleb128 0x3b
 954 004d 0B       		.uleb128 0xb
 955 004e 49       		.uleb128 0x49
 956 004f 13       		.uleb128 0x13
 957 0050 38       		.uleb128 0x38
 958 0051 0B       		.uleb128 0xb
 959 0052 00       		.byte	0
 960 0053 00       		.byte	0
 961 0054 07       		.uleb128 0x7
 962 0055 0D       		.uleb128 0xd
 963 0056 00       		.byte	0
 964 0057 03       		.uleb128 0x3
 965 0058 08       		.uleb128 0x8
ARM GAS  /tmp/ccpdBNO5.s 			page 18


 966 0059 3A       		.uleb128 0x3a
 967 005a 0B       		.uleb128 0xb
 968 005b 3B       		.uleb128 0x3b
 969 005c 0B       		.uleb128 0xb
 970 005d 49       		.uleb128 0x49
 971 005e 13       		.uleb128 0x13
 972 005f 38       		.uleb128 0x38
 973 0060 0B       		.uleb128 0xb
 974 0061 00       		.byte	0
 975 0062 00       		.byte	0
 976 0063 08       		.uleb128 0x8
 977 0064 13       		.uleb128 0x13
 978 0065 01       		.byte	0x1
 979 0066 0B       		.uleb128 0xb
 980 0067 0B       		.uleb128 0xb
 981 0068 3A       		.uleb128 0x3a
 982 0069 0B       		.uleb128 0xb
 983 006a 3B       		.uleb128 0x3b
 984 006b 0B       		.uleb128 0xb
 985 006c 01       		.uleb128 0x1
 986 006d 13       		.uleb128 0x13
 987 006e 00       		.byte	0
 988 006f 00       		.byte	0
 989 0070 09       		.uleb128 0x9
 990 0071 0F       		.uleb128 0xf
 991 0072 00       		.byte	0
 992 0073 0B       		.uleb128 0xb
 993 0074 0B       		.uleb128 0xb
 994 0075 49       		.uleb128 0x49
 995 0076 13       		.uleb128 0x13
 996 0077 00       		.byte	0
 997 0078 00       		.byte	0
 998 0079 0A       		.uleb128 0xa
 999 007a 0F       		.uleb128 0xf
 1000 007b 00       		.byte	0
 1001 007c 0B       		.uleb128 0xb
 1002 007d 0B       		.uleb128 0xb
 1003 007e 00       		.byte	0
 1004 007f 00       		.byte	0
 1005 0080 0B       		.uleb128 0xb
 1006 0081 13       		.uleb128 0x13
 1007 0082 01       		.byte	0x1
 1008 0083 03       		.uleb128 0x3
 1009 0084 0E       		.uleb128 0xe
 1010 0085 0B       		.uleb128 0xb
 1011 0086 0B       		.uleb128 0xb
 1012 0087 3A       		.uleb128 0x3a
 1013 0088 0B       		.uleb128 0xb
 1014 0089 3B       		.uleb128 0x3b
 1015 008a 05       		.uleb128 0x5
 1016 008b 01       		.uleb128 0x1
 1017 008c 13       		.uleb128 0x13
 1018 008d 00       		.byte	0
 1019 008e 00       		.byte	0
 1020 008f 0C       		.uleb128 0xc
 1021 0090 0D       		.uleb128 0xd
 1022 0091 00       		.byte	0
ARM GAS  /tmp/ccpdBNO5.s 			page 19


 1023 0092 03       		.uleb128 0x3
 1024 0093 08       		.uleb128 0x8
 1025 0094 3A       		.uleb128 0x3a
 1026 0095 0B       		.uleb128 0xb
 1027 0096 3B       		.uleb128 0x3b
 1028 0097 05       		.uleb128 0x5
 1029 0098 49       		.uleb128 0x49
 1030 0099 13       		.uleb128 0x13
 1031 009a 38       		.uleb128 0x38
 1032 009b 0B       		.uleb128 0xb
 1033 009c 00       		.byte	0
 1034 009d 00       		.byte	0
 1035 009e 0D       		.uleb128 0xd
 1036 009f 35       		.uleb128 0x35
 1037 00a0 00       		.byte	0
 1038 00a1 49       		.uleb128 0x49
 1039 00a2 13       		.uleb128 0x13
 1040 00a3 00       		.byte	0
 1041 00a4 00       		.byte	0
 1042 00a5 0E       		.uleb128 0xe
 1043 00a6 17       		.uleb128 0x17
 1044 00a7 01       		.byte	0x1
 1045 00a8 0B       		.uleb128 0xb
 1046 00a9 0B       		.uleb128 0xb
 1047 00aa 3A       		.uleb128 0x3a
 1048 00ab 0B       		.uleb128 0xb
 1049 00ac 3B       		.uleb128 0x3b
 1050 00ad 0B       		.uleb128 0xb
 1051 00ae 01       		.uleb128 0x1
 1052 00af 13       		.uleb128 0x13
 1053 00b0 00       		.byte	0
 1054 00b1 00       		.byte	0
 1055 00b2 0F       		.uleb128 0xf
 1056 00b3 0D       		.uleb128 0xd
 1057 00b4 00       		.byte	0
 1058 00b5 03       		.uleb128 0x3
 1059 00b6 0E       		.uleb128 0xe
 1060 00b7 3A       		.uleb128 0x3a
 1061 00b8 0B       		.uleb128 0xb
 1062 00b9 3B       		.uleb128 0x3b
 1063 00ba 0B       		.uleb128 0xb
 1064 00bb 49       		.uleb128 0x49
 1065 00bc 13       		.uleb128 0x13
 1066 00bd 00       		.byte	0
 1067 00be 00       		.byte	0
 1068 00bf 10       		.uleb128 0x10
 1069 00c0 26       		.uleb128 0x26
 1070 00c1 00       		.byte	0
 1071 00c2 49       		.uleb128 0x49
 1072 00c3 13       		.uleb128 0x13
 1073 00c4 00       		.byte	0
 1074 00c5 00       		.byte	0
 1075 00c6 11       		.uleb128 0x11
 1076 00c7 2E       		.uleb128 0x2e
 1077 00c8 01       		.byte	0x1
 1078 00c9 3F       		.uleb128 0x3f
 1079 00ca 19       		.uleb128 0x19
ARM GAS  /tmp/ccpdBNO5.s 			page 20


 1080 00cb 03       		.uleb128 0x3
 1081 00cc 0E       		.uleb128 0xe
 1082 00cd 3A       		.uleb128 0x3a
 1083 00ce 0B       		.uleb128 0xb
 1084 00cf 3B       		.uleb128 0x3b
 1085 00d0 0B       		.uleb128 0xb
 1086 00d1 27       		.uleb128 0x27
 1087 00d2 19       		.uleb128 0x19
 1088 00d3 11       		.uleb128 0x11
 1089 00d4 01       		.uleb128 0x1
 1090 00d5 12       		.uleb128 0x12
 1091 00d6 06       		.uleb128 0x6
 1092 00d7 40       		.uleb128 0x40
 1093 00d8 18       		.uleb128 0x18
 1094 00d9 9742     		.uleb128 0x2117
 1095 00db 19       		.uleb128 0x19
 1096 00dc 01       		.uleb128 0x1
 1097 00dd 13       		.uleb128 0x13
 1098 00de 00       		.byte	0
 1099 00df 00       		.byte	0
 1100 00e0 12       		.uleb128 0x12
 1101 00e1 05       		.uleb128 0x5
 1102 00e2 00       		.byte	0
 1103 00e3 03       		.uleb128 0x3
 1104 00e4 08       		.uleb128 0x8
 1105 00e5 3A       		.uleb128 0x3a
 1106 00e6 0B       		.uleb128 0xb
 1107 00e7 3B       		.uleb128 0x3b
 1108 00e8 0B       		.uleb128 0xb
 1109 00e9 49       		.uleb128 0x49
 1110 00ea 13       		.uleb128 0x13
 1111 00eb 02       		.uleb128 0x2
 1112 00ec 18       		.uleb128 0x18
 1113 00ed 00       		.byte	0
 1114 00ee 00       		.byte	0
 1115 00ef 13       		.uleb128 0x13
 1116 00f0 34       		.uleb128 0x34
 1117 00f1 00       		.byte	0
 1118 00f2 03       		.uleb128 0x3
 1119 00f3 08       		.uleb128 0x8
 1120 00f4 3A       		.uleb128 0x3a
 1121 00f5 0B       		.uleb128 0xb
 1122 00f6 3B       		.uleb128 0x3b
 1123 00f7 0B       		.uleb128 0xb
 1124 00f8 49       		.uleb128 0x49
 1125 00f9 13       		.uleb128 0x13
 1126 00fa 02       		.uleb128 0x2
 1127 00fb 17       		.uleb128 0x17
 1128 00fc 00       		.byte	0
 1129 00fd 00       		.byte	0
 1130 00fe 14       		.uleb128 0x14
 1131 00ff 2E       		.uleb128 0x2e
 1132 0100 01       		.byte	0x1
 1133 0101 3F       		.uleb128 0x3f
 1134 0102 19       		.uleb128 0x19
 1135 0103 03       		.uleb128 0x3
 1136 0104 0E       		.uleb128 0xe
ARM GAS  /tmp/ccpdBNO5.s 			page 21


 1137 0105 3A       		.uleb128 0x3a
 1138 0106 0B       		.uleb128 0xb
 1139 0107 3B       		.uleb128 0x3b
 1140 0108 0B       		.uleb128 0xb
 1141 0109 27       		.uleb128 0x27
 1142 010a 19       		.uleb128 0x19
 1143 010b 49       		.uleb128 0x49
 1144 010c 13       		.uleb128 0x13
 1145 010d 11       		.uleb128 0x11
 1146 010e 01       		.uleb128 0x1
 1147 010f 12       		.uleb128 0x12
 1148 0110 06       		.uleb128 0x6
 1149 0111 40       		.uleb128 0x40
 1150 0112 18       		.uleb128 0x18
 1151 0113 9742     		.uleb128 0x2117
 1152 0115 19       		.uleb128 0x19
 1153 0116 01       		.uleb128 0x1
 1154 0117 13       		.uleb128 0x13
 1155 0118 00       		.byte	0
 1156 0119 00       		.byte	0
 1157 011a 15       		.uleb128 0x15
 1158 011b 05       		.uleb128 0x5
 1159 011c 00       		.byte	0
 1160 011d 03       		.uleb128 0x3
 1161 011e 08       		.uleb128 0x8
 1162 011f 3A       		.uleb128 0x3a
 1163 0120 0B       		.uleb128 0xb
 1164 0121 3B       		.uleb128 0x3b
 1165 0122 0B       		.uleb128 0xb
 1166 0123 49       		.uleb128 0x49
 1167 0124 13       		.uleb128 0x13
 1168 0125 02       		.uleb128 0x2
 1169 0126 17       		.uleb128 0x17
 1170 0127 00       		.byte	0
 1171 0128 00       		.byte	0
 1172 0129 16       		.uleb128 0x16
 1173 012a 34       		.uleb128 0x34
 1174 012b 00       		.byte	0
 1175 012c 03       		.uleb128 0x3
 1176 012d 08       		.uleb128 0x8
 1177 012e 3A       		.uleb128 0x3a
 1178 012f 0B       		.uleb128 0xb
 1179 0130 3B       		.uleb128 0x3b
 1180 0131 0B       		.uleb128 0xb
 1181 0132 49       		.uleb128 0x49
 1182 0133 13       		.uleb128 0x13
 1183 0134 02       		.uleb128 0x2
 1184 0135 18       		.uleb128 0x18
 1185 0136 00       		.byte	0
 1186 0137 00       		.byte	0
 1187 0138 17       		.uleb128 0x17
 1188 0139 2E       		.uleb128 0x2e
 1189 013a 01       		.byte	0x1
 1190 013b 3F       		.uleb128 0x3f
 1191 013c 19       		.uleb128 0x19
 1192 013d 03       		.uleb128 0x3
 1193 013e 0E       		.uleb128 0xe
ARM GAS  /tmp/ccpdBNO5.s 			page 22


 1194 013f 3A       		.uleb128 0x3a
 1195 0140 0B       		.uleb128 0xb
 1196 0141 3B       		.uleb128 0x3b
 1197 0142 0B       		.uleb128 0xb
 1198 0143 27       		.uleb128 0x27
 1199 0144 19       		.uleb128 0x19
 1200 0145 49       		.uleb128 0x49
 1201 0146 13       		.uleb128 0x13
 1202 0147 11       		.uleb128 0x11
 1203 0148 01       		.uleb128 0x1
 1204 0149 12       		.uleb128 0x12
 1205 014a 06       		.uleb128 0x6
 1206 014b 40       		.uleb128 0x40
 1207 014c 18       		.uleb128 0x18
 1208 014d 9742     		.uleb128 0x2117
 1209 014f 19       		.uleb128 0x19
 1210 0150 00       		.byte	0
 1211 0151 00       		.byte	0
 1212 0152 00       		.byte	0
 1213              		.section	.debug_loc,"",%progbits
 1214              	.Ldebug_loc0:
 1215              	.LLST0:
 1216 0000 00000000 		.4byte	.LVL0
 1217 0004 06000000 		.4byte	.LVL1
 1218 0008 0100     		.2byte	0x1
 1219 000a 51       		.byte	0x51
 1220 000b 06000000 		.4byte	.LVL1
 1221 000f 24000000 		.4byte	.LFE0
 1222 0013 0100     		.2byte	0x1
 1223 0015 53       		.byte	0x53
 1224 0016 00000000 		.4byte	0
 1225 001a 00000000 		.4byte	0
 1226              	.LLST1:
 1227 001e 00000000 		.4byte	.LVL4
 1228 0022 04000000 		.4byte	.LVL5
 1229 0026 0100     		.2byte	0x1
 1230 0028 50       		.byte	0x50
 1231 0029 04000000 		.4byte	.LVL5
 1232 002d 0C000000 		.4byte	.LFE2
 1233 0031 0100     		.2byte	0x1
 1234 0033 53       		.byte	0x53
 1235 0034 00000000 		.4byte	0
 1236 0038 00000000 		.4byte	0
 1237              	.LLST2:
 1238 003c 00000000 		.4byte	.LVL6
 1239 0040 04000000 		.4byte	.LVL7
 1240 0044 0100     		.2byte	0x1
 1241 0046 50       		.byte	0x50
 1242 0047 04000000 		.4byte	.LVL7
 1243 004b 0C000000 		.4byte	.LFE3
 1244 004f 0100     		.2byte	0x1
 1245 0051 53       		.byte	0x53
 1246 0052 00000000 		.4byte	0
 1247 0056 00000000 		.4byte	0
 1248              	.LLST3:
 1249 005a 00000000 		.4byte	.LVL10
 1250 005e 04000000 		.4byte	.LVL11
ARM GAS  /tmp/ccpdBNO5.s 			page 23


 1251 0062 0100     		.2byte	0x1
 1252 0064 50       		.byte	0x50
 1253 0065 04000000 		.4byte	.LVL11
 1254 0069 0A000000 		.4byte	.LFE6
 1255 006d 0100     		.2byte	0x1
 1256 006f 53       		.byte	0x53
 1257 0070 00000000 		.4byte	0
 1258 0074 00000000 		.4byte	0
 1259              		.section	.debug_aranges,"",%progbits
 1260 0000 4C000000 		.4byte	0x4c
 1261 0004 0200     		.2byte	0x2
 1262 0006 00000000 		.4byte	.Ldebug_info0
 1263 000a 04       		.byte	0x4
 1264 000b 00       		.byte	0
 1265 000c 0000     		.2byte	0
 1266 000e 0000     		.2byte	0
 1267 0010 00000000 		.4byte	.LFB0
 1268 0014 24000000 		.4byte	.LFE0-.LFB0
 1269 0018 00000000 		.4byte	.LFB1
 1270 001c 0C000000 		.4byte	.LFE1-.LFB1
 1271 0020 00000000 		.4byte	.LFB2
 1272 0024 0C000000 		.4byte	.LFE2-.LFB2
 1273 0028 00000000 		.4byte	.LFB3
 1274 002c 0C000000 		.4byte	.LFE3-.LFB3
 1275 0030 00000000 		.4byte	.LFB4
 1276 0034 0C000000 		.4byte	.LFE4-.LFB4
 1277 0038 00000000 		.4byte	.LFB5
 1278 003c 08000000 		.4byte	.LFE5-.LFB5
 1279 0040 00000000 		.4byte	.LFB6
 1280 0044 0A000000 		.4byte	.LFE6-.LFB6
 1281 0048 00000000 		.4byte	0
 1282 004c 00000000 		.4byte	0
 1283              		.section	.debug_ranges,"",%progbits
 1284              	.Ldebug_ranges0:
 1285 0000 00000000 		.4byte	.LFB0
 1286 0004 24000000 		.4byte	.LFE0
 1287 0008 00000000 		.4byte	.LFB1
 1288 000c 0C000000 		.4byte	.LFE1
 1289 0010 00000000 		.4byte	.LFB2
 1290 0014 0C000000 		.4byte	.LFE2
 1291 0018 00000000 		.4byte	.LFB3
 1292 001c 0C000000 		.4byte	.LFE3
 1293 0020 00000000 		.4byte	.LFB4
 1294 0024 0C000000 		.4byte	.LFE4
 1295 0028 00000000 		.4byte	.LFB5
 1296 002c 08000000 		.4byte	.LFE5
 1297 0030 00000000 		.4byte	.LFB6
 1298 0034 0A000000 		.4byte	.LFE6
 1299 0038 00000000 		.4byte	0
 1300 003c 00000000 		.4byte	0
 1301              		.section	.debug_line,"",%progbits
 1302              	.Ldebug_line0:
 1303 0000 AF010000 		.section	.debug_str,"MS",%progbits,1
 1303      02001101 
 1303      00000201 
 1303      FB0E0D00 
 1303      01010101 
ARM GAS  /tmp/ccpdBNO5.s 			page 24


 1304              	.LASF38:
 1305 0000 705F6D73 		.ascii	"p_msg\000"
 1305      6700
 1306              	.LASF59:
 1307 0006 71756575 		.ascii	"queue_insert\000"
 1307      655F696E 
 1307      73657274 
 1307      00
 1308              	.LASF53:
 1309 0013 7264796D 		.ascii	"rdymsg\000"
 1309      736700
 1310              	.LASF16:
 1311 001a 75696E74 		.ascii	"uint64_t\000"
 1311      36345F74 
 1311      00
 1312              	.LASF5:
 1313 0023 5F5F7569 		.ascii	"__uint8_t\000"
 1313      6E74385F 
 1313      7400
 1314              	.LASF65:
 1315 002d 474E5520 		.ascii	"GNU C 4.8.2 -mcpu=cortex-m4 -mno-thumb-interwork -m"
 1315      4320342E 
 1315      382E3220 
 1315      2D6D6370 
 1315      753D636F 
 1316 0060 7468756D 		.ascii	"thumb -ggdb -O2 -fomit-frame-pointer -falign-functi"
 1316      62202D67 
 1316      67646220 
 1316      2D4F3220 
 1316      2D666F6D 
 1317 0093 6F6E733D 		.ascii	"ons=16 -ffunction-sections -fdata-sections -fno-com"
 1317      3136202D 
 1317      6666756E 
 1317      6374696F 
 1317      6E2D7365 
 1318 00c6 6D6F6E00 		.ascii	"mon\000"
 1319              	.LASF12:
 1320 00ca 6C6F6E67 		.ascii	"long long unsigned int\000"
 1320      206C6F6E 
 1320      6720756E 
 1320      7369676E 
 1320      65642069 
 1321              	.LASF54:
 1322 00e1 65786974 		.ascii	"exitcode\000"
 1322      636F6465 
 1322      00
 1323              	.LASF27:
 1324 00ea 705F7072 		.ascii	"p_prio\000"
 1324      696F00
 1325              	.LASF10:
 1326 00f1 6C6F6E67 		.ascii	"long long int\000"
 1326      206C6F6E 
 1326      6720696E 
 1326      7400
 1327              	.LASF1:
 1328 00ff 7369676E 		.ascii	"signed char\000"
 1328      65642063 
ARM GAS  /tmp/ccpdBNO5.s 			page 25


 1328      68617200 
 1329              	.LASF50:
 1330 010b 6D5F7175 		.ascii	"m_queue\000"
 1330      65756500 
 1331              	.LASF7:
 1332 0113 6C6F6E67 		.ascii	"long int\000"
 1332      20696E74 
 1332      00
 1333              	.LASF19:
 1334 011c 74737461 		.ascii	"tstate_t\000"
 1334      74655F74 
 1334      00
 1335              	.LASF29:
 1336 0125 705F6E65 		.ascii	"p_newer\000"
 1336      77657200 
 1337              	.LASF64:
 1338 012d 6C697374 		.ascii	"list_remove\000"
 1338      5F72656D 
 1338      6F766500 
 1339              	.LASF66:
 1340 0139 2E2E2F2E 		.ascii	"../../../os/kernel/src/chlists.c\000"
 1340      2E2F2E2E 
 1340      2F6F732F 
 1340      6B65726E 
 1340      656C2F73 
 1341              	.LASF8:
 1342 015a 5F5F7569 		.ascii	"__uint32_t\000"
 1342      6E743332 
 1342      5F7400
 1343              	.LASF44:
 1344 0165 72656761 		.ascii	"regarm_t\000"
 1344      726D5F74 
 1344      00
 1345              	.LASF32:
 1346 016e 705F7374 		.ascii	"p_stklimit\000"
 1346      6B6C696D 
 1346      697400
 1347              	.LASF0:
 1348 0179 756E7369 		.ascii	"unsigned int\000"
 1348      676E6564 
 1348      20696E74 
 1348      00
 1349              	.LASF9:
 1350 0186 6C6F6E67 		.ascii	"long unsigned int\000"
 1350      20756E73 
 1350      69676E65 
 1350      6420696E 
 1350      7400
 1351              	.LASF67:
 1352 0198 2F686F6D 		.ascii	"/home/ece497/vbox-shared/mplayer/ChibiOS-RT-stable_"
 1352      652F6563 
 1352      65343937 
 1352      2F76626F 
 1352      782D7368 
 1353 01cb 322E362E 		.ascii	"2.6.x/testhal/STM32F4xx/I2C\000"
 1353      782F7465 
 1353      73746861 
ARM GAS  /tmp/ccpdBNO5.s 			page 26


 1353      6C2F5354 
 1353      4D333246 
 1354              	.LASF47:
 1355 01e7 636F6E74 		.ascii	"context\000"
 1355      65787400 
 1356              	.LASF4:
 1357 01ef 73686F72 		.ascii	"short unsigned int\000"
 1357      7420756E 
 1357      7369676E 
 1357      65642069 
 1357      6E7400
 1358              	.LASF21:
 1359 0202 6D73675F 		.ascii	"msg_t\000"
 1359      7400
 1360              	.LASF58:
 1361 0208 7072696F 		.ascii	"prio_insert\000"
 1361      5F696E73 
 1361      65727400 
 1362              	.LASF18:
 1363 0214 746D6F64 		.ascii	"tmode_t\000"
 1363      655F7400 
 1364              	.LASF43:
 1365 021c 54687265 		.ascii	"ThreadsList\000"
 1365      6164734C 
 1365      69737400 
 1366              	.LASF22:
 1367 0228 6576656E 		.ascii	"eventmask_t\000"
 1367      746D6173 
 1367      6B5F7400 
 1368              	.LASF49:
 1369 0234 4D757465 		.ascii	"Mutex\000"
 1369      7800
 1370              	.LASF45:
 1371 023a 73746B61 		.ascii	"stkalign_t\000"
 1371      6C69676E 
 1371      5F7400
 1372              	.LASF48:
 1373 0245 73697A65 		.ascii	"sizetype\000"
 1373      74797065 
 1373      00
 1374              	.LASF30:
 1375 024e 705F6F6C 		.ascii	"p_older\000"
 1375      64657200 
 1376              	.LASF42:
 1377 0256 54687265 		.ascii	"ThreadsQueue\000"
 1377      61647351 
 1377      75657565 
 1377      00
 1378              	.LASF62:
 1379 0263 64657175 		.ascii	"dequeue\000"
 1379      65756500 
 1380              	.LASF63:
 1381 026b 6C697374 		.ascii	"list_insert\000"
 1381      5F696E73 
 1381      65727400 
 1382              	.LASF11:
 1383 0277 5F5F7569 		.ascii	"__uint64_t\000"
ARM GAS  /tmp/ccpdBNO5.s 			page 27


 1383      6E743634 
 1383      5F7400
 1384              	.LASF26:
 1385 0282 705F7072 		.ascii	"p_prev\000"
 1385      657600
 1386              	.LASF20:
 1387 0289 74707269 		.ascii	"tprio_t\000"
 1387      6F5F7400 
 1388              	.LASF17:
 1389 0291 5F426F6F 		.ascii	"_Bool\000"
 1389      6C00
 1390              	.LASF14:
 1391 0297 696E7433 		.ascii	"int32_t\000"
 1391      325F7400 
 1392              	.LASF2:
 1393 029f 756E7369 		.ascii	"unsigned char\000"
 1393      676E6564 
 1393      20636861 
 1393      7200
 1394              	.LASF40:
 1395 02ad 705F6D74 		.ascii	"p_mtxlist\000"
 1395      786C6973 
 1395      7400
 1396              	.LASF3:
 1397 02b7 73686F72 		.ascii	"short int\000"
 1397      7420696E 
 1397      7400
 1398              	.LASF33:
 1399 02c1 705F7374 		.ascii	"p_state\000"
 1399      61746500 
 1400              	.LASF56:
 1401 02c9 65776D61 		.ascii	"ewmask\000"
 1401      736B00
 1402              	.LASF25:
 1403 02d0 705F6E65 		.ascii	"p_next\000"
 1403      787400
 1404              	.LASF34:
 1405 02d7 705F666C 		.ascii	"p_flags\000"
 1405      61677300 
 1406              	.LASF24:
 1407 02df 54687265 		.ascii	"Thread\000"
 1407      616400
 1408              	.LASF39:
 1409 02e6 705F6570 		.ascii	"p_epending\000"
 1409      656E6469 
 1409      6E6700
 1410              	.LASF15:
 1411 02f1 75696E74 		.ascii	"uint32_t\000"
 1411      33325F74 
 1411      00
 1412              	.LASF57:
 1413 02fa 63686172 		.ascii	"char\000"
 1413      00
 1414              	.LASF60:
 1415 02ff 6669666F 		.ascii	"fifo_remove\000"
 1415      5F72656D 
 1415      6F766500 
ARM GAS  /tmp/ccpdBNO5.s 			page 28


 1416              	.LASF52:
 1417 030b 6D5F6E65 		.ascii	"m_next\000"
 1417      787400
 1418              	.LASF23:
 1419 0312 73797374 		.ascii	"systime_t\000"
 1419      696D655F 
 1419      7400
 1420              	.LASF41:
 1421 031c 705F7265 		.ascii	"p_realprio\000"
 1421      616C7072 
 1421      696F00
 1422              	.LASF6:
 1423 0327 5F5F696E 		.ascii	"__int32_t\000"
 1423      7433325F 
 1423      7400
 1424              	.LASF35:
 1425 0331 705F7469 		.ascii	"p_time\000"
 1425      6D6500
 1426              	.LASF61:
 1427 0338 6C69666F 		.ascii	"lifo_remove\000"
 1427      5F72656D 
 1427      6F766500 
 1428              	.LASF46:
 1429 0344 696E7463 		.ascii	"intctx\000"
 1429      747800
 1430              	.LASF37:
 1431 034b 705F6D73 		.ascii	"p_msgqueue\000"
 1431      67717565 
 1431      756500
 1432              	.LASF13:
 1433 0356 75696E74 		.ascii	"uint8_t\000"
 1433      385F7400 
 1434              	.LASF55:
 1435 035e 77746F62 		.ascii	"wtobjp\000"
 1435      6A7000
 1436              	.LASF31:
 1437 0365 705F6E61 		.ascii	"p_name\000"
 1437      6D6500
 1438              	.LASF51:
 1439 036c 6D5F6F77 		.ascii	"m_owner\000"
 1439      6E657200 
 1440              	.LASF28:
 1441 0374 705F6374 		.ascii	"p_ctx\000"
 1441      7800
 1442              	.LASF36:
 1443 037a 705F7761 		.ascii	"p_waiting\000"
 1443      6974696E 
 1443      6700
 1444              		.ident	"GCC: (Arch Repository) 4.8.2"
ARM GAS  /tmp/ccpdBNO5.s 			page 29


DEFINED SYMBOLS
                            *ABS*:0000000000000000 chlists.c
     /tmp/ccpdBNO5.s:19     .text.prio_insert:0000000000000000 $t
     /tmp/ccpdBNO5.s:25     .text.prio_insert:0000000000000000 prio_insert
     /tmp/ccpdBNO5.s:72     .text.queue_insert:0000000000000000 $t
     /tmp/ccpdBNO5.s:78     .text.queue_insert:0000000000000000 queue_insert
     /tmp/ccpdBNO5.s:97     .text.fifo_remove:0000000000000000 $t
     /tmp/ccpdBNO5.s:103    .text.fifo_remove:0000000000000000 fifo_remove
     /tmp/ccpdBNO5.s:126    .text.lifo_remove:0000000000000000 $t
     /tmp/ccpdBNO5.s:132    .text.lifo_remove:0000000000000000 lifo_remove
     /tmp/ccpdBNO5.s:155    .text.dequeue:0000000000000000 $t
     /tmp/ccpdBNO5.s:161    .text.dequeue:0000000000000000 dequeue
     /tmp/ccpdBNO5.s:181    .text.list_insert:0000000000000000 $t
     /tmp/ccpdBNO5.s:187    .text.list_insert:0000000000000000 list_insert
     /tmp/ccpdBNO5.s:205    .text.list_remove:0000000000000000 $t
     /tmp/ccpdBNO5.s:211    .text.list_remove:0000000000000000 list_remove
                     .debug_frame:0000000000000010 $d

NO UNDEFINED SYMBOLS
