ARM GAS  /tmp/ccsiDi11.s 			page 1


   1              		.syntax unified
   2              		.cpu cortex-m4
   3              		.fpu softvfp
   4              		.eabi_attribute 20, 1
   5              		.eabi_attribute 21, 1
   6              		.eabi_attribute 23, 3
   7              		.eabi_attribute 24, 1
   8              		.eabi_attribute 25, 1
   9              		.eabi_attribute 26, 1
  10              		.eabi_attribute 30, 2
  11              		.eabi_attribute 34, 1
  12              		.eabi_attribute 18, 4
  13              		.thumb
  14              		.file	"chmboxes.c"
  15              		.text
  16              	.Ltext0:
  17              		.cfi_sections	.debug_frame
  18              		.section	.text.chMBInit,"ax",%progbits
  19              		.align	2
  20              		.p2align 4,,15
  21              		.global	chMBInit
  22              		.thumb
  23              		.thumb_func
  24              		.type	chMBInit, %function
  25              	chMBInit:
  26              	.LFB0:
  27              		.file 1 "../../../os/kernel/src/chmboxes.c"
  28              		.loc 1 72 0
  29              		.cfi_startproc
  30              		@ args = 0, pretend = 0, frame = 0
  31              		@ frame_needed = 0, uses_anonymous_args = 0
  32              	.LVL0:
  33              		.loc 1 74 0
  34 0000 0029     		cmp	r1, #0
  35 0002 18BF     		it	ne
  36 0004 0028     		cmpne	r0, #0
  37              		.loc 1 72 0
  38 0006 70B5     		push	{r4, r5, r6, lr}
  39              		.cfi_def_cfa_offset 16
  40              		.cfi_offset 4, -16
  41              		.cfi_offset 5, -12
  42              		.cfi_offset 6, -8
  43              		.cfi_offset 14, -4
  44              		.loc 1 74 0
  45 0008 0446     		mov	r4, r0
  46 000a 0D46     		mov	r5, r1
  47              		.loc 1 72 0
  48 000c 1646     		mov	r6, r2
  49              		.loc 1 74 0
  50 000e 13D0     		beq	.L2
  51              		.loc 1 74 0 is_stmt 0 discriminator 2
  52 0010 002A     		cmp	r2, #0
  53 0012 11DD     		ble	.L2
  54              	.LVL1:
  55              	.L3:
  56              		.loc 1 77 0 is_stmt 1
  57 0014 05EB8603 		add	r3, r5, r6, lsl #2
ARM GAS  /tmp/ccsiDi11.s 			page 2


  58              		.loc 1 78 0
  59 0018 3146     		mov	r1, r6
  60 001a 04F11C00 		add	r0, r4, #28
  61              		.loc 1 76 0
  62 001e E560     		str	r5, [r4, #12]
  63 0020 A560     		str	r5, [r4, #8]
  64 0022 2560     		str	r5, [r4]
  65              		.loc 1 77 0
  66 0024 6360     		str	r3, [r4, #4]
  67              		.loc 1 78 0
  68 0026 FFF7FEFF 		bl	chSemInit
  69              	.LVL2:
  70              		.loc 1 79 0
  71 002a 04F11000 		add	r0, r4, #16
  72 002e 0021     		movs	r1, #0
  73              		.loc 1 80 0
  74 0030 BDE87040 		pop	{r4, r5, r6, lr}
  75              	.LVL3:
  76              		.loc 1 79 0
  77 0034 FFF7FEBF 		b	chSemInit
  78              	.LVL4:
  79              	.L2:
  80              		.loc 1 74 0 discriminator 1
  81 0038 40F20000 		movw	r0, #:lower16:.LC0
  82              	.LVL5:
  83 003c C0F20000 		movt	r0, #:upper16:.LC0
  84 0040 FFF7FEFF 		bl	chDbgPanic
  85              	.LVL6:
  86 0044 E6E7     		b	.L3
  87              		.cfi_endproc
  88              	.LFE0:
  89              		.size	chMBInit, .-chMBInit
  90 0046 00BFAFF3 		.section	.text.chMBReset,"ax",%progbits
  90      0080AFF3 
  90      0080
  91              		.align	2
  92              		.p2align 4,,15
  93              		.global	chMBReset
  94              		.thumb
  95              		.thumb_func
  96              		.type	chMBReset, %function
  97              	chMBReset:
  98              	.LFB1:
  99              		.loc 1 91 0
 100              		.cfi_startproc
 101              		@ args = 0, pretend = 0, frame = 0
 102              		@ frame_needed = 0, uses_anonymous_args = 0
 103              	.LVL7:
 104 0000 10B5     		push	{r4, lr}
 105              		.cfi_def_cfa_offset 8
 106              		.cfi_offset 4, -8
 107              		.cfi_offset 14, -4
 108              		.loc 1 93 0
 109 0002 0446     		mov	r4, r0
 110 0004 C8B1     		cbz	r0, .L7
 111              	.LVL8:
 112              	.L6:
ARM GAS  /tmp/ccsiDi11.s 			page 3


 113              		.loc 1 95 0
 114              	@ 95 "../../../os/kernel/src/chmboxes.c" 1
 115 0006 FFF7FEFF 		bl      _port_lock
 116              	@ 0 "" 2
 117              		.thumb
 118 000a FFF7FEFF 		bl	dbg_check_lock
 119              	.LVL9:
 120              		.loc 1 96 0
 121 000e 2368     		ldr	r3, [r4]
 122              		.loc 1 97 0
 123 0010 6168     		ldr	r1, [r4, #4]
 124              		.loc 1 96 0
 125 0012 E360     		str	r3, [r4, #12]
 126              		.loc 1 97 0
 127 0014 C91A     		subs	r1, r1, r3
 128              		.loc 1 96 0
 129 0016 A360     		str	r3, [r4, #8]
 130              		.loc 1 97 0
 131 0018 04F11C00 		add	r0, r4, #28
 132 001c 8910     		asrs	r1, r1, #2
 133 001e FFF7FEFF 		bl	chSemResetI
 134              	.LVL10:
 135              		.loc 1 98 0
 136 0022 04F11000 		add	r0, r4, #16
 137 0026 0021     		movs	r1, #0
 138 0028 FFF7FEFF 		bl	chSemResetI
 139              	.LVL11:
 140              		.loc 1 99 0
 141 002c FFF7FEFF 		bl	chSchRescheduleS
 142              	.LVL12:
 143              		.loc 1 100 0
 144 0030 FFF7FEFF 		bl	dbg_check_unlock
 145              	.LVL13:
 146              	@ 100 "../../../os/kernel/src/chmboxes.c" 1
 147 0034 FFF7FEFF 		bl      _port_unlock
 148              	@ 0 "" 2
 149              		.thumb
 150 0038 10BD     		pop	{r4, pc}
 151              	.LVL14:
 152              	.L7:
 153              		.loc 1 93 0 discriminator 1
 154 003a 40F20000 		movw	r0, #:lower16:.LC1
 155              	.LVL15:
 156 003e C0F20000 		movt	r0, #:upper16:.LC1
 157 0042 FFF7FEFF 		bl	chDbgPanic
 158              	.LVL16:
 159 0046 DEE7     		b	.L6
 160              		.cfi_endproc
 161              	.LFE1:
 162              		.size	chMBReset, .-chMBReset
 163 0048 AFF30080 		.section	.text.chMBPostS,"ax",%progbits
 163      AFF30080 
 164              		.align	2
 165              		.p2align 4,,15
 166              		.global	chMBPostS
 167              		.thumb
 168              		.thumb_func
ARM GAS  /tmp/ccsiDi11.s 			page 4


 169              		.type	chMBPostS, %function
 170              	chMBPostS:
 171              	.LFB3:
 172              		.loc 1 150 0
 173              		.cfi_startproc
 174              		@ args = 0, pretend = 0, frame = 0
 175              		@ frame_needed = 0, uses_anonymous_args = 0
 176              	.LVL17:
 177 0000 70B5     		push	{r4, r5, r6, lr}
 178              		.cfi_def_cfa_offset 16
 179              		.cfi_offset 4, -16
 180              		.cfi_offset 5, -12
 181              		.cfi_offset 6, -8
 182              		.cfi_offset 14, -4
 183              		.loc 1 150 0
 184 0002 0446     		mov	r4, r0
 185 0004 0E46     		mov	r6, r1
 186 0006 1546     		mov	r5, r2
 187              		.loc 1 153 0
 188 0008 FFF7FEFF 		bl	chDbgCheckClassS
 189              	.LVL18:
 190              		.loc 1 154 0
 191 000c C4B1     		cbz	r4, .L12
 192              	.L9:
 193              		.loc 1 156 0
 194 000e 2946     		mov	r1, r5
 195 0010 04F11C00 		add	r0, r4, #28
 196 0014 FFF7FEFF 		bl	chSemWaitTimeoutS
 197              	.LVL19:
 198              		.loc 1 157 0
 199 0018 0546     		mov	r5, r0
 200              	.LVL20:
 201 001a 78B9     		cbnz	r0, .L10
 202              		.loc 1 158 0
 203 001c A268     		ldr	r2, [r4, #8]
 204              		.loc 1 159 0
 205 001e 6168     		ldr	r1, [r4, #4]
 206              		.loc 1 158 0
 207 0020 131D     		adds	r3, r2, #4
 208              		.loc 1 159 0
 209 0022 8B42     		cmp	r3, r1
 210              		.loc 1 158 0
 211 0024 A360     		str	r3, [r4, #8]
 212              		.loc 1 160 0
 213 0026 28BF     		it	cs
 214 0028 2368     		ldrcs	r3, [r4]
 215              		.loc 1 158 0
 216 002a 1660     		str	r6, [r2]
 217              		.loc 1 161 0
 218 002c 04F11000 		add	r0, r4, #16
 219              	.LVL21:
 220              		.loc 1 160 0
 221 0030 28BF     		it	cs
 222 0032 A360     		strcs	r3, [r4, #8]
 223              		.loc 1 161 0
 224 0034 FFF7FEFF 		bl	chSemSignalI
 225              	.LVL22:
ARM GAS  /tmp/ccsiDi11.s 			page 5


 226              		.loc 1 162 0
 227 0038 FFF7FEFF 		bl	chSchRescheduleS
 228              	.LVL23:
 229              	.L10:
 230              		.loc 1 165 0
 231 003c 2846     		mov	r0, r5
 232 003e 70BD     		pop	{r4, r5, r6, pc}
 233              	.LVL24:
 234              	.L12:
 235              		.loc 1 154 0 discriminator 1
 236 0040 40F20000 		movw	r0, #:lower16:.LC2
 237 0044 C0F20000 		movt	r0, #:upper16:.LC2
 238 0048 FFF7FEFF 		bl	chDbgPanic
 239              	.LVL25:
 240 004c DFE7     		b	.L9
 241              		.cfi_endproc
 242              	.LFE3:
 243              		.size	chMBPostS, .-chMBPostS
 244 004e 00BF     		.section	.text.chMBPost,"ax",%progbits
 245              		.align	2
 246              		.p2align 4,,15
 247              		.global	chMBPost
 248              		.thumb
 249              		.thumb_func
 250              		.type	chMBPost, %function
 251              	chMBPost:
 252              	.LFB2:
 253              		.loc 1 122 0
 254              		.cfi_startproc
 255              		@ args = 0, pretend = 0, frame = 0
 256              		@ frame_needed = 0, uses_anonymous_args = 0
 257              	.LVL26:
 258 0000 70B5     		push	{r4, r5, r6, lr}
 259              		.cfi_def_cfa_offset 16
 260              		.cfi_offset 4, -16
 261              		.cfi_offset 5, -12
 262              		.cfi_offset 6, -8
 263              		.cfi_offset 14, -4
 264              		.loc 1 122 0
 265 0002 0646     		mov	r6, r0
 266 0004 0D46     		mov	r5, r1
 267 0006 1446     		mov	r4, r2
 268              		.loc 1 125 0
 269              	@ 125 "../../../os/kernel/src/chmboxes.c" 1
 270 0008 FFF7FEFF 		bl      _port_lock
 271              	@ 0 "" 2
 272              		.thumb
 273 000c FFF7FEFF 		bl	dbg_check_lock
 274              	.LVL27:
 275              		.loc 1 126 0
 276 0010 2246     		mov	r2, r4
 277 0012 2946     		mov	r1, r5
 278 0014 3046     		mov	r0, r6
 279 0016 FFF7FEFF 		bl	chMBPostS
 280              	.LVL28:
 281 001a 0446     		mov	r4, r0
 282              	.LVL29:
ARM GAS  /tmp/ccsiDi11.s 			page 6


 283              		.loc 1 127 0
 284 001c FFF7FEFF 		bl	dbg_check_unlock
 285              	.LVL30:
 286              	@ 127 "../../../os/kernel/src/chmboxes.c" 1
 287 0020 FFF7FEFF 		bl      _port_unlock
 288              	@ 0 "" 2
 289              		.loc 1 129 0
 290              		.thumb
 291 0024 2046     		mov	r0, r4
 292 0026 70BD     		pop	{r4, r5, r6, pc}
 293              		.cfi_endproc
 294              	.LFE2:
 295              		.size	chMBPost, .-chMBPost
 296 0028 AFF30080 		.section	.text.chMBPostI,"ax",%progbits
 296      AFF30080 
 297              		.align	2
 298              		.p2align 4,,15
 299              		.global	chMBPostI
 300              		.thumb
 301              		.thumb_func
 302              		.type	chMBPostI, %function
 303              	chMBPostI:
 304              	.LFB4:
 305              		.loc 1 181 0
 306              		.cfi_startproc
 307              		@ args = 0, pretend = 0, frame = 0
 308              		@ frame_needed = 0, uses_anonymous_args = 0
 309              	.LVL31:
 310 0000 38B5     		push	{r3, r4, r5, lr}
 311              		.cfi_def_cfa_offset 16
 312              		.cfi_offset 3, -16
 313              		.cfi_offset 4, -12
 314              		.cfi_offset 5, -8
 315              		.cfi_offset 14, -4
 316              		.loc 1 181 0
 317 0002 0446     		mov	r4, r0
 318 0004 0D46     		mov	r5, r1
 319              		.loc 1 183 0
 320 0006 FFF7FEFF 		bl	chDbgCheckClassI
 321              	.LVL32:
 322              		.loc 1 184 0
 323 000a A4B1     		cbz	r4, .L19
 324              	.L15:
 325              		.loc 1 186 0
 326 000c 636A     		ldr	r3, [r4, #36]
 327 000e 002B     		cmp	r3, #0
 328 0010 18DD     		ble	.L18
 329              		.loc 1 189 0
 330 0012 A068     		ldr	r0, [r4, #8]
 331              		.loc 1 190 0
 332 0014 6168     		ldr	r1, [r4, #4]
 333              		.loc 1 189 0
 334 0016 021D     		adds	r2, r0, #4
 335              		.loc 1 188 0
 336 0018 013B     		subs	r3, r3, #1
 337              		.loc 1 190 0
 338 001a 8A42     		cmp	r2, r1
ARM GAS  /tmp/ccsiDi11.s 			page 7


 339              		.loc 1 188 0
 340 001c 6362     		str	r3, [r4, #36]
 341              		.loc 1 191 0
 342 001e 28BF     		it	cs
 343 0020 2368     		ldrcs	r3, [r4]
 344              		.loc 1 189 0
 345 0022 A260     		str	r2, [r4, #8]
 346 0024 0560     		str	r5, [r0]
 347              		.loc 1 192 0
 348 0026 04F11000 		add	r0, r4, #16
 349              		.loc 1 191 0
 350 002a 28BF     		it	cs
 351 002c A360     		strcs	r3, [r4, #8]
 352              		.loc 1 192 0
 353 002e FFF7FEFF 		bl	chSemSignalI
 354              	.LVL33:
 355              		.loc 1 193 0
 356 0032 0020     		movs	r0, #0
 357 0034 38BD     		pop	{r3, r4, r5, pc}
 358              	.LVL34:
 359              	.L19:
 360              		.loc 1 184 0 discriminator 1
 361 0036 40F20000 		movw	r0, #:lower16:.LC3
 362 003a C0F20000 		movt	r0, #:upper16:.LC3
 363 003e FFF7FEFF 		bl	chDbgPanic
 364              	.LVL35:
 365 0042 E3E7     		b	.L15
 366              	.L18:
 367              		.loc 1 187 0
 368 0044 4FF0FF30 		mov	r0, #-1
 369              		.loc 1 194 0
 370 0048 38BD     		pop	{r3, r4, r5, pc}
 371              		.cfi_endproc
 372              	.LFE4:
 373              		.size	chMBPostI, .-chMBPostI
 374 004a 00BFAFF3 		.section	.text.chMBPostAheadS,"ax",%progbits
 374      0080
 375              		.align	2
 376              		.p2align 4,,15
 377              		.global	chMBPostAheadS
 378              		.thumb
 379              		.thumb_func
 380              		.type	chMBPostAheadS, %function
 381              	chMBPostAheadS:
 382              	.LFB6:
 383              		.loc 1 243 0
 384              		.cfi_startproc
 385              		@ args = 0, pretend = 0, frame = 0
 386              		@ frame_needed = 0, uses_anonymous_args = 0
 387              	.LVL36:
 388 0000 70B5     		push	{r4, r5, r6, lr}
 389              		.cfi_def_cfa_offset 16
 390              		.cfi_offset 4, -16
 391              		.cfi_offset 5, -12
 392              		.cfi_offset 6, -8
 393              		.cfi_offset 14, -4
 394              		.loc 1 243 0
ARM GAS  /tmp/ccsiDi11.s 			page 8


 395 0002 0446     		mov	r4, r0
 396 0004 0E46     		mov	r6, r1
 397 0006 1546     		mov	r5, r2
 398              		.loc 1 246 0
 399 0008 FFF7FEFF 		bl	chDbgCheckClassS
 400              	.LVL37:
 401              		.loc 1 247 0
 402 000c C4B1     		cbz	r4, .L24
 403              	.L21:
 404              		.loc 1 249 0
 405 000e 2946     		mov	r1, r5
 406 0010 04F11C00 		add	r0, r4, #28
 407 0014 FFF7FEFF 		bl	chSemWaitTimeoutS
 408              	.LVL38:
 409              		.loc 1 250 0
 410 0018 0546     		mov	r5, r0
 411              	.LVL39:
 412 001a 78B9     		cbnz	r0, .L22
 413              		.loc 1 251 0
 414 001c E368     		ldr	r3, [r4, #12]
 415 001e 2268     		ldr	r2, [r4]
 416 0020 043B     		subs	r3, r3, #4
 417 0022 9342     		cmp	r3, r2
 418 0024 E360     		str	r3, [r4, #12]
 419              		.loc 1 252 0
 420 0026 3EBF     		ittt	cc
 421 0028 6368     		ldrcc	r3, [r4, #4]
 422 002a 043B     		subcc	r3, r3, #4
 423 002c E360     		strcc	r3, [r4, #12]
 424              		.loc 1 254 0
 425 002e 04F11000 		add	r0, r4, #16
 426              	.LVL40:
 427              		.loc 1 253 0
 428 0032 1E60     		str	r6, [r3]
 429              		.loc 1 254 0
 430 0034 FFF7FEFF 		bl	chSemSignalI
 431              	.LVL41:
 432              		.loc 1 255 0
 433 0038 FFF7FEFF 		bl	chSchRescheduleS
 434              	.LVL42:
 435              	.L22:
 436              		.loc 1 258 0
 437 003c 2846     		mov	r0, r5
 438 003e 70BD     		pop	{r4, r5, r6, pc}
 439              	.LVL43:
 440              	.L24:
 441              		.loc 1 247 0 discriminator 1
 442 0040 40F20000 		movw	r0, #:lower16:.LC4
 443 0044 C0F20000 		movt	r0, #:upper16:.LC4
 444 0048 FFF7FEFF 		bl	chDbgPanic
 445              	.LVL44:
 446 004c DFE7     		b	.L21
 447              		.cfi_endproc
 448              	.LFE6:
 449              		.size	chMBPostAheadS, .-chMBPostAheadS
 450 004e 00BF     		.section	.text.chMBPostAhead,"ax",%progbits
 451              		.align	2
ARM GAS  /tmp/ccsiDi11.s 			page 9


 452              		.p2align 4,,15
 453              		.global	chMBPostAhead
 454              		.thumb
 455              		.thumb_func
 456              		.type	chMBPostAhead, %function
 457              	chMBPostAhead:
 458              	.LFB5:
 459              		.loc 1 215 0
 460              		.cfi_startproc
 461              		@ args = 0, pretend = 0, frame = 0
 462              		@ frame_needed = 0, uses_anonymous_args = 0
 463              	.LVL45:
 464 0000 70B5     		push	{r4, r5, r6, lr}
 465              		.cfi_def_cfa_offset 16
 466              		.cfi_offset 4, -16
 467              		.cfi_offset 5, -12
 468              		.cfi_offset 6, -8
 469              		.cfi_offset 14, -4
 470              		.loc 1 215 0
 471 0002 0646     		mov	r6, r0
 472 0004 0D46     		mov	r5, r1
 473 0006 1446     		mov	r4, r2
 474              		.loc 1 218 0
 475              	@ 218 "../../../os/kernel/src/chmboxes.c" 1
 476 0008 FFF7FEFF 		bl      _port_lock
 477              	@ 0 "" 2
 478              		.thumb
 479 000c FFF7FEFF 		bl	dbg_check_lock
 480              	.LVL46:
 481              		.loc 1 219 0
 482 0010 2246     		mov	r2, r4
 483 0012 2946     		mov	r1, r5
 484 0014 3046     		mov	r0, r6
 485 0016 FFF7FEFF 		bl	chMBPostAheadS
 486              	.LVL47:
 487 001a 0446     		mov	r4, r0
 488              	.LVL48:
 489              		.loc 1 220 0
 490 001c FFF7FEFF 		bl	dbg_check_unlock
 491              	.LVL49:
 492              	@ 220 "../../../os/kernel/src/chmboxes.c" 1
 493 0020 FFF7FEFF 		bl      _port_unlock
 494              	@ 0 "" 2
 495              		.loc 1 222 0
 496              		.thumb
 497 0024 2046     		mov	r0, r4
 498 0026 70BD     		pop	{r4, r5, r6, pc}
 499              		.cfi_endproc
 500              	.LFE5:
 501              		.size	chMBPostAhead, .-chMBPostAhead
 502 0028 AFF30080 		.section	.text.chMBPostAheadI,"ax",%progbits
 502      AFF30080 
 503              		.align	2
 504              		.p2align 4,,15
 505              		.global	chMBPostAheadI
 506              		.thumb
 507              		.thumb_func
ARM GAS  /tmp/ccsiDi11.s 			page 10


 508              		.type	chMBPostAheadI, %function
 509              	chMBPostAheadI:
 510              	.LFB7:
 511              		.loc 1 274 0
 512              		.cfi_startproc
 513              		@ args = 0, pretend = 0, frame = 0
 514              		@ frame_needed = 0, uses_anonymous_args = 0
 515              	.LVL50:
 516 0000 38B5     		push	{r3, r4, r5, lr}
 517              		.cfi_def_cfa_offset 16
 518              		.cfi_offset 3, -16
 519              		.cfi_offset 4, -12
 520              		.cfi_offset 5, -8
 521              		.cfi_offset 14, -4
 522              		.loc 1 274 0
 523 0002 0446     		mov	r4, r0
 524 0004 0D46     		mov	r5, r1
 525              		.loc 1 276 0
 526 0006 FFF7FEFF 		bl	chDbgCheckClassI
 527              	.LVL51:
 528              		.loc 1 277 0
 529 000a B4B1     		cbz	r4, .L31
 530              	.L27:
 531              		.loc 1 279 0
 532 000c 626A     		ldr	r2, [r4, #36]
 533 000e 002A     		cmp	r2, #0
 534 0010 1ADD     		ble	.L30
 535              		.loc 1 282 0
 536 0012 E368     		ldr	r3, [r4, #12]
 537 0014 2168     		ldr	r1, [r4]
 538 0016 043B     		subs	r3, r3, #4
 539 0018 8B42     		cmp	r3, r1
 540 001a E360     		str	r3, [r4, #12]
 541              		.loc 1 283 0
 542 001c 3CBF     		itt	cc
 543 001e 6368     		ldrcc	r3, [r4, #4]
 544 0020 043B     		subcc	r3, r3, #4
 545              		.loc 1 281 0
 546 0022 02F1FF32 		add	r2, r2, #-1
 547 0026 6262     		str	r2, [r4, #36]
 548              		.loc 1 283 0
 549 0028 38BF     		it	cc
 550 002a E360     		strcc	r3, [r4, #12]
 551              		.loc 1 285 0
 552 002c 04F11000 		add	r0, r4, #16
 553              		.loc 1 284 0
 554 0030 1D60     		str	r5, [r3]
 555              		.loc 1 285 0
 556 0032 FFF7FEFF 		bl	chSemSignalI
 557              	.LVL52:
 558              		.loc 1 286 0
 559 0036 0020     		movs	r0, #0
 560 0038 38BD     		pop	{r3, r4, r5, pc}
 561              	.LVL53:
 562              	.L31:
 563              		.loc 1 277 0 discriminator 1
 564 003a 40F20000 		movw	r0, #:lower16:.LC5
ARM GAS  /tmp/ccsiDi11.s 			page 11


 565 003e C0F20000 		movt	r0, #:upper16:.LC5
 566 0042 FFF7FEFF 		bl	chDbgPanic
 567              	.LVL54:
 568 0046 E1E7     		b	.L27
 569              	.L30:
 570              		.loc 1 280 0
 571 0048 4FF0FF30 		mov	r0, #-1
 572              		.loc 1 287 0
 573 004c 38BD     		pop	{r3, r4, r5, pc}
 574              		.cfi_endproc
 575              	.LFE7:
 576              		.size	chMBPostAheadI, .-chMBPostAheadI
 577 004e 00BF     		.section	.text.chMBFetchS,"ax",%progbits
 578              		.align	2
 579              		.p2align 4,,15
 580              		.global	chMBFetchS
 581              		.thumb
 582              		.thumb_func
 583              		.type	chMBFetchS, %function
 584              	chMBFetchS:
 585              	.LFB9:
 586              		.loc 1 336 0
 587              		.cfi_startproc
 588              		@ args = 0, pretend = 0, frame = 0
 589              		@ frame_needed = 0, uses_anonymous_args = 0
 590              	.LVL55:
 591 0000 70B5     		push	{r4, r5, r6, lr}
 592              		.cfi_def_cfa_offset 16
 593              		.cfi_offset 4, -16
 594              		.cfi_offset 5, -12
 595              		.cfi_offset 6, -8
 596              		.cfi_offset 14, -4
 597              		.loc 1 336 0
 598 0002 0446     		mov	r4, r0
 599 0004 0E46     		mov	r6, r1
 600 0006 1546     		mov	r5, r2
 601              		.loc 1 339 0
 602 0008 FFF7FEFF 		bl	chDbgCheckClassS
 603              	.LVL56:
 604              		.loc 1 340 0
 605 000c 002E     		cmp	r6, #0
 606 000e 18BF     		it	ne
 607 0010 002C     		cmpne	r4, #0
 608 0012 19D0     		beq	.L39
 609              	.L33:
 610              		.loc 1 342 0
 611 0014 2946     		mov	r1, r5
 612 0016 04F11000 		add	r0, r4, #16
 613 001a FFF7FEFF 		bl	chSemWaitTimeoutS
 614              	.LVL57:
 615              		.loc 1 343 0
 616 001e 0546     		mov	r5, r0
 617              	.LVL58:
 618 0020 80B9     		cbnz	r0, .L34
 619              		.loc 1 344 0
 620 0022 E368     		ldr	r3, [r4, #12]
 621              		.loc 1 345 0
ARM GAS  /tmp/ccsiDi11.s 			page 12


 622 0024 6268     		ldr	r2, [r4, #4]
 623              		.loc 1 344 0
 624 0026 1968     		ldr	r1, [r3]
 625 0028 0433     		adds	r3, r3, #4
 626              		.loc 1 345 0
 627 002a 9342     		cmp	r3, r2
 628              		.loc 1 344 0
 629 002c E360     		str	r3, [r4, #12]
 630              		.loc 1 346 0
 631 002e 28BF     		it	cs
 632 0030 2368     		ldrcs	r3, [r4]
 633              		.loc 1 344 0
 634 0032 3160     		str	r1, [r6]
 635              		.loc 1 347 0
 636 0034 04F11C00 		add	r0, r4, #28
 637              	.LVL59:
 638              		.loc 1 346 0
 639 0038 28BF     		it	cs
 640 003a E360     		strcs	r3, [r4, #12]
 641              		.loc 1 347 0
 642 003c FFF7FEFF 		bl	chSemSignalI
 643              	.LVL60:
 644              		.loc 1 348 0
 645 0040 FFF7FEFF 		bl	chSchRescheduleS
 646              	.LVL61:
 647              	.L34:
 648              		.loc 1 351 0
 649 0044 2846     		mov	r0, r5
 650 0046 70BD     		pop	{r4, r5, r6, pc}
 651              	.LVL62:
 652              	.L39:
 653              		.loc 1 340 0 discriminator 1
 654 0048 40F20000 		movw	r0, #:lower16:.LC6
 655 004c C0F20000 		movt	r0, #:upper16:.LC6
 656 0050 FFF7FEFF 		bl	chDbgPanic
 657              	.LVL63:
 658 0054 DEE7     		b	.L33
 659              		.cfi_endproc
 660              	.LFE9:
 661              		.size	chMBFetchS, .-chMBFetchS
 662 0056 00BFAFF3 		.section	.text.chMBFetch,"ax",%progbits
 662      0080AFF3 
 662      0080
 663              		.align	2
 664              		.p2align 4,,15
 665              		.global	chMBFetch
 666              		.thumb
 667              		.thumb_func
 668              		.type	chMBFetch, %function
 669              	chMBFetch:
 670              	.LFB8:
 671              		.loc 1 308 0
 672              		.cfi_startproc
 673              		@ args = 0, pretend = 0, frame = 0
 674              		@ frame_needed = 0, uses_anonymous_args = 0
 675              	.LVL64:
 676 0000 70B5     		push	{r4, r5, r6, lr}
ARM GAS  /tmp/ccsiDi11.s 			page 13


 677              		.cfi_def_cfa_offset 16
 678              		.cfi_offset 4, -16
 679              		.cfi_offset 5, -12
 680              		.cfi_offset 6, -8
 681              		.cfi_offset 14, -4
 682              		.loc 1 308 0
 683 0002 0646     		mov	r6, r0
 684 0004 0D46     		mov	r5, r1
 685 0006 1446     		mov	r4, r2
 686              		.loc 1 311 0
 687              	@ 311 "../../../os/kernel/src/chmboxes.c" 1
 688 0008 FFF7FEFF 		bl      _port_lock
 689              	@ 0 "" 2
 690              		.thumb
 691 000c FFF7FEFF 		bl	dbg_check_lock
 692              	.LVL65:
 693              		.loc 1 312 0
 694 0010 2246     		mov	r2, r4
 695 0012 2946     		mov	r1, r5
 696 0014 3046     		mov	r0, r6
 697 0016 FFF7FEFF 		bl	chMBFetchS
 698              	.LVL66:
 699 001a 0446     		mov	r4, r0
 700              	.LVL67:
 701              		.loc 1 313 0
 702 001c FFF7FEFF 		bl	dbg_check_unlock
 703              	.LVL68:
 704              	@ 313 "../../../os/kernel/src/chmboxes.c" 1
 705 0020 FFF7FEFF 		bl      _port_unlock
 706              	@ 0 "" 2
 707              		.loc 1 315 0
 708              		.thumb
 709 0024 2046     		mov	r0, r4
 710 0026 70BD     		pop	{r4, r5, r6, pc}
 711              		.cfi_endproc
 712              	.LFE8:
 713              		.size	chMBFetch, .-chMBFetch
 714 0028 AFF30080 		.section	.text.chMBFetchI,"ax",%progbits
 714      AFF30080 
 715              		.align	2
 716              		.p2align 4,,15
 717              		.global	chMBFetchI
 718              		.thumb
 719              		.thumb_func
 720              		.type	chMBFetchI, %function
 721              	chMBFetchI:
 722              	.LFB10:
 723              		.loc 1 367 0
 724              		.cfi_startproc
 725              		@ args = 0, pretend = 0, frame = 0
 726              		@ frame_needed = 0, uses_anonymous_args = 0
 727              	.LVL69:
 728 0000 38B5     		push	{r3, r4, r5, lr}
 729              		.cfi_def_cfa_offset 16
 730              		.cfi_offset 3, -16
 731              		.cfi_offset 4, -12
 732              		.cfi_offset 5, -8
ARM GAS  /tmp/ccsiDi11.s 			page 14


 733              		.cfi_offset 14, -4
 734              		.loc 1 367 0
 735 0002 0446     		mov	r4, r0
 736 0004 0D46     		mov	r5, r1
 737              		.loc 1 369 0
 738 0006 FFF7FEFF 		bl	chDbgCheckClassI
 739              	.LVL70:
 740              		.loc 1 370 0
 741 000a 002D     		cmp	r5, #0
 742 000c 18BF     		it	ne
 743 000e 002C     		cmpne	r4, #0
 744 0010 15D0     		beq	.L49
 745              	.L42:
 746              		.loc 1 372 0
 747 0012 A369     		ldr	r3, [r4, #24]
 748 0014 002B     		cmp	r3, #0
 749 0016 19DD     		ble	.L45
 750              		.loc 1 374 0
 751 0018 5A1E     		subs	r2, r3, #1
 752              		.loc 1 375 0
 753 001a E368     		ldr	r3, [r4, #12]
 754              		.loc 1 374 0
 755 001c A261     		str	r2, [r4, #24]
 756              		.loc 1 376 0
 757 001e 6268     		ldr	r2, [r4, #4]
 758              		.loc 1 375 0
 759 0020 1968     		ldr	r1, [r3]
 760 0022 0433     		adds	r3, r3, #4
 761              		.loc 1 376 0
 762 0024 9342     		cmp	r3, r2
 763              		.loc 1 375 0
 764 0026 E360     		str	r3, [r4, #12]
 765              		.loc 1 377 0
 766 0028 28BF     		it	cs
 767 002a 2368     		ldrcs	r3, [r4]
 768              		.loc 1 375 0
 769 002c 2960     		str	r1, [r5]
 770              		.loc 1 378 0
 771 002e 04F11C00 		add	r0, r4, #28
 772              		.loc 1 377 0
 773 0032 28BF     		it	cs
 774 0034 E360     		strcs	r3, [r4, #12]
 775              		.loc 1 378 0
 776 0036 FFF7FEFF 		bl	chSemSignalI
 777              	.LVL71:
 778              		.loc 1 379 0
 779 003a 0020     		movs	r0, #0
 780 003c 38BD     		pop	{r3, r4, r5, pc}
 781              	.LVL72:
 782              	.L49:
 783              		.loc 1 370 0 discriminator 1
 784 003e 40F20000 		movw	r0, #:lower16:.LC7
 785 0042 C0F20000 		movt	r0, #:upper16:.LC7
 786 0046 FFF7FEFF 		bl	chDbgPanic
 787              	.LVL73:
 788 004a E2E7     		b	.L42
 789              	.L45:
ARM GAS  /tmp/ccsiDi11.s 			page 15


 790              		.loc 1 373 0
 791 004c 4FF0FF30 		mov	r0, #-1
 792              		.loc 1 380 0
 793 0050 38BD     		pop	{r3, r4, r5, pc}
 794              		.cfi_endproc
 795              	.LFE10:
 796              		.size	chMBFetchI, .-chMBFetchI
 797 0052 00BFAFF3 		.section	.rodata.str1.4,"aMS",%progbits,1
 797      0080AFF3 
 797      0080AFF3 
 797      0080
 798              		.align	2
 799              	.LC0:
 800 0000 2263684D 		.ascii	"\"chMBInit\"()\000"
 800      42496E69 
 800      74222829 
 800      00
 801 000d 000000   		.space	3
 802              	.LC1:
 803 0010 2263684D 		.ascii	"\"chMBReset\"()\000"
 803      42526573 
 803      65742228 
 803      2900
 804 001e 0000     		.space	2
 805              	.LC2:
 806 0020 2263684D 		.ascii	"\"chMBPostS\"()\000"
 806      42506F73 
 806      74532228 
 806      2900
 807 002e 0000     		.space	2
 808              	.LC3:
 809 0030 2263684D 		.ascii	"\"chMBPostI\"()\000"
 809      42506F73 
 809      74492228 
 809      2900
 810 003e 0000     		.space	2
 811              	.LC4:
 812 0040 2263684D 		.ascii	"\"chMBPostAheadS\"()\000"
 812      42506F73 
 812      74416865 
 812      61645322 
 812      282900
 813 0053 00       		.space	1
 814              	.LC5:
 815 0054 2263684D 		.ascii	"\"chMBPostAheadI\"()\000"
 815      42506F73 
 815      74416865 
 815      61644922 
 815      282900
 816 0067 00       		.space	1
 817              	.LC6:
 818 0068 2263684D 		.ascii	"\"chMBFetchS\"()\000"
 818      42466574 
 818      63685322 
 818      282900
 819 0077 00       		.space	1
 820              	.LC7:
ARM GAS  /tmp/ccsiDi11.s 			page 16


 821 0078 2263684D 		.ascii	"\"chMBFetchI\"()\000"
 821      42466574 
 821      63684922 
 821      282900
 822 0087 00       		.text
 823              	.Letext0:
 824              		.file 2 "/usr/arm-none-eabi/include/machine/_default_types.h"
 825              		.file 3 "/usr/arm-none-eabi/include/stdint.h"
 826              		.file 4 "../../../os/ports/GCC/ARMCMx/chtypes.h"
 827              		.file 5 "../../../os/kernel/include/chlists.h"
 828              		.file 6 "../../../os/kernel/include/chthreads.h"
 829              		.file 7 "../../../os/ports/GCC/ARMCMx/chcore_v7m.h"
 830              		.file 8 "../../../os/kernel/include/chsem.h"
 831              		.file 9 "../../../os/kernel/include/chmtx.h"
 832              		.file 10 "../../../os/kernel/include/chmboxes.h"
 833              		.file 11 "../../../os/kernel/include/chdebug.h"
 834              		.file 12 "../../../os/kernel/include/chschd.h"