ARM GAS  /tmp/cc0ovzaX.s 			page 1


   1              		.syntax unified
   2              		.cpu cortex-m4
   3              		.fpu softvfp
   4              		.eabi_attribute 20, 1
   5              		.eabi_attribute 21, 1
   6              		.eabi_attribute 23, 3
   7              		.eabi_attribute 24, 1
   8              		.eabi_attribute 25, 1
   9              		.eabi_attribute 26, 1
  10              		.eabi_attribute 30, 2
  11              		.eabi_attribute 34, 1
  12              		.eabi_attribute 18, 4
  13              		.thumb
  14              		.file	"chmsg.c"
  15              		.text
  16              	.Ltext0:
  17              		.cfi_sections	.debug_frame
  18              		.section	.text.chMsgSend,"ax",%progbits
  19              		.align	2
  20              		.p2align 4,,15
  21              		.global	chMsgSend
  22              		.thumb
  23              		.thumb_func
  24              		.type	chMsgSend, %function
  25              	chMsgSend:
  26              	.LFB0:
  27              		.file 1 "../../../os/kernel/src/chmsg.c"
  28              		.loc 1 75 0
  29              		.cfi_startproc
  30              		@ args = 0, pretend = 0, frame = 0
  31              		@ frame_needed = 0, uses_anonymous_args = 0
  32              	.LVL0:
  33              		.loc 1 76 0
  34 0000 40F20003 		movw	r3, #:lower16:rlist
  35 0004 C0F20003 		movt	r3, #:upper16:rlist
  36              		.loc 1 75 0
  37 0008 70B5     		push	{r4, r5, r6, lr}
  38              		.cfi_def_cfa_offset 16
  39              		.cfi_offset 4, -16
  40              		.cfi_offset 5, -12
  41              		.cfi_offset 6, -8
  42              		.cfi_offset 14, -4
  43              		.loc 1 78 0
  44 000a 0546     		mov	r5, r0
  45              		.loc 1 75 0
  46 000c 0E46     		mov	r6, r1
  47              		.loc 1 76 0
  48 000e 9C69     		ldr	r4, [r3, #24]
  49              	.LVL1:
  50              		.loc 1 78 0
  51 0010 E0B1     		cbz	r0, .L5
  52              	.LVL2:
  53              	.L2:
  54              		.loc 1 80 0
  55              	@ 80 "../../../os/kernel/src/chmsg.c" 1
  56 0012 FFF7FEFF 		bl      _port_lock
  57              	@ 0 "" 2
ARM GAS  /tmp/cc0ovzaX.s 			page 2


  58              		.thumb
  59 0016 FFF7FEFF 		bl	dbg_check_lock
  60              	.LVL3:
  61              		.loc 1 82 0
  62 001a 05F13001 		add	r1, r5, #48
  63              		.loc 1 81 0
  64 001e A663     		str	r6, [r4, #56]
  65              		.loc 1 82 0
  66 0020 A162     		str	r1, [r4, #40]
  67              		.loc 1 83 0
  68 0022 2046     		mov	r0, r4
  69 0024 FFF7FEFF 		bl	queue_insert
  70              	.LVL4:
  71              		.loc 1 84 0
  72 0028 95F82030 		ldrb	r3, [r5, #32]	@ zero_extendqisi2
  73 002c 0C2B     		cmp	r3, #12
  74 002e 09D0     		beq	.L6
  75              	.L3:
  76              		.loc 1 86 0
  77 0030 0A20     		movs	r0, #10
  78 0032 FFF7FEFF 		bl	chSchGoSleepS
  79              	.LVL5:
  80              		.loc 1 87 0
  81 0036 A46A     		ldr	r4, [r4, #40]
  82              	.LVL6:
  83              		.loc 1 88 0
  84 0038 FFF7FEFF 		bl	dbg_check_unlock
  85              	.LVL7:
  86              	@ 88 "../../../os/kernel/src/chmsg.c" 1
  87 003c FFF7FEFF 		bl      _port_unlock
  88              	@ 0 "" 2
  89              		.loc 1 90 0
  90              		.thumb
  91 0040 2046     		mov	r0, r4
  92 0042 70BD     		pop	{r4, r5, r6, pc}
  93              	.LVL8:
  94              	.L6:
  95              		.loc 1 85 0
  96 0044 2846     		mov	r0, r5
  97 0046 FFF7FEFF 		bl	chSchReadyI
  98              	.LVL9:
  99 004a F1E7     		b	.L3
 100              	.LVL10:
 101              	.L5:
 102              		.loc 1 78 0 discriminator 1
 103 004c 40F20000 		movw	r0, #:lower16:.LC0
 104              	.LVL11:
 105 0050 C0F20000 		movt	r0, #:upper16:.LC0
 106 0054 FFF7FEFF 		bl	chDbgPanic
 107              	.LVL12:
 108 0058 DBE7     		b	.L2
 109              		.cfi_endproc
 110              	.LFE0:
 111              		.size	chMsgSend, .-chMsgSend
 112 005a 00BFAFF3 		.section	.text.chMsgWait,"ax",%progbits
 112      0080
 113              		.align	2
ARM GAS  /tmp/cc0ovzaX.s 			page 3


 114              		.p2align 4,,15
 115              		.global	chMsgWait
 116              		.thumb
 117              		.thumb_func
 118              		.type	chMsgWait, %function
 119              	chMsgWait:
 120              	.LFB1:
 121              		.loc 1 106 0
 122              		.cfi_startproc
 123              		@ args = 0, pretend = 0, frame = 0
 124              		@ frame_needed = 0, uses_anonymous_args = 0
 125 0000 10B5     		push	{r4, lr}
 126              		.cfi_def_cfa_offset 8
 127              		.cfi_offset 4, -8
 128              		.cfi_offset 14, -4
 129              		.loc 1 109 0
 130              	@ 109 "../../../os/kernel/src/chmsg.c" 1
 131 0002 FFF7FEFF 		bl      _port_lock
 132              	@ 0 "" 2
 133              		.loc 1 110 0
 134              		.thumb
 135 0006 40F20004 		movw	r4, #:lower16:rlist
 136 000a C0F20004 		movt	r4, #:upper16:rlist
 137              		.loc 1 109 0
 138 000e FFF7FEFF 		bl	dbg_check_lock
 139              	.LVL13:
 140              		.loc 1 110 0
 141 0012 A069     		ldr	r0, [r4, #24]
 142 0014 036B     		ldr	r3, [r0, #48]
 143 0016 3030     		adds	r0, r0, #48
 144 0018 8342     		cmp	r3, r0
 145 001a 0BD0     		beq	.L9
 146              	.L8:
 147              		.loc 1 112 0
 148 001c FFF7FEFF 		bl	fifo_remove
 149              	.LVL14:
 150              		.loc 1 113 0
 151 0020 0B23     		movs	r3, #11
 152 0022 80F82030 		strb	r3, [r0, #32]
 153              		.loc 1 112 0
 154 0026 0446     		mov	r4, r0
 155              	.LVL15:
 156              		.loc 1 114 0
 157 0028 FFF7FEFF 		bl	dbg_check_unlock
 158              	.LVL16:
 159              	@ 114 "../../../os/kernel/src/chmsg.c" 1
 160 002c FFF7FEFF 		bl      _port_unlock
 161              	@ 0 "" 2
 162              		.loc 1 116 0
 163              		.thumb
 164 0030 2046     		mov	r0, r4
 165 0032 10BD     		pop	{r4, pc}
 166              	.LVL17:
 167              	.L9:
 168              		.loc 1 111 0
 169 0034 0C20     		movs	r0, #12
 170 0036 FFF7FEFF 		bl	chSchGoSleepS
ARM GAS  /tmp/cc0ovzaX.s 			page 4


 171              	.LVL18:
 172 003a A069     		ldr	r0, [r4, #24]
 173 003c 3030     		adds	r0, r0, #48
 174 003e EDE7     		b	.L8
 175              		.cfi_endproc
 176              	.LFE1:
 177              		.size	chMsgWait, .-chMsgWait
 178              		.section	.text.chMsgRelease,"ax",%progbits
 179              		.align	2
 180              		.p2align 4,,15
 181              		.global	chMsgRelease
 182              		.thumb
 183              		.thumb_func
 184              		.type	chMsgRelease, %function
 185              	chMsgRelease:
 186              	.LFB2:
 187              		.loc 1 128 0
 188              		.cfi_startproc
 189              		@ args = 0, pretend = 0, frame = 0
 190              		@ frame_needed = 0, uses_anonymous_args = 0
 191              	.LVL19:
 192 0000 38B5     		push	{r3, r4, r5, lr}
 193              		.cfi_def_cfa_offset 16
 194              		.cfi_offset 3, -16
 195              		.cfi_offset 4, -12
 196              		.cfi_offset 5, -8
 197              		.cfi_offset 14, -4
 198              		.loc 1 128 0
 199 0002 0446     		mov	r4, r0
 200 0004 0D46     		mov	r5, r1
 201              		.loc 1 130 0
 202              	@ 130 "../../../os/kernel/src/chmsg.c" 1
 203 0006 FFF7FEFF 		bl      _port_lock
 204              	@ 0 "" 2
 205              		.thumb
 206 000a FFF7FEFF 		bl	dbg_check_lock
 207              	.LVL20:
 208              		.loc 1 131 0
 209 000e 94F82030 		ldrb	r3, [r4, #32]	@ zero_extendqisi2
 210 0012 0B2B     		cmp	r3, #11
 211 0014 05D0     		beq	.L11
 212              		.loc 1 131 0 is_stmt 0 discriminator 1
 213 0016 40F20000 		movw	r0, #:lower16:.LC1
 214 001a C0F20000 		movt	r0, #:upper16:.LC1
 215 001e FFF7FEFF 		bl	chDbgPanic
 216              	.LVL21:
 217              	.L11:
 218              		.loc 1 133 0 is_stmt 1
 219 0022 2046     		mov	r0, r4
 220 0024 2946     		mov	r1, r5
 221 0026 FFF7FEFF 		bl	chSchWakeupS
 222              	.LVL22:
 223              		.loc 1 134 0
 224 002a FFF7FEFF 		bl	dbg_check_unlock
 225              	.LVL23:
 226              	@ 134 "../../../os/kernel/src/chmsg.c" 1
 227 002e FFF7FEFF 		bl      _port_unlock
ARM GAS  /tmp/cc0ovzaX.s 			page 5


 228              	@ 0 "" 2
 229              		.thumb
 230 0032 38BD     		pop	{r3, r4, r5, pc}
 231              		.cfi_endproc
 232              	.LFE2:
 233              		.size	chMsgRelease, .-chMsgRelease
 234 0034 AFF30080 		.section	.rodata.str1.4,"aMS",%progbits,1
 234      AFF30080 
 234      AFF30080 
 235              		.align	2
 236              	.LC0:
 237 0000 2263684D 		.ascii	"\"chMsgSend\"()\000"
 237      73675365 
 237      6E642228 
 237      2900
 238 000e 0000     		.space	2
 239              	.LC1:
 240 0010 63684D73 		.ascii	"chMsgRelease(), #1\000"
 240      6752656C 
 240      65617365 
 240      28292C20 
 240      233100
 241 0023 00       		.text
 242              	.Letext0:
 243              		.file 2 "/usr/arm-none-eabi/include/machine/_default_types.h"
 244              		.file 3 "/usr/arm-none-eabi/include/stdint.h"
 245              		.file 4 "../../../os/ports/GCC/ARMCMx/chtypes.h"
 246              		.file 5 "../../../os/kernel/include/chlists.h"
 247              		.file 6 "../../../os/kernel/include/chthreads.h"
 248              		.file 7 "../../../os/ports/GCC/ARMCMx/chcore_v7m.h"
 249              		.file 8 "../../../os/kernel/include/chschd.h"
 250              		.file 9 "../../../os/kernel/include/chmtx.h"
 251              		.file 10 "../../../os/kernel/include/chdebug.h"