ARM GAS  /tmp/ccIk0PxD.s 			page 1


   1              		.syntax unified
   2              		.cpu cortex-m4
   3              		.fpu softvfp
   4              		.eabi_attribute 20, 1
   5              		.eabi_attribute 21, 1
   6              		.eabi_attribute 23, 3
   7              		.eabi_attribute 24, 1
   8              		.eabi_attribute 25, 1
   9              		.eabi_attribute 26, 1
  10              		.eabi_attribute 30, 2
  11              		.eabi_attribute 34, 1
  12              		.eabi_attribute 18, 4
  13              		.thumb
  14              		.file	"chmtx.c"
  15              		.text
  16              	.Ltext0:
  17              		.cfi_sections	.debug_frame
  18              		.section	.text.chMtxInit,"ax",%progbits
  19              		.align	2
  20              		.p2align 4,,15
  21              		.global	chMtxInit
  22              		.thumb
  23              		.thumb_func
  24              		.type	chMtxInit, %function
  25              	chMtxInit:
  26              	.LFB0:
  27              		.file 1 "../../../os/kernel/src/chmtx.c"
  28              		.loc 1 86 0
  29              		.cfi_startproc
  30              		@ args = 0, pretend = 0, frame = 0
  31              		@ frame_needed = 0, uses_anonymous_args = 0
  32              	.LVL0:
  33 0000 10B5     		push	{r4, lr}
  34              		.cfi_def_cfa_offset 8
  35              		.cfi_offset 4, -8
  36              		.cfi_offset 14, -4
  37              		.loc 1 88 0
  38 0002 0446     		mov	r4, r0
  39 0004 20B1     		cbz	r0, .L4
  40              	.LVL1:
  41              	.L2:
  42              		.loc 1 91 0
  43 0006 0023     		movs	r3, #0
  44              		.loc 1 90 0
  45 0008 6460     		str	r4, [r4, #4]
  46 000a 2460     		str	r4, [r4]
  47              		.loc 1 91 0
  48 000c A360     		str	r3, [r4, #8]
  49 000e 10BD     		pop	{r4, pc}
  50              	.LVL2:
  51              	.L4:
  52              		.loc 1 88 0 discriminator 1
  53 0010 40F20000 		movw	r0, #:lower16:.LC0
  54              	.LVL3:
  55 0014 C0F20000 		movt	r0, #:upper16:.LC0
  56 0018 FFF7FEFF 		bl	chDbgPanic
  57              	.LVL4:
ARM GAS  /tmp/ccIk0PxD.s 			page 2


  58 001c F3E7     		b	.L2
  59              		.cfi_endproc
  60              	.LFE0:
  61              		.size	chMtxInit, .-chMtxInit
  62 001e 00BF     		.section	.text.chMtxLockS,"ax",%progbits
  63              		.align	2
  64              		.p2align 4,,15
  65              		.global	chMtxLockS
  66              		.thumb
  67              		.thumb_func
  68              		.type	chMtxLockS, %function
  69              	chMtxLockS:
  70              	.LFB2:
  71              		.loc 1 121 0
  72              		.cfi_startproc
  73              		@ args = 0, pretend = 0, frame = 0
  74              		@ frame_needed = 0, uses_anonymous_args = 0
  75              	.LVL5:
  76              		.loc 1 122 0
  77 0000 40F20003 		movw	r3, #:lower16:rlist
  78 0004 C0F20003 		movt	r3, #:upper16:rlist
  79              		.loc 1 121 0
  80 0008 70B5     		push	{r4, r5, r6, lr}
  81              		.cfi_def_cfa_offset 16
  82              		.cfi_offset 4, -16
  83              		.cfi_offset 5, -12
  84              		.cfi_offset 6, -8
  85              		.cfi_offset 14, -4
  86              		.loc 1 121 0
  87 000a 0546     		mov	r5, r0
  88              		.loc 1 122 0
  89 000c 9E69     		ldr	r6, [r3, #24]
  90              	.LVL6:
  91              		.loc 1 124 0
  92 000e FFF7FEFF 		bl	chDbgCheckClassS
  93              	.LVL7:
  94              		.loc 1 125 0
  95 0012 002D     		cmp	r5, #0
  96 0014 47D0     		beq	.L17
  97              	.L6:
  98              		.loc 1 128 0
  99 0016 AC68     		ldr	r4, [r5, #8]
 100 0018 002C     		cmp	r4, #0
 101 001a 3FD0     		beq	.L7
 102              	.LVL8:
 103              	.LBB2:
 104              		.loc 1 135 0 discriminator 1
 105 001c B368     		ldr	r3, [r6, #8]
 106 001e A268     		ldr	r2, [r4, #8]
 107 0020 9A42     		cmp	r2, r3
 108 0022 06D2     		bcs	.L9
 109              		.loc 1 139 0
 110 0024 94F82020 		ldrb	r2, [r4, #32]	@ zero_extendqisi2
 111              		.loc 1 137 0
 112 0028 A360     		str	r3, [r4, #8]
 113              		.loc 1 139 0
 114 002a 72B3     		cbz	r2, .L10
ARM GAS  /tmp/ccIk0PxD.s 			page 3


 115              	.L19:
 116 002c 042A     		cmp	r2, #4
 117              		.loc 1 142 0
 118 002e 2046     		mov	r0, r4
 119              		.loc 1 139 0
 120 0030 1BD0     		beq	.L18
 121              	.L9:
 122              		.loc 1 173 0
 123 0032 3046     		mov	r0, r6
 124 0034 2946     		mov	r1, r5
 125 0036 FFF7FEFF 		bl	prio_insert
 126              	.LVL9:
 127              		.loc 1 174 0
 128 003a B562     		str	r5, [r6, #40]
 129              		.loc 1 175 0
 130 003c 0420     		movs	r0, #4
 131 003e FFF7FEFF 		bl	chSchGoSleepS
 132              	.LVL10:
 133              		.loc 1 178 0
 134 0042 AB68     		ldr	r3, [r5, #8]
 135 0044 B342     		cmp	r3, r6
 136 0046 05D0     		beq	.L14
 137              		.loc 1 178 0 is_stmt 0 discriminator 1
 138 0048 40F20000 		movw	r0, #:lower16:.LC2
 139 004c C0F20000 		movt	r0, #:upper16:.LC2
 140 0050 FFF7FEFF 		bl	chDbgPanic
 141              	.LVL11:
 142              	.L14:
 143              		.loc 1 179 0 is_stmt 1
 144 0054 336C     		ldr	r3, [r6, #64]
 145 0056 AB42     		cmp	r3, r5
 146 0058 24D0     		beq	.L5
 147              		.loc 1 179 0 is_stmt 0 discriminator 1
 148 005a 40F20000 		movw	r0, #:lower16:.LC3
 149 005e C0F20000 		movt	r0, #:upper16:.LC3
 150              	.LBE2:
 151              		.loc 1 187 0 is_stmt 1 discriminator 1
 152 0062 BDE87040 		pop	{r4, r5, r6, lr}
 153              	.LVL12:
 154              	.LBB3:
 155              		.loc 1 179 0 discriminator 1
 156 0066 FFF7FEBF 		b	chDbgPanic
 157              	.LVL13:
 158              	.L18:
 159              		.loc 1 142 0
 160 006a FFF7FEFF 		bl	dequeue
 161              	.LVL14:
 162 006e A16A     		ldr	r1, [r4, #40]
 163 0070 FFF7FEFF 		bl	prio_insert
 164              	.LVL15:
 165              		.loc 1 143 0
 166 0074 A26A     		ldr	r2, [r4, #40]
 167              		.loc 1 135 0
 168 0076 B368     		ldr	r3, [r6, #8]
 169              		.loc 1 143 0
 170 0078 9468     		ldr	r4, [r2, #8]
 171              	.LVL16:
ARM GAS  /tmp/ccIk0PxD.s 			page 4


 172              		.loc 1 135 0
 173 007a A268     		ldr	r2, [r4, #8]
 174 007c 9A42     		cmp	r2, r3
 175 007e D8D2     		bcs	.L9
 176              		.loc 1 139 0
 177 0080 94F82020 		ldrb	r2, [r4, #32]	@ zero_extendqisi2
 178              		.loc 1 137 0
 179 0084 A360     		str	r3, [r4, #8]
 180              		.loc 1 139 0
 181 0086 002A     		cmp	r2, #0
 182 0088 D0D1     		bne	.L19
 183              	.L10:
 184              		.loc 1 164 0
 185 008a 0123     		movs	r3, #1
 186 008c 84F82030 		strb	r3, [r4, #32]
 187              		.loc 1 167 0
 188 0090 2046     		mov	r0, r4
 189 0092 FFF7FEFF 		bl	dequeue
 190              	.LVL17:
 191 0096 FFF7FEFF 		bl	chSchReadyI
 192              	.LVL18:
 193              		.loc 1 168 0
 194 009a CAE7     		b	.L9
 195              	.LVL19:
 196              	.L7:
 197              	.LBE3:
 198              		.loc 1 184 0
 199 009c 336C     		ldr	r3, [r6, #64]
 200              		.loc 1 183 0
 201 009e AE60     		str	r6, [r5, #8]
 202              		.loc 1 184 0
 203 00a0 EB60     		str	r3, [r5, #12]
 204              		.loc 1 185 0
 205 00a2 3564     		str	r5, [r6, #64]
 206              	.L5:
 207 00a4 70BD     		pop	{r4, r5, r6, pc}
 208              	.LVL20:
 209              	.L17:
 210              		.loc 1 125 0 discriminator 1
 211 00a6 40F20000 		movw	r0, #:lower16:.LC1
 212 00aa C0F20000 		movt	r0, #:upper16:.LC1
 213 00ae FFF7FEFF 		bl	chDbgPanic
 214              	.LVL21:
 215 00b2 B0E7     		b	.L6
 216              		.cfi_endproc
 217              	.LFE2:
 218              		.size	chMtxLockS, .-chMtxLockS
 219              		.section	.text.chMtxLock,"ax",%progbits
 220              		.align	2
 221              		.p2align 4,,15
 222              		.global	chMtxLock
 223              		.thumb
 224              		.thumb_func
 225              		.type	chMtxLock, %function
 226              	chMtxLock:
 227              	.LFB1:
 228              		.loc 1 103 0
ARM GAS  /tmp/ccIk0PxD.s 			page 5


 229              		.cfi_startproc
 230              		@ args = 0, pretend = 0, frame = 0
 231              		@ frame_needed = 0, uses_anonymous_args = 0
 232              	.LVL22:
 233 0000 10B5     		push	{r4, lr}
 234              		.cfi_def_cfa_offset 8
 235              		.cfi_offset 4, -8
 236              		.cfi_offset 14, -4
 237              		.loc 1 103 0
 238 0002 0446     		mov	r4, r0
 239              		.loc 1 105 0
 240              	@ 105 "../../../os/kernel/src/chmtx.c" 1
 241 0004 FFF7FEFF 		bl      _port_lock
 242              	@ 0 "" 2
 243              		.thumb
 244 0008 FFF7FEFF 		bl	dbg_check_lock
 245              	.LVL23:
 246              		.loc 1 107 0
 247 000c 2046     		mov	r0, r4
 248 000e FFF7FEFF 		bl	chMtxLockS
 249              	.LVL24:
 250              		.loc 1 109 0
 251 0012 FFF7FEFF 		bl	dbg_check_unlock
 252              	.LVL25:
 253              	@ 109 "../../../os/kernel/src/chmtx.c" 1
 254 0016 FFF7FEFF 		bl      _port_unlock
 255              	@ 0 "" 2
 256              		.thumb
 257 001a 10BD     		pop	{r4, pc}
 258              		.cfi_endproc
 259              	.LFE1:
 260              		.size	chMtxLock, .-chMtxLock
 261 001c AFF30080 		.section	.text.chMtxTryLockS,"ax",%progbits
 262              		.align	2
 263              		.p2align 4,,15
 264              		.global	chMtxTryLockS
 265              		.thumb
 266              		.thumb_func
 267              		.type	chMtxTryLockS, %function
 268              	chMtxTryLockS:
 269              	.LFB4:
 270              		.loc 1 234 0
 271              		.cfi_startproc
 272              		@ args = 0, pretend = 0, frame = 0
 273              		@ frame_needed = 0, uses_anonymous_args = 0
 274              	.LVL26:
 275 0000 10B5     		push	{r4, lr}
 276              		.cfi_def_cfa_offset 8
 277              		.cfi_offset 4, -8
 278              		.cfi_offset 14, -4
 279              		.loc 1 234 0
 280 0002 0446     		mov	r4, r0
 281              		.loc 1 236 0
 282 0004 FFF7FEFF 		bl	chDbgCheckClassS
 283              	.LVL27:
 284              		.loc 1 237 0
 285 0008 74B1     		cbz	r4, .L25
ARM GAS  /tmp/ccIk0PxD.s 			page 6


 286              	.L22:
 287              		.loc 1 239 0
 288 000a A368     		ldr	r3, [r4, #8]
 289 000c 0BB1     		cbz	r3, .L26
 290              		.loc 1 240 0
 291 000e 0020     		movs	r0, #0
 292              		.loc 1 245 0
 293 0010 10BD     		pop	{r4, pc}
 294              	.LVL28:
 295              	.L26:
 296              		.loc 1 241 0
 297 0012 40F20003 		movw	r3, #:lower16:rlist
 298 0016 C0F20003 		movt	r3, #:upper16:rlist
 299              		.loc 1 244 0
 300 001a 0120     		movs	r0, #1
 301              		.loc 1 241 0
 302 001c 9B69     		ldr	r3, [r3, #24]
 303              		.loc 1 242 0
 304 001e 1A6C     		ldr	r2, [r3, #64]
 305              		.loc 1 241 0
 306 0020 A360     		str	r3, [r4, #8]
 307              		.loc 1 242 0
 308 0022 E260     		str	r2, [r4, #12]
 309              		.loc 1 243 0
 310 0024 1C64     		str	r4, [r3, #64]
 311              		.loc 1 244 0
 312 0026 10BD     		pop	{r4, pc}
 313              	.LVL29:
 314              	.L25:
 315              		.loc 1 237 0 discriminator 1
 316 0028 40F20000 		movw	r0, #:lower16:.LC4
 317 002c C0F20000 		movt	r0, #:upper16:.LC4
 318 0030 FFF7FEFF 		bl	chDbgPanic
 319              	.LVL30:
 320 0034 E9E7     		b	.L22
 321              		.cfi_endproc
 322              	.LFE4:
 323              		.size	chMtxTryLockS, .-chMtxTryLockS
 324 0036 00BFAFF3 		.section	.text.chMtxTryLock,"ax",%progbits
 324      0080AFF3 
 324      0080
 325              		.align	2
 326              		.p2align 4,,15
 327              		.global	chMtxTryLock
 328              		.thumb
 329              		.thumb_func
 330              		.type	chMtxTryLock, %function
 331              	chMtxTryLock:
 332              	.LFB3:
 333              		.loc 1 206 0
 334              		.cfi_startproc
 335              		@ args = 0, pretend = 0, frame = 0
 336              		@ frame_needed = 0, uses_anonymous_args = 0
 337              	.LVL31:
 338 0000 10B5     		push	{r4, lr}
 339              		.cfi_def_cfa_offset 8
 340              		.cfi_offset 4, -8
ARM GAS  /tmp/ccIk0PxD.s 			page 7


 341              		.cfi_offset 14, -4
 342              		.loc 1 206 0
 343 0002 0446     		mov	r4, r0
 344              		.loc 1 209 0
 345              	@ 209 "../../../os/kernel/src/chmtx.c" 1
 346 0004 FFF7FEFF 		bl      _port_lock
 347              	@ 0 "" 2
 348              		.thumb
 349 0008 FFF7FEFF 		bl	dbg_check_lock
 350              	.LVL32:
 351              		.loc 1 211 0
 352 000c 2046     		mov	r0, r4
 353 000e FFF7FEFF 		bl	chMtxTryLockS
 354              	.LVL33:
 355 0012 0446     		mov	r4, r0
 356              	.LVL34:
 357              		.loc 1 213 0
 358 0014 FFF7FEFF 		bl	dbg_check_unlock
 359              	.LVL35:
 360              	@ 213 "../../../os/kernel/src/chmtx.c" 1
 361 0018 FFF7FEFF 		bl      _port_unlock
 362              	@ 0 "" 2
 363              		.loc 1 215 0
 364              		.thumb
 365 001c 2046     		mov	r0, r4
 366 001e 10BD     		pop	{r4, pc}
 367              		.cfi_endproc
 368              	.LFE3:
 369              		.size	chMtxTryLock, .-chMtxTryLock
 370              		.section	.text.chMtxUnlock,"ax",%progbits
 371              		.align	2
 372              		.p2align 4,,15
 373              		.global	chMtxUnlock
 374              		.thumb
 375              		.thumb_func
 376              		.type	chMtxUnlock, %function
 377              	chMtxUnlock:
 378              	.LFB5:
 379              		.loc 1 257 0
 380              		.cfi_startproc
 381              		@ args = 0, pretend = 0, frame = 0
 382              		@ frame_needed = 0, uses_anonymous_args = 0
 383 0000 38B5     		push	{r3, r4, r5, lr}
 384              		.cfi_def_cfa_offset 16
 385              		.cfi_offset 3, -16
 386              		.cfi_offset 4, -12
 387              		.cfi_offset 5, -8
 388              		.cfi_offset 14, -4
 389              		.loc 1 258 0
 390 0002 40F20003 		movw	r3, #:lower16:rlist
 391 0006 C0F20003 		movt	r3, #:upper16:rlist
 392 000a 9D69     		ldr	r5, [r3, #24]
 393              	.LVL36:
 394              		.loc 1 261 0
 395              	@ 261 "../../../os/kernel/src/chmtx.c" 1
 396 000c FFF7FEFF 		bl      _port_lock
 397              	@ 0 "" 2
ARM GAS  /tmp/ccIk0PxD.s 			page 8


 398              		.thumb
 399 0010 FFF7FEFF 		bl	dbg_check_lock
 400              	.LVL37:
 401              		.loc 1 262 0
 402 0014 2C6C     		ldr	r4, [r5, #64]
 403 0016 002C     		cmp	r4, #0
 404 0018 33D0     		beq	.L42
 405              	.L29:
 406              		.loc 1 265 0
 407 001a A368     		ldr	r3, [r4, #8]
 408 001c AB42     		cmp	r3, r5
 409 001e 06D0     		beq	.L30
 410              		.loc 1 265 0 is_stmt 0 discriminator 1
 411 0020 40F20000 		movw	r0, #:lower16:.LC6
 412 0024 C0F20000 		movt	r0, #:upper16:.LC6
 413 0028 FFF7FEFF 		bl	chDbgPanic
 414              	.LVL38:
 415 002c 2C6C     		ldr	r4, [r5, #64]
 416              	.L30:
 417              	.LVL39:
 418              		.loc 1 273 0 is_stmt 1
 419 002e 2268     		ldr	r2, [r4]
 420              		.loc 1 271 0
 421 0030 E368     		ldr	r3, [r4, #12]
 422              		.loc 1 273 0
 423 0032 A242     		cmp	r2, r4
 424              		.loc 1 271 0
 425 0034 2B64     		str	r3, [r5, #64]
 426              		.loc 1 273 0
 427 0036 1CD0     		beq	.L31
 428              	.LBB4:
 429              		.loc 1 278 0
 430 0038 696C     		ldr	r1, [r5, #68]
 431              	.LVL40:
 432              		.loc 1 280 0
 433 003a 4BB1     		cbz	r3, .L32
 434              	.L34:
 435              		.loc 1 284 0
 436 003c 1A68     		ldr	r2, [r3]
 437 003e 9A42     		cmp	r2, r3
 438 0040 03D0     		beq	.L33
 439              		.loc 1 284 0 is_stmt 0 discriminator 1
 440 0042 9268     		ldr	r2, [r2, #8]
 441 0044 9142     		cmp	r1, r2
 442 0046 38BF     		it	cc
 443 0048 1146     		movcc	r1, r2
 444              	.LVL41:
 445              	.L33:
 446              		.loc 1 286 0 is_stmt 1
 447 004a DB68     		ldr	r3, [r3, #12]
 448              	.LVL42:
 449              		.loc 1 280 0
 450 004c 002B     		cmp	r3, #0
 451 004e F5D1     		bne	.L34
 452              	.L32:
 453              		.loc 1 290 0
 454 0050 A960     		str	r1, [r5, #8]
ARM GAS  /tmp/ccIk0PxD.s 			page 9


 455              		.loc 1 293 0
 456 0052 2046     		mov	r0, r4
 457 0054 FFF7FEFF 		bl	fifo_remove
 458              	.LVL43:
 459              		.loc 1 295 0
 460 0058 026C     		ldr	r2, [r0, #64]
 461              		.loc 1 294 0
 462 005a A060     		str	r0, [r4, #8]
 463              		.loc 1 295 0
 464 005c E260     		str	r2, [r4, #12]
 465              		.loc 1 297 0
 466 005e 0021     		movs	r1, #0
 467              		.loc 1 296 0
 468 0060 0464     		str	r4, [r0, #64]
 469              		.loc 1 297 0
 470 0062 FFF7FEFF 		bl	chSchWakeupS
 471              	.LVL44:
 472              	.LBE4:
 473              		.loc 1 301 0
 474 0066 FFF7FEFF 		bl	dbg_check_unlock
 475              	.LVL45:
 476              	@ 301 "../../../os/kernel/src/chmtx.c" 1
 477 006a FFF7FEFF 		bl      _port_unlock
 478              	@ 0 "" 2
 479              		.loc 1 303 0
 480              		.thumb
 481 006e 2046     		mov	r0, r4
 482 0070 38BD     		pop	{r3, r4, r5, pc}
 483              	.LVL46:
 484              	.L31:
 485              		.loc 1 300 0
 486 0072 0023     		movs	r3, #0
 487 0074 A360     		str	r3, [r4, #8]
 488              		.loc 1 301 0
 489 0076 FFF7FEFF 		bl	dbg_check_unlock
 490              	.LVL47:
 491              	@ 301 "../../../os/kernel/src/chmtx.c" 1
 492 007a FFF7FEFF 		bl      _port_unlock
 493              	@ 0 "" 2
 494              		.loc 1 303 0
 495              		.thumb
 496 007e 2046     		mov	r0, r4
 497 0080 38BD     		pop	{r3, r4, r5, pc}
 498              	.LVL48:
 499              	.L42:
 500              		.loc 1 262 0 discriminator 1
 501 0082 40F20000 		movw	r0, #:lower16:.LC5
 502 0086 C0F20000 		movt	r0, #:upper16:.LC5
 503 008a FFF7FEFF 		bl	chDbgPanic
 504              	.LVL49:
 505 008e 2C6C     		ldr	r4, [r5, #64]
 506 0090 C3E7     		b	.L29
 507              		.cfi_endproc
 508              	.LFE5:
 509              		.size	chMtxUnlock, .-chMtxUnlock
 510 0092 00BFAFF3 		.section	.text.chMtxUnlockS,"ax",%progbits
 510      0080AFF3 
ARM GAS  /tmp/ccIk0PxD.s 			page 10


 510      0080AFF3 
 510      0080
 511              		.align	2
 512              		.p2align 4,,15
 513              		.global	chMtxUnlockS
 514              		.thumb
 515              		.thumb_func
 516              		.type	chMtxUnlockS, %function
 517              	chMtxUnlockS:
 518              	.LFB6:
 519              		.loc 1 317 0
 520              		.cfi_startproc
 521              		@ args = 0, pretend = 0, frame = 0
 522              		@ frame_needed = 0, uses_anonymous_args = 0
 523 0000 38B5     		push	{r3, r4, r5, lr}
 524              		.cfi_def_cfa_offset 16
 525              		.cfi_offset 3, -16
 526              		.cfi_offset 4, -12
 527              		.cfi_offset 5, -8
 528              		.cfi_offset 14, -4
 529              		.loc 1 318 0
 530 0002 40F20003 		movw	r3, #:lower16:rlist
 531 0006 C0F20003 		movt	r3, #:upper16:rlist
 532 000a 9D69     		ldr	r5, [r3, #24]
 533              	.LVL50:
 534              		.loc 1 321 0
 535 000c FFF7FEFF 		bl	chDbgCheckClassS
 536              	.LVL51:
 537              		.loc 1 322 0
 538 0010 2C6C     		ldr	r4, [r5, #64]
 539 0012 002C     		cmp	r4, #0
 540 0014 2AD0     		beq	.L57
 541              	.L44:
 542              		.loc 1 325 0
 543 0016 A368     		ldr	r3, [r4, #8]
 544 0018 AB42     		cmp	r3, r5
 545 001a 06D0     		beq	.L45
 546              		.loc 1 325 0 is_stmt 0 discriminator 1
 547 001c 40F20000 		movw	r0, #:lower16:.LC8
 548 0020 C0F20000 		movt	r0, #:upper16:.LC8
 549 0024 FFF7FEFF 		bl	chDbgPanic
 550              	.LVL52:
 551 0028 2C6C     		ldr	r4, [r5, #64]
 552              	.L45:
 553              	.LVL53:
 554              		.loc 1 334 0 is_stmt 1
 555 002a 2268     		ldr	r2, [r4]
 556              		.loc 1 332 0
 557 002c E368     		ldr	r3, [r4, #12]
 558              		.loc 1 334 0
 559 002e A242     		cmp	r2, r4
 560              		.loc 1 332 0
 561 0030 2B64     		str	r3, [r5, #64]
 562              		.loc 1 334 0
 563 0032 17D0     		beq	.L46
 564              	.LBB5:
 565              		.loc 1 339 0
ARM GAS  /tmp/ccIk0PxD.s 			page 11


 566 0034 696C     		ldr	r1, [r5, #68]
 567              	.LVL54:
 568              		.loc 1 341 0
 569 0036 4BB1     		cbz	r3, .L47
 570              	.L49:
 571              		.loc 1 345 0
 572 0038 1A68     		ldr	r2, [r3]
 573 003a 9A42     		cmp	r2, r3
 574 003c 03D0     		beq	.L48
 575              		.loc 1 345 0 is_stmt 0 discriminator 1
 576 003e 9268     		ldr	r2, [r2, #8]
 577 0040 9142     		cmp	r1, r2
 578 0042 38BF     		it	cc
 579 0044 1146     		movcc	r1, r2
 580              	.LVL55:
 581              	.L48:
 582              		.loc 1 347 0 is_stmt 1
 583 0046 DB68     		ldr	r3, [r3, #12]
 584              	.LVL56:
 585              		.loc 1 341 0
 586 0048 002B     		cmp	r3, #0
 587 004a F5D1     		bne	.L49
 588              	.L47:
 589              		.loc 1 349 0
 590 004c A960     		str	r1, [r5, #8]
 591              		.loc 1 352 0
 592 004e 2046     		mov	r0, r4
 593 0050 FFF7FEFF 		bl	fifo_remove
 594              	.LVL57:
 595              		.loc 1 354 0
 596 0054 026C     		ldr	r2, [r0, #64]
 597              		.loc 1 353 0
 598 0056 A060     		str	r0, [r4, #8]
 599              		.loc 1 354 0
 600 0058 E260     		str	r2, [r4, #12]
 601              		.loc 1 355 0
 602 005a 0464     		str	r4, [r0, #64]
 603              		.loc 1 356 0
 604 005c FFF7FEFF 		bl	chSchReadyI
 605              	.LVL58:
 606              	.LBE5:
 607              		.loc 1 361 0
 608 0060 2046     		mov	r0, r4
 609 0062 38BD     		pop	{r3, r4, r5, pc}
 610              	.LVL59:
 611              	.L46:
 612              		.loc 1 359 0
 613 0064 0023     		movs	r3, #0
 614 0066 A360     		str	r3, [r4, #8]
 615              		.loc 1 361 0
 616 0068 2046     		mov	r0, r4
 617 006a 38BD     		pop	{r3, r4, r5, pc}
 618              	.LVL60:
 619              	.L57:
 620              		.loc 1 322 0 discriminator 1
 621 006c 40F20000 		movw	r0, #:lower16:.LC7
 622 0070 C0F20000 		movt	r0, #:upper16:.LC7
ARM GAS  /tmp/ccIk0PxD.s 			page 12


 623 0074 FFF7FEFF 		bl	chDbgPanic
 624              	.LVL61:
 625 0078 2C6C     		ldr	r4, [r5, #64]
 626 007a CCE7     		b	.L44
 627              		.cfi_endproc
 628              	.LFE6:
 629              		.size	chMtxUnlockS, .-chMtxUnlockS
 630 007c AFF30080 		.section	.text.chMtxUnlockAll,"ax",%progbits
 631              		.align	2
 632              		.p2align 4,,15
 633              		.global	chMtxUnlockAll
 634              		.thumb
 635              		.thumb_func
 636              		.type	chMtxUnlockAll, %function
 637              	chMtxUnlockAll:
 638              	.LFB7:
 639              		.loc 1 374 0
 640              		.cfi_startproc
 641              		@ args = 0, pretend = 0, frame = 0
 642              		@ frame_needed = 0, uses_anonymous_args = 0
 643              		.loc 1 375 0
 644 0000 40F20003 		movw	r3, #:lower16:rlist
 645 0004 C0F20003 		movt	r3, #:upper16:rlist
 646              		.loc 1 374 0
 647 0008 70B5     		push	{r4, r5, r6, lr}
 648              		.cfi_def_cfa_offset 16
 649              		.cfi_offset 4, -16
 650              		.cfi_offset 5, -12
 651              		.cfi_offset 6, -8
 652              		.cfi_offset 14, -4
 653              		.loc 1 375 0
 654 000a 9D69     		ldr	r5, [r3, #24]
 655              	.LVL62:
 656              		.loc 1 377 0
 657              	@ 377 "../../../os/kernel/src/chmtx.c" 1
 658 000c FFF7FEFF 		bl      _port_lock
 659              	@ 0 "" 2
 660              		.thumb
 661 0010 FFF7FEFF 		bl	dbg_check_lock
 662              	.LVL63:
 663              		.loc 1 378 0
 664 0014 2C6C     		ldr	r4, [r5, #64]
 665 0016 BCB1     		cbz	r4, .L59
 666              	.LBB6:
 667              		.loc 1 390 0
 668 0018 0026     		movs	r6, #0
 669              	.L63:
 670              	.LVL64:
 671              		.loc 1 382 0
 672 001a 2268     		ldr	r2, [r4]
 673              		.loc 1 381 0
 674 001c E368     		ldr	r3, [r4, #12]
 675              		.loc 1 382 0
 676 001e A242     		cmp	r2, r4
 677              		.loc 1 381 0
 678 0020 2B64     		str	r3, [r5, #64]
 679              	.LBB7:
ARM GAS  /tmp/ccIk0PxD.s 			page 13


 680              		.loc 1 383 0
 681 0022 2046     		mov	r0, r4
 682              	.LBE7:
 683              		.loc 1 390 0
 684 0024 08BF     		it	eq
 685 0026 A660     		streq	r6, [r4, #8]
 686              		.loc 1 382 0
 687 0028 07D0     		beq	.L61
 688              	.LBB8:
 689              		.loc 1 383 0
 690 002a FFF7FEFF 		bl	fifo_remove
 691              	.LVL65:
 692              		.loc 1 385 0
 693 002e 026C     		ldr	r2, [r0, #64]
 694              		.loc 1 384 0
 695 0030 A060     		str	r0, [r4, #8]
 696              		.loc 1 385 0
 697 0032 E260     		str	r2, [r4, #12]
 698              		.loc 1 386 0
 699 0034 0464     		str	r4, [r0, #64]
 700              		.loc 1 387 0
 701 0036 FFF7FEFF 		bl	chSchReadyI
 702              	.LVL66:
 703              	.L61:
 704              	.LBE8:
 705              	.LBE6:
 706              		.loc 1 391 0
 707 003a 2C6C     		ldr	r4, [r5, #64]
 708              	.LVL67:
 709 003c 002C     		cmp	r4, #0
 710 003e ECD1     		bne	.L63
 711              		.loc 1 392 0
 712 0040 6B6C     		ldr	r3, [r5, #68]
 713 0042 AB60     		str	r3, [r5, #8]
 714              		.loc 1 393 0
 715 0044 FFF7FEFF 		bl	chSchRescheduleS
 716              	.LVL68:
 717              	.L59:
 718              		.loc 1 395 0
 719 0048 FFF7FEFF 		bl	dbg_check_unlock
 720              	.LVL69:
 721              	@ 395 "../../../os/kernel/src/chmtx.c" 1
 722 004c FFF7FEFF 		bl      _port_unlock
 723              	@ 0 "" 2
 724              		.thumb
 725 0050 70BD     		pop	{r4, r5, r6, pc}
 726              		.cfi_endproc
 727              	.LFE7:
 728              		.size	chMtxUnlockAll, .-chMtxUnlockAll
 729 0052 00BFAFF3 		.section	.rodata.str1.4,"aMS",%progbits,1
 729      0080AFF3 
 729      0080AFF3 
 729      0080
 730              		.align	2
 731              	.LC0:
 732 0000 2263684D 		.ascii	"\"chMtxInit\"()\000"
 732      7478496E 
ARM GAS  /tmp/ccIk0PxD.s 			page 14


 732      69742228 
 732      2900
 733 000e 0000     		.space	2
 734              	.LC1:
 735 0010 2263684D 		.ascii	"\"chMtxLockS\"()\000"
 735      74784C6F 
 735      636B5322 
 735      282900
 736 001f 00       		.space	1
 737              	.LC2:
 738 0020 63684D74 		.ascii	"chMtxLockS(), #1\000"
 738      784C6F63 
 738      6B532829 
 738      2C202331 
 738      00
 739 0031 000000   		.space	3
 740              	.LC3:
 741 0034 63684D74 		.ascii	"chMtxLockS(), #2\000"
 741      784C6F63 
 741      6B532829 
 741      2C202332 
 741      00
 742 0045 000000   		.space	3
 743              	.LC4:
 744 0048 2263684D 		.ascii	"\"chMtxTryLockS\"()\000"
 744      74785472 
 744      794C6F63 
 744      6B532228 
 744      2900
 745 005a 0000     		.space	2
 746              	.LC5:
 747 005c 63684D74 		.ascii	"chMtxUnlock(), #1\000"
 747      78556E6C 
 747      6F636B28 
 747      292C2023 
 747      3100
 748 006e 0000     		.space	2
 749              	.LC6:
 750 0070 63684D74 		.ascii	"chMtxUnlock(), #2\000"
 750      78556E6C 
 750      6F636B28 
 750      292C2023 
 750      3200
 751 0082 0000     		.space	2
 752              	.LC7:
 753 0084 63684D74 		.ascii	"chMtxUnlockS(), #1\000"
 753      78556E6C 
 753      6F636B53 
 753      28292C20 
 753      233100
 754 0097 00       		.space	1
 755              	.LC8:
 756 0098 63684D74 		.ascii	"chMtxUnlockS(), #2\000"
 756      78556E6C 
 756      6F636B53 
 756      28292C20 
 756      233200
ARM GAS  /tmp/ccIk0PxD.s 			page 15


 757 00ab 00       		.text
 758              	.Letext0:
 759              		.file 2 "/usr/arm-none-eabi/include/machine/_default_types.h"
 760              		.file 3 "/usr/arm-none-eabi/include/stdint.h"
 761              		.file 4 "../../../os/ports/GCC/ARMCMx/chtypes.h"
 762              		.file 5 "../../../os/kernel/include/chlists.h"
 763              		.file 6 "../../../os/kernel/include/chthreads.h"
 764              		.file 7 "../../../os/ports/GCC/ARMCMx/chcore_v7m.h"
 765              		.file 8 "../../../os/kernel/include/chschd.h"
 766              		.file 9 "../../../os/kernel/include/chmtx.h"
 767              		.file 10 "../../../os/kernel/include/chdebug.h"