ARM GAS  /tmp/cce7lV87.s 			page 1


   1              		.syntax unified
   2              		.cpu cortex-m4
   3              		.fpu softvfp
   4              		.eabi_attribute 20, 1
   5              		.eabi_attribute 21, 1
   6              		.eabi_attribute 23, 3
   7              		.eabi_attribute 24, 1
   8              		.eabi_attribute 25, 1
   9              		.eabi_attribute 26, 1
  10              		.eabi_attribute 30, 2
  11              		.eabi_attribute 34, 1
  12              		.eabi_attribute 18, 4
  13              		.thumb
  14              		.file	"chqueues.c"
  15              		.text
  16              	.Ltext0:
  17              		.cfi_sections	.debug_frame
  18              		.section	.text.qwait,"ax",%progbits
  19              		.align	2
  20              		.p2align 4,,15
  21              		.thumb
  22              		.thumb_func
  23              		.type	qwait, %function
  24              	qwait:
  25              	.LFB0:
  26              		.file 1 "../../../os/kernel/src/chqueues.c"
  27              		.loc 1 70 0
  28              		.cfi_startproc
  29              		@ args = 0, pretend = 0, frame = 0
  30              		@ frame_needed = 0, uses_anonymous_args = 0
  31              	.LVL0:
  32 0000 10B5     		push	{r4, lr}
  33              		.cfi_def_cfa_offset 8
  34              		.cfi_offset 4, -8
  35              		.cfi_offset 14, -4
  36              		.loc 1 72 0
  37 0002 0C46     		mov	r4, r1
  38 0004 79B1     		cbz	r1, .L2
  39              		.loc 1 74 0
  40 0006 40F20003 		movw	r3, #:lower16:rlist
  41 000a C0F20003 		movt	r3, #:upper16:rlist
  42              		.loc 1 75 0
  43 000e 0146     		mov	r1, r0
  44              	.LVL1:
  45              		.loc 1 74 0
  46 0010 9B69     		ldr	r3, [r3, #24]
  47 0012 9862     		str	r0, [r3, #40]
  48              		.loc 1 75 0
  49 0014 1846     		mov	r0, r3
  50              	.LVL2:
  51 0016 FFF7FEFF 		bl	queue_insert
  52              	.LVL3:
  53              		.loc 1 76 0
  54 001a 2146     		mov	r1, r4
  55 001c 0D20     		movs	r0, #13
  56              		.loc 1 77 0
  57 001e BDE81040 		pop	{r4, lr}
ARM GAS  /tmp/cce7lV87.s 			page 2


  58              	.LVL4:
  59              		.loc 1 76 0
  60 0022 FFF7FEBF 		b	chSchGoSleepTimeoutS
  61              	.LVL5:
  62              	.L2:
  63              		.loc 1 77 0
  64 0026 4FF0FF30 		mov	r0, #-1
  65              	.LVL6:
  66 002a 10BD     		pop	{r4, pc}
  67              		.cfi_endproc
  68              	.LFE0:
  69              		.size	qwait, .-qwait
  70 002c AFF30080 		.section	.text.chIQInit,"ax",%progbits
  71              		.align	2
  72              		.p2align 4,,15
  73              		.global	chIQInit
  74              		.thumb
  75              		.thumb_func
  76              		.type	chIQInit, %function
  77              	chIQInit:
  78              	.LFB1:
  79              		.loc 1 96 0
  80              		.cfi_startproc
  81              		@ args = 4, pretend = 0, frame = 0
  82              		@ frame_needed = 0, uses_anonymous_args = 0
  83              		@ link register save eliminated.
  84              	.LVL7:
  85 0000 30B4     		push	{r4, r5}
  86              		.cfi_def_cfa_offset 8
  87              		.cfi_offset 4, -8
  88              		.cfi_offset 5, -4
  89              		.loc 1 96 0
  90 0002 029C     		ldr	r4, [sp, #8]
  91              		.loc 1 98 0
  92 0004 4060     		str	r0, [r0, #4]
  93              		.loc 1 99 0
  94 0006 0025     		movs	r5, #0
  95              		.loc 1 101 0
  96 0008 0A44     		add	r2, r2, r1
  97              	.LVL8:
  98              		.loc 1 99 0
  99 000a 8560     		str	r5, [r0, #8]
 100              		.loc 1 103 0
 101 000c 0462     		str	r4, [r0, #32]
 102              		.loc 1 101 0
 103 000e 0261     		str	r2, [r0, #16]
 104              		.loc 1 98 0
 105 0010 0060     		str	r0, [r0]
 106              		.loc 1 100 0
 107 0012 4161     		str	r1, [r0, #20]
 108 0014 8161     		str	r1, [r0, #24]
 109 0016 C160     		str	r1, [r0, #12]
 110              		.loc 1 102 0
 111 0018 C361     		str	r3, [r0, #28]
 112              		.loc 1 104 0
 113 001a 30BC     		pop	{r4, r5}
 114              	.LVL9:
ARM GAS  /tmp/cce7lV87.s 			page 3


 115 001c 7047     		bx	lr
 116              		.cfi_endproc
 117              	.LFE1:
 118              		.size	chIQInit, .-chIQInit
 119 001e 00BF     		.section	.text.chIQResetI,"ax",%progbits
 120              		.align	2
 121              		.p2align 4,,15
 122              		.global	chIQResetI
 123              		.thumb
 124              		.thumb_func
 125              		.type	chIQResetI, %function
 126              	chIQResetI:
 127              	.LFB2:
 128              		.loc 1 117 0
 129              		.cfi_startproc
 130              		@ args = 0, pretend = 0, frame = 0
 131              		@ frame_needed = 0, uses_anonymous_args = 0
 132              	.LVL10:
 133 0000 38B5     		push	{r3, r4, r5, lr}
 134              		.cfi_def_cfa_offset 16
 135              		.cfi_offset 3, -16
 136              		.cfi_offset 4, -12
 137              		.cfi_offset 5, -8
 138              		.cfi_offset 14, -4
 139              		.loc 1 117 0
 140 0002 0446     		mov	r4, r0
 141              		.loc 1 119 0
 142 0004 FFF7FEFF 		bl	chDbgCheckClassI
 143              	.LVL11:
 144              		.loc 1 123 0
 145 0008 2268     		ldr	r2, [r4]
 146              		.loc 1 121 0
 147 000a E368     		ldr	r3, [r4, #12]
 148              		.loc 1 122 0
 149 000c 0021     		movs	r1, #0
 150              		.loc 1 123 0
 151 000e A242     		cmp	r2, r4
 152              		.loc 1 121 0
 153 0010 6361     		str	r3, [r4, #20]
 154              		.loc 1 122 0
 155 0012 A160     		str	r1, [r4, #8]
 156              		.loc 1 121 0
 157 0014 A361     		str	r3, [r4, #24]
 158              		.loc 1 123 0
 159 0016 0AD0     		beq	.L5
 160              		.loc 1 124 0
 161 0018 6FF00105 		mvn	r5, #1
 162              	.L8:
 163 001c 2046     		mov	r0, r4
 164 001e FFF7FEFF 		bl	fifo_remove
 165              	.LVL12:
 166 0022 FFF7FEFF 		bl	chSchReadyI
 167              	.LVL13:
 168 0026 8562     		str	r5, [r0, #40]
 169              		.loc 1 123 0
 170 0028 2368     		ldr	r3, [r4]
 171 002a A342     		cmp	r3, r4
ARM GAS  /tmp/cce7lV87.s 			page 4


 172 002c F6D1     		bne	.L8
 173              	.L5:
 174 002e 38BD     		pop	{r3, r4, r5, pc}
 175              		.cfi_endproc
 176              	.LFE2:
 177              		.size	chIQResetI, .-chIQResetI
 178              		.section	.text.chIQPutI,"ax",%progbits
 179              		.align	2
 180              		.p2align 4,,15
 181              		.global	chIQPutI
 182              		.thumb
 183              		.thumb_func
 184              		.type	chIQPutI, %function
 185              	chIQPutI:
 186              	.LFB3:
 187              		.loc 1 140 0
 188              		.cfi_startproc
 189              		@ args = 0, pretend = 0, frame = 0
 190              		@ frame_needed = 0, uses_anonymous_args = 0
 191              	.LVL14:
 192 0000 38B5     		push	{r3, r4, r5, lr}
 193              		.cfi_def_cfa_offset 16
 194              		.cfi_offset 3, -16
 195              		.cfi_offset 4, -12
 196              		.cfi_offset 5, -8
 197              		.cfi_offset 14, -4
 198              		.loc 1 140 0
 199 0002 0446     		mov	r4, r0
 200 0004 0D46     		mov	r5, r1
 201              		.loc 1 142 0
 202 0006 FFF7FEFF 		bl	chDbgCheckClassI
 203              	.LVL15:
 204              		.loc 1 144 0
 205 000a 6369     		ldr	r3, [r4, #20]
 206 000c A269     		ldr	r2, [r4, #24]
 207 000e A168     		ldr	r1, [r4, #8]
 208 0010 9342     		cmp	r3, r2
 209 0012 1BD0     		beq	.L18
 210              	.L12:
 211              		.loc 1 148 0
 212 0014 5A1C     		adds	r2, r3, #1
 213              		.loc 1 147 0
 214 0016 0131     		adds	r1, r1, #1
 215              		.loc 1 148 0
 216 0018 6261     		str	r2, [r4, #20]
 217              		.loc 1 147 0
 218 001a A160     		str	r1, [r4, #8]
 219              		.loc 1 148 0
 220 001c 1D70     		strb	r5, [r3]
 221              		.loc 1 149 0
 222 001e 6269     		ldr	r2, [r4, #20]
 223 0020 2369     		ldr	r3, [r4, #16]
 224 0022 9A42     		cmp	r2, r3
 225 0024 0BD2     		bcs	.L13
 226              		.loc 1 152 0
 227 0026 2368     		ldr	r3, [r4]
 228 0028 A342     		cmp	r3, r4
ARM GAS  /tmp/cce7lV87.s 			page 5


 229 002a 0DD0     		beq	.L16
 230              	.L19:
 231              		.loc 1 153 0
 232 002c 2046     		mov	r0, r4
 233 002e FFF7FEFF 		bl	fifo_remove
 234              	.LVL16:
 235 0032 FFF7FEFF 		bl	chSchReadyI
 236              	.LVL17:
 237 0036 0023     		movs	r3, #0
 238 0038 8362     		str	r3, [r0, #40]
 239              		.loc 1 155 0
 240 003a 1846     		mov	r0, r3
 241 003c 38BD     		pop	{r3, r4, r5, pc}
 242              	.LVL18:
 243              	.L13:
 244              		.loc 1 150 0
 245 003e E368     		ldr	r3, [r4, #12]
 246 0040 6361     		str	r3, [r4, #20]
 247              		.loc 1 152 0
 248 0042 2368     		ldr	r3, [r4]
 249 0044 A342     		cmp	r3, r4
 250 0046 F1D1     		bne	.L19
 251              	.L16:
 252              		.loc 1 155 0
 253 0048 0020     		movs	r0, #0
 254 004a 38BD     		pop	{r3, r4, r5, pc}
 255              	.LVL19:
 256              	.L18:
 257              		.loc 1 144 0 discriminator 1
 258 004c 0029     		cmp	r1, #0
 259 004e E1D0     		beq	.L12
 260              		.loc 1 145 0
 261 0050 6FF00300 		mvn	r0, #3
 262 0054 38BD     		pop	{r3, r4, r5, pc}
 263              		.cfi_endproc
 264              	.LFE3:
 265              		.size	chIQPutI, .-chIQPutI
 266 0056 00BFAFF3 		.section	.text.chIQGetTimeout,"ax",%progbits
 266      0080AFF3 
 266      0080
 267              		.align	2
 268              		.p2align 4,,15
 269              		.global	chIQGetTimeout
 270              		.thumb
 271              		.thumb_func
 272              		.type	chIQGetTimeout, %function
 273              	chIQGetTimeout:
 274              	.LFB4:
 275              		.loc 1 178 0
 276              		.cfi_startproc
 277              		@ args = 0, pretend = 0, frame = 0
 278              		@ frame_needed = 0, uses_anonymous_args = 0
 279              	.LVL20:
 280 0000 70B5     		push	{r4, r5, r6, lr}
 281              		.cfi_def_cfa_offset 16
 282              		.cfi_offset 4, -16
 283              		.cfi_offset 5, -12
ARM GAS  /tmp/cce7lV87.s 			page 6


 284              		.cfi_offset 6, -8
 285              		.cfi_offset 14, -4
 286              		.loc 1 178 0
 287 0002 0446     		mov	r4, r0
 288 0004 0D46     		mov	r5, r1
 289              		.loc 1 181 0
 290              	@ 181 "../../../os/kernel/src/chqueues.c" 1
 291 0006 FFF7FEFF 		bl      _port_lock
 292              	@ 0 "" 2
 293              		.thumb
 294 000a FFF7FEFF 		bl	dbg_check_lock
 295              	.LVL21:
 296              		.loc 1 182 0
 297 000e E369     		ldr	r3, [r4, #28]
 298 0010 33B1     		cbz	r3, .L23
 299              		.loc 1 183 0
 300 0012 2046     		mov	r0, r4
 301 0014 9847     		blx	r3
 302              	.LVL22:
 303 0016 03E0     		b	.L23
 304              	.LVL23:
 305              	.L25:
 306              	.LBB2:
 307              		.loc 1 187 0
 308 0018 FFF7FEFF 		bl	qwait
 309              	.LVL24:
 310 001c 061E     		subs	r6, r0, #0
 311 001e 10DB     		blt	.L26
 312              	.LVL25:
 313              	.L23:
 314              	.LBE2:
 315              		.loc 1 185 0 discriminator 1
 316 0020 A368     		ldr	r3, [r4, #8]
 317              	.LBB3:
 318              		.loc 1 187 0 discriminator 1
 319 0022 2046     		mov	r0, r4
 320 0024 2946     		mov	r1, r5
 321              	.LBE3:
 322              		.loc 1 185 0 discriminator 1
 323 0026 002B     		cmp	r3, #0
 324 0028 F6D0     		beq	.L25
 325              	.LVL26:
 326              		.loc 1 194 0
 327 002a A169     		ldr	r1, [r4, #24]
 328              	.LVL27:
 329              		.loc 1 195 0
 330 002c 2569     		ldr	r5, [r4, #16]
 331              	.LVL28:
 332              		.loc 1 194 0
 333 002e 4A1C     		adds	r2, r1, #1
 334              		.loc 1 193 0
 335 0030 013B     		subs	r3, r3, #1
 336              		.loc 1 195 0
 337 0032 AA42     		cmp	r2, r5
 338              		.loc 1 193 0
 339 0034 A360     		str	r3, [r4, #8]
 340              		.loc 1 196 0
ARM GAS  /tmp/cce7lV87.s 			page 7


 341 0036 28BF     		it	cs
 342 0038 E368     		ldrcs	r3, [r4, #12]
 343              		.loc 1 194 0
 344 003a A261     		str	r2, [r4, #24]
 345 003c 0E78     		ldrb	r6, [r1]	@ zero_extendqisi2
 346              	.LVL29:
 347              		.loc 1 196 0
 348 003e 28BF     		it	cs
 349 0040 A361     		strcs	r3, [r4, #24]
 350              	.LVL30:
 351              	.L26:
 352              		.loc 1 198 0
 353 0042 FFF7FEFF 		bl	dbg_check_unlock
 354              	.LVL31:
 355              	@ 198 "../../../os/kernel/src/chqueues.c" 1
 356 0046 FFF7FEFF 		bl      _port_unlock
 357              	@ 0 "" 2
 358              		.loc 1 199 0
 359              		.thumb
 360 004a 3046     		mov	r0, r6
 361              		.loc 1 200 0
 362 004c 70BD     		pop	{r4, r5, r6, pc}
 363              		.cfi_endproc
 364              	.LFE4:
 365              		.size	chIQGetTimeout, .-chIQGetTimeout
 366 004e 00BF     		.section	.text.chIQReadTimeout,"ax",%progbits
 367              		.align	2
 368              		.p2align 4,,15
 369              		.global	chIQReadTimeout
 370              		.thumb
 371              		.thumb_func
 372              		.type	chIQReadTimeout, %function
 373              	chIQReadTimeout:
 374              	.LFB5:
 375              		.loc 1 227 0
 376              		.cfi_startproc
 377              		@ args = 0, pretend = 0, frame = 0
 378              		@ frame_needed = 0, uses_anonymous_args = 0
 379              	.LVL32:
 380 0000 2DE9F047 		push	{r4, r5, r6, r7, r8, r9, r10, lr}
 381              		.cfi_def_cfa_offset 32
 382              		.cfi_offset 4, -32
 383              		.cfi_offset 5, -28
 384              		.cfi_offset 6, -24
 385              		.cfi_offset 7, -20
 386              		.cfi_offset 8, -16
 387              		.cfi_offset 9, -12
 388              		.cfi_offset 10, -8
 389              		.cfi_offset 14, -4
 390              		.loc 1 227 0
 391 0004 0446     		mov	r4, r0
 392              		.loc 1 231 0
 393 0006 1546     		mov	r5, r2
 394              		.loc 1 227 0
 395 0008 0F46     		mov	r7, r1
 396 000a 1E46     		mov	r6, r3
 397              		.loc 1 228 0
ARM GAS  /tmp/cce7lV87.s 			page 8


 398 000c D0F81C80 		ldr	r8, [r0, #28]
 399              	.LVL33:
 400              		.loc 1 231 0
 401 0010 002A     		cmp	r2, #0
 402 0012 39D0     		beq	.L42
 403              	.LVL34:
 404              	.L31:
 405              		.loc 1 233 0
 406              	@ 233 "../../../os/kernel/src/chqueues.c" 1
 407 0014 FFF7FEFF 		bl      _port_lock
 408              	@ 0 "" 2
 409              		.thumb
 410 0018 FFF7FEFF 		bl	dbg_check_lock
 411              	.LVL35:
 412 001c 07EB050A 		add	r10, r7, r5
 413              		.loc 1 229 0
 414 0020 4FF00009 		mov	r9, #0
 415 0024 0137     		adds	r7, r7, #1
 416              	.LVL36:
 417              	.L38:
 418              		.loc 1 235 0
 419 0026 B8F1000F 		cmp	r8, #0
 420 002a 05D0     		beq	.L34
 421              		.loc 1 236 0
 422 002c 2046     		mov	r0, r4
 423 002e C047     		blx	r8
 424              	.LVL37:
 425 0030 02E0     		b	.L34
 426              	.LVL38:
 427              	.L36:
 428              		.loc 1 239 0
 429 0032 FFF7FEFF 		bl	qwait
 430              	.LVL39:
 431 0036 00BB     		cbnz	r0, .L43
 432              	.L34:
 433              		.loc 1 238 0 discriminator 1
 434 0038 A568     		ldr	r5, [r4, #8]
 435              		.loc 1 239 0 discriminator 1
 436 003a 2046     		mov	r0, r4
 437 003c 3146     		mov	r1, r6
 438              		.loc 1 238 0 discriminator 1
 439 003e 002D     		cmp	r5, #0
 440 0040 F7D0     		beq	.L36
 441              	.LVL40:
 442              		.loc 1 246 0
 443 0042 A369     		ldr	r3, [r4, #24]
 444              		.loc 1 245 0
 445 0044 013D     		subs	r5, r5, #1
 446              		.loc 1 246 0
 447 0046 5A1C     		adds	r2, r3, #1
 448 0048 A261     		str	r2, [r4, #24]
 449              		.loc 1 245 0
 450 004a A560     		str	r5, [r4, #8]
 451              	.LVL41:
 452              		.loc 1 246 0
 453 004c 1B78     		ldrb	r3, [r3]	@ zero_extendqisi2
 454 004e 07F8013C 		strb	r3, [r7, #-1]
ARM GAS  /tmp/cce7lV87.s 			page 9


 455              		.loc 1 247 0
 456 0052 2369     		ldr	r3, [r4, #16]
 457 0054 A269     		ldr	r2, [r4, #24]
 458 0056 9A42     		cmp	r2, r3
 459              		.loc 1 248 0
 460 0058 24BF     		itt	cs
 461 005a E368     		ldrcs	r3, [r4, #12]
 462 005c A361     		strcs	r3, [r4, #24]
 463              		.loc 1 250 0
 464 005e FFF7FEFF 		bl	dbg_check_unlock
 465              	.LVL42:
 466              	@ 250 "../../../os/kernel/src/chqueues.c" 1
 467 0062 FFF7FEFF 		bl      _port_unlock
 468              	@ 0 "" 2
 469              		.loc 1 252 0
 470              		.thumb
 471 0066 5745     		cmp	r7, r10
 472              		.loc 1 251 0
 473 0068 09F10109 		add	r9, r9, #1
 474              	.LVL43:
 475              		.loc 1 252 0
 476 006c 09D0     		beq	.L35
 477              		.loc 1 255 0
 478              	@ 255 "../../../os/kernel/src/chqueues.c" 1
 479 006e FFF7FEFF 		bl      _port_lock
 480              	@ 0 "" 2
 481              		.thumb
 482 0072 FFF7FEFF 		bl	dbg_check_lock
 483              	.LVL44:
 484 0076 0137     		adds	r7, r7, #1
 485              		.loc 1 256 0
 486 0078 D5E7     		b	.L38
 487              	.LVL45:
 488              	.L43:
 489              		.loc 1 240 0
 490 007a FFF7FEFF 		bl	dbg_check_unlock
 491              	.LVL46:
 492              	@ 240 "../../../os/kernel/src/chqueues.c" 1
 493 007e FFF7FEFF 		bl      _port_unlock
 494              	@ 0 "" 2
 495              	.LVL47:
 496              		.thumb
 497              	.L35:
 498              		.loc 1 257 0
 499 0082 4846     		mov	r0, r9
 500 0084 BDE8F087 		pop	{r4, r5, r6, r7, r8, r9, r10, pc}
 501              	.LVL48:
 502              	.L42:
 503              		.loc 1 231 0 discriminator 1
 504 0088 40F20000 		movw	r0, #:lower16:.LC0
 505              	.LVL49:
 506 008c C0F20000 		movt	r0, #:upper16:.LC0
 507 0090 FFF7FEFF 		bl	chDbgPanic
 508              	.LVL50:
 509 0094 BEE7     		b	.L31
 510              		.cfi_endproc
 511              	.LFE5:
ARM GAS  /tmp/cce7lV87.s 			page 10


 512              		.size	chIQReadTimeout, .-chIQReadTimeout
 513 0096 00BFAFF3 		.section	.text.chOQInit,"ax",%progbits
 513      0080AFF3 
 513      0080
 514              		.align	2
 515              		.p2align 4,,15
 516              		.global	chOQInit
 517              		.thumb
 518              		.thumb_func
 519              		.type	chOQInit, %function
 520              	chOQInit:
 521              	.LFB6:
 522              		.loc 1 276 0
 523              		.cfi_startproc
 524              		@ args = 4, pretend = 0, frame = 0
 525              		@ frame_needed = 0, uses_anonymous_args = 0
 526              		@ link register save eliminated.
 527              	.LVL51:
 528 0000 30B4     		push	{r4, r5}
 529              		.cfi_def_cfa_offset 8
 530              		.cfi_offset 4, -8
 531              		.cfi_offset 5, -4
 532              		.loc 1 276 0
 533 0002 029C     		ldr	r4, [sp, #8]
 534              		.loc 1 278 0
 535 0004 4060     		str	r0, [r0, #4]
 536              		.loc 1 281 0
 537 0006 8D18     		adds	r5, r1, r2
 538 0008 0561     		str	r5, [r0, #16]
 539              		.loc 1 283 0
 540 000a 0462     		str	r4, [r0, #32]
 541              		.loc 1 278 0
 542 000c 0060     		str	r0, [r0]
 543              		.loc 1 279 0
 544 000e 8260     		str	r2, [r0, #8]
 545              		.loc 1 280 0
 546 0010 4161     		str	r1, [r0, #20]
 547 0012 8161     		str	r1, [r0, #24]
 548 0014 C160     		str	r1, [r0, #12]
 549              		.loc 1 282 0
 550 0016 C361     		str	r3, [r0, #28]
 551              		.loc 1 284 0
 552 0018 30BC     		pop	{r4, r5}
 553              	.LVL52:
 554 001a 7047     		bx	lr
 555              		.cfi_endproc
 556              	.LFE6:
 557              		.size	chOQInit, .-chOQInit
 558              		.section	.text.chOQResetI,"ax",%progbits
 559              		.align	2
 560              		.p2align 4,,15
 561              		.global	chOQResetI
 562              		.thumb
 563              		.thumb_func
 564              		.type	chOQResetI, %function
 565              	chOQResetI:
 566              	.LFB7:
ARM GAS  /tmp/cce7lV87.s 			page 11


 567              		.loc 1 297 0
 568              		.cfi_startproc
 569              		@ args = 0, pretend = 0, frame = 0
 570              		@ frame_needed = 0, uses_anonymous_args = 0
 571              	.LVL53:
 572 0000 38B5     		push	{r3, r4, r5, lr}
 573              		.cfi_def_cfa_offset 16
 574              		.cfi_offset 3, -16
 575              		.cfi_offset 4, -12
 576              		.cfi_offset 5, -8
 577              		.cfi_offset 14, -4
 578              		.loc 1 297 0
 579 0002 0446     		mov	r4, r0
 580              		.loc 1 299 0
 581 0004 FFF7FEFF 		bl	chDbgCheckClassI
 582              	.LVL54:
 583              		.loc 1 301 0
 584 0008 E368     		ldr	r3, [r4, #12]
 585              		.loc 1 302 0
 586 000a 2169     		ldr	r1, [r4, #16]
 587              		.loc 1 303 0
 588 000c 2268     		ldr	r2, [r4]
 589              		.loc 1 301 0
 590 000e 6361     		str	r3, [r4, #20]
 591              		.loc 1 302 0
 592 0010 C91A     		subs	r1, r1, r3
 593              		.loc 1 303 0
 594 0012 A242     		cmp	r2, r4
 595              		.loc 1 301 0
 596 0014 A361     		str	r3, [r4, #24]
 597              		.loc 1 302 0
 598 0016 A160     		str	r1, [r4, #8]
 599              		.loc 1 303 0
 600 0018 0AD0     		beq	.L45
 601              		.loc 1 304 0
 602 001a 6FF00105 		mvn	r5, #1
 603              	.L48:
 604 001e 2046     		mov	r0, r4
 605 0020 FFF7FEFF 		bl	fifo_remove
 606              	.LVL55:
 607 0024 FFF7FEFF 		bl	chSchReadyI
 608              	.LVL56:
 609 0028 8562     		str	r5, [r0, #40]
 610              		.loc 1 303 0
 611 002a 2368     		ldr	r3, [r4]
 612 002c A342     		cmp	r3, r4
 613 002e F6D1     		bne	.L48
 614              	.L45:
 615 0030 38BD     		pop	{r3, r4, r5, pc}
 616              		.cfi_endproc
 617              	.LFE7:
 618              		.size	chOQResetI, .-chOQResetI
 619 0032 00BFAFF3 		.section	.text.chOQPutTimeout,"ax",%progbits
 619      0080AFF3 
 619      0080AFF3 
 619      0080
 620              		.align	2
ARM GAS  /tmp/cce7lV87.s 			page 12


 621              		.p2align 4,,15
 622              		.global	chOQPutTimeout
 623              		.thumb
 624              		.thumb_func
 625              		.type	chOQPutTimeout, %function
 626              	chOQPutTimeout:
 627              	.LFB8:
 628              		.loc 1 329 0
 629              		.cfi_startproc
 630              		@ args = 0, pretend = 0, frame = 0
 631              		@ frame_needed = 0, uses_anonymous_args = 0
 632              	.LVL57:
 633 0000 F8B5     		push	{r3, r4, r5, r6, r7, lr}
 634              		.cfi_def_cfa_offset 24
 635              		.cfi_offset 3, -24
 636              		.cfi_offset 4, -20
 637              		.cfi_offset 5, -16
 638              		.cfi_offset 6, -12
 639              		.cfi_offset 7, -8
 640              		.cfi_offset 14, -4
 641              		.loc 1 329 0
 642 0002 0446     		mov	r4, r0
 643 0004 0F46     		mov	r7, r1
 644 0006 1546     		mov	r5, r2
 645              		.loc 1 331 0
 646              	@ 331 "../../../os/kernel/src/chqueues.c" 1
 647 0008 FFF7FEFF 		bl      _port_lock
 648              	@ 0 "" 2
 649              		.thumb
 650 000c FFF7FEFF 		bl	dbg_check_lock
 651              	.LVL58:
 652              		.loc 1 332 0
 653 0010 03E0     		b	.L50
 654              	.LVL59:
 655              	.L53:
 656              	.LBB4:
 657              		.loc 1 335 0
 658 0012 FFF7FEFF 		bl	qwait
 659              	.LVL60:
 660 0016 061E     		subs	r6, r0, #0
 661 0018 1ADB     		blt	.L59
 662              	.LVL61:
 663              	.L50:
 664              	.LBE4:
 665              		.loc 1 332 0 discriminator 1
 666 001a A368     		ldr	r3, [r4, #8]
 667              	.LBB5:
 668              		.loc 1 335 0 discriminator 1
 669 001c 2046     		mov	r0, r4
 670 001e 2946     		mov	r1, r5
 671              	.LBE5:
 672              		.loc 1 332 0 discriminator 1
 673 0020 002B     		cmp	r3, #0
 674 0022 F6D0     		beq	.L53
 675              	.LVL62:
 676              		.loc 1 342 0
 677 0024 6269     		ldr	r2, [r4, #20]
ARM GAS  /tmp/cce7lV87.s 			page 13


 678              		.loc 1 341 0
 679 0026 013B     		subs	r3, r3, #1
 680              		.loc 1 342 0
 681 0028 511C     		adds	r1, r2, #1
 682              	.LVL63:
 683 002a 6161     		str	r1, [r4, #20]
 684              		.loc 1 341 0
 685 002c A360     		str	r3, [r4, #8]
 686              		.loc 1 342 0
 687 002e 1770     		strb	r7, [r2]
 688              		.loc 1 343 0
 689 0030 2369     		ldr	r3, [r4, #16]
 690 0032 6269     		ldr	r2, [r4, #20]
 691 0034 9A42     		cmp	r2, r3
 692              		.loc 1 344 0
 693 0036 24BF     		itt	cs
 694 0038 E368     		ldrcs	r3, [r4, #12]
 695 003a 6361     		strcs	r3, [r4, #20]
 696              		.loc 1 346 0
 697 003c E369     		ldr	r3, [r4, #28]
 698 003e 0BB1     		cbz	r3, .L55
 699              		.loc 1 347 0
 700 0040 2046     		mov	r0, r4
 701              	.LVL64:
 702 0042 9847     		blx	r3
 703              	.LVL65:
 704              	.L55:
 705              		.loc 1 349 0
 706 0044 FFF7FEFF 		bl	dbg_check_unlock
 707              	.LVL66:
 708              	@ 349 "../../../os/kernel/src/chqueues.c" 1
 709 0048 FFF7FEFF 		bl      _port_unlock
 710              	@ 0 "" 2
 711              		.loc 1 350 0
 712              		.thumb
 713 004c 0020     		movs	r0, #0
 714              		.loc 1 351 0
 715 004e F8BD     		pop	{r3, r4, r5, r6, r7, pc}
 716              	.LVL67:
 717              	.L59:
 718              	.LBB6:
 719              		.loc 1 336 0
 720 0050 FFF7FEFF 		bl	dbg_check_unlock
 721              	.LVL68:
 722              	@ 336 "../../../os/kernel/src/chqueues.c" 1
 723 0054 FFF7FEFF 		bl      _port_unlock
 724              	@ 0 "" 2
 725              		.loc 1 335 0
 726              		.thumb
 727 0058 3046     		mov	r0, r6
 728              		.loc 1 337 0
 729 005a F8BD     		pop	{r3, r4, r5, r6, r7, pc}
 730              	.LBE6:
 731              		.cfi_endproc
 732              	.LFE8:
 733              		.size	chOQPutTimeout, .-chOQPutTimeout
 734 005c AFF30080 		.section	.text.chOQGetI,"ax",%progbits
ARM GAS  /tmp/cce7lV87.s 			page 14


 735              		.align	2
 736              		.p2align 4,,15
 737              		.global	chOQGetI
 738              		.thumb
 739              		.thumb_func
 740              		.type	chOQGetI, %function
 741              	chOQGetI:
 742              	.LFB9:
 743              		.loc 1 363 0
 744              		.cfi_startproc
 745              		@ args = 0, pretend = 0, frame = 0
 746              		@ frame_needed = 0, uses_anonymous_args = 0
 747              	.LVL69:
 748 0000 38B5     		push	{r3, r4, r5, lr}
 749              		.cfi_def_cfa_offset 16
 750              		.cfi_offset 3, -16
 751              		.cfi_offset 4, -12
 752              		.cfi_offset 5, -8
 753              		.cfi_offset 14, -4
 754              		.loc 1 363 0
 755 0002 0446     		mov	r4, r0
 756              		.loc 1 366 0
 757 0004 FFF7FEFF 		bl	chDbgCheckClassI
 758              	.LVL70:
 759              		.loc 1 368 0
 760 0008 A369     		ldr	r3, [r4, #24]
 761 000a 6269     		ldr	r2, [r4, #20]
 762 000c A068     		ldr	r0, [r4, #8]
 763 000e 9A42     		cmp	r2, r3
 764 0010 16D0     		beq	.L69
 765              	.L63:
 766              		.loc 1 373 0
 767 0012 2169     		ldr	r1, [r4, #16]
 768              		.loc 1 372 0
 769 0014 5A1C     		adds	r2, r3, #1
 770              		.loc 1 371 0
 771 0016 0130     		adds	r0, r0, #1
 772 0018 A060     		str	r0, [r4, #8]
 773              		.loc 1 372 0
 774 001a A261     		str	r2, [r4, #24]
 775              		.loc 1 373 0
 776 001c 8A42     		cmp	r2, r1
 777              		.loc 1 372 0
 778 001e 1D78     		ldrb	r5, [r3]	@ zero_extendqisi2
 779              	.LVL71:
 780              		.loc 1 373 0
 781 0020 0BD2     		bcs	.L65
 782              	.LVL72:
 783              	.L66:
 784              		.loc 1 376 0
 785 0022 2368     		ldr	r3, [r4]
 786 0024 A342     		cmp	r3, r4
 787 0026 06D0     		beq	.L64
 788              		.loc 1 377 0
 789 0028 2046     		mov	r0, r4
 790 002a FFF7FEFF 		bl	fifo_remove
 791              	.LVL73:
ARM GAS  /tmp/cce7lV87.s 			page 15


 792 002e FFF7FEFF 		bl	chSchReadyI
 793              	.LVL74:
 794 0032 0023     		movs	r3, #0
 795 0034 8362     		str	r3, [r0, #40]
 796              	.L64:
 797              		.loc 1 379 0
 798 0036 2846     		mov	r0, r5
 799 0038 38BD     		pop	{r3, r4, r5, pc}
 800              	.LVL75:
 801              	.L65:
 802              		.loc 1 374 0
 803 003a E368     		ldr	r3, [r4, #12]
 804              	.LVL76:
 805 003c A361     		str	r3, [r4, #24]
 806              	.LVL77:
 807 003e F0E7     		b	.L66
 808              	.LVL78:
 809              	.L69:
 810              		.loc 1 368 0 discriminator 1
 811 0040 0028     		cmp	r0, #0
 812 0042 E6D0     		beq	.L63
 813              		.loc 1 369 0
 814 0044 6FF00200 		mvn	r0, #2
 815 0048 38BD     		pop	{r3, r4, r5, pc}
 816              		.cfi_endproc
 817              	.LFE9:
 818              		.size	chOQGetI, .-chOQGetI
 819 004a 00BFAFF3 		.section	.text.chOQWriteTimeout,"ax",%progbits
 819      0080
 820              		.align	2
 821              		.p2align 4,,15
 822              		.global	chOQWriteTimeout
 823              		.thumb
 824              		.thumb_func
 825              		.type	chOQWriteTimeout, %function
 826              	chOQWriteTimeout:
 827              	.LFB10:
 828              		.loc 1 407 0
 829              		.cfi_startproc
 830              		@ args = 0, pretend = 0, frame = 0
 831              		@ frame_needed = 0, uses_anonymous_args = 0
 832              	.LVL79:
 833 0000 2DE9F84F 		push	{r3, r4, r5, r6, r7, r8, r9, r10, fp, lr}
 834              		.cfi_def_cfa_offset 40
 835              		.cfi_offset 3, -40
 836              		.cfi_offset 4, -36
 837              		.cfi_offset 5, -32
 838              		.cfi_offset 6, -28
 839              		.cfi_offset 7, -24
 840              		.cfi_offset 8, -20
 841              		.cfi_offset 9, -16
 842              		.cfi_offset 10, -12
 843              		.cfi_offset 11, -8
 844              		.cfi_offset 14, -4
 845              		.loc 1 407 0
 846 0004 0446     		mov	r4, r0
 847              		.loc 1 411 0
ARM GAS  /tmp/cce7lV87.s 			page 16


 848 0006 1746     		mov	r7, r2
 849              		.loc 1 407 0
 850 0008 0E46     		mov	r6, r1
 851 000a 9B46     		mov	fp, r3
 852              		.loc 1 408 0
 853 000c D0F81CA0 		ldr	r10, [r0, #28]
 854              	.LVL80:
 855              		.loc 1 411 0
 856 0010 002A     		cmp	r2, #0
 857 0012 36D0     		beq	.L87
 858              	.LVL81:
 859              	.L71:
 860              		.loc 1 413 0
 861              	@ 413 "../../../os/kernel/src/chqueues.c" 1
 862 0014 FFF7FEFF 		bl      _port_lock
 863              	@ 0 "" 2
 864              		.thumb
 865 0018 FFF7FEFF 		bl	dbg_check_lock
 866              	.LVL82:
 867              		.loc 1 409 0
 868 001c 4FF00009 		mov	r9, #0
 869              	.LVL83:
 870              	.L72:
 871              		.loc 1 415 0 discriminator 1
 872 0020 A568     		ldr	r5, [r4, #8]
 873              		.loc 1 422 0 discriminator 1
 874 0022 06F10108 		add	r8, r6, #1
 875              	.LVL84:
 876              		.loc 1 427 0 discriminator 1
 877 0026 2046     		mov	r0, r4
 878              		.loc 1 421 0 discriminator 1
 879 0028 6A1E     		subs	r2, r5, #1
 880              		.loc 1 415 0 discriminator 1
 881 002a EDB1     		cbz	r5, .L75
 882              	.LVL85:
 883              		.loc 1 422 0
 884 002c 6369     		ldr	r3, [r4, #20]
 885              		.loc 1 421 0
 886 002e A260     		str	r2, [r4, #8]
 887              		.loc 1 422 0
 888 0030 5A1C     		adds	r2, r3, #1
 889 0032 6261     		str	r2, [r4, #20]
 890 0034 3278     		ldrb	r2, [r6]	@ zero_extendqisi2
 891 0036 1A70     		strb	r2, [r3]
 892              		.loc 1 423 0
 893 0038 2369     		ldr	r3, [r4, #16]
 894 003a 6269     		ldr	r2, [r4, #20]
 895 003c 9A42     		cmp	r2, r3
 896              		.loc 1 424 0
 897 003e 24BF     		itt	cs
 898 0040 E368     		ldrcs	r3, [r4, #12]
 899 0042 6361     		strcs	r3, [r4, #20]
 900              		.loc 1 426 0
 901 0044 BAF1000F 		cmp	r10, #0
 902 0048 00D0     		beq	.L77
 903              		.loc 1 427 0
 904 004a D047     		blx	r10
ARM GAS  /tmp/cce7lV87.s 			page 17


 905              	.LVL86:
 906              	.L77:
 907              		.loc 1 429 0
 908 004c FFF7FEFF 		bl	dbg_check_unlock
 909              	.LVL87:
 910              	@ 429 "../../../os/kernel/src/chqueues.c" 1
 911 0050 FFF7FEFF 		bl      _port_unlock
 912              	@ 0 "" 2
 913              		.loc 1 431 0
 914              		.thumb
 915 0054 013F     		subs	r7, r7, #1
 916              	.LVL88:
 917              		.loc 1 430 0
 918 0056 09F10109 		add	r9, r9, #1
 919              	.LVL89:
 920              		.loc 1 431 0
 921 005a 0FD0     		beq	.L74
 922              		.loc 1 433 0
 923              	@ 433 "../../../os/kernel/src/chqueues.c" 1
 924 005c FFF7FEFF 		bl      _port_lock
 925              	@ 0 "" 2
 926              		.thumb
 927 0060 FFF7FEFF 		bl	dbg_check_lock
 928              	.LVL90:
 929              		.loc 1 422 0
 930 0064 4646     		mov	r6, r8
 931              		.loc 1 434 0
 932 0066 DBE7     		b	.L72
 933              	.LVL91:
 934              	.L75:
 935              		.loc 1 416 0
 936 0068 2046     		mov	r0, r4
 937              	.LVL92:
 938 006a 5946     		mov	r1, fp
 939 006c FFF7FEFF 		bl	qwait
 940              	.LVL93:
 941 0070 0028     		cmp	r0, #0
 942 0072 D5D0     		beq	.L72
 943              		.loc 1 417 0
 944 0074 FFF7FEFF 		bl	dbg_check_unlock
 945              	.LVL94:
 946              	@ 417 "../../../os/kernel/src/chqueues.c" 1
 947 0078 FFF7FEFF 		bl      _port_unlock
 948              	@ 0 "" 2
 949              	.LVL95:
 950              		.thumb
 951              	.L74:
 952              		.loc 1 435 0
 953 007c 4846     		mov	r0, r9
 954 007e BDE8F88F 		pop	{r3, r4, r5, r6, r7, r8, r9, r10, fp, pc}
 955              	.LVL96:
 956              	.L87:
 957              		.loc 1 411 0 discriminator 1
 958 0082 40F20000 		movw	r0, #:lower16:.LC1
 959              	.LVL97:
 960 0086 C0F20000 		movt	r0, #:upper16:.LC1
 961 008a FFF7FEFF 		bl	chDbgPanic
ARM GAS  /tmp/cce7lV87.s 			page 18


 962              	.LVL98:
 963 008e C1E7     		b	.L71
 964              		.cfi_endproc
 965              	.LFE10:
 966              		.size	chOQWriteTimeout, .-chOQWriteTimeout
 967              		.section	.rodata.str1.4,"aMS",%progbits,1
 968              		.align	2
 969              	.LC0:
 970 0000 22636849 		.ascii	"\"chIQReadTimeout\"()\000"
 970      51526561 
 970      6454696D 
 970      656F7574 
 970      22282900 
 971              	.LC1:
 972 0014 2263684F 		.ascii	"\"chOQWriteTimeout\"()\000"
 972      51577269 
 972      74655469 
 972      6D656F75 
 972      74222829 
 973 0029 000000   		.text
 974              	.Letext0:
 975              		.file 2 "/usr/lib/gcc/arm-none-eabi/4.8.2/include/stddef.h"
 976              		.file 3 "/usr/arm-none-eabi/include/machine/_default_types.h"
 977              		.file 4 "/usr/arm-none-eabi/include/stdint.h"
 978              		.file 5 "../../../os/ports/GCC/ARMCMx/chtypes.h"
 979              		.file 6 "../../../os/kernel/include/chlists.h"
 980              		.file 7 "../../../os/kernel/include/chthreads.h"
 981              		.file 8 "../../../os/ports/GCC/ARMCMx/chcore_v7m.h"
 982              		.file 9 "../../../os/kernel/include/chschd.h"
 983              		.file 10 "../../../os/kernel/include/chmtx.h"
 984              		.file 11 "../../../os/kernel/include/chqueues.h"
 985              		.file 12 "../../../os/kernel/include/chdebug.h"