ARM GAS  /tmp/cce7lV87.s 			page 1


   1              		.syntax unified
   2              		.cpu cortex-m4
   3              		.fpu softvfp
   4              		.eabi_attribute 20, 1
   5              		.eabi_attribute 21, 1
   6              		.eabi_attribute 23, 3
   7              		.eabi_attribute 24, 1
   8              		.eabi_attribute 25, 1
   9              		.eabi_attribute 26, 1
  10              		.eabi_attribute 30, 2
  11              		.eabi_attribute 34, 1
  12              		.eabi_attribute 18, 4
  13              		.thumb
  14              		.file	"chqueues.c"
  15              		.text
  16              	.Ltext0:
  17              		.cfi_sections	.debug_frame
  18              		.section	.text.qwait,"ax",%progbits
  19              		.align	2
  20              		.p2align 4,,15
  21              		.thumb
  22              		.thumb_func
  23              		.type	qwait, %function
  24              	qwait:
  25              	.LFB0:
  26              		.file 1 "../../../os/kernel/src/chqueues.c"
  27              		.loc 1 70 0
  28              		.cfi_startproc
  29              		@ args = 0, pretend = 0, frame = 0
  30              		@ frame_needed = 0, uses_anonymous_args = 0
  31              	.LVL0:
  32 0000 10B5     		push	{r4, lr}
  33              		.cfi_def_cfa_offset 8
  34              		.cfi_offset 4, -8
  35              		.cfi_offset 14, -4
  36              		.loc 1 72 0
  37 0002 0C46     		mov	r4, r1
  38 0004 79B1     		cbz	r1, .L2
  39              		.loc 1 74 0
  40 0006 40F20003 		movw	r3, #:lower16:rlist
  41 000a C0F20003 		movt	r3, #:upper16:rlist
  42              		.loc 1 75 0
  43 000e 0146     		mov	r1, r0
  44              	.LVL1:
  45              		.loc 1 74 0
  46 0010 9B69     		ldr	r3, [r3, #24]
  47 0012 9862     		str	r0, [r3, #40]
  48              		.loc 1 75 0
  49 0014 1846     		mov	r0, r3
  50              	.LVL2:
  51 0016 FFF7FEFF 		bl	queue_insert
  52              	.LVL3:
  53              		.loc 1 76 0
  54 001a 2146     		mov	r1, r4
  55 001c 0D20     		movs	r0, #13
  56              		.loc 1 77 0
  57 001e BDE81040 		pop	{r4, lr}
ARM GAS  /tmp/cce7lV87.s 			page 2


  58              	.LVL4:
  59              		.loc 1 76 0
  60 0022 FFF7FEBF 		b	chSchGoSleepTimeoutS
  61              	.LVL5:
  62              	.L2:
  63              		.loc 1 77 0
  64 0026 4FF0FF30 		mov	r0, #-1
  65              	.LVL6:
  66 002a 10BD     		pop	{r4, pc}
  67              		.cfi_endproc
  68              	.LFE0:
  69              		.size	qwait, .-qwait
  70 002c AFF30080 		.section	.text.chIQInit,"ax",%progbits
  71              		.align	2
  72              		.p2align 4,,15
  73              		.global	chIQInit
  74              		.thumb
  75              		.thumb_func
  76              		.type	chIQInit, %function
  77              	chIQInit:
  78              	.LFB1:
  79              		.loc 1 96 0
  80              		.cfi_startproc
  81              		@ args = 4, pretend = 0, frame = 0
  82              		@ frame_needed = 0, uses_anonymous_args = 0
  83              		@ link register save eliminated.
  84              	.LVL7:
  85 0000 30B4     		push	{r4, r5}
  86              		.cfi_def_cfa_offset 8
  87              		.cfi_offset 4, -8
  88              		.cfi_offset 5, -4
  89              		.loc 1 96 0
  90 0002 029C     		ldr	r4, [sp, #8]
  91              		.loc 1 98 0
  92 0004 4060     		str	r0, [r0, #4]
  93              		.loc 1 99 0
  94 0006 0025     		movs	r5, #0
  95              		.loc 1 101 0
  96 0008 0A44     		add	r2, r2, r1
  97              	.LVL8:
  98              		.loc 1 99 0
  99 000a 8560     		str	r5, [r0, #8]
 100              		.loc 1 103 0
 101 000c 0462     		str	r4, [r0, #32]
 102              		.loc 1 101 0
 103 000e 0261     		str	r2, [r0, #16]
 104              		.loc 1 98 0
 105 0010 0060     		str	r0, [r0]
 106              		.loc 1 100 0
 107 0012 4161     		str	r1, [r0, #20]
 108 0014 8161     		str	r1, [r0, #24]
 109 0016 C160     		str	r1, [r0, #12]
 110              		.loc 1 102 0
 111 0018 C361     		str	r3, [r0, #28]
 112              		.loc 1 104 0
 113 001a 30BC     		pop	{r4, r5}
 114              	.LVL9:
ARM GAS  /tmp/cce7lV87.s 			page 3


 115 001c 7047     		bx	lr
 116              		.cfi_endproc
 117              	.LFE1:
 118              		.size	chIQInit, .-chIQInit
 119 001e 00BF     		.section	.text.chIQResetI,"ax",%progbits
 120              		.align	2
 121              		.p2align 4,,15
 122              		.global	chIQResetI
 123              		.thumb
 124              		.thumb_func
 125              		.type	chIQResetI, %function
 126              	chIQResetI:
 127              	.LFB2:
 128              		.loc 1 117 0
 129              		.cfi_startproc
 130              		@ args = 0, pretend = 0, frame = 0
 131              		@ frame_needed = 0, uses_anonymous_args = 0
 132              	.LVL10:
 133 0000 38B5     		push	{r3, r4, r5, lr}
 134              		.cfi_def_cfa_offset 16
 135              		.cfi_offset 3, -16
 136              		.cfi_offset 4, -12
 137              		.cfi_offset 5, -8
 138              		.cfi_offset 14, -4
 139              		.loc 1 117 0
 140 0002 0446     		mov	r4, r0
 141              		.loc 1 119 0
 142 0004 FFF7FEFF 		bl	chDbgCheckClassI
 143              	.LVL11:
 144              		.loc 1 123 0
 145 0008 2268     		ldr	r2, [r4]
 146              		.loc 1 121 0
 147 000a E368     		ldr	r3, [r4, #12]
 148              		.loc 1 122 0
 149 000c 0021     		movs	r1, #0
 150              		.loc 1 123 0
 151 000e A242     		cmp	r2, r4
 152              		.loc 1 121 0
 153 0010 6361     		str	r3, [r4, #20]
 154              		.loc 1 122 0
 155 0012 A160     		str	r1, [r4, #8]
 156              		.loc 1 121 0
 157 0014 A361     		str	r3, [r4, #24]
 158              		.loc 1 123 0
 159 0016 0AD0     		beq	.L5
 160              		.loc 1 124 0
 161 0018 6FF00105 		mvn	r5, #1
 162              	.L8:
 163 001c 2046     		mov	r0, r4
 164 001e FFF7FEFF 		bl	fifo_remove
 165              	.LVL12:
 166 0022 FFF7FEFF 		bl	chSchReadyI
 167              	.LVL13:
 168 0026 8562     		str	r5, [r0, #40]
 169              		.loc 1 123 0
 170 0028 2368     		ldr	r3, [r4]
 171 002a A342     		cmp	r3, r4
ARM GAS  /tmp/cce7lV87.s 			page 4


 172 002c F6D1     		bne	.L8
 173              	.L5:
 174 002e 38BD     		pop	{r3, r4, r5, pc}
 175              		.cfi_endproc
 176              	.LFE2:
 177              		.size	chIQResetI, .-chIQResetI
 178              		.section	.text.chIQPutI,"ax",%progbits
 179              		.align	2
 180              		.p2align 4,,15
 181              		.global	chIQPutI
 182              		.thumb
 183              		.thumb_func
 184              		.type	chIQPutI, %function
 185              	chIQPutI:
 186              	.LFB3:
 187              		.loc 1 140 0
 188              		.cfi_startproc
 189              		@ args = 0, pretend = 0, frame = 0
 190              		@ frame_needed = 0, uses_anonymous_args = 0
 191              	.LVL14:
 192 0000 38B5     		push	{r3, r4, r5, lr}
 193              		.cfi_def_cfa_offset 16
 194              		.cfi_offset 3, -16
 195              		.cfi_offset 4, -12
 196              		.cfi_offset 5, -8
 197              		.cfi_offset 14, -4
 198              		.loc 1 140 0
 199 0002 0446     		mov	r4, r0
 200 0004 0D46     		mov	r5, r1
 201              		.loc 1 142 0
 202 0006 FFF7FEFF 		bl	chDbgCheckClassI
 203              	.LVL15:
 204              		.loc 1 144 0
 205 000a 6369     		ldr	r3, [r4, #20]
 206 000c A269     		ldr	r2, [r4, #24]
 207 000e A168     		ldr	r1, [r4, #8]
 208 0010 9342     		cmp	r3, r2
 209 0012 1BD0     		beq	.L18
 210              	.L12:
 211              		.loc 1 148 0
 212 0014 5A1C     		adds	r2, r3, #1
 213              		.loc 1 147 0
 214 0016 0131     		adds	r1, r1, #1
 215              		.loc 1 148 0
 216 0018 6261     		str	r2, [r4, #20]
 217              		.loc 1 147 0
 218 001a A160     		str	r1, [r4, #8]
 219              		.loc 1 148 0
 220 001c 1D70     		strb	r5, [r3]
 221              		.loc 1 149 0
 222 001e 6269     		ldr	r2, [r4, #20]
 223 0020 2369     		ldr	r3, [r4, #16]
 224 0022 9A42     		cmp	r2, r3
 225 0024 0BD2     		bcs	.L13
 226              		.loc 1 152 0
 227 0026 2368     		ldr	r3, [r4]
 228 0028 A342     		cmp	r3, r4
ARM GAS  /tmp/cce7lV87.s 			page 5


 229 002a 0DD0     		beq	.L16
 230              	.L19:
 231              		.loc 1 153 0
 232 002c 2046     		mov	r0, r4
 233 002e FFF7FEFF 		bl	fifo_remove
 234              	.LVL16:
 235 0032 FFF7FEFF 		bl	chSchReadyI
 236              	.LVL17:
 237 0036 0023     		movs	r3, #0
 238 0038 8362     		str	r3, [r0, #40]
 239              		.loc 1 155 0
 240 003a 1846     		mov	r0, r3
 241 003c 38BD     		pop	{r3, r4, r5, pc}
 242              	.LVL18:
 243              	.L13:
 244              		.loc 1 150 0
 245 003e E368     		ldr	r3, [r4, #12]
 246 0040 6361     		str	r3, [r4, #20]
 247              		.loc 1 152 0
 248 0042 2368     		ldr	r3, [r4]
 249 0044 A342     		cmp	r3, r4
 250 0046 F1D1     		bne	.L19
 251              	.L16:
 252              		.loc 1 155 0
 253 0048 0020     		movs	r0, #0
 254 004a 38BD     		pop	{r3, r4, r5, pc}
 255              	.LVL19:
 256              	.L18:
 257              		.loc 1 144 0 discriminator 1
 258 004c 0029     		cmp	r1, #0
 259 004e E1D0     		beq	.L12
 260              		.loc 1 145 0
 261 0050 6FF00300 		mvn	r0, #3
 262 0054 38BD     		pop	{r3, r4, r5, pc}
 263              		.cfi_endproc
 264              	.LFE3:
 265              		.size	chIQPutI, .-chIQPutI
 266 0056 00BFAFF3 		.section	.text.chIQGetTimeout,"ax",%progbits
 266      0080AFF3 
 266      0080
 267              		.align	2
 268              		.p2align 4,,15
 269              		.global	chIQGetTimeout
 270              		.thumb
 271              		.thumb_func
 272              		.type	chIQGetTimeout, %function
 273              	chIQGetTimeout:
 274              	.LFB4:
 275              		.loc 1 178 0
 276              		.cfi_startproc
 277              		@ args = 0, pretend = 0, frame = 0
 278              		@ frame_needed = 0, uses_anonymous_args = 0
 279              	.LVL20:
 280 0000 70B5     		push	{r4, r5, r6, lr}
 281              		.cfi_def_cfa_offset 16
 282              		.cfi_offset 4, -16
 283              		.cfi_offset 5, -12
ARM GAS  /tmp/cce7lV87.s 			page 6


 284              		.cfi_offset 6, -8
 285              		.cfi_offset 14, -4
 286              		.loc 1 178 0
 287 0002 0446     		mov	r4, r0
 288 0004 0D46     		mov	r5, r1
 289              		.loc 1 181 0
 290              	@ 181 "../../../os/kernel/src/chqueues.c" 1
 291 0006 FFF7FEFF 		bl      _port_lock
 292              	@ 0 "" 2
 293              		.thumb
 294 000a FFF7FEFF 		bl	dbg_check_lock
 295              	.LVL21:
 296              		.loc 1 182 0
 297 000e E369     		ldr	r3, [r4, #28]
 298 0010 33B1     		cbz	r3, .L23
 299              		.loc 1 183 0
 300 0012 2046     		mov	r0, r4
 301 0014 9847     		blx	r3
 302              	.LVL22:
 303 0016 03E0     		b	.L23
 304              	.LVL23:
 305              	.L25:
 306              	.LBB2:
 307              		.loc 1 187 0
 308 0018 FFF7FEFF 		bl	qwait
 309              	.LVL24:
 310 001c 061E     		subs	r6, r0, #0
 311 001e 10DB     		blt	.L26
 312              	.LVL25:
 313              	.L23:
 314              	.LBE2:
 315              		.loc 1 185 0 discriminator 1
 316 0020 A368     		ldr	r3, [r4, #8]
 317              	.LBB3:
 318              		.loc 1 187 0 discriminator 1
 319 0022 2046     		mov	r0, r4
 320 0024 2946     		mov	r1, r5
 321              	.LBE3:
 322              		.loc 1 185 0 discriminator 1
 323 0026 002B     		cmp	r3, #0
 324 0028 F6D0     		beq	.L25
 325              	.LVL26:
 326              		.loc 1 194 0
 327 002a A169     		ldr	r1, [r4, #24]
 328              	.LVL27:
 329              		.loc 1 195 0
 330 002c 2569     		ldr	r5, [r4, #16]
 331              	.LVL28:
 332              		.loc 1 194 0
 333 002e 4A1C     		adds	r2, r1, #1
 334              		.loc 1 193 0
 335 0030 013B     		subs	r3, r3, #1
 336              		.loc 1 195 0
 337 0032 AA42     		cmp	r2, r5
 338              		.loc 1 193 0
 339 0034 A360     		str	r3, [r4, #8]
 340              		.loc 1 196 0
ARM GAS  /tmp/cce7lV87.s 			page 7


 341 0036 28BF     		it	cs
 342 0038 E368     		ldrcs	r3, [r4, #12]
 343              		.loc 1 194 0
 344 003a A261     		str	r2, [r4, #24]
 345 003c 0E78     		ldrb	r6, [r1]	@ zero_extendqisi2
 346              	.LVL29:
 347              		.loc 1 196 0
 348 003e 28BF     		it	cs
 349 0040 A361     		strcs	r3, [r4, #24]
 350              	.LVL30:
 351              	.L26:
 352              		.loc 1 198 0
 353 0042 FFF7FEFF 		bl	dbg_check_unlock
 354              	.LVL31:
 355              	@ 198 "../../../os/kernel/src/chqueues.c" 1
 356 0046 FFF7FEFF 		bl      _port_unlock
 357              	@ 0 "" 2
 358              		.loc 1 199 0
 359              		.thumb
 360 004a 3046     		mov	r0, r6
 361              		.loc 1 200 0
 362 004c 70BD     		pop	{r4, r5, r6, pc}
 363              		.cfi_endproc
 364              	.LFE4:
 365              		.size	chIQGetTimeout, .-chIQGetTimeout
 366 004e 00BF     		.section	.text.chIQReadTimeout,"ax",%progbits
 367              		.align	2
 368              		.p2align 4,,15
 369              		.global	chIQReadTimeout
 370              		.thumb
 371              		.thumb_func
 372              		.type	chIQReadTimeout, %function
 373              	chIQReadTimeout:
 374              	.LFB5:
 375              		.loc 1 227 0
 376              		.cfi_startproc
 377              		@ args = 0, pretend = 0, frame = 0
 378              		@ frame_needed = 0, uses_anonymous_args = 0
 379              	.LVL32:
 380 0000 2DE9F047 		push	{r4, r5, r6, r7, r8, r9, r10, lr}
 381              		.cfi_def_cfa_offset 32
 382              		.cfi_offset 4, -32
 383              		.cfi_offset 5, -28
 384              		.cfi_offset 6, -24
 385              		.cfi_offset 7, -20
 386              		.cfi_offset 8, -16
 387              		.cfi_offset 9, -12
 388              		.cfi_offset 10, -8
 389              		.cfi_offset 14, -4
 390              		.loc 1 227 0
 391 0004 0446     		mov	r4, r0
 392              		.loc 1 231 0
 393 0006 1546     		mov	r5, r2
 394              		.loc 1 227 0
 395 0008 0F46     		mov	r7, r1
 396 000a 1E46     		mov	r6, r3
 397              		.loc 1 228 0
ARM GAS  /tmp/cce7lV87.s 			page 8


 398 000c D0F81C80 		ldr	r8, [r0, #28]
 399              	.LVL33:
 400              		.loc 1 231 0
 401 0010 002A     		cmp	r2, #0
 402 0012 39D0     		beq	.L42
 403              	.LVL34:
 404              	.L31:
 405              		.loc 1 233 0
 406              	@ 233 "../../../os/kernel/src/chqueues.c" 1
 407 0014 FFF7FEFF 		bl      _port_lock
 408              	@ 0 "" 2
 409              		.thumb
 410 0018 FFF7FEFF 		bl	dbg_check_lock
 411              	.LVL35:
 412 001c 07EB050A 		add	r10, r7, r5
 413              		.loc 1 229 0
 414 0020 4FF00009 		mov	r9, #0
 415 0024 0137     		adds	r7, r7, #1
 416              	.LVL36:
 417              	.L38:
 418              		.loc 1 235 0
 419 0026 B8F1000F 		cmp	r8, #0
 420 002a 05D0     		beq	.L34
 421              		.loc 1 236 0
 422 002c 2046     		mov	r0, r4
 423 002e C047     		blx	r8
 424              	.LVL37:
 425 0030 02E0     		b	.L34
 426              	.LVL38:
 427              	.L36:
 428              		.loc 1 239 0
 429 0032 FFF7FEFF 		bl	qwait
 430              	.LVL39:
 431 0036 00BB     		cbnz	r0, .L43
 432              	.L34:
 433              		.loc 1 238 0 discriminator 1
 434 0038 A568     		ldr	r5, [r4, #8]
 435              		.loc 1 239 0 discriminator 1
 436 003a 2046     		mov	r0, r4
 437 003c 3146     		mov	r1, r6
 438              		.loc 1 238 0 discriminator 1
 439 003e 002D     		cmp	r5, #0
 440 0040 F7D0     		beq	.L36
 441              	.LVL40:
 442              		.loc 1 246 0
 443 0042 A369     		ldr	r3, [r4, #24]
 444              		.loc 1 245 0
 445 0044 013D     		subs	r5, r5, #1
 446              		.loc 1 246 0
 447 0046 5A1C     		adds	r2, r3, #1
 448 0048 A261     		str	r2, [r4, #24]
 449              		.loc 1 245 0
 450 004a A560     		str	r5, [r4, #8]
 451              	.LVL41:
 452              		.loc 1 246 0
 453 004c 1B78     		ldrb	r3, [r3]	@ zero_extendqisi2
 454 004e 07F8013C 		strb	r3, [r7, #-1]
ARM GAS  /tmp/cce7lV87.s 			page 9


 455              		.loc 1 247 0
 456 0052 2369     		ldr	r3, [r4, #16]
 457 0054 A269     		ldr	r2, [r4, #24]
 458 0056 9A42     		cmp	r2, r3
 459              		.loc 1 248 0
 460 0058 24BF     		itt	cs
 461 005a E368     		ldrcs	r3, [r4, #12]
 462 005c A361     		strcs	r3, [r4, #24]
 463              		.loc 1 250 0
 464 005e FFF7FEFF 		bl	dbg_check_unlock
 465              	.LVL42:
 466              	@ 250 "../../../os/kernel/src/chqueues.c" 1
 467 0062 FFF7FEFF 		bl      _port_unlock
 468              	@ 0 "" 2
 469              		.loc 1 252 0
 470              		.thumb
 471 0066 5745     		cmp	r7, r10
 472              		.loc 1 251 0
 473 0068 09F10109 		add	r9, r9, #1
 474              	.LVL43:
 475              		.loc 1 252 0
 476 006c 09D0     		beq	.L35
 477              		.loc 1 255 0
 478              	@ 255 "../../../os/kernel/src/chqueues.c" 1
 479 006e FFF7FEFF 		bl      _port_lock
 480              	@ 0 "" 2
 481              		.thumb
 482 0072 FFF7FEFF 		bl	dbg_check_lock
 483              	.LVL44:
 484 0076 0137     		adds	r7, r7, #1
 485              		.loc 1 256 0
 486 0078 D5E7     		b	.L38
 487              	.LVL45:
 488              	.L43:
 489              		.loc 1 240 0
 490 007a FFF7FEFF 		bl	dbg_check_unlock
 491              	.LVL46:
 492              	@ 240 "../../../os/kernel/src/chqueues.c" 1
 493 007e FFF7FEFF 		bl      _port_unlock
 494              	@ 0 "" 2
 495              	.LVL47:
 496              		.thumb
 497              	.L35:
 498              		.loc 1 257 0
 499 0082 4846     		mov	r0, r9
 500 0084 BDE8F087 		pop	{r4, r5, r6, r7, r8, r9, r10, pc}
 501              	.LVL48:
 502              	.L42:
 503              		.loc 1 231 0 discriminator 1
 504 0088 40F20000 		movw	r0, #:lower16:.LC0
 505              	.LVL49:
 506 008c C0F20000 		movt	r0, #:upper16:.LC0
 507 0090 FFF7FEFF 		bl	chDbgPanic
 508              	.LVL50:
 509 0094 BEE7     		b	.L31
 510              		.cfi_endproc
 511              	.LFE5:
ARM GAS  /tmp/cce7lV87.s 			page 10


 512              		.size	chIQReadTimeout, .-chIQReadTimeout
 513 0096 00BFAFF3 		.section	.text.chOQInit,"ax",%progbits
 513      0080AFF3 
 513      0080
 514              		.align	2
 515              		.p2align 4,,15
 516              		.global	chOQInit
 517              		.thumb
 518              		.thumb_func
 519              		.type	chOQInit, %function
 520              	chOQInit:
 521              	.LFB6:
 522              		.loc 1 276 0
 523              		.cfi_startproc
 524              		@ args = 4, pretend = 0, frame = 0
 525              		@ frame_needed = 0, uses_anonymous_args = 0
 526              		@ link register save eliminated.
 527              	.LVL51:
 528 0000 30B4     		push	{r4, r5}
 529              		.cfi_def_cfa_offset 8
 530              		.cfi_offset 4, -8
 531              		.cfi_offset 5, -4
 532              		.loc 1 276 0
 533 0002 029C     		ldr	r4, [sp, #8]
 534              		.loc 1 278 0
 535 0004 4060     		str	r0, [r0, #4]
 536              		.loc 1 281 0
 537 0006 8D18     		adds	r5, r1, r2
 538 0008 0561     		str	r5, [r0, #16]
 539              		.loc 1 283 0
 540 000a 0462     		str	r4, [r0, #32]
 541              		.loc 1 278 0
 542 000c 0060     		str	r0, [r0]
 543              		.loc 1 279 0
 544 000e 8260     		str	r2, [r0, #8]
 545              		.loc 1 280 0
 546 0010 4161     		str	r1, [r0, #20]
 547 0012 8161     		str	r1, [r0, #24]
 548 0014 C160     		str	r1, [r0, #12]
 549              		.loc 1 282 0
 550 0016 C361     		str	r3, [r0, #28]
 551              		.loc 1 284 0
 552 0018 30BC     		pop	{r4, r5}
 553              	.LVL52:
 554 001a 7047     		bx	lr
 555              		.cfi_endproc
 556              	.LFE6:
 557              		.size	chOQInit, .-chOQInit
 558              		.section	.text.chOQResetI,"ax",%progbits
 559              		.align	2
 560              		.p2align 4,,15
 561              		.global	chOQResetI
 562              		.thumb
 563              		.thumb_func
 564              		.type	chOQResetI, %function
 565              	chOQResetI:
 566              	.LFB7:
ARM GAS  /tmp/cce7lV87.s 			page 11


 567              		.loc 1 297 0
 568              		.cfi_startproc
 569              		@ args = 0, pretend = 0, frame = 0
 570              		@ frame_needed = 0, uses_anonymous_args = 0
 571              	.LVL53:
 572 0000 38B5     		push	{r3, r4, r5, lr}
 573              		.cfi_def_cfa_offset 16
 574              		.cfi_offset 3, -16
 575              		.cfi_offset 4, -12
 576              		.cfi_offset 5, -8
 577              		.cfi_offset 14, -4
 578              		.loc 1 297 0
 579 0002 0446     		mov	r4, r0
 580              		.loc 1 299 0
 581 0004 FFF7FEFF 		bl	chDbgCheckClassI
 582              	.LVL54:
 583              		.loc 1 301 0
 584 0008 E368     		ldr	r3, [r4, #12]
 585              		.loc 1 302 0
 586 000a 2169     		ldr	r1, [r4, #16]
 587              		.loc 1 303 0
 588 000c 2268     		ldr	r2, [r4]
 589              		.loc 1 301 0
 590 000e 6361     		str	r3, [r4, #20]
 591              		.loc 1 302 0
 592 0010 C91A     		subs	r1, r1, r3
 593              		.loc 1 303 0
 594 0012 A242     		cmp	r2, r4
 595              		.loc 1 301 0
 596 0014 A361     		str	r3, [r4, #24]
 597              		.loc 1 302 0
 598 0016 A160     		str	r1, [r4, #8]
 599              		.loc 1 303 0
 600 0018 0AD0     		beq	.L45
 601              		.loc 1 304 0
 602 001a 6FF00105 		mvn	r5, #1
 603              	.L48:
 604 001e 2046     		mov	r0, r4
 605 0020 FFF7FEFF 		bl	fifo_remove
 606              	.LVL55:
 607 0024 FFF7FEFF 		bl	chSchReadyI
 608              	.LVL56:
 609 0028 8562     		str	r5, [r0, #40]
 610              		.loc 1 303 0
 611 002a 2368     		ldr	r3, [r4]
 612 002c A342     		cmp	r3, r4
 613 002e F6D1     		bne	.L48
 614              	.L45:
 615 0030 38BD     		pop	{r3, r4, r5, pc}
 616              		.cfi_endproc
 617              	.LFE7:
 618              		.size	chOQResetI, .-chOQResetI
 619 0032 00BFAFF3 		.section	.text.chOQPutTimeout,"ax",%progbits
 619      0080AFF3 
 619      0080AFF3 
 619      0080
 620              		.align	2
ARM GAS  /tmp/cce7lV87.s 			page 12


 621              		.p2align 4,,15
 622              		.global	chOQPutTimeout
 623              		.thumb
 624              		.thumb_func
 625              		.type	chOQPutTimeout, %function
 626              	chOQPutTimeout:
 627              	.LFB8:
 628              		.loc 1 329 0
 629              		.cfi_startproc
 630              		@ args = 0, pretend = 0, frame = 0
 631              		@ frame_needed = 0, uses_anonymous_args = 0
 632              	.LVL57:
 633 0000 F8B5     		push	{r3, r4, r5, r6, r7, lr}
 634              		.cfi_def_cfa_offset 24
 635              		.cfi_offset 3, -24
 636              		.cfi_offset 4, -20
 637              		.cfi_offset 5, -16
 638              		.cfi_offset 6, -12
 639              		.cfi_offset 7, -8
 640              		.cfi_offset 14, -4
 641              		.loc 1 329 0
 642 0002 0446     		mov	r4, r0
 643 0004 0F46     		mov	r7, r1
 644 0006 1546     		mov	r5, r2
 645              		.loc 1 331 0
 646              	@ 331 "../../../os/kernel/src/chqueues.c" 1
 647 0008 FFF7FEFF 		bl      _port_lock
 648              	@ 0 "" 2
 649              		.thumb
 650 000c FFF7FEFF 		bl	dbg_check_lock
 651              	.LVL58:
 652              		.loc 1 332 0
 653 0010 03E0     		b	.L50
 654              	.LVL59:
 655              	.L53:
 656              	.LBB4:
 657              		.loc 1 335 0
 658 0012 FFF7FEFF 		bl	qwait
 659              	.LVL60:
 660 0016 061E     		subs	r6, r0, #0
 661 0018 1ADB     		blt	.L59
 662              	.LVL61:
 663              	.L50:
 664              	.LBE4:
 665              		.loc 1 332 0 discriminator 1
 666 001a A368     		ldr	r3, [r4, #8]
 667              	.LBB5:
 668              		.loc 1 335 0 discriminator 1
 669 001c 2046     		mov	r0, r4
 670 001e 2946     		mov	r1, r5
 671              	.LBE5:
 672              		.loc 1 332 0 discriminator 1
 673 0020 002B     		cmp	r3, #0
 674 0022 F6D0     		beq	.L53
 675              	.LVL62:
 676              		.loc 1 342 0
 677 0024 6269     		ldr	r2, [r4, #20]
ARM GAS  /tmp/cce7lV87.s 			page 13


 678              		.loc 1 341 0
 679 0026 013B     		subs	r3, r3, #1
 680              		.loc 1 342 0
 681 0028 511C     		adds	r1, r2, #1
 682              	.LVL63:
 683 002a 6161     		str	r1, [r4, #20]
 684              		.loc 1 341 0
 685 002c A360     		str	r3, [r4, #8]
 686              		.loc 1 342 0
 687 002e 1770     		strb	r7, [r2]
 688              		.loc 1 343 0
 689 0030 2369     		ldr	r3, [r4, #16]
 690 0032 6269     		ldr	r2, [r4, #20]
 691 0034 9A42     		cmp	r2, r3
 692              		.loc 1 344 0
 693 0036 24BF     		itt	cs
 694 0038 E368     		ldrcs	r3, [r4, #12]
 695 003a 6361     		strcs	r3, [r4, #20]
 696              		.loc 1 346 0
 697 003c E369     		ldr	r3, [r4, #28]
 698 003e 0BB1     		cbz	r3, .L55
 699              		.loc 1 347 0
 700 0040 2046     		mov	r0, r4
 701              	.LVL64:
 702 0042 9847     		blx	r3
 703              	.LVL65:
 704              	.L55:
 705              		.loc 1 349 0
 706 0044 FFF7FEFF 		bl	dbg_check_unlock
 707              	.LVL66:
 708              	@ 349 "../../../os/kernel/src/chqueues.c" 1
 709 0048 FFF7FEFF 		bl      _port_unlock
 710              	@ 0 "" 2
 711              		.loc 1 350 0
 712              		.thumb
 713 004c 0020     		movs	r0, #0
 714              		.loc 1 351 0
 715 004e F8BD     		pop	{r3, r4, r5, r6, r7, pc}
 716              	.LVL67:
 717              	.L59:
 718              	.LBB6:
 719              		.loc 1 336 0
 720 0050 FFF7FEFF 		bl	dbg_check_unlock
 721              	.LVL68:
 722              	@ 336 "../../../os/kernel/src/chqueues.c" 1
 723 0054 FFF7FEFF 		bl      _port_unlock
 724              	@ 0 "" 2
 725              		.loc 1 335 0
 726              		.thumb
 727 0058 3046     		mov	r0, r6
 728              		.loc 1 337 0
 729 005a F8BD     		pop	{r3, r4, r5, r6, r7, pc}
 730              	.LBE6:
 731              		.cfi_endproc
 732              	.LFE8:
 733              		.size	chOQPutTimeout, .-chOQPutTimeout
 734 005c AFF30080 		.section	.text.chOQGetI,"ax",%progbits
ARM GAS  /tmp/cce7lV87.s 			page 14


 735              		.align	2
 736              		.p2align 4,,15
 737              		.global	chOQGetI
 738              		.thumb
 739              		.thumb_func
 740              		.type	chOQGetI, %function
 741              	chOQGetI:
 742              	.LFB9:
 743              		.loc 1 363 0
 744              		.cfi_startproc
 745              		@ args = 0, pretend = 0, frame = 0
 746              		@ frame_needed = 0, uses_anonymous_args = 0
 747              	.LVL69:
 748 0000 38B5     		push	{r3, r4, r5, lr}
 749              		.cfi_def_cfa_offset 16
 750              		.cfi_offset 3, -16
 751              		.cfi_offset 4, -12
 752              		.cfi_offset 5, -8
 753              		.cfi_offset 14, -4
 754              		.loc 1 363 0
 755 0002 0446     		mov	r4, r0
 756              		.loc 1 366 0
 757 0004 FFF7FEFF 		bl	chDbgCheckClassI
 758              	.LVL70:
 759              		.loc 1 368 0
 760 0008 A369     		ldr	r3, [r4, #24]
 761 000a 6269     		ldr	r2, [r4, #20]
 762 000c A068     		ldr	r0, [r4, #8]
 763 000e 9A42     		cmp	r2, r3
 764 0010 16D0     		beq	.L69
 765              	.L63:
 766              		.loc 1 373 0
 767 0012 2169     		ldr	r1, [r4, #16]
 768              		.loc 1 372 0
 769 0014 5A1C     		adds	r2, r3, #1
 770              		.loc 1 371 0
 771 0016 0130     		adds	r0, r0, #1
 772 0018 A060     		str	r0, [r4, #8]
 773              		.loc 1 372 0
 774 001a A261     		str	r2, [r4, #24]
 775              		.loc 1 373 0
 776 001c 8A42     		cmp	r2, r1
 777              		.loc 1 372 0
 778 001e 1D78     		ldrb	r5, [r3]	@ zero_extendqisi2
 779              	.LVL71:
 780              		.loc 1 373 0
 781 0020 0BD2     		bcs	.L65
 782              	.LVL72:
 783              	.L66:
 784              		.loc 1 376 0
 785 0022 2368     		ldr	r3, [r4]
 786 0024 A342     		cmp	r3, r4
 787 0026 06D0     		beq	.L64
 788              		.loc 1 377 0
 789 0028 2046     		mov	r0, r4
 790 002a FFF7FEFF 		bl	fifo_remove
 791              	.LVL73:
ARM GAS  /tmp/cce7lV87.s 			page 15


 792 002e FFF7FEFF 		bl	chSchReadyI
 793              	.LVL74:
 794 0032 0023     		movs	r3, #0
 795 0034 8362     		str	r3, [r0, #40]
 796              	.L64:
 797              		.loc 1 379 0
 798 0036 2846     		mov	r0, r5
 799 0038 38BD     		pop	{r3, r4, r5, pc}
 800              	.LVL75:
 801              	.L65:
 802              		.loc 1 374 0
 803 003a E368     		ldr	r3, [r4, #12]
 804              	.LVL76:
 805 003c A361     		str	r3, [r4, #24]
 806              	.LVL77:
 807 003e F0E7     		b	.L66
 808              	.LVL78:
 809              	.L69:
 810              		.loc 1 368 0 discriminator 1
 811 0040 0028     		cmp	r0, #0
 812 0042 E6D0     		beq	.L63
 813              		.loc 1 369 0
 814 0044 6FF00200 		mvn	r0, #2
 815 0048 38BD     		pop	{r3, r4, r5, pc}
 816              		.cfi_endproc
 817              	.LFE9:
 818              		.size	chOQGetI, .-chOQGetI
 819 004a 00BFAFF3 		.section	.text.chOQWriteTimeout,"ax",%progbits
 819      0080
 820              		.align	2
 821              		.p2align 4,,15
 822              		.global	chOQWriteTimeout
 823              		.thumb
 824              		.thumb_func
 825              		.type	chOQWriteTimeout, %function
 826              	chOQWriteTimeout:
 827              	.LFB10:
 828              		.loc 1 407 0
 829              		.cfi_startproc
 830              		@ args = 0, pretend = 0, frame = 0
 831              		@ frame_needed = 0, uses_anonymous_args = 0
 832              	.LVL79:
 833 0000 2DE9F84F 		push	{r3, r4, r5, r6, r7, r8, r9, r10, fp, lr}
 834              		.cfi_def_cfa_offset 40
 835              		.cfi_offset 3, -40
 836              		.cfi_offset 4, -36
 837              		.cfi_offset 5, -32
 838              		.cfi_offset 6, -28
 839              		.cfi_offset 7, -24
 840              		.cfi_offset 8, -20
 841              		.cfi_offset 9, -16
 842              		.cfi_offset 10, -12
 843              		.cfi_offset 11, -8
 844              		.cfi_offset 14, -4
 845              		.loc 1 407 0
 846 0004 0446     		mov	r4, r0
 847              		.loc 1 411 0
ARM GAS  /tmp/cce7lV87.s 			page 16


 848 0006 1746     		mov	r7, r2
 849              		.loc 1 407 0
 850 0008 0E46     		mov	r6, r1
 851 000a 9B46     		mov	fp, r3
 852              		.loc 1 408 0
 853 000c D0F81CA0 		ldr	r10, [r0, #28]
 854              	.LVL80:
 855              		.loc 1 411 0
 856 0010 002A     		cmp	r2, #0
 857 0012 36D0     		beq	.L87
 858              	.LVL81:
 859              	.L71:
 860              		.loc 1 413 0
 861              	@ 413 "../../../os/kernel/src/chqueues.c" 1
 862 0014 FFF7FEFF 		bl      _port_lock
 863              	@ 0 "" 2
 864              		.thumb
 865 0018 FFF7FEFF 		bl	dbg_check_lock
 866              	.LVL82:
 867              		.loc 1 409 0
 868 001c 4FF00009 		mov	r9, #0
 869              	.LVL83:
 870              	.L72:
 871              		.loc 1 415 0 discriminator 1
 872 0020 A568     		ldr	r5, [r4, #8]
 873              		.loc 1 422 0 discriminator 1
 874 0022 06F10108 		add	r8, r6, #1
 875              	.LVL84:
 876              		.loc 1 427 0 discriminator 1
 877 0026 2046     		mov	r0, r4
 878              		.loc 1 421 0 discriminator 1
 879 0028 6A1E     		subs	r2, r5, #1
 880              		.loc 1 415 0 discriminator 1
 881 002a EDB1     		cbz	r5, .L75
 882              	.LVL85:
 883              		.loc 1 422 0
 884 002c 6369     		ldr	r3, [r4, #20]
 885              		.loc 1 421 0
 886 002e A260     		str	r2, [r4, #8]
 887              		.loc 1 422 0
 888 0030 5A1C     		adds	r2, r3, #1
 889 0032 6261     		str	r2, [r4, #20]
 890 0034 3278     		ldrb	r2, [r6]	@ zero_extendqisi2
 891 0036 1A70     		strb	r2, [r3]
 892              		.loc 1 423 0
 893 0038 2369     		ldr	r3, [r4, #16]
 894 003a 6269     		ldr	r2, [r4, #20]
 895 003c 9A42     		cmp	r2, r3
 896              		.loc 1 424 0
 897 003e 24BF     		itt	cs
 898 0040 E368     		ldrcs	r3, [r4, #12]
 899 0042 6361     		strcs	r3, [r4, #20]
 900              		.loc 1 426 0
 901 0044 BAF1000F 		cmp	r10, #0
 902 0048 00D0     		beq	.L77
 903              		.loc 1 427 0
 904 004a D047     		blx	r10
ARM GAS  /tmp/cce7lV87.s 			page 17


 905              	.LVL86:
 906              	.L77:
 907              		.loc 1 429 0
 908 004c FFF7FEFF 		bl	dbg_check_unlock
 909              	.LVL87:
 910              	@ 429 "../../../os/kernel/src/chqueues.c" 1
 911 0050 FFF7FEFF 		bl      _port_unlock
 912              	@ 0 "" 2
 913              		.loc 1 431 0
 914              		.thumb
 915 0054 013F     		subs	r7, r7, #1
 916              	.LVL88:
 917              		.loc 1 430 0
 918 0056 09F10109 		add	r9, r9, #1
 919              	.LVL89:
 920              		.loc 1 431 0
 921 005a 0FD0     		beq	.L74
 922              		.loc 1 433 0
 923              	@ 433 "../../../os/kernel/src/chqueues.c" 1
 924 005c FFF7FEFF 		bl      _port_lock
 925              	@ 0 "" 2
 926              		.thumb
 927 0060 FFF7FEFF 		bl	dbg_check_lock
 928              	.LVL90:
 929              		.loc 1 422 0
 930 0064 4646     		mov	r6, r8
 931              		.loc 1 434 0
 932 0066 DBE7     		b	.L72
 933              	.LVL91:
 934              	.L75:
 935              		.loc 1 416 0
 936 0068 2046     		mov	r0, r4
 937              	.LVL92:
 938 006a 5946     		mov	r1, fp
 939 006c FFF7FEFF 		bl	qwait
 940              	.LVL93:
 941 0070 0028     		cmp	r0, #0
 942 0072 D5D0     		beq	.L72
 943              		.loc 1 417 0
 944 0074 FFF7FEFF 		bl	dbg_check_unlock
 945              	.LVL94:
 946              	@ 417 "../../../os/kernel/src/chqueues.c" 1
 947 0078 FFF7FEFF 		bl      _port_unlock
 948              	@ 0 "" 2
 949              	.LVL95:
 950              		.thumb
 951              	.L74:
 952              		.loc 1 435 0
 953 007c 4846     		mov	r0, r9
 954 007e BDE8F88F 		pop	{r3, r4, r5, r6, r7, r8, r9, r10, fp, pc}
 955              	.LVL96:
 956              	.L87:
 957              		.loc 1 411 0 discriminator 1
 958 0082 40F20000 		movw	r0, #:lower16:.LC1
 959              	.LVL97:
 960 0086 C0F20000 		movt	r0, #:upper16:.LC1
 961 008a FFF7FEFF 		bl	chDbgPanic
ARM GAS  /tmp/cce7lV87.s 			page 18


 962              	.LVL98:
 963 008e C1E7     		b	.L71
 964              		.cfi_endproc
 965              	.LFE10:
 966              		.size	chOQWriteTimeout, .-chOQWriteTimeout
 967              		.section	.rodata.str1.4,"aMS",%progbits,1
 968              		.align	2
 969              	.LC0:
 970 0000 22636849 		.ascii	"\"chIQReadTimeout\"()\000"
 970      51526561 
 970      6454696D 
 970      656F7574 
 970      22282900 
 971              	.LC1:
 972 0014 2263684F 		.ascii	"\"chOQWriteTimeout\"()\000"
 972      51577269 
 972      74655469 
 972      6D656F75 
 972      74222829 
 973 0029 000000   		.text
 974              	.Letext0:
 975              		.file 2 "/usr/lib/gcc/arm-none-eabi/4.8.2/include/stddef.h"
 976              		.file 3 "/usr/arm-none-eabi/include/machine/_default_types.h"
 977              		.file 4 "/usr/arm-none-eabi/include/stdint.h"
 978              		.file 5 "../../../os/ports/GCC/ARMCMx/chtypes.h"
 979              		.file 6 "../../../os/kernel/include/chlists.h"
 980              		.file 7 "../../../os/kernel/include/chthreads.h"
 981              		.file 8 "../../../os/ports/GCC/ARMCMx/chcore_v7m.h"
 982              		.file 9 "../../../os/kernel/include/chschd.h"
 983              		.file 10 "../../../os/kernel/include/chmtx.h"
 984              		.file 11 "../../../os/kernel/include/chqueues.h"
 985              		.file 12 "../../../os/kernel/include/chdebug.h"
 986              		.section	.debug_info,"",%progbits
 987              	.Ldebug_info0:
 988 0000 8C0A0000 		.4byte	0xa8c
 989 0004 0400     		.2byte	0x4
 990 0006 00000000 		.4byte	.Ldebug_abbrev0
 991 000a 04       		.byte	0x4
 992 000b 01       		.uleb128 0x1
 993 000c 5A000000 		.4byte	.LASF100
 994 0010 01       		.byte	0x1
 995 0011 66040000 		.4byte	.LASF101
 996 0015 FC010000 		.4byte	.LASF102
 997 0019 38000000 		.4byte	.Ldebug_ranges0+0x38
 998 001d 00000000 		.4byte	0
 999 0021 00000000 		.4byte	.Ldebug_line0
 1000 0025 02       		.uleb128 0x2
 1001 0026 04       		.byte	0x4
 1002 0027 05       		.byte	0x5
 1003 0028 696E7400 		.ascii	"int\000"
 1004 002c 03       		.uleb128 0x3
 1005 002d 14000000 		.4byte	.LASF2
 1006 0031 02       		.byte	0x2
 1007 0032 D4       		.byte	0xd4
 1008 0033 37000000 		.4byte	0x37
 1009 0037 04       		.uleb128 0x4
 1010 0038 04       		.byte	0x4
ARM GAS  /tmp/cce7lV87.s 			page 19


 1011 0039 07       		.byte	0x7
 1012 003a D2010000 		.4byte	.LASF0
 1013 003e 04       		.uleb128 0x4
 1014 003f 01       		.byte	0x1
 1015 0040 06       		.byte	0x6
 1016 0041 41010000 		.4byte	.LASF1
 1017 0045 03       		.uleb128 0x3
 1018 0046 40000000 		.4byte	.LASF3
 1019 004a 03       		.byte	0x3
 1020 004b 1C       		.byte	0x1c
 1021 004c 50000000 		.4byte	0x50
 1022 0050 04       		.uleb128 0x4
 1023 0051 01       		.byte	0x1
 1024 0052 08       		.byte	0x8
 1025 0053 90030000 		.4byte	.LASF4
 1026 0057 04       		.uleb128 0x4
 1027 0058 02       		.byte	0x2
 1028 0059 05       		.byte	0x5
 1029 005a A8030000 		.4byte	.LASF5
 1030 005e 04       		.uleb128 0x4
 1031 005f 02       		.byte	0x2
 1032 0060 07       		.byte	0x7
 1033 0061 58020000 		.4byte	.LASF6
 1034 0065 03       		.uleb128 0x3
 1035 0066 38040000 		.4byte	.LASF7
 1036 006a 03       		.byte	0x3
 1037 006b 37       		.byte	0x37
 1038 006c 70000000 		.4byte	0x70
 1039 0070 04       		.uleb128 0x4
 1040 0071 04       		.byte	0x4
 1041 0072 05       		.byte	0x5
 1042 0073 62010000 		.4byte	.LASF8
 1043 0077 03       		.uleb128 0x3
 1044 0078 96010000 		.4byte	.LASF9
 1045 007c 03       		.byte	0x3
 1046 007d 38       		.byte	0x38
 1047 007e 82000000 		.4byte	0x82
 1048 0082 04       		.uleb128 0x4
 1049 0083 04       		.byte	0x4
 1050 0084 07       		.byte	0x7
 1051 0085 EA010000 		.4byte	.LASF10
 1052 0089 04       		.uleb128 0x4
 1053 008a 08       		.byte	0x8
 1054 008b 05       		.byte	0x5
 1055 008c 33010000 		.4byte	.LASF11
 1056 0090 03       		.uleb128 0x3
 1057 0091 56030000 		.4byte	.LASF12
 1058 0095 03       		.byte	0x3
 1059 0096 4E       		.byte	0x4e
 1060 0097 9B000000 		.4byte	0x9b
 1061 009b 04       		.uleb128 0x4
 1062 009c 08       		.byte	0x8
 1063 009d 07       		.byte	0x7
 1064 009e F7000000 		.4byte	.LASF13
 1065 00a2 03       		.uleb128 0x3
 1066 00a3 A7040000 		.4byte	.LASF14
 1067 00a7 04       		.byte	0x4
ARM GAS  /tmp/cce7lV87.s 			page 20


 1068 00a8 2A       		.byte	0x2a
 1069 00a9 45000000 		.4byte	0x45
 1070 00ad 03       		.uleb128 0x3
 1071 00ae 88030000 		.4byte	.LASF15
 1072 00b2 04       		.byte	0x4
 1073 00b3 41       		.byte	0x41
 1074 00b4 65000000 		.4byte	0x65
 1075 00b8 03       		.uleb128 0x3
 1076 00b9 EE030000 		.4byte	.LASF16
 1077 00bd 04       		.byte	0x4
 1078 00be 42       		.byte	0x42
 1079 00bf 77000000 		.4byte	0x77
 1080 00c3 03       		.uleb128 0x3
 1081 00c4 2B000000 		.4byte	.LASF17
 1082 00c8 04       		.byte	0x4
 1083 00c9 4E       		.byte	0x4e
 1084 00ca 90000000 		.4byte	0x90
 1085 00ce 03       		.uleb128 0x3
 1086 00cf 4D010000 		.4byte	.LASF18
 1087 00d3 05       		.byte	0x5
 1088 00d4 2B       		.byte	0x2b
 1089 00d5 D9000000 		.4byte	0xd9
 1090 00d9 04       		.uleb128 0x4
 1091 00da 01       		.byte	0x1
 1092 00db 02       		.byte	0x2
 1093 00dc 82030000 		.4byte	.LASF19
 1094 00e0 03       		.uleb128 0x3
 1095 00e1 97020000 		.4byte	.LASF20
 1096 00e5 05       		.byte	0x5
 1097 00e6 2C       		.byte	0x2c
 1098 00e7 A2000000 		.4byte	0xa2
 1099 00eb 03       		.uleb128 0x3
 1100 00ec 6B010000 		.4byte	.LASF21
 1101 00f0 05       		.byte	0x5
 1102 00f1 2D       		.byte	0x2d
 1103 00f2 A2000000 		.4byte	0xa2
 1104 00f6 03       		.uleb128 0x3
 1105 00f7 72030000 		.4byte	.LASF22
 1106 00fb 05       		.byte	0x5
 1107 00fc 30       		.byte	0x30
 1108 00fd B8000000 		.4byte	0xb8
 1109 0101 03       		.uleb128 0x3
 1110 0102 6B020000 		.4byte	.LASF23
 1111 0106 05       		.byte	0x5
 1112 0107 31       		.byte	0x31
 1113 0108 AD000000 		.4byte	0xad
 1114 010c 03       		.uleb128 0x3
 1115 010d AB020000 		.4byte	.LASF24
 1116 0111 05       		.byte	0x5
 1117 0112 33       		.byte	0x33
 1118 0113 B8000000 		.4byte	0xb8
 1119 0117 03       		.uleb128 0x3
 1120 0118 23040000 		.4byte	.LASF25
 1121 011c 05       		.byte	0x5
 1122 011d 35       		.byte	0x35
 1123 011e B8000000 		.4byte	0xb8
 1124 0122 03       		.uleb128 0x3
ARM GAS  /tmp/cce7lV87.s 			page 21


 1125 0123 DC030000 		.4byte	.LASF26
 1126 0127 06       		.byte	0x6
 1127 0128 2A       		.byte	0x2a
 1128 0129 2D010000 		.4byte	0x12d
 1129 012d 05       		.uleb128 0x5
 1130 012e DC030000 		.4byte	.LASF26
 1131 0132 48       		.byte	0x48
 1132 0133 07       		.byte	0x7
 1133 0134 5E       		.byte	0x5e
 1134 0135 12020000 		.4byte	0x212
 1135 0139 06       		.uleb128 0x6
 1136 013a C8030000 		.4byte	.LASF27
 1137 013e 07       		.byte	0x7
 1138 013f 5F       		.byte	0x5f
 1139 0140 33020000 		.4byte	0x233
 1140 0144 00       		.byte	0
 1141 0145 06       		.uleb128 0x6
 1142 0146 6B030000 		.4byte	.LASF28
 1143 014a 07       		.byte	0x7
 1144 014b 61       		.byte	0x61
 1145 014c 33020000 		.4byte	0x233
 1146 0150 04       		.byte	0x4
 1147 0151 06       		.uleb128 0x6
 1148 0152 22010000 		.4byte	.LASF29
 1149 0156 07       		.byte	0x7
 1150 0157 63       		.byte	0x63
 1151 0158 F6000000 		.4byte	0xf6
 1152 015c 08       		.byte	0x8
 1153 015d 06       		.uleb128 0x6
 1154 015e E1040000 		.4byte	.LASF30
 1155 0162 07       		.byte	0x7
 1156 0163 64       		.byte	0x64
 1157 0164 F8020000 		.4byte	0x2f8
 1158 0168 0C       		.byte	0xc
 1159 0169 06       		.uleb128 0x6
 1160 016a 8E010000 		.4byte	.LASF31
 1161 016e 07       		.byte	0x7
 1162 016f 66       		.byte	0x66
 1163 0170 33020000 		.4byte	0x233
 1164 0174 10       		.byte	0x10
 1165 0175 06       		.uleb128 0x6
 1166 0176 24030000 		.4byte	.LASF32
 1167 017a 07       		.byte	0x7
 1168 017b 67       		.byte	0x67
 1169 017c 33020000 		.4byte	0x233
 1170 0180 14       		.byte	0x14
 1171 0181 06       		.uleb128 0x6
 1172 0182 B6040000 		.4byte	.LASF33
 1173 0186 07       		.byte	0x7
 1174 0187 6E       		.byte	0x6e
 1175 0188 F8030000 		.4byte	0x3f8
 1176 018c 18       		.byte	0x18
 1177 018d 06       		.uleb128 0x6
 1178 018e C7010000 		.4byte	.LASF34
 1179 0192 07       		.byte	0x7
 1180 0193 74       		.byte	0x74
 1181 0194 0A040000 		.4byte	0x40a
ARM GAS  /tmp/cce7lV87.s 			page 22


 1182 0198 1C       		.byte	0x1c
 1183 0199 06       		.uleb128 0x6
 1184 019a B2030000 		.4byte	.LASF35
 1185 019e 07       		.byte	0x7
 1186 019f 79       		.byte	0x79
 1187 01a0 EB000000 		.4byte	0xeb
 1188 01a4 20       		.byte	0x20
 1189 01a5 06       		.uleb128 0x6
 1190 01a6 D4030000 		.4byte	.LASF36
 1191 01aa 07       		.byte	0x7
 1192 01ab 7D       		.byte	0x7d
 1193 01ac E0000000 		.4byte	0xe0
 1194 01b0 21       		.byte	0x21
 1195 01b1 06       		.uleb128 0x6
 1196 01b2 4D040000 		.4byte	.LASF37
 1197 01b6 07       		.byte	0x7
 1198 01b7 8F       		.byte	0x8f
 1199 01b8 20030000 		.4byte	0x320
 1200 01bc 24       		.byte	0x24
 1201 01bd 07       		.uleb128 0x7
 1202 01be 705F7500 		.ascii	"p_u\000"
 1203 01c2 07       		.byte	0x7
 1204 01c3 B4       		.byte	0xb4
 1205 01c4 C3030000 		.4byte	0x3c3
 1206 01c8 28       		.byte	0x28
 1207 01c9 06       		.uleb128 0x6
 1208 01ca E7040000 		.4byte	.LASF38
 1209 01ce 07       		.byte	0x7
 1210 01cf B9       		.byte	0xb9
 1211 01d0 59020000 		.4byte	0x259
 1212 01d4 2C       		.byte	0x2c
 1213 01d5 06       		.uleb128 0x6
 1214 01d6 5B040000 		.4byte	.LASF39
 1215 01da 07       		.byte	0x7
 1216 01db BF       		.byte	0xbf
 1217 01dc 39020000 		.4byte	0x239
 1218 01e0 30       		.byte	0x30
 1219 01e1 06       		.uleb128 0x6
 1220 01e2 09000000 		.4byte	.LASF40
 1221 01e6 07       		.byte	0x7
 1222 01e7 C3       		.byte	0xc3
 1223 01e8 01010000 		.4byte	0x101
 1224 01ec 38       		.byte	0x38
 1225 01ed 06       		.uleb128 0x6
 1226 01ee E3030000 		.4byte	.LASF41
 1227 01f2 07       		.byte	0x7
 1228 01f3 C9       		.byte	0xc9
 1229 01f4 0C010000 		.4byte	0x10c
 1230 01f8 3C       		.byte	0x3c
 1231 01f9 06       		.uleb128 0x6
 1232 01fa 9E030000 		.4byte	.LASF42
 1233 01fe 07       		.byte	0x7
 1234 01ff D0       		.byte	0xd0
 1235 0200 10040000 		.4byte	0x410
 1236 0204 40       		.byte	0x40
 1237 0205 06       		.uleb128 0x6
 1238 0206 2D040000 		.4byte	.LASF43
ARM GAS  /tmp/cce7lV87.s 			page 23


 1239 020a 07       		.byte	0x7
 1240 020b D4       		.byte	0xd4
 1241 020c F6000000 		.4byte	0xf6
 1242 0210 44       		.byte	0x44
 1243 0211 00       		.byte	0
 1244 0212 08       		.uleb128 0x8
 1245 0213 08       		.byte	0x8
 1246 0214 06       		.byte	0x6
 1247 0215 61       		.byte	0x61
 1248 0216 33020000 		.4byte	0x233
 1249 021a 06       		.uleb128 0x6
 1250 021b C8030000 		.4byte	.LASF27
 1251 021f 06       		.byte	0x6
 1252 0220 62       		.byte	0x62
 1253 0221 33020000 		.4byte	0x233
 1254 0225 00       		.byte	0
 1255 0226 06       		.uleb128 0x6
 1256 0227 6B030000 		.4byte	.LASF28
 1257 022b 06       		.byte	0x6
 1258 022c 64       		.byte	0x64
 1259 022d 33020000 		.4byte	0x233
 1260 0231 04       		.byte	0x4
 1261 0232 00       		.byte	0
 1262 0233 09       		.uleb128 0x9
 1263 0234 04       		.byte	0x4
 1264 0235 22010000 		.4byte	0x122
 1265 0239 03       		.uleb128 0x3
 1266 023a 32030000 		.4byte	.LASF44
 1267 023e 06       		.byte	0x6
 1268 023f 66       		.byte	0x66
 1269 0240 12020000 		.4byte	0x212
 1270 0244 08       		.uleb128 0x8
 1271 0245 04       		.byte	0x4
 1272 0246 06       		.byte	0x6
 1273 0247 6B       		.byte	0x6b
 1274 0248 59020000 		.4byte	0x259
 1275 024c 06       		.uleb128 0x6
 1276 024d C8030000 		.4byte	.LASF27
 1277 0251 06       		.byte	0x6
 1278 0252 6D       		.byte	0x6d
 1279 0253 33020000 		.4byte	0x233
 1280 0257 00       		.byte	0
 1281 0258 00       		.byte	0
 1282 0259 03       		.uleb128 0x3
 1283 025a 9F020000 		.4byte	.LASF45
 1284 025e 06       		.byte	0x6
 1285 025f 70       		.byte	0x70
 1286 0260 44020000 		.4byte	0x244
 1287 0264 03       		.uleb128 0x3
 1288 0265 A1010000 		.4byte	.LASF46
 1289 0269 08       		.byte	0x8
 1290 026a E5       		.byte	0xe5
 1291 026b 6F020000 		.4byte	0x26f
 1292 026f 0A       		.uleb128 0xa
 1293 0270 04       		.byte	0x4
 1294 0271 03       		.uleb128 0x3
 1295 0272 D5020000 		.4byte	.LASF47
ARM GAS  /tmp/cce7lV87.s 			page 24


 1296 0276 08       		.byte	0x8
 1297 0277 EB       		.byte	0xeb
 1298 0278 C3000000 		.4byte	0xc3
 1299 027c 0B       		.uleb128 0xb
 1300 027d 54040000 		.4byte	.LASF48
 1301 0281 24       		.byte	0x24
 1302 0282 08       		.byte	0x8
 1303 0283 0C01     		.2byte	0x10c
 1304 0285 F8020000 		.4byte	0x2f8
 1305 0289 0C       		.uleb128 0xc
 1306 028a 723400   		.ascii	"r4\000"
 1307 028d 08       		.byte	0x8
 1308 028e 1F01     		.2byte	0x11f
 1309 0290 64020000 		.4byte	0x264
 1310 0294 00       		.byte	0
 1311 0295 0C       		.uleb128 0xc
 1312 0296 723500   		.ascii	"r5\000"
 1313 0299 08       		.byte	0x8
 1314 029a 2001     		.2byte	0x120
 1315 029c 64020000 		.4byte	0x264
 1316 02a0 04       		.byte	0x4
 1317 02a1 0C       		.uleb128 0xc
 1318 02a2 723600   		.ascii	"r6\000"
 1319 02a5 08       		.byte	0x8
 1320 02a6 2101     		.2byte	0x121
 1321 02a8 64020000 		.4byte	0x264
 1322 02ac 08       		.byte	0x8
 1323 02ad 0C       		.uleb128 0xc
 1324 02ae 723700   		.ascii	"r7\000"
 1325 02b1 08       		.byte	0x8
 1326 02b2 2201     		.2byte	0x122
 1327 02b4 64020000 		.4byte	0x264
 1328 02b8 0C       		.byte	0xc
 1329 02b9 0C       		.uleb128 0xc
 1330 02ba 723800   		.ascii	"r8\000"
 1331 02bd 08       		.byte	0x8
 1332 02be 2301     		.2byte	0x123
 1333 02c0 64020000 		.4byte	0x264
 1334 02c4 10       		.byte	0x10
 1335 02c5 0C       		.uleb128 0xc
 1336 02c6 723900   		.ascii	"r9\000"
 1337 02c9 08       		.byte	0x8
 1338 02ca 2401     		.2byte	0x124
 1339 02cc 64020000 		.4byte	0x264
 1340 02d0 14       		.byte	0x14
 1341 02d1 0C       		.uleb128 0xc
 1342 02d2 72313000 		.ascii	"r10\000"
 1343 02d6 08       		.byte	0x8
 1344 02d7 2501     		.2byte	0x125
 1345 02d9 64020000 		.4byte	0x264
 1346 02dd 18       		.byte	0x18
 1347 02de 0C       		.uleb128 0xc
 1348 02df 72313100 		.ascii	"r11\000"
 1349 02e3 08       		.byte	0x8
 1350 02e4 2601     		.2byte	0x126
 1351 02e6 64020000 		.4byte	0x264
 1352 02ea 1C       		.byte	0x1c
ARM GAS  /tmp/cce7lV87.s 			page 25


 1353 02eb 0C       		.uleb128 0xc
 1354 02ec 6C7200   		.ascii	"lr\000"
 1355 02ef 08       		.byte	0x8
 1356 02f0 2701     		.2byte	0x127
 1357 02f2 64020000 		.4byte	0x264
 1358 02f6 20       		.byte	0x20
 1359 02f7 00       		.byte	0
 1360 02f8 0B       		.uleb128 0xb
 1361 02f9 4B020000 		.4byte	.LASF49
 1362 02fd 04       		.byte	0x4
 1363 02fe 08       		.byte	0x8
 1364 02ff 3101     		.2byte	0x131
 1365 0301 13030000 		.4byte	0x313
 1366 0305 0C       		.uleb128 0xc
 1367 0306 72313300 		.ascii	"r13\000"
 1368 030a 08       		.byte	0x8
 1369 030b 3201     		.2byte	0x132
 1370 030d 13030000 		.4byte	0x313
 1371 0311 00       		.byte	0
 1372 0312 00       		.byte	0
 1373 0313 09       		.uleb128 0x9
 1374 0314 04       		.byte	0x4
 1375 0315 7C020000 		.4byte	0x27c
 1376 0319 04       		.uleb128 0x4
 1377 031a 04       		.byte	0x4
 1378 031b 07       		.byte	0x7
 1379 031c 02030000 		.4byte	.LASF50
 1380 0320 0D       		.uleb128 0xd
 1381 0321 17010000 		.4byte	0x117
 1382 0325 08       		.uleb128 0x8
 1383 0326 1C       		.byte	0x1c
 1384 0327 09       		.byte	0x9
 1385 0328 5E       		.byte	0x5e
 1386 0329 76030000 		.4byte	0x376
 1387 032d 06       		.uleb128 0x6
 1388 032e F7030000 		.4byte	.LASF51
 1389 0332 09       		.byte	0x9
 1390 0333 5F       		.byte	0x5f
 1391 0334 39020000 		.4byte	0x239
 1392 0338 00       		.byte	0
 1393 0339 06       		.uleb128 0x6
 1394 033a BA030000 		.4byte	.LASF52
 1395 033e 09       		.byte	0x9
 1396 033f 60       		.byte	0x60
 1397 0340 F6000000 		.4byte	0xf6
 1398 0344 08       		.byte	0x8
 1399 0345 06       		.uleb128 0x6
 1400 0346 2C030000 		.4byte	.LASF53
 1401 034a 09       		.byte	0x9
 1402 034b 62       		.byte	0x62
 1403 034c F8020000 		.4byte	0x2f8
 1404 0350 0C       		.byte	0xc
 1405 0351 06       		.uleb128 0x6
 1406 0352 71020000 		.4byte	.LASF54
 1407 0356 09       		.byte	0x9
 1408 0357 65       		.byte	0x65
 1409 0358 33020000 		.4byte	0x233
ARM GAS  /tmp/cce7lV87.s 			page 26


 1410 035c 10       		.byte	0x10
 1411 035d 06       		.uleb128 0x6
 1412 035e 4E030000 		.4byte	.LASF55
 1413 0362 09       		.byte	0x9
 1414 0363 66       		.byte	0x66
 1415 0364 33020000 		.4byte	0x233
 1416 0368 14       		.byte	0x14
 1417 0369 06       		.uleb128 0x6
 1418 036a 44030000 		.4byte	.LASF56
 1419 036e 09       		.byte	0x9
 1420 036f 69       		.byte	0x69
 1421 0370 33020000 		.4byte	0x233
 1422 0374 18       		.byte	0x18
 1423 0375 00       		.byte	0
 1424 0376 03       		.uleb128 0x3
 1425 0377 8E040000 		.4byte	.LASF57
 1426 037b 09       		.byte	0x9
 1427 037c 6B       		.byte	0x6b
 1428 037d 25030000 		.4byte	0x325
 1429 0381 05       		.uleb128 0x5
 1430 0382 C2020000 		.4byte	.LASF58
 1431 0386 10       		.byte	0x10
 1432 0387 0A       		.byte	0xa
 1433 0388 2C       		.byte	0x2c
 1434 0389 B2030000 		.4byte	0x3b2
 1435 038d 06       		.uleb128 0x6
 1436 038e 54010000 		.4byte	.LASF59
 1437 0392 0A       		.byte	0xa
 1438 0393 2D       		.byte	0x2d
 1439 0394 39020000 		.4byte	0x239
 1440 0398 00       		.byte	0
 1441 0399 06       		.uleb128 0x6
 1442 039a D9040000 		.4byte	.LASF60
 1443 039e 0A       		.byte	0xa
 1444 039f 2F       		.byte	0x2f
 1445 03a0 33020000 		.4byte	0x233
 1446 03a4 08       		.byte	0x8
 1447 03a5 06       		.uleb128 0x6
 1448 03a6 1C040000 		.4byte	.LASF61
 1449 03aa 0A       		.byte	0xa
 1450 03ab 31       		.byte	0x31
 1451 03ac B2030000 		.4byte	0x3b2
 1452 03b0 0C       		.byte	0xc
 1453 03b1 00       		.byte	0
 1454 03b2 09       		.uleb128 0x9
 1455 03b3 04       		.byte	0x4
 1456 03b4 81030000 		.4byte	0x381
 1457 03b8 03       		.uleb128 0x3
 1458 03b9 C2020000 		.4byte	.LASF58
 1459 03bd 0A       		.byte	0xa
 1460 03be 33       		.byte	0x33
 1461 03bf 81030000 		.4byte	0x381
 1462 03c3 0E       		.uleb128 0xe
 1463 03c4 04       		.byte	0x4
 1464 03c5 07       		.byte	0x7
 1465 03c6 96       		.byte	0x96
 1466 03c7 F8030000 		.4byte	0x3f8
ARM GAS  /tmp/cce7lV87.s 			page 27


 1467 03cb 0F       		.uleb128 0xf
 1468 03cc 1B000000 		.4byte	.LASF62
 1469 03d0 07       		.byte	0x7
 1470 03d1 9D       		.byte	0x9d
 1471 03d2 01010000 		.4byte	0x101
 1472 03d6 0F       		.uleb128 0xf
 1473 03d7 0E010000 		.4byte	.LASF63
 1474 03db 07       		.byte	0x7
 1475 03dc A4       		.byte	0xa4
 1476 03dd 01010000 		.4byte	0x101
 1477 03e1 0F       		.uleb128 0xf
 1478 03e2 AF040000 		.4byte	.LASF64
 1479 03e6 07       		.byte	0x7
 1480 03e7 AB       		.byte	0xab
 1481 03e8 6F020000 		.4byte	0x26f
 1482 03ec 0F       		.uleb128 0xf
 1483 03ed C1030000 		.4byte	.LASF65
 1484 03f1 07       		.byte	0x7
 1485 03f2 B2       		.byte	0xb2
 1486 03f3 0C010000 		.4byte	0x10c
 1487 03f7 00       		.byte	0
 1488 03f8 09       		.uleb128 0x9
 1489 03f9 04       		.byte	0x4
 1490 03fa FE030000 		.4byte	0x3fe
 1491 03fe 10       		.uleb128 0x10
 1492 03ff 03040000 		.4byte	0x403
 1493 0403 04       		.uleb128 0x4
 1494 0404 01       		.byte	0x1
 1495 0405 08       		.byte	0x8
 1496 0406 0B040000 		.4byte	.LASF66
 1497 040a 09       		.uleb128 0x9
 1498 040b 04       		.byte	0x4
 1499 040c 71020000 		.4byte	0x271
 1500 0410 09       		.uleb128 0x9
 1501 0411 04       		.byte	0x4
 1502 0412 B8030000 		.4byte	0x3b8
 1503 0416 03       		.uleb128 0x3
 1504 0417 C8020000 		.4byte	.LASF67
 1505 041b 0B       		.byte	0xb
 1506 041c 37       		.byte	0x37
 1507 041d 21040000 		.4byte	0x421
 1508 0421 05       		.uleb128 0x5
 1509 0422 C8020000 		.4byte	.LASF67
 1510 0426 24       		.byte	0x24
 1511 0427 0B       		.byte	0xb
 1512 0428 45       		.byte	0x45
 1513 0429 8E040000 		.4byte	0x48e
 1514 042d 06       		.uleb128 0x6
 1515 042e 29010000 		.4byte	.LASF68
 1516 0432 0B       		.byte	0xb
 1517 0433 46       		.byte	0x46
 1518 0434 39020000 		.4byte	0x239
 1519 0438 00       		.byte	0
 1520 0439 06       		.uleb128 0x6
 1521 043a 0B030000 		.4byte	.LASF69
 1522 043e 0B       		.byte	0xb
 1523 043f 47       		.byte	0x47
ARM GAS  /tmp/cce7lV87.s 			page 28


 1524 0440 2C000000 		.4byte	0x2c
 1525 0444 08       		.byte	0x8
 1526 0445 06       		.uleb128 0x6
 1527 0446 7D010000 		.4byte	.LASF70
 1528 044a 0B       		.byte	0xb
 1529 044b 48       		.byte	0x48
 1530 044c B0040000 		.4byte	0x4b0
 1531 0450 0C       		.byte	0xc
 1532 0451 06       		.uleb128 0x6
 1533 0452 88040000 		.4byte	.LASF71
 1534 0456 0B       		.byte	0xb
 1535 0457 49       		.byte	0x49
 1536 0458 B0040000 		.4byte	0x4b0
 1537 045c 10       		.byte	0x10
 1538 045d 06       		.uleb128 0x6
 1539 045e 86010000 		.4byte	.LASF72
 1540 0462 0B       		.byte	0xb
 1541 0463 4B       		.byte	0x4b
 1542 0464 B0040000 		.4byte	0x4b0
 1543 0468 14       		.byte	0x14
 1544 0469 06       		.uleb128 0x6
 1545 046a 7A030000 		.4byte	.LASF73
 1546 046e 0B       		.byte	0xb
 1547 046f 4C       		.byte	0x4c
 1548 0470 B0040000 		.4byte	0x4b0
 1549 0474 18       		.byte	0x18
 1550 0475 06       		.uleb128 0x6
 1551 0476 98040000 		.4byte	.LASF74
 1552 047a 0B       		.byte	0xb
 1553 047b 4D       		.byte	0x4d
 1554 047c 8E040000 		.4byte	0x48e
 1555 0480 1C       		.byte	0x1c
 1556 0481 06       		.uleb128 0x6
 1557 0482 D2040000 		.4byte	.LASF75
 1558 0486 0B       		.byte	0xb
 1559 0487 4E       		.byte	0x4e
 1560 0488 6F020000 		.4byte	0x26f
 1561 048c 20       		.byte	0x20
 1562 048d 00       		.byte	0
 1563 048e 03       		.uleb128 0x3
 1564 048f 61030000 		.4byte	.LASF76
 1565 0493 0B       		.byte	0xb
 1566 0494 3A       		.byte	0x3a
 1567 0495 99040000 		.4byte	0x499
 1568 0499 09       		.uleb128 0x9
 1569 049a 04       		.byte	0x4
 1570 049b 9F040000 		.4byte	0x49f
 1571 049f 11       		.uleb128 0x11
 1572 04a0 AA040000 		.4byte	0x4aa
 1573 04a4 12       		.uleb128 0x12
 1574 04a5 AA040000 		.4byte	0x4aa
 1575 04a9 00       		.byte	0
 1576 04aa 09       		.uleb128 0x9
 1577 04ab 04       		.byte	0x4
 1578 04ac 16040000 		.4byte	0x416
 1579 04b0 09       		.uleb128 0x9
 1580 04b1 04       		.byte	0x4
ARM GAS  /tmp/cce7lV87.s 			page 29


 1581 04b2 A2000000 		.4byte	0xa2
 1582 04b6 03       		.uleb128 0x3
 1583 04b7 B7020000 		.4byte	.LASF77
 1584 04bb 0B       		.byte	0xb
 1585 04bc 82       		.byte	0x82
 1586 04bd 16040000 		.4byte	0x416
 1587 04c1 03       		.uleb128 0x3
 1588 04c2 34000000 		.4byte	.LASF78
 1589 04c6 0B       		.byte	0xb
 1590 04c7 F5       		.byte	0xf5
 1591 04c8 16040000 		.4byte	0x416
 1592 04cc 09       		.uleb128 0x9
 1593 04cd 04       		.byte	0x4
 1594 04ce D2040000 		.4byte	0x4d2
 1595 04d2 10       		.uleb128 0x10
 1596 04d3 A2000000 		.4byte	0xa2
 1597 04d7 13       		.uleb128 0x13
 1598 04d8 5C010000 		.4byte	.LASF103
 1599 04dc 01       		.byte	0x1
 1600 04dd 46       		.byte	0x46
 1601 04de 01010000 		.4byte	0x101
 1602 04e2 00000000 		.4byte	.LFB0
 1603 04e6 2C000000 		.4byte	.LFE0-.LFB0
 1604 04ea 01       		.uleb128 0x1
 1605 04eb 9C       		.byte	0x9c
 1606 04ec 39050000 		.4byte	0x539
 1607 04f0 14       		.uleb128 0x14
 1608 04f1 717000   		.ascii	"qp\000"
 1609 04f4 01       		.byte	0x1
 1610 04f5 46       		.byte	0x46
 1611 04f6 AA040000 		.4byte	0x4aa
 1612 04fa 00000000 		.4byte	.LLST0
 1613 04fe 15       		.uleb128 0x15
 1614 04ff 3F030000 		.4byte	.LASF79
 1615 0503 01       		.byte	0x1
 1616 0504 46       		.byte	0x46
 1617 0505 17010000 		.4byte	0x117
 1618 0509 45000000 		.4byte	.LLST1
 1619 050d 16       		.uleb128 0x16
 1620 050e 1A000000 		.4byte	.LVL3
 1621 0512 0D0A0000 		.4byte	0xa0d
 1622 0516 22050000 		.4byte	0x522
 1623 051a 17       		.uleb128 0x17
 1624 051b 01       		.uleb128 0x1
 1625 051c 51       		.byte	0x51
 1626 051d 03       		.uleb128 0x3
 1627 051e F3       		.byte	0xf3
 1628 051f 01       		.uleb128 0x1
 1629 0520 50       		.byte	0x50
 1630 0521 00       		.byte	0
 1631 0522 18       		.uleb128 0x18
 1632 0523 26000000 		.4byte	.LVL5
 1633 0527 290A0000 		.4byte	0xa29
 1634 052b 17       		.uleb128 0x17
 1635 052c 01       		.uleb128 0x1
 1636 052d 51       		.byte	0x51
 1637 052e 03       		.uleb128 0x3
ARM GAS  /tmp/cce7lV87.s 			page 30


 1638 052f F3       		.byte	0xf3
 1639 0530 01       		.uleb128 0x1
 1640 0531 51       		.byte	0x51
 1641 0532 17       		.uleb128 0x17
 1642 0533 01       		.uleb128 0x1
 1643 0534 50       		.byte	0x50
 1644 0535 01       		.uleb128 0x1
 1645 0536 3D       		.byte	0x3d
 1646 0537 00       		.byte	0
 1647 0538 00       		.byte	0
 1648 0539 19       		.uleb128 0x19
 1649 053a 22000000 		.4byte	.LASF83
 1650 053e 01       		.byte	0x1
 1651 053f 5F       		.byte	0x5f
 1652 0540 00000000 		.4byte	.LFB1
 1653 0544 1E000000 		.4byte	.LFE1-.LFB1
 1654 0548 01       		.uleb128 0x1
 1655 0549 9C       		.byte	0x9c
 1656 054a 93050000 		.4byte	0x593
 1657 054e 1A       		.uleb128 0x1a
 1658 054f 69717000 		.ascii	"iqp\000"
 1659 0553 01       		.byte	0x1
 1660 0554 5F       		.byte	0x5f
 1661 0555 93050000 		.4byte	0x593
 1662 0559 01       		.uleb128 0x1
 1663 055a 50       		.byte	0x50
 1664 055b 1A       		.uleb128 0x1a
 1665 055c 627000   		.ascii	"bp\000"
 1666 055f 01       		.byte	0x1
 1667 0560 5F       		.byte	0x5f
 1668 0561 B0040000 		.4byte	0x4b0
 1669 0565 01       		.uleb128 0x1
 1670 0566 51       		.byte	0x51
 1671 0567 15       		.uleb128 0x15
 1672 0568 53020000 		.4byte	.LASF80
 1673 056c 01       		.byte	0x1
 1674 056d 5F       		.byte	0x5f
 1675 056e 2C000000 		.4byte	0x2c
 1676 0572 87000000 		.4byte	.LLST2
 1677 0576 1B       		.uleb128 0x1b
 1678 0577 CF030000 		.4byte	.LASF81
 1679 057b 01       		.byte	0x1
 1680 057c 5F       		.byte	0x5f
 1681 057d 8E040000 		.4byte	0x48e
 1682 0581 01       		.uleb128 0x1
 1683 0582 53       		.byte	0x53
 1684 0583 15       		.uleb128 0x15
 1685 0584 AA010000 		.4byte	.LASF82
 1686 0588 01       		.byte	0x1
 1687 0589 60       		.byte	0x60
 1688 058a 6F020000 		.4byte	0x26f
 1689 058e A8000000 		.4byte	.LLST3
 1690 0592 00       		.byte	0
 1691 0593 09       		.uleb128 0x9
 1692 0594 04       		.byte	0x4
 1693 0595 B6040000 		.4byte	0x4b6
 1694 0599 19       		.uleb128 0x19
ARM GAS  /tmp/cce7lV87.s 			page 31


 1695 059a DF010000 		.4byte	.LASF84
 1696 059e 01       		.byte	0x1
 1697 059f 75       		.byte	0x75
 1698 05a0 00000000 		.4byte	.LFB2
 1699 05a4 30000000 		.4byte	.LFE2-.LFB2
 1700 05a8 01       		.uleb128 0x1
 1701 05a9 9C       		.byte	0x9c
 1702 05aa E4050000 		.4byte	0x5e4
 1703 05ae 14       		.uleb128 0x14
 1704 05af 69717000 		.ascii	"iqp\000"
 1705 05b3 01       		.byte	0x1
 1706 05b4 75       		.byte	0x75
 1707 05b5 93050000 		.4byte	0x593
 1708 05b9 C8000000 		.4byte	.LLST4
 1709 05bd 1C       		.uleb128 0x1c
 1710 05be 08000000 		.4byte	.LVL11
 1711 05c2 430A0000 		.4byte	0xa43
 1712 05c6 16       		.uleb128 0x16
 1713 05c7 22000000 		.4byte	.LVL12
 1714 05cb 4A0A0000 		.4byte	0xa4a
 1715 05cf DA050000 		.4byte	0x5da
 1716 05d3 17       		.uleb128 0x17
 1717 05d4 01       		.uleb128 0x1
 1718 05d5 50       		.byte	0x50
 1719 05d6 02       		.uleb128 0x2
 1720 05d7 74       		.byte	0x74
 1721 05d8 00       		.sleb128 0
 1722 05d9 00       		.byte	0
 1723 05da 1C       		.uleb128 0x1c
 1724 05db 26000000 		.4byte	.LVL13
 1725 05df 5F0A0000 		.4byte	0xa5f
 1726 05e3 00       		.byte	0
 1727 05e4 1D       		.uleb128 0x1d
 1728 05e5 BE010000 		.4byte	.LASF85
 1729 05e9 01       		.byte	0x1
 1730 05ea 8C       		.byte	0x8c
 1731 05eb 01010000 		.4byte	0x101
 1732 05ef 00000000 		.4byte	.LFB3
 1733 05f3 56000000 		.4byte	.LFE3-.LFB3
 1734 05f7 01       		.uleb128 0x1
 1735 05f8 9C       		.byte	0x9c
 1736 05f9 40060000 		.4byte	0x640
 1737 05fd 14       		.uleb128 0x14
 1738 05fe 69717000 		.ascii	"iqp\000"
 1739 0602 01       		.byte	0x1
 1740 0603 8C       		.byte	0x8c
 1741 0604 93050000 		.4byte	0x593
 1742 0608 E6000000 		.4byte	.LLST5
 1743 060c 14       		.uleb128 0x14
 1744 060d 6200     		.ascii	"b\000"
 1745 060f 01       		.byte	0x1
 1746 0610 8C       		.byte	0x8c
 1747 0611 A2000000 		.4byte	0xa2
 1748 0615 04010000 		.4byte	.LLST6
 1749 0619 1C       		.uleb128 0x1c
 1750 061a 0A000000 		.4byte	.LVL15
 1751 061e 430A0000 		.4byte	0xa43
ARM GAS  /tmp/cce7lV87.s 			page 32


 1752 0622 16       		.uleb128 0x16
 1753 0623 32000000 		.4byte	.LVL16
 1754 0627 4A0A0000 		.4byte	0xa4a
 1755 062b 36060000 		.4byte	0x636
 1756 062f 17       		.uleb128 0x17
 1757 0630 01       		.uleb128 0x1
 1758 0631 50       		.byte	0x50
 1759 0632 02       		.uleb128 0x2
 1760 0633 74       		.byte	0x74
 1761 0634 00       		.sleb128 0
 1762 0635 00       		.byte	0
 1763 0636 1C       		.uleb128 0x1c
 1764 0637 36000000 		.4byte	.LVL17
 1765 063b 5F0A0000 		.4byte	0xa5f
 1766 063f 00       		.byte	0
 1767 0640 1D       		.uleb128 0x1d
 1768 0641 F1040000 		.4byte	.LASF86
 1769 0645 01       		.byte	0x1
 1770 0646 B2       		.byte	0xb2
 1771 0647 01010000 		.4byte	0x101
 1772 064b 00000000 		.4byte	.LFB4
 1773 064f 4E000000 		.4byte	.LFE4-.LFB4
 1774 0653 01       		.uleb128 0x1
 1775 0654 9C       		.byte	0x9c
 1776 0655 C9060000 		.4byte	0x6c9
 1777 0659 14       		.uleb128 0x14
 1778 065a 69717000 		.ascii	"iqp\000"
 1779 065e 01       		.byte	0x1
 1780 065f B2       		.byte	0xb2
 1781 0660 93050000 		.4byte	0x593
 1782 0664 25010000 		.4byte	.LLST7
 1783 0668 15       		.uleb128 0x15
 1784 0669 3F030000 		.4byte	.LASF79
 1785 066d 01       		.byte	0x1
 1786 066e B2       		.byte	0xb2
 1787 066f 17010000 		.4byte	0x117
 1788 0673 6F010000 		.4byte	.LLST8
 1789 0677 1E       		.uleb128 0x1e
 1790 0678 6200     		.ascii	"b\000"
 1791 067a 01       		.byte	0x1
 1792 067b B3       		.byte	0xb3
 1793 067c A2000000 		.4byte	0xa2
 1794 0680 C7010000 		.4byte	.LLST9
 1795 0684 1F       		.uleb128 0x1f
 1796 0685 00000000 		.4byte	.Ldebug_ranges0+0
 1797 0689 A6060000 		.4byte	0x6a6
 1798 068d 1E       		.uleb128 0x1e
 1799 068e 6D736700 		.ascii	"msg\000"
 1800 0692 01       		.byte	0x1
 1801 0693 BA       		.byte	0xba
 1802 0694 01010000 		.4byte	0x101
 1803 0698 DB010000 		.4byte	.LLST10
 1804 069c 1C       		.uleb128 0x1c
 1805 069d 1C000000 		.4byte	.LVL24
 1806 06a1 D7040000 		.4byte	0x4d7
 1807 06a5 00       		.byte	0
 1808 06a6 1C       		.uleb128 0x1c
ARM GAS  /tmp/cce7lV87.s 			page 33


 1809 06a7 0E000000 		.4byte	.LVL21
 1810 06ab 740A0000 		.4byte	0xa74
 1811 06af 20       		.uleb128 0x20
 1812 06b0 16000000 		.4byte	.LVL22
 1813 06b4 BF060000 		.4byte	0x6bf
 1814 06b8 17       		.uleb128 0x17
 1815 06b9 01       		.uleb128 0x1
 1816 06ba 50       		.byte	0x50
 1817 06bb 02       		.uleb128 0x2
 1818 06bc 74       		.byte	0x74
 1819 06bd 00       		.sleb128 0
 1820 06be 00       		.byte	0
 1821 06bf 1C       		.uleb128 0x1c
 1822 06c0 46000000 		.4byte	.LVL31
 1823 06c4 7B0A0000 		.4byte	0xa7b
 1824 06c8 00       		.byte	0
 1825 06c9 1D       		.uleb128 0x1d
 1826 06ca 4A000000 		.4byte	.LASF87
 1827 06ce 01       		.byte	0x1
 1828 06cf E2       		.byte	0xe2
 1829 06d0 2C000000 		.4byte	0x2c
 1830 06d4 00000000 		.4byte	.LFB5
 1831 06d8 96000000 		.4byte	.LFE5-.LFB5
 1832 06dc 01       		.uleb128 0x1
 1833 06dd 9C       		.byte	0x9c
 1834 06de 86070000 		.4byte	0x786
 1835 06e2 14       		.uleb128 0x14
 1836 06e3 69717000 		.ascii	"iqp\000"
 1837 06e7 01       		.byte	0x1
 1838 06e8 E2       		.byte	0xe2
 1839 06e9 93050000 		.4byte	0x593
 1840 06ed EE010000 		.4byte	.LLST11
 1841 06f1 14       		.uleb128 0x14
 1842 06f2 627000   		.ascii	"bp\000"
 1843 06f5 01       		.byte	0x1
 1844 06f6 E2       		.byte	0xe2
 1845 06f7 B0040000 		.4byte	0x4b0
 1846 06fb 4E020000 		.4byte	.LLST12
 1847 06ff 14       		.uleb128 0x14
 1848 0700 6E00     		.ascii	"n\000"
 1849 0702 01       		.byte	0x1
 1850 0703 E3       		.byte	0xe3
 1851 0704 2C000000 		.4byte	0x2c
 1852 0708 C8020000 		.4byte	.LLST13
 1853 070c 15       		.uleb128 0x15
 1854 070d 3F030000 		.4byte	.LASF79
 1855 0711 01       		.byte	0x1
 1856 0712 E3       		.byte	0xe3
 1857 0713 17010000 		.4byte	0x117
 1858 0717 0D030000 		.4byte	.LLST14
 1859 071b 21       		.uleb128 0x21
 1860 071c 6E667900 		.ascii	"nfy\000"
 1861 0720 01       		.byte	0x1
 1862 0721 E4       		.byte	0xe4
 1863 0722 8E040000 		.4byte	0x48e
 1864 0726 01       		.uleb128 0x1
 1865 0727 58       		.byte	0x58
ARM GAS  /tmp/cce7lV87.s 			page 34


 1866 0728 1E       		.uleb128 0x1e
 1867 0729 7200     		.ascii	"r\000"
 1868 072b 01       		.byte	0x1
 1869 072c E5       		.byte	0xe5
 1870 072d 2C000000 		.4byte	0x2c
 1871 0731 6D030000 		.4byte	.LLST15
 1872 0735 1C       		.uleb128 0x1c
 1873 0736 1C000000 		.4byte	.LVL35
 1874 073a 740A0000 		.4byte	0xa74
 1875 073e 20       		.uleb128 0x20
 1876 073f 30000000 		.4byte	.LVL37
 1877 0743 4E070000 		.4byte	0x74e
 1878 0747 17       		.uleb128 0x17
 1879 0748 01       		.uleb128 0x1
 1880 0749 50       		.byte	0x50
 1881 074a 02       		.uleb128 0x2
 1882 074b 74       		.byte	0x74
 1883 074c 00       		.sleb128 0
 1884 074d 00       		.byte	0
 1885 074e 1C       		.uleb128 0x1c
 1886 074f 36000000 		.4byte	.LVL39
 1887 0753 D7040000 		.4byte	0x4d7
 1888 0757 1C       		.uleb128 0x1c
 1889 0758 62000000 		.4byte	.LVL42
 1890 075c 7B0A0000 		.4byte	0xa7b
 1891 0760 1C       		.uleb128 0x1c
 1892 0761 76000000 		.4byte	.LVL44
 1893 0765 740A0000 		.4byte	0xa74
 1894 0769 1C       		.uleb128 0x1c
 1895 076a 7E000000 		.4byte	.LVL46
 1896 076e 7B0A0000 		.4byte	0xa7b
 1897 0772 22       		.uleb128 0x22
 1898 0773 94000000 		.4byte	.LVL50
 1899 0777 820A0000 		.4byte	0xa82
 1900 077b 17       		.uleb128 0x17
 1901 077c 01       		.uleb128 0x1
 1902 077d 50       		.byte	0x50
 1903 077e 05       		.uleb128 0x5
 1904 077f 03       		.byte	0x3
 1905 0780 00000000 		.4byte	.LC0
 1906 0784 00       		.byte	0
 1907 0785 00       		.byte	0
 1908 0786 23       		.uleb128 0x23
 1909 0787 00000000 		.4byte	.LASF88
 1910 078b 01       		.byte	0x1
 1911 078c 1301     		.2byte	0x113
 1912 078e 00000000 		.4byte	.LFB6
 1913 0792 1C000000 		.4byte	.LFE6-.LFB6
 1914 0796 01       		.uleb128 0x1
 1915 0797 9C       		.byte	0x9c
 1916 0798 E4070000 		.4byte	0x7e4
 1917 079c 24       		.uleb128 0x24
 1918 079d 6F717000 		.ascii	"oqp\000"
 1919 07a1 01       		.byte	0x1
 1920 07a2 1301     		.2byte	0x113
 1921 07a4 E4070000 		.4byte	0x7e4
 1922 07a8 01       		.uleb128 0x1
ARM GAS  /tmp/cce7lV87.s 			page 35


 1923 07a9 50       		.byte	0x50
 1924 07aa 24       		.uleb128 0x24
 1925 07ab 627000   		.ascii	"bp\000"
 1926 07ae 01       		.byte	0x1
 1927 07af 1301     		.2byte	0x113
 1928 07b1 B0040000 		.4byte	0x4b0
 1929 07b5 01       		.uleb128 0x1
 1930 07b6 51       		.byte	0x51
 1931 07b7 25       		.uleb128 0x25
 1932 07b8 53020000 		.4byte	.LASF80
 1933 07bc 01       		.byte	0x1
 1934 07bd 1301     		.2byte	0x113
 1935 07bf 2C000000 		.4byte	0x2c
 1936 07c3 01       		.uleb128 0x1
 1937 07c4 52       		.byte	0x52
 1938 07c5 25       		.uleb128 0x25
 1939 07c6 0F000000 		.4byte	.LASF89
 1940 07ca 01       		.byte	0x1
 1941 07cb 1301     		.2byte	0x113
 1942 07cd 8E040000 		.4byte	0x48e
 1943 07d1 01       		.uleb128 0x1
 1944 07d2 53       		.byte	0x53
 1945 07d3 26       		.uleb128 0x26
 1946 07d4 AA010000 		.4byte	.LASF82
 1947 07d8 01       		.byte	0x1
 1948 07d9 1401     		.2byte	0x114
 1949 07db 6F020000 		.4byte	0x26f
 1950 07df 98030000 		.4byte	.LLST16
 1951 07e3 00       		.byte	0
 1952 07e4 09       		.uleb128 0x9
 1953 07e5 04       		.byte	0x4
 1954 07e6 C1040000 		.4byte	0x4c1
 1955 07ea 23       		.uleb128 0x23
 1956 07eb 42040000 		.4byte	.LASF90
 1957 07ef 01       		.byte	0x1
 1958 07f0 2901     		.2byte	0x129
 1959 07f2 00000000 		.4byte	.LFB7
 1960 07f6 32000000 		.4byte	.LFE7-.LFB7
 1961 07fa 01       		.uleb128 0x1
 1962 07fb 9C       		.byte	0x9c
 1963 07fc 37080000 		.4byte	0x837
 1964 0800 27       		.uleb128 0x27
 1965 0801 6F717000 		.ascii	"oqp\000"
 1966 0805 01       		.byte	0x1
 1967 0806 2901     		.2byte	0x129
 1968 0808 E4070000 		.4byte	0x7e4
 1969 080c B8030000 		.4byte	.LLST17
 1970 0810 1C       		.uleb128 0x1c
 1971 0811 08000000 		.4byte	.LVL54
 1972 0815 430A0000 		.4byte	0xa43
 1973 0819 16       		.uleb128 0x16
 1974 081a 24000000 		.4byte	.LVL55
 1975 081e 4A0A0000 		.4byte	0xa4a
 1976 0822 2D080000 		.4byte	0x82d
 1977 0826 17       		.uleb128 0x17
 1978 0827 01       		.uleb128 0x1
 1979 0828 50       		.byte	0x50
ARM GAS  /tmp/cce7lV87.s 			page 36


 1980 0829 02       		.uleb128 0x2
 1981 082a 74       		.byte	0x74
 1982 082b 00       		.sleb128 0
 1983 082c 00       		.byte	0
 1984 082d 1C       		.uleb128 0x1c
 1985 082e 28000000 		.4byte	.LVL56
 1986 0832 5F0A0000 		.4byte	0xa5f
 1987 0836 00       		.byte	0
 1988 0837 28       		.uleb128 0x28
 1989 0838 AF010000 		.4byte	.LASF91
 1990 083c 01       		.byte	0x1
 1991 083d 4901     		.2byte	0x149
 1992 083f 01010000 		.4byte	0x101
 1993 0843 00000000 		.4byte	.LFB8
 1994 0847 5C000000 		.4byte	.LFE8-.LFB8
 1995 084b 01       		.uleb128 0x1
 1996 084c 9C       		.byte	0x9c
 1997 084d CE080000 		.4byte	0x8ce
 1998 0851 27       		.uleb128 0x27
 1999 0852 6F717000 		.ascii	"oqp\000"
 2000 0856 01       		.byte	0x1
 2001 0857 4901     		.2byte	0x149
 2002 0859 E4070000 		.4byte	0x7e4
 2003 085d D6030000 		.4byte	.LLST18
 2004 0861 27       		.uleb128 0x27
 2005 0862 6200     		.ascii	"b\000"
 2006 0864 01       		.byte	0x1
 2007 0865 4901     		.2byte	0x149
 2008 0867 A2000000 		.4byte	0xa2
 2009 086b 20040000 		.4byte	.LLST19
 2010 086f 26       		.uleb128 0x26
 2011 0870 3F030000 		.4byte	.LASF79
 2012 0874 01       		.byte	0x1
 2013 0875 4901     		.2byte	0x149
 2014 0877 17010000 		.4byte	0x117
 2015 087b 41040000 		.4byte	.LLST20
 2016 087f 1F       		.uleb128 0x1f
 2017 0880 18000000 		.4byte	.Ldebug_ranges0+0x18
 2018 0884 AB080000 		.4byte	0x8ab
 2019 0888 29       		.uleb128 0x29
 2020 0889 6D736700 		.ascii	"msg\000"
 2021 088d 01       		.byte	0x1
 2022 088e 4D01     		.2byte	0x14d
 2023 0890 01010000 		.4byte	0x101
 2024 0894 8B040000 		.4byte	.LLST21
 2025 0898 1C       		.uleb128 0x1c
 2026 0899 16000000 		.4byte	.LVL60
 2027 089d D7040000 		.4byte	0x4d7
 2028 08a1 1C       		.uleb128 0x1c
 2029 08a2 54000000 		.4byte	.LVL68
 2030 08a6 7B0A0000 		.4byte	0xa7b
 2031 08aa 00       		.byte	0
 2032 08ab 1C       		.uleb128 0x1c
 2033 08ac 10000000 		.4byte	.LVL58
 2034 08b0 740A0000 		.4byte	0xa74
 2035 08b4 20       		.uleb128 0x20
 2036 08b5 44000000 		.4byte	.LVL65
ARM GAS  /tmp/cce7lV87.s 			page 37


 2037 08b9 C4080000 		.4byte	0x8c4
 2038 08bd 17       		.uleb128 0x17
 2039 08be 01       		.uleb128 0x1
 2040 08bf 50       		.byte	0x50
 2041 08c0 02       		.uleb128 0x2
 2042 08c1 74       		.byte	0x74
 2043 08c2 00       		.sleb128 0
 2044 08c3 00       		.byte	0
 2045 08c4 1C       		.uleb128 0x1c
 2046 08c5 48000000 		.4byte	.LVL66
 2047 08c9 7B0A0000 		.4byte	0xa7b
 2048 08cd 00       		.byte	0
 2049 08ce 28       		.uleb128 0x28
 2050 08cf 74010000 		.4byte	.LASF92
 2051 08d3 01       		.byte	0x1
 2052 08d4 6B01     		.2byte	0x16b
 2053 08d6 01010000 		.4byte	0x101
 2054 08da 00000000 		.4byte	.LFB9
 2055 08de 4A000000 		.4byte	.LFE9-.LFB9
 2056 08e2 01       		.uleb128 0x1
 2057 08e3 9C       		.byte	0x9c
 2058 08e4 2D090000 		.4byte	0x92d
 2059 08e8 27       		.uleb128 0x27
 2060 08e9 6F717000 		.ascii	"oqp\000"
 2061 08ed 01       		.byte	0x1
 2062 08ee 6B01     		.2byte	0x16b
 2063 08f0 E4070000 		.4byte	0x7e4
 2064 08f4 B4040000 		.4byte	.LLST22
 2065 08f8 29       		.uleb128 0x29
 2066 08f9 6200     		.ascii	"b\000"
 2067 08fb 01       		.byte	0x1
 2068 08fc 6C01     		.2byte	0x16c
 2069 08fe A2000000 		.4byte	0xa2
 2070 0902 D2040000 		.4byte	.LLST23
 2071 0906 1C       		.uleb128 0x1c
 2072 0907 08000000 		.4byte	.LVL70
 2073 090b 430A0000 		.4byte	0xa43
 2074 090f 16       		.uleb128 0x16
 2075 0910 2E000000 		.4byte	.LVL73
 2076 0914 4A0A0000 		.4byte	0xa4a
 2077 0918 23090000 		.4byte	0x923
 2078 091c 17       		.uleb128 0x17
 2079 091d 01       		.uleb128 0x1
 2080 091e 50       		.byte	0x50
 2081 091f 02       		.uleb128 0x2
 2082 0920 74       		.byte	0x74
 2083 0921 00       		.sleb128 0
 2084 0922 00       		.byte	0
 2085 0923 1C       		.uleb128 0x1c
 2086 0924 32000000 		.4byte	.LVL74
 2087 0928 5F0A0000 		.4byte	0xa5f
 2088 092c 00       		.byte	0
 2089 092d 28       		.uleb128 0x28
 2090 092e E0020000 		.4byte	.LASF93
 2091 0932 01       		.byte	0x1
 2092 0933 9601     		.2byte	0x196
 2093 0935 2C000000 		.4byte	0x2c
ARM GAS  /tmp/cce7lV87.s 			page 38


 2094 0939 00000000 		.4byte	.LFB10
 2095 093d 90000000 		.4byte	.LFE10-.LFB10
 2096 0941 01       		.uleb128 0x1
 2097 0942 9C       		.byte	0x9c
 2098 0943 020A0000 		.4byte	0xa02
 2099 0947 27       		.uleb128 0x27
 2100 0948 6F717000 		.ascii	"oqp\000"
 2101 094c 01       		.byte	0x1
 2102 094d 9601     		.2byte	0x196
 2103 094f E4070000 		.4byte	0x7e4
 2104 0953 14050000 		.4byte	.LLST24
 2105 0957 27       		.uleb128 0x27
 2106 0958 627000   		.ascii	"bp\000"
 2107 095b 01       		.byte	0x1
 2108 095c 9601     		.2byte	0x196
 2109 095e CC040000 		.4byte	0x4cc
 2110 0962 74050000 		.4byte	.LLST25
 2111 0966 27       		.uleb128 0x27
 2112 0967 6E00     		.ascii	"n\000"
 2113 0969 01       		.byte	0x1
 2114 096a 9701     		.2byte	0x197
 2115 096c 2C000000 		.4byte	0x2c
 2116 0970 B3050000 		.4byte	.LLST26
 2117 0974 26       		.uleb128 0x26
 2118 0975 3F030000 		.4byte	.LASF79
 2119 0979 01       		.byte	0x1
 2120 097a 9701     		.2byte	0x197
 2121 097c 17010000 		.4byte	0x117
 2122 0980 FF050000 		.4byte	.LLST27
 2123 0984 2A       		.uleb128 0x2a
 2124 0985 6E667900 		.ascii	"nfy\000"
 2125 0989 01       		.byte	0x1
 2126 098a 9801     		.2byte	0x198
 2127 098c 8E040000 		.4byte	0x48e
 2128 0990 01       		.uleb128 0x1
 2129 0991 5A       		.byte	0x5a
 2130 0992 29       		.uleb128 0x29
 2131 0993 7700     		.ascii	"w\000"
 2132 0995 01       		.byte	0x1
 2133 0996 9901     		.2byte	0x199
 2134 0998 2C000000 		.4byte	0x2c
 2135 099c 33060000 		.4byte	.LLST28
 2136 09a0 1C       		.uleb128 0x1c
 2137 09a1 1C000000 		.4byte	.LVL82
 2138 09a5 740A0000 		.4byte	0xa74
 2139 09a9 20       		.uleb128 0x20
 2140 09aa 4C000000 		.4byte	.LVL86
 2141 09ae B9090000 		.4byte	0x9b9
 2142 09b2 17       		.uleb128 0x17
 2143 09b3 01       		.uleb128 0x1
 2144 09b4 50       		.byte	0x50
 2145 09b5 02       		.uleb128 0x2
 2146 09b6 74       		.byte	0x74
 2147 09b7 00       		.sleb128 0
 2148 09b8 00       		.byte	0
 2149 09b9 1C       		.uleb128 0x1c
 2150 09ba 50000000 		.4byte	.LVL87
ARM GAS  /tmp/cce7lV87.s 			page 39


 2151 09be 7B0A0000 		.4byte	0xa7b
 2152 09c2 1C       		.uleb128 0x1c
 2153 09c3 64000000 		.4byte	.LVL90
 2154 09c7 740A0000 		.4byte	0xa74
 2155 09cb 16       		.uleb128 0x16
 2156 09cc 70000000 		.4byte	.LVL93
 2157 09d0 D7040000 		.4byte	0x4d7
 2158 09d4 E5090000 		.4byte	0x9e5
 2159 09d8 17       		.uleb128 0x17
 2160 09d9 01       		.uleb128 0x1
 2161 09da 51       		.byte	0x51
 2162 09db 02       		.uleb128 0x2
 2163 09dc 7B       		.byte	0x7b
 2164 09dd 00       		.sleb128 0
 2165 09de 17       		.uleb128 0x17
 2166 09df 01       		.uleb128 0x1
 2167 09e0 50       		.byte	0x50
 2168 09e1 02       		.uleb128 0x2
 2169 09e2 74       		.byte	0x74
 2170 09e3 00       		.sleb128 0
 2171 09e4 00       		.byte	0
 2172 09e5 1C       		.uleb128 0x1c
 2173 09e6 78000000 		.4byte	.LVL94
 2174 09ea 7B0A0000 		.4byte	0xa7b
 2175 09ee 22       		.uleb128 0x22
 2176 09ef 8E000000 		.4byte	.LVL98
 2177 09f3 820A0000 		.4byte	0xa82
 2178 09f7 17       		.uleb128 0x17
 2179 09f8 01       		.uleb128 0x1
 2180 09f9 50       		.byte	0x50
 2181 09fa 05       		.uleb128 0x5
 2182 09fb 03       		.byte	0x3
 2183 09fc 14000000 		.4byte	.LC1
 2184 0a00 00       		.byte	0
 2185 0a01 00       		.byte	0
 2186 0a02 2B       		.uleb128 0x2b
 2187 0a03 A1040000 		.4byte	.LASF104
 2188 0a07 09       		.byte	0x9
 2189 0a08 6F       		.byte	0x6f
 2190 0a09 76030000 		.4byte	0x376
 2191 0a0d 2C       		.uleb128 0x2c
 2192 0a0e 8A020000 		.4byte	.LASF105
 2193 0a12 06       		.byte	0x6
 2194 0a13 78       		.byte	0x78
 2195 0a14 230A0000 		.4byte	0xa23
 2196 0a18 12       		.uleb128 0x12
 2197 0a19 33020000 		.4byte	0x233
 2198 0a1d 12       		.uleb128 0x12
 2199 0a1e 230A0000 		.4byte	0xa23
 2200 0a22 00       		.byte	0
 2201 0a23 09       		.uleb128 0x9
 2202 0a24 04       		.byte	0x4
 2203 0a25 39020000 		.4byte	0x239
 2204 0a29 2D       		.uleb128 0x2d
 2205 0a2a BD040000 		.4byte	.LASF94
 2206 0a2e 09       		.byte	0x9
 2207 0a2f 96       		.byte	0x96
ARM GAS  /tmp/cce7lV87.s 			page 40


 2208 0a30 01010000 		.4byte	0x101
 2209 0a34 430A0000 		.4byte	0xa43
 2210 0a38 12       		.uleb128 0x12
 2211 0a39 EB000000 		.4byte	0xeb
 2212 0a3d 12       		.uleb128 0x12
 2213 0a3e 17010000 		.4byte	0x117
 2214 0a42 00       		.byte	0
 2215 0a43 2E       		.uleb128 0x2e
 2216 0a44 79020000 		.4byte	.LASF97
 2217 0a48 0C       		.byte	0xc
 2218 0a49 ED       		.byte	0xed
 2219 0a4a 2D       		.uleb128 0x2d
 2220 0a4b 10040000 		.4byte	.LASF95
 2221 0a4f 06       		.byte	0x6
 2222 0a50 79       		.byte	0x79
 2223 0a51 33020000 		.4byte	0x233
 2224 0a55 5F0A0000 		.4byte	0xa5f
 2225 0a59 12       		.uleb128 0x12
 2226 0a5a 230A0000 		.4byte	0xa23
 2227 0a5e 00       		.byte	0
 2228 0a5f 2D       		.uleb128 0x2d
 2229 0a60 FF030000 		.4byte	.LASF96
 2230 0a64 09       		.byte	0x9
 2231 0a65 90       		.byte	0x90
 2232 0a66 33020000 		.4byte	0x233
 2233 0a6a 740A0000 		.4byte	0xa74
 2234 0a6e 12       		.uleb128 0x12
 2235 0a6f 33020000 		.4byte	0x233
 2236 0a73 00       		.byte	0
 2237 0a74 2E       		.uleb128 0x2e
 2238 0a75 15030000 		.4byte	.LASF98
 2239 0a79 0C       		.byte	0xc
 2240 0a7a E7       		.byte	0xe7
 2241 0a7b 2E       		.uleb128 0x2e
 2242 0a7c F1020000 		.4byte	.LASF99
 2243 0a80 0C       		.byte	0xc
 2244 0a81 E8       		.byte	0xe8
 2245 0a82 2F       		.uleb128 0x2f
 2246 0a83 17010000 		.4byte	.LASF106
 2247 0a87 0C       		.byte	0xc
 2248 0a88 F6       		.byte	0xf6
 2249 0a89 12       		.uleb128 0x12
 2250 0a8a F8030000 		.4byte	0x3f8
 2251 0a8e 00       		.byte	0
 2252 0a8f 00       		.byte	0
 2253              		.section	.debug_abbrev,"",%progbits
 2254              	.Ldebug_abbrev0:
 2255 0000 01       		.uleb128 0x1
 2256 0001 11       		.uleb128 0x11
 2257 0002 01       		.byte	0x1
 2258 0003 25       		.uleb128 0x25
 2259 0004 0E       		.uleb128 0xe
 2260 0005 13       		.uleb128 0x13
 2261 0006 0B       		.uleb128 0xb
 2262 0007 03       		.uleb128 0x3
 2263 0008 0E       		.uleb128 0xe
 2264 0009 1B       		.uleb128 0x1b
ARM GAS  /tmp/cce7lV87.s 			page 41


 2265 000a 0E       		.uleb128 0xe
 2266 000b 55       		.uleb128 0x55
 2267 000c 17       		.uleb128 0x17
 2268 000d 11       		.uleb128 0x11
 2269 000e 01       		.uleb128 0x1
 2270 000f 10       		.uleb128 0x10
 2271 0010 17       		.uleb128 0x17
 2272 0011 00       		.byte	0
 2273 0012 00       		.byte	0
 2274 0013 02       		.uleb128 0x2
 2275 0014 24       		.uleb128 0x24
 2276 0015 00       		.byte	0
 2277 0016 0B       		.uleb128 0xb
 2278 0017 0B       		.uleb128 0xb
 2279 0018 3E       		.uleb128 0x3e
 2280 0019 0B       		.uleb128 0xb
 2281 001a 03       		.uleb128 0x3
 2282 001b 08       		.uleb128 0x8
 2283 001c 00       		.byte	0
 2284 001d 00       		.byte	0
 2285 001e 03       		.uleb128 0x3
 2286 001f 16       		.uleb128 0x16
 2287 0020 00       		.byte	0
 2288 0021 03       		.uleb128 0x3
 2289 0022 0E       		.uleb128 0xe
 2290 0023 3A       		.uleb128 0x3a
 2291 0024 0B       		.uleb128 0xb
 2292 0025 3B       		.uleb128 0x3b
 2293 0026 0B       		.uleb128 0xb
 2294 0027 49       		.uleb128 0x49
 2295 0028 13       		.uleb128 0x13
 2296 0029 00       		.byte	0
 2297 002a 00       		.byte	0
 2298 002b 04       		.uleb128 0x4
 2299 002c 24       		.uleb128 0x24
 2300 002d 00       		.byte	0
 2301 002e 0B       		.uleb128 0xb
 2302 002f 0B       		.uleb128 0xb
 2303 0030 3E       		.uleb128 0x3e
 2304 0031 0B       		.uleb128 0xb
 2305 0032 03       		.uleb128 0x3
 2306 0033 0E       		.uleb128 0xe
 2307 0034 00       		.byte	0
 2308 0035 00       		.byte	0
 2309 0036 05       		.uleb128 0x5
 2310 0037 13       		.uleb128 0x13
 2311 0038 01       		.byte	0x1
 2312 0039 03       		.uleb128 0x3
 2313 003a 0E       		.uleb128 0xe
 2314 003b 0B       		.uleb128 0xb
 2315 003c 0B       		.uleb128 0xb
 2316 003d 3A       		.uleb128 0x3a
 2317 003e 0B       		.uleb128 0xb
 2318 003f 3B       		.uleb128 0x3b
 2319 0040 0B       		.uleb128 0xb
 2320 0041 01       		.uleb128 0x1
 2321 0042 13       		.uleb128 0x13
ARM GAS  /tmp/cce7lV87.s 			page 42


 2322 0043 00       		.byte	0
 2323 0044 00       		.byte	0
 2324 0045 06       		.uleb128 0x6
 2325 0046 0D       		.uleb128 0xd
 2326 0047 00       		.byte	0
 2327 0048 03       		.uleb128 0x3
 2328 0049 0E       		.uleb128 0xe
 2329 004a 3A       		.uleb128 0x3a
 2330 004b 0B       		.uleb128 0xb
 2331 004c 3B       		.uleb128 0x3b
 2332 004d 0B       		.uleb128 0xb
 2333 004e 49       		.uleb128 0x49
 2334 004f 13       		.uleb128 0x13
 2335 0050 38       		.uleb128 0x38
 2336 0051 0B       		.uleb128 0xb
 2337 0052 00       		.byte	0
 2338 0053 00       		.byte	0
 2339 0054 07       		.uleb128 0x7
 2340 0055 0D       		.uleb128 0xd
 2341 0056 00       		.byte	0
 2342 0057 03       		.uleb128 0x3
 2343 0058 08       		.uleb128 0x8
 2344 0059 3A       		.uleb128 0x3a
 2345 005a 0B       		.uleb128 0xb
 2346 005b 3B       		.uleb128 0x3b
 2347 005c 0B       		.uleb128 0xb
 2348 005d 49       		.uleb128 0x49
 2349 005e 13       		.uleb128 0x13
 2350 005f 38       		.uleb128 0x38
 2351 0060 0B       		.uleb128 0xb
 2352 0061 00       		.byte	0
 2353 0062 00       		.byte	0
 2354 0063 08       		.uleb128 0x8
 2355 0064 13       		.uleb128 0x13
 2356 0065 01       		.byte	0x1
 2357 0066 0B       		.uleb128 0xb
 2358 0067 0B       		.uleb128 0xb
 2359 0068 3A       		.uleb128 0x3a
 2360 0069 0B       		.uleb128 0xb
 2361 006a 3B       		.uleb128 0x3b
 2362 006b 0B       		.uleb128 0xb
 2363 006c 01       		.uleb128 0x1
 2364 006d 13       		.uleb128 0x13
 2365 006e 00       		.byte	0
 2366 006f 00       		.byte	0
 2367 0070 09       		.uleb128 0x9
 2368 0071 0F       		.uleb128 0xf
 2369 0072 00       		.byte	0
 2370 0073 0B       		.uleb128 0xb
 2371 0074 0B       		.uleb128 0xb
 2372 0075 49       		.uleb128 0x49
 2373 0076 13       		.uleb128 0x13
 2374 0077 00       		.byte	0
 2375 0078 00       		.byte	0
 2376 0079 0A       		.uleb128 0xa
 2377 007a 0F       		.uleb128 0xf
 2378 007b 00       		.byte	0
ARM GAS  /tmp/cce7lV87.s 			page 43


 2379 007c 0B       		.uleb128 0xb
 2380 007d 0B       		.uleb128 0xb
 2381 007e 00       		.byte	0
 2382 007f 00       		.byte	0
 2383 0080 0B       		.uleb128 0xb
 2384 0081 13       		.uleb128 0x13
 2385 0082 01       		.byte	0x1
 2386 0083 03       		.uleb128 0x3
 2387 0084 0E       		.uleb128 0xe
 2388 0085 0B       		.uleb128 0xb
 2389 0086 0B       		.uleb128 0xb
 2390 0087 3A       		.uleb128 0x3a
 2391 0088 0B       		.uleb128 0xb
 2392 0089 3B       		.uleb128 0x3b
 2393 008a 05       		.uleb128 0x5
 2394 008b 01       		.uleb128 0x1
 2395 008c 13       		.uleb128 0x13
 2396 008d 00       		.byte	0
 2397 008e 00       		.byte	0
 2398 008f 0C       		.uleb128 0xc
 2399 0090 0D       		.uleb128 0xd
 2400 0091 00       		.byte	0
 2401 0092 03       		.uleb128 0x3
 2402 0093 08       		.uleb128 0x8
 2403 0094 3A       		.uleb128 0x3a
 2404 0095 0B       		.uleb128 0xb
 2405 0096 3B       		.uleb128 0x3b
 2406 0097 05       		.uleb128 0x5
 2407 0098 49       		.uleb128 0x49
 2408 0099 13       		.uleb128 0x13
 2409 009a 38       		.uleb128 0x38
 2410 009b 0B       		.uleb128 0xb
 2411 009c 00       		.byte	0
 2412 009d 00       		.byte	0
 2413 009e 0D       		.uleb128 0xd
 2414 009f 35       		.uleb128 0x35
 2415 00a0 00       		.byte	0
 2416 00a1 49       		.uleb128 0x49
 2417 00a2 13       		.uleb128 0x13
 2418 00a3 00       		.byte	0
 2419 00a4 00       		.byte	0
 2420 00a5 0E       		.uleb128 0xe
 2421 00a6 17       		.uleb128 0x17
 2422 00a7 01       		.byte	0x1
 2423 00a8 0B       		.uleb128 0xb
 2424 00a9 0B       		.uleb128 0xb
 2425 00aa 3A       		.uleb128 0x3a
 2426 00ab 0B       		.uleb128 0xb
 2427 00ac 3B       		.uleb128 0x3b
 2428 00ad 0B       		.uleb128 0xb
 2429 00ae 01       		.uleb128 0x1
 2430 00af 13       		.uleb128 0x13
 2431 00b0 00       		.byte	0
 2432 00b1 00       		.byte	0
 2433 00b2 0F       		.uleb128 0xf
 2434 00b3 0D       		.uleb128 0xd
 2435 00b4 00       		.byte	0
ARM GAS  /tmp/cce7lV87.s 			page 44


 2436 00b5 03       		.uleb128 0x3
 2437 00b6 0E       		.uleb128 0xe
 2438 00b7 3A       		.uleb128 0x3a
 2439 00b8 0B       		.uleb128 0xb
 2440 00b9 3B       		.uleb128 0x3b
 2441 00ba 0B       		.uleb128 0xb
 2442 00bb 49       		.uleb128 0x49
 2443 00bc 13       		.uleb128 0x13
 2444 00bd 00       		.byte	0
 2445 00be 00       		.byte	0
 2446 00bf 10       		.uleb128 0x10
 2447 00c0 26       		.uleb128 0x26
 2448 00c1 00       		.byte	0
 2449 00c2 49       		.uleb128 0x49
 2450 00c3 13       		.uleb128 0x13
 2451 00c4 00       		.byte	0
 2452 00c5 00       		.byte	0
 2453 00c6 11       		.uleb128 0x11
 2454 00c7 15       		.uleb128 0x15
 2455 00c8 01       		.byte	0x1
 2456 00c9 27       		.uleb128 0x27
 2457 00ca 19       		.uleb128 0x19
 2458 00cb 01       		.uleb128 0x1
 2459 00cc 13       		.uleb128 0x13
 2460 00cd 00       		.byte	0
 2461 00ce 00       		.byte	0
 2462 00cf 12       		.uleb128 0x12
 2463 00d0 05       		.uleb128 0x5
 2464 00d1 00       		.byte	0
 2465 00d2 49       		.uleb128 0x49
 2466 00d3 13       		.uleb128 0x13
 2467 00d4 00       		.byte	0
 2468 00d5 00       		.byte	0
 2469 00d6 13       		.uleb128 0x13
 2470 00d7 2E       		.uleb128 0x2e
 2471 00d8 01       		.byte	0x1
 2472 00d9 03       		.uleb128 0x3
 2473 00da 0E       		.uleb128 0xe
 2474 00db 3A       		.uleb128 0x3a
 2475 00dc 0B       		.uleb128 0xb
 2476 00dd 3B       		.uleb128 0x3b
 2477 00de 0B       		.uleb128 0xb
 2478 00df 27       		.uleb128 0x27
 2479 00e0 19       		.uleb128 0x19
 2480 00e1 49       		.uleb128 0x49
 2481 00e2 13       		.uleb128 0x13
 2482 00e3 11       		.uleb128 0x11
 2483 00e4 01       		.uleb128 0x1
 2484 00e5 12       		.uleb128 0x12
 2485 00e6 06       		.uleb128 0x6
 2486 00e7 40       		.uleb128 0x40
 2487 00e8 18       		.uleb128 0x18
 2488 00e9 9742     		.uleb128 0x2117
 2489 00eb 19       		.uleb128 0x19
 2490 00ec 01       		.uleb128 0x1
 2491 00ed 13       		.uleb128 0x13
 2492 00ee 00       		.byte	0
ARM GAS  /tmp/cce7lV87.s 			page 45


 2493 00ef 00       		.byte	0
 2494 00f0 14       		.uleb128 0x14
 2495 00f1 05       		.uleb128 0x5
 2496 00f2 00       		.byte	0
 2497 00f3 03       		.uleb128 0x3
 2498 00f4 08       		.uleb128 0x8
 2499 00f5 3A       		.uleb128 0x3a
 2500 00f6 0B       		.uleb128 0xb
 2501 00f7 3B       		.uleb128 0x3b
 2502 00f8 0B       		.uleb128 0xb
 2503 00f9 49       		.uleb128 0x49
 2504 00fa 13       		.uleb128 0x13
 2505 00fb 02       		.uleb128 0x2
 2506 00fc 17       		.uleb128 0x17
 2507 00fd 00       		.byte	0
 2508 00fe 00       		.byte	0
 2509 00ff 15       		.uleb128 0x15
 2510 0100 05       		.uleb128 0x5
 2511 0101 00       		.byte	0
 2512 0102 03       		.uleb128 0x3
 2513 0103 0E       		.uleb128 0xe
 2514 0104 3A       		.uleb128 0x3a
 2515 0105 0B       		.uleb128 0xb
 2516 0106 3B       		.uleb128 0x3b
 2517 0107 0B       		.uleb128 0xb
 2518 0108 49       		.uleb128 0x49
 2519 0109 13       		.uleb128 0x13
 2520 010a 02       		.uleb128 0x2
 2521 010b 17       		.uleb128 0x17
 2522 010c 00       		.byte	0
 2523 010d 00       		.byte	0
 2524 010e 16       		.uleb128 0x16
 2525 010f 898201   		.uleb128 0x4109
 2526 0112 01       		.byte	0x1
 2527 0113 11       		.uleb128 0x11
 2528 0114 01       		.uleb128 0x1
 2529 0115 31       		.uleb128 0x31
 2530 0116 13       		.uleb128 0x13
 2531 0117 01       		.uleb128 0x1
 2532 0118 13       		.uleb128 0x13
 2533 0119 00       		.byte	0
 2534 011a 00       		.byte	0
 2535 011b 17       		.uleb128 0x17
 2536 011c 8A8201   		.uleb128 0x410a
 2537 011f 00       		.byte	0
 2538 0120 02       		.uleb128 0x2
 2539 0121 18       		.uleb128 0x18
 2540 0122 9142     		.uleb128 0x2111
 2541 0124 18       		.uleb128 0x18
 2542 0125 00       		.byte	0
 2543 0126 00       		.byte	0
 2544 0127 18       		.uleb128 0x18
 2545 0128 898201   		.uleb128 0x4109
 2546 012b 01       		.byte	0x1
 2547 012c 11       		.uleb128 0x11
 2548 012d 01       		.uleb128 0x1
 2549 012e 9542     		.uleb128 0x2115
ARM GAS  /tmp/cce7lV87.s 			page 46


 2550 0130 19       		.uleb128 0x19
 2551 0131 31       		.uleb128 0x31
 2552 0132 13       		.uleb128 0x13
 2553 0133 00       		.byte	0
 2554 0134 00       		.byte	0
 2555 0135 19       		.uleb128 0x19
 2556 0136 2E       		.uleb128 0x2e
 2557 0137 01       		.byte	0x1
 2558 0138 3F       		.uleb128 0x3f
 2559 0139 19       		.uleb128 0x19
 2560 013a 03       		.uleb128 0x3
 2561 013b 0E       		.uleb128 0xe
 2562 013c 3A       		.uleb128 0x3a
 2563 013d 0B       		.uleb128 0xb
 2564 013e 3B       		.uleb128 0x3b
 2565 013f 0B       		.uleb128 0xb
 2566 0140 27       		.uleb128 0x27
 2567 0141 19       		.uleb128 0x19
 2568 0142 11       		.uleb128 0x11
 2569 0143 01       		.uleb128 0x1
 2570 0144 12       		.uleb128 0x12
 2571 0145 06       		.uleb128 0x6
 2572 0146 40       		.uleb128 0x40
 2573 0147 18       		.uleb128 0x18
 2574 0148 9742     		.uleb128 0x2117
 2575 014a 19       		.uleb128 0x19
 2576 014b 01       		.uleb128 0x1
 2577 014c 13       		.uleb128 0x13
 2578 014d 00       		.byte	0
 2579 014e 00       		.byte	0
 2580 014f 1A       		.uleb128 0x1a
 2581 0150 05       		.uleb128 0x5
 2582 0151 00       		.byte	0
 2583 0152 03       		.uleb128 0x3
 2584 0153 08       		.uleb128 0x8
 2585 0154 3A       		.uleb128 0x3a
 2586 0155 0B       		.uleb128 0xb
 2587 0156 3B       		.uleb128 0x3b
 2588 0157 0B       		.uleb128 0xb
 2589 0158 49       		.uleb128 0x49
 2590 0159 13       		.uleb128 0x13
 2591 015a 02       		.uleb128 0x2
 2592 015b 18       		.uleb128 0x18
 2593 015c 00       		.byte	0
 2594 015d 00       		.byte	0
 2595 015e 1B       		.uleb128 0x1b
 2596 015f 05       		.uleb128 0x5
 2597 0160 00       		.byte	0
 2598 0161 03       		.uleb128 0x3
 2599 0162 0E       		.uleb128 0xe
 2600 0163 3A       		.uleb128 0x3a
 2601 0164 0B       		.uleb128 0xb
 2602 0165 3B       		.uleb128 0x3b
 2603 0166 0B       		.uleb128 0xb
 2604 0167 49       		.uleb128 0x49
 2605 0168 13       		.uleb128 0x13
 2606 0169 02       		.uleb128 0x2
ARM GAS  /tmp/cce7lV87.s 			page 47


 2607 016a 18       		.uleb128 0x18
 2608 016b 00       		.byte	0
 2609 016c 00       		.byte	0
 2610 016d 1C       		.uleb128 0x1c
 2611 016e 898201   		.uleb128 0x4109
 2612 0171 00       		.byte	0
 2613 0172 11       		.uleb128 0x11
 2614 0173 01       		.uleb128 0x1
 2615 0174 31       		.uleb128 0x31
 2616 0175 13       		.uleb128 0x13
 2617 0176 00       		.byte	0
 2618 0177 00       		.byte	0
 2619 0178 1D       		.uleb128 0x1d
 2620 0179 2E       		.uleb128 0x2e
 2621 017a 01       		.byte	0x1
 2622 017b 3F       		.uleb128 0x3f
 2623 017c 19       		.uleb128 0x19
 2624 017d 03       		.uleb128 0x3
 2625 017e 0E       		.uleb128 0xe
 2626 017f 3A       		.uleb128 0x3a
 2627 0180 0B       		.uleb128 0xb
 2628 0181 3B       		.uleb128 0x3b
 2629 0182 0B       		.uleb128 0xb
 2630 0183 27       		.uleb128 0x27
 2631 0184 19       		.uleb128 0x19
 2632 0185 49       		.uleb128 0x49
 2633 0186 13       		.uleb128 0x13
 2634 0187 11       		.uleb128 0x11
 2635 0188 01       		.uleb128 0x1
 2636 0189 12       		.uleb128 0x12
 2637 018a 06       		.uleb128 0x6
 2638 018b 40       		.uleb128 0x40
 2639 018c 18       		.uleb128 0x18
 2640 018d 9742     		.uleb128 0x2117
 2641 018f 19       		.uleb128 0x19
 2642 0190 01       		.uleb128 0x1
 2643 0191 13       		.uleb128 0x13
 2644 0192 00       		.byte	0
 2645 0193 00       		.byte	0
 2646 0194 1E       		.uleb128 0x1e
 2647 0195 34       		.uleb128 0x34
 2648 0196 00       		.byte	0
 2649 0197 03       		.uleb128 0x3
 2650 0198 08       		.uleb128 0x8
 2651 0199 3A       		.uleb128 0x3a
 2652 019a 0B       		.uleb128 0xb
 2653 019b 3B       		.uleb128 0x3b
 2654 019c 0B       		.uleb128 0xb
 2655 019d 49       		.uleb128 0x49
 2656 019e 13       		.uleb128 0x13
 2657 019f 02       		.uleb128 0x2
 2658 01a0 17       		.uleb128 0x17
 2659 01a1 00       		.byte	0
 2660 01a2 00       		.byte	0
 2661 01a3 1F       		.uleb128 0x1f
 2662 01a4 0B       		.uleb128 0xb
 2663 01a5 01       		.byte	0x1
ARM GAS  /tmp/cce7lV87.s 			page 48


 2664 01a6 55       		.uleb128 0x55
 2665 01a7 17       		.uleb128 0x17
 2666 01a8 01       		.uleb128 0x1
 2667 01a9 13       		.uleb128 0x13
 2668 01aa 00       		.byte	0
 2669 01ab 00       		.byte	0
 2670 01ac 20       		.uleb128 0x20
 2671 01ad 898201   		.uleb128 0x4109
 2672 01b0 01       		.byte	0x1
 2673 01b1 11       		.uleb128 0x11
 2674 01b2 01       		.uleb128 0x1
 2675 01b3 01       		.uleb128 0x1
 2676 01b4 13       		.uleb128 0x13
 2677 01b5 00       		.byte	0
 2678 01b6 00       		.byte	0
 2679 01b7 21       		.uleb128 0x21
 2680 01b8 34       		.uleb128 0x34
 2681 01b9 00       		.byte	0
 2682 01ba 03       		.uleb128 0x3
 2683 01bb 08       		.uleb128 0x8
 2684 01bc 3A       		.uleb128 0x3a
 2685 01bd 0B       		.uleb128 0xb
 2686 01be 3B       		.uleb128 0x3b
 2687 01bf 0B       		.uleb128 0xb
 2688 01c0 49       		.uleb128 0x49
 2689 01c1 13       		.uleb128 0x13
 2690 01c2 02       		.uleb128 0x2
 2691 01c3 18       		.uleb128 0x18
 2692 01c4 00       		.byte	0
 2693 01c5 00       		.byte	0
 2694 01c6 22       		.uleb128 0x22
 2695 01c7 898201   		.uleb128 0x4109
 2696 01ca 01       		.byte	0x1
 2697 01cb 11       		.uleb128 0x11
 2698 01cc 01       		.uleb128 0x1
 2699 01cd 31       		.uleb128 0x31
 2700 01ce 13       		.uleb128 0x13
 2701 01cf 00       		.byte	0
 2702 01d0 00       		.byte	0
 2703 01d1 23       		.uleb128 0x23
 2704 01d2 2E       		.uleb128 0x2e
 2705 01d3 01       		.byte	0x1
 2706 01d4 3F       		.uleb128 0x3f
 2707 01d5 19       		.uleb128 0x19
 2708 01d6 03       		.uleb128 0x3
 2709 01d7 0E       		.uleb128 0xe
 2710 01d8 3A       		.uleb128 0x3a
 2711 01d9 0B       		.uleb128 0xb
 2712 01da 3B       		.uleb128 0x3b
 2713 01db 05       		.uleb128 0x5
 2714 01dc 27       		.uleb128 0x27
 2715 01dd 19       		.uleb128 0x19
 2716 01de 11       		.uleb128 0x11
 2717 01df 01       		.uleb128 0x1
 2718 01e0 12       		.uleb128 0x12
 2719 01e1 06       		.uleb128 0x6
 2720 01e2 40       		.uleb128 0x40
ARM GAS  /tmp/cce7lV87.s 			page 49


 2721 01e3 18       		.uleb128 0x18
 2722 01e4 9742     		.uleb128 0x2117
 2723 01e6 19       		.uleb128 0x19
 2724 01e7 01       		.uleb128 0x1
 2725 01e8 13       		.uleb128 0x13
 2726 01e9 00       		.byte	0
 2727 01ea 00       		.byte	0
 2728 01eb 24       		.uleb128 0x24
 2729 01ec 05       		.uleb128 0x5
 2730 01ed 00       		.byte	0
 2731 01ee 03       		.uleb128 0x3
 2732 01ef 08       		.uleb128 0x8
 2733 01f0 3A       		.uleb128 0x3a
 2734 01f1 0B       		.uleb128 0xb
 2735 01f2 3B       		.uleb128 0x3b
 2736 01f3 05       		.uleb128 0x5
 2737 01f4 49       		.uleb128 0x49
 2738 01f5 13       		.uleb128 0x13
 2739 01f6 02       		.uleb128 0x2
 2740 01f7 18       		.uleb128 0x18
 2741 01f8 00       		.byte	0
 2742 01f9 00       		.byte	0
 2743 01fa 25       		.uleb128 0x25
 2744 01fb 05       		.uleb128 0x5
 2745 01fc 00       		.byte	0
 2746 01fd 03       		.uleb128 0x3
 2747 01fe 0E       		.uleb128 0xe
 2748 01ff 3A       		.uleb128 0x3a
 2749 0200 0B       		.uleb128 0xb
 2750 0201 3B       		.uleb128 0x3b
 2751 0202 05       		.uleb128 0x5
 2752 0203 49       		.uleb128 0x49
 2753 0204 13       		.uleb128 0x13
 2754 0205 02       		.uleb128 0x2
 2755 0206 18       		.uleb128 0x18
 2756 0207 00       		.byte	0
 2757 0208 00       		.byte	0
 2758 0209 26       		.uleb128 0x26
 2759 020a 05       		.uleb128 0x5
 2760 020b 00       		.byte	0
 2761 020c 03       		.uleb128 0x3
 2762 020d 0E       		.uleb128 0xe
 2763 020e 3A       		.uleb128 0x3a
 2764 020f 0B       		.uleb128 0xb
 2765 0210 3B       		.uleb128 0x3b
 2766 0211 05       		.uleb128 0x5
 2767 0212 49       		.uleb128 0x49
 2768 0213 13       		.uleb128 0x13
 2769 0214 02       		.uleb128 0x2
 2770 0215 17       		.uleb128 0x17
 2771 0216 00       		.byte	0
 2772 0217 00       		.byte	0
 2773 0218 27       		.uleb128 0x27
 2774 0219 05       		.uleb128 0x5
 2775 021a 00       		.byte	0
 2776 021b 03       		.uleb128 0x3
 2777 021c 08       		.uleb128 0x8
ARM GAS  /tmp/cce7lV87.s 			page 50


 2778 021d 3A       		.uleb128 0x3a
 2779 021e 0B       		.uleb128 0xb
 2780 021f 3B       		.uleb128 0x3b
 2781 0220 05       		.uleb128 0x5
 2782 0221 49       		.uleb128 0x49
 2783 0222 13       		.uleb128 0x13
 2784 0223 02       		.uleb128 0x2
 2785 0224 17       		.uleb128 0x17
 2786 0225 00       		.byte	0
 2787 0226 00       		.byte	0
 2788 0227 28       		.uleb128 0x28
 2789 0228 2E       		.uleb128 0x2e
 2790 0229 01       		.byte	0x1
 2791 022a 3F       		.uleb128 0x3f
 2792 022b 19       		.uleb128 0x19
 2793 022c 03       		.uleb128 0x3
 2794 022d 0E       		.uleb128 0xe
 2795 022e 3A       		.uleb128 0x3a
 2796 022f 0B       		.uleb128 0xb
 2797 0230 3B       		.uleb128 0x3b
 2798 0231 05       		.uleb128 0x5
 2799 0232 27       		.uleb128 0x27
 2800 0233 19       		.uleb128 0x19
 2801 0234 49       		.uleb128 0x49
 2802 0235 13       		.uleb128 0x13
 2803 0236 11       		.uleb128 0x11
 2804 0237 01       		.uleb128 0x1
 2805 0238 12       		.uleb128 0x12
 2806 0239 06       		.uleb128 0x6
 2807 023a 40       		.uleb128 0x40
 2808 023b 18       		.uleb128 0x18
 2809 023c 9742     		.uleb128 0x2117
 2810 023e 19       		.uleb128 0x19
 2811 023f 01       		.uleb128 0x1
 2812 0240 13       		.uleb128 0x13
 2813 0241 00       		.byte	0
 2814 0242 00       		.byte	0
 2815 0243 29       		.uleb128 0x29
 2816 0244 34       		.uleb128 0x34
 2817 0245 00       		.byte	0
 2818 0246 03       		.uleb128 0x3
 2819 0247 08       		.uleb128 0x8
 2820 0248 3A       		.uleb128 0x3a
 2821 0249 0B       		.uleb128 0xb
 2822 024a 3B       		.uleb128 0x3b
 2823 024b 05       		.uleb128 0x5
 2824 024c 49       		.uleb128 0x49
 2825 024d 13       		.uleb128 0x13
 2826 024e 02       		.uleb128 0x2
 2827 024f 17       		.uleb128 0x17
 2828 0250 00       		.byte	0
 2829 0251 00       		.byte	0
 2830 0252 2A       		.uleb128 0x2a
 2831 0253 34       		.uleb128 0x34
 2832 0254 00       		.byte	0
 2833 0255 03       		.uleb128 0x3
 2834 0256 08       		.uleb128 0x8
ARM GAS  /tmp/cce7lV87.s 			page 51


 2835 0257 3A       		.uleb128 0x3a
 2836 0258 0B       		.uleb128 0xb
 2837 0259 3B       		.uleb128 0x3b
 2838 025a 05       		.uleb128 0x5
 2839 025b 49       		.uleb128 0x49
 2840 025c 13       		.uleb128 0x13
 2841 025d 02       		.uleb128 0x2
 2842 025e 18       		.uleb128 0x18
 2843 025f 00       		.byte	0
 2844 0260 00       		.byte	0
 2845 0261 2B       		.uleb128 0x2b
 2846 0262 34       		.uleb128 0x34
 2847 0263 00       		.byte	0
 2848 0264 03       		.uleb128 0x3
 2849 0265 0E       		.uleb128 0xe
 2850 0266 3A       		.uleb128 0x3a
 2851 0267 0B       		.uleb128 0xb
 2852 0268 3B       		.uleb128 0x3b
 2853 0269 0B       		.uleb128 0xb
 2854 026a 49       		.uleb128 0x49
 2855 026b 13       		.uleb128 0x13
 2856 026c 3F       		.uleb128 0x3f
 2857 026d 19       		.uleb128 0x19
 2858 026e 3C       		.uleb128 0x3c
 2859 026f 19       		.uleb128 0x19
 2860 0270 00       		.byte	0
 2861 0271 00       		.byte	0
 2862 0272 2C       		.uleb128 0x2c
 2863 0273 2E       		.uleb128 0x2e
 2864 0274 01       		.byte	0x1
 2865 0275 3F       		.uleb128 0x3f
 2866 0276 19       		.uleb128 0x19
 2867 0277 03       		.uleb128 0x3
 2868 0278 0E       		.uleb128 0xe
 2869 0279 3A       		.uleb128 0x3a
 2870 027a 0B       		.uleb128 0xb
 2871 027b 3B       		.uleb128 0x3b
 2872 027c 0B       		.uleb128 0xb
 2873 027d 27       		.uleb128 0x27
 2874 027e 19       		.uleb128 0x19
 2875 027f 3C       		.uleb128 0x3c
 2876 0280 19       		.uleb128 0x19
 2877 0281 01       		.uleb128 0x1
 2878 0282 13       		.uleb128 0x13
 2879 0283 00       		.byte	0
 2880 0284 00       		.byte	0
 2881 0285 2D       		.uleb128 0x2d
 2882 0286 2E       		.uleb128 0x2e
 2883 0287 01       		.byte	0x1
 2884 0288 3F       		.uleb128 0x3f
 2885 0289 19       		.uleb128 0x19
 2886 028a 03       		.uleb128 0x3
 2887 028b 0E       		.uleb128 0xe
 2888 028c 3A       		.uleb128 0x3a
 2889 028d 0B       		.uleb128 0xb
 2890 028e 3B       		.uleb128 0x3b
 2891 028f 0B       		.uleb128 0xb
ARM GAS  /tmp/cce7lV87.s 			page 52


 2892 0290 27       		.uleb128 0x27
 2893 0291 19       		.uleb128 0x19
 2894 0292 49       		.uleb128 0x49
 2895 0293 13       		.uleb128 0x13
 2896 0294 3C       		.uleb128 0x3c
 2897 0295 19       		.uleb128 0x19
 2898 0296 01       		.uleb128 0x1
 2899 0297 13       		.uleb128 0x13
 2900 0298 00       		.byte	0
 2901 0299 00       		.byte	0
 2902 029a 2E       		.uleb128 0x2e
 2903 029b 2E       		.uleb128 0x2e
 2904 029c 00       		.byte	0
 2905 029d 3F       		.uleb128 0x3f
 2906 029e 19       		.uleb128 0x19
 2907 029f 03       		.uleb128 0x3
 2908 02a0 0E       		.uleb128 0xe
 2909 02a1 3A       		.uleb128 0x3a
 2910 02a2 0B       		.uleb128 0xb
 2911 02a3 3B       		.uleb128 0x3b
 2912 02a4 0B       		.uleb128 0xb
 2913 02a5 27       		.uleb128 0x27
 2914 02a6 19       		.uleb128 0x19
 2915 02a7 3C       		.uleb128 0x3c
 2916 02a8 19       		.uleb128 0x19
 2917 02a9 00       		.byte	0
 2918 02aa 00       		.byte	0
 2919 02ab 2F       		.uleb128 0x2f
 2920 02ac 2E       		.uleb128 0x2e
 2921 02ad 01       		.byte	0x1
 2922 02ae 3F       		.uleb128 0x3f
 2923 02af 19       		.uleb128 0x19
 2924 02b0 03       		.uleb128 0x3
 2925 02b1 0E       		.uleb128 0xe
 2926 02b2 3A       		.uleb128 0x3a
 2927 02b3 0B       		.uleb128 0xb
 2928 02b4 3B       		.uleb128 0x3b
 2929 02b5 0B       		.uleb128 0xb
 2930 02b6 27       		.uleb128 0x27
 2931 02b7 19       		.uleb128 0x19
 2932 02b8 3C       		.uleb128 0x3c
 2933 02b9 19       		.uleb128 0x19
 2934 02ba 00       		.byte	0
 2935 02bb 00       		.byte	0
 2936 02bc 00       		.byte	0
 2937              		.section	.debug_loc,"",%progbits
 2938              	.Ldebug_loc0:
 2939              	.LLST0:
 2940 0000 00000000 		.4byte	.LVL0
 2941 0004 16000000 		.4byte	.LVL2
 2942 0008 0100     		.2byte	0x1
 2943 000a 50       		.byte	0x50
 2944 000b 16000000 		.4byte	.LVL2
 2945 000f 19000000 		.4byte	.LVL3-1
 2946 0013 0100     		.2byte	0x1
 2947 0015 51       		.byte	0x51
 2948 0016 19000000 		.4byte	.LVL3-1
ARM GAS  /tmp/cce7lV87.s 			page 53


 2949 001a 26000000 		.4byte	.LVL5
 2950 001e 0400     		.2byte	0x4
 2951 0020 F3       		.byte	0xf3
 2952 0021 01       		.uleb128 0x1
 2953 0022 50       		.byte	0x50
 2954 0023 9F       		.byte	0x9f
 2955 0024 26000000 		.4byte	.LVL5
 2956 0028 2A000000 		.4byte	.LVL6
 2957 002c 0100     		.2byte	0x1
 2958 002e 50       		.byte	0x50
 2959 002f 2A000000 		.4byte	.LVL6
 2960 0033 2C000000 		.4byte	.LFE0
 2961 0037 0400     		.2byte	0x4
 2962 0039 F3       		.byte	0xf3
 2963 003a 01       		.uleb128 0x1
 2964 003b 50       		.byte	0x50
 2965 003c 9F       		.byte	0x9f
 2966 003d 00000000 		.4byte	0
 2967 0041 00000000 		.4byte	0
 2968              	.LLST1:
 2969 0045 00000000 		.4byte	.LVL0
 2970 0049 10000000 		.4byte	.LVL1
 2971 004d 0100     		.2byte	0x1
 2972 004f 51       		.byte	0x51
 2973 0050 10000000 		.4byte	.LVL1
 2974 0054 22000000 		.4byte	.LVL4
 2975 0058 0100     		.2byte	0x1
 2976 005a 54       		.byte	0x54
 2977 005b 22000000 		.4byte	.LVL4
 2978 005f 25000000 		.4byte	.LVL5-1
 2979 0063 0100     		.2byte	0x1
 2980 0065 51       		.byte	0x51
 2981 0066 25000000 		.4byte	.LVL5-1
 2982 006a 26000000 		.4byte	.LVL5
 2983 006e 0400     		.2byte	0x4
 2984 0070 F3       		.byte	0xf3
 2985 0071 01       		.uleb128 0x1
 2986 0072 51       		.byte	0x51
 2987 0073 9F       		.byte	0x9f
 2988 0074 26000000 		.4byte	.LVL5
 2989 0078 2C000000 		.4byte	.LFE0
 2990 007c 0100     		.2byte	0x1
 2991 007e 51       		.byte	0x51
 2992 007f 00000000 		.4byte	0
 2993 0083 00000000 		.4byte	0
 2994              	.LLST2:
 2995 0087 00000000 		.4byte	.LVL7
 2996 008b 0A000000 		.4byte	.LVL8
 2997 008f 0100     		.2byte	0x1
 2998 0091 52       		.byte	0x52
 2999 0092 0A000000 		.4byte	.LVL8
 3000 0096 1E000000 		.4byte	.LFE1
 3001 009a 0400     		.2byte	0x4
 3002 009c F3       		.byte	0xf3
 3003 009d 01       		.uleb128 0x1
 3004 009e 52       		.byte	0x52
 3005 009f 9F       		.byte	0x9f
ARM GAS  /tmp/cce7lV87.s 			page 54


 3006 00a0 00000000 		.4byte	0
 3007 00a4 00000000 		.4byte	0
 3008              	.LLST3:
 3009 00a8 00000000 		.4byte	.LVL7
 3010 00ac 1C000000 		.4byte	.LVL9
 3011 00b0 0200     		.2byte	0x2
 3012 00b2 91       		.byte	0x91
 3013 00b3 00       		.sleb128 0
 3014 00b4 1C000000 		.4byte	.LVL9
 3015 00b8 1E000000 		.4byte	.LFE1
 3016 00bc 0200     		.2byte	0x2
 3017 00be 7D       		.byte	0x7d
 3018 00bf 00       		.sleb128 0
 3019 00c0 00000000 		.4byte	0
 3020 00c4 00000000 		.4byte	0
 3021              	.LLST4:
 3022 00c8 00000000 		.4byte	.LVL10
 3023 00cc 07000000 		.4byte	.LVL11-1
 3024 00d0 0100     		.2byte	0x1
 3025 00d2 50       		.byte	0x50
 3026 00d3 07000000 		.4byte	.LVL11-1
 3027 00d7 30000000 		.4byte	.LFE2
 3028 00db 0100     		.2byte	0x1
 3029 00dd 54       		.byte	0x54
 3030 00de 00000000 		.4byte	0
 3031 00e2 00000000 		.4byte	0
 3032              	.LLST5:
 3033 00e6 00000000 		.4byte	.LVL14
 3034 00ea 09000000 		.4byte	.LVL15-1
 3035 00ee 0100     		.2byte	0x1
 3036 00f0 50       		.byte	0x50
 3037 00f1 09000000 		.4byte	.LVL15-1
 3038 00f5 56000000 		.4byte	.LFE3
 3039 00f9 0100     		.2byte	0x1
 3040 00fb 54       		.byte	0x54
 3041 00fc 00000000 		.4byte	0
 3042 0100 00000000 		.4byte	0
 3043              	.LLST6:
 3044 0104 00000000 		.4byte	.LVL14
 3045 0108 09000000 		.4byte	.LVL15-1
 3046 010c 0100     		.2byte	0x1
 3047 010e 51       		.byte	0x51
 3048 010f 09000000 		.4byte	.LVL15-1
 3049 0113 56000000 		.4byte	.LFE3
 3050 0117 0400     		.2byte	0x4
 3051 0119 F3       		.byte	0xf3
 3052 011a 01       		.uleb128 0x1
 3053 011b 51       		.byte	0x51
 3054 011c 9F       		.byte	0x9f
 3055 011d 00000000 		.4byte	0
 3056 0121 00000000 		.4byte	0
 3057              	.LLST7:
 3058 0125 00000000 		.4byte	.LVL20
 3059 0129 0D000000 		.4byte	.LVL21-1
 3060 012d 0100     		.2byte	0x1
 3061 012f 50       		.byte	0x50
 3062 0130 0D000000 		.4byte	.LVL21-1
ARM GAS  /tmp/cce7lV87.s 			page 55


 3063 0134 18000000 		.4byte	.LVL23
 3064 0138 0100     		.2byte	0x1
 3065 013a 54       		.byte	0x54
 3066 013b 18000000 		.4byte	.LVL23
 3067 013f 1B000000 		.4byte	.LVL24-1
 3068 0143 0100     		.2byte	0x1
 3069 0145 50       		.byte	0x50
 3070 0146 1B000000 		.4byte	.LVL24-1
 3071 014a 2A000000 		.4byte	.LVL26
 3072 014e 0100     		.2byte	0x1
 3073 0150 54       		.byte	0x54
 3074 0151 2A000000 		.4byte	.LVL26
 3075 0155 42000000 		.4byte	.LVL30
 3076 0159 0100     		.2byte	0x1
 3077 015b 50       		.byte	0x50
 3078 015c 42000000 		.4byte	.LVL30
 3079 0160 4E000000 		.4byte	.LFE4
 3080 0164 0100     		.2byte	0x1
 3081 0166 54       		.byte	0x54
 3082 0167 00000000 		.4byte	0
 3083 016b 00000000 		.4byte	0
 3084              	.LLST8:
 3085 016f 00000000 		.4byte	.LVL20
 3086 0173 0D000000 		.4byte	.LVL21-1
 3087 0177 0100     		.2byte	0x1
 3088 0179 51       		.byte	0x51
 3089 017a 0D000000 		.4byte	.LVL21-1
 3090 017e 18000000 		.4byte	.LVL23
 3091 0182 0100     		.2byte	0x1
 3092 0184 55       		.byte	0x55
 3093 0185 18000000 		.4byte	.LVL23
 3094 0189 1B000000 		.4byte	.LVL24-1
 3095 018d 0100     		.2byte	0x1
 3096 018f 51       		.byte	0x51
 3097 0190 1B000000 		.4byte	.LVL24-1
 3098 0194 2A000000 		.4byte	.LVL26
 3099 0198 0100     		.2byte	0x1
 3100 019a 55       		.byte	0x55
 3101 019b 2A000000 		.4byte	.LVL26
 3102 019f 2C000000 		.4byte	.LVL27
 3103 01a3 0100     		.2byte	0x1
 3104 01a5 51       		.byte	0x51
 3105 01a6 2C000000 		.4byte	.LVL27
 3106 01aa 2E000000 		.4byte	.LVL28
 3107 01ae 0100     		.2byte	0x1
 3108 01b0 55       		.byte	0x55
 3109 01b1 2E000000 		.4byte	.LVL28
 3110 01b5 4E000000 		.4byte	.LFE4
 3111 01b9 0400     		.2byte	0x4
 3112 01bb F3       		.byte	0xf3
 3113 01bc 01       		.uleb128 0x1
 3114 01bd 51       		.byte	0x51
 3115 01be 9F       		.byte	0x9f
 3116 01bf 00000000 		.4byte	0
 3117 01c3 00000000 		.4byte	0
 3118              	.LLST9:
 3119 01c7 3E000000 		.4byte	.LVL29
ARM GAS  /tmp/cce7lV87.s 			page 56


 3120 01cb 42000000 		.4byte	.LVL30
 3121 01cf 0200     		.2byte	0x2
 3122 01d1 71       		.byte	0x71
 3123 01d2 00       		.sleb128 0
 3124 01d3 00000000 		.4byte	0
 3125 01d7 00000000 		.4byte	0
 3126              	.LLST10:
 3127 01db 1C000000 		.4byte	.LVL24
 3128 01df 20000000 		.4byte	.LVL25
 3129 01e3 0100     		.2byte	0x1
 3130 01e5 50       		.byte	0x50
 3131 01e6 00000000 		.4byte	0
 3132 01ea 00000000 		.4byte	0
 3133              	.LLST11:
 3134 01ee 00000000 		.4byte	.LVL32
 3135 01f2 14000000 		.4byte	.LVL34
 3136 01f6 0100     		.2byte	0x1
 3137 01f8 50       		.byte	0x50
 3138 01f9 14000000 		.4byte	.LVL34
 3139 01fd 32000000 		.4byte	.LVL38
 3140 0201 0100     		.2byte	0x1
 3141 0203 54       		.byte	0x54
 3142 0204 32000000 		.4byte	.LVL38
 3143 0208 35000000 		.4byte	.LVL39-1
 3144 020c 0100     		.2byte	0x1
 3145 020e 50       		.byte	0x50
 3146 020f 35000000 		.4byte	.LVL39-1
 3147 0213 42000000 		.4byte	.LVL40
 3148 0217 0100     		.2byte	0x1
 3149 0219 54       		.byte	0x54
 3150 021a 42000000 		.4byte	.LVL40
 3151 021e 61000000 		.4byte	.LVL42-1
 3152 0222 0100     		.2byte	0x1
 3153 0224 50       		.byte	0x50
 3154 0225 61000000 		.4byte	.LVL42-1
 3155 0229 88000000 		.4byte	.LVL48
 3156 022d 0100     		.2byte	0x1
 3157 022f 54       		.byte	0x54
 3158 0230 88000000 		.4byte	.LVL48
 3159 0234 8C000000 		.4byte	.LVL49
 3160 0238 0100     		.2byte	0x1
 3161 023a 50       		.byte	0x50
 3162 023b 8C000000 		.4byte	.LVL49
 3163 023f 96000000 		.4byte	.LFE5
 3164 0243 0100     		.2byte	0x1
 3165 0245 54       		.byte	0x54
 3166 0246 00000000 		.4byte	0
 3167 024a 00000000 		.4byte	0
 3168              	.LLST12:
 3169 024e 00000000 		.4byte	.LVL32
 3170 0252 14000000 		.4byte	.LVL34
 3171 0256 0100     		.2byte	0x1
 3172 0258 51       		.byte	0x51
 3173 0259 14000000 		.4byte	.LVL34
 3174 025d 26000000 		.4byte	.LVL36
 3175 0261 0100     		.2byte	0x1
 3176 0263 57       		.byte	0x57
ARM GAS  /tmp/cce7lV87.s 			page 57


 3177 0264 26000000 		.4byte	.LVL36
 3178 0268 4C000000 		.4byte	.LVL41
 3179 026c 0700     		.2byte	0x7
 3180 026e F3       		.byte	0xf3
 3181 026f 01       		.uleb128 0x1
 3182 0270 51       		.byte	0x51
 3183 0271 79       		.byte	0x79
 3184 0272 00       		.sleb128 0
 3185 0273 22       		.byte	0x22
 3186 0274 9F       		.byte	0x9f
 3187 0275 4C000000 		.4byte	.LVL41
 3188 0279 6C000000 		.4byte	.LVL43
 3189 027d 0900     		.2byte	0x9
 3190 027f F3       		.byte	0xf3
 3191 0280 01       		.uleb128 0x1
 3192 0281 51       		.byte	0x51
 3193 0282 79       		.byte	0x79
 3194 0283 00       		.sleb128 0
 3195 0284 22       		.byte	0x22
 3196 0285 23       		.byte	0x23
 3197 0286 01       		.uleb128 0x1
 3198 0287 9F       		.byte	0x9f
 3199 0288 6C000000 		.4byte	.LVL43
 3200 028c 7A000000 		.4byte	.LVL45
 3201 0290 0700     		.2byte	0x7
 3202 0292 79       		.byte	0x79
 3203 0293 00       		.sleb128 0
 3204 0294 F3       		.byte	0xf3
 3205 0295 01       		.uleb128 0x1
 3206 0296 51       		.byte	0x51
 3207 0297 22       		.byte	0x22
 3208 0298 9F       		.byte	0x9f
 3209 0299 7A000000 		.4byte	.LVL45
 3210 029d 82000000 		.4byte	.LVL47
 3211 02a1 0700     		.2byte	0x7
 3212 02a3 F3       		.byte	0xf3
 3213 02a4 01       		.uleb128 0x1
 3214 02a5 51       		.byte	0x51
 3215 02a6 79       		.byte	0x79
 3216 02a7 00       		.sleb128 0
 3217 02a8 22       		.byte	0x22
 3218 02a9 9F       		.byte	0x9f
 3219 02aa 88000000 		.4byte	.LVL48
 3220 02ae 93000000 		.4byte	.LVL50-1
 3221 02b2 0100     		.2byte	0x1
 3222 02b4 51       		.byte	0x51
 3223 02b5 93000000 		.4byte	.LVL50-1
 3224 02b9 96000000 		.4byte	.LFE5
 3225 02bd 0100     		.2byte	0x1
 3226 02bf 57       		.byte	0x57
 3227 02c0 00000000 		.4byte	0
 3228 02c4 00000000 		.4byte	0
 3229              	.LLST13:
 3230 02c8 00000000 		.4byte	.LVL32
 3231 02cc 14000000 		.4byte	.LVL34
 3232 02d0 0100     		.2byte	0x1
 3233 02d2 52       		.byte	0x52
ARM GAS  /tmp/cce7lV87.s 			page 58


 3234 02d3 14000000 		.4byte	.LVL34
 3235 02d7 26000000 		.4byte	.LVL36
 3236 02db 0100     		.2byte	0x1
 3237 02dd 55       		.byte	0x55
 3238 02de 26000000 		.4byte	.LVL36
 3239 02e2 82000000 		.4byte	.LVL47
 3240 02e6 0700     		.2byte	0x7
 3241 02e8 F3       		.byte	0xf3
 3242 02e9 01       		.uleb128 0x1
 3243 02ea 52       		.byte	0x52
 3244 02eb 79       		.byte	0x79
 3245 02ec 00       		.sleb128 0
 3246 02ed 1C       		.byte	0x1c
 3247 02ee 9F       		.byte	0x9f
 3248 02ef 88000000 		.4byte	.LVL48
 3249 02f3 93000000 		.4byte	.LVL50-1
 3250 02f7 0100     		.2byte	0x1
 3251 02f9 52       		.byte	0x52
 3252 02fa 93000000 		.4byte	.LVL50-1
 3253 02fe 96000000 		.4byte	.LFE5
 3254 0302 0100     		.2byte	0x1
 3255 0304 55       		.byte	0x55
 3256 0305 00000000 		.4byte	0
 3257 0309 00000000 		.4byte	0
 3258              	.LLST14:
 3259 030d 00000000 		.4byte	.LVL32
 3260 0311 14000000 		.4byte	.LVL34
 3261 0315 0100     		.2byte	0x1
 3262 0317 53       		.byte	0x53
 3263 0318 14000000 		.4byte	.LVL34
 3264 031c 32000000 		.4byte	.LVL38
 3265 0320 0100     		.2byte	0x1
 3266 0322 56       		.byte	0x56
 3267 0323 32000000 		.4byte	.LVL38
 3268 0327 35000000 		.4byte	.LVL39-1
 3269 032b 0100     		.2byte	0x1
 3270 032d 51       		.byte	0x51
 3271 032e 35000000 		.4byte	.LVL39-1
 3272 0332 42000000 		.4byte	.LVL40
 3273 0336 0100     		.2byte	0x1
 3274 0338 56       		.byte	0x56
 3275 0339 42000000 		.4byte	.LVL40
 3276 033d 61000000 		.4byte	.LVL42-1
 3277 0341 0100     		.2byte	0x1
 3278 0343 51       		.byte	0x51
 3279 0344 61000000 		.4byte	.LVL42-1
 3280 0348 88000000 		.4byte	.LVL48
 3281 034c 0100     		.2byte	0x1
 3282 034e 56       		.byte	0x56
 3283 034f 88000000 		.4byte	.LVL48
 3284 0353 93000000 		.4byte	.LVL50-1
 3285 0357 0100     		.2byte	0x1
 3286 0359 53       		.byte	0x53
 3287 035a 93000000 		.4byte	.LVL50-1
 3288 035e 96000000 		.4byte	.LFE5
 3289 0362 0100     		.2byte	0x1
 3290 0364 56       		.byte	0x56
ARM GAS  /tmp/cce7lV87.s 			page 59


 3291 0365 00000000 		.4byte	0
 3292 0369 00000000 		.4byte	0
 3293              	.LLST15:
 3294 036d 10000000 		.4byte	.LVL33
 3295 0371 26000000 		.4byte	.LVL36
 3296 0375 0200     		.2byte	0x2
 3297 0377 30       		.byte	0x30
 3298 0378 9F       		.byte	0x9f
 3299 0379 26000000 		.4byte	.LVL36
 3300 037d 88000000 		.4byte	.LVL48
 3301 0381 0100     		.2byte	0x1
 3302 0383 59       		.byte	0x59
 3303 0384 88000000 		.4byte	.LVL48
 3304 0388 96000000 		.4byte	.LFE5
 3305 038c 0200     		.2byte	0x2
 3306 038e 30       		.byte	0x30
 3307 038f 9F       		.byte	0x9f
 3308 0390 00000000 		.4byte	0
 3309 0394 00000000 		.4byte	0
 3310              	.LLST16:
 3311 0398 00000000 		.4byte	.LVL51
 3312 039c 1A000000 		.4byte	.LVL52
 3313 03a0 0200     		.2byte	0x2
 3314 03a2 91       		.byte	0x91
 3315 03a3 00       		.sleb128 0
 3316 03a4 1A000000 		.4byte	.LVL52
 3317 03a8 1C000000 		.4byte	.LFE6
 3318 03ac 0200     		.2byte	0x2
 3319 03ae 7D       		.byte	0x7d
 3320 03af 00       		.sleb128 0
 3321 03b0 00000000 		.4byte	0
 3322 03b4 00000000 		.4byte	0
 3323              	.LLST17:
 3324 03b8 00000000 		.4byte	.LVL53
 3325 03bc 07000000 		.4byte	.LVL54-1
 3326 03c0 0100     		.2byte	0x1
 3327 03c2 50       		.byte	0x50
 3328 03c3 07000000 		.4byte	.LVL54-1
 3329 03c7 32000000 		.4byte	.LFE7
 3330 03cb 0100     		.2byte	0x1
 3331 03cd 54       		.byte	0x54
 3332 03ce 00000000 		.4byte	0
 3333 03d2 00000000 		.4byte	0
 3334              	.LLST18:
 3335 03d6 00000000 		.4byte	.LVL57
 3336 03da 0F000000 		.4byte	.LVL58-1
 3337 03de 0100     		.2byte	0x1
 3338 03e0 50       		.byte	0x50
 3339 03e1 0F000000 		.4byte	.LVL58-1
 3340 03e5 12000000 		.4byte	.LVL59
 3341 03e9 0100     		.2byte	0x1
 3342 03eb 54       		.byte	0x54
 3343 03ec 12000000 		.4byte	.LVL59
 3344 03f0 15000000 		.4byte	.LVL60-1
 3345 03f4 0100     		.2byte	0x1
 3346 03f6 50       		.byte	0x50
 3347 03f7 15000000 		.4byte	.LVL60-1
ARM GAS  /tmp/cce7lV87.s 			page 60


 3348 03fb 24000000 		.4byte	.LVL62
 3349 03ff 0100     		.2byte	0x1
 3350 0401 54       		.byte	0x54
 3351 0402 24000000 		.4byte	.LVL62
 3352 0406 42000000 		.4byte	.LVL64
 3353 040a 0100     		.2byte	0x1
 3354 040c 50       		.byte	0x50
 3355 040d 42000000 		.4byte	.LVL64
 3356 0411 5C000000 		.4byte	.LFE8
 3357 0415 0100     		.2byte	0x1
 3358 0417 54       		.byte	0x54
 3359 0418 00000000 		.4byte	0
 3360 041c 00000000 		.4byte	0
 3361              	.LLST19:
 3362 0420 00000000 		.4byte	.LVL57
 3363 0424 0F000000 		.4byte	.LVL58-1
 3364 0428 0100     		.2byte	0x1
 3365 042a 51       		.byte	0x51
 3366 042b 0F000000 		.4byte	.LVL58-1
 3367 042f 5C000000 		.4byte	.LFE8
 3368 0433 0400     		.2byte	0x4
 3369 0435 F3       		.byte	0xf3
 3370 0436 01       		.uleb128 0x1
 3371 0437 51       		.byte	0x51
 3372 0438 9F       		.byte	0x9f
 3373 0439 00000000 		.4byte	0
 3374 043d 00000000 		.4byte	0
 3375              	.LLST20:
 3376 0441 00000000 		.4byte	.LVL57
 3377 0445 0F000000 		.4byte	.LVL58-1
 3378 0449 0100     		.2byte	0x1
 3379 044b 52       		.byte	0x52
 3380 044c 0F000000 		.4byte	.LVL58-1
 3381 0450 12000000 		.4byte	.LVL59
 3382 0454 0100     		.2byte	0x1
 3383 0456 55       		.byte	0x55
 3384 0457 12000000 		.4byte	.LVL59
 3385 045b 15000000 		.4byte	.LVL60-1
 3386 045f 0100     		.2byte	0x1
 3387 0461 51       		.byte	0x51
 3388 0462 15000000 		.4byte	.LVL60-1
 3389 0466 24000000 		.4byte	.LVL62
 3390 046a 0100     		.2byte	0x1
 3391 046c 55       		.byte	0x55
 3392 046d 24000000 		.4byte	.LVL62
 3393 0471 2A000000 		.4byte	.LVL63
 3394 0475 0100     		.2byte	0x1
 3395 0477 51       		.byte	0x51
 3396 0478 2A000000 		.4byte	.LVL63
 3397 047c 5C000000 		.4byte	.LFE8
 3398 0480 0100     		.2byte	0x1
 3399 0482 55       		.byte	0x55
 3400 0483 00000000 		.4byte	0
 3401 0487 00000000 		.4byte	0
 3402              	.LLST21:
 3403 048b 16000000 		.4byte	.LVL60
 3404 048f 1A000000 		.4byte	.LVL61
ARM GAS  /tmp/cce7lV87.s 			page 61


 3405 0493 0100     		.2byte	0x1
 3406 0495 50       		.byte	0x50
 3407 0496 50000000 		.4byte	.LVL67
 3408 049a 53000000 		.4byte	.LVL68-1
 3409 049e 0100     		.2byte	0x1
 3410 04a0 50       		.byte	0x50
 3411 04a1 53000000 		.4byte	.LVL68-1
 3412 04a5 5C000000 		.4byte	.LFE8
 3413 04a9 0100     		.2byte	0x1
 3414 04ab 56       		.byte	0x56
 3415 04ac 00000000 		.4byte	0
 3416 04b0 00000000 		.4byte	0
 3417              	.LLST22:
 3418 04b4 00000000 		.4byte	.LVL69
 3419 04b8 07000000 		.4byte	.LVL70-1
 3420 04bc 0100     		.2byte	0x1
 3421 04be 50       		.byte	0x50
 3422 04bf 07000000 		.4byte	.LVL70-1
 3423 04c3 4A000000 		.4byte	.LFE9
 3424 04c7 0100     		.2byte	0x1
 3425 04c9 54       		.byte	0x54
 3426 04ca 00000000 		.4byte	0
 3427 04ce 00000000 		.4byte	0
 3428              	.LLST23:
 3429 04d2 20000000 		.4byte	.LVL71
 3430 04d6 22000000 		.4byte	.LVL72
 3431 04da 0200     		.2byte	0x2
 3432 04dc 73       		.byte	0x73
 3433 04dd 00       		.sleb128 0
 3434 04de 22000000 		.4byte	.LVL72
 3435 04e2 3A000000 		.4byte	.LVL75
 3436 04e6 0100     		.2byte	0x1
 3437 04e8 55       		.byte	0x55
 3438 04e9 3A000000 		.4byte	.LVL75
 3439 04ed 3C000000 		.4byte	.LVL76
 3440 04f1 0200     		.2byte	0x2
 3441 04f3 73       		.byte	0x73
 3442 04f4 00       		.sleb128 0
 3443 04f5 3C000000 		.4byte	.LVL76
 3444 04f9 3E000000 		.4byte	.LVL77
 3445 04fd 0200     		.2byte	0x2
 3446 04ff 72       		.byte	0x72
 3447 0500 7F       		.sleb128 -1
 3448 0501 3E000000 		.4byte	.LVL77
 3449 0505 40000000 		.4byte	.LVL78
 3450 0509 0100     		.2byte	0x1
 3451 050b 55       		.byte	0x55
 3452 050c 00000000 		.4byte	0
 3453 0510 00000000 		.4byte	0
 3454              	.LLST24:
 3455 0514 00000000 		.4byte	.LVL79
 3456 0518 14000000 		.4byte	.LVL81
 3457 051c 0100     		.2byte	0x1
 3458 051e 50       		.byte	0x50
 3459 051f 14000000 		.4byte	.LVL81
 3460 0523 2C000000 		.4byte	.LVL85
 3461 0527 0100     		.2byte	0x1
ARM GAS  /tmp/cce7lV87.s 			page 62


 3462 0529 54       		.byte	0x54
 3463 052a 2C000000 		.4byte	.LVL85
 3464 052e 4B000000 		.4byte	.LVL86-1
 3465 0532 0100     		.2byte	0x1
 3466 0534 50       		.byte	0x50
 3467 0535 4B000000 		.4byte	.LVL86-1
 3468 0539 68000000 		.4byte	.LVL91
 3469 053d 0100     		.2byte	0x1
 3470 053f 54       		.byte	0x54
 3471 0540 68000000 		.4byte	.LVL91
 3472 0544 6A000000 		.4byte	.LVL92
 3473 0548 0100     		.2byte	0x1
 3474 054a 50       		.byte	0x50
 3475 054b 6A000000 		.4byte	.LVL92
 3476 054f 82000000 		.4byte	.LVL96
 3477 0553 0100     		.2byte	0x1
 3478 0555 54       		.byte	0x54
 3479 0556 82000000 		.4byte	.LVL96
 3480 055a 86000000 		.4byte	.LVL97
 3481 055e 0100     		.2byte	0x1
 3482 0560 50       		.byte	0x50
 3483 0561 86000000 		.4byte	.LVL97
 3484 0565 90000000 		.4byte	.LFE10
 3485 0569 0100     		.2byte	0x1
 3486 056b 54       		.byte	0x54
 3487 056c 00000000 		.4byte	0
 3488 0570 00000000 		.4byte	0
 3489              	.LLST25:
 3490 0574 00000000 		.4byte	.LVL79
 3491 0578 14000000 		.4byte	.LVL81
 3492 057c 0100     		.2byte	0x1
 3493 057e 51       		.byte	0x51
 3494 057f 14000000 		.4byte	.LVL81
 3495 0583 26000000 		.4byte	.LVL84
 3496 0587 0100     		.2byte	0x1
 3497 0589 56       		.byte	0x56
 3498 058a 26000000 		.4byte	.LVL84
 3499 058e 82000000 		.4byte	.LVL96
 3500 0592 0100     		.2byte	0x1
 3501 0594 58       		.byte	0x58
 3502 0595 82000000 		.4byte	.LVL96
 3503 0599 8D000000 		.4byte	.LVL98-1
 3504 059d 0100     		.2byte	0x1
 3505 059f 51       		.byte	0x51
 3506 05a0 8D000000 		.4byte	.LVL98-1
 3507 05a4 90000000 		.4byte	.LFE10
 3508 05a8 0100     		.2byte	0x1
 3509 05aa 56       		.byte	0x56
 3510 05ab 00000000 		.4byte	0
 3511 05af 00000000 		.4byte	0
 3512              	.LLST26:
 3513 05b3 00000000 		.4byte	.LVL79
 3514 05b7 14000000 		.4byte	.LVL81
 3515 05bb 0100     		.2byte	0x1
 3516 05bd 52       		.byte	0x52
 3517 05be 14000000 		.4byte	.LVL81
 3518 05c2 56000000 		.4byte	.LVL88
ARM GAS  /tmp/cce7lV87.s 			page 63


 3519 05c6 0100     		.2byte	0x1
 3520 05c8 57       		.byte	0x57
 3521 05c9 56000000 		.4byte	.LVL88
 3522 05cd 5A000000 		.4byte	.LVL89
 3523 05d1 0300     		.2byte	0x3
 3524 05d3 77       		.byte	0x77
 3525 05d4 01       		.sleb128 1
 3526 05d5 9F       		.byte	0x9f
 3527 05d6 68000000 		.4byte	.LVL91
 3528 05da 7C000000 		.4byte	.LVL95
 3529 05de 0100     		.2byte	0x1
 3530 05e0 57       		.byte	0x57
 3531 05e1 82000000 		.4byte	.LVL96
 3532 05e5 8D000000 		.4byte	.LVL98-1
 3533 05e9 0100     		.2byte	0x1
 3534 05eb 52       		.byte	0x52
 3535 05ec 8D000000 		.4byte	.LVL98-1
 3536 05f0 90000000 		.4byte	.LFE10
 3537 05f4 0100     		.2byte	0x1
 3538 05f6 57       		.byte	0x57
 3539 05f7 00000000 		.4byte	0
 3540 05fb 00000000 		.4byte	0
 3541              	.LLST27:
 3542 05ff 00000000 		.4byte	.LVL79
 3543 0603 14000000 		.4byte	.LVL81
 3544 0607 0100     		.2byte	0x1
 3545 0609 53       		.byte	0x53
 3546 060a 14000000 		.4byte	.LVL81
 3547 060e 82000000 		.4byte	.LVL96
 3548 0612 0100     		.2byte	0x1
 3549 0614 5B       		.byte	0x5b
 3550 0615 82000000 		.4byte	.LVL96
 3551 0619 8D000000 		.4byte	.LVL98-1
 3552 061d 0100     		.2byte	0x1
 3553 061f 53       		.byte	0x53
 3554 0620 8D000000 		.4byte	.LVL98-1
 3555 0624 90000000 		.4byte	.LFE10
 3556 0628 0100     		.2byte	0x1
 3557 062a 5B       		.byte	0x5b
 3558 062b 00000000 		.4byte	0
 3559 062f 00000000 		.4byte	0
 3560              	.LLST28:
 3561 0633 10000000 		.4byte	.LVL80
 3562 0637 20000000 		.4byte	.LVL83
 3563 063b 0200     		.2byte	0x2
 3564 063d 30       		.byte	0x30
 3565 063e 9F       		.byte	0x9f
 3566 063f 20000000 		.4byte	.LVL83
 3567 0643 82000000 		.4byte	.LVL96
 3568 0647 0100     		.2byte	0x1
 3569 0649 59       		.byte	0x59
 3570 064a 82000000 		.4byte	.LVL96
 3571 064e 90000000 		.4byte	.LFE10
 3572 0652 0200     		.2byte	0x2
 3573 0654 30       		.byte	0x30
 3574 0655 9F       		.byte	0x9f
 3575 0656 00000000 		.4byte	0
ARM GAS  /tmp/cce7lV87.s 			page 64


 3576 065a 00000000 		.4byte	0
 3577              		.section	.debug_aranges,"",%progbits
 3578 0000 6C000000 		.4byte	0x6c
 3579 0004 0200     		.2byte	0x2
 3580 0006 00000000 		.4byte	.Ldebug_info0
 3581 000a 04       		.byte	0x4
 3582 000b 00       		.byte	0
 3583 000c 0000     		.2byte	0
 3584 000e 0000     		.2byte	0
 3585 0010 00000000 		.4byte	.LFB0
 3586 0014 2C000000 		.4byte	.LFE0-.LFB0
 3587 0018 00000000 		.4byte	.LFB1
 3588 001c 1E000000 		.4byte	.LFE1-.LFB1
 3589 0020 00000000 		.4byte	.LFB2
 3590 0024 30000000 		.4byte	.LFE2-.LFB2
 3591 0028 00000000 		.4byte	.LFB3
 3592 002c 56000000 		.4byte	.LFE3-.LFB3
 3593 0030 00000000 		.4byte	.LFB4
 3594 0034 4E000000 		.4byte	.LFE4-.LFB4
 3595 0038 00000000 		.4byte	.LFB5
 3596 003c 96000000 		.4byte	.LFE5-.LFB5
 3597 0040 00000000 		.4byte	.LFB6
 3598 0044 1C000000 		.4byte	.LFE6-.LFB6
 3599 0048 00000000 		.4byte	.LFB7
 3600 004c 32000000 		.4byte	.LFE7-.LFB7
 3601 0050 00000000 		.4byte	.LFB8
 3602 0054 5C000000 		.4byte	.LFE8-.LFB8
 3603 0058 00000000 		.4byte	.LFB9
 3604 005c 4A000000 		.4byte	.LFE9-.LFB9
 3605 0060 00000000 		.4byte	.LFB10
 3606 0064 90000000 		.4byte	.LFE10-.LFB10
 3607 0068 00000000 		.4byte	0
 3608 006c 00000000 		.4byte	0
 3609              		.section	.debug_ranges,"",%progbits
 3610              	.Ldebug_ranges0:
 3611 0000 18000000 		.4byte	.LBB2
 3612 0004 20000000 		.4byte	.LBE2
 3613 0008 22000000 		.4byte	.LBB3
 3614 000c 26000000 		.4byte	.LBE3
 3615 0010 00000000 		.4byte	0
 3616 0014 00000000 		.4byte	0
 3617 0018 12000000 		.4byte	.LBB4
 3618 001c 1A000000 		.4byte	.LBE4
 3619 0020 1C000000 		.4byte	.LBB5
 3620 0024 20000000 		.4byte	.LBE5
 3621 0028 50000000 		.4byte	.LBB6
 3622 002c 5C000000 		.4byte	.LBE6
 3623 0030 00000000 		.4byte	0
 3624 0034 00000000 		.4byte	0
 3625 0038 00000000 		.4byte	.LFB0
 3626 003c 2C000000 		.4byte	.LFE0
 3627 0040 00000000 		.4byte	.LFB1
 3628 0044 1E000000 		.4byte	.LFE1
 3629 0048 00000000 		.4byte	.LFB2
 3630 004c 30000000 		.4byte	.LFE2
 3631 0050 00000000 		.4byte	.LFB3
 3632 0054 56000000 		.4byte	.LFE3
ARM GAS  /tmp/cce7lV87.s 			page 65


 3633 0058 00000000 		.4byte	.LFB4
 3634 005c 4E000000 		.4byte	.LFE4
 3635 0060 00000000 		.4byte	.LFB5
 3636 0064 96000000 		.4byte	.LFE5
 3637 0068 00000000 		.4byte	.LFB6
 3638 006c 1C000000 		.4byte	.LFE6
 3639 0070 00000000 		.4byte	.LFB7
 3640 0074 32000000 		.4byte	.LFE7
 3641 0078 00000000 		.4byte	.LFB8
 3642 007c 5C000000 		.4byte	.LFE8
 3643 0080 00000000 		.4byte	.LFB9
 3644 0084 4A000000 		.4byte	.LFE9
 3645 0088 00000000 		.4byte	.LFB10
 3646 008c 90000000 		.4byte	.LFE10
 3647 0090 00000000 		.4byte	0
 3648 0094 00000000 		.4byte	0
 3649              		.section	.debug_line,"",%progbits
 3650              	.Ldebug_line0:
 3651 0000 46030000 		.section	.debug_str,"MS",%progbits,1
 3651      02006E01 
 3651      00000201 
 3651      FB0E0D00 
 3651      01010101 
 3652              	.LASF88:
 3653 0000 63684F51 		.ascii	"chOQInit\000"
 3653      496E6974 
 3653      00
 3654              	.LASF40:
 3655 0009 705F6D73 		.ascii	"p_msg\000"
 3655      6700
 3656              	.LASF89:
 3657 000f 6F6E6679 		.ascii	"onfy\000"
 3657      00
 3658              	.LASF2:
 3659 0014 73697A65 		.ascii	"size_t\000"
 3659      5F7400
 3660              	.LASF62:
 3661 001b 7264796D 		.ascii	"rdymsg\000"
 3661      736700
 3662              	.LASF83:
 3663 0022 63684951 		.ascii	"chIQInit\000"
 3663      496E6974 
 3663      00
 3664              	.LASF17:
 3665 002b 75696E74 		.ascii	"uint64_t\000"
 3665      36345F74 
 3665      00
 3666              	.LASF78:
 3667 0034 4F757470 		.ascii	"OutputQueue\000"
 3667      75745175 
 3667      65756500 
 3668              	.LASF3:
 3669 0040 5F5F7569 		.ascii	"__uint8_t\000"
 3669      6E74385F 
 3669      7400
 3670              	.LASF87:
 3671 004a 63684951 		.ascii	"chIQReadTimeout\000"
ARM GAS  /tmp/cce7lV87.s 			page 66


 3671      52656164 
 3671      54696D65 
 3671      6F757400 
 3672              	.LASF100:
 3673 005a 474E5520 		.ascii	"GNU C 4.8.2 -mcpu=cortex-m4 -mno-thumb-interwork -m"
 3673      4320342E 
 3673      382E3220 
 3673      2D6D6370 
 3673      753D636F 
 3674 008d 7468756D 		.ascii	"thumb -ggdb -O2 -fomit-frame-pointer -falign-functi"
 3674      62202D67 
 3674      67646220 
 3674      2D4F3220 
 3674      2D666F6D 
 3675 00c0 6F6E733D 		.ascii	"ons=16 -ffunction-sections -fdata-sections -fno-com"
 3675      3136202D 
 3675      6666756E 
 3675      6374696F 
 3675      6E2D7365 
 3676 00f3 6D6F6E00 		.ascii	"mon\000"
 3677              	.LASF13:
 3678 00f7 6C6F6E67 		.ascii	"long long unsigned int\000"
 3678      206C6F6E 
 3678      6720756E 
 3678      7369676E 
 3678      65642069 
 3679              	.LASF63:
 3680 010e 65786974 		.ascii	"exitcode\000"
 3680      636F6465 
 3680      00
 3681              	.LASF106:
 3682 0117 63684462 		.ascii	"chDbgPanic\000"
 3682      6750616E 
 3682      696300
 3683              	.LASF29:
 3684 0122 705F7072 		.ascii	"p_prio\000"
 3684      696F00
 3685              	.LASF68:
 3686 0129 715F7761 		.ascii	"q_waiting\000"
 3686      6974696E 
 3686      6700
 3687              	.LASF11:
 3688 0133 6C6F6E67 		.ascii	"long long int\000"
 3688      206C6F6E 
 3688      6720696E 
 3688      7400
 3689              	.LASF1:
 3690 0141 7369676E 		.ascii	"signed char\000"
 3690      65642063 
 3690      68617200 
 3691              	.LASF18:
 3692 014d 626F6F6C 		.ascii	"bool_t\000"
 3692      5F7400
 3693              	.LASF59:
 3694 0154 6D5F7175 		.ascii	"m_queue\000"
 3694      65756500 
 3695              	.LASF103:
ARM GAS  /tmp/cce7lV87.s 			page 67


 3696 015c 71776169 		.ascii	"qwait\000"
 3696      7400
 3697              	.LASF8:
 3698 0162 6C6F6E67 		.ascii	"long int\000"
 3698      20696E74 
 3698      00
 3699              	.LASF21:
 3700 016b 74737461 		.ascii	"tstate_t\000"
 3700      74655F74 
 3700      00
 3701              	.LASF92:
 3702 0174 63684F51 		.ascii	"chOQGetI\000"
 3702      47657449 
 3702      00
 3703              	.LASF70:
 3704 017d 715F6275 		.ascii	"q_buffer\000"
 3704      66666572 
 3704      00
 3705              	.LASF72:
 3706 0186 715F7772 		.ascii	"q_wrptr\000"
 3706      70747200 
 3707              	.LASF31:
 3708 018e 705F6E65 		.ascii	"p_newer\000"
 3708      77657200 
 3709              	.LASF9:
 3710 0196 5F5F7569 		.ascii	"__uint32_t\000"
 3710      6E743332 
 3710      5F7400
 3711              	.LASF46:
 3712 01a1 72656761 		.ascii	"regarm_t\000"
 3712      726D5F74 
 3712      00
 3713              	.LASF82:
 3714 01aa 6C696E6B 		.ascii	"link\000"
 3714      00
 3715              	.LASF91:
 3716 01af 63684F51 		.ascii	"chOQPutTimeout\000"
 3716      50757454 
 3716      696D656F 
 3716      757400
 3717              	.LASF85:
 3718 01be 63684951 		.ascii	"chIQPutI\000"
 3718      50757449 
 3718      00
 3719              	.LASF34:
 3720 01c7 705F7374 		.ascii	"p_stklimit\000"
 3720      6B6C696D 
 3720      697400
 3721              	.LASF0:
 3722 01d2 756E7369 		.ascii	"unsigned int\000"
 3722      676E6564 
 3722      20696E74 
 3722      00
 3723              	.LASF84:
 3724 01df 63684951 		.ascii	"chIQResetI\000"
 3724      52657365 
 3724      744900
ARM GAS  /tmp/cce7lV87.s 			page 68


 3725              	.LASF10:
 3726 01ea 6C6F6E67 		.ascii	"long unsigned int\000"
 3726      20756E73 
 3726      69676E65 
 3726      6420696E 
 3726      7400
 3727              	.LASF102:
 3728 01fc 2F686F6D 		.ascii	"/home/ece497/vbox-shared/mplayer/ChibiOS-RT-stable_"
 3728      652F6563 
 3728      65343937 
 3728      2F76626F 
 3728      782D7368 
 3729 022f 322E362E 		.ascii	"2.6.x/testhal/STM32F4xx/I2C\000"
 3729      782F7465 
 3729      73746861 
 3729      6C2F5354 
 3729      4D333246 
 3730              	.LASF49:
 3731 024b 636F6E74 		.ascii	"context\000"
 3731      65787400 
 3732              	.LASF80:
 3733 0253 73697A65 		.ascii	"size\000"
 3733      00
 3734              	.LASF6:
 3735 0258 73686F72 		.ascii	"short unsigned int\000"
 3735      7420756E 
 3735      7369676E 
 3735      65642069 
 3735      6E7400
 3736              	.LASF23:
 3737 026b 6D73675F 		.ascii	"msg_t\000"
 3737      7400
 3738              	.LASF54:
 3739 0271 725F6E65 		.ascii	"r_newer\000"
 3739      77657200 
 3740              	.LASF97:
 3741 0279 63684462 		.ascii	"chDbgCheckClassI\000"
 3741      67436865 
 3741      636B436C 
 3741      61737349 
 3741      00
 3742              	.LASF105:
 3743 028a 71756575 		.ascii	"queue_insert\000"
 3743      655F696E 
 3743      73657274 
 3743      00
 3744              	.LASF20:
 3745 0297 746D6F64 		.ascii	"tmode_t\000"
 3745      655F7400 
 3746              	.LASF45:
 3747 029f 54687265 		.ascii	"ThreadsList\000"
 3747      6164734C 
 3747      69737400 
 3748              	.LASF24:
 3749 02ab 6576656E 		.ascii	"eventmask_t\000"
 3749      746D6173 
 3749      6B5F7400 
ARM GAS  /tmp/cce7lV87.s 			page 69


 3750              	.LASF77:
 3751 02b7 496E7075 		.ascii	"InputQueue\000"
 3751      74517565 
 3751      756500
 3752              	.LASF58:
 3753 02c2 4D757465 		.ascii	"Mutex\000"
 3753      7800
 3754              	.LASF67:
 3755 02c8 47656E65 		.ascii	"GenericQueue\000"
 3755      72696351 
 3755      75657565 
 3755      00
 3756              	.LASF47:
 3757 02d5 73746B61 		.ascii	"stkalign_t\000"
 3757      6C69676E 
 3757      5F7400
 3758              	.LASF93:
 3759 02e0 63684F51 		.ascii	"chOQWriteTimeout\000"
 3759      57726974 
 3759      6554696D 
 3759      656F7574 
 3759      00
 3760              	.LASF99:
 3761 02f1 6462675F 		.ascii	"dbg_check_unlock\000"
 3761      63686563 
 3761      6B5F756E 
 3761      6C6F636B 
 3761      00
 3762              	.LASF50:
 3763 0302 73697A65 		.ascii	"sizetype\000"
 3763      74797065 
 3763      00
 3764              	.LASF69:
 3765 030b 715F636F 		.ascii	"q_counter\000"
 3765      756E7465 
 3765      7200
 3766              	.LASF98:
 3767 0315 6462675F 		.ascii	"dbg_check_lock\000"
 3767      63686563 
 3767      6B5F6C6F 
 3767      636B00
 3768              	.LASF32:
 3769 0324 705F6F6C 		.ascii	"p_older\000"
 3769      64657200 
 3770              	.LASF53:
 3771 032c 725F6374 		.ascii	"r_ctx\000"
 3771      7800
 3772              	.LASF44:
 3773 0332 54687265 		.ascii	"ThreadsQueue\000"
 3773      61647351 
 3773      75657565 
 3773      00
 3774              	.LASF79:
 3775 033f 74696D65 		.ascii	"time\000"
 3775      00
 3776              	.LASF56:
 3777 0344 725F6375 		.ascii	"r_current\000"
ARM GAS  /tmp/cce7lV87.s 			page 70


 3777      7272656E 
 3777      7400
 3778              	.LASF55:
 3779 034e 725F6F6C 		.ascii	"r_older\000"
 3779      64657200 
 3780              	.LASF12:
 3781 0356 5F5F7569 		.ascii	"__uint64_t\000"
 3781      6E743634 
 3781      5F7400
 3782              	.LASF76:
 3783 0361 716E6F74 		.ascii	"qnotify_t\000"
 3783      6966795F 
 3783      7400
 3784              	.LASF28:
 3785 036b 705F7072 		.ascii	"p_prev\000"
 3785      657600
 3786              	.LASF22:
 3787 0372 74707269 		.ascii	"tprio_t\000"
 3787      6F5F7400 
 3788              	.LASF73:
 3789 037a 715F7264 		.ascii	"q_rdptr\000"
 3789      70747200 
 3790              	.LASF19:
 3791 0382 5F426F6F 		.ascii	"_Bool\000"
 3791      6C00
 3792              	.LASF15:
 3793 0388 696E7433 		.ascii	"int32_t\000"
 3793      325F7400 
 3794              	.LASF4:
 3795 0390 756E7369 		.ascii	"unsigned char\000"
 3795      676E6564 
 3795      20636861 
 3795      7200
 3796              	.LASF42:
 3797 039e 705F6D74 		.ascii	"p_mtxlist\000"
 3797      786C6973 
 3797      7400
 3798              	.LASF5:
 3799 03a8 73686F72 		.ascii	"short int\000"
 3799      7420696E 
 3799      7400
 3800              	.LASF35:
 3801 03b2 705F7374 		.ascii	"p_state\000"
 3801      61746500 
 3802              	.LASF52:
 3803 03ba 725F7072 		.ascii	"r_prio\000"
 3803      696F00
 3804              	.LASF65:
 3805 03c1 65776D61 		.ascii	"ewmask\000"
 3805      736B00
 3806              	.LASF27:
 3807 03c8 705F6E65 		.ascii	"p_next\000"
 3807      787400
 3808              	.LASF81:
 3809 03cf 696E6679 		.ascii	"infy\000"
 3809      00
 3810              	.LASF36:
ARM GAS  /tmp/cce7lV87.s 			page 71


 3811 03d4 705F666C 		.ascii	"p_flags\000"
 3811      61677300 
 3812              	.LASF26:
 3813 03dc 54687265 		.ascii	"Thread\000"
 3813      616400
 3814              	.LASF41:
 3815 03e3 705F6570 		.ascii	"p_epending\000"
 3815      656E6469 
 3815      6E6700
 3816              	.LASF16:
 3817 03ee 75696E74 		.ascii	"uint32_t\000"
 3817      33325F74 
 3817      00
 3818              	.LASF51:
 3819 03f7 725F7175 		.ascii	"r_queue\000"
 3819      65756500 
 3820              	.LASF96:
 3821 03ff 63685363 		.ascii	"chSchReadyI\000"
 3821      68526561 
 3821      64794900 
 3822              	.LASF66:
 3823 040b 63686172 		.ascii	"char\000"
 3823      00
 3824              	.LASF95:
 3825 0410 6669666F 		.ascii	"fifo_remove\000"
 3825      5F72656D 
 3825      6F766500 
 3826              	.LASF61:
 3827 041c 6D5F6E65 		.ascii	"m_next\000"
 3827      787400
 3828              	.LASF25:
 3829 0423 73797374 		.ascii	"systime_t\000"
 3829      696D655F 
 3829      7400
 3830              	.LASF43:
 3831 042d 705F7265 		.ascii	"p_realprio\000"
 3831      616C7072 
 3831      696F00
 3832              	.LASF7:
 3833 0438 5F5F696E 		.ascii	"__int32_t\000"
 3833      7433325F 
 3833      7400
 3834              	.LASF90:
 3835 0442 63684F51 		.ascii	"chOQResetI\000"
 3835      52657365 
 3835      744900
 3836              	.LASF37:
 3837 044d 705F7469 		.ascii	"p_time\000"
 3837      6D6500
 3838              	.LASF48:
 3839 0454 696E7463 		.ascii	"intctx\000"
 3839      747800
 3840              	.LASF39:
 3841 045b 705F6D73 		.ascii	"p_msgqueue\000"
 3841      67717565 
 3841      756500
 3842              	.LASF101:
ARM GAS  /tmp/cce7lV87.s 			page 72


 3843 0466 2E2E2F2E 		.ascii	"../../../os/kernel/src/chqueues.c\000"
 3843      2E2F2E2E 
 3843      2F6F732F 
 3843      6B65726E 
 3843      656C2F73 
 3844              	.LASF71:
 3845 0488 715F746F 		.ascii	"q_top\000"
 3845      7000
 3846              	.LASF57:
 3847 048e 52656164 		.ascii	"ReadyList\000"
 3847      794C6973 
 3847      7400
 3848              	.LASF74:
 3849 0498 715F6E6F 		.ascii	"q_notify\000"
 3849      74696679 
 3849      00
 3850              	.LASF104:
 3851 04a1 726C6973 		.ascii	"rlist\000"
 3851      7400
 3852              	.LASF14:
 3853 04a7 75696E74 		.ascii	"uint8_t\000"
 3853      385F7400 
 3854              	.LASF64:
 3855 04af 77746F62 		.ascii	"wtobjp\000"
 3855      6A7000
 3856              	.LASF33:
 3857 04b6 705F6E61 		.ascii	"p_name\000"
 3857      6D6500
 3858              	.LASF94:
 3859 04bd 63685363 		.ascii	"chSchGoSleepTimeoutS\000"
 3859      68476F53 
 3859      6C656570 
 3859      54696D65 
 3859      6F757453 
 3860              	.LASF75:
 3861 04d2 715F6C69 		.ascii	"q_link\000"
 3861      6E6B00
 3862              	.LASF60:
 3863 04d9 6D5F6F77 		.ascii	"m_owner\000"
 3863      6E657200 
 3864              	.LASF30:
 3865 04e1 705F6374 		.ascii	"p_ctx\000"
 3865      7800
 3866              	.LASF38:
 3867 04e7 705F7761 		.ascii	"p_waiting\000"
 3867      6974696E 
 3867      6700
 3868              	.LASF86:
 3869 04f1 63684951 		.ascii	"chIQGetTimeout\000"
 3869      47657454 
 3869      696D656F 
 3869      757400
 3870              		.ident	"GCC: (Arch Repository) 4.8.2"
ARM GAS  /tmp/cce7lV87.s 			page 73


DEFINED SYMBOLS
                            *ABS*:0000000000000000 chqueues.c
     /tmp/cce7lV87.s:19     .text.qwait:0000000000000000 $t
     /tmp/cce7lV87.s:24     .text.qwait:0000000000000000 qwait
     /tmp/cce7lV87.s:71     .text.chIQInit:0000000000000000 $t
     /tmp/cce7lV87.s:77     .text.chIQInit:0000000000000000 chIQInit
     /tmp/cce7lV87.s:120    .text.chIQResetI:0000000000000000 $t
     /tmp/cce7lV87.s:126    .text.chIQResetI:0000000000000000 chIQResetI
     /tmp/cce7lV87.s:179    .text.chIQPutI:0000000000000000 $t
     /tmp/cce7lV87.s:185    .text.chIQPutI:0000000000000000 chIQPutI
     /tmp/cce7lV87.s:267    .text.chIQGetTimeout:0000000000000000 $t
     /tmp/cce7lV87.s:273    .text.chIQGetTimeout:0000000000000000 chIQGetTimeout
     /tmp/cce7lV87.s:367    .text.chIQReadTimeout:0000000000000000 $t
     /tmp/cce7lV87.s:373    .text.chIQReadTimeout:0000000000000000 chIQReadTimeout
     /tmp/cce7lV87.s:969    .rodata.str1.4:0000000000000000 .LC0
     /tmp/cce7lV87.s:514    .text.chOQInit:0000000000000000 $t
     /tmp/cce7lV87.s:520    .text.chOQInit:0000000000000000 chOQInit
     /tmp/cce7lV87.s:559    .text.chOQResetI:0000000000000000 $t
     /tmp/cce7lV87.s:565    .text.chOQResetI:0000000000000000 chOQResetI
     /tmp/cce7lV87.s:620    .text.chOQPutTimeout:0000000000000000 $t
     /tmp/cce7lV87.s:626    .text.chOQPutTimeout:0000000000000000 chOQPutTimeout
     /tmp/cce7lV87.s:735    .text.chOQGetI:0000000000000000 $t
     /tmp/cce7lV87.s:741    .text.chOQGetI:0000000000000000 chOQGetI
     /tmp/cce7lV87.s:820    .text.chOQWriteTimeout:0000000000000000 $t
     /tmp/cce7lV87.s:826    .text.chOQWriteTimeout:0000000000000000 chOQWriteTimeout
     /tmp/cce7lV87.s:971    .rodata.str1.4:0000000000000014 .LC1
     /tmp/cce7lV87.s:968    .rodata.str1.4:0000000000000000 $d
                     .debug_frame:0000000000000010 $d

UNDEFINED SYMBOLS
rlist
queue_insert
chSchGoSleepTimeoutS
chDbgCheckClassI
fifo_remove
chSchReadyI
_port_lock
dbg_check_lock
dbg_check_unlock
_port_unlock
chDbgPanic
