ARM GAS  /tmp/ccnE488U.s 			page 1


   1              		.syntax unified
   2              		.cpu cortex-m4
   3              		.fpu softvfp
   4              		.eabi_attribute 20, 1
   5              		.eabi_attribute 21, 1
   6              		.eabi_attribute 23, 3
   7              		.eabi_attribute 24, 1
   8              		.eabi_attribute 25, 1
   9              		.eabi_attribute 26, 1
  10              		.eabi_attribute 30, 2
  11              		.eabi_attribute 34, 1
  12              		.eabi_attribute 18, 4
  13              		.thumb
  14              		.file	"chsys.c"
  15              		.text
  16              	.Ltext0:
  17              		.cfi_sections	.debug_frame
  18              		.section	.text._idle_thread,"ax",%progbits
  19              		.align	2
  20              		.p2align 4,,15
  21              		.global	_idle_thread
  22              		.thumb
  23              		.thumb_func
  24              		.type	_idle_thread, %function
  25              	_idle_thread:
  26              	.LFB0:
  27              		.file 1 "../../../os/kernel/src/chsys.c"
  28              		.loc 1 61 0
  29              		.cfi_startproc
  30              		@ Volatile: function does not return.
  31              		@ args = 0, pretend = 0, frame = 0
  32              		@ frame_needed = 0, uses_anonymous_args = 0
  33              		@ link register save eliminated.
  34              	.LVL0:
  35              		.loc 1 64 0
  36 0000 40F20002 		movw	r2, #:lower16:rlist
  37 0004 C0F20002 		movt	r2, #:upper16:rlist
  38 0008 40F20003 		movw	r3, #:lower16:.LC0
  39 000c 9269     		ldr	r2, [r2, #24]
  40 000e C0F20003 		movt	r3, #:upper16:.LC0
  41 0012 9361     		str	r3, [r2, #24]
  42              	.L2:
  43 0014 FEE7     		b	.L2
  44              		.cfi_endproc
  45              	.LFE0:
  46              		.size	_idle_thread, .-_idle_thread
  47 0016 00BFAFF3 		.section	.text.chSysInit,"ax",%progbits
  47      0080AFF3 
  47      0080
  48              		.align	2
  49              		.p2align 4,,15
  50              		.global	chSysInit
  51              		.thumb
  52              		.thumb_func
  53              		.type	chSysInit, %function
  54              	chSysInit:
  55              	.LFB1:
ARM GAS  /tmp/ccnE488U.s 			page 2


  56              		.loc 1 84 0
  57              		.cfi_startproc
  58              		@ args = 0, pretend = 0, frame = 0
  59              		@ frame_needed = 0, uses_anonymous_args = 0
  60 0000 10B5     		push	{r4, lr}
  61              		.cfi_def_cfa_offset 8
  62              		.cfi_offset 4, -8
  63              		.cfi_offset 14, -4
  64 0002 82B0     		sub	sp, sp, #8
  65              		.cfi_def_cfa_offset 16
  66              		.loc 1 90 0
  67 0004 FFF7FEFF 		bl	_port_init
  68              	.LVL1:
  69              		.loc 1 91 0
  70 0008 FFF7FEFF 		bl	_scheduler_init
  71              	.LVL2:
  72              		.loc 1 92 0
  73 000c FFF7FEFF 		bl	_vt_init
  74              	.LVL3:
  75              		.loc 1 94 0
  76 0010 FFF7FEFF 		bl	_core_init
  77              	.LVL4:
  78              		.loc 1 100 0
  79 0014 FFF7FEFF 		bl	_trace_init
  80              	.LVL5:
  81              		.loc 1 104 0
  82 0018 40F20000 		movw	r0, #:lower16:.LANCHOR0
  83 001c 4021     		movs	r1, #64
  84 001e C0F20000 		movt	r0, #:upper16:.LANCHOR0
  85 0022 FFF7FEFF 		bl	_thread_init
  86              	.LVL6:
  87              		.loc 1 109 0
  88 0026 40F20002 		movw	r2, #:lower16:__main_thread_stack_base__
  89              		.loc 1 104 0
  90 002a 40F20003 		movw	r3, #:lower16:rlist
  91              		.loc 1 105 0
  92 002e 0121     		movs	r1, #1
  93              		.loc 1 109 0
  94 0030 C0F20002 		movt	r2, #:upper16:__main_thread_stack_base__
  95              		.loc 1 104 0
  96 0034 C0F20003 		movt	r3, #:upper16:rlist
  97              		.loc 1 105 0
  98 0038 80F82010 		strb	r1, [r0, #32]
  99              		.loc 1 109 0
 100 003c C261     		str	r2, [r0, #28]
 101              		.loc 1 104 0
 102 003e 9861     		str	r0, [r3, #24]
 103              		.loc 1 111 0
 104 0040 FFF7FEFF 		bl	dbg_check_enable
 105              	.LVL7:
 106              	.LBB2:
 107 0044 0023     		movs	r3, #0
 108              	@ 111 "../../../os/kernel/src/chsys.c" 1
 109 0046 83F31188 		msr     BASEPRI, r3                    
 110 004a 62B6     		cpsie   i
 111              	@ 0 "" 2
 112              		.thumb
ARM GAS  /tmp/ccnE488U.s 			page 3


 113              	.LBE2:
 114              		.loc 1 115 0
 115 004c 40F20003 		movw	r3, #:lower16:rlist
 116 0050 C0F20003 		movt	r3, #:upper16:rlist
 117 0054 40F20002 		movw	r2, #:lower16:ch_debug
 118 0058 9C69     		ldr	r4, [r3, #24]
 119 005a C0F20002 		movt	r2, #:upper16:ch_debug
 120              		.loc 1 121 0
 121 005e 0021     		movs	r1, #0
 122 0060 40F20000 		movw	r0, #:lower16:.LANCHOR1
 123 0064 40F20003 		movw	r3, #:lower16:_idle_thread
 124              		.loc 1 115 0
 125 0068 A261     		str	r2, [r4, #24]
 126              		.loc 1 121 0
 127 006a C0F20003 		movt	r3, #:upper16:_idle_thread
 128 006e 0091     		str	r1, [sp]
 129 0070 0122     		movs	r2, #1
 130 0072 C021     		movs	r1, #192
 131 0074 C0F20000 		movt	r0, #:upper16:.LANCHOR1
 132 0078 FFF7FEFF 		bl	chThdCreateStatic
 133              	.LVL8:
 134              		.loc 1 124 0
 135 007c 02B0     		add	sp, sp, #8
 136              		@ sp needed
 137 007e 10BD     		pop	{r4, pc}
 138              		.cfi_endproc
 139              	.LFE1:
 140              		.size	chSysInit, .-chSysInit
 141              		.section	.text.chSysTimerHandlerI,"ax",%progbits
 142              		.align	2
 143              		.p2align 4,,15
 144              		.global	chSysTimerHandlerI
 145              		.thumb
 146              		.thumb_func
 147              		.type	chSysTimerHandlerI, %function
 148              	chSysTimerHandlerI:
 149              	.LFB2:
 150              		.loc 1 137 0
 151              		.cfi_startproc
 152              		@ args = 0, pretend = 0, frame = 0
 153              		@ frame_needed = 0, uses_anonymous_args = 0
 154 0000 F8B5     		push	{r3, r4, r5, r6, r7, lr}
 155              		.cfi_def_cfa_offset 24
 156              		.cfi_offset 3, -24
 157              		.cfi_offset 4, -20
 158              		.cfi_offset 5, -16
 159              		.cfi_offset 6, -12
 160              		.cfi_offset 7, -8
 161              		.cfi_offset 14, -4
 162              		.loc 1 139 0
 163 0002 FFF7FEFF 		bl	chDbgCheckClassI
 164              	.LVL9:
 165              		.loc 1 148 0
 166 0006 40F20002 		movw	r2, #:lower16:rlist
 167 000a C0F20002 		movt	r2, #:upper16:rlist
 168              		.loc 1 150 0
 169 000e 40F20003 		movw	r3, #:lower16:vtlist
ARM GAS  /tmp/ccnE488U.s 			page 4


 170              		.loc 1 148 0
 171 0012 9269     		ldr	r2, [r2, #24]
 172 0014 516A     		ldr	r1, [r2, #36]
 173              		.loc 1 150 0
 174 0016 C0F20003 		movt	r3, #:upper16:vtlist
 175              		.loc 1 148 0
 176 001a 0131     		adds	r1, r1, #1
 177 001c 5162     		str	r1, [r2, #36]
 178              		.loc 1 150 0
 179 001e DA68     		ldr	r2, [r3, #12]
 180 0020 1C68     		ldr	r4, [r3]
 181 0022 0132     		adds	r2, r2, #1
 182 0024 9C42     		cmp	r4, r3
 183 0026 DA60     		str	r2, [r3, #12]
 184 0028 1BD0     		beq	.L5
 185              	.LBB3:
 186              		.loc 1 150 0 is_stmt 0 discriminator 1
 187 002a A768     		ldr	r7, [r4, #8]
 188 002c 013F     		subs	r7, r7, #1
 189 002e A760     		str	r7, [r4, #8]
 190              	.LVL10:
 191 0030 BFB9     		cbnz	r7, .L5
 192              		.loc 1 150 0
 193 0032 1E46     		mov	r6, r3
 194              	.L8:
 195              	.LBB4:
 196              		.loc 1 150 0 discriminator 2
 197 0034 2268     		ldr	r2, [r4]
 198 0036 E568     		ldr	r5, [r4, #12]
 199              	.LVL11:
 200 0038 E760     		str	r7, [r4, #12]
 201 003a 5360     		str	r3, [r2, #4]
 202 003c 1A60     		str	r2, [r3]
 203 003e FFF7FEFF 		bl	dbg_check_unlock_from_isr
 204              	.LVL12:
 205              	@ 150 "../../../os/kernel/src/chsys.c" 1
 206 0042 FFF7FEFF 		bl      _port_unlock
 207              	@ 0 "" 2
 208              		.thumb
 209 0046 2069     		ldr	r0, [r4, #16]
 210 0048 A847     		blx	r5
 211              	.LVL13:
 212              	@ 150 "../../../os/kernel/src/chsys.c" 1
 213 004a FFF7FEFF 		bl      _port_lock
 214              	@ 0 "" 2
 215              		.thumb
 216 004e FFF7FEFF 		bl	dbg_check_lock_from_isr
 217              	.LVL14:
 218              	.LBE4:
 219 0052 3468     		ldr	r4, [r6]
 220              	.LVL15:
 221 0054 A268     		ldr	r2, [r4, #8]
 222 0056 40F20003 		movw	r3, #:lower16:vtlist
 223 005a C0F20003 		movt	r3, #:upper16:vtlist
 224 005e 002A     		cmp	r2, #0
 225 0060 E8D0     		beq	.L8
 226              	.LVL16:
ARM GAS  /tmp/ccnE488U.s 			page 5


 227              	.L5:
 228 0062 F8BD     		pop	{r3, r4, r5, r6, r7, pc}
 229              	.LBE3:
 230              		.cfi_endproc
 231              	.LFE2:
 232              		.size	chSysTimerHandlerI, .-chSysTimerHandlerI
 233              		.global	_idle_thread_wa
 234 0064 AFF30080 		.section	.bss.mainthread.4753,"aw",%nobits
 234      AFF30080 
 234      AFF30080 
 235              		.align	2
 236              		.set	.LANCHOR0,. + 0
 237              		.type	mainthread.4753, %object
 238              		.size	mainthread.4753, 72
 239              	mainthread.4753:
 240 0000 00000000 		.space	72
 240      00000000 
 240      00000000 
 240      00000000 
 240      00000000 
 241              		.section	.rodata.str1.4,"aMS",%progbits,1
 242              		.align	2
 243              	.LC0:
 244 0000 69646C65 		.ascii	"idle\000"
 244      00
 245 0005 000000   		.section	.bss._idle_thread_wa,"aw",%nobits
 246              		.align	3
 247              		.set	.LANCHOR1,. + 0
 248              		.type	_idle_thread_wa, %object
 249              		.size	_idle_thread_wa, 192
 250              	_idle_thread_wa:
 251 0000 00000000 		.space	192
 251      00000000 
 251      00000000 
 251      00000000 
 251      00000000 
 252              		.text
 253              	.Letext0:
 254              		.file 2 "/usr/lib/gcc/arm-none-eabi/4.8.2/include/stddef.h"
 255              		.file 3 "/usr/arm-none-eabi/include/machine/_default_types.h"
 256              		.file 4 "/usr/arm-none-eabi/include/stdint.h"
 257              		.file 5 "../../../os/ports/GCC/ARMCMx/chtypes.h"
 258              		.file 6 "../../../os/kernel/include/chlists.h"
 259              		.file 7 "../../../os/kernel/include/chthreads.h"
 260              		.file 8 "../../../os/ports/GCC/ARMCMx/chcore_v7m.h"
 261              		.file 9 "../../../os/kernel/include/chvt.h"
 262              		.file 10 "../../../os/kernel/include/chschd.h"
 263              		.file 11 "../../../os/kernel/include/chmtx.h"
 264              		.file 12 "../../../os/kernel/include/chregistry.h"
 265              		.file 13 "../../../os/kernel/include/chmemcore.h"
 266              		.file 14 "../../../os/kernel/include/chdebug.h"