ARM GAS  /tmp/ccidx4Dc.s 			page 1


   1              		.syntax unified
   2              		.cpu cortex-m4
   3              		.fpu softvfp
   4              		.eabi_attribute 20, 1
   5              		.eabi_attribute 21, 1
   6              		.eabi_attribute 23, 3
   7              		.eabi_attribute 24, 1
   8              		.eabi_attribute 25, 1
   9              		.eabi_attribute 26, 1
  10              		.eabi_attribute 30, 2
  11              		.eabi_attribute 34, 1
  12              		.eabi_attribute 18, 4
  13              		.thumb
  14              		.file	"ext.c"
  15              		.text
  16              	.Ltext0:
  17              		.cfi_sections	.debug_frame
  18              		.section	.text.extInit,"ax",%progbits
  19              		.align	2
  20              		.p2align 4,,15
  21              		.global	extInit
  22              		.thumb
  23              		.thumb_func
  24              		.type	extInit, %function
  25              	extInit:
  26              	.LFB111:
  27              		.file 1 "../../../os/hal/src/ext.c"
  28              		.loc 1 68 0
  29              		.cfi_startproc
  30              		@ args = 0, pretend = 0, frame = 0
  31              		@ frame_needed = 0, uses_anonymous_args = 0
  32              		@ link register save eliminated.
  33              		.loc 1 70 0
  34 0000 FFF7FEBF 		b	ext_lld_init
  35              	.LVL0:
  36              		.cfi_endproc
  37              	.LFE111:
  38              		.size	extInit, .-extInit
  39 0004 AFF30080 		.section	.text.extObjectInit,"ax",%progbits
  39      AFF30080 
  39      AFF30080 
  40              		.align	2
  41              		.p2align 4,,15
  42              		.global	extObjectInit
  43              		.thumb
  44              		.thumb_func
  45              		.type	extObjectInit, %function
  46              	extObjectInit:
  47              	.LFB112:
  48              		.loc 1 80 0
  49              		.cfi_startproc
  50              		@ args = 0, pretend = 0, frame = 0
  51              		@ frame_needed = 0, uses_anonymous_args = 0
  52              		@ link register save eliminated.
  53              	.LVL1:
  54              		.loc 1 82 0
  55 0000 0122     		movs	r2, #1
ARM GAS  /tmp/ccidx4Dc.s 			page 2


  56              		.loc 1 83 0
  57 0002 0023     		movs	r3, #0
  58              		.loc 1 82 0
  59 0004 0270     		strb	r2, [r0]
  60              		.loc 1 83 0
  61 0006 4360     		str	r3, [r0, #4]
  62 0008 7047     		bx	lr
  63              		.cfi_endproc
  64              	.LFE112:
  65              		.size	extObjectInit, .-extObjectInit
  66 000a 00BFAFF3 		.section	.text.extStart,"ax",%progbits
  66      0080
  67              		.align	2
  68              		.p2align 4,,15
  69              		.global	extStart
  70              		.thumb
  71              		.thumb_func
  72              		.type	extStart, %function
  73              	extStart:
  74              	.LFB113:
  75              		.loc 1 96 0
  76              		.cfi_startproc
  77              		@ args = 0, pretend = 0, frame = 0
  78              		@ frame_needed = 0, uses_anonymous_args = 0
  79              	.LVL2:
  80              		.loc 1 98 0
  81 0000 0029     		cmp	r1, #0
  82 0002 18BF     		it	ne
  83 0004 0028     		cmpne	r0, #0
  84              		.loc 1 96 0
  85 0006 38B5     		push	{r3, r4, r5, lr}
  86              		.cfi_def_cfa_offset 16
  87              		.cfi_offset 3, -16
  88              		.cfi_offset 4, -12
  89              		.cfi_offset 5, -8
  90              		.cfi_offset 14, -4
  91              		.loc 1 98 0
  92 0008 0446     		mov	r4, r0
  93 000a 0D46     		mov	r5, r1
  94 000c 19D0     		beq	.L10
  95              	.LVL3:
  96              	.L4:
  97              		.loc 1 100 0
  98              	@ 100 "../../../os/hal/src/ext.c" 1
  99 000e FFF7FEFF 		bl      _port_lock
 100              	@ 0 "" 2
 101              		.thumb
 102 0012 FFF7FEFF 		bl	dbg_check_lock
 103              	.LVL4:
 104              		.loc 1 101 0
 105 0016 2378     		ldrb	r3, [r4]	@ zero_extendqisi2
 106 0018 013B     		subs	r3, r3, #1
 107 001a DBB2     		uxtb	r3, r3
 108 001c 012B     		cmp	r3, #1
 109 001e 05D9     		bls	.L5
 110              		.loc 1 101 0 is_stmt 0 discriminator 1
 111 0020 40F20000 		movw	r0, #:lower16:.LC1
ARM GAS  /tmp/ccidx4Dc.s 			page 3


 112 0024 C0F20000 		movt	r0, #:upper16:.LC1
 113 0028 FFF7FEFF 		bl	chDbgPanic
 114              	.LVL5:
 115              	.L5:
 116              		.loc 1 104 0 is_stmt 1
 117 002c 2046     		mov	r0, r4
 118              		.loc 1 103 0
 119 002e 6560     		str	r5, [r4, #4]
 120              		.loc 1 104 0
 121 0030 FFF7FEFF 		bl	ext_lld_start
 122              	.LVL6:
 123              		.loc 1 105 0
 124 0034 0223     		movs	r3, #2
 125 0036 2370     		strb	r3, [r4]
 126              		.loc 1 106 0
 127 0038 FFF7FEFF 		bl	dbg_check_unlock
 128              	.LVL7:
 129              	@ 106 "../../../os/hal/src/ext.c" 1
 130 003c FFF7FEFF 		bl      _port_unlock
 131              	@ 0 "" 2
 132              		.thumb
 133 0040 38BD     		pop	{r3, r4, r5, pc}
 134              	.LVL8:
 135              	.L10:
 136              		.loc 1 98 0 discriminator 1
 137 0042 40F20000 		movw	r0, #:lower16:.LC0
 138              	.LVL9:
 139 0046 C0F20000 		movt	r0, #:upper16:.LC0
 140 004a FFF7FEFF 		bl	chDbgPanic
 141              	.LVL10:
 142 004e DEE7     		b	.L4
 143              		.cfi_endproc
 144              	.LFE113:
 145              		.size	extStart, .-extStart
 146              		.section	.text.extStop,"ax",%progbits
 147              		.align	2
 148              		.p2align 4,,15
 149              		.global	extStop
 150              		.thumb
 151              		.thumb_func
 152              		.type	extStop, %function
 153              	extStop:
 154              	.LFB114:
 155              		.loc 1 116 0
 156              		.cfi_startproc
 157              		@ args = 0, pretend = 0, frame = 0
 158              		@ frame_needed = 0, uses_anonymous_args = 0
 159              	.LVL11:
 160 0000 10B5     		push	{r4, lr}
 161              		.cfi_def_cfa_offset 8
 162              		.cfi_offset 4, -8
 163              		.cfi_offset 14, -4
 164              		.loc 1 118 0
 165 0002 0446     		mov	r4, r0
 166 0004 C0B1     		cbz	r0, .L14
 167              	.LVL12:
 168              	.L12:
ARM GAS  /tmp/ccidx4Dc.s 			page 4


 169              		.loc 1 120 0
 170              	@ 120 "../../../os/hal/src/ext.c" 1
 171 0006 FFF7FEFF 		bl      _port_lock
 172              	@ 0 "" 2
 173              		.thumb
 174 000a FFF7FEFF 		bl	dbg_check_lock
 175              	.LVL13:
 176              		.loc 1 121 0
 177 000e 2378     		ldrb	r3, [r4]	@ zero_extendqisi2
 178 0010 013B     		subs	r3, r3, #1
 179 0012 DBB2     		uxtb	r3, r3
 180 0014 012B     		cmp	r3, #1
 181 0016 05D9     		bls	.L13
 182              		.loc 1 121 0 is_stmt 0 discriminator 1
 183 0018 40F20000 		movw	r0, #:lower16:.LC3
 184 001c C0F20000 		movt	r0, #:upper16:.LC3
 185 0020 FFF7FEFF 		bl	chDbgPanic
 186              	.LVL14:
 187              	.L13:
 188              		.loc 1 123 0 is_stmt 1
 189 0024 2046     		mov	r0, r4
 190 0026 FFF7FEFF 		bl	ext_lld_stop
 191              	.LVL15:
 192              		.loc 1 124 0
 193 002a 0123     		movs	r3, #1
 194 002c 2370     		strb	r3, [r4]
 195              		.loc 1 125 0
 196 002e FFF7FEFF 		bl	dbg_check_unlock
 197              	.LVL16:
 198              	@ 125 "../../../os/hal/src/ext.c" 1
 199 0032 FFF7FEFF 		bl      _port_unlock
 200              	@ 0 "" 2
 201              		.thumb
 202 0036 10BD     		pop	{r4, pc}
 203              	.LVL17:
 204              	.L14:
 205              		.loc 1 118 0 discriminator 1
 206 0038 40F20000 		movw	r0, #:lower16:.LC2
 207              	.LVL18:
 208 003c C0F20000 		movt	r0, #:upper16:.LC2
 209 0040 FFF7FEFF 		bl	chDbgPanic
 210              	.LVL19:
 211 0044 DFE7     		b	.L12
 212              		.cfi_endproc
 213              	.LFE114:
 214              		.size	extStop, .-extStop
 215 0046 00BFAFF3 		.section	.text.extChannelEnable,"ax",%progbits
 215      0080AFF3 
 215      0080
 216              		.align	2
 217              		.p2align 4,,15
 218              		.global	extChannelEnable
 219              		.thumb
 220              		.thumb_func
 221              		.type	extChannelEnable, %function
 222              	extChannelEnable:
 223              	.LFB115:
ARM GAS  /tmp/ccidx4Dc.s 			page 5


 224              		.loc 1 137 0
 225              		.cfi_startproc
 226              		@ args = 0, pretend = 0, frame = 0
 227              		@ frame_needed = 0, uses_anonymous_args = 0
 228              	.LVL20:
 229              		.loc 1 139 0
 230 0000 1629     		cmp	r1, #22
 231              		.loc 1 137 0
 232 0002 38B5     		push	{r3, r4, r5, lr}
 233              		.cfi_def_cfa_offset 16
 234              		.cfi_offset 3, -16
 235              		.cfi_offset 4, -12
 236              		.cfi_offset 5, -8
 237              		.cfi_offset 14, -4
 238              		.loc 1 139 0
 239 0004 94BF     		ite	ls
 240 0006 0023     		movls	r3, #0
 241 0008 0123     		movhi	r3, #1
 242 000a 0028     		cmp	r0, #0
 243 000c 08BF     		it	eq
 244 000e 43F00103 		orreq	r3, r3, #1
 245              		.loc 1 137 0
 246 0012 0D46     		mov	r5, r1
 247              		.loc 1 139 0
 248 0014 0446     		mov	r4, r0
 249 0016 DBB9     		cbnz	r3, .L22
 250              	.LVL21:
 251              	.L16:
 252              		.loc 1 142 0
 253              	@ 142 "../../../os/hal/src/ext.c" 1
 254 0018 FFF7FEFF 		bl      _port_lock
 255              	@ 0 "" 2
 256              		.thumb
 257 001c FFF7FEFF 		bl	dbg_check_lock
 258              	.LVL22:
 259              		.loc 1 143 0
 260 0020 2378     		ldrb	r3, [r4]	@ zero_extendqisi2
 261 0022 022B     		cmp	r3, #2
 262 0024 0ED0     		beq	.L23
 263              	.L17:
 264              		.loc 1 143 0 is_stmt 0 discriminator 1
 265 0026 40F20000 		movw	r0, #:lower16:.LC5
 266 002a C0F20000 		movt	r0, #:upper16:.LC5
 267 002e FFF7FEFF 		bl	chDbgPanic
 268              	.LVL23:
 269              	.L18:
 270              		.loc 1 147 0 is_stmt 1
 271 0032 2046     		mov	r0, r4
 272 0034 2946     		mov	r1, r5
 273 0036 FFF7FEFF 		bl	ext_lld_channel_enable
 274              	.LVL24:
 275              		.loc 1 148 0
 276 003a FFF7FEFF 		bl	dbg_check_unlock
 277              	.LVL25:
 278              	@ 148 "../../../os/hal/src/ext.c" 1
 279 003e FFF7FEFF 		bl      _port_unlock
 280              	@ 0 "" 2
ARM GAS  /tmp/ccidx4Dc.s 			page 6


 281              		.thumb
 282 0042 38BD     		pop	{r3, r4, r5, pc}
 283              	.LVL26:
 284              	.L23:
 285              		.loc 1 143 0 discriminator 2
 286 0044 6368     		ldr	r3, [r4, #4]
 287 0046 53F83530 		ldr	r3, [r3, r5, lsl #3]
 288 004a 9B07     		lsls	r3, r3, #30
 289 004c F1D1     		bne	.L18
 290 004e EAE7     		b	.L17
 291              	.LVL27:
 292              	.L22:
 293              		.loc 1 139 0 discriminator 1
 294 0050 40F20000 		movw	r0, #:lower16:.LC4
 295              	.LVL28:
 296 0054 C0F20000 		movt	r0, #:upper16:.LC4
 297 0058 FFF7FEFF 		bl	chDbgPanic
 298              	.LVL29:
 299 005c DCE7     		b	.L16
 300              		.cfi_endproc
 301              	.LFE115:
 302              		.size	extChannelEnable, .-extChannelEnable
 303              		.section	.text.extChannelDisable,"ax",%progbits
 304              		.align	2
 305              		.p2align 4,,15
 306              		.global	extChannelDisable
 307              		.thumb
 308              		.thumb_func
 309              		.type	extChannelDisable, %function
 310              	extChannelDisable:
 311              	.LFB116:
 312              		.loc 1 160 0
 313              		.cfi_startproc
 314              		@ args = 0, pretend = 0, frame = 0
 315              		@ frame_needed = 0, uses_anonymous_args = 0
 316              	.LVL30:
 317              		.loc 1 162 0
 318 0000 1629     		cmp	r1, #22
 319              		.loc 1 160 0
 320 0002 38B5     		push	{r3, r4, r5, lr}
 321              		.cfi_def_cfa_offset 16
 322              		.cfi_offset 3, -16
 323              		.cfi_offset 4, -12
 324              		.cfi_offset 5, -8
 325              		.cfi_offset 14, -4
 326              		.loc 1 162 0
 327 0004 94BF     		ite	ls
 328 0006 0023     		movls	r3, #0
 329 0008 0123     		movhi	r3, #1
 330 000a 0028     		cmp	r0, #0
 331 000c 08BF     		it	eq
 332 000e 43F00103 		orreq	r3, r3, #1
 333              		.loc 1 160 0
 334 0012 0D46     		mov	r5, r1
 335              		.loc 1 162 0
 336 0014 0446     		mov	r4, r0
 337 0016 DBB9     		cbnz	r3, .L31
ARM GAS  /tmp/ccidx4Dc.s 			page 7


 338              	.LVL31:
 339              	.L25:
 340              		.loc 1 165 0
 341              	@ 165 "../../../os/hal/src/ext.c" 1
 342 0018 FFF7FEFF 		bl      _port_lock
 343              	@ 0 "" 2
 344              		.thumb
 345 001c FFF7FEFF 		bl	dbg_check_lock
 346              	.LVL32:
 347              		.loc 1 166 0
 348 0020 2378     		ldrb	r3, [r4]	@ zero_extendqisi2
 349 0022 022B     		cmp	r3, #2
 350 0024 0ED0     		beq	.L32
 351              	.L26:
 352              		.loc 1 166 0 is_stmt 0 discriminator 1
 353 0026 40F20000 		movw	r0, #:lower16:.LC7
 354 002a C0F20000 		movt	r0, #:upper16:.LC7
 355 002e FFF7FEFF 		bl	chDbgPanic
 356              	.LVL33:
 357              	.L27:
 358              		.loc 1 170 0 is_stmt 1
 359 0032 2046     		mov	r0, r4
 360 0034 2946     		mov	r1, r5
 361 0036 FFF7FEFF 		bl	ext_lld_channel_disable
 362              	.LVL34:
 363              		.loc 1 171 0
 364 003a FFF7FEFF 		bl	dbg_check_unlock
 365              	.LVL35:
 366              	@ 171 "../../../os/hal/src/ext.c" 1
 367 003e FFF7FEFF 		bl      _port_unlock
 368              	@ 0 "" 2
 369              		.thumb
 370 0042 38BD     		pop	{r3, r4, r5, pc}
 371              	.LVL36:
 372              	.L32:
 373              		.loc 1 166 0 discriminator 2
 374 0044 6368     		ldr	r3, [r4, #4]
 375 0046 53F83530 		ldr	r3, [r3, r5, lsl #3]
 376 004a 9A07     		lsls	r2, r3, #30
 377 004c F1D1     		bne	.L27
 378 004e EAE7     		b	.L26
 379              	.LVL37:
 380              	.L31:
 381              		.loc 1 162 0 discriminator 1
 382 0050 40F20000 		movw	r0, #:lower16:.LC6
 383              	.LVL38:
 384 0054 C0F20000 		movt	r0, #:upper16:.LC6
 385 0058 FFF7FEFF 		bl	chDbgPanic
 386              	.LVL39:
 387 005c DCE7     		b	.L25
 388              		.cfi_endproc
 389              	.LFE116:
 390              		.size	extChannelDisable, .-extChannelDisable
 391              		.section	.text.extSetChannelModeI,"ax",%progbits
 392              		.align	2
 393              		.p2align 4,,15
 394              		.global	extSetChannelModeI
ARM GAS  /tmp/ccidx4Dc.s 			page 8


 395              		.thumb
 396              		.thumb_func
 397              		.type	extSetChannelModeI, %function
 398              	extSetChannelModeI:
 399              	.LFB117:
 400              		.loc 1 193 0
 401              		.cfi_startproc
 402              		@ args = 0, pretend = 0, frame = 0
 403              		@ frame_needed = 0, uses_anonymous_args = 0
 404              	.LVL40:
 405              		.loc 1 196 0
 406 0000 1629     		cmp	r1, #22
 407 0002 94BF     		ite	ls
 408 0004 0023     		movls	r3, #0
 409 0006 0123     		movhi	r3, #1
 410 0008 0028     		cmp	r0, #0
 411 000a 08BF     		it	eq
 412 000c 43F00103 		orreq	r3, r3, #1
 413              		.loc 1 193 0
 414 0010 70B5     		push	{r4, r5, r6, lr}
 415              		.cfi_def_cfa_offset 16
 416              		.cfi_offset 4, -16
 417              		.cfi_offset 5, -12
 418              		.cfi_offset 6, -8
 419              		.cfi_offset 14, -4
 420              		.loc 1 193 0
 421 0012 0D46     		mov	r5, r1
 422              		.loc 1 196 0
 423 0014 0446     		mov	r4, r0
 424              		.loc 1 193 0
 425 0016 1646     		mov	r6, r2
 426              		.loc 1 196 0
 427 0018 B3B9     		cbnz	r3, .L34
 428              		.loc 1 196 0 is_stmt 0 discriminator 2
 429 001a AAB1     		cbz	r2, .L34
 430              	.LVL41:
 431              	.L35:
 432              		.loc 1 199 0 is_stmt 1
 433 001c 2378     		ldrb	r3, [r4]	@ zero_extendqisi2
 434 001e 022B     		cmp	r3, #2
 435 0020 05D0     		beq	.L36
 436              		.loc 1 199 0 is_stmt 0 discriminator 1
 437 0022 40F20000 		movw	r0, #:lower16:.LC9
 438 0026 C0F20000 		movt	r0, #:upper16:.LC9
 439 002a FFF7FEFF 		bl	chDbgPanic
 440              	.LVL42:
 441              	.L36:
 442              		.loc 1 208 0 is_stmt 1
 443 002e 96E80300 		ldmia	r6, {r0, r1}
 444 0032 6368     		ldr	r3, [r4, #4]
 445 0034 03EBC503 		add	r3, r3, r5, lsl #3
 446 0038 83E80300 		stmia	r3, {r0, r1}
 447              	.LVL43:
 448              		.loc 1 209 0
 449 003c 2046     		mov	r0, r4
 450 003e 2946     		mov	r1, r5
 451              		.loc 1 210 0
ARM GAS  /tmp/ccidx4Dc.s 			page 9


 452 0040 BDE87040 		pop	{r4, r5, r6, lr}
 453              	.LVL44:
 454              		.loc 1 209 0
 455 0044 FFF7FEBF 		b	ext_lld_channel_enable
 456              	.LVL45:
 457              	.L34:
 458              		.loc 1 196 0 discriminator 1
 459 0048 40F20000 		movw	r0, #:lower16:.LC8
 460              	.LVL46:
 461 004c C0F20000 		movt	r0, #:upper16:.LC8
 462 0050 FFF7FEFF 		bl	chDbgPanic
 463              	.LVL47:
 464 0054 E2E7     		b	.L35
 465              		.cfi_endproc
 466              	.LFE117:
 467              		.size	extSetChannelModeI, .-extSetChannelModeI
 468 0056 00BFAFF3 		.section	.rodata.str1.4,"aMS",%progbits,1
 468      0080AFF3 
 468      0080
 469              		.align	2
 470              	.LC0:
 471 0000 22657874 		.ascii	"\"extStart\"()\000"
 471      53746172 
 471      74222829 
 471      00
 472 000d 000000   		.space	3
 473              	.LC1:
 474 0010 65787453 		.ascii	"extStart(), #1\000"
 474      74617274 
 474      28292C20 
 474      233100
 475 001f 00       		.space	1
 476              	.LC2:
 477 0020 22657874 		.ascii	"\"extStop\"()\000"
 477      53746F70 
 477      22282900 
 478              	.LC3:
 479 002c 65787453 		.ascii	"extStop(), #1\000"
 479      746F7028 
 479      292C2023 
 479      3100
 480 003a 0000     		.space	2
 481              	.LC4:
 482 003c 22657874 		.ascii	"\"extChannelEnable\"()\000"
 482      4368616E 
 482      6E656C45 
 482      6E61626C 
 482      65222829 
 483 0051 000000   		.space	3
 484              	.LC5:
 485 0054 65787443 		.ascii	"extChannelEnable(), #1\000"
 485      68616E6E 
 485      656C456E 
 485      61626C65 
 485      28292C20 
 486 006b 00       		.space	1
 487              	.LC6:
ARM GAS  /tmp/ccidx4Dc.s 			page 10


 488 006c 22657874 		.ascii	"\"extChannelDisable\"()\000"
 488      4368616E 
 488      6E656C44 
 488      69736162 
 488      6C652228 
 489 0082 0000     		.space	2
 490              	.LC7:
 491 0084 65787443 		.ascii	"extChannelDisable(), #1\000"
 491      68616E6E 
 491      656C4469 
 491      7361626C 
 491      6528292C 
 492              	.LC8:
 493 009c 22657874 		.ascii	"\"extSetChannelModeI\"()\000"
 493      53657443 
 493      68616E6E 
 493      656C4D6F 
 493      64654922 
 494 00b3 00       		.space	1
 495              	.LC9:
 496 00b4 65787453 		.ascii	"extSetChannelModeI(), #1\000"
 496      65744368 
 496      616E6E65 
 496      6C4D6F64 
 496      65492829 
 497 00cd 000000   		.text
 498              	.Letext0:
 499              		.file 2 "/usr/arm-none-eabi/include/machine/_default_types.h"
 500              		.file 3 "/usr/arm-none-eabi/include/stdint.h"
 501              		.file 4 "../../../os/hal/include/ext.h"
 502              		.file 5 "../../../os/hal/platforms/STM32/ext_lld.h"
 503              		.file 6 "../../../os/kernel/include/chdebug.h"
 504              		.file 7 "../../../os/ports/common/ARMCMx/CMSIS/include/core_cm4.h"