ARM GAS  /tmp/cc6k9JRV.s 			page 1


   1              		.syntax unified
   2              		.cpu cortex-m4
   3              		.fpu softvfp
   4              		.eabi_attribute 20, 1
   5              		.eabi_attribute 21, 1
   6              		.eabi_attribute 23, 3
   7              		.eabi_attribute 24, 1
   8              		.eabi_attribute 25, 1
   9              		.eabi_attribute 26, 1
  10              		.eabi_attribute 30, 2
  11              		.eabi_attribute 34, 1
  12              		.eabi_attribute 18, 4
  13              		.thumb
  14              		.file	"ext_lld_isr.c"
  15              		.text
  16              	.Ltext0:
  17              		.cfi_sections	.debug_frame
  18              		.section	.text.Vector58,"ax",%progbits
  19              		.align	2
  20              		.p2align 4,,15
  21              		.global	Vector58
  22              		.thumb
  23              		.thumb_func
  24              		.type	Vector58, %function
  25              	Vector58:
  26              	.LFB111:
  27              		.file 1 "../../../os/hal/platforms/STM32F4xx/ext_lld_isr.c"
  28              		.loc 1 57 0
  29              		.cfi_startproc
  30              		@ args = 0, pretend = 0, frame = 0
  31              		@ frame_needed = 0, uses_anonymous_args = 0
  32 0000 08B5     		push	{r3, lr}
  33              		.cfi_def_cfa_offset 8
  34              		.cfi_offset 3, -8
  35              		.cfi_offset 14, -4
  36              		.loc 1 59 0
  37 0002 FFF7FEFF 		bl	dbg_check_enter_isr
  38              	.LVL0:
  39              		.loc 1 62 0
  40 0006 40F20000 		movw	r0, #:lower16:EXTD1
  41 000a C0F20000 		movt	r0, #:upper16:EXTD1
  42              		.loc 1 61 0
  43 000e 4FF47053 		mov	r3, #15360
  44              		.loc 1 62 0
  45 0012 4268     		ldr	r2, [r0, #4]
  46              		.loc 1 61 0
  47 0014 C4F20103 		movt	r3, 16385
  48 0018 0121     		movs	r1, #1
  49              		.loc 1 62 0
  50 001a 5268     		ldr	r2, [r2, #4]
  51              		.loc 1 61 0
  52 001c 5961     		str	r1, [r3, #20]
  53              		.loc 1 62 0
  54 001e 0021     		movs	r1, #0
  55 0020 9047     		blx	r2
  56              	.LVL1:
  57              		.loc 1 64 0
ARM GAS  /tmp/cc6k9JRV.s 			page 2


  58 0022 FFF7FEFF 		bl	dbg_check_leave_isr
  59              	.LVL2:
  60              		.loc 1 65 0
  61 0026 BDE80840 		pop	{r3, lr}
  62              		.loc 1 64 0
  63 002a FFF7FEBF 		b	_port_irq_epilogue
  64              	.LVL3:
  65              		.cfi_endproc
  66              	.LFE111:
  67              		.size	Vector58, .-Vector58
  68 002e 00BF     		.section	.text.Vector5C,"ax",%progbits
  69              		.align	2
  70              		.p2align 4,,15
  71              		.global	Vector5C
  72              		.thumb
  73              		.thumb_func
  74              		.type	Vector5C, %function
  75              	Vector5C:
  76              	.LFB112:
  77              		.loc 1 72 0
  78              		.cfi_startproc
  79              		@ args = 0, pretend = 0, frame = 0
  80              		@ frame_needed = 0, uses_anonymous_args = 0
  81 0000 08B5     		push	{r3, lr}
  82              		.cfi_def_cfa_offset 8
  83              		.cfi_offset 3, -8
  84              		.cfi_offset 14, -4
  85              		.loc 1 74 0
  86 0002 FFF7FEFF 		bl	dbg_check_enter_isr
  87              	.LVL4:
  88              		.loc 1 77 0
  89 0006 40F20000 		movw	r0, #:lower16:EXTD1
  90 000a C0F20000 		movt	r0, #:upper16:EXTD1
  91              		.loc 1 76 0
  92 000e 4FF47053 		mov	r3, #15360
  93              		.loc 1 77 0
  94 0012 4268     		ldr	r2, [r0, #4]
  95              		.loc 1 76 0
  96 0014 C4F20103 		movt	r3, 16385
  97 0018 0221     		movs	r1, #2
  98              		.loc 1 77 0
  99 001a D268     		ldr	r2, [r2, #12]
 100              		.loc 1 76 0
 101 001c 5961     		str	r1, [r3, #20]
 102              		.loc 1 77 0
 103 001e 0121     		movs	r1, #1
 104 0020 9047     		blx	r2
 105              	.LVL5:
 106              		.loc 1 79 0
 107 0022 FFF7FEFF 		bl	dbg_check_leave_isr
 108              	.LVL6:
 109              		.loc 1 80 0
 110 0026 BDE80840 		pop	{r3, lr}
 111              		.loc 1 79 0
 112 002a FFF7FEBF 		b	_port_irq_epilogue
 113              	.LVL7:
 114              		.cfi_endproc
ARM GAS  /tmp/cc6k9JRV.s 			page 3


 115              	.LFE112:
 116              		.size	Vector5C, .-Vector5C
 117 002e 00BF     		.section	.text.Vector60,"ax",%progbits
 118              		.align	2
 119              		.p2align 4,,15
 120              		.global	Vector60
 121              		.thumb
 122              		.thumb_func
 123              		.type	Vector60, %function
 124              	Vector60:
 125              	.LFB113:
 126              		.loc 1 87 0
 127              		.cfi_startproc
 128              		@ args = 0, pretend = 0, frame = 0
 129              		@ frame_needed = 0, uses_anonymous_args = 0
 130 0000 08B5     		push	{r3, lr}
 131              		.cfi_def_cfa_offset 8
 132              		.cfi_offset 3, -8
 133              		.cfi_offset 14, -4
 134              		.loc 1 89 0
 135 0002 FFF7FEFF 		bl	dbg_check_enter_isr
 136              	.LVL8:
 137              		.loc 1 92 0
 138 0006 40F20000 		movw	r0, #:lower16:EXTD1
 139 000a C0F20000 		movt	r0, #:upper16:EXTD1
 140              		.loc 1 91 0
 141 000e 4FF47053 		mov	r3, #15360
 142              		.loc 1 92 0
 143 0012 4268     		ldr	r2, [r0, #4]
 144              		.loc 1 91 0
 145 0014 C4F20103 		movt	r3, 16385
 146 0018 0421     		movs	r1, #4
 147              		.loc 1 92 0
 148 001a 5269     		ldr	r2, [r2, #20]
 149              		.loc 1 91 0
 150 001c 5961     		str	r1, [r3, #20]
 151              		.loc 1 92 0
 152 001e 0221     		movs	r1, #2
 153 0020 9047     		blx	r2
 154              	.LVL9:
 155              		.loc 1 94 0
 156 0022 FFF7FEFF 		bl	dbg_check_leave_isr
 157              	.LVL10:
 158              		.loc 1 95 0
 159 0026 BDE80840 		pop	{r3, lr}
 160              		.loc 1 94 0
 161 002a FFF7FEBF 		b	_port_irq_epilogue
 162              	.LVL11:
 163              		.cfi_endproc
 164              	.LFE113:
 165              		.size	Vector60, .-Vector60
 166 002e 00BF     		.section	.text.Vector64,"ax",%progbits
 167              		.align	2
 168              		.p2align 4,,15
 169              		.global	Vector64
 170              		.thumb
 171              		.thumb_func
ARM GAS  /tmp/cc6k9JRV.s 			page 4


 172              		.type	Vector64, %function
 173              	Vector64:
 174              	.LFB114:
 175              		.loc 1 102 0
 176              		.cfi_startproc
 177              		@ args = 0, pretend = 0, frame = 0
 178              		@ frame_needed = 0, uses_anonymous_args = 0
 179 0000 08B5     		push	{r3, lr}
 180              		.cfi_def_cfa_offset 8
 181              		.cfi_offset 3, -8
 182              		.cfi_offset 14, -4
 183              		.loc 1 104 0
 184 0002 FFF7FEFF 		bl	dbg_check_enter_isr
 185              	.LVL12:
 186              		.loc 1 107 0
 187 0006 40F20000 		movw	r0, #:lower16:EXTD1
 188 000a C0F20000 		movt	r0, #:upper16:EXTD1
 189              		.loc 1 106 0
 190 000e 4FF47053 		mov	r3, #15360
 191              		.loc 1 107 0
 192 0012 4268     		ldr	r2, [r0, #4]
 193              		.loc 1 106 0
 194 0014 C4F20103 		movt	r3, 16385
 195 0018 0821     		movs	r1, #8
 196              		.loc 1 107 0
 197 001a D269     		ldr	r2, [r2, #28]
 198              		.loc 1 106 0
 199 001c 5961     		str	r1, [r3, #20]
 200              		.loc 1 107 0
 201 001e 0321     		movs	r1, #3
 202 0020 9047     		blx	r2
 203              	.LVL13:
 204              		.loc 1 109 0
 205 0022 FFF7FEFF 		bl	dbg_check_leave_isr
 206              	.LVL14:
 207              		.loc 1 110 0
 208 0026 BDE80840 		pop	{r3, lr}
 209              		.loc 1 109 0
 210 002a FFF7FEBF 		b	_port_irq_epilogue
 211              	.LVL15:
 212              		.cfi_endproc
 213              	.LFE114:
 214              		.size	Vector64, .-Vector64
 215 002e 00BF     		.section	.text.Vector68,"ax",%progbits
 216              		.align	2
 217              		.p2align 4,,15
 218              		.global	Vector68
 219              		.thumb
 220              		.thumb_func
 221              		.type	Vector68, %function
 222              	Vector68:
 223              	.LFB115:
 224              		.loc 1 117 0
 225              		.cfi_startproc
 226              		@ args = 0, pretend = 0, frame = 0
 227              		@ frame_needed = 0, uses_anonymous_args = 0
 228 0000 08B5     		push	{r3, lr}
ARM GAS  /tmp/cc6k9JRV.s 			page 5


 229              		.cfi_def_cfa_offset 8
 230              		.cfi_offset 3, -8
 231              		.cfi_offset 14, -4
 232              		.loc 1 119 0
 233 0002 FFF7FEFF 		bl	dbg_check_enter_isr
 234              	.LVL16:
 235              		.loc 1 122 0
 236 0006 40F20000 		movw	r0, #:lower16:EXTD1
 237 000a C0F20000 		movt	r0, #:upper16:EXTD1
 238              		.loc 1 121 0
 239 000e 4FF47053 		mov	r3, #15360
 240              		.loc 1 122 0
 241 0012 4268     		ldr	r2, [r0, #4]
 242              		.loc 1 121 0
 243 0014 C4F20103 		movt	r3, 16385
 244 0018 1021     		movs	r1, #16
 245              		.loc 1 122 0
 246 001a 526A     		ldr	r2, [r2, #36]
 247              		.loc 1 121 0
 248 001c 5961     		str	r1, [r3, #20]
 249              		.loc 1 122 0
 250 001e 0421     		movs	r1, #4
 251 0020 9047     		blx	r2
 252              	.LVL17:
 253              		.loc 1 124 0
 254 0022 FFF7FEFF 		bl	dbg_check_leave_isr
 255              	.LVL18:
 256              		.loc 1 125 0
 257 0026 BDE80840 		pop	{r3, lr}
 258              		.loc 1 124 0
 259 002a FFF7FEBF 		b	_port_irq_epilogue
 260              	.LVL19:
 261              		.cfi_endproc
 262              	.LFE115:
 263              		.size	Vector68, .-Vector68
 264 002e 00BF     		.section	.text.Vector9C,"ax",%progbits
 265              		.align	2
 266              		.p2align 4,,15
 267              		.global	Vector9C
 268              		.thumb
 269              		.thumb_func
 270              		.type	Vector9C, %function
 271              	Vector9C:
 272              	.LFB116:
 273              		.loc 1 132 0
 274              		.cfi_startproc
 275              		@ args = 0, pretend = 0, frame = 0
 276              		@ frame_needed = 0, uses_anonymous_args = 0
 277 0000 10B5     		push	{r4, lr}
 278              		.cfi_def_cfa_offset 8
 279              		.cfi_offset 4, -8
 280              		.cfi_offset 14, -4
 281              		.loc 1 135 0
 282 0002 FFF7FEFF 		bl	dbg_check_enter_isr
 283              	.LVL20:
 284              		.loc 1 137 0
 285 0006 4FF47053 		mov	r3, #15360
ARM GAS  /tmp/cc6k9JRV.s 			page 6


 286 000a C4F20103 		movt	r3, 16385
 287 000e 5C69     		ldr	r4, [r3, #20]
 288 0010 04F47872 		and	r2, r4, #992
 289              	.LVL21:
 290              		.loc 1 138 0
 291 0014 5A61     		str	r2, [r3, #20]
 292              		.loc 1 139 0
 293 0016 A306     		lsls	r3, r4, #26
 294 0018 34D4     		bmi	.L28
 295              	.LVL22:
 296              	.L7:
 297              		.loc 1 141 0
 298 001a 6006     		lsls	r0, r4, #25
 299 001c 28D4     		bmi	.L29
 300              	.L8:
 301              		.loc 1 143 0
 302 001e 2106     		lsls	r1, r4, #24
 303 0020 1CD4     		bmi	.L30
 304              	.L9:
 305              		.loc 1 145 0
 306 0022 E205     		lsls	r2, r4, #23
 307 0024 10D4     		bmi	.L31
 308              	.L10:
 309              		.loc 1 147 0
 310 0026 A305     		lsls	r3, r4, #22
 311 0028 08D5     		bpl	.L11
 312              		.loc 1 148 0
 313 002a 40F20003 		movw	r3, #:lower16:EXTD1
 314 002e C0F20003 		movt	r3, #:upper16:EXTD1
 315 0032 1846     		mov	r0, r3
 316 0034 5B68     		ldr	r3, [r3, #4]
 317 0036 0921     		movs	r1, #9
 318 0038 DB6C     		ldr	r3, [r3, #76]
 319 003a 9847     		blx	r3
 320              	.LVL23:
 321              	.L11:
 322              		.loc 1 150 0
 323 003c FFF7FEFF 		bl	dbg_check_leave_isr
 324              	.LVL24:
 325              		.loc 1 151 0
 326 0040 BDE81040 		pop	{r4, lr}
 327              	.LVL25:
 328              		.loc 1 150 0
 329 0044 FFF7FEBF 		b	_port_irq_epilogue
 330              	.LVL26:
 331              	.L31:
 332              		.loc 1 146 0
 333 0048 40F20003 		movw	r3, #:lower16:EXTD1
 334 004c C0F20003 		movt	r3, #:upper16:EXTD1
 335 0050 1846     		mov	r0, r3
 336 0052 5B68     		ldr	r3, [r3, #4]
 337 0054 0821     		movs	r1, #8
 338 0056 5B6C     		ldr	r3, [r3, #68]
 339 0058 9847     		blx	r3
 340              	.LVL27:
 341 005a E4E7     		b	.L10
 342              	.L30:
ARM GAS  /tmp/cc6k9JRV.s 			page 7


 343              		.loc 1 144 0
 344 005c 40F20003 		movw	r3, #:lower16:EXTD1
 345 0060 C0F20003 		movt	r3, #:upper16:EXTD1
 346 0064 1846     		mov	r0, r3
 347 0066 5B68     		ldr	r3, [r3, #4]
 348 0068 0721     		movs	r1, #7
 349 006a DB6B     		ldr	r3, [r3, #60]
 350 006c 9847     		blx	r3
 351              	.LVL28:
 352 006e D8E7     		b	.L9
 353              	.L29:
 354              		.loc 1 142 0
 355 0070 40F20003 		movw	r3, #:lower16:EXTD1
 356 0074 C0F20003 		movt	r3, #:upper16:EXTD1
 357 0078 1846     		mov	r0, r3
 358 007a 5B68     		ldr	r3, [r3, #4]
 359 007c 0621     		movs	r1, #6
 360 007e 5B6B     		ldr	r3, [r3, #52]
 361 0080 9847     		blx	r3
 362              	.LVL29:
 363 0082 CCE7     		b	.L8
 364              	.LVL30:
 365              	.L28:
 366              		.loc 1 140 0
 367 0084 40F20003 		movw	r3, #:lower16:EXTD1
 368 0088 C0F20003 		movt	r3, #:upper16:EXTD1
 369 008c 1846     		mov	r0, r3
 370 008e 5B68     		ldr	r3, [r3, #4]
 371 0090 0521     		movs	r1, #5
 372 0092 DB6A     		ldr	r3, [r3, #44]
 373 0094 9847     		blx	r3
 374              	.LVL31:
 375 0096 C0E7     		b	.L7
 376              		.cfi_endproc
 377              	.LFE116:
 378              		.size	Vector9C, .-Vector9C
 379 0098 AFF30080 		.section	.text.VectorE0,"ax",%progbits
 379      AFF30080 
 380              		.align	2
 381              		.p2align 4,,15
 382              		.global	VectorE0
 383              		.thumb
 384              		.thumb_func
 385              		.type	VectorE0, %function
 386              	VectorE0:
 387              	.LFB117:
 388              		.loc 1 158 0
 389              		.cfi_startproc
 390              		@ args = 0, pretend = 0, frame = 0
 391              		@ frame_needed = 0, uses_anonymous_args = 0
 392 0000 10B5     		push	{r4, lr}
 393              		.cfi_def_cfa_offset 8
 394              		.cfi_offset 4, -8
 395              		.cfi_offset 14, -4
 396              		.loc 1 161 0
 397 0002 FFF7FEFF 		bl	dbg_check_enter_isr
 398              	.LVL32:
ARM GAS  /tmp/cc6k9JRV.s 			page 8


 399              		.loc 1 163 0
 400 0006 4FF47053 		mov	r3, #15360
 401 000a C4F20103 		movt	r3, 16385
 402 000e 5C69     		ldr	r4, [r3, #20]
 403 0010 04F47C42 		and	r2, r4, #64512
 404              	.LVL33:
 405              		.loc 1 166 0
 406 0014 6105     		lsls	r1, r4, #21
 407              		.loc 1 165 0
 408 0016 5A61     		str	r2, [r3, #20]
 409              		.loc 1 166 0
 410 0018 40D4     		bmi	.L57
 411              	.LVL34:
 412              	.L33:
 413              		.loc 1 168 0
 414 001a 2205     		lsls	r2, r4, #20
 415 001c 34D4     		bmi	.L58
 416              	.L34:
 417              		.loc 1 170 0
 418 001e E304     		lsls	r3, r4, #19
 419 0020 28D4     		bmi	.L59
 420              	.L35:
 421              		.loc 1 172 0
 422 0022 A004     		lsls	r0, r4, #18
 423 0024 1CD4     		bmi	.L60
 424              	.L36:
 425              		.loc 1 174 0
 426 0026 6104     		lsls	r1, r4, #17
 427 0028 10D4     		bmi	.L61
 428              	.L37:
 429              		.loc 1 176 0
 430 002a 2204     		lsls	r2, r4, #16
 431 002c 08D5     		bpl	.L38
 432              		.loc 1 177 0
 433 002e 40F20003 		movw	r3, #:lower16:EXTD1
 434 0032 C0F20003 		movt	r3, #:upper16:EXTD1
 435 0036 1846     		mov	r0, r3
 436 0038 5B68     		ldr	r3, [r3, #4]
 437 003a 0F21     		movs	r1, #15
 438 003c DB6F     		ldr	r3, [r3, #124]
 439 003e 9847     		blx	r3
 440              	.LVL35:
 441              	.L38:
 442              		.loc 1 179 0
 443 0040 FFF7FEFF 		bl	dbg_check_leave_isr
 444              	.LVL36:
 445              		.loc 1 180 0
 446 0044 BDE81040 		pop	{r4, lr}
 447              	.LVL37:
 448              		.loc 1 179 0
 449 0048 FFF7FEBF 		b	_port_irq_epilogue
 450              	.LVL38:
 451              	.L61:
 452              		.loc 1 175 0
 453 004c 40F20003 		movw	r3, #:lower16:EXTD1
 454 0050 C0F20003 		movt	r3, #:upper16:EXTD1
 455 0054 1846     		mov	r0, r3
ARM GAS  /tmp/cc6k9JRV.s 			page 9


 456 0056 5B68     		ldr	r3, [r3, #4]
 457 0058 0E21     		movs	r1, #14
 458 005a 5B6F     		ldr	r3, [r3, #116]
 459 005c 9847     		blx	r3
 460              	.LVL39:
 461 005e E4E7     		b	.L37
 462              	.L60:
 463              		.loc 1 173 0
 464 0060 40F20003 		movw	r3, #:lower16:EXTD1
 465 0064 C0F20003 		movt	r3, #:upper16:EXTD1
 466 0068 1846     		mov	r0, r3
 467 006a 5B68     		ldr	r3, [r3, #4]
 468 006c 0D21     		movs	r1, #13
 469 006e DB6E     		ldr	r3, [r3, #108]
 470 0070 9847     		blx	r3
 471              	.LVL40:
 472 0072 D8E7     		b	.L36
 473              	.L59:
 474              		.loc 1 171 0
 475 0074 40F20003 		movw	r3, #:lower16:EXTD1
 476 0078 C0F20003 		movt	r3, #:upper16:EXTD1
 477 007c 1846     		mov	r0, r3
 478 007e 5B68     		ldr	r3, [r3, #4]
 479 0080 0C21     		movs	r1, #12
 480 0082 5B6E     		ldr	r3, [r3, #100]
 481 0084 9847     		blx	r3
 482              	.LVL41:
 483 0086 CCE7     		b	.L35
 484              	.L58:
 485              		.loc 1 169 0
 486 0088 40F20003 		movw	r3, #:lower16:EXTD1
 487 008c C0F20003 		movt	r3, #:upper16:EXTD1
 488 0090 1846     		mov	r0, r3
 489 0092 5B68     		ldr	r3, [r3, #4]
 490 0094 0B21     		movs	r1, #11
 491 0096 DB6D     		ldr	r3, [r3, #92]
 492 0098 9847     		blx	r3
 493              	.LVL42:
 494 009a C0E7     		b	.L34
 495              	.LVL43:
 496              	.L57:
 497              		.loc 1 167 0
 498 009c 40F20003 		movw	r3, #:lower16:EXTD1
 499 00a0 C0F20003 		movt	r3, #:upper16:EXTD1
 500 00a4 1846     		mov	r0, r3
 501 00a6 5B68     		ldr	r3, [r3, #4]
 502 00a8 0A21     		movs	r1, #10
 503 00aa 5B6D     		ldr	r3, [r3, #84]
 504 00ac 9847     		blx	r3
 505              	.LVL44:
 506 00ae B4E7     		b	.L33
 507              		.cfi_endproc
 508              	.LFE117:
 509              		.size	VectorE0, .-VectorE0
 510              		.section	.text.Vector44,"ax",%progbits
 511              		.align	2
 512              		.p2align 4,,15
ARM GAS  /tmp/cc6k9JRV.s 			page 10


 513              		.global	Vector44
 514              		.thumb
 515              		.thumb_func
 516              		.type	Vector44, %function
 517              	Vector44:
 518              	.LFB118:
 519              		.loc 1 187 0
 520              		.cfi_startproc
 521              		@ args = 0, pretend = 0, frame = 0
 522              		@ frame_needed = 0, uses_anonymous_args = 0
 523 0000 08B5     		push	{r3, lr}
 524              		.cfi_def_cfa_offset 8
 525              		.cfi_offset 3, -8
 526              		.cfi_offset 14, -4
 527              		.loc 1 189 0
 528 0002 FFF7FEFF 		bl	dbg_check_enter_isr
 529              	.LVL45:
 530              		.loc 1 192 0
 531 0006 40F20000 		movw	r0, #:lower16:EXTD1
 532 000a C0F20000 		movt	r0, #:upper16:EXTD1
 533              		.loc 1 191 0
 534 000e 4FF47053 		mov	r3, #15360
 535              		.loc 1 192 0
 536 0012 4268     		ldr	r2, [r0, #4]
 537              		.loc 1 191 0
 538 0014 C4F20103 		movt	r3, 16385
 539 0018 4FF48031 		mov	r1, #65536
 540              		.loc 1 192 0
 541 001c D2F88420 		ldr	r2, [r2, #132]
 542              		.loc 1 191 0
 543 0020 5961     		str	r1, [r3, #20]
 544              		.loc 1 192 0
 545 0022 1021     		movs	r1, #16
 546 0024 9047     		blx	r2
 547              	.LVL46:
 548              		.loc 1 194 0
 549 0026 FFF7FEFF 		bl	dbg_check_leave_isr
 550              	.LVL47:
 551              		.loc 1 195 0
 552 002a BDE80840 		pop	{r3, lr}
 553              		.loc 1 194 0
 554 002e FFF7FEBF 		b	_port_irq_epilogue
 555              	.LVL48:
 556              		.cfi_endproc
 557              	.LFE118:
 558              		.size	Vector44, .-Vector44
 559 0032 00BFAFF3 		.section	.text.VectorE4,"ax",%progbits
 559      0080AFF3 
 559      0080AFF3 
 559      0080
 560              		.align	2
 561              		.p2align 4,,15
 562              		.global	VectorE4
 563              		.thumb
 564              		.thumb_func
 565              		.type	VectorE4, %function
 566              	VectorE4:
ARM GAS  /tmp/cc6k9JRV.s 			page 11


 567              	.LFB119:
 568              		.loc 1 202 0
 569              		.cfi_startproc
 570              		@ args = 0, pretend = 0, frame = 0
 571              		@ frame_needed = 0, uses_anonymous_args = 0
 572 0000 08B5     		push	{r3, lr}
 573              		.cfi_def_cfa_offset 8
 574              		.cfi_offset 3, -8
 575              		.cfi_offset 14, -4
 576              		.loc 1 204 0
 577 0002 FFF7FEFF 		bl	dbg_check_enter_isr
 578              	.LVL49:
 579              		.loc 1 207 0
 580 0006 40F20000 		movw	r0, #:lower16:EXTD1
 581 000a C0F20000 		movt	r0, #:upper16:EXTD1
 582              		.loc 1 206 0
 583 000e 4FF47053 		mov	r3, #15360
 584              		.loc 1 207 0
 585 0012 4268     		ldr	r2, [r0, #4]
 586              		.loc 1 206 0
 587 0014 C4F20103 		movt	r3, 16385
 588 0018 4FF40031 		mov	r1, #131072
 589              		.loc 1 207 0
 590 001c D2F88C20 		ldr	r2, [r2, #140]
 591              		.loc 1 206 0
 592 0020 5961     		str	r1, [r3, #20]
 593              		.loc 1 207 0
 594 0022 1121     		movs	r1, #17
 595 0024 9047     		blx	r2
 596              	.LVL50:
 597              		.loc 1 209 0
 598 0026 FFF7FEFF 		bl	dbg_check_leave_isr
 599              	.LVL51:
 600              		.loc 1 210 0
 601 002a BDE80840 		pop	{r3, lr}
 602              		.loc 1 209 0
 603 002e FFF7FEBF 		b	_port_irq_epilogue
 604              	.LVL52:
 605              		.cfi_endproc
 606              	.LFE119:
 607              		.size	VectorE4, .-VectorE4
 608 0032 00BFAFF3 		.section	.text.VectorE8,"ax",%progbits
 608      0080AFF3 
 608      0080AFF3 
 608      0080
 609              		.align	2
 610              		.p2align 4,,15
 611              		.global	VectorE8
 612              		.thumb
 613              		.thumb_func
 614              		.type	VectorE8, %function
 615              	VectorE8:
 616              	.LFB120:
 617              		.loc 1 217 0
 618              		.cfi_startproc
 619              		@ args = 0, pretend = 0, frame = 0
 620              		@ frame_needed = 0, uses_anonymous_args = 0
ARM GAS  /tmp/cc6k9JRV.s 			page 12


 621 0000 08B5     		push	{r3, lr}
 622              		.cfi_def_cfa_offset 8
 623              		.cfi_offset 3, -8
 624              		.cfi_offset 14, -4
 625              		.loc 1 219 0
 626 0002 FFF7FEFF 		bl	dbg_check_enter_isr
 627              	.LVL53:
 628              		.loc 1 222 0
 629 0006 40F20000 		movw	r0, #:lower16:EXTD1
 630 000a C0F20000 		movt	r0, #:upper16:EXTD1
 631              		.loc 1 221 0
 632 000e 4FF47053 		mov	r3, #15360
 633              		.loc 1 222 0
 634 0012 4268     		ldr	r2, [r0, #4]
 635              		.loc 1 221 0
 636 0014 C4F20103 		movt	r3, 16385
 637 0018 4FF48021 		mov	r1, #262144
 638              		.loc 1 222 0
 639 001c D2F89420 		ldr	r2, [r2, #148]
 640              		.loc 1 221 0
 641 0020 5961     		str	r1, [r3, #20]
 642              		.loc 1 222 0
 643 0022 1221     		movs	r1, #18
 644 0024 9047     		blx	r2
 645              	.LVL54:
 646              		.loc 1 224 0
 647 0026 FFF7FEFF 		bl	dbg_check_leave_isr
 648              	.LVL55:
 649              		.loc 1 225 0
 650 002a BDE80840 		pop	{r3, lr}
 651              		.loc 1 224 0
 652 002e FFF7FEBF 		b	_port_irq_epilogue
 653              	.LVL56:
 654              		.cfi_endproc
 655              	.LFE120:
 656              		.size	VectorE8, .-VectorE8
 657 0032 00BFAFF3 		.section	.text.Vector138,"ax",%progbits
 657      0080AFF3 
 657      0080AFF3 
 657      0080
 658              		.align	2
 659              		.p2align 4,,15
 660              		.global	Vector138
 661              		.thumb
 662              		.thumb_func
 663              		.type	Vector138, %function
 664              	Vector138:
 665              	.LFB121:
 666              		.loc 1 232 0
 667              		.cfi_startproc
 668              		@ args = 0, pretend = 0, frame = 0
 669              		@ frame_needed = 0, uses_anonymous_args = 0
 670 0000 08B5     		push	{r3, lr}
 671              		.cfi_def_cfa_offset 8
 672              		.cfi_offset 3, -8
 673              		.cfi_offset 14, -4
 674              		.loc 1 234 0
ARM GAS  /tmp/cc6k9JRV.s 			page 13


 675 0002 FFF7FEFF 		bl	dbg_check_enter_isr
 676              	.LVL57:
 677              		.loc 1 237 0
 678 0006 40F20000 		movw	r0, #:lower16:EXTD1
 679 000a C0F20000 		movt	r0, #:upper16:EXTD1
 680              		.loc 1 236 0
 681 000e 4FF47053 		mov	r3, #15360
 682              		.loc 1 237 0
 683 0012 4268     		ldr	r2, [r0, #4]
 684              		.loc 1 236 0
 685 0014 C4F20103 		movt	r3, 16385
 686 0018 4FF40021 		mov	r1, #524288
 687              		.loc 1 237 0
 688 001c D2F89C20 		ldr	r2, [r2, #156]
 689              		.loc 1 236 0
 690 0020 5961     		str	r1, [r3, #20]
 691              		.loc 1 237 0
 692 0022 1321     		movs	r1, #19
 693 0024 9047     		blx	r2
 694              	.LVL58:
 695              		.loc 1 239 0
 696 0026 FFF7FEFF 		bl	dbg_check_leave_isr
 697              	.LVL59:
 698              		.loc 1 240 0
 699 002a BDE80840 		pop	{r3, lr}
 700              		.loc 1 239 0
 701 002e FFF7FEBF 		b	_port_irq_epilogue
 702              	.LVL60:
 703              		.cfi_endproc
 704              	.LFE121:
 705              		.size	Vector138, .-Vector138
 706 0032 00BFAFF3 		.section	.text.Vector170,"ax",%progbits
 706      0080AFF3 
 706      0080AFF3 
 706      0080
 707              		.align	2
 708              		.p2align 4,,15
 709              		.global	Vector170
 710              		.thumb
 711              		.thumb_func
 712              		.type	Vector170, %function
 713              	Vector170:
 714              	.LFB122:
 715              		.loc 1 247 0
 716              		.cfi_startproc
 717              		@ args = 0, pretend = 0, frame = 0
 718              		@ frame_needed = 0, uses_anonymous_args = 0
 719 0000 08B5     		push	{r3, lr}
 720              		.cfi_def_cfa_offset 8
 721              		.cfi_offset 3, -8
 722              		.cfi_offset 14, -4
 723              		.loc 1 249 0
 724 0002 FFF7FEFF 		bl	dbg_check_enter_isr
 725              	.LVL61:
 726              		.loc 1 252 0
 727 0006 40F20000 		movw	r0, #:lower16:EXTD1
 728 000a C0F20000 		movt	r0, #:upper16:EXTD1
ARM GAS  /tmp/cc6k9JRV.s 			page 14


 729              		.loc 1 251 0
 730 000e 4FF47053 		mov	r3, #15360
 731              		.loc 1 252 0
 732 0012 4268     		ldr	r2, [r0, #4]
 733              		.loc 1 251 0
 734 0014 C4F20103 		movt	r3, 16385
 735 0018 4FF48011 		mov	r1, #1048576
 736              		.loc 1 252 0
 737 001c D2F8A420 		ldr	r2, [r2, #164]
 738              		.loc 1 251 0
 739 0020 5961     		str	r1, [r3, #20]
 740              		.loc 1 252 0
 741 0022 1421     		movs	r1, #20
 742 0024 9047     		blx	r2
 743              	.LVL62:
 744              		.loc 1 254 0
 745 0026 FFF7FEFF 		bl	dbg_check_leave_isr
 746              	.LVL63:
 747              		.loc 1 255 0
 748 002a BDE80840 		pop	{r3, lr}
 749              		.loc 1 254 0
 750 002e FFF7FEBF 		b	_port_irq_epilogue
 751              	.LVL64:
 752              		.cfi_endproc
 753              	.LFE122:
 754              		.size	Vector170, .-Vector170
 755 0032 00BFAFF3 		.section	.text.TAMPER_STAMP_IRQHandler,"ax",%progbits
 755      0080AFF3 
 755      0080AFF3 
 755      0080
 756              		.align	2
 757              		.p2align 4,,15
 758              		.global	TAMPER_STAMP_IRQHandler
 759              		.thumb
 760              		.thumb_func
 761              		.type	TAMPER_STAMP_IRQHandler, %function
 762              	TAMPER_STAMP_IRQHandler:
 763              	.LFB123:
 764              		.loc 1 262 0
 765              		.cfi_startproc
 766              		@ args = 0, pretend = 0, frame = 0
 767              		@ frame_needed = 0, uses_anonymous_args = 0
 768 0000 08B5     		push	{r3, lr}
 769              		.cfi_def_cfa_offset 8
 770              		.cfi_offset 3, -8
 771              		.cfi_offset 14, -4
 772              		.loc 1 264 0
 773 0002 FFF7FEFF 		bl	dbg_check_enter_isr
 774              	.LVL65:
 775              		.loc 1 267 0
 776 0006 40F20000 		movw	r0, #:lower16:EXTD1
 777 000a C0F20000 		movt	r0, #:upper16:EXTD1
 778              		.loc 1 266 0
 779 000e 4FF47053 		mov	r3, #15360
 780              		.loc 1 267 0
 781 0012 4268     		ldr	r2, [r0, #4]
 782              		.loc 1 266 0
ARM GAS  /tmp/cc6k9JRV.s 			page 15


 783 0014 C4F20103 		movt	r3, 16385
 784 0018 4FF40011 		mov	r1, #2097152
 785              		.loc 1 267 0
 786 001c D2F8AC20 		ldr	r2, [r2, #172]
 787              		.loc 1 266 0
 788 0020 5961     		str	r1, [r3, #20]
 789              		.loc 1 267 0
 790 0022 1521     		movs	r1, #21
 791 0024 9047     		blx	r2
 792              	.LVL66:
 793              		.loc 1 269 0
 794 0026 FFF7FEFF 		bl	dbg_check_leave_isr
 795              	.LVL67:
 796              		.loc 1 270 0
 797 002a BDE80840 		pop	{r3, lr}
 798              		.loc 1 269 0
 799 002e FFF7FEBF 		b	_port_irq_epilogue
 800              	.LVL68:
 801              		.cfi_endproc
 802              	.LFE123:
 803              		.size	TAMPER_STAMP_IRQHandler, .-TAMPER_STAMP_IRQHandler
 804 0032 00BFAFF3 		.section	.text.Vector4C,"ax",%progbits
 804      0080AFF3 
 804      0080AFF3 
 804      0080
 805              		.align	2
 806              		.p2align 4,,15
 807              		.global	Vector4C
 808              		.thumb
 809              		.thumb_func
 810              		.type	Vector4C, %function
 811              	Vector4C:
 812              	.LFB124:
 813              		.loc 1 277 0
 814              		.cfi_startproc
 815              		@ args = 0, pretend = 0, frame = 0
 816              		@ frame_needed = 0, uses_anonymous_args = 0
 817 0000 08B5     		push	{r3, lr}
 818              		.cfi_def_cfa_offset 8
 819              		.cfi_offset 3, -8
 820              		.cfi_offset 14, -4
 821              		.loc 1 279 0
 822 0002 FFF7FEFF 		bl	dbg_check_enter_isr
 823              	.LVL69:
 824              		.loc 1 282 0
 825 0006 40F20000 		movw	r0, #:lower16:EXTD1
 826 000a C0F20000 		movt	r0, #:upper16:EXTD1
 827              		.loc 1 281 0
 828 000e 4FF47053 		mov	r3, #15360
 829              		.loc 1 282 0
 830 0012 4268     		ldr	r2, [r0, #4]
 831              		.loc 1 281 0
 832 0014 C4F20103 		movt	r3, 16385
 833 0018 4FF48001 		mov	r1, #4194304
 834              		.loc 1 282 0
 835 001c D2F8B420 		ldr	r2, [r2, #180]
 836              		.loc 1 281 0
ARM GAS  /tmp/cc6k9JRV.s 			page 16


 837 0020 5961     		str	r1, [r3, #20]
 838              		.loc 1 282 0
 839 0022 1621     		movs	r1, #22
 840 0024 9047     		blx	r2
 841              	.LVL70:
 842              		.loc 1 284 0
 843 0026 FFF7FEFF 		bl	dbg_check_leave_isr
 844              	.LVL71:
 845              		.loc 1 285 0
 846 002a BDE80840 		pop	{r3, lr}
 847              		.loc 1 284 0
 848 002e FFF7FEBF 		b	_port_irq_epilogue
 849              	.LVL72:
 850              		.cfi_endproc
 851              	.LFE124:
 852              		.size	Vector4C, .-Vector4C
 853 0032 00BFAFF3 		.section	.text.ext_lld_exti_irq_enable,"ax",%progbits
 853      0080AFF3 
 853      0080AFF3 
 853      0080
 854              		.align	2
 855              		.p2align 4,,15
 856              		.global	ext_lld_exti_irq_enable
 857              		.thumb
 858              		.thumb_func
 859              		.type	ext_lld_exti_irq_enable, %function
 860              	ext_lld_exti_irq_enable:
 861              	.LFB125:
 862              		.loc 1 296 0
 863              		.cfi_startproc
 864              		@ args = 0, pretend = 0, frame = 0
 865              		@ frame_needed = 0, uses_anonymous_args = 0
 866 0000 08B5     		push	{r3, lr}
 867              		.cfi_def_cfa_offset 8
 868              		.cfi_offset 3, -8
 869              		.cfi_offset 14, -4
 870              		.loc 1 298 0
 871 0002 0620     		movs	r0, #6
 872 0004 6021     		movs	r1, #96
 873 0006 FFF7FEFF 		bl	nvicEnableVector
 874              	.LVL73:
 875              		.loc 1 300 0
 876 000a 0720     		movs	r0, #7
 877 000c 6021     		movs	r1, #96
 878 000e FFF7FEFF 		bl	nvicEnableVector
 879              	.LVL74:
 880              		.loc 1 302 0
 881 0012 0820     		movs	r0, #8
 882 0014 6021     		movs	r1, #96
 883 0016 FFF7FEFF 		bl	nvicEnableVector
 884              	.LVL75:
 885              		.loc 1 304 0
 886 001a 0920     		movs	r0, #9
 887 001c 6021     		movs	r1, #96
 888 001e FFF7FEFF 		bl	nvicEnableVector
 889              	.LVL76:
 890              		.loc 1 306 0
ARM GAS  /tmp/cc6k9JRV.s 			page 17


 891 0022 0A20     		movs	r0, #10
 892 0024 6021     		movs	r1, #96
 893 0026 FFF7FEFF 		bl	nvicEnableVector
 894              	.LVL77:
 895              		.loc 1 308 0
 896 002a 1720     		movs	r0, #23
 897 002c 6021     		movs	r1, #96
 898 002e FFF7FEFF 		bl	nvicEnableVector
 899              	.LVL78:
 900              		.loc 1 310 0
 901 0032 2820     		movs	r0, #40
 902 0034 6021     		movs	r1, #96
 903 0036 FFF7FEFF 		bl	nvicEnableVector
 904              	.LVL79:
 905              		.loc 1 312 0
 906 003a 0120     		movs	r0, #1
 907 003c 6021     		movs	r1, #96
 908 003e FFF7FEFF 		bl	nvicEnableVector
 909              	.LVL80:
 910              		.loc 1 314 0
 911 0042 2920     		movs	r0, #41
 912 0044 F021     		movs	r1, #240
 913 0046 FFF7FEFF 		bl	nvicEnableVector
 914              	.LVL81:
 915              		.loc 1 316 0
 916 004a 2A20     		movs	r0, #42
 917 004c 6021     		movs	r1, #96
 918 004e FFF7FEFF 		bl	nvicEnableVector
 919              	.LVL82:
 920              		.loc 1 318 0
 921 0052 3E20     		movs	r0, #62
 922 0054 6021     		movs	r1, #96
 923 0056 FFF7FEFF 		bl	nvicEnableVector
 924              	.LVL83:
 925              		.loc 1 320 0
 926 005a 4C20     		movs	r0, #76
 927 005c 6021     		movs	r1, #96
 928 005e FFF7FEFF 		bl	nvicEnableVector
 929              	.LVL84:
 930              		.loc 1 322 0
 931 0062 0220     		movs	r0, #2
 932 0064 F021     		movs	r1, #240
 933 0066 FFF7FEFF 		bl	nvicEnableVector
 934              	.LVL85:
 935              		.loc 1 324 0
 936 006a 0320     		movs	r0, #3
 937 006c F021     		movs	r1, #240
 938              		.loc 1 326 0
 939 006e BDE80840 		pop	{r3, lr}
 940              		.loc 1 324 0
 941 0072 FFF7FEBF 		b	nvicEnableVector
 942              	.LVL86:
 943              		.cfi_endproc
 944              	.LFE125:
 945              		.size	ext_lld_exti_irq_enable, .-ext_lld_exti_irq_enable
 946 0076 00BFAFF3 		.section	.text.ext_lld_exti_irq_disable,"ax",%progbits
 946      0080AFF3 
ARM GAS  /tmp/cc6k9JRV.s 			page 18


 946      0080
 947              		.align	2
 948              		.p2align 4,,15
 949              		.global	ext_lld_exti_irq_disable
 950              		.thumb
 951              		.thumb_func
 952              		.type	ext_lld_exti_irq_disable, %function
 953              	ext_lld_exti_irq_disable:
 954              	.LFB126:
 955              		.loc 1 333 0
 956              		.cfi_startproc
 957              		@ args = 0, pretend = 0, frame = 0
 958              		@ frame_needed = 0, uses_anonymous_args = 0
 959 0000 08B5     		push	{r3, lr}
 960              		.cfi_def_cfa_offset 8
 961              		.cfi_offset 3, -8
 962              		.cfi_offset 14, -4
 963              		.loc 1 335 0
 964 0002 0620     		movs	r0, #6
 965 0004 FFF7FEFF 		bl	nvicDisableVector
 966              	.LVL87:
 967              		.loc 1 336 0
 968 0008 0720     		movs	r0, #7
 969 000a FFF7FEFF 		bl	nvicDisableVector
 970              	.LVL88:
 971              		.loc 1 337 0
 972 000e 0820     		movs	r0, #8
 973 0010 FFF7FEFF 		bl	nvicDisableVector
 974              	.LVL89:
 975              		.loc 1 338 0
 976 0014 0920     		movs	r0, #9
 977 0016 FFF7FEFF 		bl	nvicDisableVector
 978              	.LVL90:
 979              		.loc 1 339 0
 980 001a 0A20     		movs	r0, #10
 981 001c FFF7FEFF 		bl	nvicDisableVector
 982              	.LVL91:
 983              		.loc 1 340 0
 984 0020 1720     		movs	r0, #23
 985 0022 FFF7FEFF 		bl	nvicDisableVector
 986              	.LVL92:
 987              		.loc 1 341 0
 988 0026 2820     		movs	r0, #40
 989 0028 FFF7FEFF 		bl	nvicDisableVector
 990              	.LVL93:
 991              		.loc 1 342 0
 992 002c 0120     		movs	r0, #1
 993 002e FFF7FEFF 		bl	nvicDisableVector
 994              	.LVL94:
 995              		.loc 1 343 0
 996 0032 2920     		movs	r0, #41
 997 0034 FFF7FEFF 		bl	nvicDisableVector
 998              	.LVL95:
 999              		.loc 1 344 0
 1000 0038 2A20     		movs	r0, #42
 1001 003a FFF7FEFF 		bl	nvicDisableVector
 1002              	.LVL96:
ARM GAS  /tmp/cc6k9JRV.s 			page 19


 1003              		.loc 1 345 0
 1004 003e 3E20     		movs	r0, #62
 1005 0040 FFF7FEFF 		bl	nvicDisableVector
 1006              	.LVL97:
 1007              		.loc 1 346 0
 1008 0044 4C20     		movs	r0, #76
 1009 0046 FFF7FEFF 		bl	nvicDisableVector
 1010              	.LVL98:
 1011              		.loc 1 347 0
 1012 004a 0220     		movs	r0, #2
 1013 004c FFF7FEFF 		bl	nvicDisableVector
 1014              	.LVL99:
 1015              		.loc 1 348 0
 1016 0050 0320     		movs	r0, #3
 1017              		.loc 1 349 0
 1018 0052 BDE80840 		pop	{r3, lr}
 1019              		.loc 1 348 0
 1020 0056 FFF7FEBF 		b	nvicDisableVector
 1021              	.LVL100:
 1022              		.cfi_endproc
 1023              	.LFE126:
 1024              		.size	ext_lld_exti_irq_disable, .-ext_lld_exti_irq_disable
 1025 005a 00BFAFF3 		.text
 1025      0080
 1026              	.Letext0:
 1027              		.file 2 "/usr/arm-none-eabi/include/machine/_default_types.h"
 1028              		.file 3 "/usr/arm-none-eabi/include/stdint.h"
 1029              		.file 4 "../../../os/hal/platforms/STM32F4xx/stm32f4xx.h"
 1030              		.file 5 "../../../os/hal/include/ext.h"
 1031              		.file 6 "../../../os/hal/platforms/STM32/ext_lld.h"
 1032              		.file 7 "../../../os/ports/common/ARMCMx/CMSIS/include/core_cm4.h"
 1033              		.file 8 "../../../os/kernel/include/chdebug.h"
 1034              		.file 9 "../../../os/ports/GCC/ARMCMx/chcore_v7m.h"
 1035              		.file 10 "../../../os/ports/common/ARMCMx/nvic.h"