ARM GAS  /tmp/cc6k9JRV.s 			page 1


   1              		.syntax unified
   2              		.cpu cortex-m4
   3              		.fpu softvfp
   4              		.eabi_attribute 20, 1
   5              		.eabi_attribute 21, 1
   6              		.eabi_attribute 23, 3
   7              		.eabi_attribute 24, 1
   8              		.eabi_attribute 25, 1
   9              		.eabi_attribute 26, 1
  10              		.eabi_attribute 30, 2
  11              		.eabi_attribute 34, 1
  12              		.eabi_attribute 18, 4
  13              		.thumb
  14              		.file	"ext_lld_isr.c"
  15              		.text
  16              	.Ltext0:
  17              		.cfi_sections	.debug_frame
  18              		.section	.text.Vector58,"ax",%progbits
  19              		.align	2
  20              		.p2align 4,,15
  21              		.global	Vector58
  22              		.thumb
  23              		.thumb_func
  24              		.type	Vector58, %function
  25              	Vector58:
  26              	.LFB111:
  27              		.file 1 "../../../os/hal/platforms/STM32F4xx/ext_lld_isr.c"
  28              		.loc 1 57 0
  29              		.cfi_startproc
  30              		@ args = 0, pretend = 0, frame = 0
  31              		@ frame_needed = 0, uses_anonymous_args = 0
  32 0000 08B5     		push	{r3, lr}
  33              		.cfi_def_cfa_offset 8
  34              		.cfi_offset 3, -8
  35              		.cfi_offset 14, -4
  36              		.loc 1 59 0
  37 0002 FFF7FEFF 		bl	dbg_check_enter_isr
  38              	.LVL0:
  39              		.loc 1 62 0
  40 0006 40F20000 		movw	r0, #:lower16:EXTD1
  41 000a C0F20000 		movt	r0, #:upper16:EXTD1
  42              		.loc 1 61 0
  43 000e 4FF47053 		mov	r3, #15360
  44              		.loc 1 62 0
  45 0012 4268     		ldr	r2, [r0, #4]
  46              		.loc 1 61 0
  47 0014 C4F20103 		movt	r3, 16385
  48 0018 0121     		movs	r1, #1
  49              		.loc 1 62 0
  50 001a 5268     		ldr	r2, [r2, #4]
  51              		.loc 1 61 0
  52 001c 5961     		str	r1, [r3, #20]
  53              		.loc 1 62 0
  54 001e 0021     		movs	r1, #0
  55 0020 9047     		blx	r2
  56              	.LVL1:
  57              		.loc 1 64 0
ARM GAS  /tmp/cc6k9JRV.s 			page 2


  58 0022 FFF7FEFF 		bl	dbg_check_leave_isr
  59              	.LVL2:
  60              		.loc 1 65 0
  61 0026 BDE80840 		pop	{r3, lr}
  62              		.loc 1 64 0
  63 002a FFF7FEBF 		b	_port_irq_epilogue
  64              	.LVL3:
  65              		.cfi_endproc
  66              	.LFE111:
  67              		.size	Vector58, .-Vector58
  68 002e 00BF     		.section	.text.Vector5C,"ax",%progbits
  69              		.align	2
  70              		.p2align 4,,15
  71              		.global	Vector5C
  72              		.thumb
  73              		.thumb_func
  74              		.type	Vector5C, %function
  75              	Vector5C:
  76              	.LFB112:
  77              		.loc 1 72 0
  78              		.cfi_startproc
  79              		@ args = 0, pretend = 0, frame = 0
  80              		@ frame_needed = 0, uses_anonymous_args = 0
  81 0000 08B5     		push	{r3, lr}
  82              		.cfi_def_cfa_offset 8
  83              		.cfi_offset 3, -8
  84              		.cfi_offset 14, -4
  85              		.loc 1 74 0
  86 0002 FFF7FEFF 		bl	dbg_check_enter_isr
  87              	.LVL4:
  88              		.loc 1 77 0
  89 0006 40F20000 		movw	r0, #:lower16:EXTD1
  90 000a C0F20000 		movt	r0, #:upper16:EXTD1
  91              		.loc 1 76 0
  92 000e 4FF47053 		mov	r3, #15360
  93              		.loc 1 77 0
  94 0012 4268     		ldr	r2, [r0, #4]
  95              		.loc 1 76 0
  96 0014 C4F20103 		movt	r3, 16385
  97 0018 0221     		movs	r1, #2
  98              		.loc 1 77 0
  99 001a D268     		ldr	r2, [r2, #12]
 100              		.loc 1 76 0
 101 001c 5961     		str	r1, [r3, #20]
 102              		.loc 1 77 0
 103 001e 0121     		movs	r1, #1
 104 0020 9047     		blx	r2
 105              	.LVL5:
 106              		.loc 1 79 0
 107 0022 FFF7FEFF 		bl	dbg_check_leave_isr
 108              	.LVL6:
 109              		.loc 1 80 0
 110 0026 BDE80840 		pop	{r3, lr}
 111              		.loc 1 79 0
 112 002a FFF7FEBF 		b	_port_irq_epilogue
 113              	.LVL7:
 114              		.cfi_endproc
ARM GAS  /tmp/cc6k9JRV.s 			page 3


 115              	.LFE112:
 116              		.size	Vector5C, .-Vector5C
 117 002e 00BF     		.section	.text.Vector60,"ax",%progbits
 118              		.align	2
 119              		.p2align 4,,15
 120              		.global	Vector60
 121              		.thumb
 122              		.thumb_func
 123              		.type	Vector60, %function
 124              	Vector60:
 125              	.LFB113:
 126              		.loc 1 87 0
 127              		.cfi_startproc
 128              		@ args = 0, pretend = 0, frame = 0
 129              		@ frame_needed = 0, uses_anonymous_args = 0
 130 0000 08B5     		push	{r3, lr}
 131              		.cfi_def_cfa_offset 8
 132              		.cfi_offset 3, -8
 133              		.cfi_offset 14, -4
 134              		.loc 1 89 0
 135 0002 FFF7FEFF 		bl	dbg_check_enter_isr
 136              	.LVL8:
 137              		.loc 1 92 0
 138 0006 40F20000 		movw	r0, #:lower16:EXTD1
 139 000a C0F20000 		movt	r0, #:upper16:EXTD1
 140              		.loc 1 91 0
 141 000e 4FF47053 		mov	r3, #15360
 142              		.loc 1 92 0
 143 0012 4268     		ldr	r2, [r0, #4]
 144              		.loc 1 91 0
 145 0014 C4F20103 		movt	r3, 16385
 146 0018 0421     		movs	r1, #4
 147              		.loc 1 92 0
 148 001a 5269     		ldr	r2, [r2, #20]
 149              		.loc 1 91 0
 150 001c 5961     		str	r1, [r3, #20]
 151              		.loc 1 92 0
 152 001e 0221     		movs	r1, #2
 153 0020 9047     		blx	r2
 154              	.LVL9:
 155              		.loc 1 94 0
 156 0022 FFF7FEFF 		bl	dbg_check_leave_isr
 157              	.LVL10:
 158              		.loc 1 95 0
 159 0026 BDE80840 		pop	{r3, lr}
 160              		.loc 1 94 0
 161 002a FFF7FEBF 		b	_port_irq_epilogue
 162              	.LVL11:
 163              		.cfi_endproc
 164              	.LFE113:
 165              		.size	Vector60, .-Vector60
 166 002e 00BF     		.section	.text.Vector64,"ax",%progbits
 167              		.align	2
 168              		.p2align 4,,15
 169              		.global	Vector64
 170              		.thumb
 171              		.thumb_func
ARM GAS  /tmp/cc6k9JRV.s 			page 4


 172              		.type	Vector64, %function
 173              	Vector64:
 174              	.LFB114:
 175              		.loc 1 102 0
 176              		.cfi_startproc
 177              		@ args = 0, pretend = 0, frame = 0
 178              		@ frame_needed = 0, uses_anonymous_args = 0
 179 0000 08B5     		push	{r3, lr}
 180              		.cfi_def_cfa_offset 8
 181              		.cfi_offset 3, -8
 182              		.cfi_offset 14, -4
 183              		.loc 1 104 0
 184 0002 FFF7FEFF 		bl	dbg_check_enter_isr
 185              	.LVL12:
 186              		.loc 1 107 0
 187 0006 40F20000 		movw	r0, #:lower16:EXTD1
 188 000a C0F20000 		movt	r0, #:upper16:EXTD1
 189              		.loc 1 106 0
 190 000e 4FF47053 		mov	r3, #15360
 191              		.loc 1 107 0
 192 0012 4268     		ldr	r2, [r0, #4]
 193              		.loc 1 106 0
 194 0014 C4F20103 		movt	r3, 16385
 195 0018 0821     		movs	r1, #8
 196              		.loc 1 107 0
 197 001a D269     		ldr	r2, [r2, #28]
 198              		.loc 1 106 0
 199 001c 5961     		str	r1, [r3, #20]
 200              		.loc 1 107 0
 201 001e 0321     		movs	r1, #3
 202 0020 9047     		blx	r2
 203              	.LVL13:
 204              		.loc 1 109 0
 205 0022 FFF7FEFF 		bl	dbg_check_leave_isr
 206              	.LVL14:
 207              		.loc 1 110 0
 208 0026 BDE80840 		pop	{r3, lr}
 209              		.loc 1 109 0
 210 002a FFF7FEBF 		b	_port_irq_epilogue
 211              	.LVL15:
 212              		.cfi_endproc
 213              	.LFE114:
 214              		.size	Vector64, .-Vector64
 215 002e 00BF     		.section	.text.Vector68,"ax",%progbits
 216              		.align	2
 217              		.p2align 4,,15
 218              		.global	Vector68
 219              		.thumb
 220              		.thumb_func
 221              		.type	Vector68, %function
 222              	Vector68:
 223              	.LFB115:
 224              		.loc 1 117 0
 225              		.cfi_startproc
 226              		@ args = 0, pretend = 0, frame = 0
 227              		@ frame_needed = 0, uses_anonymous_args = 0
 228 0000 08B5     		push	{r3, lr}
ARM GAS  /tmp/cc6k9JRV.s 			page 5


 229              		.cfi_def_cfa_offset 8
 230              		.cfi_offset 3, -8
 231              		.cfi_offset 14, -4
 232              		.loc 1 119 0
 233 0002 FFF7FEFF 		bl	dbg_check_enter_isr
 234              	.LVL16:
 235              		.loc 1 122 0
 236 0006 40F20000 		movw	r0, #:lower16:EXTD1
 237 000a C0F20000 		movt	r0, #:upper16:EXTD1
 238              		.loc 1 121 0
 239 000e 4FF47053 		mov	r3, #15360
 240              		.loc 1 122 0
 241 0012 4268     		ldr	r2, [r0, #4]
 242              		.loc 1 121 0
 243 0014 C4F20103 		movt	r3, 16385
 244 0018 1021     		movs	r1, #16
 245              		.loc 1 122 0
 246 001a 526A     		ldr	r2, [r2, #36]
 247              		.loc 1 121 0
 248 001c 5961     		str	r1, [r3, #20]
 249              		.loc 1 122 0
 250 001e 0421     		movs	r1, #4
 251 0020 9047     		blx	r2
 252              	.LVL17:
 253              		.loc 1 124 0
 254 0022 FFF7FEFF 		bl	dbg_check_leave_isr
 255              	.LVL18:
 256              		.loc 1 125 0
 257 0026 BDE80840 		pop	{r3, lr}
 258              		.loc 1 124 0
 259 002a FFF7FEBF 		b	_port_irq_epilogue
 260              	.LVL19:
 261              		.cfi_endproc
 262              	.LFE115:
 263              		.size	Vector68, .-Vector68
 264 002e 00BF     		.section	.text.Vector9C,"ax",%progbits
 265              		.align	2
 266              		.p2align 4,,15
 267              		.global	Vector9C
 268              		.thumb
 269              		.thumb_func
 270              		.type	Vector9C, %function
 271              	Vector9C:
 272              	.LFB116:
 273              		.loc 1 132 0
 274              		.cfi_startproc
 275              		@ args = 0, pretend = 0, frame = 0
 276              		@ frame_needed = 0, uses_anonymous_args = 0
 277 0000 10B5     		push	{r4, lr}
 278              		.cfi_def_cfa_offset 8
 279              		.cfi_offset 4, -8
 280              		.cfi_offset 14, -4
 281              		.loc 1 135 0
 282 0002 FFF7FEFF 		bl	dbg_check_enter_isr
 283              	.LVL20:
 284              		.loc 1 137 0
 285 0006 4FF47053 		mov	r3, #15360
ARM GAS  /tmp/cc6k9JRV.s 			page 6


 286 000a C4F20103 		movt	r3, 16385
 287 000e 5C69     		ldr	r4, [r3, #20]
 288 0010 04F47872 		and	r2, r4, #992
 289              	.LVL21:
 290              		.loc 1 138 0
 291 0014 5A61     		str	r2, [r3, #20]
 292              		.loc 1 139 0
 293 0016 A306     		lsls	r3, r4, #26
 294 0018 34D4     		bmi	.L28
 295              	.LVL22:
 296              	.L7:
 297              		.loc 1 141 0
 298 001a 6006     		lsls	r0, r4, #25
 299 001c 28D4     		bmi	.L29
 300              	.L8:
 301              		.loc 1 143 0
 302 001e 2106     		lsls	r1, r4, #24
 303 0020 1CD4     		bmi	.L30
 304              	.L9:
 305              		.loc 1 145 0
 306 0022 E205     		lsls	r2, r4, #23
 307 0024 10D4     		bmi	.L31
 308              	.L10:
 309              		.loc 1 147 0
 310 0026 A305     		lsls	r3, r4, #22
 311 0028 08D5     		bpl	.L11
 312              		.loc 1 148 0
 313 002a 40F20003 		movw	r3, #:lower16:EXTD1
 314 002e C0F20003 		movt	r3, #:upper16:EXTD1
 315 0032 1846     		mov	r0, r3
 316 0034 5B68     		ldr	r3, [r3, #4]
 317 0036 0921     		movs	r1, #9
 318 0038 DB6C     		ldr	r3, [r3, #76]
 319 003a 9847     		blx	r3
 320              	.LVL23:
 321              	.L11:
 322              		.loc 1 150 0
 323 003c FFF7FEFF 		bl	dbg_check_leave_isr
 324              	.LVL24:
 325              		.loc 1 151 0
 326 0040 BDE81040 		pop	{r4, lr}
 327              	.LVL25:
 328              		.loc 1 150 0
 329 0044 FFF7FEBF 		b	_port_irq_epilogue
 330              	.LVL26:
 331              	.L31:
 332              		.loc 1 146 0
 333 0048 40F20003 		movw	r3, #:lower16:EXTD1
 334 004c C0F20003 		movt	r3, #:upper16:EXTD1
 335 0050 1846     		mov	r0, r3
 336 0052 5B68     		ldr	r3, [r3, #4]
 337 0054 0821     		movs	r1, #8
 338 0056 5B6C     		ldr	r3, [r3, #68]
 339 0058 9847     		blx	r3
 340              	.LVL27:
 341 005a E4E7     		b	.L10
 342              	.L30:
ARM GAS  /tmp/cc6k9JRV.s 			page 7


 343              		.loc 1 144 0
 344 005c 40F20003 		movw	r3, #:lower16:EXTD1
 345 0060 C0F20003 		movt	r3, #:upper16:EXTD1
 346 0064 1846     		mov	r0, r3
 347 0066 5B68     		ldr	r3, [r3, #4]
 348 0068 0721     		movs	r1, #7
 349 006a DB6B     		ldr	r3, [r3, #60]
 350 006c 9847     		blx	r3
 351              	.LVL28:
 352 006e D8E7     		b	.L9
 353              	.L29:
 354              		.loc 1 142 0
 355 0070 40F20003 		movw	r3, #:lower16:EXTD1
 356 0074 C0F20003 		movt	r3, #:upper16:EXTD1
 357 0078 1846     		mov	r0, r3
 358 007a 5B68     		ldr	r3, [r3, #4]
 359 007c 0621     		movs	r1, #6
 360 007e 5B6B     		ldr	r3, [r3, #52]
 361 0080 9847     		blx	r3
 362              	.LVL29:
 363 0082 CCE7     		b	.L8
 364              	.LVL30:
 365              	.L28:
 366              		.loc 1 140 0
 367 0084 40F20003 		movw	r3, #:lower16:EXTD1
 368 0088 C0F20003 		movt	r3, #:upper16:EXTD1
 369 008c 1846     		mov	r0, r3
 370 008e 5B68     		ldr	r3, [r3, #4]
 371 0090 0521     		movs	r1, #5
 372 0092 DB6A     		ldr	r3, [r3, #44]
 373 0094 9847     		blx	r3
 374              	.LVL31:
 375 0096 C0E7     		b	.L7
 376              		.cfi_endproc
 377              	.LFE116:
 378              		.size	Vector9C, .-Vector9C
 379 0098 AFF30080 		.section	.text.VectorE0,"ax",%progbits
 379      AFF30080 
 380              		.align	2
 381              		.p2align 4,,15
 382              		.global	VectorE0
 383              		.thumb
 384              		.thumb_func
 385              		.type	VectorE0, %function
 386              	VectorE0:
 387              	.LFB117:
 388              		.loc 1 158 0
 389              		.cfi_startproc
 390              		@ args = 0, pretend = 0, frame = 0
 391              		@ frame_needed = 0, uses_anonymous_args = 0
 392 0000 10B5     		push	{r4, lr}
 393              		.cfi_def_cfa_offset 8
 394              		.cfi_offset 4, -8
 395              		.cfi_offset 14, -4
 396              		.loc 1 161 0
 397 0002 FFF7FEFF 		bl	dbg_check_enter_isr
 398              	.LVL32:
ARM GAS  /tmp/cc6k9JRV.s 			page 8


 399              		.loc 1 163 0
 400 0006 4FF47053 		mov	r3, #15360
 401 000a C4F20103 		movt	r3, 16385
 402 000e 5C69     		ldr	r4, [r3, #20]
 403 0010 04F47C42 		and	r2, r4, #64512
 404              	.LVL33:
 405              		.loc 1 166 0
 406 0014 6105     		lsls	r1, r4, #21
 407              		.loc 1 165 0
 408 0016 5A61     		str	r2, [r3, #20]
 409              		.loc 1 166 0
 410 0018 40D4     		bmi	.L57
 411              	.LVL34:
 412              	.L33:
 413              		.loc 1 168 0
 414 001a 2205     		lsls	r2, r4, #20
 415 001c 34D4     		bmi	.L58
 416              	.L34:
 417              		.loc 1 170 0
 418 001e E304     		lsls	r3, r4, #19
 419 0020 28D4     		bmi	.L59
 420              	.L35:
 421              		.loc 1 172 0
 422 0022 A004     		lsls	r0, r4, #18
 423 0024 1CD4     		bmi	.L60
 424              	.L36:
 425              		.loc 1 174 0
 426 0026 6104     		lsls	r1, r4, #17
 427 0028 10D4     		bmi	.L61
 428              	.L37:
 429              		.loc 1 176 0
 430 002a 2204     		lsls	r2, r4, #16
 431 002c 08D5     		bpl	.L38
 432              		.loc 1 177 0
 433 002e 40F20003 		movw	r3, #:lower16:EXTD1
 434 0032 C0F20003 		movt	r3, #:upper16:EXTD1
 435 0036 1846     		mov	r0, r3
 436 0038 5B68     		ldr	r3, [r3, #4]
 437 003a 0F21     		movs	r1, #15
 438 003c DB6F     		ldr	r3, [r3, #124]
 439 003e 9847     		blx	r3
 440              	.LVL35:
 441              	.L38:
 442              		.loc 1 179 0
 443 0040 FFF7FEFF 		bl	dbg_check_leave_isr
 444              	.LVL36:
 445              		.loc 1 180 0
 446 0044 BDE81040 		pop	{r4, lr}
 447              	.LVL37:
 448              		.loc 1 179 0
 449 0048 FFF7FEBF 		b	_port_irq_epilogue
 450              	.LVL38:
 451              	.L61:
 452              		.loc 1 175 0
 453 004c 40F20003 		movw	r3, #:lower16:EXTD1
 454 0050 C0F20003 		movt	r3, #:upper16:EXTD1
 455 0054 1846     		mov	r0, r3
ARM GAS  /tmp/cc6k9JRV.s 			page 9


 456 0056 5B68     		ldr	r3, [r3, #4]
 457 0058 0E21     		movs	r1, #14
 458 005a 5B6F     		ldr	r3, [r3, #116]
 459 005c 9847     		blx	r3
 460              	.LVL39:
 461 005e E4E7     		b	.L37
 462              	.L60:
 463              		.loc 1 173 0
 464 0060 40F20003 		movw	r3, #:lower16:EXTD1
 465 0064 C0F20003 		movt	r3, #:upper16:EXTD1
 466 0068 1846     		mov	r0, r3
 467 006a 5B68     		ldr	r3, [r3, #4]
 468 006c 0D21     		movs	r1, #13
 469 006e DB6E     		ldr	r3, [r3, #108]
 470 0070 9847     		blx	r3
 471              	.LVL40:
 472 0072 D8E7     		b	.L36
 473              	.L59:
 474              		.loc 1 171 0
 475 0074 40F20003 		movw	r3, #:lower16:EXTD1
 476 0078 C0F20003 		movt	r3, #:upper16:EXTD1
 477 007c 1846     		mov	r0, r3
 478 007e 5B68     		ldr	r3, [r3, #4]
 479 0080 0C21     		movs	r1, #12
 480 0082 5B6E     		ldr	r3, [r3, #100]
 481 0084 9847     		blx	r3
 482              	.LVL41:
 483 0086 CCE7     		b	.L35
 484              	.L58:
 485              		.loc 1 169 0
 486 0088 40F20003 		movw	r3, #:lower16:EXTD1
 487 008c C0F20003 		movt	r3, #:upper16:EXTD1
 488 0090 1846     		mov	r0, r3
 489 0092 5B68     		ldr	r3, [r3, #4]
 490 0094 0B21     		movs	r1, #11
 491 0096 DB6D     		ldr	r3, [r3, #92]
 492 0098 9847     		blx	r3
 493              	.LVL42:
 494 009a C0E7     		b	.L34
 495              	.LVL43:
 496              	.L57:
 497              		.loc 1 167 0
 498 009c 40F20003 		movw	r3, #:lower16:EXTD1
 499 00a0 C0F20003 		movt	r3, #:upper16:EXTD1
 500 00a4 1846     		mov	r0, r3
 501 00a6 5B68     		ldr	r3, [r3, #4]
 502 00a8 0A21     		movs	r1, #10
 503 00aa 5B6D     		ldr	r3, [r3, #84]
 504 00ac 9847     		blx	r3
 505              	.LVL44:
 506 00ae B4E7     		b	.L33
 507              		.cfi_endproc
 508              	.LFE117:
 509              		.size	VectorE0, .-VectorE0
 510              		.section	.text.Vector44,"ax",%progbits
 511              		.align	2
 512              		.p2align 4,,15
ARM GAS  /tmp/cc6k9JRV.s 			page 10


 513              		.global	Vector44
 514              		.thumb
 515              		.thumb_func
 516              		.type	Vector44, %function
 517              	Vector44:
 518              	.LFB118:
 519              		.loc 1 187 0
 520              		.cfi_startproc
 521              		@ args = 0, pretend = 0, frame = 0
 522              		@ frame_needed = 0, uses_anonymous_args = 0
 523 0000 08B5     		push	{r3, lr}
 524              		.cfi_def_cfa_offset 8
 525              		.cfi_offset 3, -8
 526              		.cfi_offset 14, -4
 527              		.loc 1 189 0
 528 0002 FFF7FEFF 		bl	dbg_check_enter_isr
 529              	.LVL45:
 530              		.loc 1 192 0
 531 0006 40F20000 		movw	r0, #:lower16:EXTD1
 532 000a C0F20000 		movt	r0, #:upper16:EXTD1
 533              		.loc 1 191 0
 534 000e 4FF47053 		mov	r3, #15360
 535              		.loc 1 192 0
 536 0012 4268     		ldr	r2, [r0, #4]
 537              		.loc 1 191 0
 538 0014 C4F20103 		movt	r3, 16385
 539 0018 4FF48031 		mov	r1, #65536
 540              		.loc 1 192 0
 541 001c D2F88420 		ldr	r2, [r2, #132]
 542              		.loc 1 191 0
 543 0020 5961     		str	r1, [r3, #20]
 544              		.loc 1 192 0
 545 0022 1021     		movs	r1, #16
 546 0024 9047     		blx	r2
 547              	.LVL46:
 548              		.loc 1 194 0
 549 0026 FFF7FEFF 		bl	dbg_check_leave_isr
 550              	.LVL47:
 551              		.loc 1 195 0
 552 002a BDE80840 		pop	{r3, lr}
 553              		.loc 1 194 0
 554 002e FFF7FEBF 		b	_port_irq_epilogue
 555              	.LVL48:
 556              		.cfi_endproc
 557              	.LFE118:
 558              		.size	Vector44, .-Vector44
 559 0032 00BFAFF3 		.section	.text.VectorE4,"ax",%progbits
 559      0080AFF3 
 559      0080AFF3 
 559      0080
 560              		.align	2
 561              		.p2align 4,,15
 562              		.global	VectorE4
 563              		.thumb
 564              		.thumb_func
 565              		.type	VectorE4, %function
 566              	VectorE4:
ARM GAS  /tmp/cc6k9JRV.s 			page 11


 567              	.LFB119:
 568              		.loc 1 202 0
 569              		.cfi_startproc
 570              		@ args = 0, pretend = 0, frame = 0
 571              		@ frame_needed = 0, uses_anonymous_args = 0
 572 0000 08B5     		push	{r3, lr}
 573              		.cfi_def_cfa_offset 8
 574              		.cfi_offset 3, -8
 575              		.cfi_offset 14, -4
 576              		.loc 1 204 0
 577 0002 FFF7FEFF 		bl	dbg_check_enter_isr
 578              	.LVL49:
 579              		.loc 1 207 0
 580 0006 40F20000 		movw	r0, #:lower16:EXTD1
 581 000a C0F20000 		movt	r0, #:upper16:EXTD1
 582              		.loc 1 206 0
 583 000e 4FF47053 		mov	r3, #15360
 584              		.loc 1 207 0
 585 0012 4268     		ldr	r2, [r0, #4]
 586              		.loc 1 206 0
 587 0014 C4F20103 		movt	r3, 16385
 588 0018 4FF40031 		mov	r1, #131072
 589              		.loc 1 207 0
 590 001c D2F88C20 		ldr	r2, [r2, #140]
 591              		.loc 1 206 0
 592 0020 5961     		str	r1, [r3, #20]
 593              		.loc 1 207 0
 594 0022 1121     		movs	r1, #17
 595 0024 9047     		blx	r2
 596              	.LVL50:
 597              		.loc 1 209 0
 598 0026 FFF7FEFF 		bl	dbg_check_leave_isr
 599              	.LVL51:
 600              		.loc 1 210 0
 601 002a BDE80840 		pop	{r3, lr}
 602              		.loc 1 209 0
 603 002e FFF7FEBF 		b	_port_irq_epilogue
 604              	.LVL52:
 605              		.cfi_endproc
 606              	.LFE119:
 607              		.size	VectorE4, .-VectorE4
 608 0032 00BFAFF3 		.section	.text.VectorE8,"ax",%progbits
 608      0080AFF3 
 608      0080AFF3 
 608      0080
 609              		.align	2
 610              		.p2align 4,,15
 611              		.global	VectorE8
 612              		.thumb
 613              		.thumb_func
 614              		.type	VectorE8, %function
 615              	VectorE8:
 616              	.LFB120:
 617              		.loc 1 217 0
 618              		.cfi_startproc
 619              		@ args = 0, pretend = 0, frame = 0
 620              		@ frame_needed = 0, uses_anonymous_args = 0
ARM GAS  /tmp/cc6k9JRV.s 			page 12


 621 0000 08B5     		push	{r3, lr}
 622              		.cfi_def_cfa_offset 8
 623              		.cfi_offset 3, -8
 624              		.cfi_offset 14, -4
 625              		.loc 1 219 0
 626 0002 FFF7FEFF 		bl	dbg_check_enter_isr
 627              	.LVL53:
 628              		.loc 1 222 0
 629 0006 40F20000 		movw	r0, #:lower16:EXTD1
 630 000a C0F20000 		movt	r0, #:upper16:EXTD1
 631              		.loc 1 221 0
 632 000e 4FF47053 		mov	r3, #15360
 633              		.loc 1 222 0
 634 0012 4268     		ldr	r2, [r0, #4]
 635              		.loc 1 221 0
 636 0014 C4F20103 		movt	r3, 16385
 637 0018 4FF48021 		mov	r1, #262144
 638              		.loc 1 222 0
 639 001c D2F89420 		ldr	r2, [r2, #148]
 640              		.loc 1 221 0
 641 0020 5961     		str	r1, [r3, #20]
 642              		.loc 1 222 0
 643 0022 1221     		movs	r1, #18
 644 0024 9047     		blx	r2
 645              	.LVL54:
 646              		.loc 1 224 0
 647 0026 FFF7FEFF 		bl	dbg_check_leave_isr
 648              	.LVL55:
 649              		.loc 1 225 0
 650 002a BDE80840 		pop	{r3, lr}
 651              		.loc 1 224 0
 652 002e FFF7FEBF 		b	_port_irq_epilogue
 653              	.LVL56:
 654              		.cfi_endproc
 655              	.LFE120:
 656              		.size	VectorE8, .-VectorE8
 657 0032 00BFAFF3 		.section	.text.Vector138,"ax",%progbits
 657      0080AFF3 
 657      0080AFF3 
 657      0080
 658              		.align	2
 659              		.p2align 4,,15
 660              		.global	Vector138
 661              		.thumb
 662              		.thumb_func
 663              		.type	Vector138, %function
 664              	Vector138:
 665              	.LFB121:
 666              		.loc 1 232 0
 667              		.cfi_startproc
 668              		@ args = 0, pretend = 0, frame = 0
 669              		@ frame_needed = 0, uses_anonymous_args = 0
 670 0000 08B5     		push	{r3, lr}
 671              		.cfi_def_cfa_offset 8
 672              		.cfi_offset 3, -8
 673              		.cfi_offset 14, -4
 674              		.loc 1 234 0
ARM GAS  /tmp/cc6k9JRV.s 			page 13


 675 0002 FFF7FEFF 		bl	dbg_check_enter_isr
 676              	.LVL57:
 677              		.loc 1 237 0
 678 0006 40F20000 		movw	r0, #:lower16:EXTD1
 679 000a C0F20000 		movt	r0, #:upper16:EXTD1
 680              		.loc 1 236 0
 681 000e 4FF47053 		mov	r3, #15360
 682              		.loc 1 237 0
 683 0012 4268     		ldr	r2, [r0, #4]
 684              		.loc 1 236 0
 685 0014 C4F20103 		movt	r3, 16385
 686 0018 4FF40021 		mov	r1, #524288
 687              		.loc 1 237 0
 688 001c D2F89C20 		ldr	r2, [r2, #156]
 689              		.loc 1 236 0
 690 0020 5961     		str	r1, [r3, #20]
 691              		.loc 1 237 0
 692 0022 1321     		movs	r1, #19
 693 0024 9047     		blx	r2
 694              	.LVL58:
 695              		.loc 1 239 0
 696 0026 FFF7FEFF 		bl	dbg_check_leave_isr
 697              	.LVL59:
 698              		.loc 1 240 0
 699 002a BDE80840 		pop	{r3, lr}
 700              		.loc 1 239 0
 701 002e FFF7FEBF 		b	_port_irq_epilogue
 702              	.LVL60:
 703              		.cfi_endproc
 704              	.LFE121:
 705              		.size	Vector138, .-Vector138
 706 0032 00BFAFF3 		.section	.text.Vector170,"ax",%progbits
 706      0080AFF3 
 706      0080AFF3 
 706      0080
 707              		.align	2
 708              		.p2align 4,,15
 709              		.global	Vector170
 710              		.thumb
 711              		.thumb_func
 712              		.type	Vector170, %function
 713              	Vector170:
 714              	.LFB122:
 715              		.loc 1 247 0
 716              		.cfi_startproc
 717              		@ args = 0, pretend = 0, frame = 0
 718              		@ frame_needed = 0, uses_anonymous_args = 0
 719 0000 08B5     		push	{r3, lr}
 720              		.cfi_def_cfa_offset 8
 721              		.cfi_offset 3, -8
 722              		.cfi_offset 14, -4
 723              		.loc 1 249 0
 724 0002 FFF7FEFF 		bl	dbg_check_enter_isr
 725              	.LVL61:
 726              		.loc 1 252 0
 727 0006 40F20000 		movw	r0, #:lower16:EXTD1
 728 000a C0F20000 		movt	r0, #:upper16:EXTD1
ARM GAS  /tmp/cc6k9JRV.s 			page 14


 729              		.loc 1 251 0
 730 000e 4FF47053 		mov	r3, #15360
 731              		.loc 1 252 0
 732 0012 4268     		ldr	r2, [r0, #4]
 733              		.loc 1 251 0
 734 0014 C4F20103 		movt	r3, 16385
 735 0018 4FF48011 		mov	r1, #1048576
 736              		.loc 1 252 0
 737 001c D2F8A420 		ldr	r2, [r2, #164]
 738              		.loc 1 251 0
 739 0020 5961     		str	r1, [r3, #20]
 740              		.loc 1 252 0
 741 0022 1421     		movs	r1, #20
 742 0024 9047     		blx	r2
 743              	.LVL62:
 744              		.loc 1 254 0
 745 0026 FFF7FEFF 		bl	dbg_check_leave_isr
 746              	.LVL63:
 747              		.loc 1 255 0
 748 002a BDE80840 		pop	{r3, lr}
 749              		.loc 1 254 0
 750 002e FFF7FEBF 		b	_port_irq_epilogue
 751              	.LVL64:
 752              		.cfi_endproc
 753              	.LFE122:
 754              		.size	Vector170, .-Vector170
 755 0032 00BFAFF3 		.section	.text.TAMPER_STAMP_IRQHandler,"ax",%progbits
 755      0080AFF3 
 755      0080AFF3 
 755      0080
 756              		.align	2
 757              		.p2align 4,,15
 758              		.global	TAMPER_STAMP_IRQHandler
 759              		.thumb
 760              		.thumb_func
 761              		.type	TAMPER_STAMP_IRQHandler, %function
 762              	TAMPER_STAMP_IRQHandler:
 763              	.LFB123:
 764              		.loc 1 262 0
 765              		.cfi_startproc
 766              		@ args = 0, pretend = 0, frame = 0
 767              		@ frame_needed = 0, uses_anonymous_args = 0
 768 0000 08B5     		push	{r3, lr}
 769              		.cfi_def_cfa_offset 8
 770              		.cfi_offset 3, -8
 771              		.cfi_offset 14, -4
 772              		.loc 1 264 0
 773 0002 FFF7FEFF 		bl	dbg_check_enter_isr
 774              	.LVL65:
 775              		.loc 1 267 0
 776 0006 40F20000 		movw	r0, #:lower16:EXTD1
 777 000a C0F20000 		movt	r0, #:upper16:EXTD1
 778              		.loc 1 266 0
 779 000e 4FF47053 		mov	r3, #15360
 780              		.loc 1 267 0
 781 0012 4268     		ldr	r2, [r0, #4]
 782              		.loc 1 266 0
ARM GAS  /tmp/cc6k9JRV.s 			page 15


 783 0014 C4F20103 		movt	r3, 16385
 784 0018 4FF40011 		mov	r1, #2097152
 785              		.loc 1 267 0
 786 001c D2F8AC20 		ldr	r2, [r2, #172]
 787              		.loc 1 266 0
 788 0020 5961     		str	r1, [r3, #20]
 789              		.loc 1 267 0
 790 0022 1521     		movs	r1, #21
 791 0024 9047     		blx	r2
 792              	.LVL66:
 793              		.loc 1 269 0
 794 0026 FFF7FEFF 		bl	dbg_check_leave_isr
 795              	.LVL67:
 796              		.loc 1 270 0
 797 002a BDE80840 		pop	{r3, lr}
 798              		.loc 1 269 0
 799 002e FFF7FEBF 		b	_port_irq_epilogue
 800              	.LVL68:
 801              		.cfi_endproc
 802              	.LFE123:
 803              		.size	TAMPER_STAMP_IRQHandler, .-TAMPER_STAMP_IRQHandler
 804 0032 00BFAFF3 		.section	.text.Vector4C,"ax",%progbits
 804      0080AFF3 
 804      0080AFF3 
 804      0080
 805              		.align	2
 806              		.p2align 4,,15
 807              		.global	Vector4C
 808              		.thumb
 809              		.thumb_func
 810              		.type	Vector4C, %function
 811              	Vector4C:
 812              	.LFB124:
 813              		.loc 1 277 0
 814              		.cfi_startproc
 815              		@ args = 0, pretend = 0, frame = 0
 816              		@ frame_needed = 0, uses_anonymous_args = 0
 817 0000 08B5     		push	{r3, lr}
 818              		.cfi_def_cfa_offset 8
 819              		.cfi_offset 3, -8
 820              		.cfi_offset 14, -4
 821              		.loc 1 279 0
 822 0002 FFF7FEFF 		bl	dbg_check_enter_isr
 823              	.LVL69:
 824              		.loc 1 282 0
 825 0006 40F20000 		movw	r0, #:lower16:EXTD1
 826 000a C0F20000 		movt	r0, #:upper16:EXTD1
 827              		.loc 1 281 0
 828 000e 4FF47053 		mov	r3, #15360
 829              		.loc 1 282 0
 830 0012 4268     		ldr	r2, [r0, #4]
 831              		.loc 1 281 0
 832 0014 C4F20103 		movt	r3, 16385
 833 0018 4FF48001 		mov	r1, #4194304
 834              		.loc 1 282 0
 835 001c D2F8B420 		ldr	r2, [r2, #180]
 836              		.loc 1 281 0
ARM GAS  /tmp/cc6k9JRV.s 			page 16


 837 0020 5961     		str	r1, [r3, #20]
 838              		.loc 1 282 0
 839 0022 1621     		movs	r1, #22
 840 0024 9047     		blx	r2
 841              	.LVL70:
 842              		.loc 1 284 0
 843 0026 FFF7FEFF 		bl	dbg_check_leave_isr
 844              	.LVL71:
 845              		.loc 1 285 0
 846 002a BDE80840 		pop	{r3, lr}
 847              		.loc 1 284 0
 848 002e FFF7FEBF 		b	_port_irq_epilogue
 849              	.LVL72:
 850              		.cfi_endproc
 851              	.LFE124:
 852              		.size	Vector4C, .-Vector4C
 853 0032 00BFAFF3 		.section	.text.ext_lld_exti_irq_enable,"ax",%progbits
 853      0080AFF3 
 853      0080AFF3 
 853      0080
 854              		.align	2
 855              		.p2align 4,,15
 856              		.global	ext_lld_exti_irq_enable
 857              		.thumb
 858              		.thumb_func
 859              		.type	ext_lld_exti_irq_enable, %function
 860              	ext_lld_exti_irq_enable:
 861              	.LFB125:
 862              		.loc 1 296 0
 863              		.cfi_startproc
 864              		@ args = 0, pretend = 0, frame = 0
 865              		@ frame_needed = 0, uses_anonymous_args = 0
 866 0000 08B5     		push	{r3, lr}
 867              		.cfi_def_cfa_offset 8
 868              		.cfi_offset 3, -8
 869              		.cfi_offset 14, -4
 870              		.loc 1 298 0
 871 0002 0620     		movs	r0, #6
 872 0004 6021     		movs	r1, #96
 873 0006 FFF7FEFF 		bl	nvicEnableVector
 874              	.LVL73:
 875              		.loc 1 300 0
 876 000a 0720     		movs	r0, #7
 877 000c 6021     		movs	r1, #96
 878 000e FFF7FEFF 		bl	nvicEnableVector
 879              	.LVL74:
 880              		.loc 1 302 0
 881 0012 0820     		movs	r0, #8
 882 0014 6021     		movs	r1, #96
 883 0016 FFF7FEFF 		bl	nvicEnableVector
 884              	.LVL75:
 885              		.loc 1 304 0
 886 001a 0920     		movs	r0, #9
 887 001c 6021     		movs	r1, #96
 888 001e FFF7FEFF 		bl	nvicEnableVector
 889              	.LVL76:
 890              		.loc 1 306 0
ARM GAS  /tmp/cc6k9JRV.s 			page 17


 891 0022 0A20     		movs	r0, #10
 892 0024 6021     		movs	r1, #96
 893 0026 FFF7FEFF 		bl	nvicEnableVector
 894              	.LVL77:
 895              		.loc 1 308 0
 896 002a 1720     		movs	r0, #23
 897 002c 6021     		movs	r1, #96
 898 002e FFF7FEFF 		bl	nvicEnableVector
 899              	.LVL78:
 900              		.loc 1 310 0
 901 0032 2820     		movs	r0, #40
 902 0034 6021     		movs	r1, #96
 903 0036 FFF7FEFF 		bl	nvicEnableVector
 904              	.LVL79:
 905              		.loc 1 312 0
 906 003a 0120     		movs	r0, #1
 907 003c 6021     		movs	r1, #96
 908 003e FFF7FEFF 		bl	nvicEnableVector
 909              	.LVL80:
 910              		.loc 1 314 0
 911 0042 2920     		movs	r0, #41
 912 0044 F021     		movs	r1, #240
 913 0046 FFF7FEFF 		bl	nvicEnableVector
 914              	.LVL81:
 915              		.loc 1 316 0
 916 004a 2A20     		movs	r0, #42
 917 004c 6021     		movs	r1, #96
 918 004e FFF7FEFF 		bl	nvicEnableVector
 919              	.LVL82:
 920              		.loc 1 318 0
 921 0052 3E20     		movs	r0, #62
 922 0054 6021     		movs	r1, #96
 923 0056 FFF7FEFF 		bl	nvicEnableVector
 924              	.LVL83:
 925              		.loc 1 320 0
 926 005a 4C20     		movs	r0, #76
 927 005c 6021     		movs	r1, #96
 928 005e FFF7FEFF 		bl	nvicEnableVector
 929              	.LVL84:
 930              		.loc 1 322 0
 931 0062 0220     		movs	r0, #2
 932 0064 F021     		movs	r1, #240
 933 0066 FFF7FEFF 		bl	nvicEnableVector
 934              	.LVL85:
 935              		.loc 1 324 0
 936 006a 0320     		movs	r0, #3
 937 006c F021     		movs	r1, #240
 938              		.loc 1 326 0
 939 006e BDE80840 		pop	{r3, lr}
 940              		.loc 1 324 0
 941 0072 FFF7FEBF 		b	nvicEnableVector
 942              	.LVL86:
 943              		.cfi_endproc
 944              	.LFE125:
 945              		.size	ext_lld_exti_irq_enable, .-ext_lld_exti_irq_enable
 946 0076 00BFAFF3 		.section	.text.ext_lld_exti_irq_disable,"ax",%progbits
 946      0080AFF3 
ARM GAS  /tmp/cc6k9JRV.s 			page 18


 946      0080
 947              		.align	2
 948              		.p2align 4,,15
 949              		.global	ext_lld_exti_irq_disable
 950              		.thumb
 951              		.thumb_func
 952              		.type	ext_lld_exti_irq_disable, %function
 953              	ext_lld_exti_irq_disable:
 954              	.LFB126:
 955              		.loc 1 333 0
 956              		.cfi_startproc
 957              		@ args = 0, pretend = 0, frame = 0
 958              		@ frame_needed = 0, uses_anonymous_args = 0
 959 0000 08B5     		push	{r3, lr}
 960              		.cfi_def_cfa_offset 8
 961              		.cfi_offset 3, -8
 962              		.cfi_offset 14, -4
 963              		.loc 1 335 0
 964 0002 0620     		movs	r0, #6
 965 0004 FFF7FEFF 		bl	nvicDisableVector
 966              	.LVL87:
 967              		.loc 1 336 0
 968 0008 0720     		movs	r0, #7
 969 000a FFF7FEFF 		bl	nvicDisableVector
 970              	.LVL88:
 971              		.loc 1 337 0
 972 000e 0820     		movs	r0, #8
 973 0010 FFF7FEFF 		bl	nvicDisableVector
 974              	.LVL89:
 975              		.loc 1 338 0
 976 0014 0920     		movs	r0, #9
 977 0016 FFF7FEFF 		bl	nvicDisableVector
 978              	.LVL90:
 979              		.loc 1 339 0
 980 001a 0A20     		movs	r0, #10
 981 001c FFF7FEFF 		bl	nvicDisableVector
 982              	.LVL91:
 983              		.loc 1 340 0
 984 0020 1720     		movs	r0, #23
 985 0022 FFF7FEFF 		bl	nvicDisableVector
 986              	.LVL92:
 987              		.loc 1 341 0
 988 0026 2820     		movs	r0, #40
 989 0028 FFF7FEFF 		bl	nvicDisableVector
 990              	.LVL93:
 991              		.loc 1 342 0
 992 002c 0120     		movs	r0, #1
 993 002e FFF7FEFF 		bl	nvicDisableVector
 994              	.LVL94:
 995              		.loc 1 343 0
 996 0032 2920     		movs	r0, #41
 997 0034 FFF7FEFF 		bl	nvicDisableVector
 998              	.LVL95:
 999              		.loc 1 344 0
 1000 0038 2A20     		movs	r0, #42
 1001 003a FFF7FEFF 		bl	nvicDisableVector
 1002              	.LVL96:
ARM GAS  /tmp/cc6k9JRV.s 			page 19


 1003              		.loc 1 345 0
 1004 003e 3E20     		movs	r0, #62
 1005 0040 FFF7FEFF 		bl	nvicDisableVector
 1006              	.LVL97:
 1007              		.loc 1 346 0
 1008 0044 4C20     		movs	r0, #76
 1009 0046 FFF7FEFF 		bl	nvicDisableVector
 1010              	.LVL98:
 1011              		.loc 1 347 0
 1012 004a 0220     		movs	r0, #2
 1013 004c FFF7FEFF 		bl	nvicDisableVector
 1014              	.LVL99:
 1015              		.loc 1 348 0
 1016 0050 0320     		movs	r0, #3
 1017              		.loc 1 349 0
 1018 0052 BDE80840 		pop	{r3, lr}
 1019              		.loc 1 348 0
 1020 0056 FFF7FEBF 		b	nvicDisableVector
 1021              	.LVL100:
 1022              		.cfi_endproc
 1023              	.LFE126:
 1024              		.size	ext_lld_exti_irq_disable, .-ext_lld_exti_irq_disable
 1025 005a 00BFAFF3 		.text
 1025      0080
 1026              	.Letext0:
 1027              		.file 2 "/usr/arm-none-eabi/include/machine/_default_types.h"
 1028              		.file 3 "/usr/arm-none-eabi/include/stdint.h"
 1029              		.file 4 "../../../os/hal/platforms/STM32F4xx/stm32f4xx.h"
 1030              		.file 5 "../../../os/hal/include/ext.h"
 1031              		.file 6 "../../../os/hal/platforms/STM32/ext_lld.h"
 1032              		.file 7 "../../../os/ports/common/ARMCMx/CMSIS/include/core_cm4.h"
 1033              		.file 8 "../../../os/kernel/include/chdebug.h"
 1034              		.file 9 "../../../os/ports/GCC/ARMCMx/chcore_v7m.h"
 1035              		.file 10 "../../../os/ports/common/ARMCMx/nvic.h"
 1036              		.section	.debug_info,"",%progbits
 1037              	.Ldebug_info0:
 1038 0000 460B0000 		.4byte	0xb46
 1039 0004 0400     		.2byte	0x4
 1040 0006 00000000 		.4byte	.Ldebug_abbrev0
 1041 000a 04       		.byte	0x4
 1042 000b 01       		.uleb128 0x1
 1043 000c 77000000 		.4byte	.LASF144
 1044 0010 01       		.byte	0x1
 1045 0011 D9010000 		.4byte	.LASF145
 1046 0015 96030000 		.4byte	.LASF146
 1047 0019 00000000 		.4byte	.Ldebug_ranges0+0
 1048 001d 00000000 		.4byte	0
 1049 0021 00000000 		.4byte	.Ldebug_line0
 1050 0025 02       		.uleb128 0x2
 1051 0026 04       		.byte	0x4
 1052 0027 05       		.byte	0x5
 1053 0028 696E7400 		.ascii	"int\000"
 1054 002c 03       		.uleb128 0x3
 1055 002d 04       		.byte	0x4
 1056 002e 07       		.byte	0x7
 1057 002f FB020000 		.4byte	.LASF0
 1058 0033 03       		.uleb128 0x3
ARM GAS  /tmp/cc6k9JRV.s 			page 20


 1059 0034 01       		.byte	0x1
 1060 0035 06       		.byte	0x6
 1061 0036 AD010000 		.4byte	.LASF1
 1062 003a 03       		.uleb128 0x3
 1063 003b 01       		.byte	0x1
 1064 003c 08       		.byte	0x8
 1065 003d 35060000 		.4byte	.LASF2
 1066 0041 03       		.uleb128 0x3
 1067 0042 02       		.byte	0x2
 1068 0043 05       		.byte	0x5
 1069 0044 8C060000 		.4byte	.LASF3
 1070 0048 03       		.uleb128 0x3
 1071 0049 02       		.byte	0x2
 1072 004a 07       		.byte	0x7
 1073 004b F1030000 		.4byte	.LASF4
 1074 004f 04       		.uleb128 0x4
 1075 0050 8F070000 		.4byte	.LASF6
 1076 0054 02       		.byte	0x2
 1077 0055 37       		.byte	0x37
 1078 0056 5A000000 		.4byte	0x5a
 1079 005a 03       		.uleb128 0x3
 1080 005b 04       		.byte	0x4
 1081 005c 05       		.byte	0x5
 1082 005d 1A020000 		.4byte	.LASF5
 1083 0061 04       		.uleb128 0x4
 1084 0062 A6020000 		.4byte	.LASF7
 1085 0066 02       		.byte	0x2
 1086 0067 38       		.byte	0x38
 1087 0068 6C000000 		.4byte	0x6c
 1088 006c 03       		.uleb128 0x3
 1089 006d 04       		.byte	0x4
 1090 006e 07       		.byte	0x7
 1091 006f 54030000 		.4byte	.LASF8
 1092 0073 03       		.uleb128 0x3
 1093 0074 08       		.byte	0x8
 1094 0075 05       		.byte	0x5
 1095 0076 9F010000 		.4byte	.LASF9
 1096 007a 03       		.uleb128 0x3
 1097 007b 08       		.byte	0x8
 1098 007c 07       		.byte	0x7
 1099 007d 22010000 		.4byte	.LASF10
 1100 0081 04       		.uleb128 0x4
 1101 0082 2D060000 		.4byte	.LASF11
 1102 0086 03       		.byte	0x3
 1103 0087 41       		.byte	0x41
 1104 0088 4F000000 		.4byte	0x4f
 1105 008c 04       		.uleb128 0x4
 1106 008d E3060000 		.4byte	.LASF12
 1107 0091 03       		.byte	0x3
 1108 0092 42       		.byte	0x42
 1109 0093 61000000 		.4byte	0x61
 1110 0097 03       		.uleb128 0x3
 1111 0098 01       		.byte	0x1
 1112 0099 02       		.byte	0x2
 1113 009a 27060000 		.4byte	.LASF13
 1114 009e 05       		.uleb128 0x5
 1115 009f 8C000000 		.4byte	0x8c
ARM GAS  /tmp/cc6k9JRV.s 			page 21


 1116 00a3 03       		.uleb128 0x3
 1117 00a4 04       		.byte	0x4
 1118 00a5 07       		.byte	0x7
 1119 00a6 C5040000 		.4byte	.LASF14
 1120 00aa 03       		.uleb128 0x3
 1121 00ab 01       		.byte	0x1
 1122 00ac 08       		.byte	0x8
 1123 00ad 35070000 		.4byte	.LASF15
 1124 00b1 06       		.uleb128 0x6
 1125 00b2 B7040000 		.4byte	.LASF147
 1126 00b6 01       		.byte	0x1
 1127 00b7 04       		.byte	0x4
 1128 00b8 AA       		.byte	0xaa
 1129 00b9 EC020000 		.4byte	0x2ec
 1130 00bd 07       		.uleb128 0x7
 1131 00be 7B070000 		.4byte	.LASF16
 1132 00c2 72       		.sleb128 -14
 1133 00c3 07       		.uleb128 0x7
 1134 00c4 31030000 		.4byte	.LASF17
 1135 00c8 74       		.sleb128 -12
 1136 00c9 07       		.uleb128 0x7
 1137 00ca B1020000 		.4byte	.LASF18
 1138 00ce 75       		.sleb128 -11
 1139 00cf 07       		.uleb128 0x7
 1140 00d0 F8060000 		.4byte	.LASF19
 1141 00d4 76       		.sleb128 -10
 1142 00d5 07       		.uleb128 0x7
 1143 00d6 E5030000 		.4byte	.LASF20
 1144 00da 7B       		.sleb128 -5
 1145 00db 07       		.uleb128 0x7
 1146 00dc 14080000 		.4byte	.LASF21
 1147 00e0 7C       		.sleb128 -4
 1148 00e1 07       		.uleb128 0x7
 1149 00e2 87020000 		.4byte	.LASF22
 1150 00e6 7E       		.sleb128 -2
 1151 00e7 07       		.uleb128 0x7
 1152 00e8 68040000 		.4byte	.LASF23
 1153 00ec 7F       		.sleb128 -1
 1154 00ed 07       		.uleb128 0x7
 1155 00ee 6D010000 		.4byte	.LASF24
 1156 00f2 00       		.sleb128 0
 1157 00f3 07       		.uleb128 0x7
 1158 00f4 0E000000 		.4byte	.LASF25
 1159 00f8 01       		.sleb128 1
 1160 00f9 07       		.uleb128 0x7
 1161 00fa AB050000 		.4byte	.LASF26
 1162 00fe 02       		.sleb128 2
 1163 00ff 07       		.uleb128 0x7
 1164 0100 5F010000 		.4byte	.LASF27
 1165 0104 03       		.sleb128 3
 1166 0105 07       		.uleb128 0x7
 1167 0106 D8060000 		.4byte	.LASF28
 1168 010a 04       		.sleb128 4
 1169 010b 07       		.uleb128 0x7
 1170 010c 70080000 		.4byte	.LASF29
 1171 0110 05       		.sleb128 5
 1172 0111 07       		.uleb128 0x7
ARM GAS  /tmp/cc6k9JRV.s 			page 22


 1173 0112 D8070000 		.4byte	.LASF30
 1174 0116 06       		.sleb128 6
 1175 0117 07       		.uleb128 0x7
 1176 0118 94080000 		.4byte	.LASF31
 1177 011c 07       		.sleb128 7
 1178 011d 07       		.uleb128 0x7
 1179 011e CD060000 		.4byte	.LASF32
 1180 0122 08       		.sleb128 8
 1181 0123 07       		.uleb128 0x7
 1182 0124 50050000 		.4byte	.LASF33
 1183 0128 09       		.sleb128 9
 1184 0129 07       		.uleb128 0x7
 1185 012a 73060000 		.4byte	.LASF34
 1186 012e 0A       		.sleb128 10
 1187 012f 07       		.uleb128 0x7
 1188 0130 9F080000 		.4byte	.LASF35
 1189 0134 0B       		.sleb128 11
 1190 0135 07       		.uleb128 0x7
 1191 0136 42040000 		.4byte	.LASF36
 1192 013a 0C       		.sleb128 12
 1193 013b 07       		.uleb128 0x7
 1194 013c 65050000 		.4byte	.LASF37
 1195 0140 0D       		.sleb128 13
 1196 0141 07       		.uleb128 0x7
 1197 0142 08030000 		.4byte	.LASF38
 1198 0146 0E       		.sleb128 14
 1199 0147 07       		.uleb128 0x7
 1200 0148 16050000 		.4byte	.LASF39
 1201 014c 0F       		.sleb128 15
 1202 014d 07       		.uleb128 0x7
 1203 014e 30020000 		.4byte	.LASF40
 1204 0152 10       		.sleb128 16
 1205 0153 07       		.uleb128 0x7
 1206 0154 1A030000 		.4byte	.LASF41
 1207 0158 11       		.sleb128 17
 1208 0159 07       		.uleb128 0x7
 1209 015a 33080000 		.4byte	.LASF42
 1210 015e 12       		.sleb128 18
 1211 015f 07       		.uleb128 0x7
 1212 0160 1C040000 		.4byte	.LASF43
 1213 0164 13       		.sleb128 19
 1214 0165 07       		.uleb128 0x7
 1215 0166 00000000 		.4byte	.LASF44
 1216 016a 14       		.sleb128 20
 1217 016b 07       		.uleb128 0x7
 1218 016c 14010000 		.4byte	.LASF45
 1219 0170 15       		.sleb128 21
 1220 0171 07       		.uleb128 0x7
 1221 0172 54080000 		.4byte	.LASF46
 1222 0176 16       		.sleb128 22
 1223 0177 07       		.uleb128 0x7
 1224 0178 42020000 		.4byte	.LASF47
 1225 017c 17       		.sleb128 23
 1226 017d 07       		.uleb128 0x7
 1227 017e 4E060000 		.4byte	.LASF48
 1228 0182 18       		.sleb128 24
 1229 0183 07       		.uleb128 0x7
ARM GAS  /tmp/cc6k9JRV.s 			page 23


 1230 0184 D9040000 		.4byte	.LASF49
 1231 0188 19       		.sleb128 25
 1232 0189 07       		.uleb128 0x7
 1233 018a A1060000 		.4byte	.LASF50
 1234 018e 1A       		.sleb128 26
 1235 018f 07       		.uleb128 0x7
 1236 0190 75040000 		.4byte	.LASF51
 1237 0194 1B       		.sleb128 27
 1238 0195 07       		.uleb128 0x7
 1239 0196 CE070000 		.4byte	.LASF52
 1240 019a 1C       		.sleb128 28
 1241 019b 07       		.uleb128 0x7
 1242 019c 8A080000 		.4byte	.LASF53
 1243 01a0 1D       		.sleb128 29
 1244 01a1 07       		.uleb128 0x7
 1245 01a2 55010000 		.4byte	.LASF54
 1246 01a6 1E       		.sleb128 30
 1247 01a7 07       		.uleb128 0x7
 1248 01a8 3B000000 		.4byte	.LASF55
 1249 01ac 1F       		.sleb128 31
 1250 01ad 07       		.uleb128 0x7
 1251 01ae 99070000 		.4byte	.LASF56
 1252 01b2 20       		.sleb128 32
 1253 01b3 07       		.uleb128 0x7
 1254 01b4 23020000 		.4byte	.LASF57
 1255 01b8 21       		.sleb128 33
 1256 01b9 07       		.uleb128 0x7
 1257 01ba 48010000 		.4byte	.LASF58
 1258 01be 22       		.sleb128 34
 1259 01bf 07       		.uleb128 0x7
 1260 01c0 38040000 		.4byte	.LASF59
 1261 01c4 23       		.sleb128 35
 1262 01c5 07       		.uleb128 0x7
 1263 01c6 5B050000 		.4byte	.LASF60
 1264 01ca 24       		.sleb128 36
 1265 01cb 07       		.uleb128 0x7
 1266 01cc F5050000 		.4byte	.LASF61
 1267 01d0 25       		.sleb128 37
 1268 01d1 07       		.uleb128 0x7
 1269 01d2 EC060000 		.4byte	.LASF62
 1270 01d6 26       		.sleb128 38
 1271 01d7 07       		.uleb128 0x7
 1272 01d8 B8070000 		.4byte	.LASF63
 1273 01dc 27       		.sleb128 39
 1274 01dd 07       		.uleb128 0x7
 1275 01de 29040000 		.4byte	.LASF64
 1276 01e2 28       		.sleb128 40
 1277 01e3 07       		.uleb128 0x7
 1278 01e4 39010000 		.4byte	.LASF65
 1279 01e8 29       		.sleb128 41
 1280 01e9 07       		.uleb128 0x7
 1281 01ea BF020000 		.4byte	.LASF66
 1282 01ee 2A       		.sleb128 42
 1283 01ef 07       		.uleb128 0x7
 1284 01f0 54040000 		.4byte	.LASF67
 1285 01f4 2B       		.sleb128 43
 1286 01f5 07       		.uleb128 0x7
ARM GAS  /tmp/cc6k9JRV.s 			page 24


 1287 01f6 93020000 		.4byte	.LASF68
 1288 01fa 2C       		.sleb128 44
 1289 01fb 07       		.uleb128 0x7
 1290 01fc 82040000 		.4byte	.LASF69
 1291 0200 2D       		.sleb128 45
 1292 0201 07       		.uleb128 0x7
 1293 0202 92010000 		.4byte	.LASF70
 1294 0206 2E       		.sleb128 46
 1295 0207 07       		.uleb128 0x7
 1296 0208 23070000 		.4byte	.LASF71
 1297 020c 2F       		.sleb128 47
 1298 020d 07       		.uleb128 0x7
 1299 020e 1D060000 		.4byte	.LASF72
 1300 0212 30       		.sleb128 48
 1301 0213 07       		.uleb128 0x7
 1302 0214 77010000 		.4byte	.LASF73
 1303 0218 31       		.sleb128 49
 1304 0219 07       		.uleb128 0x7
 1305 021a 46050000 		.4byte	.LASF74
 1306 021e 32       		.sleb128 50
 1307 021f 07       		.uleb128 0x7
 1308 0220 01060000 		.4byte	.LASF75
 1309 0224 33       		.sleb128 51
 1310 0225 07       		.uleb128 0x7
 1311 0226 6B020000 		.4byte	.LASF76
 1312 022a 34       		.sleb128 52
 1313 022b 07       		.uleb128 0x7
 1314 022c 96060000 		.4byte	.LASF77
 1315 0230 35       		.sleb128 53
 1316 0231 07       		.uleb128 0x7
 1317 0232 5D020000 		.4byte	.LASF78
 1318 0236 36       		.sleb128 54
 1319 0237 07       		.uleb128 0x7
 1320 0238 5E070000 		.4byte	.LASF79
 1321 023c 37       		.sleb128 55
 1322 023d 07       		.uleb128 0x7
 1323 023e A6070000 		.4byte	.LASF80
 1324 0242 38       		.sleb128 56
 1325 0243 07       		.uleb128 0x7
 1326 0244 3C080000 		.4byte	.LASF81
 1327 0248 39       		.sleb128 57
 1328 0249 07       		.uleb128 0x7
 1329 024a 28050000 		.4byte	.LASF82
 1330 024e 3A       		.sleb128 58
 1331 024f 07       		.uleb128 0x7
 1332 0250 04050000 		.4byte	.LASF83
 1333 0254 3B       		.sleb128 59
 1334 0255 07       		.uleb128 0x7
 1335 0256 0B060000 		.4byte	.LASF84
 1336 025a 3C       		.sleb128 60
 1337 025b 07       		.uleb128 0x7
 1338 025c AE040000 		.4byte	.LASF85
 1339 0260 3D       		.sleb128 61
 1340 0261 07       		.uleb128 0x7
 1341 0262 4F020000 		.4byte	.LASF86
 1342 0266 3E       		.sleb128 62
 1343 0267 07       		.uleb128 0x7
ARM GAS  /tmp/cc6k9JRV.s 			page 25


 1344 0268 77050000 		.4byte	.LASF87
 1345 026c 3F       		.sleb128 63
 1346 026d 07       		.uleb128 0x7
 1347 026e 17000000 		.4byte	.LASF88
 1348 0272 C000     		.sleb128 64
 1349 0274 07       		.uleb128 0x7
 1350 0275 B9010000 		.4byte	.LASF89
 1351 0279 C100     		.sleb128 65
 1352 027b 07       		.uleb128 0x7
 1353 027c 62080000 		.4byte	.LASF90
 1354 0280 C200     		.sleb128 66
 1355 0282 07       		.uleb128 0x7
 1356 0283 84050000 		.4byte	.LASF91
 1357 0287 C300     		.sleb128 67
 1358 0289 07       		.uleb128 0x7
 1359 028a 55000000 		.4byte	.LASF92
 1360 028e C400     		.sleb128 68
 1361 0290 07       		.uleb128 0x7
 1362 0291 C7010000 		.4byte	.LASF93
 1363 0295 C500     		.sleb128 69
 1364 0297 07       		.uleb128 0x7
 1365 0298 D0020000 		.4byte	.LASF94
 1366 029c C600     		.sleb128 70
 1367 029e 07       		.uleb128 0x7
 1368 029f 3A050000 		.4byte	.LASF95
 1369 02a3 C700     		.sleb128 71
 1370 02a5 07       		.uleb128 0x7
 1371 02a6 47030000 		.4byte	.LASF96
 1372 02aa C800     		.sleb128 72
 1373 02ac 07       		.uleb128 0x7
 1374 02ad 2E000000 		.4byte	.LASF97
 1375 02b1 C900     		.sleb128 73
 1376 02b3 07       		.uleb128 0x7
 1377 02b4 82030000 		.4byte	.LASF98
 1378 02b8 CA00     		.sleb128 74
 1379 02ba 07       		.uleb128 0x7
 1380 02bb 68070000 		.4byte	.LASF99
 1381 02bf CB00     		.sleb128 75
 1382 02c1 07       		.uleb128 0x7
 1383 02c2 79080000 		.4byte	.LASF100
 1384 02c6 CC00     		.sleb128 76
 1385 02c8 07       		.uleb128 0x7
 1386 02c9 BB050000 		.4byte	.LASF101
 1387 02cd CD00     		.sleb128 77
 1388 02cf 07       		.uleb128 0x7
 1389 02d0 F7070000 		.4byte	.LASF102
 1390 02d4 CE00     		.sleb128 78
 1391 02d6 07       		.uleb128 0x7
 1392 02d7 3F070000 		.4byte	.LASF103
 1393 02db CF00     		.sleb128 79
 1394 02dd 07       		.uleb128 0x7
 1395 02de 7E060000 		.4byte	.LASF104
 1396 02e2 D000     		.sleb128 80
 1397 02e4 07       		.uleb128 0x7
 1398 02e5 0B080000 		.4byte	.LASF105
 1399 02e9 D100     		.sleb128 81
 1400 02eb 00       		.byte	0
ARM GAS  /tmp/cc6k9JRV.s 			page 26


 1401 02ec 05       		.uleb128 0x5
 1402 02ed 81000000 		.4byte	0x81
 1403 02f1 08       		.uleb128 0x8
 1404 02f2 18       		.byte	0x18
 1405 02f3 04       		.byte	0x4
 1406 02f4 3003     		.2byte	0x330
 1407 02f6 48030000 		.4byte	0x348
 1408 02fa 09       		.uleb128 0x9
 1409 02fb 494D5200 		.ascii	"IMR\000"
 1410 02ff 04       		.byte	0x4
 1411 0300 3203     		.2byte	0x332
 1412 0302 9E000000 		.4byte	0x9e
 1413 0306 00       		.byte	0
 1414 0307 09       		.uleb128 0x9
 1415 0308 454D5200 		.ascii	"EMR\000"
 1416 030c 04       		.byte	0x4
 1417 030d 3303     		.2byte	0x333
 1418 030f 9E000000 		.4byte	0x9e
 1419 0313 04       		.byte	0x4
 1420 0314 0A       		.uleb128 0xa
 1421 0315 2C030000 		.4byte	.LASF106
 1422 0319 04       		.byte	0x4
 1423 031a 3403     		.2byte	0x334
 1424 031c 9E000000 		.4byte	0x9e
 1425 0320 08       		.byte	0x8
 1426 0321 0A       		.uleb128 0xa
 1427 0322 6E060000 		.4byte	.LASF107
 1428 0326 04       		.byte	0x4
 1429 0327 3503     		.2byte	0x335
 1430 0329 9E000000 		.4byte	0x9e
 1431 032d 0C       		.byte	0xc
 1432 032e 0A       		.uleb128 0xa
 1433 032f 67000000 		.4byte	.LASF108
 1434 0333 04       		.byte	0x4
 1435 0334 3603     		.2byte	0x336
 1436 0336 9E000000 		.4byte	0x9e
 1437 033a 10       		.byte	0x10
 1438 033b 09       		.uleb128 0x9
 1439 033c 505200   		.ascii	"PR\000"
 1440 033f 04       		.byte	0x4
 1441 0340 3703     		.2byte	0x337
 1442 0342 9E000000 		.4byte	0x9e
 1443 0346 14       		.byte	0x14
 1444 0347 00       		.byte	0
 1445 0348 0B       		.uleb128 0xb
 1446 0349 26080000 		.4byte	.LASF109
 1447 034d 04       		.byte	0x4
 1448 034e 3803     		.2byte	0x338
 1449 0350 F1020000 		.4byte	0x2f1
 1450 0354 0C       		.uleb128 0xc
 1451 0355 01       		.byte	0x1
 1452 0356 05       		.byte	0x5
 1453 0357 4A       		.byte	0x4a
 1454 0358 6F030000 		.4byte	0x36f
 1455 035c 07       		.uleb128 0x7
 1456 035d 43060000 		.4byte	.LASF110
 1457 0361 00       		.sleb128 0
ARM GAS  /tmp/cc6k9JRV.s 			page 27


 1458 0362 07       		.uleb128 0x7
 1459 0363 1A070000 		.4byte	.LASF111
 1460 0367 01       		.sleb128 1
 1461 0368 07       		.uleb128 0x7
 1462 0369 9A040000 		.4byte	.LASF112
 1463 036d 02       		.sleb128 2
 1464 036e 00       		.byte	0
 1465 036f 04       		.uleb128 0x4
 1466 0370 CE040000 		.4byte	.LASF113
 1467 0374 05       		.byte	0x5
 1468 0375 4E       		.byte	0x4e
 1469 0376 54030000 		.4byte	0x354
 1470 037a 04       		.uleb128 0x4
 1471 037b C4070000 		.4byte	.LASF114
 1472 037f 05       		.byte	0x5
 1473 0380 53       		.byte	0x53
 1474 0381 85030000 		.4byte	0x385
 1475 0385 0D       		.uleb128 0xd
 1476 0386 C4070000 		.4byte	.LASF114
 1477 038a 08       		.byte	0x8
 1478 038b 06       		.byte	0x6
 1479 038c 71       		.byte	0x71
 1480 038d AA030000 		.4byte	0x3aa
 1481 0391 0E       		.uleb128 0xe
 1482 0392 0B020000 		.4byte	.LASF115
 1483 0396 06       		.byte	0x6
 1484 0397 75       		.byte	0x75
 1485 0398 6F030000 		.4byte	0x36f
 1486 039c 00       		.byte	0
 1487 039d 0E       		.uleb128 0xe
 1488 039e 49070000 		.4byte	.LASF116
 1489 03a2 06       		.byte	0x6
 1490 03a3 79       		.byte	0x79
 1491 03a4 37040000 		.4byte	0x437
 1492 03a8 04       		.byte	0x4
 1493 03a9 00       		.byte	0
 1494 03aa 04       		.uleb128 0x4
 1495 03ab 48000000 		.4byte	.LASF117
 1496 03af 06       		.byte	0x6
 1497 03b0 47       		.byte	0x47
 1498 03b1 8C000000 		.4byte	0x8c
 1499 03b5 04       		.uleb128 0x4
 1500 03b6 50070000 		.4byte	.LASF118
 1501 03ba 06       		.byte	0x6
 1502 03bb 4F       		.byte	0x4f
 1503 03bc C0030000 		.4byte	0x3c0
 1504 03c0 0F       		.uleb128 0xf
 1505 03c1 04       		.byte	0x4
 1506 03c2 C6030000 		.4byte	0x3c6
 1507 03c6 10       		.uleb128 0x10
 1508 03c7 D6030000 		.4byte	0x3d6
 1509 03cb 11       		.uleb128 0x11
 1510 03cc D6030000 		.4byte	0x3d6
 1511 03d0 11       		.uleb128 0x11
 1512 03d1 AA030000 		.4byte	0x3aa
 1513 03d5 00       		.byte	0
 1514 03d6 0F       		.uleb128 0xf
ARM GAS  /tmp/cc6k9JRV.s 			page 28


 1515 03d7 04       		.byte	0x4
 1516 03d8 7A030000 		.4byte	0x37a
 1517 03dc 12       		.uleb128 0x12
 1518 03dd 08       		.byte	0x8
 1519 03de 06       		.byte	0x6
 1520 03df 54       		.byte	0x54
 1521 03e0 FC030000 		.4byte	0x3fc
 1522 03e4 0E       		.uleb128 0xe
 1523 03e5 3A070000 		.4byte	.LASF119
 1524 03e9 06       		.byte	0x6
 1525 03ea 58       		.byte	0x58
 1526 03eb 8C000000 		.4byte	0x8c
 1527 03ef 00       		.byte	0
 1528 03f0 13       		.uleb128 0x13
 1529 03f1 636200   		.ascii	"cb\000"
 1530 03f4 06       		.byte	0x6
 1531 03f5 5F       		.byte	0x5f
 1532 03f6 B5030000 		.4byte	0x3b5
 1533 03fa 04       		.byte	0x4
 1534 03fb 00       		.byte	0
 1535 03fc 04       		.uleb128 0x4
 1536 03fd 76020000 		.4byte	.LASF120
 1537 0401 06       		.byte	0x6
 1538 0402 60       		.byte	0x60
 1539 0403 DC030000 		.4byte	0x3dc
 1540 0407 12       		.uleb128 0x12
 1541 0408 B8       		.byte	0xb8
 1542 0409 06       		.byte	0x6
 1543 040a 66       		.byte	0x66
 1544 040b 1C040000 		.4byte	0x41c
 1545 040f 0E       		.uleb128 0xe
 1546 0410 11020000 		.4byte	.LASF121
 1547 0414 06       		.byte	0x6
 1548 0415 6A       		.byte	0x6a
 1549 0416 1C040000 		.4byte	0x41c
 1550 041a 00       		.byte	0
 1551 041b 00       		.byte	0
 1552 041c 14       		.uleb128 0x14
 1553 041d FC030000 		.4byte	0x3fc
 1554 0421 2C040000 		.4byte	0x42c
 1555 0425 15       		.uleb128 0x15
 1556 0426 A3000000 		.4byte	0xa3
 1557 042a 16       		.byte	0x16
 1558 042b 00       		.byte	0
 1559 042c 04       		.uleb128 0x4
 1560 042d 01080000 		.4byte	.LASF122
 1561 0431 06       		.byte	0x6
 1562 0432 6C       		.byte	0x6c
 1563 0433 07040000 		.4byte	0x407
 1564 0437 0F       		.uleb128 0xf
 1565 0438 04       		.byte	0x4
 1566 0439 3D040000 		.4byte	0x43d
 1567 043d 16       		.uleb128 0x16
 1568 043e 2C040000 		.4byte	0x42c
 1569 0442 17       		.uleb128 0x17
 1570 0443 A5040000 		.4byte	.LASF123
 1571 0447 01       		.byte	0x1
ARM GAS  /tmp/cc6k9JRV.s 			page 29


 1572 0448 39       		.byte	0x39
 1573 0449 00000000 		.4byte	.LFB111
 1574 044d 2E000000 		.4byte	.LFE111-.LFB111
 1575 0451 01       		.uleb128 0x1
 1576 0452 9C       		.byte	0x9c
 1577 0453 82040000 		.4byte	0x482
 1578 0457 18       		.uleb128 0x18
 1579 0458 06000000 		.4byte	.LVL0
 1580 045c 0E0B0000 		.4byte	0xb0e
 1581 0460 19       		.uleb128 0x19
 1582 0461 22000000 		.4byte	.LVL1
 1583 0465 6F040000 		.4byte	0x46f
 1584 0469 1A       		.uleb128 0x1a
 1585 046a 01       		.uleb128 0x1
 1586 046b 51       		.byte	0x51
 1587 046c 01       		.uleb128 0x1
 1588 046d 30       		.byte	0x30
 1589 046e 00       		.byte	0
 1590 046f 18       		.uleb128 0x18
 1591 0470 26000000 		.4byte	.LVL2
 1592 0474 150B0000 		.4byte	0xb15
 1593 0478 1B       		.uleb128 0x1b
 1594 0479 2E000000 		.4byte	.LVL3
 1595 047d 1C0B0000 		.4byte	0xb1c
 1596 0481 00       		.byte	0
 1597 0482 17       		.uleb128 0x17
 1598 0483 BC040000 		.4byte	.LASF124
 1599 0487 01       		.byte	0x1
 1600 0488 48       		.byte	0x48
 1601 0489 00000000 		.4byte	.LFB112
 1602 048d 2E000000 		.4byte	.LFE112-.LFB112
 1603 0491 01       		.uleb128 0x1
 1604 0492 9C       		.byte	0x9c
 1605 0493 C2040000 		.4byte	0x4c2
 1606 0497 18       		.uleb128 0x18
 1607 0498 06000000 		.4byte	.LVL4
 1608 049c 0E0B0000 		.4byte	0xb0e
 1609 04a0 19       		.uleb128 0x19
 1610 04a1 22000000 		.4byte	.LVL5
 1611 04a5 AF040000 		.4byte	0x4af
 1612 04a9 1A       		.uleb128 0x1a
 1613 04aa 01       		.uleb128 0x1
 1614 04ab 51       		.byte	0x51
 1615 04ac 01       		.uleb128 0x1
 1616 04ad 31       		.byte	0x31
 1617 04ae 00       		.byte	0
 1618 04af 18       		.uleb128 0x18
 1619 04b0 26000000 		.4byte	.LVL6
 1620 04b4 150B0000 		.4byte	0xb15
 1621 04b8 1B       		.uleb128 0x1b
 1622 04b9 2E000000 		.4byte	.LVL7
 1623 04bd 1C0B0000 		.4byte	0xb1c
 1624 04c1 00       		.byte	0
 1625 04c2 17       		.uleb128 0x17
 1626 04c3 DA050000 		.4byte	.LASF125
 1627 04c7 01       		.byte	0x1
 1628 04c8 57       		.byte	0x57
ARM GAS  /tmp/cc6k9JRV.s 			page 30


 1629 04c9 00000000 		.4byte	.LFB113
 1630 04cd 2E000000 		.4byte	.LFE113-.LFB113
 1631 04d1 01       		.uleb128 0x1
 1632 04d2 9C       		.byte	0x9c
 1633 04d3 02050000 		.4byte	0x502
 1634 04d7 18       		.uleb128 0x18
 1635 04d8 06000000 		.4byte	.LVL8
 1636 04dc 0E0B0000 		.4byte	0xb0e
 1637 04e0 19       		.uleb128 0x19
 1638 04e1 22000000 		.4byte	.LVL9
 1639 04e5 EF040000 		.4byte	0x4ef
 1640 04e9 1A       		.uleb128 0x1a
 1641 04ea 01       		.uleb128 0x1
 1642 04eb 51       		.byte	0x51
 1643 04ec 01       		.uleb128 0x1
 1644 04ed 32       		.byte	0x32
 1645 04ee 00       		.byte	0
 1646 04ef 18       		.uleb128 0x18
 1647 04f0 26000000 		.4byte	.LVL10
 1648 04f4 150B0000 		.4byte	0xb15
 1649 04f8 1B       		.uleb128 0x1b
 1650 04f9 2E000000 		.4byte	.LVL11
 1651 04fd 1C0B0000 		.4byte	0xb1c
 1652 0501 00       		.byte	0
 1653 0502 17       		.uleb128 0x17
 1654 0503 E3050000 		.4byte	.LASF126
 1655 0507 01       		.byte	0x1
 1656 0508 66       		.byte	0x66
 1657 0509 00000000 		.4byte	.LFB114
 1658 050d 2E000000 		.4byte	.LFE114-.LFB114
 1659 0511 01       		.uleb128 0x1
 1660 0512 9C       		.byte	0x9c
 1661 0513 42050000 		.4byte	0x542
 1662 0517 18       		.uleb128 0x18
 1663 0518 06000000 		.4byte	.LVL12
 1664 051c 0E0B0000 		.4byte	0xb0e
 1665 0520 19       		.uleb128 0x19
 1666 0521 22000000 		.4byte	.LVL13
 1667 0525 2F050000 		.4byte	0x52f
 1668 0529 1A       		.uleb128 0x1a
 1669 052a 01       		.uleb128 0x1
 1670 052b 51       		.byte	0x51
 1671 052c 01       		.uleb128 0x1
 1672 052d 33       		.byte	0x33
 1673 052e 00       		.byte	0
 1674 052f 18       		.uleb128 0x18
 1675 0530 26000000 		.4byte	.LVL14
 1676 0534 150B0000 		.4byte	0xb15
 1677 0538 1B       		.uleb128 0x1b
 1678 0539 2E000000 		.4byte	.LVL15
 1679 053d 1C0B0000 		.4byte	0xb1c
 1680 0541 00       		.byte	0
 1681 0542 17       		.uleb128 0x17
 1682 0543 EC050000 		.4byte	.LASF127
 1683 0547 01       		.byte	0x1
 1684 0548 75       		.byte	0x75
 1685 0549 00000000 		.4byte	.LFB115
ARM GAS  /tmp/cc6k9JRV.s 			page 31


 1686 054d 2E000000 		.4byte	.LFE115-.LFB115
 1687 0551 01       		.uleb128 0x1
 1688 0552 9C       		.byte	0x9c
 1689 0553 82050000 		.4byte	0x582
 1690 0557 18       		.uleb128 0x18
 1691 0558 06000000 		.4byte	.LVL16
 1692 055c 0E0B0000 		.4byte	0xb0e
 1693 0560 19       		.uleb128 0x19
 1694 0561 22000000 		.4byte	.LVL17
 1695 0565 6F050000 		.4byte	0x56f
 1696 0569 1A       		.uleb128 0x1a
 1697 056a 01       		.uleb128 0x1
 1698 056b 51       		.byte	0x51
 1699 056c 01       		.uleb128 0x1
 1700 056d 34       		.byte	0x34
 1701 056e 00       		.byte	0
 1702 056f 18       		.uleb128 0x18
 1703 0570 26000000 		.4byte	.LVL18
 1704 0574 150B0000 		.4byte	0xb15
 1705 0578 1B       		.uleb128 0x1b
 1706 0579 2E000000 		.4byte	.LVL19
 1707 057d 1C0B0000 		.4byte	0xb1c
 1708 0581 00       		.byte	0
 1709 0582 17       		.uleb128 0x17
 1710 0583 25000000 		.4byte	.LASF128
 1711 0587 01       		.byte	0x1
 1712 0588 84       		.byte	0x84
 1713 0589 00000000 		.4byte	.LFB116
 1714 058d 98000000 		.4byte	.LFE116-.LFB116
 1715 0591 01       		.uleb128 0x1
 1716 0592 9C       		.byte	0x9c
 1717 0593 08060000 		.4byte	0x608
 1718 0597 1C       		.uleb128 0x1c
 1719 0598 707200   		.ascii	"pr\000"
 1720 059b 01       		.byte	0x1
 1721 059c 85       		.byte	0x85
 1722 059d 8C000000 		.4byte	0x8c
 1723 05a1 00000000 		.4byte	.LLST0
 1724 05a5 18       		.uleb128 0x18
 1725 05a6 06000000 		.4byte	.LVL20
 1726 05aa 0E0B0000 		.4byte	0xb0e
 1727 05ae 19       		.uleb128 0x19
 1728 05af 3C000000 		.4byte	.LVL23
 1729 05b3 BD050000 		.4byte	0x5bd
 1730 05b7 1A       		.uleb128 0x1a
 1731 05b8 01       		.uleb128 0x1
 1732 05b9 51       		.byte	0x51
 1733 05ba 01       		.uleb128 0x1
 1734 05bb 39       		.byte	0x39
 1735 05bc 00       		.byte	0
 1736 05bd 18       		.uleb128 0x18
 1737 05be 40000000 		.4byte	.LVL24
 1738 05c2 150B0000 		.4byte	0xb15
 1739 05c6 1B       		.uleb128 0x1b
 1740 05c7 48000000 		.4byte	.LVL26
 1741 05cb 1C0B0000 		.4byte	0xb1c
 1742 05cf 19       		.uleb128 0x19
ARM GAS  /tmp/cc6k9JRV.s 			page 32


 1743 05d0 5A000000 		.4byte	.LVL27
 1744 05d4 DE050000 		.4byte	0x5de
 1745 05d8 1A       		.uleb128 0x1a
 1746 05d9 01       		.uleb128 0x1
 1747 05da 51       		.byte	0x51
 1748 05db 01       		.uleb128 0x1
 1749 05dc 38       		.byte	0x38
 1750 05dd 00       		.byte	0
 1751 05de 19       		.uleb128 0x19
 1752 05df 6E000000 		.4byte	.LVL28
 1753 05e3 ED050000 		.4byte	0x5ed
 1754 05e7 1A       		.uleb128 0x1a
 1755 05e8 01       		.uleb128 0x1
 1756 05e9 51       		.byte	0x51
 1757 05ea 01       		.uleb128 0x1
 1758 05eb 37       		.byte	0x37
 1759 05ec 00       		.byte	0
 1760 05ed 19       		.uleb128 0x19
 1761 05ee 82000000 		.4byte	.LVL29
 1762 05f2 FC050000 		.4byte	0x5fc
 1763 05f6 1A       		.uleb128 0x1a
 1764 05f7 01       		.uleb128 0x1
 1765 05f8 51       		.byte	0x51
 1766 05f9 01       		.uleb128 0x1
 1767 05fa 36       		.byte	0x36
 1768 05fb 00       		.byte	0
 1769 05fc 1D       		.uleb128 0x1d
 1770 05fd 96000000 		.4byte	.LVL31
 1771 0601 1A       		.uleb128 0x1a
 1772 0602 01       		.uleb128 0x1
 1773 0603 51       		.byte	0x51
 1774 0604 01       		.uleb128 0x1
 1775 0605 35       		.byte	0x35
 1776 0606 00       		.byte	0
 1777 0607 00       		.byte	0
 1778 0608 17       		.uleb128 0x17
 1779 0609 99050000 		.4byte	.LASF129
 1780 060d 01       		.byte	0x1
 1781 060e 9E       		.byte	0x9e
 1782 060f 00000000 		.4byte	.LFB117
 1783 0613 B0000000 		.4byte	.LFE117-.LFB117
 1784 0617 01       		.uleb128 0x1
 1785 0618 9C       		.byte	0x9c
 1786 0619 9D060000 		.4byte	0x69d
 1787 061d 1C       		.uleb128 0x1c
 1788 061e 707200   		.ascii	"pr\000"
 1789 0621 01       		.byte	0x1
 1790 0622 9F       		.byte	0x9f
 1791 0623 8C000000 		.4byte	0x8c
 1792 0627 51000000 		.4byte	.LLST1
 1793 062b 18       		.uleb128 0x18
 1794 062c 06000000 		.4byte	.LVL32
 1795 0630 0E0B0000 		.4byte	0xb0e
 1796 0634 19       		.uleb128 0x19
 1797 0635 40000000 		.4byte	.LVL35
 1798 0639 43060000 		.4byte	0x643
 1799 063d 1A       		.uleb128 0x1a
ARM GAS  /tmp/cc6k9JRV.s 			page 33


 1800 063e 01       		.uleb128 0x1
 1801 063f 51       		.byte	0x51
 1802 0640 01       		.uleb128 0x1
 1803 0641 3F       		.byte	0x3f
 1804 0642 00       		.byte	0
 1805 0643 18       		.uleb128 0x18
 1806 0644 44000000 		.4byte	.LVL36
 1807 0648 150B0000 		.4byte	0xb15
 1808 064c 1B       		.uleb128 0x1b
 1809 064d 4C000000 		.4byte	.LVL38
 1810 0651 1C0B0000 		.4byte	0xb1c
 1811 0655 19       		.uleb128 0x19
 1812 0656 5E000000 		.4byte	.LVL39
 1813 065a 64060000 		.4byte	0x664
 1814 065e 1A       		.uleb128 0x1a
 1815 065f 01       		.uleb128 0x1
 1816 0660 51       		.byte	0x51
 1817 0661 01       		.uleb128 0x1
 1818 0662 3E       		.byte	0x3e
 1819 0663 00       		.byte	0
 1820 0664 19       		.uleb128 0x19
 1821 0665 72000000 		.4byte	.LVL40
 1822 0669 73060000 		.4byte	0x673
 1823 066d 1A       		.uleb128 0x1a
 1824 066e 01       		.uleb128 0x1
 1825 066f 51       		.byte	0x51
 1826 0670 01       		.uleb128 0x1
 1827 0671 3D       		.byte	0x3d
 1828 0672 00       		.byte	0
 1829 0673 19       		.uleb128 0x19
 1830 0674 86000000 		.4byte	.LVL41
 1831 0678 82060000 		.4byte	0x682
 1832 067c 1A       		.uleb128 0x1a
 1833 067d 01       		.uleb128 0x1
 1834 067e 51       		.byte	0x51
 1835 067f 01       		.uleb128 0x1
 1836 0680 3C       		.byte	0x3c
 1837 0681 00       		.byte	0
 1838 0682 19       		.uleb128 0x19
 1839 0683 9A000000 		.4byte	.LVL42
 1840 0687 91060000 		.4byte	0x691
 1841 068b 1A       		.uleb128 0x1a
 1842 068c 01       		.uleb128 0x1
 1843 068d 51       		.byte	0x51
 1844 068e 01       		.uleb128 0x1
 1845 068f 3B       		.byte	0x3b
 1846 0690 00       		.byte	0
 1847 0691 1D       		.uleb128 0x1d
 1848 0692 AE000000 		.4byte	.LVL44
 1849 0696 1A       		.uleb128 0x1a
 1850 0697 01       		.uleb128 0x1
 1851 0698 51       		.byte	0x51
 1852 0699 01       		.uleb128 0x1
 1853 069a 3A       		.byte	0x3a
 1854 069b 00       		.byte	0
 1855 069c 00       		.byte	0
 1856 069d 17       		.uleb128 0x17
ARM GAS  /tmp/cc6k9JRV.s 			page 34


 1857 069e 90050000 		.4byte	.LASF130
 1858 06a2 01       		.byte	0x1
 1859 06a3 BB       		.byte	0xbb
 1860 06a4 00000000 		.4byte	.LFB118
 1861 06a8 32000000 		.4byte	.LFE118-.LFB118
 1862 06ac 01       		.uleb128 0x1
 1863 06ad 9C       		.byte	0x9c
 1864 06ae DD060000 		.4byte	0x6dd
 1865 06b2 18       		.uleb128 0x18
 1866 06b3 06000000 		.4byte	.LVL45
 1867 06b7 0E0B0000 		.4byte	0xb0e
 1868 06bb 19       		.uleb128 0x19
 1869 06bc 26000000 		.4byte	.LVL46
 1870 06c0 CA060000 		.4byte	0x6ca
 1871 06c4 1A       		.uleb128 0x1a
 1872 06c5 01       		.uleb128 0x1
 1873 06c6 51       		.byte	0x51
 1874 06c7 01       		.uleb128 0x1
 1875 06c8 40       		.byte	0x40
 1876 06c9 00       		.byte	0
 1877 06ca 18       		.uleb128 0x18
 1878 06cb 2A000000 		.4byte	.LVL47
 1879 06cf 150B0000 		.4byte	0xb15
 1880 06d3 1B       		.uleb128 0x1b
 1881 06d4 32000000 		.4byte	.LVL48
 1882 06d8 1C0B0000 		.4byte	0xb1c
 1883 06dc 00       		.byte	0
 1884 06dd 17       		.uleb128 0x17
 1885 06de A2050000 		.4byte	.LASF131
 1886 06e2 01       		.byte	0x1
 1887 06e3 CA       		.byte	0xca
 1888 06e4 00000000 		.4byte	.LFB119
 1889 06e8 32000000 		.4byte	.LFE119-.LFB119
 1890 06ec 01       		.uleb128 0x1
 1891 06ed 9C       		.byte	0x9c
 1892 06ee 1D070000 		.4byte	0x71d
 1893 06f2 18       		.uleb128 0x18
 1894 06f3 06000000 		.4byte	.LVL49
 1895 06f7 0E0B0000 		.4byte	0xb0e
 1896 06fb 19       		.uleb128 0x19
 1897 06fc 26000000 		.4byte	.LVL50
 1898 0700 0A070000 		.4byte	0x70a
 1899 0704 1A       		.uleb128 0x1a
 1900 0705 01       		.uleb128 0x1
 1901 0706 51       		.byte	0x51
 1902 0707 01       		.uleb128 0x1
 1903 0708 41       		.byte	0x41
 1904 0709 00       		.byte	0
 1905 070a 18       		.uleb128 0x18
 1906 070b 2A000000 		.4byte	.LVL51
 1907 070f 150B0000 		.4byte	0xb15
 1908 0713 1B       		.uleb128 0x1b
 1909 0714 32000000 		.4byte	.LVL52
 1910 0718 1C0B0000 		.4byte	0xb1c
 1911 071c 00       		.byte	0
 1912 071d 17       		.uleb128 0x17
 1913 071e C7050000 		.4byte	.LASF132
ARM GAS  /tmp/cc6k9JRV.s 			page 35


 1914 0722 01       		.byte	0x1
 1915 0723 D9       		.byte	0xd9
 1916 0724 00000000 		.4byte	.LFB120
 1917 0728 32000000 		.4byte	.LFE120-.LFB120
 1918 072c 01       		.uleb128 0x1
 1919 072d 9C       		.byte	0x9c
 1920 072e 5D070000 		.4byte	0x75d
 1921 0732 18       		.uleb128 0x18
 1922 0733 06000000 		.4byte	.LVL53
 1923 0737 0E0B0000 		.4byte	0xb0e
 1924 073b 19       		.uleb128 0x19
 1925 073c 26000000 		.4byte	.LVL54
 1926 0740 4A070000 		.4byte	0x74a
 1927 0744 1A       		.uleb128 0x1a
 1928 0745 01       		.uleb128 0x1
 1929 0746 51       		.byte	0x51
 1930 0747 01       		.uleb128 0x1
 1931 0748 42       		.byte	0x42
 1932 0749 00       		.byte	0
 1933 074a 18       		.uleb128 0x18
 1934 074b 2A000000 		.4byte	.LVL55
 1935 074f 150B0000 		.4byte	0xb15
 1936 0753 1B       		.uleb128 0x1b
 1937 0754 32000000 		.4byte	.LVL56
 1938 0758 1C0B0000 		.4byte	0xb1c
 1939 075c 00       		.byte	0
 1940 075d 17       		.uleb128 0x17
 1941 075e 6D000000 		.4byte	.LASF133
 1942 0762 01       		.byte	0x1
 1943 0763 E8       		.byte	0xe8
 1944 0764 00000000 		.4byte	.LFB121
 1945 0768 32000000 		.4byte	.LFE121-.LFB121
 1946 076c 01       		.uleb128 0x1
 1947 076d 9C       		.byte	0x9c
 1948 076e 9D070000 		.4byte	0x79d
 1949 0772 18       		.uleb128 0x18
 1950 0773 06000000 		.4byte	.LVL57
 1951 0777 0E0B0000 		.4byte	0xb0e
 1952 077b 19       		.uleb128 0x19
 1953 077c 26000000 		.4byte	.LVL58
 1954 0780 8A070000 		.4byte	0x78a
 1955 0784 1A       		.uleb128 0x1a
 1956 0785 01       		.uleb128 0x1
 1957 0786 51       		.byte	0x51
 1958 0787 01       		.uleb128 0x1
 1959 0788 43       		.byte	0x43
 1960 0789 00       		.byte	0
 1961 078a 18       		.uleb128 0x18
 1962 078b 2A000000 		.4byte	.LVL59
 1963 078f 150B0000 		.4byte	0xb15
 1964 0793 1B       		.uleb128 0x1b
 1965 0794 32000000 		.4byte	.LVL60
 1966 0798 1C0B0000 		.4byte	0xb1c
 1967 079c 00       		.byte	0
 1968 079d 17       		.uleb128 0x17
 1969 079e D0050000 		.4byte	.LASF134
 1970 07a2 01       		.byte	0x1
ARM GAS  /tmp/cc6k9JRV.s 			page 36


 1971 07a3 F7       		.byte	0xf7
 1972 07a4 00000000 		.4byte	.LFB122
 1973 07a8 32000000 		.4byte	.LFE122-.LFB122
 1974 07ac 01       		.uleb128 0x1
 1975 07ad 9C       		.byte	0x9c
 1976 07ae DD070000 		.4byte	0x7dd
 1977 07b2 18       		.uleb128 0x18
 1978 07b3 06000000 		.4byte	.LVL61
 1979 07b7 0E0B0000 		.4byte	0xb0e
 1980 07bb 19       		.uleb128 0x19
 1981 07bc 26000000 		.4byte	.LVL62
 1982 07c0 CA070000 		.4byte	0x7ca
 1983 07c4 1A       		.uleb128 0x1a
 1984 07c5 01       		.uleb128 0x1
 1985 07c6 51       		.byte	0x51
 1986 07c7 01       		.uleb128 0x1
 1987 07c8 44       		.byte	0x44
 1988 07c9 00       		.byte	0
 1989 07ca 18       		.uleb128 0x18
 1990 07cb 2A000000 		.4byte	.LVL63
 1991 07cf 150B0000 		.4byte	0xb15
 1992 07d3 1B       		.uleb128 0x1b
 1993 07d4 32000000 		.4byte	.LVL64
 1994 07d8 1C0B0000 		.4byte	0xb1c
 1995 07dc 00       		.byte	0
 1996 07dd 1E       		.uleb128 0x1e
 1997 07de EC040000 		.4byte	.LASF135
 1998 07e2 01       		.byte	0x1
 1999 07e3 0601     		.2byte	0x106
 2000 07e5 00000000 		.4byte	.LFB123
 2001 07e9 32000000 		.4byte	.LFE123-.LFB123
 2002 07ed 01       		.uleb128 0x1
 2003 07ee 9C       		.byte	0x9c
 2004 07ef 1E080000 		.4byte	0x81e
 2005 07f3 18       		.uleb128 0x18
 2006 07f4 06000000 		.4byte	.LVL65
 2007 07f8 0E0B0000 		.4byte	0xb0e
 2008 07fc 19       		.uleb128 0x19
 2009 07fd 26000000 		.4byte	.LVL66
 2010 0801 0B080000 		.4byte	0x80b
 2011 0805 1A       		.uleb128 0x1a
 2012 0806 01       		.uleb128 0x1
 2013 0807 51       		.byte	0x51
 2014 0808 01       		.uleb128 0x1
 2015 0809 45       		.byte	0x45
 2016 080a 00       		.byte	0
 2017 080b 18       		.uleb128 0x18
 2018 080c 2A000000 		.4byte	.LVL67
 2019 0810 150B0000 		.4byte	0xb15
 2020 0814 1B       		.uleb128 0x1b
 2021 0815 32000000 		.4byte	.LVL68
 2022 0819 1C0B0000 		.4byte	0xb1c
 2023 081d 00       		.byte	0
 2024 081e 1E       		.uleb128 0x1e
 2025 081f 79030000 		.4byte	.LASF136
 2026 0823 01       		.byte	0x1
 2027 0824 1501     		.2byte	0x115
ARM GAS  /tmp/cc6k9JRV.s 			page 37


 2028 0826 00000000 		.4byte	.LFB124
 2029 082a 32000000 		.4byte	.LFE124-.LFB124
 2030 082e 01       		.uleb128 0x1
 2031 082f 9C       		.byte	0x9c
 2032 0830 5F080000 		.4byte	0x85f
 2033 0834 18       		.uleb128 0x18
 2034 0835 06000000 		.4byte	.LVL69
 2035 0839 0E0B0000 		.4byte	0xb0e
 2036 083d 19       		.uleb128 0x19
 2037 083e 26000000 		.4byte	.LVL70
 2038 0842 4C080000 		.4byte	0x84c
 2039 0846 1A       		.uleb128 0x1a
 2040 0847 01       		.uleb128 0x1
 2041 0848 51       		.byte	0x51
 2042 0849 01       		.uleb128 0x1
 2043 084a 46       		.byte	0x46
 2044 084b 00       		.byte	0
 2045 084c 18       		.uleb128 0x18
 2046 084d 2A000000 		.4byte	.LVL71
 2047 0851 150B0000 		.4byte	0xb15
 2048 0855 1B       		.uleb128 0x1b
 2049 0856 32000000 		.4byte	.LVL72
 2050 085a 1C0B0000 		.4byte	0xb1c
 2051 085e 00       		.byte	0
 2052 085f 1E       		.uleb128 0x1e
 2053 0860 04040000 		.4byte	.LASF137
 2054 0864 01       		.byte	0x1
 2055 0865 2801     		.2byte	0x128
 2056 0867 00000000 		.4byte	.LFB125
 2057 086b 76000000 		.4byte	.LFE125-.LFB125
 2058 086f 01       		.uleb128 0x1
 2059 0870 9C       		.byte	0x9c
 2060 0871 D5090000 		.4byte	0x9d5
 2061 0875 1F       		.uleb128 0x1f
 2062 0876 0A000000 		.4byte	.LVL73
 2063 087a 240B0000 		.4byte	0xb24
 2064 087e 8E080000 		.4byte	0x88e
 2065 0882 1A       		.uleb128 0x1a
 2066 0883 01       		.uleb128 0x1
 2067 0884 51       		.byte	0x51
 2068 0885 02       		.uleb128 0x2
 2069 0886 08       		.byte	0x8
 2070 0887 60       		.byte	0x60
 2071 0888 1A       		.uleb128 0x1a
 2072 0889 01       		.uleb128 0x1
 2073 088a 50       		.byte	0x50
 2074 088b 01       		.uleb128 0x1
 2075 088c 36       		.byte	0x36
 2076 088d 00       		.byte	0
 2077 088e 1F       		.uleb128 0x1f
 2078 088f 12000000 		.4byte	.LVL74
 2079 0893 240B0000 		.4byte	0xb24
 2080 0897 A7080000 		.4byte	0x8a7
 2081 089b 1A       		.uleb128 0x1a
 2082 089c 01       		.uleb128 0x1
 2083 089d 51       		.byte	0x51
 2084 089e 02       		.uleb128 0x2
ARM GAS  /tmp/cc6k9JRV.s 			page 38


 2085 089f 08       		.byte	0x8
 2086 08a0 60       		.byte	0x60
 2087 08a1 1A       		.uleb128 0x1a
 2088 08a2 01       		.uleb128 0x1
 2089 08a3 50       		.byte	0x50
 2090 08a4 01       		.uleb128 0x1
 2091 08a5 37       		.byte	0x37
 2092 08a6 00       		.byte	0
 2093 08a7 1F       		.uleb128 0x1f
 2094 08a8 1A000000 		.4byte	.LVL75
 2095 08ac 240B0000 		.4byte	0xb24
 2096 08b0 C0080000 		.4byte	0x8c0
 2097 08b4 1A       		.uleb128 0x1a
 2098 08b5 01       		.uleb128 0x1
 2099 08b6 51       		.byte	0x51
 2100 08b7 02       		.uleb128 0x2
 2101 08b8 08       		.byte	0x8
 2102 08b9 60       		.byte	0x60
 2103 08ba 1A       		.uleb128 0x1a
 2104 08bb 01       		.uleb128 0x1
 2105 08bc 50       		.byte	0x50
 2106 08bd 01       		.uleb128 0x1
 2107 08be 38       		.byte	0x38
 2108 08bf 00       		.byte	0
 2109 08c0 1F       		.uleb128 0x1f
 2110 08c1 22000000 		.4byte	.LVL76
 2111 08c5 240B0000 		.4byte	0xb24
 2112 08c9 D9080000 		.4byte	0x8d9
 2113 08cd 1A       		.uleb128 0x1a
 2114 08ce 01       		.uleb128 0x1
 2115 08cf 51       		.byte	0x51
 2116 08d0 02       		.uleb128 0x2
 2117 08d1 08       		.byte	0x8
 2118 08d2 60       		.byte	0x60
 2119 08d3 1A       		.uleb128 0x1a
 2120 08d4 01       		.uleb128 0x1
 2121 08d5 50       		.byte	0x50
 2122 08d6 01       		.uleb128 0x1
 2123 08d7 39       		.byte	0x39
 2124 08d8 00       		.byte	0
 2125 08d9 1F       		.uleb128 0x1f
 2126 08da 2A000000 		.4byte	.LVL77
 2127 08de 240B0000 		.4byte	0xb24
 2128 08e2 F2080000 		.4byte	0x8f2
 2129 08e6 1A       		.uleb128 0x1a
 2130 08e7 01       		.uleb128 0x1
 2131 08e8 51       		.byte	0x51
 2132 08e9 02       		.uleb128 0x2
 2133 08ea 08       		.byte	0x8
 2134 08eb 60       		.byte	0x60
 2135 08ec 1A       		.uleb128 0x1a
 2136 08ed 01       		.uleb128 0x1
 2137 08ee 50       		.byte	0x50
 2138 08ef 01       		.uleb128 0x1
 2139 08f0 3A       		.byte	0x3a
 2140 08f1 00       		.byte	0
 2141 08f2 1F       		.uleb128 0x1f
ARM GAS  /tmp/cc6k9JRV.s 			page 39


 2142 08f3 32000000 		.4byte	.LVL78
 2143 08f7 240B0000 		.4byte	0xb24
 2144 08fb 0B090000 		.4byte	0x90b
 2145 08ff 1A       		.uleb128 0x1a
 2146 0900 01       		.uleb128 0x1
 2147 0901 51       		.byte	0x51
 2148 0902 02       		.uleb128 0x2
 2149 0903 08       		.byte	0x8
 2150 0904 60       		.byte	0x60
 2151 0905 1A       		.uleb128 0x1a
 2152 0906 01       		.uleb128 0x1
 2153 0907 50       		.byte	0x50
 2154 0908 01       		.uleb128 0x1
 2155 0909 47       		.byte	0x47
 2156 090a 00       		.byte	0
 2157 090b 1F       		.uleb128 0x1f
 2158 090c 3A000000 		.4byte	.LVL79
 2159 0910 240B0000 		.4byte	0xb24
 2160 0914 25090000 		.4byte	0x925
 2161 0918 1A       		.uleb128 0x1a
 2162 0919 01       		.uleb128 0x1
 2163 091a 51       		.byte	0x51
 2164 091b 02       		.uleb128 0x2
 2165 091c 08       		.byte	0x8
 2166 091d 60       		.byte	0x60
 2167 091e 1A       		.uleb128 0x1a
 2168 091f 01       		.uleb128 0x1
 2169 0920 50       		.byte	0x50
 2170 0921 02       		.uleb128 0x2
 2171 0922 08       		.byte	0x8
 2172 0923 28       		.byte	0x28
 2173 0924 00       		.byte	0
 2174 0925 1F       		.uleb128 0x1f
 2175 0926 42000000 		.4byte	.LVL80
 2176 092a 240B0000 		.4byte	0xb24
 2177 092e 3E090000 		.4byte	0x93e
 2178 0932 1A       		.uleb128 0x1a
 2179 0933 01       		.uleb128 0x1
 2180 0934 51       		.byte	0x51
 2181 0935 02       		.uleb128 0x2
 2182 0936 08       		.byte	0x8
 2183 0937 60       		.byte	0x60
 2184 0938 1A       		.uleb128 0x1a
 2185 0939 01       		.uleb128 0x1
 2186 093a 50       		.byte	0x50
 2187 093b 01       		.uleb128 0x1
 2188 093c 31       		.byte	0x31
 2189 093d 00       		.byte	0
 2190 093e 1F       		.uleb128 0x1f
 2191 093f 4A000000 		.4byte	.LVL81
 2192 0943 240B0000 		.4byte	0xb24
 2193 0947 58090000 		.4byte	0x958
 2194 094b 1A       		.uleb128 0x1a
 2195 094c 01       		.uleb128 0x1
 2196 094d 51       		.byte	0x51
 2197 094e 02       		.uleb128 0x2
 2198 094f 08       		.byte	0x8
ARM GAS  /tmp/cc6k9JRV.s 			page 40


 2199 0950 F0       		.byte	0xf0
 2200 0951 1A       		.uleb128 0x1a
 2201 0952 01       		.uleb128 0x1
 2202 0953 50       		.byte	0x50
 2203 0954 02       		.uleb128 0x2
 2204 0955 08       		.byte	0x8
 2205 0956 29       		.byte	0x29
 2206 0957 00       		.byte	0
 2207 0958 1F       		.uleb128 0x1f
 2208 0959 52000000 		.4byte	.LVL82
 2209 095d 240B0000 		.4byte	0xb24
 2210 0961 72090000 		.4byte	0x972
 2211 0965 1A       		.uleb128 0x1a
 2212 0966 01       		.uleb128 0x1
 2213 0967 51       		.byte	0x51
 2214 0968 02       		.uleb128 0x2
 2215 0969 08       		.byte	0x8
 2216 096a 60       		.byte	0x60
 2217 096b 1A       		.uleb128 0x1a
 2218 096c 01       		.uleb128 0x1
 2219 096d 50       		.byte	0x50
 2220 096e 02       		.uleb128 0x2
 2221 096f 08       		.byte	0x8
 2222 0970 2A       		.byte	0x2a
 2223 0971 00       		.byte	0
 2224 0972 1F       		.uleb128 0x1f
 2225 0973 5A000000 		.4byte	.LVL83
 2226 0977 240B0000 		.4byte	0xb24
 2227 097b 8C090000 		.4byte	0x98c
 2228 097f 1A       		.uleb128 0x1a
 2229 0980 01       		.uleb128 0x1
 2230 0981 51       		.byte	0x51
 2231 0982 02       		.uleb128 0x2
 2232 0983 08       		.byte	0x8
 2233 0984 60       		.byte	0x60
 2234 0985 1A       		.uleb128 0x1a
 2235 0986 01       		.uleb128 0x1
 2236 0987 50       		.byte	0x50
 2237 0988 02       		.uleb128 0x2
 2238 0989 08       		.byte	0x8
 2239 098a 3E       		.byte	0x3e
 2240 098b 00       		.byte	0
 2241 098c 1F       		.uleb128 0x1f
 2242 098d 62000000 		.4byte	.LVL84
 2243 0991 240B0000 		.4byte	0xb24
 2244 0995 A6090000 		.4byte	0x9a6
 2245 0999 1A       		.uleb128 0x1a
 2246 099a 01       		.uleb128 0x1
 2247 099b 51       		.byte	0x51
 2248 099c 02       		.uleb128 0x2
 2249 099d 08       		.byte	0x8
 2250 099e 60       		.byte	0x60
 2251 099f 1A       		.uleb128 0x1a
 2252 09a0 01       		.uleb128 0x1
 2253 09a1 50       		.byte	0x50
 2254 09a2 02       		.uleb128 0x2
 2255 09a3 08       		.byte	0x8
ARM GAS  /tmp/cc6k9JRV.s 			page 41


 2256 09a4 4C       		.byte	0x4c
 2257 09a5 00       		.byte	0
 2258 09a6 1F       		.uleb128 0x1f
 2259 09a7 6A000000 		.4byte	.LVL85
 2260 09ab 240B0000 		.4byte	0xb24
 2261 09af BF090000 		.4byte	0x9bf
 2262 09b3 1A       		.uleb128 0x1a
 2263 09b4 01       		.uleb128 0x1
 2264 09b5 51       		.byte	0x51
 2265 09b6 02       		.uleb128 0x2
 2266 09b7 08       		.byte	0x8
 2267 09b8 F0       		.byte	0xf0
 2268 09b9 1A       		.uleb128 0x1a
 2269 09ba 01       		.uleb128 0x1
 2270 09bb 50       		.byte	0x50
 2271 09bc 01       		.uleb128 0x1
 2272 09bd 32       		.byte	0x32
 2273 09be 00       		.byte	0
 2274 09bf 20       		.uleb128 0x20
 2275 09c0 76000000 		.4byte	.LVL86
 2276 09c4 240B0000 		.4byte	0xb24
 2277 09c8 1A       		.uleb128 0x1a
 2278 09c9 01       		.uleb128 0x1
 2279 09ca 51       		.byte	0x51
 2280 09cb 02       		.uleb128 0x2
 2281 09cc 08       		.byte	0x8
 2282 09cd F0       		.byte	0xf0
 2283 09ce 1A       		.uleb128 0x1a
 2284 09cf 01       		.uleb128 0x1
 2285 09d0 50       		.byte	0x50
 2286 09d1 01       		.uleb128 0x1
 2287 09d2 33       		.byte	0x33
 2288 09d3 00       		.byte	0
 2289 09d4 00       		.byte	0
 2290 09d5 1E       		.uleb128 0x1e
 2291 09d6 E2020000 		.4byte	.LASF138
 2292 09da 01       		.byte	0x1
 2293 09db 4D01     		.2byte	0x14d
 2294 09dd 00000000 		.4byte	.LFB126
 2295 09e1 5A000000 		.4byte	.LFE126-.LFB126
 2296 09e5 01       		.uleb128 0x1
 2297 09e6 9C       		.byte	0x9c
 2298 09e7 F70A0000 		.4byte	0xaf7
 2299 09eb 1F       		.uleb128 0x1f
 2300 09ec 08000000 		.4byte	.LVL87
 2301 09f0 3B0B0000 		.4byte	0xb3b
 2302 09f4 FE090000 		.4byte	0x9fe
 2303 09f8 1A       		.uleb128 0x1a
 2304 09f9 01       		.uleb128 0x1
 2305 09fa 50       		.byte	0x50
 2306 09fb 01       		.uleb128 0x1
 2307 09fc 36       		.byte	0x36
 2308 09fd 00       		.byte	0
 2309 09fe 1F       		.uleb128 0x1f
 2310 09ff 0E000000 		.4byte	.LVL88
 2311 0a03 3B0B0000 		.4byte	0xb3b
 2312 0a07 110A0000 		.4byte	0xa11
ARM GAS  /tmp/cc6k9JRV.s 			page 42


 2313 0a0b 1A       		.uleb128 0x1a
 2314 0a0c 01       		.uleb128 0x1
 2315 0a0d 50       		.byte	0x50
 2316 0a0e 01       		.uleb128 0x1
 2317 0a0f 37       		.byte	0x37
 2318 0a10 00       		.byte	0
 2319 0a11 1F       		.uleb128 0x1f
 2320 0a12 14000000 		.4byte	.LVL89
 2321 0a16 3B0B0000 		.4byte	0xb3b
 2322 0a1a 240A0000 		.4byte	0xa24
 2323 0a1e 1A       		.uleb128 0x1a
 2324 0a1f 01       		.uleb128 0x1
 2325 0a20 50       		.byte	0x50
 2326 0a21 01       		.uleb128 0x1
 2327 0a22 38       		.byte	0x38
 2328 0a23 00       		.byte	0
 2329 0a24 1F       		.uleb128 0x1f
 2330 0a25 1A000000 		.4byte	.LVL90
 2331 0a29 3B0B0000 		.4byte	0xb3b
 2332 0a2d 370A0000 		.4byte	0xa37
 2333 0a31 1A       		.uleb128 0x1a
 2334 0a32 01       		.uleb128 0x1
 2335 0a33 50       		.byte	0x50
 2336 0a34 01       		.uleb128 0x1
 2337 0a35 39       		.byte	0x39
 2338 0a36 00       		.byte	0
 2339 0a37 1F       		.uleb128 0x1f
 2340 0a38 20000000 		.4byte	.LVL91
 2341 0a3c 3B0B0000 		.4byte	0xb3b
 2342 0a40 4A0A0000 		.4byte	0xa4a
 2343 0a44 1A       		.uleb128 0x1a
 2344 0a45 01       		.uleb128 0x1
 2345 0a46 50       		.byte	0x50
 2346 0a47 01       		.uleb128 0x1
 2347 0a48 3A       		.byte	0x3a
 2348 0a49 00       		.byte	0
 2349 0a4a 1F       		.uleb128 0x1f
 2350 0a4b 26000000 		.4byte	.LVL92
 2351 0a4f 3B0B0000 		.4byte	0xb3b
 2352 0a53 5D0A0000 		.4byte	0xa5d
 2353 0a57 1A       		.uleb128 0x1a
 2354 0a58 01       		.uleb128 0x1
 2355 0a59 50       		.byte	0x50
 2356 0a5a 01       		.uleb128 0x1
 2357 0a5b 47       		.byte	0x47
 2358 0a5c 00       		.byte	0
 2359 0a5d 1F       		.uleb128 0x1f
 2360 0a5e 2C000000 		.4byte	.LVL93
 2361 0a62 3B0B0000 		.4byte	0xb3b
 2362 0a66 710A0000 		.4byte	0xa71
 2363 0a6a 1A       		.uleb128 0x1a
 2364 0a6b 01       		.uleb128 0x1
 2365 0a6c 50       		.byte	0x50
 2366 0a6d 02       		.uleb128 0x2
 2367 0a6e 08       		.byte	0x8
 2368 0a6f 28       		.byte	0x28
 2369 0a70 00       		.byte	0
ARM GAS  /tmp/cc6k9JRV.s 			page 43


 2370 0a71 1F       		.uleb128 0x1f
 2371 0a72 32000000 		.4byte	.LVL94
 2372 0a76 3B0B0000 		.4byte	0xb3b
 2373 0a7a 840A0000 		.4byte	0xa84
 2374 0a7e 1A       		.uleb128 0x1a
 2375 0a7f 01       		.uleb128 0x1
 2376 0a80 50       		.byte	0x50
 2377 0a81 01       		.uleb128 0x1
 2378 0a82 31       		.byte	0x31
 2379 0a83 00       		.byte	0
 2380 0a84 1F       		.uleb128 0x1f
 2381 0a85 38000000 		.4byte	.LVL95
 2382 0a89 3B0B0000 		.4byte	0xb3b
 2383 0a8d 980A0000 		.4byte	0xa98
 2384 0a91 1A       		.uleb128 0x1a
 2385 0a92 01       		.uleb128 0x1
 2386 0a93 50       		.byte	0x50
 2387 0a94 02       		.uleb128 0x2
 2388 0a95 08       		.byte	0x8
 2389 0a96 29       		.byte	0x29
 2390 0a97 00       		.byte	0
 2391 0a98 1F       		.uleb128 0x1f
 2392 0a99 3E000000 		.4byte	.LVL96
 2393 0a9d 3B0B0000 		.4byte	0xb3b
 2394 0aa1 AC0A0000 		.4byte	0xaac
 2395 0aa5 1A       		.uleb128 0x1a
 2396 0aa6 01       		.uleb128 0x1
 2397 0aa7 50       		.byte	0x50
 2398 0aa8 02       		.uleb128 0x2
 2399 0aa9 08       		.byte	0x8
 2400 0aaa 2A       		.byte	0x2a
 2401 0aab 00       		.byte	0
 2402 0aac 1F       		.uleb128 0x1f
 2403 0aad 44000000 		.4byte	.LVL97
 2404 0ab1 3B0B0000 		.4byte	0xb3b
 2405 0ab5 C00A0000 		.4byte	0xac0
 2406 0ab9 1A       		.uleb128 0x1a
 2407 0aba 01       		.uleb128 0x1
 2408 0abb 50       		.byte	0x50
 2409 0abc 02       		.uleb128 0x2
 2410 0abd 08       		.byte	0x8
 2411 0abe 3E       		.byte	0x3e
 2412 0abf 00       		.byte	0
 2413 0ac0 1F       		.uleb128 0x1f
 2414 0ac1 4A000000 		.4byte	.LVL98
 2415 0ac5 3B0B0000 		.4byte	0xb3b
 2416 0ac9 D40A0000 		.4byte	0xad4
 2417 0acd 1A       		.uleb128 0x1a
 2418 0ace 01       		.uleb128 0x1
 2419 0acf 50       		.byte	0x50
 2420 0ad0 02       		.uleb128 0x2
 2421 0ad1 08       		.byte	0x8
 2422 0ad2 4C       		.byte	0x4c
 2423 0ad3 00       		.byte	0
 2424 0ad4 1F       		.uleb128 0x1f
 2425 0ad5 50000000 		.4byte	.LVL99
 2426 0ad9 3B0B0000 		.4byte	0xb3b
ARM GAS  /tmp/cc6k9JRV.s 			page 44


 2427 0add E70A0000 		.4byte	0xae7
 2428 0ae1 1A       		.uleb128 0x1a
 2429 0ae2 01       		.uleb128 0x1
 2430 0ae3 50       		.byte	0x50
 2431 0ae4 01       		.uleb128 0x1
 2432 0ae5 32       		.byte	0x32
 2433 0ae6 00       		.byte	0
 2434 0ae7 20       		.uleb128 0x20
 2435 0ae8 5A000000 		.4byte	.LVL100
 2436 0aec 3B0B0000 		.4byte	0xb3b
 2437 0af0 1A       		.uleb128 0x1a
 2438 0af1 01       		.uleb128 0x1
 2439 0af2 50       		.byte	0x50
 2440 0af3 01       		.uleb128 0x1
 2441 0af4 33       		.byte	0x33
 2442 0af5 00       		.byte	0
 2443 0af6 00       		.byte	0
 2444 0af7 21       		.uleb128 0x21
 2445 0af8 61060000 		.4byte	.LASF139
 2446 0afc 07       		.byte	0x7
 2447 0afd 9806     		.2byte	0x698
 2448 0aff EC020000 		.4byte	0x2ec
 2449 0b03 22       		.uleb128 0x22
 2450 0b04 4E080000 		.4byte	.LASF140
 2451 0b08 06       		.byte	0x6
 2452 0b09 86       		.byte	0x86
 2453 0b0a 7A030000 		.4byte	0x37a
 2454 0b0e 23       		.uleb128 0x23
 2455 0b0f E3070000 		.4byte	.LASF141
 2456 0b13 08       		.byte	0x8
 2457 0b14 EB       		.byte	0xeb
 2458 0b15 23       		.uleb128 0x23
 2459 0b16 B9060000 		.4byte	.LASF142
 2460 0b1a 08       		.byte	0x8
 2461 0b1b EC       		.byte	0xec
 2462 0b1c 24       		.uleb128 0x24
 2463 0b1d 66030000 		.4byte	.LASF143
 2464 0b21 09       		.byte	0x9
 2465 0b22 0302     		.2byte	0x203
 2466 0b24 25       		.uleb128 0x25
 2467 0b25 81010000 		.4byte	.LASF148
 2468 0b29 0A       		.byte	0xa
 2469 0b2a 2301     		.2byte	0x123
 2470 0b2c 3B0B0000 		.4byte	0xb3b
 2471 0b30 11       		.uleb128 0x11
 2472 0b31 8C000000 		.4byte	0x8c
 2473 0b35 11       		.uleb128 0x11
 2474 0b36 8C000000 		.4byte	0x8c
 2475 0b3a 00       		.byte	0
 2476 0b3b 26       		.uleb128 0x26
 2477 0b3c 08070000 		.4byte	.LASF149
 2478 0b40 0A       		.byte	0xa
 2479 0b41 2401     		.2byte	0x124
 2480 0b43 11       		.uleb128 0x11
 2481 0b44 8C000000 		.4byte	0x8c
 2482 0b48 00       		.byte	0
 2483 0b49 00       		.byte	0
ARM GAS  /tmp/cc6k9JRV.s 			page 45


 2484              		.section	.debug_abbrev,"",%progbits
 2485              	.Ldebug_abbrev0:
 2486 0000 01       		.uleb128 0x1
 2487 0001 11       		.uleb128 0x11
 2488 0002 01       		.byte	0x1
 2489 0003 25       		.uleb128 0x25
 2490 0004 0E       		.uleb128 0xe
 2491 0005 13       		.uleb128 0x13
 2492 0006 0B       		.uleb128 0xb
 2493 0007 03       		.uleb128 0x3
 2494 0008 0E       		.uleb128 0xe
 2495 0009 1B       		.uleb128 0x1b
 2496 000a 0E       		.uleb128 0xe
 2497 000b 55       		.uleb128 0x55
 2498 000c 17       		.uleb128 0x17
 2499 000d 11       		.uleb128 0x11
 2500 000e 01       		.uleb128 0x1
 2501 000f 10       		.uleb128 0x10
 2502 0010 17       		.uleb128 0x17
 2503 0011 00       		.byte	0
 2504 0012 00       		.byte	0
 2505 0013 02       		.uleb128 0x2
 2506 0014 24       		.uleb128 0x24
 2507 0015 00       		.byte	0
 2508 0016 0B       		.uleb128 0xb
 2509 0017 0B       		.uleb128 0xb
 2510 0018 3E       		.uleb128 0x3e
 2511 0019 0B       		.uleb128 0xb
 2512 001a 03       		.uleb128 0x3
 2513 001b 08       		.uleb128 0x8
 2514 001c 00       		.byte	0
 2515 001d 00       		.byte	0
 2516 001e 03       		.uleb128 0x3
 2517 001f 24       		.uleb128 0x24
 2518 0020 00       		.byte	0
 2519 0021 0B       		.uleb128 0xb
 2520 0022 0B       		.uleb128 0xb
 2521 0023 3E       		.uleb128 0x3e
 2522 0024 0B       		.uleb128 0xb
 2523 0025 03       		.uleb128 0x3
 2524 0026 0E       		.uleb128 0xe
 2525 0027 00       		.byte	0
 2526 0028 00       		.byte	0
 2527 0029 04       		.uleb128 0x4
 2528 002a 16       		.uleb128 0x16
 2529 002b 00       		.byte	0
 2530 002c 03       		.uleb128 0x3
 2531 002d 0E       		.uleb128 0xe
 2532 002e 3A       		.uleb128 0x3a
 2533 002f 0B       		.uleb128 0xb
 2534 0030 3B       		.uleb128 0x3b
 2535 0031 0B       		.uleb128 0xb
 2536 0032 49       		.uleb128 0x49
 2537 0033 13       		.uleb128 0x13
 2538 0034 00       		.byte	0
 2539 0035 00       		.byte	0
 2540 0036 05       		.uleb128 0x5
ARM GAS  /tmp/cc6k9JRV.s 			page 46


 2541 0037 35       		.uleb128 0x35
 2542 0038 00       		.byte	0
 2543 0039 49       		.uleb128 0x49
 2544 003a 13       		.uleb128 0x13
 2545 003b 00       		.byte	0
 2546 003c 00       		.byte	0
 2547 003d 06       		.uleb128 0x6
 2548 003e 04       		.uleb128 0x4
 2549 003f 01       		.byte	0x1
 2550 0040 03       		.uleb128 0x3
 2551 0041 0E       		.uleb128 0xe
 2552 0042 0B       		.uleb128 0xb
 2553 0043 0B       		.uleb128 0xb
 2554 0044 3A       		.uleb128 0x3a
 2555 0045 0B       		.uleb128 0xb
 2556 0046 3B       		.uleb128 0x3b
 2557 0047 0B       		.uleb128 0xb
 2558 0048 01       		.uleb128 0x1
 2559 0049 13       		.uleb128 0x13
 2560 004a 00       		.byte	0
 2561 004b 00       		.byte	0
 2562 004c 07       		.uleb128 0x7
 2563 004d 28       		.uleb128 0x28
 2564 004e 00       		.byte	0
 2565 004f 03       		.uleb128 0x3
 2566 0050 0E       		.uleb128 0xe
 2567 0051 1C       		.uleb128 0x1c
 2568 0052 0D       		.uleb128 0xd
 2569 0053 00       		.byte	0
 2570 0054 00       		.byte	0
 2571 0055 08       		.uleb128 0x8
 2572 0056 13       		.uleb128 0x13
 2573 0057 01       		.byte	0x1
 2574 0058 0B       		.uleb128 0xb
 2575 0059 0B       		.uleb128 0xb
 2576 005a 3A       		.uleb128 0x3a
 2577 005b 0B       		.uleb128 0xb
 2578 005c 3B       		.uleb128 0x3b
 2579 005d 05       		.uleb128 0x5
 2580 005e 01       		.uleb128 0x1
 2581 005f 13       		.uleb128 0x13
 2582 0060 00       		.byte	0
 2583 0061 00       		.byte	0
 2584 0062 09       		.uleb128 0x9
 2585 0063 0D       		.uleb128 0xd
 2586 0064 00       		.byte	0
 2587 0065 03       		.uleb128 0x3
 2588 0066 08       		.uleb128 0x8
 2589 0067 3A       		.uleb128 0x3a
 2590 0068 0B       		.uleb128 0xb
 2591 0069 3B       		.uleb128 0x3b
 2592 006a 05       		.uleb128 0x5
 2593 006b 49       		.uleb128 0x49
 2594 006c 13       		.uleb128 0x13
 2595 006d 38       		.uleb128 0x38
 2596 006e 0B       		.uleb128 0xb
 2597 006f 00       		.byte	0
ARM GAS  /tmp/cc6k9JRV.s 			page 47


 2598 0070 00       		.byte	0
 2599 0071 0A       		.uleb128 0xa
 2600 0072 0D       		.uleb128 0xd
 2601 0073 00       		.byte	0
 2602 0074 03       		.uleb128 0x3
 2603 0075 0E       		.uleb128 0xe
 2604 0076 3A       		.uleb128 0x3a
 2605 0077 0B       		.uleb128 0xb
 2606 0078 3B       		.uleb128 0x3b
 2607 0079 05       		.uleb128 0x5
 2608 007a 49       		.uleb128 0x49
 2609 007b 13       		.uleb128 0x13
 2610 007c 38       		.uleb128 0x38
 2611 007d 0B       		.uleb128 0xb
 2612 007e 00       		.byte	0
 2613 007f 00       		.byte	0
 2614 0080 0B       		.uleb128 0xb
 2615 0081 16       		.uleb128 0x16
 2616 0082 00       		.byte	0
 2617 0083 03       		.uleb128 0x3
 2618 0084 0E       		.uleb128 0xe
 2619 0085 3A       		.uleb128 0x3a
 2620 0086 0B       		.uleb128 0xb
 2621 0087 3B       		.uleb128 0x3b
 2622 0088 05       		.uleb128 0x5
 2623 0089 49       		.uleb128 0x49
 2624 008a 13       		.uleb128 0x13
 2625 008b 00       		.byte	0
 2626 008c 00       		.byte	0
 2627 008d 0C       		.uleb128 0xc
 2628 008e 04       		.uleb128 0x4
 2629 008f 01       		.byte	0x1
 2630 0090 0B       		.uleb128 0xb
 2631 0091 0B       		.uleb128 0xb
 2632 0092 3A       		.uleb128 0x3a
 2633 0093 0B       		.uleb128 0xb
 2634 0094 3B       		.uleb128 0x3b
 2635 0095 0B       		.uleb128 0xb
 2636 0096 01       		.uleb128 0x1
 2637 0097 13       		.uleb128 0x13
 2638 0098 00       		.byte	0
 2639 0099 00       		.byte	0
 2640 009a 0D       		.uleb128 0xd
 2641 009b 13       		.uleb128 0x13
 2642 009c 01       		.byte	0x1
 2643 009d 03       		.uleb128 0x3
 2644 009e 0E       		.uleb128 0xe
 2645 009f 0B       		.uleb128 0xb
 2646 00a0 0B       		.uleb128 0xb
 2647 00a1 3A       		.uleb128 0x3a
 2648 00a2 0B       		.uleb128 0xb
 2649 00a3 3B       		.uleb128 0x3b
 2650 00a4 0B       		.uleb128 0xb
 2651 00a5 01       		.uleb128 0x1
 2652 00a6 13       		.uleb128 0x13
 2653 00a7 00       		.byte	0
 2654 00a8 00       		.byte	0
ARM GAS  /tmp/cc6k9JRV.s 			page 48


 2655 00a9 0E       		.uleb128 0xe
 2656 00aa 0D       		.uleb128 0xd
 2657 00ab 00       		.byte	0
 2658 00ac 03       		.uleb128 0x3
 2659 00ad 0E       		.uleb128 0xe
 2660 00ae 3A       		.uleb128 0x3a
 2661 00af 0B       		.uleb128 0xb
 2662 00b0 3B       		.uleb128 0x3b
 2663 00b1 0B       		.uleb128 0xb
 2664 00b2 49       		.uleb128 0x49
 2665 00b3 13       		.uleb128 0x13
 2666 00b4 38       		.uleb128 0x38
 2667 00b5 0B       		.uleb128 0xb
 2668 00b6 00       		.byte	0
 2669 00b7 00       		.byte	0
 2670 00b8 0F       		.uleb128 0xf
 2671 00b9 0F       		.uleb128 0xf
 2672 00ba 00       		.byte	0
 2673 00bb 0B       		.uleb128 0xb
 2674 00bc 0B       		.uleb128 0xb
 2675 00bd 49       		.uleb128 0x49
 2676 00be 13       		.uleb128 0x13
 2677 00bf 00       		.byte	0
 2678 00c0 00       		.byte	0
 2679 00c1 10       		.uleb128 0x10
 2680 00c2 15       		.uleb128 0x15
 2681 00c3 01       		.byte	0x1
 2682 00c4 27       		.uleb128 0x27
 2683 00c5 19       		.uleb128 0x19
 2684 00c6 01       		.uleb128 0x1
 2685 00c7 13       		.uleb128 0x13
 2686 00c8 00       		.byte	0
 2687 00c9 00       		.byte	0
 2688 00ca 11       		.uleb128 0x11
 2689 00cb 05       		.uleb128 0x5
 2690 00cc 00       		.byte	0
 2691 00cd 49       		.uleb128 0x49
 2692 00ce 13       		.uleb128 0x13
 2693 00cf 00       		.byte	0
 2694 00d0 00       		.byte	0
 2695 00d1 12       		.uleb128 0x12
 2696 00d2 13       		.uleb128 0x13
 2697 00d3 01       		.byte	0x1
 2698 00d4 0B       		.uleb128 0xb
 2699 00d5 0B       		.uleb128 0xb
 2700 00d6 3A       		.uleb128 0x3a
 2701 00d7 0B       		.uleb128 0xb
 2702 00d8 3B       		.uleb128 0x3b
 2703 00d9 0B       		.uleb128 0xb
 2704 00da 01       		.uleb128 0x1
 2705 00db 13       		.uleb128 0x13
 2706 00dc 00       		.byte	0
 2707 00dd 00       		.byte	0
 2708 00de 13       		.uleb128 0x13
 2709 00df 0D       		.uleb128 0xd
 2710 00e0 00       		.byte	0
 2711 00e1 03       		.uleb128 0x3
ARM GAS  /tmp/cc6k9JRV.s 			page 49


 2712 00e2 08       		.uleb128 0x8
 2713 00e3 3A       		.uleb128 0x3a
 2714 00e4 0B       		.uleb128 0xb
 2715 00e5 3B       		.uleb128 0x3b
 2716 00e6 0B       		.uleb128 0xb
 2717 00e7 49       		.uleb128 0x49
 2718 00e8 13       		.uleb128 0x13
 2719 00e9 38       		.uleb128 0x38
 2720 00ea 0B       		.uleb128 0xb
 2721 00eb 00       		.byte	0
 2722 00ec 00       		.byte	0
 2723 00ed 14       		.uleb128 0x14
 2724 00ee 01       		.uleb128 0x1
 2725 00ef 01       		.byte	0x1
 2726 00f0 49       		.uleb128 0x49
 2727 00f1 13       		.uleb128 0x13
 2728 00f2 01       		.uleb128 0x1
 2729 00f3 13       		.uleb128 0x13
 2730 00f4 00       		.byte	0
 2731 00f5 00       		.byte	0
 2732 00f6 15       		.uleb128 0x15
 2733 00f7 21       		.uleb128 0x21
 2734 00f8 00       		.byte	0
 2735 00f9 49       		.uleb128 0x49
 2736 00fa 13       		.uleb128 0x13
 2737 00fb 2F       		.uleb128 0x2f
 2738 00fc 0B       		.uleb128 0xb
 2739 00fd 00       		.byte	0
 2740 00fe 00       		.byte	0
 2741 00ff 16       		.uleb128 0x16
 2742 0100 26       		.uleb128 0x26
 2743 0101 00       		.byte	0
 2744 0102 49       		.uleb128 0x49
 2745 0103 13       		.uleb128 0x13
 2746 0104 00       		.byte	0
 2747 0105 00       		.byte	0
 2748 0106 17       		.uleb128 0x17
 2749 0107 2E       		.uleb128 0x2e
 2750 0108 01       		.byte	0x1
 2751 0109 3F       		.uleb128 0x3f
 2752 010a 19       		.uleb128 0x19
 2753 010b 03       		.uleb128 0x3
 2754 010c 0E       		.uleb128 0xe
 2755 010d 3A       		.uleb128 0x3a
 2756 010e 0B       		.uleb128 0xb
 2757 010f 3B       		.uleb128 0x3b
 2758 0110 0B       		.uleb128 0xb
 2759 0111 27       		.uleb128 0x27
 2760 0112 19       		.uleb128 0x19
 2761 0113 11       		.uleb128 0x11
 2762 0114 01       		.uleb128 0x1
 2763 0115 12       		.uleb128 0x12
 2764 0116 06       		.uleb128 0x6
 2765 0117 40       		.uleb128 0x40
 2766 0118 18       		.uleb128 0x18
 2767 0119 9742     		.uleb128 0x2117
 2768 011b 19       		.uleb128 0x19
ARM GAS  /tmp/cc6k9JRV.s 			page 50


 2769 011c 01       		.uleb128 0x1
 2770 011d 13       		.uleb128 0x13
 2771 011e 00       		.byte	0
 2772 011f 00       		.byte	0
 2773 0120 18       		.uleb128 0x18
 2774 0121 898201   		.uleb128 0x4109
 2775 0124 00       		.byte	0
 2776 0125 11       		.uleb128 0x11
 2777 0126 01       		.uleb128 0x1
 2778 0127 31       		.uleb128 0x31
 2779 0128 13       		.uleb128 0x13
 2780 0129 00       		.byte	0
 2781 012a 00       		.byte	0
 2782 012b 19       		.uleb128 0x19
 2783 012c 898201   		.uleb128 0x4109
 2784 012f 01       		.byte	0x1
 2785 0130 11       		.uleb128 0x11
 2786 0131 01       		.uleb128 0x1
 2787 0132 01       		.uleb128 0x1
 2788 0133 13       		.uleb128 0x13
 2789 0134 00       		.byte	0
 2790 0135 00       		.byte	0
 2791 0136 1A       		.uleb128 0x1a
 2792 0137 8A8201   		.uleb128 0x410a
 2793 013a 00       		.byte	0
 2794 013b 02       		.uleb128 0x2
 2795 013c 18       		.uleb128 0x18
 2796 013d 9142     		.uleb128 0x2111
 2797 013f 18       		.uleb128 0x18
 2798 0140 00       		.byte	0
 2799 0141 00       		.byte	0
 2800 0142 1B       		.uleb128 0x1b
 2801 0143 898201   		.uleb128 0x4109
 2802 0146 00       		.byte	0
 2803 0147 11       		.uleb128 0x11
 2804 0148 01       		.uleb128 0x1
 2805 0149 9542     		.uleb128 0x2115
 2806 014b 19       		.uleb128 0x19
 2807 014c 31       		.uleb128 0x31
 2808 014d 13       		.uleb128 0x13
 2809 014e 00       		.byte	0
 2810 014f 00       		.byte	0
 2811 0150 1C       		.uleb128 0x1c
 2812 0151 34       		.uleb128 0x34
 2813 0152 00       		.byte	0
 2814 0153 03       		.uleb128 0x3
 2815 0154 08       		.uleb128 0x8
 2816 0155 3A       		.uleb128 0x3a
 2817 0156 0B       		.uleb128 0xb
 2818 0157 3B       		.uleb128 0x3b
 2819 0158 0B       		.uleb128 0xb
 2820 0159 49       		.uleb128 0x49
 2821 015a 13       		.uleb128 0x13
 2822 015b 02       		.uleb128 0x2
 2823 015c 17       		.uleb128 0x17
 2824 015d 00       		.byte	0
 2825 015e 00       		.byte	0
ARM GAS  /tmp/cc6k9JRV.s 			page 51


 2826 015f 1D       		.uleb128 0x1d
 2827 0160 898201   		.uleb128 0x4109
 2828 0163 01       		.byte	0x1
 2829 0164 11       		.uleb128 0x11
 2830 0165 01       		.uleb128 0x1
 2831 0166 00       		.byte	0
 2832 0167 00       		.byte	0
 2833 0168 1E       		.uleb128 0x1e
 2834 0169 2E       		.uleb128 0x2e
 2835 016a 01       		.byte	0x1
 2836 016b 3F       		.uleb128 0x3f
 2837 016c 19       		.uleb128 0x19
 2838 016d 03       		.uleb128 0x3
 2839 016e 0E       		.uleb128 0xe
 2840 016f 3A       		.uleb128 0x3a
 2841 0170 0B       		.uleb128 0xb
 2842 0171 3B       		.uleb128 0x3b
 2843 0172 05       		.uleb128 0x5
 2844 0173 27       		.uleb128 0x27
 2845 0174 19       		.uleb128 0x19
 2846 0175 11       		.uleb128 0x11
 2847 0176 01       		.uleb128 0x1
 2848 0177 12       		.uleb128 0x12
 2849 0178 06       		.uleb128 0x6
 2850 0179 40       		.uleb128 0x40
 2851 017a 18       		.uleb128 0x18
 2852 017b 9742     		.uleb128 0x2117
 2853 017d 19       		.uleb128 0x19
 2854 017e 01       		.uleb128 0x1
 2855 017f 13       		.uleb128 0x13
 2856 0180 00       		.byte	0
 2857 0181 00       		.byte	0
 2858 0182 1F       		.uleb128 0x1f
 2859 0183 898201   		.uleb128 0x4109
 2860 0186 01       		.byte	0x1
 2861 0187 11       		.uleb128 0x11
 2862 0188 01       		.uleb128 0x1
 2863 0189 31       		.uleb128 0x31
 2864 018a 13       		.uleb128 0x13
 2865 018b 01       		.uleb128 0x1
 2866 018c 13       		.uleb128 0x13
 2867 018d 00       		.byte	0
 2868 018e 00       		.byte	0
 2869 018f 20       		.uleb128 0x20
 2870 0190 898201   		.uleb128 0x4109
 2871 0193 01       		.byte	0x1
 2872 0194 11       		.uleb128 0x11
 2873 0195 01       		.uleb128 0x1
 2874 0196 9542     		.uleb128 0x2115
 2875 0198 19       		.uleb128 0x19
 2876 0199 31       		.uleb128 0x31
 2877 019a 13       		.uleb128 0x13
 2878 019b 00       		.byte	0
 2879 019c 00       		.byte	0
 2880 019d 21       		.uleb128 0x21
 2881 019e 34       		.uleb128 0x34
 2882 019f 00       		.byte	0
ARM GAS  /tmp/cc6k9JRV.s 			page 52


 2883 01a0 03       		.uleb128 0x3
 2884 01a1 0E       		.uleb128 0xe
 2885 01a2 3A       		.uleb128 0x3a
 2886 01a3 0B       		.uleb128 0xb
 2887 01a4 3B       		.uleb128 0x3b
 2888 01a5 05       		.uleb128 0x5
 2889 01a6 49       		.uleb128 0x49
 2890 01a7 13       		.uleb128 0x13
 2891 01a8 3F       		.uleb128 0x3f
 2892 01a9 19       		.uleb128 0x19
 2893 01aa 3C       		.uleb128 0x3c
 2894 01ab 19       		.uleb128 0x19
 2895 01ac 00       		.byte	0
 2896 01ad 00       		.byte	0
 2897 01ae 22       		.uleb128 0x22
 2898 01af 34       		.uleb128 0x34
 2899 01b0 00       		.byte	0
 2900 01b1 03       		.uleb128 0x3
 2901 01b2 0E       		.uleb128 0xe
 2902 01b3 3A       		.uleb128 0x3a
 2903 01b4 0B       		.uleb128 0xb
 2904 01b5 3B       		.uleb128 0x3b
 2905 01b6 0B       		.uleb128 0xb
 2906 01b7 49       		.uleb128 0x49
 2907 01b8 13       		.uleb128 0x13
 2908 01b9 3F       		.uleb128 0x3f
 2909 01ba 19       		.uleb128 0x19
 2910 01bb 3C       		.uleb128 0x3c
 2911 01bc 19       		.uleb128 0x19
 2912 01bd 00       		.byte	0
 2913 01be 00       		.byte	0
 2914 01bf 23       		.uleb128 0x23
 2915 01c0 2E       		.uleb128 0x2e
 2916 01c1 00       		.byte	0
 2917 01c2 3F       		.uleb128 0x3f
 2918 01c3 19       		.uleb128 0x19
 2919 01c4 03       		.uleb128 0x3
 2920 01c5 0E       		.uleb128 0xe
 2921 01c6 3A       		.uleb128 0x3a
 2922 01c7 0B       		.uleb128 0xb
 2923 01c8 3B       		.uleb128 0x3b
 2924 01c9 0B       		.uleb128 0xb
 2925 01ca 27       		.uleb128 0x27
 2926 01cb 19       		.uleb128 0x19
 2927 01cc 3C       		.uleb128 0x3c
 2928 01cd 19       		.uleb128 0x19
 2929 01ce 00       		.byte	0
 2930 01cf 00       		.byte	0
 2931 01d0 24       		.uleb128 0x24
 2932 01d1 2E       		.uleb128 0x2e
 2933 01d2 00       		.byte	0
 2934 01d3 3F       		.uleb128 0x3f
 2935 01d4 19       		.uleb128 0x19
 2936 01d5 03       		.uleb128 0x3
 2937 01d6 0E       		.uleb128 0xe
 2938 01d7 3A       		.uleb128 0x3a
 2939 01d8 0B       		.uleb128 0xb
ARM GAS  /tmp/cc6k9JRV.s 			page 53


 2940 01d9 3B       		.uleb128 0x3b
 2941 01da 05       		.uleb128 0x5
 2942 01db 27       		.uleb128 0x27
 2943 01dc 19       		.uleb128 0x19
 2944 01dd 3C       		.uleb128 0x3c
 2945 01de 19       		.uleb128 0x19
 2946 01df 00       		.byte	0
 2947 01e0 00       		.byte	0
 2948 01e1 25       		.uleb128 0x25
 2949 01e2 2E       		.uleb128 0x2e
 2950 01e3 01       		.byte	0x1
 2951 01e4 3F       		.uleb128 0x3f
 2952 01e5 19       		.uleb128 0x19
 2953 01e6 03       		.uleb128 0x3
 2954 01e7 0E       		.uleb128 0xe
 2955 01e8 3A       		.uleb128 0x3a
 2956 01e9 0B       		.uleb128 0xb
 2957 01ea 3B       		.uleb128 0x3b
 2958 01eb 05       		.uleb128 0x5
 2959 01ec 27       		.uleb128 0x27
 2960 01ed 19       		.uleb128 0x19
 2961 01ee 3C       		.uleb128 0x3c
 2962 01ef 19       		.uleb128 0x19
 2963 01f0 01       		.uleb128 0x1
 2964 01f1 13       		.uleb128 0x13
 2965 01f2 00       		.byte	0
 2966 01f3 00       		.byte	0
 2967 01f4 26       		.uleb128 0x26
 2968 01f5 2E       		.uleb128 0x2e
 2969 01f6 01       		.byte	0x1
 2970 01f7 3F       		.uleb128 0x3f
 2971 01f8 19       		.uleb128 0x19
 2972 01f9 03       		.uleb128 0x3
 2973 01fa 0E       		.uleb128 0xe
 2974 01fb 3A       		.uleb128 0x3a
 2975 01fc 0B       		.uleb128 0xb
 2976 01fd 3B       		.uleb128 0x3b
 2977 01fe 05       		.uleb128 0x5
 2978 01ff 27       		.uleb128 0x27
 2979 0200 19       		.uleb128 0x19
 2980 0201 3C       		.uleb128 0x3c
 2981 0202 19       		.uleb128 0x19
 2982 0203 00       		.byte	0
 2983 0204 00       		.byte	0
 2984 0205 00       		.byte	0
 2985              		.section	.debug_loc,"",%progbits
 2986              	.Ldebug_loc0:
 2987              	.LLST0:
 2988 0000 14000000 		.4byte	.LVL21
 2989 0004 1A000000 		.4byte	.LVL22
 2990 0008 0100     		.2byte	0x1
 2991 000a 52       		.byte	0x52
 2992 000b 1A000000 		.4byte	.LVL22
 2993 000f 44000000 		.4byte	.LVL25
 2994 0013 0700     		.2byte	0x7
 2995 0015 74       		.byte	0x74
 2996 0016 00       		.sleb128 0
ARM GAS  /tmp/cc6k9JRV.s 			page 54


 2997 0017 0A       		.byte	0xa
 2998 0018 E003     		.2byte	0x3e0
 2999 001a 1A       		.byte	0x1a
 3000 001b 9F       		.byte	0x9f
 3001 001c 48000000 		.4byte	.LVL26
 3002 0020 84000000 		.4byte	.LVL30
 3003 0024 0700     		.2byte	0x7
 3004 0026 74       		.byte	0x74
 3005 0027 00       		.sleb128 0
 3006 0028 0A       		.byte	0xa
 3007 0029 E003     		.2byte	0x3e0
 3008 002b 1A       		.byte	0x1a
 3009 002c 9F       		.byte	0x9f
 3010 002d 84000000 		.4byte	.LVL30
 3011 0031 95000000 		.4byte	.LVL31-1
 3012 0035 0100     		.2byte	0x1
 3013 0037 52       		.byte	0x52
 3014 0038 95000000 		.4byte	.LVL31-1
 3015 003c 98000000 		.4byte	.LFE116
 3016 0040 0700     		.2byte	0x7
 3017 0042 74       		.byte	0x74
 3018 0043 00       		.sleb128 0
 3019 0044 0A       		.byte	0xa
 3020 0045 E003     		.2byte	0x3e0
 3021 0047 1A       		.byte	0x1a
 3022 0048 9F       		.byte	0x9f
 3023 0049 00000000 		.4byte	0
 3024 004d 00000000 		.4byte	0
 3025              	.LLST1:
 3026 0051 14000000 		.4byte	.LVL33
 3027 0055 1A000000 		.4byte	.LVL34
 3028 0059 0100     		.2byte	0x1
 3029 005b 52       		.byte	0x52
 3030 005c 1A000000 		.4byte	.LVL34
 3031 0060 48000000 		.4byte	.LVL37
 3032 0064 0700     		.2byte	0x7
 3033 0066 74       		.byte	0x74
 3034 0067 00       		.sleb128 0
 3035 0068 0A       		.byte	0xa
 3036 0069 00FC     		.2byte	0xfc00
 3037 006b 1A       		.byte	0x1a
 3038 006c 9F       		.byte	0x9f
 3039 006d 4C000000 		.4byte	.LVL38
 3040 0071 9C000000 		.4byte	.LVL43
 3041 0075 0700     		.2byte	0x7
 3042 0077 74       		.byte	0x74
 3043 0078 00       		.sleb128 0
 3044 0079 0A       		.byte	0xa
 3045 007a 00FC     		.2byte	0xfc00
 3046 007c 1A       		.byte	0x1a
 3047 007d 9F       		.byte	0x9f
 3048 007e 9C000000 		.4byte	.LVL43
 3049 0082 AD000000 		.4byte	.LVL44-1
 3050 0086 0100     		.2byte	0x1
 3051 0088 52       		.byte	0x52
 3052 0089 AD000000 		.4byte	.LVL44-1
 3053 008d B0000000 		.4byte	.LFE117
ARM GAS  /tmp/cc6k9JRV.s 			page 55


 3054 0091 0700     		.2byte	0x7
 3055 0093 74       		.byte	0x74
 3056 0094 00       		.sleb128 0
 3057 0095 0A       		.byte	0xa
 3058 0096 00FC     		.2byte	0xfc00
 3059 0098 1A       		.byte	0x1a
 3060 0099 9F       		.byte	0x9f
 3061 009a 00000000 		.4byte	0
 3062 009e 00000000 		.4byte	0
 3063              		.section	.debug_aranges,"",%progbits
 3064 0000 94000000 		.4byte	0x94
 3065 0004 0200     		.2byte	0x2
 3066 0006 00000000 		.4byte	.Ldebug_info0
 3067 000a 04       		.byte	0x4
 3068 000b 00       		.byte	0
 3069 000c 0000     		.2byte	0
 3070 000e 0000     		.2byte	0
 3071 0010 00000000 		.4byte	.LFB111
 3072 0014 2E000000 		.4byte	.LFE111-.LFB111
 3073 0018 00000000 		.4byte	.LFB112
 3074 001c 2E000000 		.4byte	.LFE112-.LFB112
 3075 0020 00000000 		.4byte	.LFB113
 3076 0024 2E000000 		.4byte	.LFE113-.LFB113
 3077 0028 00000000 		.4byte	.LFB114
 3078 002c 2E000000 		.4byte	.LFE114-.LFB114
 3079 0030 00000000 		.4byte	.LFB115
 3080 0034 2E000000 		.4byte	.LFE115-.LFB115
 3081 0038 00000000 		.4byte	.LFB116
 3082 003c 98000000 		.4byte	.LFE116-.LFB116
 3083 0040 00000000 		.4byte	.LFB117
 3084 0044 B0000000 		.4byte	.LFE117-.LFB117
 3085 0048 00000000 		.4byte	.LFB118
 3086 004c 32000000 		.4byte	.LFE118-.LFB118
 3087 0050 00000000 		.4byte	.LFB119
 3088 0054 32000000 		.4byte	.LFE119-.LFB119
 3089 0058 00000000 		.4byte	.LFB120
 3090 005c 32000000 		.4byte	.LFE120-.LFB120
 3091 0060 00000000 		.4byte	.LFB121
 3092 0064 32000000 		.4byte	.LFE121-.LFB121
 3093 0068 00000000 		.4byte	.LFB122
 3094 006c 32000000 		.4byte	.LFE122-.LFB122
 3095 0070 00000000 		.4byte	.LFB123
 3096 0074 32000000 		.4byte	.LFE123-.LFB123
 3097 0078 00000000 		.4byte	.LFB124
 3098 007c 32000000 		.4byte	.LFE124-.LFB124
 3099 0080 00000000 		.4byte	.LFB125
 3100 0084 76000000 		.4byte	.LFE125-.LFB125
 3101 0088 00000000 		.4byte	.LFB126
 3102 008c 5A000000 		.4byte	.LFE126-.LFB126
 3103 0090 00000000 		.4byte	0
 3104 0094 00000000 		.4byte	0
 3105              		.section	.debug_ranges,"",%progbits
 3106              	.Ldebug_ranges0:
 3107 0000 00000000 		.4byte	.LFB111
 3108 0004 2E000000 		.4byte	.LFE111
 3109 0008 00000000 		.4byte	.LFB112
 3110 000c 2E000000 		.4byte	.LFE112
ARM GAS  /tmp/cc6k9JRV.s 			page 56


 3111 0010 00000000 		.4byte	.LFB113
 3112 0014 2E000000 		.4byte	.LFE113
 3113 0018 00000000 		.4byte	.LFB114
 3114 001c 2E000000 		.4byte	.LFE114
 3115 0020 00000000 		.4byte	.LFB115
 3116 0024 2E000000 		.4byte	.LFE115
 3117 0028 00000000 		.4byte	.LFB116
 3118 002c 98000000 		.4byte	.LFE116
 3119 0030 00000000 		.4byte	.LFB117
 3120 0034 B0000000 		.4byte	.LFE117
 3121 0038 00000000 		.4byte	.LFB118
 3122 003c 32000000 		.4byte	.LFE118
 3123 0040 00000000 		.4byte	.LFB119
 3124 0044 32000000 		.4byte	.LFE119
 3125 0048 00000000 		.4byte	.LFB120
 3126 004c 32000000 		.4byte	.LFE120
 3127 0050 00000000 		.4byte	.LFB121
 3128 0054 32000000 		.4byte	.LFE121
 3129 0058 00000000 		.4byte	.LFB122
 3130 005c 32000000 		.4byte	.LFE122
 3131 0060 00000000 		.4byte	.LFB123
 3132 0064 32000000 		.4byte	.LFE123
 3133 0068 00000000 		.4byte	.LFB124
 3134 006c 32000000 		.4byte	.LFE124
 3135 0070 00000000 		.4byte	.LFB125
 3136 0074 76000000 		.4byte	.LFE125
 3137 0078 00000000 		.4byte	.LFB126
 3138 007c 5A000000 		.4byte	.LFE126
 3139 0080 00000000 		.4byte	0
 3140 0084 00000000 		.4byte	0
 3141              		.section	.debug_line,"",%progbits
 3142              	.Ldebug_line0:
 3143 0000 8A030000 		.section	.debug_str,"MS",%progbits,1
 3143      0200BE01 
 3143      00000201 
 3143      FB0E0D00 
 3143      01010101 
 3144              	.LASF44:
 3145 0000 43414E31 		.ascii	"CAN1_RX0_IRQn\000"
 3145      5F525830 
 3145      5F495251 
 3145      6E00
 3146              	.LASF25:
 3147 000e 5056445F 		.ascii	"PVD_IRQn\000"
 3147      4952516E 
 3147      00
 3148              	.LASF88:
 3149 0017 43414E32 		.ascii	"CAN2_RX0_IRQn\000"
 3149      5F525830 
 3149      5F495251 
 3149      6E00
 3150              	.LASF128:
 3151 0025 56656374 		.ascii	"Vector9C\000"
 3151      6F723943 
 3151      00
 3152              	.LASF97:
 3153 002e 49324333 		.ascii	"I2C3_ER_IRQn\000"
ARM GAS  /tmp/cc6k9JRV.s 			page 57


 3153      5F45525F 
 3153      4952516E 
 3153      00
 3154              	.LASF55:
 3155 003b 49324331 		.ascii	"I2C1_EV_IRQn\000"
 3155      5F45565F 
 3155      4952516E 
 3155      00
 3156              	.LASF117:
 3157 0048 65787063 		.ascii	"expchannel_t\000"
 3157      68616E6E 
 3157      656C5F74 
 3157      00
 3158              	.LASF92:
 3159 0055 444D4132 		.ascii	"DMA2_Stream5_IRQn\000"
 3159      5F537472 
 3159      65616D35 
 3159      5F495251 
 3159      6E00
 3160              	.LASF108:
 3161 0067 53574945 		.ascii	"SWIER\000"
 3161      5200
 3162              	.LASF133:
 3163 006d 56656374 		.ascii	"Vector138\000"
 3163      6F723133 
 3163      3800
 3164              	.LASF144:
 3165 0077 474E5520 		.ascii	"GNU C 4.8.2 -mcpu=cortex-m4 -mno-thumb-interwork -m"
 3165      4320342E 
 3165      382E3220 
 3165      2D6D6370 
 3165      753D636F 
 3166 00aa 7468756D 		.ascii	"thumb -ggdb -O2 -fomit-frame-pointer -falign-functi"
 3166      62202D67 
 3166      67646220 
 3166      2D4F3220 
 3166      2D666F6D 
 3167 00dd 6F6E733D 		.ascii	"ons=16 -ffunction-sections -fdata-sections -fno-com"
 3167      3136202D 
 3167      6666756E 
 3167      6374696F 
 3167      6E2D7365 
 3168 0110 6D6F6E00 		.ascii	"mon\000"
 3169              	.LASF45:
 3170 0114 43414E31 		.ascii	"CAN1_RX1_IRQn\000"
 3170      5F525831 
 3170      5F495251 
 3170      6E00
 3171              	.LASF10:
 3172 0122 6C6F6E67 		.ascii	"long long unsigned int\000"
 3172      206C6F6E 
 3172      6720756E 
 3172      7369676E 
 3172      65642069 
 3173              	.LASF65:
 3174 0139 5254435F 		.ascii	"RTC_Alarm_IRQn\000"
 3174      416C6172 
ARM GAS  /tmp/cc6k9JRV.s 			page 58


 3174      6D5F4952 
 3174      516E00
 3175              	.LASF58:
 3176 0148 49324332 		.ascii	"I2C2_ER_IRQn\000"
 3176      5F45525F 
 3176      4952516E 
 3176      00
 3177              	.LASF54:
 3178 0155 54494D34 		.ascii	"TIM4_IRQn\000"
 3178      5F495251 
 3178      6E00
 3179              	.LASF27:
 3180 015f 5254435F 		.ascii	"RTC_WKUP_IRQn\000"
 3180      574B5550 
 3180      5F495251 
 3180      6E00
 3181              	.LASF24:
 3182 016d 57574447 		.ascii	"WWDG_IRQn\000"
 3182      5F495251 
 3182      6E00
 3183              	.LASF73:
 3184 0177 5344494F 		.ascii	"SDIO_IRQn\000"
 3184      5F495251 
 3184      6E00
 3185              	.LASF148:
 3186 0181 6E766963 		.ascii	"nvicEnableVector\000"
 3186      456E6162 
 3186      6C655665 
 3186      63746F72 
 3186      00
 3187              	.LASF70:
 3188 0192 54494D38 		.ascii	"TIM8_CC_IRQn\000"
 3188      5F43435F 
 3188      4952516E 
 3188      00
 3189              	.LASF9:
 3190 019f 6C6F6E67 		.ascii	"long long int\000"
 3190      206C6F6E 
 3190      6720696E 
 3190      7400
 3191              	.LASF1:
 3192 01ad 7369676E 		.ascii	"signed char\000"
 3192      65642063 
 3192      68617200 
 3193              	.LASF89:
 3194 01b9 43414E32 		.ascii	"CAN2_RX1_IRQn\000"
 3194      5F525831 
 3194      5F495251 
 3194      6E00
 3195              	.LASF93:
 3196 01c7 444D4132 		.ascii	"DMA2_Stream6_IRQn\000"
 3196      5F537472 
 3196      65616D36 
 3196      5F495251 
 3196      6E00
 3197              	.LASF145:
 3198 01d9 2E2E2F2E 		.ascii	"../../../os/hal/platforms/STM32F4xx/ext_lld_isr.c\000"
ARM GAS  /tmp/cc6k9JRV.s 			page 59


 3198      2E2F2E2E 
 3198      2F6F732F 
 3198      68616C2F 
 3198      706C6174 
 3199              	.LASF115:
 3200 020b 73746174 		.ascii	"state\000"
 3200      6500
 3201              	.LASF121:
 3202 0211 6368616E 		.ascii	"channels\000"
 3202      6E656C73 
 3202      00
 3203              	.LASF5:
 3204 021a 6C6F6E67 		.ascii	"long int\000"
 3204      20696E74 
 3204      00
 3205              	.LASF57:
 3206 0223 49324332 		.ascii	"I2C2_EV_IRQn\000"
 3206      5F45565F 
 3206      4952516E 
 3206      00
 3207              	.LASF40:
 3208 0230 444D4131 		.ascii	"DMA1_Stream5_IRQn\000"
 3208      5F537472 
 3208      65616D35 
 3208      5F495251 
 3208      6E00
 3209              	.LASF47:
 3210 0242 45585449 		.ascii	"EXTI9_5_IRQn\000"
 3210      395F355F 
 3210      4952516E 
 3210      00
 3211              	.LASF86:
 3212 024f 4554485F 		.ascii	"ETH_WKUP_IRQn\000"
 3212      574B5550 
 3212      5F495251 
 3212      6E00
 3213              	.LASF78:
 3214 025d 54494D36 		.ascii	"TIM6_DAC_IRQn\000"
 3214      5F444143 
 3214      5F495251 
 3214      6E00
 3215              	.LASF76:
 3216 026b 55415254 		.ascii	"UART4_IRQn\000"
 3216      345F4952 
 3216      516E00
 3217              	.LASF120:
 3218 0276 45585443 		.ascii	"EXTChannelConfig\000"
 3218      68616E6E 
 3218      656C436F 
 3218      6E666967 
 3218      00
 3219              	.LASF22:
 3220 0287 50656E64 		.ascii	"PendSV_IRQn\000"
 3220      53565F49 
 3220      52516E00 
 3221              	.LASF68:
 3222 0293 54494D38 		.ascii	"TIM8_UP_TIM13_IRQn\000"
ARM GAS  /tmp/cc6k9JRV.s 			page 60


 3222      5F55505F 
 3222      54494D31 
 3222      335F4952 
 3222      516E00
 3223              	.LASF7:
 3224 02a6 5F5F7569 		.ascii	"__uint32_t\000"
 3224      6E743332 
 3224      5F7400
 3225              	.LASF18:
 3226 02b1 42757346 		.ascii	"BusFault_IRQn\000"
 3226      61756C74 
 3226      5F495251 
 3226      6E00
 3227              	.LASF66:
 3228 02bf 4F54475F 		.ascii	"OTG_FS_WKUP_IRQn\000"
 3228      46535F57 
 3228      4B55505F 
 3228      4952516E 
 3228      00
 3229              	.LASF94:
 3230 02d0 444D4132 		.ascii	"DMA2_Stream7_IRQn\000"
 3230      5F537472 
 3230      65616D37 
 3230      5F495251 
 3230      6E00
 3231              	.LASF138:
 3232 02e2 6578745F 		.ascii	"ext_lld_exti_irq_disable\000"
 3232      6C6C645F 
 3232      65787469 
 3232      5F697271 
 3232      5F646973 
 3233              	.LASF0:
 3234 02fb 756E7369 		.ascii	"unsigned int\000"
 3234      676E6564 
 3234      20696E74 
 3234      00
 3235              	.LASF38:
 3236 0308 444D4131 		.ascii	"DMA1_Stream3_IRQn\000"
 3236      5F537472 
 3236      65616D33 
 3236      5F495251 
 3236      6E00
 3237              	.LASF41:
 3238 031a 444D4131 		.ascii	"DMA1_Stream6_IRQn\000"
 3238      5F537472 
 3238      65616D36 
 3238      5F495251 
 3238      6E00
 3239              	.LASF106:
 3240 032c 52545352 		.ascii	"RTSR\000"
 3240      00
 3241              	.LASF17:
 3242 0331 4D656D6F 		.ascii	"MemoryManagement_IRQn\000"
 3242      72794D61 
 3242      6E616765 
 3242      6D656E74 
 3242      5F495251 
ARM GAS  /tmp/cc6k9JRV.s 			page 61


 3243              	.LASF96:
 3244 0347 49324333 		.ascii	"I2C3_EV_IRQn\000"
 3244      5F45565F 
 3244      4952516E 
 3244      00
 3245              	.LASF8:
 3246 0354 6C6F6E67 		.ascii	"long unsigned int\000"
 3246      20756E73 
 3246      69676E65 
 3246      6420696E 
 3246      7400
 3247              	.LASF143:
 3248 0366 5F706F72 		.ascii	"_port_irq_epilogue\000"
 3248      745F6972 
 3248      715F6570 
 3248      696C6F67 
 3248      756500
 3249              	.LASF136:
 3250 0379 56656374 		.ascii	"Vector4C\000"
 3250      6F723443 
 3250      00
 3251              	.LASF98:
 3252 0382 4F54475F 		.ascii	"OTG_HS_EP1_OUT_IRQn\000"
 3252      48535F45 
 3252      50315F4F 
 3252      55545F49 
 3252      52516E00 
 3253              	.LASF146:
 3254 0396 2F686F6D 		.ascii	"/home/ece497/vbox-shared/mplayer/ChibiOS-RT-stable_"
 3254      652F6563 
 3254      65343937 
 3254      2F76626F 
 3254      782D7368 
 3255 03c9 322E362E 		.ascii	"2.6.x/testhal/STM32F4xx/I2C\000"
 3255      782F7465 
 3255      73746861 
 3255      6C2F5354 
 3255      4D333246 
 3256              	.LASF20:
 3257 03e5 53564361 		.ascii	"SVCall_IRQn\000"
 3257      6C6C5F49 
 3257      52516E00 
 3258              	.LASF4:
 3259 03f1 73686F72 		.ascii	"short unsigned int\000"
 3259      7420756E 
 3259      7369676E 
 3259      65642069 
 3259      6E7400
 3260              	.LASF137:
 3261 0404 6578745F 		.ascii	"ext_lld_exti_irq_enable\000"
 3261      6C6C645F 
 3261      65787469 
 3261      5F697271 
 3261      5F656E61 
 3262              	.LASF43:
 3263 041c 43414E31 		.ascii	"CAN1_TX_IRQn\000"
 3263      5F54585F 
ARM GAS  /tmp/cc6k9JRV.s 			page 62


 3263      4952516E 
 3263      00
 3264              	.LASF64:
 3265 0429 45585449 		.ascii	"EXTI15_10_IRQn\000"
 3265      31355F31 
 3265      305F4952 
 3265      516E00
 3266              	.LASF59:
 3267 0438 53504931 		.ascii	"SPI1_IRQn\000"
 3267      5F495251 
 3267      6E00
 3268              	.LASF36:
 3269 0442 444D4131 		.ascii	"DMA1_Stream1_IRQn\000"
 3269      5F537472 
 3269      65616D31 
 3269      5F495251 
 3269      6E00
 3270              	.LASF67:
 3271 0454 54494D38 		.ascii	"TIM8_BRK_TIM12_IRQn\000"
 3271      5F42524B 
 3271      5F54494D 
 3271      31325F49 
 3271      52516E00 
 3272              	.LASF23:
 3273 0468 53797354 		.ascii	"SysTick_IRQn\000"
 3273      69636B5F 
 3273      4952516E 
 3273      00
 3274              	.LASF51:
 3275 0475 54494D31 		.ascii	"TIM1_CC_IRQn\000"
 3275      5F43435F 
 3275      4952516E 
 3275      00
 3276              	.LASF69:
 3277 0482 54494D38 		.ascii	"TIM8_TRG_COM_TIM14_IRQn\000"
 3277      5F545247 
 3277      5F434F4D 
 3277      5F54494D 
 3277      31345F49 
 3278              	.LASF112:
 3279 049a 4558545F 		.ascii	"EXT_ACTIVE\000"
 3279      41435449 
 3279      564500
 3280              	.LASF123:
 3281 04a5 56656374 		.ascii	"Vector58\000"
 3281      6F723538 
 3281      00
 3282              	.LASF85:
 3283 04ae 4554485F 		.ascii	"ETH_IRQn\000"
 3283      4952516E 
 3283      00
 3284              	.LASF147:
 3285 04b7 4952516E 		.ascii	"IRQn\000"
 3285      00
 3286              	.LASF124:
 3287 04bc 56656374 		.ascii	"Vector5C\000"
 3287      6F723543 
ARM GAS  /tmp/cc6k9JRV.s 			page 63


 3287      00
 3288              	.LASF14:
 3289 04c5 73697A65 		.ascii	"sizetype\000"
 3289      74797065 
 3289      00
 3290              	.LASF113:
 3291 04ce 65787473 		.ascii	"extstate_t\000"
 3291      74617465 
 3291      5F7400
 3292              	.LASF49:
 3293 04d9 54494D31 		.ascii	"TIM1_UP_TIM10_IRQn\000"
 3293      5F55505F 
 3293      54494D31 
 3293      305F4952 
 3293      516E00
 3294              	.LASF135:
 3295 04ec 54414D50 		.ascii	"TAMPER_STAMP_IRQHandler\000"
 3295      45525F53 
 3295      54414D50 
 3295      5F495251 
 3295      48616E64 
 3296              	.LASF83:
 3297 0504 444D4132 		.ascii	"DMA2_Stream3_IRQn\000"
 3297      5F537472 
 3297      65616D33 
 3297      5F495251 
 3297      6E00
 3298              	.LASF39:
 3299 0516 444D4131 		.ascii	"DMA1_Stream4_IRQn\000"
 3299      5F537472 
 3299      65616D34 
 3299      5F495251 
 3299      6E00
 3300              	.LASF82:
 3301 0528 444D4132 		.ascii	"DMA2_Stream2_IRQn\000"
 3301      5F537472 
 3301      65616D32 
 3301      5F495251 
 3301      6E00
 3302              	.LASF95:
 3303 053a 55534152 		.ascii	"USART6_IRQn\000"
 3303      54365F49 
 3303      52516E00 
 3304              	.LASF74:
 3305 0546 54494D35 		.ascii	"TIM5_IRQn\000"
 3305      5F495251 
 3305      6E00
 3306              	.LASF33:
 3307 0550 45585449 		.ascii	"EXTI3_IRQn\000"
 3307      335F4952 
 3307      516E00
 3308              	.LASF60:
 3309 055b 53504932 		.ascii	"SPI2_IRQn\000"
 3309      5F495251 
 3309      6E00
 3310              	.LASF37:
 3311 0565 444D4131 		.ascii	"DMA1_Stream2_IRQn\000"
ARM GAS  /tmp/cc6k9JRV.s 			page 64


 3311      5F537472 
 3311      65616D32 
 3311      5F495251 
 3311      6E00
 3312              	.LASF87:
 3313 0577 43414E32 		.ascii	"CAN2_TX_IRQn\000"
 3313      5F54585F 
 3313      4952516E 
 3313      00
 3314              	.LASF91:
 3315 0584 4F54475F 		.ascii	"OTG_FS_IRQn\000"
 3315      46535F49 
 3315      52516E00 
 3316              	.LASF130:
 3317 0590 56656374 		.ascii	"Vector44\000"
 3317      6F723434 
 3317      00
 3318              	.LASF129:
 3319 0599 56656374 		.ascii	"VectorE0\000"
 3319      6F724530 
 3319      00
 3320              	.LASF131:
 3321 05a2 56656374 		.ascii	"VectorE4\000"
 3321      6F724534 
 3321      00
 3322              	.LASF26:
 3323 05ab 54414D50 		.ascii	"TAMP_STAMP_IRQn\000"
 3323      5F535441 
 3323      4D505F49 
 3323      52516E00 
 3324              	.LASF101:
 3325 05bb 4F54475F 		.ascii	"OTG_HS_IRQn\000"
 3325      48535F49 
 3325      52516E00 
 3326              	.LASF132:
 3327 05c7 56656374 		.ascii	"VectorE8\000"
 3327      6F724538 
 3327      00
 3328              	.LASF134:
 3329 05d0 56656374 		.ascii	"Vector170\000"
 3329      6F723137 
 3329      3000
 3330              	.LASF125:
 3331 05da 56656374 		.ascii	"Vector60\000"
 3331      6F723630 
 3331      00
 3332              	.LASF126:
 3333 05e3 56656374 		.ascii	"Vector64\000"
 3333      6F723634 
 3333      00
 3334              	.LASF127:
 3335 05ec 56656374 		.ascii	"Vector68\000"
 3335      6F723638 
 3335      00
 3336              	.LASF61:
 3337 05f5 55534152 		.ascii	"USART1_IRQn\000"
 3337      54315F49 
ARM GAS  /tmp/cc6k9JRV.s 			page 65


 3337      52516E00 
 3338              	.LASF75:
 3339 0601 53504933 		.ascii	"SPI3_IRQn\000"
 3339      5F495251 
 3339      6E00
 3340              	.LASF84:
 3341 060b 444D4132 		.ascii	"DMA2_Stream4_IRQn\000"
 3341      5F537472 
 3341      65616D34 
 3341      5F495251 
 3341      6E00
 3342              	.LASF72:
 3343 061d 46534D43 		.ascii	"FSMC_IRQn\000"
 3343      5F495251 
 3343      6E00
 3344              	.LASF13:
 3345 0627 5F426F6F 		.ascii	"_Bool\000"
 3345      6C00
 3346              	.LASF11:
 3347 062d 696E7433 		.ascii	"int32_t\000"
 3347      325F7400 
 3348              	.LASF2:
 3349 0635 756E7369 		.ascii	"unsigned char\000"
 3349      676E6564 
 3349      20636861 
 3349      7200
 3350              	.LASF110:
 3351 0643 4558545F 		.ascii	"EXT_UNINIT\000"
 3351      554E494E 
 3351      495400
 3352              	.LASF48:
 3353 064e 54494D31 		.ascii	"TIM1_BRK_TIM9_IRQn\000"
 3353      5F42524B 
 3353      5F54494D 
 3353      395F4952 
 3353      516E00
 3354              	.LASF139:
 3355 0661 49544D5F 		.ascii	"ITM_RxBuffer\000"
 3355      52784275 
 3355      66666572 
 3355      00
 3356              	.LASF107:
 3357 066e 46545352 		.ascii	"FTSR\000"
 3357      00
 3358              	.LASF34:
 3359 0673 45585449 		.ascii	"EXTI4_IRQn\000"
 3359      345F4952 
 3359      516E00
 3360              	.LASF104:
 3361 067e 48415348 		.ascii	"HASH_RNG_IRQn\000"
 3361      5F524E47 
 3361      5F495251 
 3361      6E00
 3362              	.LASF3:
 3363 068c 73686F72 		.ascii	"short int\000"
 3363      7420696E 
 3363      7400
ARM GAS  /tmp/cc6k9JRV.s 			page 66


 3364              	.LASF77:
 3365 0696 55415254 		.ascii	"UART5_IRQn\000"
 3365      355F4952 
 3365      516E00
 3366              	.LASF50:
 3367 06a1 54494D31 		.ascii	"TIM1_TRG_COM_TIM11_IRQn\000"
 3367      5F545247 
 3367      5F434F4D 
 3367      5F54494D 
 3367      31315F49 
 3368              	.LASF142:
 3369 06b9 6462675F 		.ascii	"dbg_check_leave_isr\000"
 3369      63686563 
 3369      6B5F6C65 
 3369      6176655F 
 3369      69737200 
 3370              	.LASF32:
 3371 06cd 45585449 		.ascii	"EXTI2_IRQn\000"
 3371      325F4952 
 3371      516E00
 3372              	.LASF28:
 3373 06d8 464C4153 		.ascii	"FLASH_IRQn\000"
 3373      485F4952 
 3373      516E00
 3374              	.LASF12:
 3375 06e3 75696E74 		.ascii	"uint32_t\000"
 3375      33325F74 
 3375      00
 3376              	.LASF62:
 3377 06ec 55534152 		.ascii	"USART2_IRQn\000"
 3377      54325F49 
 3377      52516E00 
 3378              	.LASF19:
 3379 06f8 55736167 		.ascii	"UsageFault_IRQn\000"
 3379      65466175 
 3379      6C745F49 
 3379      52516E00 
 3380              	.LASF149:
 3381 0708 6E766963 		.ascii	"nvicDisableVector\000"
 3381      44697361 
 3381      626C6556 
 3381      6563746F 
 3381      7200
 3382              	.LASF111:
 3383 071a 4558545F 		.ascii	"EXT_STOP\000"
 3383      53544F50 
 3383      00
 3384              	.LASF71:
 3385 0723 444D4131 		.ascii	"DMA1_Stream7_IRQn\000"
 3385      5F537472 
 3385      65616D37 
 3385      5F495251 
 3385      6E00
 3386              	.LASF15:
 3387 0735 63686172 		.ascii	"char\000"
 3387      00
 3388              	.LASF119:
ARM GAS  /tmp/cc6k9JRV.s 			page 67


 3389 073a 6D6F6465 		.ascii	"mode\000"
 3389      00
 3390              	.LASF103:
 3391 073f 43525950 		.ascii	"CRYP_IRQn\000"
 3391      5F495251 
 3391      6E00
 3392              	.LASF116:
 3393 0749 636F6E66 		.ascii	"config\000"
 3393      696700
 3394              	.LASF118:
 3395 0750 65787463 		.ascii	"extcallback_t\000"
 3395      616C6C62 
 3395      61636B5F 
 3395      7400
 3396              	.LASF79:
 3397 075e 54494D37 		.ascii	"TIM7_IRQn\000"
 3397      5F495251 
 3397      6E00
 3398              	.LASF99:
 3399 0768 4F54475F 		.ascii	"OTG_HS_EP1_IN_IRQn\000"
 3399      48535F45 
 3399      50315F49 
 3399      4E5F4952 
 3399      516E00
 3400              	.LASF16:
 3401 077b 4E6F6E4D 		.ascii	"NonMaskableInt_IRQn\000"
 3401      61736B61 
 3401      626C6549 
 3401      6E745F49 
 3401      52516E00 
 3402              	.LASF6:
 3403 078f 5F5F696E 		.ascii	"__int32_t\000"
 3403      7433325F 
 3403      7400
 3404              	.LASF56:
 3405 0799 49324331 		.ascii	"I2C1_ER_IRQn\000"
 3405      5F45525F 
 3405      4952516E 
 3405      00
 3406              	.LASF80:
 3407 07a6 444D4132 		.ascii	"DMA2_Stream0_IRQn\000"
 3407      5F537472 
 3407      65616D30 
 3407      5F495251 
 3407      6E00
 3408              	.LASF63:
 3409 07b8 55534152 		.ascii	"USART3_IRQn\000"
 3409      54335F49 
 3409      52516E00 
 3410              	.LASF114:
 3411 07c4 45585444 		.ascii	"EXTDriver\000"
 3411      72697665 
 3411      7200
 3412              	.LASF52:
 3413 07ce 54494D32 		.ascii	"TIM2_IRQn\000"
 3413      5F495251 
 3413      6E00
ARM GAS  /tmp/cc6k9JRV.s 			page 68


 3414              	.LASF30:
 3415 07d8 45585449 		.ascii	"EXTI0_IRQn\000"
 3415      305F4952 
 3415      516E00
 3416              	.LASF141:
 3417 07e3 6462675F 		.ascii	"dbg_check_enter_isr\000"
 3417      63686563 
 3417      6B5F656E 
 3417      7465725F 
 3417      69737200 
 3418              	.LASF102:
 3419 07f7 44434D49 		.ascii	"DCMI_IRQn\000"
 3419      5F495251 
 3419      6E00
 3420              	.LASF122:
 3421 0801 45585443 		.ascii	"EXTConfig\000"
 3421      6F6E6669 
 3421      6700
 3422              	.LASF105:
 3423 080b 4650555F 		.ascii	"FPU_IRQn\000"
 3423      4952516E 
 3423      00
 3424              	.LASF21:
 3425 0814 44656275 		.ascii	"DebugMonitor_IRQn\000"
 3425      674D6F6E 
 3425      69746F72 
 3425      5F495251 
 3425      6E00
 3426              	.LASF109:
 3427 0826 45585449 		.ascii	"EXTI_TypeDef\000"
 3427      5F547970 
 3427      65446566 
 3427      00
 3428              	.LASF42:
 3429 0833 4144435F 		.ascii	"ADC_IRQn\000"
 3429      4952516E 
 3429      00
 3430              	.LASF81:
 3431 083c 444D4132 		.ascii	"DMA2_Stream1_IRQn\000"
 3431      5F537472 
 3431      65616D31 
 3431      5F495251 
 3431      6E00
 3432              	.LASF140:
 3433 084e 45585444 		.ascii	"EXTD1\000"
 3433      3100
 3434              	.LASF46:
 3435 0854 43414E31 		.ascii	"CAN1_SCE_IRQn\000"
 3435      5F534345 
 3435      5F495251 
 3435      6E00
 3436              	.LASF90:
 3437 0862 43414E32 		.ascii	"CAN2_SCE_IRQn\000"
 3437      5F534345 
 3437      5F495251 
 3437      6E00
 3438              	.LASF29:
ARM GAS  /tmp/cc6k9JRV.s 			page 69


 3439 0870 5243435F 		.ascii	"RCC_IRQn\000"
 3439      4952516E 
 3439      00
 3440              	.LASF100:
 3441 0879 4F54475F 		.ascii	"OTG_HS_WKUP_IRQn\000"
 3441      48535F57 
 3441      4B55505F 
 3441      4952516E 
 3441      00
 3442              	.LASF53:
 3443 088a 54494D33 		.ascii	"TIM3_IRQn\000"
 3443      5F495251 
 3443      6E00
 3444              	.LASF31:
 3445 0894 45585449 		.ascii	"EXTI1_IRQn\000"
 3445      315F4952 
 3445      516E00
 3446              	.LASF35:
 3447 089f 444D4131 		.ascii	"DMA1_Stream0_IRQn\000"
 3447      5F537472 
 3447      65616D30 
 3447      5F495251 
 3447      6E00
 3448              		.ident	"GCC: (Arch Repository) 4.8.2"
ARM GAS  /tmp/cc6k9JRV.s 			page 70


DEFINED SYMBOLS
                            *ABS*:0000000000000000 ext_lld_isr.c
     /tmp/cc6k9JRV.s:19     .text.Vector58:0000000000000000 $t
     /tmp/cc6k9JRV.s:25     .text.Vector58:0000000000000000 Vector58
     /tmp/cc6k9JRV.s:69     .text.Vector5C:0000000000000000 $t
     /tmp/cc6k9JRV.s:75     .text.Vector5C:0000000000000000 Vector5C
     /tmp/cc6k9JRV.s:118    .text.Vector60:0000000000000000 $t
     /tmp/cc6k9JRV.s:124    .text.Vector60:0000000000000000 Vector60
     /tmp/cc6k9JRV.s:167    .text.Vector64:0000000000000000 $t
     /tmp/cc6k9JRV.s:173    .text.Vector64:0000000000000000 Vector64
     /tmp/cc6k9JRV.s:216    .text.Vector68:0000000000000000 $t
     /tmp/cc6k9JRV.s:222    .text.Vector68:0000000000000000 Vector68
     /tmp/cc6k9JRV.s:265    .text.Vector9C:0000000000000000 $t
     /tmp/cc6k9JRV.s:271    .text.Vector9C:0000000000000000 Vector9C
     /tmp/cc6k9JRV.s:380    .text.VectorE0:0000000000000000 $t
     /tmp/cc6k9JRV.s:386    .text.VectorE0:0000000000000000 VectorE0
     /tmp/cc6k9JRV.s:511    .text.Vector44:0000000000000000 $t
     /tmp/cc6k9JRV.s:517    .text.Vector44:0000000000000000 Vector44
     /tmp/cc6k9JRV.s:560    .text.VectorE4:0000000000000000 $t
     /tmp/cc6k9JRV.s:566    .text.VectorE4:0000000000000000 VectorE4
     /tmp/cc6k9JRV.s:609    .text.VectorE8:0000000000000000 $t
     /tmp/cc6k9JRV.s:615    .text.VectorE8:0000000000000000 VectorE8
     /tmp/cc6k9JRV.s:658    .text.Vector138:0000000000000000 $t
     /tmp/cc6k9JRV.s:664    .text.Vector138:0000000000000000 Vector138
     /tmp/cc6k9JRV.s:707    .text.Vector170:0000000000000000 $t
     /tmp/cc6k9JRV.s:713    .text.Vector170:0000000000000000 Vector170
     /tmp/cc6k9JRV.s:756    .text.TAMPER_STAMP_IRQHandler:0000000000000000 $t
     /tmp/cc6k9JRV.s:762    .text.TAMPER_STAMP_IRQHandler:0000000000000000 TAMPER_STAMP_IRQHandler
     /tmp/cc6k9JRV.s:805    .text.Vector4C:0000000000000000 $t
     /tmp/cc6k9JRV.s:811    .text.Vector4C:0000000000000000 Vector4C
     /tmp/cc6k9JRV.s:854    .text.ext_lld_exti_irq_enable:0000000000000000 $t
     /tmp/cc6k9JRV.s:860    .text.ext_lld_exti_irq_enable:0000000000000000 ext_lld_exti_irq_enable
     /tmp/cc6k9JRV.s:947    .text.ext_lld_exti_irq_disable:0000000000000000 $t
     /tmp/cc6k9JRV.s:953    .text.ext_lld_exti_irq_disable:0000000000000000 ext_lld_exti_irq_disable
                     .debug_frame:0000000000000010 $d

UNDEFINED SYMBOLS
dbg_check_enter_isr
EXTD1
dbg_check_leave_isr
_port_irq_epilogue
nvicEnableVector
nvicDisableVector
