ARM GAS  /tmp/ccmPRfAK.s 			page 1


   1              		.syntax unified
   2              		.cpu cortex-m4
   3              		.fpu softvfp
   4              		.eabi_attribute 20, 1
   5              		.eabi_attribute 21, 1
   6              		.eabi_attribute 23, 3
   7              		.eabi_attribute 24, 1
   8              		.eabi_attribute 25, 1
   9              		.eabi_attribute 26, 1
  10              		.eabi_attribute 30, 2
  11              		.eabi_attribute 34, 1
  12              		.eabi_attribute 18, 4
  13              		.thumb
  14              		.file	"main.c"
  15              		.text
  16              	.Ltext0:
  17              		.cfi_sections	.debug_frame
  18              		.section	.text.print,"ax",%progbits
  19              		.align	2
  20              		.p2align 4,,15
  21              		.thumb
  22              		.thumb_func
  23              		.type	print, %function
  24              	print:
  25              	.LFB111:
  26              		.file 1 "main.c"
  27              		.loc 1 47 0
  28              		.cfi_startproc
  29              		@ args = 0, pretend = 0, frame = 0
  30              		@ frame_needed = 0, uses_anonymous_args = 0
  31              	.LVL0:
  32 0000 10B5     		push	{r4, lr}
  33              		.cfi_def_cfa_offset 8
  34              		.cfi_offset 4, -8
  35              		.cfi_offset 14, -4
  36              		.loc 1 49 0
  37 0002 0178     		ldrb	r1, [r0]	@ zero_extendqisi2
  38 0004 49B1     		cbz	r1, .L1
  39 0006 0446     		mov	r4, r0
  40              	.LVL1:
  41              	.L4:
  42              		.loc 1 50 0
  43 0008 0448     		ldr	r0, .L9
  44 000a 4FF0FF32 		mov	r2, #-1
  45 000e FFF7FEFF 		bl	chOQPutTimeout
  46              	.LVL2:
  47              		.loc 1 49 0
  48 0012 14F8011F 		ldrb	r1, [r4, #1]!	@ zero_extendqisi2
  49              	.LVL3:
  50 0016 0029     		cmp	r1, #0
  51 0018 F6D1     		bne	.L4
  52              	.LVL4:
  53              	.L1:
  54 001a 10BD     		pop	{r4, pc}
  55              	.L10:
  56              		.align	2
  57              	.L9:
ARM GAS  /tmp/ccmPRfAK.s 			page 2


  58 001c 30000000 		.word	SD2+48
  59              		.cfi_endproc
  60              	.LFE111:
  61              		.size	print, .-print
  62              		.section	.text.printn,"ax",%progbits
  63              		.align	2
  64              		.p2align 4,,15
  65              		.thumb
  66              		.thumb_func
  67              		.type	printn, %function
  68              	printn:
  69              	.LFB113:
  70              		.loc 1 68 0
  71              		.cfi_startproc
  72              		@ args = 0, pretend = 0, frame = 16
  73              		@ frame_needed = 0, uses_anonymous_args = 0
  74              	.LVL5:
  75 0000 30B5     		push	{r4, r5, lr}
  76              		.cfi_def_cfa_offset 12
  77              		.cfi_offset 4, -12
  78              		.cfi_offset 5, -8
  79              		.cfi_offset 14, -4
  80              		.loc 1 71 0
  81 0002 041E     		subs	r4, r0, #0
  82              		.loc 1 68 0
  83 0004 85B0     		sub	sp, sp, #20
  84              		.cfi_def_cfa_offset 32
  85              		.loc 1 72 0
  86 0006 2148     		ldr	r0, .L22
  87              	.LVL6:
  88              		.loc 1 71 0
  89 0008 2EDD     		ble	.L12
  90              		.loc 1 72 0
  91 000a 2B21     		movs	r1, #43
  92 000c 4FF0FF32 		mov	r2, #-1
  93 0010 FFF7FEFF 		bl	chOQPutTimeout
  94              	.LVL7:
  95              	.L13:
  96 0014 0DF10105 		add	r5, sp, #1
  97              		.loc 1 83 0 discriminator 1
  98 0018 46F26760 		movw	r0, #26215
  99 001c 2B46     		mov	r3, r5
 100 001e C6F26660 		movt	r0, 26214
 101              	.LVL8:
 102              	.L15:
 103              		.loc 1 83 0 is_stmt 0
 104 0022 80FB0421 		smull	r2, r1, r0, r4
 105 0026 E217     		asrs	r2, r4, #31
 106 0028 C2EBA102 		rsb	r2, r2, r1, asr #2
 107 002c 02EB8201 		add	r1, r2, r2, lsl #2
 108 0030 A4EB4101 		sub	r1, r4, r1, lsl #1
 109 0034 3031     		adds	r1, r1, #48
 110 0036 C9B2     		uxtb	r1, r1
 111 0038 14B2     		sxth	r4, r2
 112 003a 03F8011C 		strb	r1, [r3, #-1]
 113 003e 1A46     		mov	r2, r3
 114              	.LVL9:
ARM GAS  /tmp/ccmPRfAK.s 			page 3


 115 0040 0133     		adds	r3, r3, #1
 116              	.LVL10:
 117              		.loc 1 82 0 is_stmt 1
 118 0042 002C     		cmp	r4, #0
 119 0044 EDD1     		bne	.L15
 120              		.loc 1 84 0 discriminator 1
 121 0046 6B46     		mov	r3, sp
 122 0048 9A42     		cmp	r2, r3
 123 004a 0BD9     		bls	.L11
 124 004c 1446     		mov	r4, r2
 125 004e 02E0     		b	.L20
 126              	.LVL11:
 127              	.L21:
 128 0050 14F8021C 		ldrb	r1, [r4, #-2]	@ zero_extendqisi2
 129 0054 013C     		subs	r4, r4, #1
 130              	.LVL12:
 131              	.L20:
 132              		.loc 1 85 0
 133 0056 0D48     		ldr	r0, .L22
 134 0058 4FF0FF32 		mov	r2, #-1
 135 005c FFF7FEFF 		bl	chOQPutTimeout
 136              	.LVL13:
 137              		.loc 1 84 0
 138 0060 AC42     		cmp	r4, r5
 139 0062 F5D1     		bne	.L21
 140              	.LVL14:
 141              	.L11:
 142              		.loc 1 87 0
 143 0064 05B0     		add	sp, sp, #20
 144              		@ sp needed
 145 0066 30BD     		pop	{r4, r5, pc}
 146              	.LVL15:
 147              	.L12:
 148              		.loc 1 75 0
 149 0068 6442     		negs	r4, r4
 150              		.loc 1 74 0
 151 006a 2D21     		movs	r1, #45
 152 006c 4FF0FF32 		mov	r2, #-1
 153              		.loc 1 75 0
 154 0070 24B2     		sxth	r4, r4
 155              		.loc 1 74 0
 156 0072 FFF7FEFF 		bl	chOQPutTimeout
 157              	.LVL16:
 158              		.loc 1 78 0
 159 0076 002C     		cmp	r4, #0
 160 0078 CCD1     		bne	.L13
 161              	.LVL17:
 162              	.LBB10:
 163              	.LBB11:
 164              		.loc 1 79 0
 165 007a 0448     		ldr	r0, .L22
 166 007c 3021     		movs	r1, #48
 167 007e 4FF0FF32 		mov	r2, #-1
 168              	.LBE11:
 169              	.LBE10:
 170              		.loc 1 87 0
 171 0082 05B0     		add	sp, sp, #20
ARM GAS  /tmp/ccmPRfAK.s 			page 4


 172              		@ sp needed
 173 0084 BDE83040 		pop	{r4, r5, lr}
 174              	.LBB13:
 175              	.LBB12:
 176              		.loc 1 79 0
 177 0088 FFF7FEBF 		b	chOQPutTimeout
 178              	.LVL18:
 179              	.L23:
 180              		.align	2
 181              	.L22:
 182 008c 30000000 		.word	SD2+48
 183              	.LBE12:
 184              	.LBE13:
 185              		.cfi_endproc
 186              	.LFE113:
 187              		.size	printn, .-printn
 188              		.section	.text.complement2signed,"ax",%progbits
 189              		.align	2
 190              		.p2align 4,,15
 191              		.global	complement2signed
 192              		.thumb
 193              		.thumb_func
 194              		.type	complement2signed, %function
 195              	complement2signed:
 196              	.LFB114:
 197              		.loc 1 92 0
 198              		.cfi_startproc
 199              		@ args = 0, pretend = 0, frame = 0
 200              		@ frame_needed = 0, uses_anonymous_args = 0
 201              		@ link register save eliminated.
 202              	.LVL19:
 203              		.loc 1 94 0
 204 0000 01EB0020 		add	r0, r1, r0, lsl #8
 205              	.LVL20:
 206              		.loc 1 99 0
 207 0004 00B2     		sxth	r0, r0
 208 0006 7047     		bx	lr
 209              		.cfi_endproc
 210              	.LFE114:
 211              		.size	complement2signed, .-complement2signed
 212 0008 AFF30080 		.section	.text.startup.main,"ax",%progbits
 212      AFF30080 
 213              		.align	2
 214              		.p2align 4,,15
 215              		.global	main
 216              		.thumb
 217              		.thumb_func
 218              		.type	main, %function
 219              	main:
 220              	.LFB115:
 221              		.loc 1 111 0
 222              		.cfi_startproc
 223              		@ args = 0, pretend = 0, frame = 8
 224              		@ frame_needed = 0, uses_anonymous_args = 0
 225              	.LVL21:
 226 0000 2DE9F04F 		push	{r4, r5, r6, r7, r8, r9, r10, fp, lr}
 227              		.cfi_def_cfa_offset 36
ARM GAS  /tmp/ccmPRfAK.s 			page 5


 228              		.cfi_offset 4, -36
 229              		.cfi_offset 5, -32
 230              		.cfi_offset 6, -28
 231              		.cfi_offset 7, -24
 232              		.cfi_offset 8, -20
 233              		.cfi_offset 9, -16
 234              		.cfi_offset 10, -12
 235              		.cfi_offset 11, -8
 236              		.cfi_offset 14, -4
 237 0004 87B0     		sub	sp, sp, #28
 238              		.cfi_def_cfa_offset 64
 239              		.loc 1 122 0
 240 0006 FFF7FEFF 		bl	halInit
 241              	.LVL22:
 242              		.loc 1 123 0
 243 000a FFF7FEFF 		bl	chSysInit
 244              	.LVL23:
 245              		.loc 1 128 0
 246 000e 40F20000 		movw	r0, #:lower16:I2CD2
 247 0012 40F20001 		movw	r1, #:lower16:.LANCHOR0
 248 0016 C0F20000 		movt	r0, #:upper16:I2CD2
 249 001a C0F20001 		movt	r1, #:upper16:.LANCHOR0
 250 001e FFF7FEFF 		bl	i2cStart
 251              	.LVL24:
 252              		.loc 1 133 0
 253 0022 40F20000 		movw	r0, #:lower16:SD2
 254 0026 C0F20000 		movt	r0, #:upper16:SD2
 255 002a 0021     		movs	r1, #0
 256 002c FFF7FEFF 		bl	sdStart
 257              	.LVL25:
 258              		.loc 1 134 0
 259 0030 0020     		movs	r0, #0
 260 0032 C4F20200 		movt	r0, 16386
 261 0036 0421     		movs	r1, #4
 262 0038 40F28232 		movw	r2, #898
 263 003c FFF7FEFF 		bl	_pal_lld_setgroupmode
 264              	.LVL26:
 265              		.loc 1 135 0
 266 0040 0020     		movs	r0, #0
 267 0042 0821     		movs	r1, #8
 268 0044 C4F20200 		movt	r0, 16386
 269 0048 40F28232 		movw	r2, #898
 270              		.loc 1 140 0
 271 004c 40F2000A 		movw	r10, #:lower16:.LANCHOR1
 272              		.loc 1 135 0
 273 0050 FFF7FEFF 		bl	_pal_lld_setgroupmode
 274              	.LVL27:
 275              		.loc 1 140 0
 276 0054 C0F2000A 		movt	r10, #:upper16:.LANCHOR1
 277              		.loc 1 142 0
 278 0058 40F20000 		movw	r0, #:lower16:I2CD2
 279              		.loc 1 140 0
 280 005c 2A22     		movs	r2, #42
 281              		.loc 1 141 0
 282 005e 0123     		movs	r3, #1
 283              		.loc 1 142 0
 284 0060 C0F20000 		movt	r0, #:upper16:I2CD2
ARM GAS  /tmp/ccmPRfAK.s 			page 6


 285              		.loc 1 143 0
 286 0064 40F20004 		movw	r4, #:lower16:.LANCHOR2
 287              		.loc 1 140 0
 288 0068 8AF80020 		strb	r2, [r10]
 289              		.loc 1 141 0
 290 006c 8AF80130 		strb	r3, [r10, #1]
 291              		.loc 1 143 0
 292 0070 C0F20004 		movt	r4, #:upper16:.LANCHOR2
 293              		.loc 1 142 0
 294 0074 FFF7FEFF 		bl	i2cAcquireBus
 295              	.LVL28:
 296              		.loc 1 143 0
 297 0078 0021     		movs	r1, #0
 298 007a 0423     		movs	r3, #4
 299 007c 40F20000 		movw	r0, #:lower16:I2CD2
 300 0080 0191     		str	r1, [sp, #4]
 301 0082 0293     		str	r3, [sp, #8]
 302 0084 5246     		mov	r2, r10
 303 0086 0094     		str	r4, [sp]
 304 0088 C0F20000 		movt	r0, #:upper16:I2CD2
 305 008c 1C21     		movs	r1, #28
 306 008e 0223     		movs	r3, #2
 307 0090 FFF7FEFF 		bl	i2cMasterTransmitTimeout
 308              	.LVL29:
 309 0094 0546     		mov	r5, r0
 310              	.LVL30:
 311              		.loc 1 144 0
 312 0096 40F20000 		movw	r0, #:lower16:I2CD2
 313              	.LVL31:
 314 009a C0F20000 		movt	r0, #:upper16:I2CD2
 315 009e FFF7FEFF 		bl	i2cReleaseBus
 316              	.LVL32:
 317              		.loc 1 146 0
 318 00a2 002D     		cmp	r5, #0
 319 00a4 40F08D80 		bne	.L34
 320 00a8 40F20003 		movw	r3, #:lower16:.LANCHOR3
 321 00ac C0F20003 		movt	r3, #:upper16:.LANCHOR3
 322 00b0 0593     		str	r3, [sp, #20]
 323              	.L26:
 324 00b2 40F20009 		movw	r9, #:lower16:.LANCHOR4
 325 00b6 40F20008 		movw	r8, #:lower16:.LANCHOR5
 326 00ba C0F20009 		movt	r9, #:upper16:.LANCHOR4
 327 00be 40F20005 		movw	r5, #:lower16:.LANCHOR6
 328              	.LVL33:
 329              		.loc 1 154 0
 330 00c2 4FF48066 		mov	r6, #1024
 331 00c6 C0F20008 		movt	r8, #:upper16:.LANCHOR5
 332              		.loc 1 166 0
 333 00ca CB46     		mov	fp, r9
 334 00cc C0F20005 		movt	r5, #:upper16:.LANCHOR6
 335              		.loc 1 154 0
 336 00d0 C4F20206 		movt	r6, 16386
 337 00d4 5746     		mov	r7, r10
 338 00d6 3EE0     		b	.L28
 339              	.LVL34:
 340              	.L27:
 341              	.LBB22:
ARM GAS  /tmp/ccmPRfAK.s 			page 7


 342              	.LBB23:
 343              		.loc 1 94 0
 344 00d8 A078     		ldrb	r0, [r4, #2]	@ zero_extendqisi2
 345 00da E278     		ldrb	r2, [r4, #3]	@ zero_extendqisi2
 346              	.LBE23:
 347              	.LBE22:
 348              	.LBB25:
 349              	.LBB26:
 350 00dc 94F800C0 		ldrb	ip, [r4]	@ zero_extendqisi2
 351              	.LBE26:
 352              	.LBE25:
 353              	.LBB29:
 354              	.LBB30:
 355 00e0 94F804E0 		ldrb	lr, [r4, #4]	@ zero_extendqisi2
 356              	.LBE30:
 357              	.LBE29:
 358              	.LBB33:
 359              	.LBB27:
 360 00e4 6178     		ldrb	r1, [r4, #1]	@ zero_extendqisi2
 361              	.LBE27:
 362              	.LBE33:
 363              	.LBB34:
 364              	.LBB31:
 365 00e6 6379     		ldrb	r3, [r4, #5]	@ zero_extendqisi2
 366              	.LBE31:
 367              	.LBE34:
 368              	.LBB35:
 369              	.LBB24:
 370 00e8 02EB0022 		add	r2, r2, r0, lsl #8
 371              	.LBE24:
 372              	.LBE35:
 373              		.loc 1 170 0
 374 00ec 40F20000 		movw	r0, #:lower16:.LC0
 375              	.LBB36:
 376              	.LBB28:
 377              		.loc 1 94 0
 378 00f0 01EB0C21 		add	r1, r1, ip, lsl #8
 379              	.LBE28:
 380              	.LBE36:
 381              	.LBB37:
 382              	.LBB32:
 383 00f4 03EB0E23 		add	r3, r3, lr, lsl #8
 384              	.LBE32:
 385              	.LBE37:
 386              		.loc 1 170 0
 387 00f8 C0F20000 		movt	r0, #:upper16:.LC0
 388              		.loc 1 166 0
 389 00fc A9F80010 		strh	r1, [r9]	@ movhi
 390              	.LVL35:
 391              		.loc 1 167 0
 392 0100 A8F80020 		strh	r2, [r8]	@ movhi
 393              	.LVL36:
 394              		.loc 1 168 0
 395 0104 2B80     		strh	r3, [r5]	@ movhi
 396              		.loc 1 170 0
 397 0106 FFF7FEFF 		bl	print
 398              	.LVL37:
ARM GAS  /tmp/ccmPRfAK.s 			page 8


 399              		.loc 1 171 0
 400 010a BBF90000 		ldrsh	r0, [fp]
 401 010e FFF7FEFF 		bl	printn
 402              	.LVL38:
 403              		.loc 1 172 0
 404 0112 40F20000 		movw	r0, #:lower16:.LC1
 405 0116 C0F20000 		movt	r0, #:upper16:.LC1
 406 011a FFF7FEFF 		bl	print
 407              	.LVL39:
 408              		.loc 1 173 0
 409 011e 40F20003 		movw	r3, #:lower16:.LANCHOR5
 410 0122 C0F20003 		movt	r3, #:upper16:.LANCHOR5
 411 0126 B3F90000 		ldrsh	r0, [r3]
 412 012a FFF7FEFF 		bl	printn
 413              	.LVL40:
 414              		.loc 1 174 0
 415 012e 40F20000 		movw	r0, #:lower16:.LC2
 416 0132 C0F20000 		movt	r0, #:upper16:.LC2
 417 0136 FFF7FEFF 		bl	print
 418              	.LVL41:
 419              		.loc 1 175 0
 420 013a B5F90000 		ldrsh	r0, [r5]
 421 013e FFF7FEFF 		bl	printn
 422              	.LVL42:
 423              	.LBB38:
 424              	.LBB39:
 425              		.loc 1 62 0
 426 0142 40F20001 		movw	r1, #:lower16:.LC3
 427 0146 C0F20001 		movt	r1, #:upper16:.LC3
 428 014a 2448     		ldr	r0, .L35
 429 014c 0222     		movs	r2, #2
 430 014e 4FF0FF33 		mov	r3, #-1
 431 0152 FFF7FEFF 		bl	chOQWriteTimeout
 432              	.LVL43:
 433              	.L28:
 434              	.LBE39:
 435              	.LBE38:
 436              		.loc 1 154 0
 437 0156 7369     		ldr	r3, [r6, #20]
 438 0158 83F48073 		eor	r3, r3, #256
 439 015c 7361     		str	r3, [r6, #20]
 440              		.loc 1 155 0
 441 015e 6420     		movs	r0, #100
 442 0160 FFF7FEFF 		bl	chThdSleep
 443              	.LVL44:
 444              		.loc 1 158 0
 445 0164 40F20000 		movw	r0, #:lower16:I2CD2
 446              		.loc 1 157 0
 447 0168 4FF0010A 		mov	r10, #1
 448              		.loc 1 158 0
 449 016c C0F20000 		movt	r0, #:upper16:I2CD2
 450              		.loc 1 157 0
 451 0170 87F800A0 		strb	r10, [r7]
 452              		.loc 1 158 0
 453 0174 FFF7FEFF 		bl	i2cAcquireBus
 454              	.LVL45:
 455              		.loc 1 159 0
ARM GAS  /tmp/ccmPRfAK.s 			page 9


 456 0178 4FF0060E 		mov	lr, #6
 457 017c 0421     		movs	r1, #4
 458 017e 40F20000 		movw	r0, #:lower16:I2CD2
 459 0182 40F20002 		movw	r2, #:lower16:.LANCHOR1
 460 0186 5346     		mov	r3, r10
 461 0188 0291     		str	r1, [sp, #8]
 462 018a 8DE81040 		stmia	sp, {r4, lr}
 463 018e C0F20000 		movt	r0, #:upper16:I2CD2
 464 0192 C0F20002 		movt	r2, #:upper16:.LANCHOR1
 465 0196 1C21     		movs	r1, #28
 466 0198 FFF7FEFF 		bl	i2cMasterTransmitTimeout
 467              	.LVL46:
 468 019c 8246     		mov	r10, r0
 469              	.LVL47:
 470              		.loc 1 160 0
 471 019e 40F20000 		movw	r0, #:lower16:I2CD2
 472              	.LVL48:
 473 01a2 C0F20000 		movt	r0, #:upper16:I2CD2
 474 01a6 FFF7FEFF 		bl	i2cReleaseBus
 475              	.LVL49:
 476              		.loc 1 162 0
 477 01aa BAF1000F 		cmp	r10, #0
 478 01ae 93D0     		beq	.L27
 479              		.loc 1 163 0
 480 01b0 40F20000 		movw	r0, #:lower16:I2CD2
 481 01b4 C0F20000 		movt	r0, #:upper16:I2CD2
 482 01b8 FFF7FEFF 		bl	i2cGetErrors
 483              	.LVL50:
 484 01bc 059B     		ldr	r3, [sp, #20]
 485 01be 1860     		str	r0, [r3]
 486 01c0 8AE7     		b	.L27
 487              	.LVL51:
 488              	.L34:
 489              		.loc 1 147 0
 490 01c2 40F20000 		movw	r0, #:lower16:I2CD2
 491 01c6 C0F20000 		movt	r0, #:upper16:I2CD2
 492 01ca FFF7FEFF 		bl	i2cGetErrors
 493              	.LVL52:
 494 01ce 40F20003 		movw	r3, #:lower16:.LANCHOR3
 495 01d2 C0F20003 		movt	r3, #:upper16:.LANCHOR3
 496 01d6 0593     		str	r3, [sp, #20]
 497 01d8 1860     		str	r0, [r3]
 498 01da 6AE7     		b	.L26
 499              	.L36:
 500              		.align	2
 501              	.L35:
 502 01dc 30000000 		.word	SD2+48
 503              		.cfi_endproc
 504              	.LFE115:
 505              		.size	main, .-main
 506              		.section	.bss.errors,"aw",%nobits
 507              		.align	2
 508              		.set	.LANCHOR3,. + 0
 509              		.type	errors, %object
 510              		.size	errors, 4
 511              	errors:
 512 0000 00000000 		.space	4
ARM GAS  /tmp/ccmPRfAK.s 			page 10


 513              		.section	.bss.rxbuf,"aw",%nobits
 514              		.align	2
 515              		.set	.LANCHOR2,. + 0
 516              		.type	rxbuf, %object
 517              		.size	rxbuf, 6
 518              	rxbuf:
 519 0000 00000000 		.space	6
 519      0000
 520 0006 0000     		.section	.bss.acceleration_z,"aw",%nobits
 521              		.align	1
 522              		.set	.LANCHOR6,. + 0
 523              		.type	acceleration_z, %object
 524              		.size	acceleration_z, 2
 525              	acceleration_z:
 526 0000 0000     		.space	2
 527              		.section	.bss.txbuf,"aw",%nobits
 528              		.align	2
 529              		.set	.LANCHOR1,. + 0
 530              		.type	txbuf, %object
 531              		.size	txbuf, 4
 532              	txbuf:
 533 0000 00000000 		.space	4
 534              		.section	.bss.acceleration_x,"aw",%nobits
 535              		.align	1
 536              		.set	.LANCHOR4,. + 0
 537              		.type	acceleration_x, %object
 538              		.size	acceleration_x, 2
 539              	acceleration_x:
 540 0000 0000     		.space	2
 541              		.section	.bss.acceleration_y,"aw",%nobits
 542              		.align	1
 543              		.set	.LANCHOR5,. + 0
 544              		.type	acceleration_y, %object
 545              		.size	acceleration_y, 2
 546              	acceleration_y:
 547 0000 0000     		.space	2
 548              		.section	.rodata.i2cfg2,"a",%progbits
 549              		.align	2
 550              		.set	.LANCHOR0,. + 0
 551              		.type	i2cfg2, %object
 552              		.size	i2cfg2, 12
 553              	i2cfg2:
 554 0000 01       		.byte	1
 555 0001 000000   		.space	3
 556 0004 801A0600 		.word	400000
 557 0008 02       		.byte	2
 558 0009 000000   		.space	3
 559              		.section	.rodata.str1.4,"aMS",%progbits,1
 560              		.align	2
 561              	.LC0:
 562 0000 783A2000 		.ascii	"x: \000"
 563              	.LC1:
 564 0004 20793A20 		.ascii	" y: \000"
 564      00
 565 0009 000000   		.space	3
 566              	.LC2:
 567 000c 207A3A20 		.ascii	" z: \000"
ARM GAS  /tmp/ccmPRfAK.s 			page 11


 567      00
 568 0011 000000   		.space	3
 569              	.LC3:
 570 0014 0D0A00   		.ascii	"\015\012\000"
 571 0017 00       		.text
 572              	.Letext0:
 573              		.file 2 "/usr/lib/gcc/arm-none-eabi/4.8.2/include/stddef.h"
 574              		.file 3 "/usr/arm-none-eabi/include/machine/_default_types.h"
 575              		.file 4 "/usr/arm-none-eabi/include/stdint.h"
 576              		.file 5 "../../../os/ports/GCC/ARMCMx/chtypes.h"
 577              		.file 6 "../../../os/kernel/include/chlists.h"
 578              		.file 7 "../../../os/kernel/include/chthreads.h"
 579              		.file 8 "../../../os/ports/GCC/ARMCMx/chcore_v7m.h"
 580              		.file 9 "../../../os/kernel/include/chmtx.h"
 581              		.file 10 "../../../os/kernel/include/chevents.h"
 582              		.file 11 "../../../os/kernel/include/chqueues.h"
 583              		.file 12 "../../../os/hal/platforms/STM32F4xx/stm32f4xx.h"
 584              		.file 13 "../../../os/hal/platforms/STM32F4xx/stm32_dma.h"
 585              		.file 14 "../../../os/hal/platforms/STM32/GPIOv2/pal_lld.h"
 586              		.file 15 "../../../os/hal/include/i2c.h"
 587              		.file 16 "../../../os/hal/platforms/STM32/I2Cv1/i2c_lld.h"
 588              		.file 17 "../../../os/hal/include/serial.h"
 589              		.file 18 "../../../os/hal/platforms/STM32/USARTv1/serial_lld.h"
 590              		.file 19 "../../../os/ports/common/ARMCMx/CMSIS/include/core_cm4.h"
 591              		.file 20 "../../../os/hal/include/hal.h"
 592              		.file 21 "../../../os/kernel/include/chsys.h"