ARM GAS  /tmp/ccmPRfAK.s 			page 1


   1              		.syntax unified
   2              		.cpu cortex-m4
   3              		.fpu softvfp
   4              		.eabi_attribute 20, 1
   5              		.eabi_attribute 21, 1
   6              		.eabi_attribute 23, 3
   7              		.eabi_attribute 24, 1
   8              		.eabi_attribute 25, 1
   9              		.eabi_attribute 26, 1
  10              		.eabi_attribute 30, 2
  11              		.eabi_attribute 34, 1
  12              		.eabi_attribute 18, 4
  13              		.thumb
  14              		.file	"main.c"
  15              		.text
  16              	.Ltext0:
  17              		.cfi_sections	.debug_frame
  18              		.section	.text.print,"ax",%progbits
  19              		.align	2
  20              		.p2align 4,,15
  21              		.thumb
  22              		.thumb_func
  23              		.type	print, %function
  24              	print:
  25              	.LFB111:
  26              		.file 1 "main.c"
  27              		.loc 1 47 0
  28              		.cfi_startproc
  29              		@ args = 0, pretend = 0, frame = 0
  30              		@ frame_needed = 0, uses_anonymous_args = 0
  31              	.LVL0:
  32 0000 10B5     		push	{r4, lr}
  33              		.cfi_def_cfa_offset 8
  34              		.cfi_offset 4, -8
  35              		.cfi_offset 14, -4
  36              		.loc 1 49 0
  37 0002 0178     		ldrb	r1, [r0]	@ zero_extendqisi2
  38 0004 49B1     		cbz	r1, .L1
  39 0006 0446     		mov	r4, r0
  40              	.LVL1:
  41              	.L4:
  42              		.loc 1 50 0
  43 0008 0448     		ldr	r0, .L9
  44 000a 4FF0FF32 		mov	r2, #-1
  45 000e FFF7FEFF 		bl	chOQPutTimeout
  46              	.LVL2:
  47              		.loc 1 49 0
  48 0012 14F8011F 		ldrb	r1, [r4, #1]!	@ zero_extendqisi2
  49              	.LVL3:
  50 0016 0029     		cmp	r1, #0
  51 0018 F6D1     		bne	.L4
  52              	.LVL4:
  53              	.L1:
  54 001a 10BD     		pop	{r4, pc}
  55              	.L10:
  56              		.align	2
  57              	.L9:
ARM GAS  /tmp/ccmPRfAK.s 			page 2


  58 001c 30000000 		.word	SD2+48
  59              		.cfi_endproc
  60              	.LFE111:
  61              		.size	print, .-print
  62              		.section	.text.printn,"ax",%progbits
  63              		.align	2
  64              		.p2align 4,,15
  65              		.thumb
  66              		.thumb_func
  67              		.type	printn, %function
  68              	printn:
  69              	.LFB113:
  70              		.loc 1 68 0
  71              		.cfi_startproc
  72              		@ args = 0, pretend = 0, frame = 16
  73              		@ frame_needed = 0, uses_anonymous_args = 0
  74              	.LVL5:
  75 0000 30B5     		push	{r4, r5, lr}
  76              		.cfi_def_cfa_offset 12
  77              		.cfi_offset 4, -12
  78              		.cfi_offset 5, -8
  79              		.cfi_offset 14, -4
  80              		.loc 1 71 0
  81 0002 041E     		subs	r4, r0, #0
  82              		.loc 1 68 0
  83 0004 85B0     		sub	sp, sp, #20
  84              		.cfi_def_cfa_offset 32
  85              		.loc 1 72 0
  86 0006 2148     		ldr	r0, .L22
  87              	.LVL6:
  88              		.loc 1 71 0
  89 0008 2EDD     		ble	.L12
  90              		.loc 1 72 0
  91 000a 2B21     		movs	r1, #43
  92 000c 4FF0FF32 		mov	r2, #-1
  93 0010 FFF7FEFF 		bl	chOQPutTimeout
  94              	.LVL7:
  95              	.L13:
  96 0014 0DF10105 		add	r5, sp, #1
  97              		.loc 1 83 0 discriminator 1
  98 0018 46F26760 		movw	r0, #26215
  99 001c 2B46     		mov	r3, r5
 100 001e C6F26660 		movt	r0, 26214
 101              	.LVL8:
 102              	.L15:
 103              		.loc 1 83 0 is_stmt 0
 104 0022 80FB0421 		smull	r2, r1, r0, r4
 105 0026 E217     		asrs	r2, r4, #31
 106 0028 C2EBA102 		rsb	r2, r2, r1, asr #2
 107 002c 02EB8201 		add	r1, r2, r2, lsl #2
 108 0030 A4EB4101 		sub	r1, r4, r1, lsl #1
 109 0034 3031     		adds	r1, r1, #48
 110 0036 C9B2     		uxtb	r1, r1
 111 0038 14B2     		sxth	r4, r2
 112 003a 03F8011C 		strb	r1, [r3, #-1]
 113 003e 1A46     		mov	r2, r3
 114              	.LVL9:
ARM GAS  /tmp/ccmPRfAK.s 			page 3


 115 0040 0133     		adds	r3, r3, #1
 116              	.LVL10:
 117              		.loc 1 82 0 is_stmt 1
 118 0042 002C     		cmp	r4, #0
 119 0044 EDD1     		bne	.L15
 120              		.loc 1 84 0 discriminator 1
 121 0046 6B46     		mov	r3, sp
 122 0048 9A42     		cmp	r2, r3
 123 004a 0BD9     		bls	.L11
 124 004c 1446     		mov	r4, r2
 125 004e 02E0     		b	.L20
 126              	.LVL11:
 127              	.L21:
 128 0050 14F8021C 		ldrb	r1, [r4, #-2]	@ zero_extendqisi2
 129 0054 013C     		subs	r4, r4, #1
 130              	.LVL12:
 131              	.L20:
 132              		.loc 1 85 0
 133 0056 0D48     		ldr	r0, .L22
 134 0058 4FF0FF32 		mov	r2, #-1
 135 005c FFF7FEFF 		bl	chOQPutTimeout
 136              	.LVL13:
 137              		.loc 1 84 0
 138 0060 AC42     		cmp	r4, r5
 139 0062 F5D1     		bne	.L21
 140              	.LVL14:
 141              	.L11:
 142              		.loc 1 87 0
 143 0064 05B0     		add	sp, sp, #20
 144              		@ sp needed
 145 0066 30BD     		pop	{r4, r5, pc}
 146              	.LVL15:
 147              	.L12:
 148              		.loc 1 75 0
 149 0068 6442     		negs	r4, r4
 150              		.loc 1 74 0
 151 006a 2D21     		movs	r1, #45
 152 006c 4FF0FF32 		mov	r2, #-1
 153              		.loc 1 75 0
 154 0070 24B2     		sxth	r4, r4
 155              		.loc 1 74 0
 156 0072 FFF7FEFF 		bl	chOQPutTimeout
 157              	.LVL16:
 158              		.loc 1 78 0
 159 0076 002C     		cmp	r4, #0
 160 0078 CCD1     		bne	.L13
 161              	.LVL17:
 162              	.LBB10:
 163              	.LBB11:
 164              		.loc 1 79 0
 165 007a 0448     		ldr	r0, .L22
 166 007c 3021     		movs	r1, #48
 167 007e 4FF0FF32 		mov	r2, #-1
 168              	.LBE11:
 169              	.LBE10:
 170              		.loc 1 87 0
 171 0082 05B0     		add	sp, sp, #20
ARM GAS  /tmp/ccmPRfAK.s 			page 4


 172              		@ sp needed
 173 0084 BDE83040 		pop	{r4, r5, lr}
 174              	.LBB13:
 175              	.LBB12:
 176              		.loc 1 79 0
 177 0088 FFF7FEBF 		b	chOQPutTimeout
 178              	.LVL18:
 179              	.L23:
 180              		.align	2
 181              	.L22:
 182 008c 30000000 		.word	SD2+48
 183              	.LBE12:
 184              	.LBE13:
 185              		.cfi_endproc
 186              	.LFE113:
 187              		.size	printn, .-printn
 188              		.section	.text.complement2signed,"ax",%progbits
 189              		.align	2
 190              		.p2align 4,,15
 191              		.global	complement2signed
 192              		.thumb
 193              		.thumb_func
 194              		.type	complement2signed, %function
 195              	complement2signed:
 196              	.LFB114:
 197              		.loc 1 92 0
 198              		.cfi_startproc
 199              		@ args = 0, pretend = 0, frame = 0
 200              		@ frame_needed = 0, uses_anonymous_args = 0
 201              		@ link register save eliminated.
 202              	.LVL19:
 203              		.loc 1 94 0
 204 0000 01EB0020 		add	r0, r1, r0, lsl #8
 205              	.LVL20:
 206              		.loc 1 99 0
 207 0004 00B2     		sxth	r0, r0
 208 0006 7047     		bx	lr
 209              		.cfi_endproc
 210              	.LFE114:
 211              		.size	complement2signed, .-complement2signed
 212 0008 AFF30080 		.section	.text.startup.main,"ax",%progbits
 212      AFF30080 
 213              		.align	2
 214              		.p2align 4,,15
 215              		.global	main
 216              		.thumb
 217              		.thumb_func
 218              		.type	main, %function
 219              	main:
 220              	.LFB115:
 221              		.loc 1 111 0
 222              		.cfi_startproc
 223              		@ args = 0, pretend = 0, frame = 8
 224              		@ frame_needed = 0, uses_anonymous_args = 0
 225              	.LVL21:
 226 0000 2DE9F04F 		push	{r4, r5, r6, r7, r8, r9, r10, fp, lr}
 227              		.cfi_def_cfa_offset 36
ARM GAS  /tmp/ccmPRfAK.s 			page 5


 228              		.cfi_offset 4, -36
 229              		.cfi_offset 5, -32
 230              		.cfi_offset 6, -28
 231              		.cfi_offset 7, -24
 232              		.cfi_offset 8, -20
 233              		.cfi_offset 9, -16
 234              		.cfi_offset 10, -12
 235              		.cfi_offset 11, -8
 236              		.cfi_offset 14, -4
 237 0004 87B0     		sub	sp, sp, #28
 238              		.cfi_def_cfa_offset 64
 239              		.loc 1 122 0
 240 0006 FFF7FEFF 		bl	halInit
 241              	.LVL22:
 242              		.loc 1 123 0
 243 000a FFF7FEFF 		bl	chSysInit
 244              	.LVL23:
 245              		.loc 1 128 0
 246 000e 40F20000 		movw	r0, #:lower16:I2CD2
 247 0012 40F20001 		movw	r1, #:lower16:.LANCHOR0
 248 0016 C0F20000 		movt	r0, #:upper16:I2CD2
 249 001a C0F20001 		movt	r1, #:upper16:.LANCHOR0
 250 001e FFF7FEFF 		bl	i2cStart
 251              	.LVL24:
 252              		.loc 1 133 0
 253 0022 40F20000 		movw	r0, #:lower16:SD2
 254 0026 C0F20000 		movt	r0, #:upper16:SD2
 255 002a 0021     		movs	r1, #0
 256 002c FFF7FEFF 		bl	sdStart
 257              	.LVL25:
 258              		.loc 1 134 0
 259 0030 0020     		movs	r0, #0
 260 0032 C4F20200 		movt	r0, 16386
 261 0036 0421     		movs	r1, #4
 262 0038 40F28232 		movw	r2, #898
 263 003c FFF7FEFF 		bl	_pal_lld_setgroupmode
 264              	.LVL26:
 265              		.loc 1 135 0
 266 0040 0020     		movs	r0, #0
 267 0042 0821     		movs	r1, #8
 268 0044 C4F20200 		movt	r0, 16386
 269 0048 40F28232 		movw	r2, #898
 270              		.loc 1 140 0
 271 004c 40F2000A 		movw	r10, #:lower16:.LANCHOR1
 272              		.loc 1 135 0
 273 0050 FFF7FEFF 		bl	_pal_lld_setgroupmode
 274              	.LVL27:
 275              		.loc 1 140 0
 276 0054 C0F2000A 		movt	r10, #:upper16:.LANCHOR1
 277              		.loc 1 142 0
 278 0058 40F20000 		movw	r0, #:lower16:I2CD2
 279              		.loc 1 140 0
 280 005c 2A22     		movs	r2, #42
 281              		.loc 1 141 0
 282 005e 0123     		movs	r3, #1
 283              		.loc 1 142 0
 284 0060 C0F20000 		movt	r0, #:upper16:I2CD2
ARM GAS  /tmp/ccmPRfAK.s 			page 6


 285              		.loc 1 143 0
 286 0064 40F20004 		movw	r4, #:lower16:.LANCHOR2
 287              		.loc 1 140 0
 288 0068 8AF80020 		strb	r2, [r10]
 289              		.loc 1 141 0
 290 006c 8AF80130 		strb	r3, [r10, #1]
 291              		.loc 1 143 0
 292 0070 C0F20004 		movt	r4, #:upper16:.LANCHOR2
 293              		.loc 1 142 0
 294 0074 FFF7FEFF 		bl	i2cAcquireBus
 295              	.LVL28:
 296              		.loc 1 143 0
 297 0078 0021     		movs	r1, #0
 298 007a 0423     		movs	r3, #4
 299 007c 40F20000 		movw	r0, #:lower16:I2CD2
 300 0080 0191     		str	r1, [sp, #4]
 301 0082 0293     		str	r3, [sp, #8]
 302 0084 5246     		mov	r2, r10
 303 0086 0094     		str	r4, [sp]
 304 0088 C0F20000 		movt	r0, #:upper16:I2CD2
 305 008c 1C21     		movs	r1, #28
 306 008e 0223     		movs	r3, #2
 307 0090 FFF7FEFF 		bl	i2cMasterTransmitTimeout
 308              	.LVL29:
 309 0094 0546     		mov	r5, r0
 310              	.LVL30:
 311              		.loc 1 144 0
 312 0096 40F20000 		movw	r0, #:lower16:I2CD2
 313              	.LVL31:
 314 009a C0F20000 		movt	r0, #:upper16:I2CD2
 315 009e FFF7FEFF 		bl	i2cReleaseBus
 316              	.LVL32:
 317              		.loc 1 146 0
 318 00a2 002D     		cmp	r5, #0
 319 00a4 40F08D80 		bne	.L34
 320 00a8 40F20003 		movw	r3, #:lower16:.LANCHOR3
 321 00ac C0F20003 		movt	r3, #:upper16:.LANCHOR3
 322 00b0 0593     		str	r3, [sp, #20]
 323              	.L26:
 324 00b2 40F20009 		movw	r9, #:lower16:.LANCHOR4
 325 00b6 40F20008 		movw	r8, #:lower16:.LANCHOR5
 326 00ba C0F20009 		movt	r9, #:upper16:.LANCHOR4
 327 00be 40F20005 		movw	r5, #:lower16:.LANCHOR6
 328              	.LVL33:
 329              		.loc 1 154 0
 330 00c2 4FF48066 		mov	r6, #1024
 331 00c6 C0F20008 		movt	r8, #:upper16:.LANCHOR5
 332              		.loc 1 166 0
 333 00ca CB46     		mov	fp, r9
 334 00cc C0F20005 		movt	r5, #:upper16:.LANCHOR6
 335              		.loc 1 154 0
 336 00d0 C4F20206 		movt	r6, 16386
 337 00d4 5746     		mov	r7, r10
 338 00d6 3EE0     		b	.L28
 339              	.LVL34:
 340              	.L27:
 341              	.LBB22:
ARM GAS  /tmp/ccmPRfAK.s 			page 7


 342              	.LBB23:
 343              		.loc 1 94 0
 344 00d8 A078     		ldrb	r0, [r4, #2]	@ zero_extendqisi2
 345 00da E278     		ldrb	r2, [r4, #3]	@ zero_extendqisi2
 346              	.LBE23:
 347              	.LBE22:
 348              	.LBB25:
 349              	.LBB26:
 350 00dc 94F800C0 		ldrb	ip, [r4]	@ zero_extendqisi2
 351              	.LBE26:
 352              	.LBE25:
 353              	.LBB29:
 354              	.LBB30:
 355 00e0 94F804E0 		ldrb	lr, [r4, #4]	@ zero_extendqisi2
 356              	.LBE30:
 357              	.LBE29:
 358              	.LBB33:
 359              	.LBB27:
 360 00e4 6178     		ldrb	r1, [r4, #1]	@ zero_extendqisi2
 361              	.LBE27:
 362              	.LBE33:
 363              	.LBB34:
 364              	.LBB31:
 365 00e6 6379     		ldrb	r3, [r4, #5]	@ zero_extendqisi2
 366              	.LBE31:
 367              	.LBE34:
 368              	.LBB35:
 369              	.LBB24:
 370 00e8 02EB0022 		add	r2, r2, r0, lsl #8
 371              	.LBE24:
 372              	.LBE35:
 373              		.loc 1 170 0
 374 00ec 40F20000 		movw	r0, #:lower16:.LC0
 375              	.LBB36:
 376              	.LBB28:
 377              		.loc 1 94 0
 378 00f0 01EB0C21 		add	r1, r1, ip, lsl #8
 379              	.LBE28:
 380              	.LBE36:
 381              	.LBB37:
 382              	.LBB32:
 383 00f4 03EB0E23 		add	r3, r3, lr, lsl #8
 384              	.LBE32:
 385              	.LBE37:
 386              		.loc 1 170 0
 387 00f8 C0F20000 		movt	r0, #:upper16:.LC0
 388              		.loc 1 166 0
 389 00fc A9F80010 		strh	r1, [r9]	@ movhi
 390              	.LVL35:
 391              		.loc 1 167 0
 392 0100 A8F80020 		strh	r2, [r8]	@ movhi
 393              	.LVL36:
 394              		.loc 1 168 0
 395 0104 2B80     		strh	r3, [r5]	@ movhi
 396              		.loc 1 170 0
 397 0106 FFF7FEFF 		bl	print
 398              	.LVL37:
ARM GAS  /tmp/ccmPRfAK.s 			page 8


 399              		.loc 1 171 0
 400 010a BBF90000 		ldrsh	r0, [fp]
 401 010e FFF7FEFF 		bl	printn
 402              	.LVL38:
 403              		.loc 1 172 0
 404 0112 40F20000 		movw	r0, #:lower16:.LC1
 405 0116 C0F20000 		movt	r0, #:upper16:.LC1
 406 011a FFF7FEFF 		bl	print
 407              	.LVL39:
 408              		.loc 1 173 0
 409 011e 40F20003 		movw	r3, #:lower16:.LANCHOR5
 410 0122 C0F20003 		movt	r3, #:upper16:.LANCHOR5
 411 0126 B3F90000 		ldrsh	r0, [r3]
 412 012a FFF7FEFF 		bl	printn
 413              	.LVL40:
 414              		.loc 1 174 0
 415 012e 40F20000 		movw	r0, #:lower16:.LC2
 416 0132 C0F20000 		movt	r0, #:upper16:.LC2
 417 0136 FFF7FEFF 		bl	print
 418              	.LVL41:
 419              		.loc 1 175 0
 420 013a B5F90000 		ldrsh	r0, [r5]
 421 013e FFF7FEFF 		bl	printn
 422              	.LVL42:
 423              	.LBB38:
 424              	.LBB39:
 425              		.loc 1 62 0
 426 0142 40F20001 		movw	r1, #:lower16:.LC3
 427 0146 C0F20001 		movt	r1, #:upper16:.LC3
 428 014a 2448     		ldr	r0, .L35
 429 014c 0222     		movs	r2, #2
 430 014e 4FF0FF33 		mov	r3, #-1
 431 0152 FFF7FEFF 		bl	chOQWriteTimeout
 432              	.LVL43:
 433              	.L28:
 434              	.LBE39:
 435              	.LBE38:
 436              		.loc 1 154 0
 437 0156 7369     		ldr	r3, [r6, #20]
 438 0158 83F48073 		eor	r3, r3, #256
 439 015c 7361     		str	r3, [r6, #20]
 440              		.loc 1 155 0
 441 015e 6420     		movs	r0, #100
 442 0160 FFF7FEFF 		bl	chThdSleep
 443              	.LVL44:
 444              		.loc 1 158 0
 445 0164 40F20000 		movw	r0, #:lower16:I2CD2
 446              		.loc 1 157 0
 447 0168 4FF0010A 		mov	r10, #1
 448              		.loc 1 158 0
 449 016c C0F20000 		movt	r0, #:upper16:I2CD2
 450              		.loc 1 157 0
 451 0170 87F800A0 		strb	r10, [r7]
 452              		.loc 1 158 0
 453 0174 FFF7FEFF 		bl	i2cAcquireBus
 454              	.LVL45:
 455              		.loc 1 159 0
ARM GAS  /tmp/ccmPRfAK.s 			page 9


 456 0178 4FF0060E 		mov	lr, #6
 457 017c 0421     		movs	r1, #4
 458 017e 40F20000 		movw	r0, #:lower16:I2CD2
 459 0182 40F20002 		movw	r2, #:lower16:.LANCHOR1
 460 0186 5346     		mov	r3, r10
 461 0188 0291     		str	r1, [sp, #8]
 462 018a 8DE81040 		stmia	sp, {r4, lr}
 463 018e C0F20000 		movt	r0, #:upper16:I2CD2
 464 0192 C0F20002 		movt	r2, #:upper16:.LANCHOR1
 465 0196 1C21     		movs	r1, #28
 466 0198 FFF7FEFF 		bl	i2cMasterTransmitTimeout
 467              	.LVL46:
 468 019c 8246     		mov	r10, r0
 469              	.LVL47:
 470              		.loc 1 160 0
 471 019e 40F20000 		movw	r0, #:lower16:I2CD2
 472              	.LVL48:
 473 01a2 C0F20000 		movt	r0, #:upper16:I2CD2
 474 01a6 FFF7FEFF 		bl	i2cReleaseBus
 475              	.LVL49:
 476              		.loc 1 162 0
 477 01aa BAF1000F 		cmp	r10, #0
 478 01ae 93D0     		beq	.L27
 479              		.loc 1 163 0
 480 01b0 40F20000 		movw	r0, #:lower16:I2CD2
 481 01b4 C0F20000 		movt	r0, #:upper16:I2CD2
 482 01b8 FFF7FEFF 		bl	i2cGetErrors
 483              	.LVL50:
 484 01bc 059B     		ldr	r3, [sp, #20]
 485 01be 1860     		str	r0, [r3]
 486 01c0 8AE7     		b	.L27
 487              	.LVL51:
 488              	.L34:
 489              		.loc 1 147 0
 490 01c2 40F20000 		movw	r0, #:lower16:I2CD2
 491 01c6 C0F20000 		movt	r0, #:upper16:I2CD2
 492 01ca FFF7FEFF 		bl	i2cGetErrors
 493              	.LVL52:
 494 01ce 40F20003 		movw	r3, #:lower16:.LANCHOR3
 495 01d2 C0F20003 		movt	r3, #:upper16:.LANCHOR3
 496 01d6 0593     		str	r3, [sp, #20]
 497 01d8 1860     		str	r0, [r3]
 498 01da 6AE7     		b	.L26
 499              	.L36:
 500              		.align	2
 501              	.L35:
 502 01dc 30000000 		.word	SD2+48
 503              		.cfi_endproc
 504              	.LFE115:
 505              		.size	main, .-main
 506              		.section	.bss.errors,"aw",%nobits
 507              		.align	2
 508              		.set	.LANCHOR3,. + 0
 509              		.type	errors, %object
 510              		.size	errors, 4
 511              	errors:
 512 0000 00000000 		.space	4
ARM GAS  /tmp/ccmPRfAK.s 			page 10


 513              		.section	.bss.rxbuf,"aw",%nobits
 514              		.align	2
 515              		.set	.LANCHOR2,. + 0
 516              		.type	rxbuf, %object
 517              		.size	rxbuf, 6
 518              	rxbuf:
 519 0000 00000000 		.space	6
 519      0000
 520 0006 0000     		.section	.bss.acceleration_z,"aw",%nobits
 521              		.align	1
 522              		.set	.LANCHOR6,. + 0
 523              		.type	acceleration_z, %object
 524              		.size	acceleration_z, 2
 525              	acceleration_z:
 526 0000 0000     		.space	2
 527              		.section	.bss.txbuf,"aw",%nobits
 528              		.align	2
 529              		.set	.LANCHOR1,. + 0
 530              		.type	txbuf, %object
 531              		.size	txbuf, 4
 532              	txbuf:
 533 0000 00000000 		.space	4
 534              		.section	.bss.acceleration_x,"aw",%nobits
 535              		.align	1
 536              		.set	.LANCHOR4,. + 0
 537              		.type	acceleration_x, %object
 538              		.size	acceleration_x, 2
 539              	acceleration_x:
 540 0000 0000     		.space	2
 541              		.section	.bss.acceleration_y,"aw",%nobits
 542              		.align	1
 543              		.set	.LANCHOR5,. + 0
 544              		.type	acceleration_y, %object
 545              		.size	acceleration_y, 2
 546              	acceleration_y:
 547 0000 0000     		.space	2
 548              		.section	.rodata.i2cfg2,"a",%progbits
 549              		.align	2
 550              		.set	.LANCHOR0,. + 0
 551              		.type	i2cfg2, %object
 552              		.size	i2cfg2, 12
 553              	i2cfg2:
 554 0000 01       		.byte	1
 555 0001 000000   		.space	3
 556 0004 801A0600 		.word	400000
 557 0008 02       		.byte	2
 558 0009 000000   		.space	3
 559              		.section	.rodata.str1.4,"aMS",%progbits,1
 560              		.align	2
 561              	.LC0:
 562 0000 783A2000 		.ascii	"x: \000"
 563              	.LC1:
 564 0004 20793A20 		.ascii	" y: \000"
 564      00
 565 0009 000000   		.space	3
 566              	.LC2:
 567 000c 207A3A20 		.ascii	" z: \000"
ARM GAS  /tmp/ccmPRfAK.s 			page 11


 567      00
 568 0011 000000   		.space	3
 569              	.LC3:
 570 0014 0D0A00   		.ascii	"\015\012\000"
 571 0017 00       		.text
 572              	.Letext0:
 573              		.file 2 "/usr/lib/gcc/arm-none-eabi/4.8.2/include/stddef.h"
 574              		.file 3 "/usr/arm-none-eabi/include/machine/_default_types.h"
 575              		.file 4 "/usr/arm-none-eabi/include/stdint.h"
 576              		.file 5 "../../../os/ports/GCC/ARMCMx/chtypes.h"
 577              		.file 6 "../../../os/kernel/include/chlists.h"
 578              		.file 7 "../../../os/kernel/include/chthreads.h"
 579              		.file 8 "../../../os/ports/GCC/ARMCMx/chcore_v7m.h"
 580              		.file 9 "../../../os/kernel/include/chmtx.h"
 581              		.file 10 "../../../os/kernel/include/chevents.h"
 582              		.file 11 "../../../os/kernel/include/chqueues.h"
 583              		.file 12 "../../../os/hal/platforms/STM32F4xx/stm32f4xx.h"
 584              		.file 13 "../../../os/hal/platforms/STM32F4xx/stm32_dma.h"
 585              		.file 14 "../../../os/hal/platforms/STM32/GPIOv2/pal_lld.h"
 586              		.file 15 "../../../os/hal/include/i2c.h"
 587              		.file 16 "../../../os/hal/platforms/STM32/I2Cv1/i2c_lld.h"
 588              		.file 17 "../../../os/hal/include/serial.h"
 589              		.file 18 "../../../os/hal/platforms/STM32/USARTv1/serial_lld.h"
 590              		.file 19 "../../../os/ports/common/ARMCMx/CMSIS/include/core_cm4.h"
 591              		.file 20 "../../../os/hal/include/hal.h"
 592              		.file 21 "../../../os/kernel/include/chsys.h"
 593              		.section	.debug_info,"",%progbits
 594              	.Ldebug_info0:
 595 0000 BF120000 		.4byte	0x12bf
 596 0004 0400     		.2byte	0x4
 597 0006 00000000 		.4byte	.Ldebug_abbrev0
 598 000a 04       		.byte	0x4
 599 000b 01       		.uleb128 0x1
 600 000c 93000000 		.4byte	.LASF198
 601 0010 01       		.byte	0x1
 602 0011 DE040000 		.4byte	.LASF199
 603 0015 28030000 		.4byte	.LASF200
 604 0019 70000000 		.4byte	.Ldebug_ranges0+0x70
 605 001d 00000000 		.4byte	0
 606 0021 00000000 		.4byte	.Ldebug_line0
 607 0025 02       		.uleb128 0x2
 608 0026 43000000 		.4byte	.LASF2
 609 002a 02       		.byte	0x2
 610 002b D4       		.byte	0xd4
 611 002c 30000000 		.4byte	0x30
 612 0030 03       		.uleb128 0x3
 613 0031 04       		.byte	0x4
 614 0032 07       		.byte	0x7
 615 0033 BF020000 		.4byte	.LASF0
 616 0037 04       		.uleb128 0x4
 617 0038 04       		.byte	0x4
 618 0039 05       		.byte	0x5
 619 003a 696E7400 		.ascii	"int\000"
 620 003e 03       		.uleb128 0x3
 621 003f 01       		.byte	0x1
 622 0040 06       		.byte	0x6
 623 0041 C0010000 		.4byte	.LASF1
ARM GAS  /tmp/ccmPRfAK.s 			page 12


 624 0045 02       		.uleb128 0x2
 625 0046 6D000000 		.4byte	.LASF3
 626 004a 03       		.byte	0x3
 627 004b 1C       		.byte	0x1c
 628 004c 50000000 		.4byte	0x50
 629 0050 03       		.uleb128 0x3
 630 0051 01       		.byte	0x1
 631 0052 08       		.byte	0x8
 632 0053 B9050000 		.4byte	.LASF4
 633 0057 02       		.uleb128 0x2
 634 0058 8F020000 		.4byte	.LASF5
 635 005c 03       		.byte	0x3
 636 005d 25       		.byte	0x25
 637 005e 62000000 		.4byte	0x62
 638 0062 03       		.uleb128 0x3
 639 0063 02       		.byte	0x2
 640 0064 05       		.byte	0x5
 641 0065 05040000 		.4byte	.LASF6
 642 0069 02       		.uleb128 0x2
 643 006a 1F070000 		.4byte	.LASF7
 644 006e 03       		.byte	0x3
 645 006f 26       		.byte	0x26
 646 0070 74000000 		.4byte	0x74
 647 0074 03       		.uleb128 0x3
 648 0075 02       		.byte	0x2
 649 0076 07       		.byte	0x7
 650 0077 91030000 		.4byte	.LASF8
 651 007b 02       		.uleb128 0x2
 652 007c 46070000 		.4byte	.LASF9
 653 0080 03       		.byte	0x3
 654 0081 37       		.byte	0x37
 655 0082 86000000 		.4byte	0x86
 656 0086 03       		.uleb128 0x3
 657 0087 04       		.byte	0x4
 658 0088 05       		.byte	0x5
 659 0089 00020000 		.4byte	.LASF10
 660 008d 02       		.uleb128 0x2
 661 008e 71020000 		.4byte	.LASF11
 662 0092 03       		.byte	0x3
 663 0093 38       		.byte	0x38
 664 0094 98000000 		.4byte	0x98
 665 0098 03       		.uleb128 0x3
 666 0099 04       		.byte	0x4
 667 009a 07       		.byte	0x7
 668 009b E2060000 		.4byte	.LASF12
 669 009f 03       		.uleb128 0x3
 670 00a0 08       		.byte	0x8
 671 00a1 05       		.byte	0x5
 672 00a2 B2010000 		.4byte	.LASF13
 673 00a6 02       		.uleb128 0x2
 674 00a7 12050000 		.4byte	.LASF14
 675 00ab 03       		.byte	0x3
 676 00ac 4E       		.byte	0x4e
 677 00ad B1000000 		.4byte	0xb1
 678 00b1 03       		.uleb128 0x3
 679 00b2 08       		.byte	0x8
 680 00b3 07       		.byte	0x7
ARM GAS  /tmp/ccmPRfAK.s 			page 13


 681 00b4 36010000 		.4byte	.LASF15
 682 00b8 03       		.uleb128 0x3
 683 00b9 04       		.byte	0x4
 684 00ba 07       		.byte	0x7
 685 00bb 5C040000 		.4byte	.LASF16
 686 00bf 05       		.uleb128 0x5
 687 00c0 04       		.byte	0x4
 688 00c1 06       		.uleb128 0x6
 689 00c2 04       		.byte	0x4
 690 00c3 C7000000 		.4byte	0xc7
 691 00c7 03       		.uleb128 0x3
 692 00c8 01       		.byte	0x1
 693 00c9 08       		.byte	0x8
 694 00ca F9060000 		.4byte	.LASF17
 695 00ce 06       		.uleb128 0x6
 696 00cf 04       		.byte	0x4
 697 00d0 D4000000 		.4byte	0xd4
 698 00d4 07       		.uleb128 0x7
 699 00d5 C7000000 		.4byte	0xc7
 700 00d9 02       		.uleb128 0x2
 701 00da E4070000 		.4byte	.LASF18
 702 00de 04       		.byte	0x4
 703 00df 2A       		.byte	0x2a
 704 00e0 45000000 		.4byte	0x45
 705 00e4 02       		.uleb128 0x2
 706 00e5 39080000 		.4byte	.LASF19
 707 00e9 04       		.byte	0x4
 708 00ea 35       		.byte	0x35
 709 00eb 57000000 		.4byte	0x57
 710 00ef 02       		.uleb128 0x2
 711 00f0 E4030000 		.4byte	.LASF20
 712 00f4 04       		.byte	0x4
 713 00f5 36       		.byte	0x36
 714 00f6 69000000 		.4byte	0x69
 715 00fa 02       		.uleb128 0x2
 716 00fb B1050000 		.4byte	.LASF21
 717 00ff 04       		.byte	0x4
 718 0100 41       		.byte	0x41
 719 0101 7B000000 		.4byte	0x7b
 720 0105 02       		.uleb128 0x2
 721 0106 B0070000 		.4byte	.LASF22
 722 010a 04       		.byte	0x4
 723 010b 42       		.byte	0x42
 724 010c 8D000000 		.4byte	0x8d
 725 0110 02       		.uleb128 0x2
 726 0111 51000000 		.4byte	.LASF23
 727 0115 04       		.byte	0x4
 728 0116 4E       		.byte	0x4e
 729 0117 A6000000 		.4byte	0xa6
 730 011b 03       		.uleb128 0x3
 731 011c 01       		.byte	0x1
 732 011d 02       		.byte	0x2
 733 011e AB050000 		.4byte	.LASF24
 734 0122 02       		.uleb128 0x2
 735 0123 DC030000 		.4byte	.LASF25
 736 0127 05       		.byte	0x5
 737 0128 2C       		.byte	0x2c
ARM GAS  /tmp/ccmPRfAK.s 			page 14


 738 0129 D9000000 		.4byte	0xd9
 739 012d 02       		.uleb128 0x2
 740 012e 09020000 		.4byte	.LASF26
 741 0132 05       		.byte	0x5
 742 0133 2D       		.byte	0x2d
 743 0134 D9000000 		.4byte	0xd9
 744 0138 02       		.uleb128 0x2
 745 0139 8A050000 		.4byte	.LASF27
 746 013d 05       		.byte	0x5
 747 013e 30       		.byte	0x30
 748 013f 05010000 		.4byte	0x105
 749 0143 02       		.uleb128 0x2
 750 0144 BA030000 		.4byte	.LASF28
 751 0148 05       		.byte	0x5
 752 0149 31       		.byte	0x31
 753 014a FA000000 		.4byte	0xfa
 754 014e 02       		.uleb128 0x2
 755 014f F9030000 		.4byte	.LASF29
 756 0153 05       		.byte	0x5
 757 0154 33       		.byte	0x33
 758 0155 05010000 		.4byte	0x105
 759 0159 02       		.uleb128 0x2
 760 015a 78060000 		.4byte	.LASF30
 761 015e 05       		.byte	0x5
 762 015f 34       		.byte	0x34
 763 0160 05010000 		.4byte	0x105
 764 0164 02       		.uleb128 0x2
 765 0165 31070000 		.4byte	.LASF31
 766 0169 05       		.byte	0x5
 767 016a 35       		.byte	0x35
 768 016b 05010000 		.4byte	0x105
 769 016f 02       		.uleb128 0x2
 770 0170 61060000 		.4byte	.LASF32
 771 0174 06       		.byte	0x6
 772 0175 2A       		.byte	0x2a
 773 0176 7A010000 		.4byte	0x17a
 774 017a 08       		.uleb128 0x8
 775 017b 61060000 		.4byte	.LASF32
 776 017f 48       		.byte	0x48
 777 0180 07       		.byte	0x7
 778 0181 5E       		.byte	0x5e
 779 0182 5F020000 		.4byte	0x25f
 780 0186 09       		.uleb128 0x9
 781 0187 21060000 		.4byte	.LASF33
 782 018b 07       		.byte	0x7
 783 018c 5F       		.byte	0x5f
 784 018d 80020000 		.4byte	0x280
 785 0191 00       		.byte	0
 786 0192 09       		.uleb128 0x9
 787 0193 65050000 		.4byte	.LASF34
 788 0197 07       		.byte	0x7
 789 0198 61       		.byte	0x61
 790 0199 80020000 		.4byte	0x280
 791 019d 04       		.byte	0x4
 792 019e 09       		.uleb128 0x9
 793 019f 82010000 		.4byte	.LASF35
 794 01a3 07       		.byte	0x7
ARM GAS  /tmp/ccmPRfAK.s 			page 15


 795 01a4 63       		.byte	0x63
 796 01a5 38010000 		.4byte	0x138
 797 01a9 08       		.byte	0x8
 798 01aa 09       		.uleb128 0x9
 799 01ab 70080000 		.4byte	.LASF36
 800 01af 07       		.byte	0x7
 801 01b0 64       		.byte	0x64
 802 01b1 43030000 		.4byte	0x343
 803 01b5 0C       		.byte	0xc
 804 01b6 09       		.uleb128 0x9
 805 01b7 44020000 		.4byte	.LASF37
 806 01bb 07       		.byte	0x7
 807 01bc 66       		.byte	0x66
 808 01bd 80020000 		.4byte	0x280
 809 01c1 10       		.byte	0x10
 810 01c2 09       		.uleb128 0x9
 811 01c3 9F040000 		.4byte	.LASF38
 812 01c7 07       		.byte	0x7
 813 01c8 67       		.byte	0x67
 814 01c9 80020000 		.4byte	0x280
 815 01cd 14       		.byte	0x14
 816 01ce 09       		.uleb128 0x9
 817 01cf BF070000 		.4byte	.LASF39
 818 01d3 07       		.byte	0x7
 819 01d4 6E       		.byte	0x6e
 820 01d5 CE000000 		.4byte	0xce
 821 01d9 18       		.byte	0x18
 822 01da 09       		.uleb128 0x9
 823 01db C8040000 		.4byte	.LASF40
 824 01df 07       		.byte	0x7
 825 01e0 74       		.byte	0x74
 826 01e1 57040000 		.4byte	0x457
 827 01e5 1C       		.byte	0x1c
 828 01e6 09       		.uleb128 0x9
 829 01e7 05060000 		.4byte	.LASF41
 830 01eb 07       		.byte	0x7
 831 01ec 79       		.byte	0x79
 832 01ed 2D010000 		.4byte	0x12d
 833 01f1 20       		.byte	0x20
 834 01f2 09       		.uleb128 0x9
 835 01f3 28060000 		.4byte	.LASF42
 836 01f7 07       		.byte	0x7
 837 01f8 7D       		.byte	0x7d
 838 01f9 22010000 		.4byte	0x122
 839 01fd 21       		.byte	0x21
 840 01fe 09       		.uleb128 0x9
 841 01ff E2020000 		.4byte	.LASF43
 842 0203 07       		.byte	0x7
 843 0204 8F       		.byte	0x8f
 844 0205 69030000 		.4byte	0x369
 845 0209 24       		.byte	0x24
 846 020a 0A       		.uleb128 0xa
 847 020b 705F7500 		.ascii	"p_u\000"
 848 020f 07       		.byte	0x7
 849 0210 B4       		.byte	0xb4
 850 0211 22040000 		.4byte	0x422
 851 0215 28       		.byte	0x28
ARM GAS  /tmp/ccmPRfAK.s 			page 16


 852 0216 09       		.uleb128 0x9
 853 0217 76080000 		.4byte	.LASF44
 854 021b 07       		.byte	0x7
 855 021c B9       		.byte	0xb9
 856 021d A6020000 		.4byte	0x2a6
 857 0221 2C       		.byte	0x2c
 858 0222 09       		.uleb128 0x9
 859 0223 F7020000 		.4byte	.LASF45
 860 0227 07       		.byte	0x7
 861 0228 BF       		.byte	0xbf
 862 0229 86020000 		.4byte	0x286
 863 022d 30       		.byte	0x30
 864 022e 09       		.uleb128 0x9
 865 022f 22080000 		.4byte	.LASF46
 866 0233 07       		.byte	0x7
 867 0234 C3       		.byte	0xc3
 868 0235 43010000 		.4byte	0x143
 869 0239 38       		.byte	0x38
 870 023a 09       		.uleb128 0x9
 871 023b 84060000 		.4byte	.LASF47
 872 023f 07       		.byte	0x7
 873 0240 C9       		.byte	0xc9
 874 0241 4E010000 		.4byte	0x14e
 875 0245 3C       		.byte	0x3c
 876 0246 09       		.uleb128 0x9
 877 0247 F0050000 		.4byte	.LASF48
 878 024b 07       		.byte	0x7
 879 024c D0       		.byte	0xd0
 880 024d 5D040000 		.4byte	0x45d
 881 0251 40       		.byte	0x40
 882 0252 09       		.uleb128 0x9
 883 0253 3B070000 		.4byte	.LASF49
 884 0257 07       		.byte	0x7
 885 0258 D4       		.byte	0xd4
 886 0259 38010000 		.4byte	0x138
 887 025d 44       		.byte	0x44
 888 025e 00       		.byte	0
 889 025f 0B       		.uleb128 0xb
 890 0260 08       		.byte	0x8
 891 0261 06       		.byte	0x6
 892 0262 61       		.byte	0x61
 893 0263 80020000 		.4byte	0x280
 894 0267 09       		.uleb128 0x9
 895 0268 21060000 		.4byte	.LASF33
 896 026c 06       		.byte	0x6
 897 026d 62       		.byte	0x62
 898 026e 80020000 		.4byte	0x280
 899 0272 00       		.byte	0
 900 0273 09       		.uleb128 0x9
 901 0274 65050000 		.4byte	.LASF34
 902 0278 06       		.byte	0x6
 903 0279 64       		.byte	0x64
 904 027a 80020000 		.4byte	0x280
 905 027e 04       		.byte	0x4
 906 027f 00       		.byte	0
 907 0280 06       		.uleb128 0x6
 908 0281 04       		.byte	0x4
ARM GAS  /tmp/ccmPRfAK.s 			page 17


 909 0282 6F010000 		.4byte	0x16f
 910 0286 02       		.uleb128 0x2
 911 0287 B1040000 		.4byte	.LASF50
 912 028b 06       		.byte	0x6
 913 028c 66       		.byte	0x66
 914 028d 5F020000 		.4byte	0x25f
 915 0291 0B       		.uleb128 0xb
 916 0292 04       		.byte	0x4
 917 0293 06       		.byte	0x6
 918 0294 6B       		.byte	0x6b
 919 0295 A6020000 		.4byte	0x2a6
 920 0299 09       		.uleb128 0x9
 921 029a 21060000 		.4byte	.LASF33
 922 029e 06       		.byte	0x6
 923 029f 6D       		.byte	0x6d
 924 02a0 80020000 		.4byte	0x280
 925 02a4 00       		.byte	0
 926 02a5 00       		.byte	0
 927 02a6 02       		.uleb128 0x2
 928 02a7 ED030000 		.4byte	.LASF51
 929 02ab 06       		.byte	0x6
 930 02ac 70       		.byte	0x70
 931 02ad 91020000 		.4byte	0x291
 932 02b1 02       		.uleb128 0x2
 933 02b2 7C020000 		.4byte	.LASF52
 934 02b6 08       		.byte	0x8
 935 02b7 E5       		.byte	0xe5
 936 02b8 BF000000 		.4byte	0xbf
 937 02bc 02       		.uleb128 0x2
 938 02bd 2C040000 		.4byte	.LASF53
 939 02c1 08       		.byte	0x8
 940 02c2 EB       		.byte	0xeb
 941 02c3 10010000 		.4byte	0x110
 942 02c7 0C       		.uleb128 0xc
 943 02c8 9B070000 		.4byte	.LASF54
 944 02cc 24       		.byte	0x24
 945 02cd 08       		.byte	0x8
 946 02ce 0C01     		.2byte	0x10c
 947 02d0 43030000 		.4byte	0x343
 948 02d4 0D       		.uleb128 0xd
 949 02d5 723400   		.ascii	"r4\000"
 950 02d8 08       		.byte	0x8
 951 02d9 1F01     		.2byte	0x11f
 952 02db B1020000 		.4byte	0x2b1
 953 02df 00       		.byte	0
 954 02e0 0D       		.uleb128 0xd
 955 02e1 723500   		.ascii	"r5\000"
 956 02e4 08       		.byte	0x8
 957 02e5 2001     		.2byte	0x120
 958 02e7 B1020000 		.4byte	0x2b1
 959 02eb 04       		.byte	0x4
 960 02ec 0D       		.uleb128 0xd
 961 02ed 723600   		.ascii	"r6\000"
 962 02f0 08       		.byte	0x8
 963 02f1 2101     		.2byte	0x121
 964 02f3 B1020000 		.4byte	0x2b1
 965 02f7 08       		.byte	0x8
ARM GAS  /tmp/ccmPRfAK.s 			page 18


 966 02f8 0D       		.uleb128 0xd
 967 02f9 723700   		.ascii	"r7\000"
 968 02fc 08       		.byte	0x8
 969 02fd 2201     		.2byte	0x122
 970 02ff B1020000 		.4byte	0x2b1
 971 0303 0C       		.byte	0xc
 972 0304 0D       		.uleb128 0xd
 973 0305 723800   		.ascii	"r8\000"
 974 0308 08       		.byte	0x8
 975 0309 2301     		.2byte	0x123
 976 030b B1020000 		.4byte	0x2b1
 977 030f 10       		.byte	0x10
 978 0310 0D       		.uleb128 0xd
 979 0311 723900   		.ascii	"r9\000"
 980 0314 08       		.byte	0x8
 981 0315 2401     		.2byte	0x124
 982 0317 B1020000 		.4byte	0x2b1
 983 031b 14       		.byte	0x14
 984 031c 0D       		.uleb128 0xd
 985 031d 72313000 		.ascii	"r10\000"
 986 0321 08       		.byte	0x8
 987 0322 2501     		.2byte	0x125
 988 0324 B1020000 		.4byte	0x2b1
 989 0328 18       		.byte	0x18
 990 0329 0D       		.uleb128 0xd
 991 032a 72313100 		.ascii	"r11\000"
 992 032e 08       		.byte	0x8
 993 032f 2601     		.2byte	0x126
 994 0331 B1020000 		.4byte	0x2b1
 995 0335 1C       		.byte	0x1c
 996 0336 0D       		.uleb128 0xd
 997 0337 6C7200   		.ascii	"lr\000"
 998 033a 08       		.byte	0x8
 999 033b 2701     		.2byte	0x127
 1000 033d B1020000 		.4byte	0x2b1
 1001 0341 20       		.byte	0x20
 1002 0342 00       		.byte	0
 1003 0343 0C       		.uleb128 0xc
 1004 0344 7D070000 		.4byte	.LASF55
 1005 0348 04       		.byte	0x4
 1006 0349 08       		.byte	0x8
 1007 034a 3101     		.2byte	0x131
 1008 034c 5E030000 		.4byte	0x35e
 1009 0350 0D       		.uleb128 0xd
 1010 0351 72313300 		.ascii	"r13\000"
 1011 0355 08       		.byte	0x8
 1012 0356 3201     		.2byte	0x132
 1013 0358 5E030000 		.4byte	0x35e
 1014 035c 00       		.byte	0
 1015 035d 00       		.byte	0
 1016 035e 06       		.uleb128 0x6
 1017 035f 04       		.byte	0x4
 1018 0360 C7020000 		.4byte	0x2c7
 1019 0364 0E       		.uleb128 0xe
 1020 0365 05010000 		.4byte	0x105
 1021 0369 0E       		.uleb128 0xe
 1022 036a 64010000 		.4byte	0x164
ARM GAS  /tmp/ccmPRfAK.s 			page 19


 1023 036e 08       		.uleb128 0x8
 1024 036f 74040000 		.4byte	.LASF56
 1025 0373 10       		.byte	0x10
 1026 0374 09       		.byte	0x9
 1027 0375 2C       		.byte	0x2c
 1028 0376 9F030000 		.4byte	0x39f
 1029 037a 09       		.uleb128 0x9
 1030 037b E8010000 		.4byte	.LASF57
 1031 037f 09       		.byte	0x9
 1032 0380 2D       		.byte	0x2d
 1033 0381 86020000 		.4byte	0x286
 1034 0385 00       		.byte	0
 1035 0386 09       		.uleb128 0x9
 1036 0387 4A080000 		.4byte	.LASF58
 1037 038b 09       		.byte	0x9
 1038 038c 2F       		.byte	0x2f
 1039 038d 80020000 		.4byte	0x280
 1040 0391 08       		.byte	0x8
 1041 0392 09       		.uleb128 0x9
 1042 0393 2A070000 		.4byte	.LASF59
 1043 0397 09       		.byte	0x9
 1044 0398 31       		.byte	0x31
 1045 0399 9F030000 		.4byte	0x39f
 1046 039d 0C       		.byte	0xc
 1047 039e 00       		.byte	0
 1048 039f 06       		.uleb128 0x6
 1049 03a0 04       		.byte	0x4
 1050 03a1 6E030000 		.4byte	0x36e
 1051 03a5 02       		.uleb128 0x2
 1052 03a6 74040000 		.4byte	.LASF56
 1053 03aa 09       		.byte	0x9
 1054 03ab 33       		.byte	0x33
 1055 03ac 6E030000 		.4byte	0x36e
 1056 03b0 02       		.uleb128 0x2
 1057 03b1 01080000 		.4byte	.LASF60
 1058 03b5 0A       		.byte	0xa
 1059 03b6 2C       		.byte	0x2c
 1060 03b7 BB030000 		.4byte	0x3bb
 1061 03bb 08       		.uleb128 0x8
 1062 03bc 01080000 		.4byte	.LASF60
 1063 03c0 10       		.byte	0x10
 1064 03c1 0A       		.byte	0xa
 1065 03c2 31       		.byte	0x31
 1066 03c3 F8030000 		.4byte	0x3f8
 1067 03c7 09       		.uleb128 0x9
 1068 03c8 30060000 		.4byte	.LASF61
 1069 03cc 0A       		.byte	0xa
 1070 03cd 32       		.byte	0x32
 1071 03ce F8030000 		.4byte	0x3f8
 1072 03d2 00       		.byte	0
 1073 03d3 09       		.uleb128 0x9
 1074 03d4 16080000 		.4byte	.LASF62
 1075 03d8 0A       		.byte	0xa
 1076 03d9 35       		.byte	0x35
 1077 03da 80020000 		.4byte	0x280
 1078 03de 04       		.byte	0x4
 1079 03df 09       		.uleb128 0x9
ARM GAS  /tmp/ccmPRfAK.s 			page 20


 1080 03e0 8A040000 		.4byte	.LASF63
 1081 03e4 0A       		.byte	0xa
 1082 03e5 37       		.byte	0x37
 1083 03e6 4E010000 		.4byte	0x14e
 1084 03ea 08       		.byte	0x8
 1085 03eb 09       		.uleb128 0x9
 1086 03ec E7050000 		.4byte	.LASF64
 1087 03f0 0A       		.byte	0xa
 1088 03f1 3A       		.byte	0x3a
 1089 03f2 59010000 		.4byte	0x159
 1090 03f6 0C       		.byte	0xc
 1091 03f7 00       		.byte	0
 1092 03f8 06       		.uleb128 0x6
 1093 03f9 04       		.byte	0x4
 1094 03fa B0030000 		.4byte	0x3b0
 1095 03fe 08       		.uleb128 0x8
 1096 03ff AD020000 		.4byte	.LASF65
 1097 0403 04       		.byte	0x4
 1098 0404 0A       		.byte	0xa
 1099 0405 41       		.byte	0x41
 1100 0406 17040000 		.4byte	0x417
 1101 040a 09       		.uleb128 0x9
 1102 040b 8B000000 		.4byte	.LASF66
 1103 040f 0A       		.byte	0xa
 1104 0410 42       		.byte	0x42
 1105 0411 F8030000 		.4byte	0x3f8
 1106 0415 00       		.byte	0
 1107 0416 00       		.byte	0
 1108 0417 02       		.uleb128 0x2
 1109 0418 AD020000 		.4byte	.LASF65
 1110 041c 0A       		.byte	0xa
 1111 041d 45       		.byte	0x45
 1112 041e FE030000 		.4byte	0x3fe
 1113 0422 0F       		.uleb128 0xf
 1114 0423 04       		.byte	0x4
 1115 0424 07       		.byte	0x7
 1116 0425 96       		.byte	0x96
 1117 0426 57040000 		.4byte	0x457
 1118 042a 10       		.uleb128 0x10
 1119 042b 4A000000 		.4byte	.LASF67
 1120 042f 07       		.byte	0x7
 1121 0430 9D       		.byte	0x9d
 1122 0431 43010000 		.4byte	0x143
 1123 0435 10       		.uleb128 0x10
 1124 0436 58010000 		.4byte	.LASF68
 1125 043a 07       		.byte	0x7
 1126 043b A4       		.byte	0xa4
 1127 043c 43010000 		.4byte	0x143
 1128 0440 10       		.uleb128 0x10
 1129 0441 0F080000 		.4byte	.LASF69
 1130 0445 07       		.byte	0x7
 1131 0446 AB       		.byte	0xab
 1132 0447 BF000000 		.4byte	0xbf
 1133 044b 10       		.uleb128 0x10
 1134 044c 1A060000 		.4byte	.LASF70
 1135 0450 07       		.byte	0x7
 1136 0451 B2       		.byte	0xb2
ARM GAS  /tmp/ccmPRfAK.s 			page 21


 1137 0452 4E010000 		.4byte	0x14e
 1138 0456 00       		.byte	0
 1139 0457 06       		.uleb128 0x6
 1140 0458 04       		.byte	0x4
 1141 0459 BC020000 		.4byte	0x2bc
 1142 045d 06       		.uleb128 0x6
 1143 045e 04       		.byte	0x4
 1144 045f A5030000 		.4byte	0x3a5
 1145 0463 06       		.uleb128 0x6
 1146 0464 04       		.byte	0x4
 1147 0465 69040000 		.4byte	0x469
 1148 0469 11       		.uleb128 0x11
 1149 046a 43010000 		.4byte	0x143
 1150 046e 78040000 		.4byte	0x478
 1151 0472 12       		.uleb128 0x12
 1152 0473 BF000000 		.4byte	0xbf
 1153 0477 00       		.byte	0
 1154 0478 02       		.uleb128 0x2
 1155 0479 1F040000 		.4byte	.LASF71
 1156 047d 0B       		.byte	0xb
 1157 047e 37       		.byte	0x37
 1158 047f 83040000 		.4byte	0x483
 1159 0483 08       		.uleb128 0x8
 1160 0484 1F040000 		.4byte	.LASF71
 1161 0488 24       		.byte	0x24
 1162 0489 0B       		.byte	0xb
 1163 048a 45       		.byte	0x45
 1164 048b F0040000 		.4byte	0x4f0
 1165 048f 09       		.uleb128 0x9
 1166 0490 A8010000 		.4byte	.LASF72
 1167 0494 0B       		.byte	0xb
 1168 0495 46       		.byte	0x46
 1169 0496 86020000 		.4byte	0x286
 1170 049a 00       		.byte	0
 1171 049b 09       		.uleb128 0x9
 1172 049c A3060000 		.4byte	.LASF73
 1173 04a0 0B       		.byte	0xb
 1174 04a1 47       		.byte	0x47
 1175 04a2 25000000 		.4byte	0x25
 1176 04a6 08       		.byte	0x8
 1177 04a7 09       		.uleb128 0x9
 1178 04a8 19020000 		.4byte	.LASF74
 1179 04ac 0B       		.byte	0xb
 1180 04ad 48       		.byte	0x48
 1181 04ae 12050000 		.4byte	0x512
 1182 04b2 0C       		.byte	0xc
 1183 04b3 09       		.uleb128 0x9
 1184 04b4 B9070000 		.4byte	.LASF75
 1185 04b8 0B       		.byte	0xb
 1186 04b9 49       		.byte	0x49
 1187 04ba 12050000 		.4byte	0x512
 1188 04be 10       		.byte	0x10
 1189 04bf 09       		.uleb128 0x9
 1190 04c0 22020000 		.4byte	.LASF76
 1191 04c4 0B       		.byte	0xb
 1192 04c5 4B       		.byte	0x4b
 1193 04c6 12050000 		.4byte	0x512
ARM GAS  /tmp/ccmPRfAK.s 			page 22


 1194 04ca 14       		.byte	0x14
 1195 04cb 09       		.uleb128 0x9
 1196 04cc 92050000 		.4byte	.LASF77
 1197 04d0 0B       		.byte	0xb
 1198 04d1 4C       		.byte	0x4c
 1199 04d2 12050000 		.4byte	0x512
 1200 04d6 18       		.byte	0x18
 1201 04d7 09       		.uleb128 0x9
 1202 04d8 DB070000 		.4byte	.LASF78
 1203 04dc 0B       		.byte	0xb
 1204 04dd 4D       		.byte	0x4d
 1205 04de F0040000 		.4byte	0x4f0
 1206 04e2 1C       		.byte	0x1c
 1207 04e3 09       		.uleb128 0x9
 1208 04e4 2A020000 		.4byte	.LASF79
 1209 04e8 0B       		.byte	0xb
 1210 04e9 4E       		.byte	0x4e
 1211 04ea BF000000 		.4byte	0xbf
 1212 04ee 20       		.byte	0x20
 1213 04ef 00       		.byte	0
 1214 04f0 02       		.uleb128 0x2
 1215 04f1 15040000 		.4byte	.LASF80
 1216 04f5 0B       		.byte	0xb
 1217 04f6 3A       		.byte	0x3a
 1218 04f7 FB040000 		.4byte	0x4fb
 1219 04fb 06       		.uleb128 0x6
 1220 04fc 04       		.byte	0x4
 1221 04fd 01050000 		.4byte	0x501
 1222 0501 13       		.uleb128 0x13
 1223 0502 0C050000 		.4byte	0x50c
 1224 0506 12       		.uleb128 0x12
 1225 0507 0C050000 		.4byte	0x50c
 1226 050b 00       		.byte	0
 1227 050c 06       		.uleb128 0x6
 1228 050d 04       		.byte	0x4
 1229 050e 78040000 		.4byte	0x478
 1230 0512 06       		.uleb128 0x6
 1231 0513 04       		.byte	0x4
 1232 0514 D9000000 		.4byte	0xd9
 1233 0518 02       		.uleb128 0x2
 1234 0519 EC070000 		.4byte	.LASF81
 1235 051d 0B       		.byte	0xb
 1236 051e 82       		.byte	0x82
 1237 051f 78040000 		.4byte	0x478
 1238 0523 02       		.uleb128 0x2
 1239 0524 61000000 		.4byte	.LASF82
 1240 0528 0B       		.byte	0xb
 1241 0529 F5       		.byte	0xf5
 1242 052a 78040000 		.4byte	0x478
 1243 052e 11       		.uleb128 0x11
 1244 052f 25000000 		.4byte	0x25
 1245 0533 47050000 		.4byte	0x547
 1246 0537 12       		.uleb128 0x12
 1247 0538 BF000000 		.4byte	0xbf
 1248 053c 12       		.uleb128 0x12
 1249 053d 47050000 		.4byte	0x547
 1250 0541 12       		.uleb128 0x12
ARM GAS  /tmp/ccmPRfAK.s 			page 23


 1251 0542 25000000 		.4byte	0x25
 1252 0546 00       		.byte	0
 1253 0547 06       		.uleb128 0x6
 1254 0548 04       		.byte	0x4
 1255 0549 4D050000 		.4byte	0x54d
 1256 054d 07       		.uleb128 0x7
 1257 054e D9000000 		.4byte	0xd9
 1258 0552 06       		.uleb128 0x6
 1259 0553 04       		.byte	0x4
 1260 0554 2E050000 		.4byte	0x52e
 1261 0558 11       		.uleb128 0x11
 1262 0559 25000000 		.4byte	0x25
 1263 055d 71050000 		.4byte	0x571
 1264 0561 12       		.uleb128 0x12
 1265 0562 BF000000 		.4byte	0xbf
 1266 0566 12       		.uleb128 0x12
 1267 0567 12050000 		.4byte	0x512
 1268 056b 12       		.uleb128 0x12
 1269 056c 25000000 		.4byte	0x25
 1270 0570 00       		.byte	0
 1271 0571 06       		.uleb128 0x6
 1272 0572 04       		.byte	0x4
 1273 0573 58050000 		.4byte	0x558
 1274 0577 11       		.uleb128 0x11
 1275 0578 43010000 		.4byte	0x143
 1276 057c 8B050000 		.4byte	0x58b
 1277 0580 12       		.uleb128 0x12
 1278 0581 BF000000 		.4byte	0xbf
 1279 0585 12       		.uleb128 0x12
 1280 0586 D9000000 		.4byte	0xd9
 1281 058a 00       		.byte	0
 1282 058b 06       		.uleb128 0x6
 1283 058c 04       		.byte	0x4
 1284 058d 77050000 		.4byte	0x577
 1285 0591 0E       		.uleb128 0xe
 1286 0592 EF000000 		.4byte	0xef
 1287 0596 0E       		.uleb128 0xe
 1288 0597 FA000000 		.4byte	0xfa
 1289 059b 14       		.uleb128 0x14
 1290 059c 18       		.byte	0x18
 1291 059d 0C       		.byte	0xc
 1292 059e B102     		.2byte	0x2b1
 1293 05a0 F2050000 		.4byte	0x5f2
 1294 05a4 0D       		.uleb128 0xd
 1295 05a5 435200   		.ascii	"CR\000"
 1296 05a8 0C       		.byte	0xc
 1297 05a9 B302     		.2byte	0x2b3
 1298 05ab 64030000 		.4byte	0x364
 1299 05af 00       		.byte	0
 1300 05b0 15       		.uleb128 0x15
 1301 05b1 50070000 		.4byte	.LASF83
 1302 05b5 0C       		.byte	0xc
 1303 05b6 B402     		.2byte	0x2b4
 1304 05b8 64030000 		.4byte	0x364
 1305 05bc 04       		.byte	0x4
 1306 05bd 0D       		.uleb128 0xd
 1307 05be 50415200 		.ascii	"PAR\000"
ARM GAS  /tmp/ccmPRfAK.s 			page 24


 1308 05c2 0C       		.byte	0xc
 1309 05c3 B502     		.2byte	0x2b5
 1310 05c5 64030000 		.4byte	0x364
 1311 05c9 08       		.byte	0x8
 1312 05ca 15       		.uleb128 0x15
 1313 05cb 3E000000 		.4byte	.LASF84
 1314 05cf 0C       		.byte	0xc
 1315 05d0 B602     		.2byte	0x2b6
 1316 05d2 64030000 		.4byte	0x364
 1317 05d6 0C       		.byte	0xc
 1318 05d7 15       		.uleb128 0x15
 1319 05d8 AB070000 		.4byte	.LASF85
 1320 05dc 0C       		.byte	0xc
 1321 05dd B702     		.2byte	0x2b7
 1322 05df 64030000 		.4byte	0x364
 1323 05e3 10       		.byte	0x10
 1324 05e4 0D       		.uleb128 0xd
 1325 05e5 46435200 		.ascii	"FCR\000"
 1326 05e9 0C       		.byte	0xc
 1327 05ea B802     		.2byte	0x2b8
 1328 05ec 64030000 		.4byte	0x364
 1329 05f0 14       		.byte	0x14
 1330 05f1 00       		.byte	0
 1331 05f2 16       		.uleb128 0x16
 1332 05f3 5F070000 		.4byte	.LASF86
 1333 05f7 0C       		.byte	0xc
 1334 05f8 B902     		.2byte	0x2b9
 1335 05fa 9B050000 		.4byte	0x59b
 1336 05fe 14       		.uleb128 0x14
 1337 05ff 28       		.byte	0x28
 1338 0600 0C       		.byte	0xc
 1339 0601 F603     		.2byte	0x3f6
 1340 0603 0B070000 		.4byte	0x70b
 1341 0607 0D       		.uleb128 0xd
 1342 0608 43523100 		.ascii	"CR1\000"
 1343 060c 0C       		.byte	0xc
 1344 060d F803     		.2byte	0x3f8
 1345 060f 91050000 		.4byte	0x591
 1346 0613 00       		.byte	0
 1347 0614 15       		.uleb128 0x15
 1348 0615 33050000 		.4byte	.LASF87
 1349 0619 0C       		.byte	0xc
 1350 061a F903     		.2byte	0x3f9
 1351 061c EF000000 		.4byte	0xef
 1352 0620 02       		.byte	0x2
 1353 0621 0D       		.uleb128 0xd
 1354 0622 43523200 		.ascii	"CR2\000"
 1355 0626 0C       		.byte	0xc
 1356 0627 FA03     		.2byte	0x3fa
 1357 0629 91050000 		.4byte	0x591
 1358 062d 04       		.byte	0x4
 1359 062e 15       		.uleb128 0x15
 1360 062f 3D050000 		.4byte	.LASF88
 1361 0633 0C       		.byte	0xc
 1362 0634 FB03     		.2byte	0x3fb
 1363 0636 EF000000 		.4byte	0xef
 1364 063a 06       		.byte	0x6
ARM GAS  /tmp/ccmPRfAK.s 			page 25


 1365 063b 15       		.uleb128 0x15
 1366 063c F7070000 		.4byte	.LASF89
 1367 0640 0C       		.byte	0xc
 1368 0641 FC03     		.2byte	0x3fc
 1369 0643 91050000 		.4byte	0x591
 1370 0647 08       		.byte	0x8
 1371 0648 15       		.uleb128 0x15
 1372 0649 47050000 		.4byte	.LASF90
 1373 064d 0C       		.byte	0xc
 1374 064e FD03     		.2byte	0x3fd
 1375 0650 EF000000 		.4byte	0xef
 1376 0654 0A       		.byte	0xa
 1377 0655 15       		.uleb128 0x15
 1378 0656 FC070000 		.4byte	.LASF91
 1379 065a 0C       		.byte	0xc
 1380 065b FE03     		.2byte	0x3fe
 1381 065d 91050000 		.4byte	0x591
 1382 0661 0C       		.byte	0xc
 1383 0662 15       		.uleb128 0x15
 1384 0663 51050000 		.4byte	.LASF92
 1385 0667 0C       		.byte	0xc
 1386 0668 FF03     		.2byte	0x3ff
 1387 066a EF000000 		.4byte	0xef
 1388 066e 0E       		.byte	0xe
 1389 066f 0D       		.uleb128 0xd
 1390 0670 445200   		.ascii	"DR\000"
 1391 0673 0C       		.byte	0xc
 1392 0674 0004     		.2byte	0x400
 1393 0676 91050000 		.4byte	0x591
 1394 067a 10       		.byte	0x10
 1395 067b 15       		.uleb128 0x15
 1396 067c 5B050000 		.4byte	.LASF93
 1397 0680 0C       		.byte	0xc
 1398 0681 0104     		.2byte	0x401
 1399 0683 EF000000 		.4byte	0xef
 1400 0687 12       		.byte	0x12
 1401 0688 0D       		.uleb128 0xd
 1402 0689 53523100 		.ascii	"SR1\000"
 1403 068d 0C       		.byte	0xc
 1404 068e 0204     		.2byte	0x402
 1405 0690 91050000 		.4byte	0x591
 1406 0694 14       		.byte	0x14
 1407 0695 15       		.uleb128 0x15
 1408 0696 99060000 		.4byte	.LASF94
 1409 069a 0C       		.byte	0xc
 1410 069b 0304     		.2byte	0x403
 1411 069d EF000000 		.4byte	0xef
 1412 06a1 16       		.byte	0x16
 1413 06a2 0D       		.uleb128 0xd
 1414 06a3 53523200 		.ascii	"SR2\000"
 1415 06a7 0C       		.byte	0xc
 1416 06a8 0404     		.2byte	0x404
 1417 06aa 91050000 		.4byte	0x591
 1418 06ae 18       		.byte	0x18
 1419 06af 15       		.uleb128 0x15
 1420 06b0 6C050000 		.4byte	.LASF95
 1421 06b4 0C       		.byte	0xc
ARM GAS  /tmp/ccmPRfAK.s 			page 26


 1422 06b5 0504     		.2byte	0x405
 1423 06b7 EF000000 		.4byte	0xef
 1424 06bb 1A       		.byte	0x1a
 1425 06bc 0D       		.uleb128 0xd
 1426 06bd 43435200 		.ascii	"CCR\000"
 1427 06c1 0C       		.byte	0xc
 1428 06c2 0604     		.2byte	0x406
 1429 06c4 91050000 		.4byte	0x591
 1430 06c8 1C       		.byte	0x1c
 1431 06c9 15       		.uleb128 0x15
 1432 06ca 76050000 		.4byte	.LASF96
 1433 06ce 0C       		.byte	0xc
 1434 06cf 0704     		.2byte	0x407
 1435 06d1 EF000000 		.4byte	0xef
 1436 06d5 1E       		.byte	0x1e
 1437 06d6 15       		.uleb128 0x15
 1438 06d7 7E000000 		.4byte	.LASF97
 1439 06db 0C       		.byte	0xc
 1440 06dc 0804     		.2byte	0x408
 1441 06de 91050000 		.4byte	0x591
 1442 06e2 20       		.byte	0x20
 1443 06e3 15       		.uleb128 0x15
 1444 06e4 80050000 		.4byte	.LASF98
 1445 06e8 0C       		.byte	0xc
 1446 06e9 0904     		.2byte	0x409
 1447 06eb EF000000 		.4byte	0xef
 1448 06ef 22       		.byte	0x22
 1449 06f0 15       		.uleb128 0x15
 1450 06f1 31020000 		.4byte	.LASF99
 1451 06f5 0C       		.byte	0xc
 1452 06f6 0A04     		.2byte	0x40a
 1453 06f8 91050000 		.4byte	0x591
 1454 06fc 24       		.byte	0x24
 1455 06fd 15       		.uleb128 0x15
 1456 06fe B7060000 		.4byte	.LASF100
 1457 0702 0C       		.byte	0xc
 1458 0703 0B04     		.2byte	0x40b
 1459 0705 EF000000 		.4byte	0xef
 1460 0709 26       		.byte	0x26
 1461 070a 00       		.byte	0
 1462 070b 16       		.uleb128 0x16
 1463 070c A1020000 		.4byte	.LASF101
 1464 0710 0C       		.byte	0xc
 1465 0711 0C04     		.2byte	0x40c
 1466 0713 FE050000 		.4byte	0x5fe
 1467 0717 14       		.uleb128 0x14
 1468 0718 1C       		.byte	0x1c
 1469 0719 0C       		.byte	0xc
 1470 071a 2905     		.2byte	0x529
 1471 071c D5070000 		.4byte	0x7d5
 1472 0720 0D       		.uleb128 0xd
 1473 0721 535200   		.ascii	"SR\000"
 1474 0724 0C       		.byte	0xc
 1475 0725 2B05     		.2byte	0x52b
 1476 0727 91050000 		.4byte	0x591
 1477 072b 00       		.byte	0
 1478 072c 15       		.uleb128 0x15
ARM GAS  /tmp/ccmPRfAK.s 			page 27


 1479 072d 33050000 		.4byte	.LASF87
 1480 0731 0C       		.byte	0xc
 1481 0732 2C05     		.2byte	0x52c
 1482 0734 EF000000 		.4byte	0xef
 1483 0738 02       		.byte	0x2
 1484 0739 0D       		.uleb128 0xd
 1485 073a 445200   		.ascii	"DR\000"
 1486 073d 0C       		.byte	0xc
 1487 073e 2D05     		.2byte	0x52d
 1488 0740 91050000 		.4byte	0x591
 1489 0744 04       		.byte	0x4
 1490 0745 15       		.uleb128 0x15
 1491 0746 3D050000 		.4byte	.LASF88
 1492 074a 0C       		.byte	0xc
 1493 074b 2E05     		.2byte	0x52e
 1494 074d EF000000 		.4byte	0xef
 1495 0751 06       		.byte	0x6
 1496 0752 0D       		.uleb128 0xd
 1497 0753 42525200 		.ascii	"BRR\000"
 1498 0757 0C       		.byte	0xc
 1499 0758 2F05     		.2byte	0x52f
 1500 075a 91050000 		.4byte	0x591
 1501 075e 08       		.byte	0x8
 1502 075f 15       		.uleb128 0x15
 1503 0760 47050000 		.4byte	.LASF90
 1504 0764 0C       		.byte	0xc
 1505 0765 3005     		.2byte	0x530
 1506 0767 EF000000 		.4byte	0xef
 1507 076b 0A       		.byte	0xa
 1508 076c 0D       		.uleb128 0xd
 1509 076d 43523100 		.ascii	"CR1\000"
 1510 0771 0C       		.byte	0xc
 1511 0772 3105     		.2byte	0x531
 1512 0774 91050000 		.4byte	0x591
 1513 0778 0C       		.byte	0xc
 1514 0779 15       		.uleb128 0x15
 1515 077a 51050000 		.4byte	.LASF92
 1516 077e 0C       		.byte	0xc
 1517 077f 3205     		.2byte	0x532
 1518 0781 EF000000 		.4byte	0xef
 1519 0785 0E       		.byte	0xe
 1520 0786 0D       		.uleb128 0xd
 1521 0787 43523200 		.ascii	"CR2\000"
 1522 078b 0C       		.byte	0xc
 1523 078c 3305     		.2byte	0x533
 1524 078e 91050000 		.4byte	0x591
 1525 0792 10       		.byte	0x10
 1526 0793 15       		.uleb128 0x15
 1527 0794 5B050000 		.4byte	.LASF93
 1528 0798 0C       		.byte	0xc
 1529 0799 3405     		.2byte	0x534
 1530 079b EF000000 		.4byte	0xef
 1531 079f 12       		.byte	0x12
 1532 07a0 0D       		.uleb128 0xd
 1533 07a1 43523300 		.ascii	"CR3\000"
 1534 07a5 0C       		.byte	0xc
 1535 07a6 3505     		.2byte	0x535
ARM GAS  /tmp/ccmPRfAK.s 			page 28


 1536 07a8 91050000 		.4byte	0x591
 1537 07ac 14       		.byte	0x14
 1538 07ad 15       		.uleb128 0x15
 1539 07ae 99060000 		.4byte	.LASF94
 1540 07b2 0C       		.byte	0xc
 1541 07b3 3605     		.2byte	0x536
 1542 07b5 EF000000 		.4byte	0xef
 1543 07b9 16       		.byte	0x16
 1544 07ba 15       		.uleb128 0x15
 1545 07bb DB010000 		.4byte	.LASF102
 1546 07bf 0C       		.byte	0xc
 1547 07c0 3705     		.2byte	0x537
 1548 07c2 91050000 		.4byte	0x591
 1549 07c6 18       		.byte	0x18
 1550 07c7 15       		.uleb128 0x15
 1551 07c8 6C050000 		.4byte	.LASF95
 1552 07cc 0C       		.byte	0xc
 1553 07cd 3805     		.2byte	0x538
 1554 07cf EF000000 		.4byte	0xef
 1555 07d3 1A       		.byte	0x1a
 1556 07d4 00       		.byte	0
 1557 07d5 16       		.uleb128 0x16
 1558 07d6 C7030000 		.4byte	.LASF103
 1559 07da 0C       		.byte	0xc
 1560 07db 3905     		.2byte	0x539
 1561 07dd 17070000 		.4byte	0x717
 1562 07e1 0B       		.uleb128 0xb
 1563 07e2 0C       		.byte	0xc
 1564 07e3 0D       		.byte	0xd
 1565 07e4 DA       		.byte	0xda
 1566 07e5 26080000 		.4byte	0x826
 1567 07e9 09       		.uleb128 0x9
 1568 07ea 84000000 		.4byte	.LASF104
 1569 07ee 0D       		.byte	0xd
 1570 07ef DB       		.byte	0xdb
 1571 07f0 26080000 		.4byte	0x826
 1572 07f4 00       		.byte	0
 1573 07f5 09       		.uleb128 0x9
 1574 07f6 2E050000 		.4byte	.LASF105
 1575 07fa 0D       		.byte	0xd
 1576 07fb DC       		.byte	0xdc
 1577 07fc 2C080000 		.4byte	0x82c
 1578 0800 04       		.byte	0x4
 1579 0801 09       		.uleb128 0x9
 1580 0802 21030000 		.4byte	.LASF106
 1581 0806 0D       		.byte	0xd
 1582 0807 DD       		.byte	0xdd
 1583 0808 D9000000 		.4byte	0xd9
 1584 080c 08       		.byte	0x8
 1585 080d 09       		.uleb128 0x9
 1586 080e 85020000 		.4byte	.LASF107
 1587 0812 0D       		.byte	0xd
 1588 0813 DF       		.byte	0xdf
 1589 0814 D9000000 		.4byte	0xd9
 1590 0818 09       		.byte	0x9
 1591 0819 09       		.uleb128 0x9
 1592 081a 5A000000 		.4byte	.LASF108
ARM GAS  /tmp/ccmPRfAK.s 			page 29


 1593 081e 0D       		.byte	0xd
 1594 081f E0       		.byte	0xe0
 1595 0820 D9000000 		.4byte	0xd9
 1596 0824 0A       		.byte	0xa
 1597 0825 00       		.byte	0
 1598 0826 06       		.uleb128 0x6
 1599 0827 04       		.byte	0x4
 1600 0828 F2050000 		.4byte	0x5f2
 1601 082c 06       		.uleb128 0x6
 1602 082d 04       		.byte	0x4
 1603 082e 64030000 		.4byte	0x364
 1604 0832 02       		.uleb128 0x2
 1605 0833 C7050000 		.4byte	.LASF109
 1606 0837 0D       		.byte	0xd
 1607 0838 E1       		.byte	0xe1
 1608 0839 E1070000 		.4byte	0x7e1
 1609 083d 11       		.uleb128 0x11
 1610 083e 43010000 		.4byte	0x143
 1611 0842 56080000 		.4byte	0x856
 1612 0846 12       		.uleb128 0x12
 1613 0847 BF000000 		.4byte	0xbf
 1614 084b 12       		.uleb128 0x12
 1615 084c D9000000 		.4byte	0xd9
 1616 0850 12       		.uleb128 0x12
 1617 0851 64010000 		.4byte	0x164
 1618 0855 00       		.byte	0
 1619 0856 06       		.uleb128 0x6
 1620 0857 04       		.byte	0x4
 1621 0858 3D080000 		.4byte	0x83d
 1622 085c 11       		.uleb128 0x11
 1623 085d 43010000 		.4byte	0x143
 1624 0861 70080000 		.4byte	0x870
 1625 0865 12       		.uleb128 0x12
 1626 0866 BF000000 		.4byte	0xbf
 1627 086a 12       		.uleb128 0x12
 1628 086b 64010000 		.4byte	0x164
 1629 086f 00       		.byte	0
 1630 0870 06       		.uleb128 0x6
 1631 0871 04       		.byte	0x4
 1632 0872 5C080000 		.4byte	0x85c
 1633 0876 11       		.uleb128 0x11
 1634 0877 25000000 		.4byte	0x25
 1635 087b 94080000 		.4byte	0x894
 1636 087f 12       		.uleb128 0x12
 1637 0880 BF000000 		.4byte	0xbf
 1638 0884 12       		.uleb128 0x12
 1639 0885 47050000 		.4byte	0x547
 1640 0889 12       		.uleb128 0x12
 1641 088a 25000000 		.4byte	0x25
 1642 088e 12       		.uleb128 0x12
 1643 088f 64010000 		.4byte	0x164
 1644 0893 00       		.byte	0
 1645 0894 06       		.uleb128 0x6
 1646 0895 04       		.byte	0x4
 1647 0896 76080000 		.4byte	0x876
 1648 089a 11       		.uleb128 0x11
 1649 089b 25000000 		.4byte	0x25
ARM GAS  /tmp/ccmPRfAK.s 			page 30


 1650 089f B8080000 		.4byte	0x8b8
 1651 08a3 12       		.uleb128 0x12
 1652 08a4 BF000000 		.4byte	0xbf
 1653 08a8 12       		.uleb128 0x12
 1654 08a9 12050000 		.4byte	0x512
 1655 08ad 12       		.uleb128 0x12
 1656 08ae 25000000 		.4byte	0x25
 1657 08b2 12       		.uleb128 0x12
 1658 08b3 64010000 		.4byte	0x164
 1659 08b7 00       		.byte	0
 1660 08b8 06       		.uleb128 0x6
 1661 08b9 04       		.byte	0x4
 1662 08ba 9A080000 		.4byte	0x89a
 1663 08be 0B       		.uleb128 0xb
 1664 08bf 04       		.byte	0x4
 1665 08c0 0E       		.byte	0xe
 1666 08c1 96       		.byte	0x96
 1667 08c2 DF080000 		.4byte	0x8df
 1668 08c6 0A       		.uleb128 0xa
 1669 08c7 73657400 		.ascii	"set\000"
 1670 08cb 0E       		.byte	0xe
 1671 08cc 97       		.byte	0x97
 1672 08cd EF000000 		.4byte	0xef
 1673 08d1 00       		.byte	0
 1674 08d2 09       		.uleb128 0x9
 1675 08d3 65040000 		.4byte	.LASF110
 1676 08d7 0E       		.byte	0xe
 1677 08d8 98       		.byte	0x98
 1678 08d9 EF000000 		.4byte	0xef
 1679 08dd 02       		.byte	0x2
 1680 08de 00       		.byte	0
 1681 08df 0F       		.uleb128 0xf
 1682 08e0 04       		.byte	0x4
 1683 08e1 0E       		.byte	0xe
 1684 08e2 94       		.byte	0x94
 1685 08e3 FA080000 		.4byte	0x8fa
 1686 08e7 17       		.uleb128 0x17
 1687 08e8 5700     		.ascii	"W\000"
 1688 08ea 0E       		.byte	0xe
 1689 08eb 95       		.byte	0x95
 1690 08ec 05010000 		.4byte	0x105
 1691 08f0 17       		.uleb128 0x17
 1692 08f1 4800     		.ascii	"H\000"
 1693 08f3 0E       		.byte	0xe
 1694 08f4 99       		.byte	0x99
 1695 08f5 BE080000 		.4byte	0x8be
 1696 08f9 00       		.byte	0
 1697 08fa 0B       		.uleb128 0xb
 1698 08fb 28       		.byte	0x28
 1699 08fc 0E       		.byte	0xe
 1700 08fd 8C       		.byte	0x8c
 1701 08fe 7B090000 		.4byte	0x97b
 1702 0902 09       		.uleb128 0x9
 1703 0903 30010000 		.4byte	.LASF111
 1704 0907 0E       		.byte	0xe
 1705 0908 8E       		.byte	0x8e
 1706 0909 64030000 		.4byte	0x364
ARM GAS  /tmp/ccmPRfAK.s 			page 31


 1707 090d 00       		.byte	0
 1708 090e 09       		.uleb128 0x9
 1709 090f 77000000 		.4byte	.LASF112
 1710 0913 0E       		.byte	0xe
 1711 0914 8F       		.byte	0x8f
 1712 0915 64030000 		.4byte	0x364
 1713 0919 04       		.byte	0x4
 1714 091a 09       		.uleb128 0x9
 1715 091b 69020000 		.4byte	.LASF113
 1716 091f 0E       		.byte	0xe
 1717 0920 90       		.byte	0x90
 1718 0921 64030000 		.4byte	0x364
 1719 0925 08       		.byte	0x8
 1720 0926 09       		.uleb128 0x9
 1721 0927 52010000 		.4byte	.LASF114
 1722 092b 0E       		.byte	0xe
 1723 092c 91       		.byte	0x91
 1724 092d 64030000 		.4byte	0x364
 1725 0931 0C       		.byte	0xc
 1726 0932 0A       		.uleb128 0xa
 1727 0933 49445200 		.ascii	"IDR\000"
 1728 0937 0E       		.byte	0xe
 1729 0938 92       		.byte	0x92
 1730 0939 64030000 		.4byte	0x364
 1731 093d 10       		.byte	0x10
 1732 093e 0A       		.uleb128 0xa
 1733 093f 4F445200 		.ascii	"ODR\000"
 1734 0943 0E       		.byte	0xe
 1735 0944 93       		.byte	0x93
 1736 0945 64030000 		.4byte	0x364
 1737 0949 14       		.byte	0x14
 1738 094a 09       		.uleb128 0x9
 1739 094b CC010000 		.4byte	.LASF115
 1740 094f 0E       		.byte	0xe
 1741 0950 9A       		.byte	0x9a
 1742 0951 7B090000 		.4byte	0x97b
 1743 0955 18       		.byte	0x18
 1744 0956 09       		.uleb128 0x9
 1745 0957 68060000 		.4byte	.LASF116
 1746 095b 0E       		.byte	0xe
 1747 095c 9B       		.byte	0x9b
 1748 095d 64030000 		.4byte	0x364
 1749 0961 1C       		.byte	0x1c
 1750 0962 09       		.uleb128 0x9
 1751 0963 22050000 		.4byte	.LASF117
 1752 0967 0E       		.byte	0xe
 1753 0968 9C       		.byte	0x9c
 1754 0969 64030000 		.4byte	0x364
 1755 096d 20       		.byte	0x20
 1756 096e 09       		.uleb128 0x9
 1757 096f 1D050000 		.4byte	.LASF118
 1758 0973 0E       		.byte	0xe
 1759 0974 9D       		.byte	0x9d
 1760 0975 64030000 		.4byte	0x364
 1761 0979 24       		.byte	0x24
 1762 097a 00       		.byte	0
 1763 097b 0E       		.uleb128 0xe
ARM GAS  /tmp/ccmPRfAK.s 			page 32


 1764 097c DF080000 		.4byte	0x8df
 1765 0980 02       		.uleb128 0x2
 1766 0981 56020000 		.4byte	.LASF119
 1767 0985 0E       		.byte	0xe
 1768 0986 9E       		.byte	0x9e
 1769 0987 FA080000 		.4byte	0x8fa
 1770 098b 02       		.uleb128 0x2
 1771 098c 92040000 		.4byte	.LASF120
 1772 0990 0E       		.byte	0xe
 1773 0991 F0       		.byte	0xf0
 1774 0992 05010000 		.4byte	0x105
 1775 0996 02       		.uleb128 0x2
 1776 0997 41080000 		.4byte	.LASF121
 1777 099b 0E       		.byte	0xe
 1778 099c F5       		.byte	0xf5
 1779 099d 05010000 		.4byte	0x105
 1780 09a1 02       		.uleb128 0x2
 1781 09a2 72070000 		.4byte	.LASF122
 1782 09a6 0E       		.byte	0xe
 1783 09a7 FD       		.byte	0xfd
 1784 09a8 AC090000 		.4byte	0x9ac
 1785 09ac 06       		.uleb128 0x6
 1786 09ad 04       		.byte	0x4
 1787 09ae 80090000 		.4byte	0x980
 1788 09b2 18       		.uleb128 0x18
 1789 09b3 01       		.byte	0x1
 1790 09b4 0F       		.byte	0xf
 1791 09b5 5A       		.byte	0x5a
 1792 09b6 DF090000 		.4byte	0x9df
 1793 09ba 19       		.uleb128 0x19
 1794 09bb FA050000 		.4byte	.LASF123
 1795 09bf 00       		.sleb128 0
 1796 09c0 19       		.uleb128 0x19
 1797 09c1 53040000 		.4byte	.LASF124
 1798 09c5 01       		.sleb128 1
 1799 09c6 19       		.uleb128 0x19
 1800 09c7 55070000 		.4byte	.LASF125
 1801 09cb 02       		.sleb128 2
 1802 09cc 19       		.uleb128 0x19
 1803 09cd 36020000 		.4byte	.LASF126
 1804 09d1 03       		.sleb128 3
 1805 09d2 19       		.uleb128 0x19
 1806 09d3 D4060000 		.4byte	.LASF127
 1807 09d7 04       		.sleb128 4
 1808 09d8 19       		.uleb128 0x19
 1809 09d9 6D060000 		.4byte	.LASF128
 1810 09dd 05       		.sleb128 5
 1811 09de 00       		.byte	0
 1812 09df 02       		.uleb128 0x2
 1813 09e0 33000000 		.4byte	.LASF129
 1814 09e4 0F       		.byte	0xf
 1815 09e5 61       		.byte	0x61
 1816 09e6 B2090000 		.4byte	0x9b2
 1817 09ea 16       		.uleb128 0x16
 1818 09eb F0010000 		.4byte	.LASF130
 1819 09ef 10       		.byte	0x10
 1820 09f0 3501     		.2byte	0x135
ARM GAS  /tmp/ccmPRfAK.s 			page 33


 1821 09f2 EF000000 		.4byte	0xef
 1822 09f6 16       		.uleb128 0x16
 1823 09f7 9A050000 		.4byte	.LASF131
 1824 09fb 10       		.byte	0x10
 1825 09fc 3A01     		.2byte	0x13a
 1826 09fe 05010000 		.4byte	0x105
 1827 0a02 1A       		.uleb128 0x1a
 1828 0a03 01       		.byte	0x1
 1829 0a04 10       		.byte	0x10
 1830 0a05 3F01     		.2byte	0x13f
 1831 0a07 1E0A0000 		.4byte	0xa1e
 1832 0a0b 19       		.uleb128 0x19
 1833 0a0c D3040000 		.4byte	.LASF132
 1834 0a10 01       		.sleb128 1
 1835 0a11 19       		.uleb128 0x19
 1836 0a12 7D030000 		.4byte	.LASF133
 1837 0a16 02       		.sleb128 2
 1838 0a17 19       		.uleb128 0x19
 1839 0a18 FE060000 		.4byte	.LASF134
 1840 0a1c 03       		.sleb128 3
 1841 0a1d 00       		.byte	0
 1842 0a1e 16       		.uleb128 0x16
 1843 0a1f 28080000 		.4byte	.LASF135
 1844 0a23 10       		.byte	0x10
 1845 0a24 4301     		.2byte	0x143
 1846 0a26 020A0000 		.4byte	0xa02
 1847 0a2a 1A       		.uleb128 0x1a
 1848 0a2b 01       		.byte	0x1
 1849 0a2c 10       		.byte	0x10
 1850 0a2d 4801     		.2byte	0x148
 1851 0a2f 460A0000 		.4byte	0xa46
 1852 0a33 19       		.uleb128 0x19
 1853 0a34 00000000 		.4byte	.LASF136
 1854 0a38 01       		.sleb128 1
 1855 0a39 19       		.uleb128 0x19
 1856 0a3a 4F060000 		.4byte	.LASF137
 1857 0a3e 02       		.sleb128 2
 1858 0a3f 19       		.uleb128 0x19
 1859 0a40 E5040000 		.4byte	.LASF138
 1860 0a44 03       		.sleb128 3
 1861 0a45 00       		.byte	0
 1862 0a46 16       		.uleb128 0x16
 1863 0a47 24000000 		.4byte	.LASF139
 1864 0a4b 10       		.byte	0x10
 1865 0a4c 4C01     		.2byte	0x14c
 1866 0a4e 2A0A0000 		.4byte	0xa2a
 1867 0a52 14       		.uleb128 0x14
 1868 0a53 0C       		.byte	0xc
 1869 0a54 10       		.byte	0x10
 1870 0a55 5101     		.2byte	0x151
 1871 0a57 830A0000 		.4byte	0xa83
 1872 0a5b 15       		.uleb128 0x15
 1873 0a5c 99020000 		.4byte	.LASF140
 1874 0a60 10       		.byte	0x10
 1875 0a61 5201     		.2byte	0x152
 1876 0a63 1E0A0000 		.4byte	0xa1e
 1877 0a67 00       		.byte	0
ARM GAS  /tmp/ccmPRfAK.s 			page 34


 1878 0a68 15       		.uleb128 0x15
 1879 0a69 AE030000 		.4byte	.LASF141
 1880 0a6d 10       		.byte	0x10
 1881 0a6e 5301     		.2byte	0x153
 1882 0a70 05010000 		.4byte	0x105
 1883 0a74 04       		.byte	0x4
 1884 0a75 15       		.uleb128 0x15
 1885 0a76 7A040000 		.4byte	.LASF142
 1886 0a7a 10       		.byte	0x10
 1887 0a7b 5601     		.2byte	0x156
 1888 0a7d 460A0000 		.4byte	0xa46
 1889 0a81 08       		.byte	0x8
 1890 0a82 00       		.byte	0
 1891 0a83 16       		.uleb128 0x16
 1892 0a84 A7040000 		.4byte	.LASF143
 1893 0a88 10       		.byte	0x10
 1894 0a89 5801     		.2byte	0x158
 1895 0a8b 520A0000 		.4byte	0xa52
 1896 0a8f 16       		.uleb128 0x16
 1897 0a90 A4030000 		.4byte	.LASF144
 1898 0a94 10       		.byte	0x10
 1899 0a95 5D01     		.2byte	0x15d
 1900 0a97 9B0A0000 		.4byte	0xa9b
 1901 0a9b 0C       		.uleb128 0xc
 1902 0a9c A4030000 		.4byte	.LASF144
 1903 0aa0 38       		.byte	0x38
 1904 0aa1 10       		.byte	0x10
 1905 0aa2 6201     		.2byte	0x162
 1906 0aa4 380B0000 		.4byte	0xb38
 1907 0aa8 15       		.uleb128 0x15
 1908 0aa9 FA010000 		.4byte	.LASF145
 1909 0aad 10       		.byte	0x10
 1910 0aae 6601     		.2byte	0x166
 1911 0ab0 DF090000 		.4byte	0x9df
 1912 0ab4 00       		.byte	0
 1913 0ab5 15       		.uleb128 0x15
 1914 0ab6 10070000 		.4byte	.LASF146
 1915 0aba 10       		.byte	0x10
 1916 0abb 6A01     		.2byte	0x16a
 1917 0abd 380B0000 		.4byte	0xb38
 1918 0ac1 04       		.byte	0x4
 1919 0ac2 15       		.uleb128 0x15
 1920 0ac3 E9020000 		.4byte	.LASF147
 1921 0ac7 10       		.byte	0x10
 1922 0ac8 6E01     		.2byte	0x16e
 1923 0aca F6090000 		.4byte	0x9f6
 1924 0ace 08       		.byte	0x8
 1925 0acf 15       		.uleb128 0x15
 1926 0ad0 A5050000 		.4byte	.LASF148
 1927 0ad4 10       		.byte	0x10
 1928 0ad5 7401     		.2byte	0x174
 1929 0ad7 A5030000 		.4byte	0x3a5
 1930 0adb 0C       		.byte	0xc
 1931 0adc 15       		.uleb128 0x15
 1932 0add 12020000 		.4byte	.LASF149
 1933 0ae1 10       		.byte	0x10
 1934 0ae2 8001     		.2byte	0x180
ARM GAS  /tmp/ccmPRfAK.s 			page 35


 1935 0ae4 80020000 		.4byte	0x280
 1936 0ae8 1C       		.byte	0x1c
 1937 0ae9 15       		.uleb128 0x15
 1938 0aea 4D010000 		.4byte	.LASF150
 1939 0aee 10       		.byte	0x10
 1940 0aef 8401     		.2byte	0x184
 1941 0af1 EA090000 		.4byte	0x9ea
 1942 0af5 20       		.byte	0x20
 1943 0af6 15       		.uleb128 0x15
 1944 0af7 4C020000 		.4byte	.LASF151
 1945 0afb 10       		.byte	0x10
 1946 0afc 8801     		.2byte	0x188
 1947 0afe 05010000 		.4byte	0x105
 1948 0b02 24       		.byte	0x24
 1949 0b03 15       		.uleb128 0x15
 1950 0b04 BE040000 		.4byte	.LASF152
 1951 0b08 10       		.byte	0x10
 1952 0b09 8C01     		.2byte	0x18c
 1953 0b0b 05010000 		.4byte	0x105
 1954 0b0f 28       		.byte	0x28
 1955 0b10 15       		.uleb128 0x15
 1956 0b11 0F000000 		.4byte	.LASF153
 1957 0b15 10       		.byte	0x10
 1958 0b16 9001     		.2byte	0x190
 1959 0b18 430B0000 		.4byte	0xb43
 1960 0b1c 2C       		.byte	0x2c
 1961 0b1d 15       		.uleb128 0x15
 1962 0b1e 63020000 		.4byte	.LASF154
 1963 0b22 10       		.byte	0x10
 1964 0b23 9401     		.2byte	0x194
 1965 0b25 430B0000 		.4byte	0xb43
 1966 0b29 30       		.byte	0x30
 1967 0b2a 0D       		.uleb128 0xd
 1968 0b2b 69326300 		.ascii	"i2c\000"
 1969 0b2f 10       		.byte	0x10
 1970 0b30 9801     		.2byte	0x198
 1971 0b32 4E0B0000 		.4byte	0xb4e
 1972 0b36 34       		.byte	0x34
 1973 0b37 00       		.byte	0
 1974 0b38 06       		.uleb128 0x6
 1975 0b39 04       		.byte	0x4
 1976 0b3a 3E0B0000 		.4byte	0xb3e
 1977 0b3e 07       		.uleb128 0x7
 1978 0b3f 830A0000 		.4byte	0xa83
 1979 0b43 06       		.uleb128 0x6
 1980 0b44 04       		.byte	0x4
 1981 0b45 490B0000 		.4byte	0xb49
 1982 0b49 07       		.uleb128 0x7
 1983 0b4a 32080000 		.4byte	0x832
 1984 0b4e 06       		.uleb128 0x6
 1985 0b4f 04       		.byte	0x4
 1986 0b50 0B070000 		.4byte	0x70b
 1987 0b54 18       		.uleb128 0x18
 1988 0b55 01       		.byte	0x1
 1989 0b56 11       		.byte	0x11
 1990 0b57 64       		.byte	0x64
 1991 0b58 6F0B0000 		.4byte	0xb6f
ARM GAS  /tmp/ccmPRfAK.s 			page 36


 1992 0b5c 19       		.uleb128 0x19
 1993 0b5d 8F060000 		.4byte	.LASF155
 1994 0b61 00       		.sleb128 0
 1995 0b62 19       		.uleb128 0x19
 1996 0b63 E0010000 		.4byte	.LASF156
 1997 0b67 01       		.sleb128 1
 1998 0b68 19       		.uleb128 0x19
 1999 0b69 A2070000 		.4byte	.LASF157
 2000 0b6d 02       		.sleb128 2
 2001 0b6e 00       		.byte	0
 2002 0b6f 02       		.uleb128 0x2
 2003 0b70 AD060000 		.4byte	.LASF158
 2004 0b74 11       		.byte	0x11
 2005 0b75 68       		.byte	0x68
 2006 0b76 540B0000 		.4byte	0xb54
 2007 0b7a 02       		.uleb128 0x2
 2008 0b7b C1060000 		.4byte	.LASF159
 2009 0b7f 11       		.byte	0x11
 2010 0b80 6D       		.byte	0x6d
 2011 0b81 850B0000 		.4byte	0xb85
 2012 0b85 08       		.uleb128 0x8
 2013 0b86 C1060000 		.4byte	.LASF159
 2014 0b8a 78       		.byte	0x78
 2015 0b8b 11       		.byte	0x11
 2016 0b8c 87       		.byte	0x87
 2017 0b8d F00B0000 		.4byte	0xbf0
 2018 0b91 0A       		.uleb128 0xa
 2019 0b92 766D7400 		.ascii	"vmt\000"
 2020 0b96 11       		.byte	0x11
 2021 0b97 89       		.byte	0x89
 2022 0b98 A10C0000 		.4byte	0xca1
 2023 0b9c 00       		.byte	0
 2024 0b9d 09       		.uleb128 0x9
 2025 0b9e 77030000 		.4byte	.LASF160
 2026 0ba2 11       		.byte	0x11
 2027 0ba3 8A       		.byte	0x8a
 2028 0ba4 17040000 		.4byte	0x417
 2029 0ba8 04       		.byte	0x4
 2030 0ba9 09       		.uleb128 0x9
 2031 0baa FA010000 		.4byte	.LASF145
 2032 0bae 11       		.byte	0x11
 2033 0baf 8A       		.byte	0x8a
 2034 0bb0 6F0B0000 		.4byte	0xb6f
 2035 0bb4 08       		.byte	0x8
 2036 0bb5 09       		.uleb128 0x9
 2037 0bb6 F0020000 		.4byte	.LASF161
 2038 0bba 11       		.byte	0x11
 2039 0bbb 8A       		.byte	0x8a
 2040 0bbc 18050000 		.4byte	0x518
 2041 0bc0 0C       		.byte	0xc
 2042 0bc1 09       		.uleb128 0x9
 2043 0bc2 C0030000 		.4byte	.LASF162
 2044 0bc6 11       		.byte	0x11
 2045 0bc7 8A       		.byte	0x8a
 2046 0bc8 23050000 		.4byte	0x523
 2047 0bcc 30       		.byte	0x30
 2048 0bcd 0A       		.uleb128 0xa
ARM GAS  /tmp/ccmPRfAK.s 			page 37


 2049 0bce 696200   		.ascii	"ib\000"
 2050 0bd1 11       		.byte	0x11
 2051 0bd2 8A       		.byte	0x8a
 2052 0bd3 AC0C0000 		.4byte	0xcac
 2053 0bd7 54       		.byte	0x54
 2054 0bd8 0A       		.uleb128 0xa
 2055 0bd9 6F6200   		.ascii	"ob\000"
 2056 0bdc 11       		.byte	0x11
 2057 0bdd 8A       		.byte	0x8a
 2058 0bde AC0C0000 		.4byte	0xcac
 2059 0be2 64       		.byte	0x64
 2060 0be3 09       		.uleb128 0x9
 2061 0be4 B9020000 		.4byte	.LASF163
 2062 0be8 11       		.byte	0x11
 2063 0be9 8A       		.byte	0x8a
 2064 0bea BC0C0000 		.4byte	0xcbc
 2065 0bee 74       		.byte	0x74
 2066 0bef 00       		.byte	0
 2067 0bf0 0B       		.uleb128 0xb
 2068 0bf1 0C       		.byte	0xc
 2069 0bf2 12       		.byte	0x12
 2070 0bf3 D7       		.byte	0xd7
 2071 0bf4 290C0000 		.4byte	0xc29
 2072 0bf8 09       		.uleb128 0x9
 2073 0bf9 0F040000 		.4byte	.LASF164
 2074 0bfd 12       		.byte	0x12
 2075 0bfe DB       		.byte	0xdb
 2076 0bff 05010000 		.4byte	0x105
 2077 0c03 00       		.byte	0
 2078 0c04 0A       		.uleb128 0xa
 2079 0c05 63723100 		.ascii	"cr1\000"
 2080 0c09 12       		.byte	0x12
 2081 0c0a E0       		.byte	0xe0
 2082 0c0b EF000000 		.4byte	0xef
 2083 0c0f 04       		.byte	0x4
 2084 0c10 0A       		.uleb128 0xa
 2085 0c11 63723200 		.ascii	"cr2\000"
 2086 0c15 12       		.byte	0x12
 2087 0c16 E4       		.byte	0xe4
 2088 0c17 EF000000 		.4byte	0xef
 2089 0c1b 06       		.byte	0x6
 2090 0c1c 0A       		.uleb128 0xa
 2091 0c1d 63723300 		.ascii	"cr3\000"
 2092 0c21 12       		.byte	0x12
 2093 0c22 E8       		.byte	0xe8
 2094 0c23 EF000000 		.4byte	0xef
 2095 0c27 08       		.byte	0x8
 2096 0c28 00       		.byte	0
 2097 0c29 02       		.uleb128 0x2
 2098 0c2a 05050000 		.4byte	.LASF165
 2099 0c2e 12       		.byte	0x12
 2100 0c2f E9       		.byte	0xe9
 2101 0c30 F00B0000 		.4byte	0xbf0
 2102 0c34 08       		.uleb128 0x8
 2103 0c35 D2020000 		.4byte	.LASF166
 2104 0c39 20       		.byte	0x20
 2105 0c3a 11       		.byte	0x11
ARM GAS  /tmp/ccmPRfAK.s 			page 38


 2106 0c3b 7C       		.byte	0x7c
 2107 0c3c A10C0000 		.4byte	0xca1
 2108 0c40 09       		.uleb128 0x9
 2109 0c41 48040000 		.4byte	.LASF167
 2110 0c45 11       		.byte	0x11
 2111 0c46 7D       		.byte	0x7d
 2112 0c47 52050000 		.4byte	0x552
 2113 0c4b 00       		.byte	0
 2114 0c4c 09       		.uleb128 0x9
 2115 0c4d F4060000 		.4byte	.LASF168
 2116 0c51 11       		.byte	0x11
 2117 0c52 7D       		.byte	0x7d
 2118 0c53 71050000 		.4byte	0x571
 2119 0c57 04       		.byte	0x4
 2120 0c58 0A       		.uleb128 0xa
 2121 0c59 70757400 		.ascii	"put\000"
 2122 0c5d 11       		.byte	0x11
 2123 0c5e 7D       		.byte	0x7d
 2124 0c5f 8B050000 		.4byte	0x58b
 2125 0c63 08       		.byte	0x8
 2126 0c64 0A       		.uleb128 0xa
 2127 0c65 67657400 		.ascii	"get\000"
 2128 0c69 11       		.byte	0x11
 2129 0c6a 7D       		.byte	0x7d
 2130 0c6b 63040000 		.4byte	0x463
 2131 0c6f 0C       		.byte	0xc
 2132 0c70 09       		.uleb128 0x9
 2133 0c71 4E040000 		.4byte	.LASF169
 2134 0c75 11       		.byte	0x11
 2135 0c76 7D       		.byte	0x7d
 2136 0c77 56080000 		.4byte	0x856
 2137 0c7b 10       		.byte	0x10
 2138 0c7c 09       		.uleb128 0x9
 2139 0c7d 1C030000 		.4byte	.LASF170
 2140 0c81 11       		.byte	0x11
 2141 0c82 7D       		.byte	0x7d
 2142 0c83 70080000 		.4byte	0x870
 2143 0c87 14       		.byte	0x14
 2144 0c88 09       		.uleb128 0x9
 2145 0c89 D5030000 		.4byte	.LASF171
 2146 0c8d 11       		.byte	0x11
 2147 0c8e 7D       		.byte	0x7d
 2148 0c8f 94080000 		.4byte	0x894
 2149 0c93 18       		.byte	0x18
 2150 0c94 09       		.uleb128 0x9
 2151 0c95 A2010000 		.4byte	.LASF172
 2152 0c99 11       		.byte	0x11
 2153 0c9a 7D       		.byte	0x7d
 2154 0c9b B8080000 		.4byte	0x8b8
 2155 0c9f 1C       		.byte	0x1c
 2156 0ca0 00       		.byte	0
 2157 0ca1 06       		.uleb128 0x6
 2158 0ca2 04       		.byte	0x4
 2159 0ca3 A70C0000 		.4byte	0xca7
 2160 0ca7 07       		.uleb128 0x7
 2161 0ca8 340C0000 		.4byte	0xc34
 2162 0cac 1B       		.uleb128 0x1b
ARM GAS  /tmp/ccmPRfAK.s 			page 39


 2163 0cad D9000000 		.4byte	0xd9
 2164 0cb1 BC0C0000 		.4byte	0xcbc
 2165 0cb5 1C       		.uleb128 0x1c
 2166 0cb6 B8000000 		.4byte	0xb8
 2167 0cba 0F       		.byte	0xf
 2168 0cbb 00       		.byte	0
 2169 0cbc 06       		.uleb128 0x6
 2170 0cbd 04       		.byte	0x4
 2171 0cbe D5070000 		.4byte	0x7d5
 2172 0cc2 1D       		.uleb128 0x1d
 2173 0cc3 75010000 		.4byte	.LASF174
 2174 0cc7 01       		.byte	0x1
 2175 0cc8 44       		.byte	0x44
 2176 0cc9 01       		.byte	0x1
 2177 0cca EC0C0000 		.4byte	0xcec
 2178 0cce 1E       		.uleb128 0x1e
 2179 0ccf 6E00     		.ascii	"n\000"
 2180 0cd1 01       		.byte	0x1
 2181 0cd2 44       		.byte	0x44
 2182 0cd3 E4000000 		.4byte	0xe4
 2183 0cd7 1F       		.uleb128 0x1f
 2184 0cd8 62756600 		.ascii	"buf\000"
 2185 0cdc 01       		.byte	0x1
 2186 0cdd 45       		.byte	0x45
 2187 0cde EC0C0000 		.4byte	0xcec
 2188 0ce2 1F       		.uleb128 0x1f
 2189 0ce3 7000     		.ascii	"p\000"
 2190 0ce5 01       		.byte	0x1
 2191 0ce6 45       		.byte	0x45
 2192 0ce7 C1000000 		.4byte	0xc1
 2193 0ceb 00       		.byte	0
 2194 0cec 1B       		.uleb128 0x1b
 2195 0ced C7000000 		.4byte	0xc7
 2196 0cf1 FC0C0000 		.4byte	0xcfc
 2197 0cf5 1C       		.uleb128 0x1c
 2198 0cf6 B8000000 		.4byte	0xb8
 2199 0cfa 0F       		.byte	0xf
 2200 0cfb 00       		.byte	0
 2201 0cfc 20       		.uleb128 0x20
 2202 0cfd 0A030000 		.4byte	.LASF185
 2203 0d01 01       		.byte	0x1
 2204 0d02 5C       		.byte	0x5c
 2205 0d03 E4000000 		.4byte	0xe4
 2206 0d07 01       		.byte	0x1
 2207 0d08 2E0D0000 		.4byte	0xd2e
 2208 0d0c 1E       		.uleb128 0x1e
 2209 0d0d 6D736200 		.ascii	"msb\000"
 2210 0d11 01       		.byte	0x1
 2211 0d12 5C       		.byte	0x5c
 2212 0d13 D9000000 		.4byte	0xd9
 2213 0d17 1E       		.uleb128 0x1e
 2214 0d18 6C736200 		.ascii	"lsb\000"
 2215 0d1c 01       		.byte	0x1
 2216 0d1d 5C       		.byte	0x5c
 2217 0d1e D9000000 		.4byte	0xd9
 2218 0d22 21       		.uleb128 0x21
 2219 0d23 85040000 		.4byte	.LASF173
ARM GAS  /tmp/ccmPRfAK.s 			page 40


 2220 0d27 01       		.byte	0x1
 2221 0d28 5D       		.byte	0x5d
 2222 0d29 EF000000 		.4byte	0xef
 2223 0d2d 00       		.byte	0
 2224 0d2e 1D       		.uleb128 0x1d
 2225 0d2f 47060000 		.4byte	.LASF175
 2226 0d33 01       		.byte	0x1
 2227 0d34 39       		.byte	0x39
 2228 0d35 01       		.byte	0x1
 2229 0d36 440D0000 		.4byte	0xd44
 2230 0d3a 1E       		.uleb128 0x1e
 2231 0d3b 7000     		.ascii	"p\000"
 2232 0d3d 01       		.byte	0x1
 2233 0d3e 39       		.byte	0x39
 2234 0d3f C1000000 		.4byte	0xc1
 2235 0d43 00       		.byte	0
 2236 0d44 22       		.uleb128 0x22
 2237 0d45 61010000 		.4byte	.LASF201
 2238 0d49 01       		.byte	0x1
 2239 0d4a 2F       		.byte	0x2f
 2240 0d4b 00000000 		.4byte	.LFB111
 2241 0d4f 20000000 		.4byte	.LFE111-.LFB111
 2242 0d53 01       		.uleb128 0x1
 2243 0d54 9C       		.byte	0x9c
 2244 0d55 770D0000 		.4byte	0xd77
 2245 0d59 23       		.uleb128 0x23
 2246 0d5a 7000     		.ascii	"p\000"
 2247 0d5c 01       		.byte	0x1
 2248 0d5d 2F       		.byte	0x2f
 2249 0d5e C1000000 		.4byte	0xc1
 2250 0d62 00000000 		.4byte	.LLST0
 2251 0d66 24       		.uleb128 0x24
 2252 0d67 12000000 		.4byte	.LVL2
 2253 0d6b 91110000 		.4byte	0x1191
 2254 0d6f 25       		.uleb128 0x25
 2255 0d70 01       		.uleb128 0x1
 2256 0d71 52       		.byte	0x52
 2257 0d72 02       		.uleb128 0x2
 2258 0d73 09       		.byte	0x9
 2259 0d74 FF       		.byte	0xff
 2260 0d75 00       		.byte	0
 2261 0d76 00       		.byte	0
 2262 0d77 26       		.uleb128 0x26
 2263 0d78 C20C0000 		.4byte	0xcc2
 2264 0d7c 00000000 		.4byte	.LFB113
 2265 0d80 90000000 		.4byte	.LFE113-.LFB113
 2266 0d84 01       		.uleb128 0x1
 2267 0d85 9C       		.byte	0x9c
 2268 0d86 1E0E0000 		.4byte	0xe1e
 2269 0d8a 27       		.uleb128 0x27
 2270 0d8b CE0C0000 		.4byte	0xcce
 2271 0d8f 2B000000 		.4byte	.LLST1
 2272 0d93 28       		.uleb128 0x28
 2273 0d94 D70C0000 		.4byte	0xcd7
 2274 0d98 02       		.uleb128 0x2
 2275 0d99 91       		.byte	0x91
 2276 0d9a 60       		.sleb128 -32
ARM GAS  /tmp/ccmPRfAK.s 			page 41


 2277 0d9b 29       		.uleb128 0x29
 2278 0d9c E20C0000 		.4byte	0xce2
 2279 0da0 5A000000 		.4byte	.LLST2
 2280 0da4 2A       		.uleb128 0x2a
 2281 0da5 00000000 		.4byte	.Ldebug_ranges0+0
 2282 0da9 D90D0000 		.4byte	0xdd9
 2283 0dad 2B       		.uleb128 0x2b
 2284 0dae CE0C0000 		.4byte	0xcce
 2285 0db2 2C       		.uleb128 0x2c
 2286 0db3 00000000 		.4byte	.Ldebug_ranges0+0
 2287 0db7 2D       		.uleb128 0x2d
 2288 0db8 D70C0000 		.4byte	0xcd7
 2289 0dbc 2D       		.uleb128 0x2d
 2290 0dbd E20C0000 		.4byte	0xce2
 2291 0dc1 2E       		.uleb128 0x2e
 2292 0dc2 8C000000 		.4byte	.LVL18
 2293 0dc6 91110000 		.4byte	0x1191
 2294 0dca 25       		.uleb128 0x25
 2295 0dcb 01       		.uleb128 0x1
 2296 0dcc 52       		.byte	0x52
 2297 0dcd 02       		.uleb128 0x2
 2298 0dce 09       		.byte	0x9
 2299 0dcf FF       		.byte	0xff
 2300 0dd0 25       		.uleb128 0x25
 2301 0dd1 01       		.uleb128 0x1
 2302 0dd2 51       		.byte	0x51
 2303 0dd3 02       		.uleb128 0x2
 2304 0dd4 08       		.byte	0x8
 2305 0dd5 30       		.byte	0x30
 2306 0dd6 00       		.byte	0
 2307 0dd7 00       		.byte	0
 2308 0dd8 00       		.byte	0
 2309 0dd9 2F       		.uleb128 0x2f
 2310 0dda 14000000 		.4byte	.LVL7
 2311 0dde 91110000 		.4byte	0x1191
 2312 0de2 F30D0000 		.4byte	0xdf3
 2313 0de6 25       		.uleb128 0x25
 2314 0de7 01       		.uleb128 0x1
 2315 0de8 52       		.byte	0x52
 2316 0de9 02       		.uleb128 0x2
 2317 0dea 09       		.byte	0x9
 2318 0deb FF       		.byte	0xff
 2319 0dec 25       		.uleb128 0x25
 2320 0ded 01       		.uleb128 0x1
 2321 0dee 51       		.byte	0x51
 2322 0def 02       		.uleb128 0x2
 2323 0df0 08       		.byte	0x8
 2324 0df1 2B       		.byte	0x2b
 2325 0df2 00       		.byte	0
 2326 0df3 2F       		.uleb128 0x2f
 2327 0df4 60000000 		.4byte	.LVL13
 2328 0df8 91110000 		.4byte	0x1191
 2329 0dfc 070E0000 		.4byte	0xe07
 2330 0e00 25       		.uleb128 0x25
 2331 0e01 01       		.uleb128 0x1
 2332 0e02 52       		.byte	0x52
 2333 0e03 02       		.uleb128 0x2
ARM GAS  /tmp/ccmPRfAK.s 			page 42


 2334 0e04 09       		.byte	0x9
 2335 0e05 FF       		.byte	0xff
 2336 0e06 00       		.byte	0
 2337 0e07 24       		.uleb128 0x24
 2338 0e08 76000000 		.4byte	.LVL16
 2339 0e0c 91110000 		.4byte	0x1191
 2340 0e10 25       		.uleb128 0x25
 2341 0e11 01       		.uleb128 0x1
 2342 0e12 52       		.byte	0x52
 2343 0e13 02       		.uleb128 0x2
 2344 0e14 09       		.byte	0x9
 2345 0e15 FF       		.byte	0xff
 2346 0e16 25       		.uleb128 0x25
 2347 0e17 01       		.uleb128 0x1
 2348 0e18 51       		.byte	0x51
 2349 0e19 02       		.uleb128 0x2
 2350 0e1a 08       		.byte	0x8
 2351 0e1b 2D       		.byte	0x2d
 2352 0e1c 00       		.byte	0
 2353 0e1d 00       		.byte	0
 2354 0e1e 26       		.uleb128 0x26
 2355 0e1f FC0C0000 		.4byte	0xcfc
 2356 0e23 00000000 		.4byte	.LFB114
 2357 0e27 08000000 		.4byte	.LFE114-.LFB114
 2358 0e2b 01       		.uleb128 0x1
 2359 0e2c 9C       		.byte	0x9c
 2360 0e2d 4B0E0000 		.4byte	0xe4b
 2361 0e31 27       		.uleb128 0x27
 2362 0e32 0C0D0000 		.4byte	0xd0c
 2363 0e36 9D000000 		.4byte	.LLST3
 2364 0e3a 30       		.uleb128 0x30
 2365 0e3b 170D0000 		.4byte	0xd17
 2366 0e3f 01       		.uleb128 0x1
 2367 0e40 51       		.byte	0x51
 2368 0e41 29       		.uleb128 0x29
 2369 0e42 220D0000 		.4byte	0xd22
 2370 0e46 BE000000 		.4byte	.LLST4
 2371 0e4a 00       		.byte	0
 2372 0e4b 31       		.uleb128 0x31
 2373 0e4c 34080000 		.4byte	.LASF202
 2374 0e50 01       		.byte	0x1
 2375 0e51 6F       		.byte	0x6f
 2376 0e52 37000000 		.4byte	0x37
 2377 0e56 00000000 		.4byte	.LFB115
 2378 0e5a E0010000 		.4byte	.LFE115-.LFB115
 2379 0e5e 01       		.uleb128 0x1
 2380 0e5f 9C       		.byte	0x9c
 2381 0e60 D6100000 		.4byte	0x10d6
 2382 0e64 32       		.uleb128 0x32
 2383 0e65 D4070000 		.4byte	.LASF176
 2384 0e69 01       		.byte	0x1
 2385 0e6a 70       		.byte	0x70
 2386 0e6b 43010000 		.4byte	0x143
 2387 0e6f F7000000 		.4byte	.LLST5
 2388 0e73 33       		.uleb128 0x33
 2389 0e74 746D6F00 		.ascii	"tmo\000"
 2390 0e78 01       		.byte	0x1
ARM GAS  /tmp/ccmPRfAK.s 			page 43


 2391 0e79 71       		.byte	0x71
 2392 0e7a 64010000 		.4byte	0x164
 2393 0e7e 04       		.byte	0x4
 2394 0e7f 34       		.uleb128 0x34
 2395 0e80 FC0C0000 		.4byte	0xcfc
 2396 0e84 D8000000 		.4byte	.LBB22
 2397 0e88 18000000 		.4byte	.Ldebug_ranges0+0x18
 2398 0e8c 01       		.byte	0x1
 2399 0e8d A7       		.byte	0xa7
 2400 0e8e B40E0000 		.4byte	0xeb4
 2401 0e92 27       		.uleb128 0x27
 2402 0e93 170D0000 		.4byte	0xd17
 2403 0e97 4D010000 		.4byte	.LLST6
 2404 0e9b 27       		.uleb128 0x27
 2405 0e9c 0C0D0000 		.4byte	0xd0c
 2406 0ea0 64010000 		.4byte	.LLST7
 2407 0ea4 2C       		.uleb128 0x2c
 2408 0ea5 18000000 		.4byte	.Ldebug_ranges0+0x18
 2409 0ea9 29       		.uleb128 0x29
 2410 0eaa 220D0000 		.4byte	0xd22
 2411 0eae 7B010000 		.4byte	.LLST8
 2412 0eb2 00       		.byte	0
 2413 0eb3 00       		.byte	0
 2414 0eb4 34       		.uleb128 0x34
 2415 0eb5 FC0C0000 		.4byte	0xcfc
 2416 0eb9 DC000000 		.4byte	.LBB25
 2417 0ebd 30000000 		.4byte	.Ldebug_ranges0+0x30
 2418 0ec1 01       		.byte	0x1
 2419 0ec2 A6       		.byte	0xa6
 2420 0ec3 E90E0000 		.4byte	0xee9
 2421 0ec7 27       		.uleb128 0x27
 2422 0ec8 170D0000 		.4byte	0xd17
 2423 0ecc A5010000 		.4byte	.LLST9
 2424 0ed0 27       		.uleb128 0x27
 2425 0ed1 0C0D0000 		.4byte	0xd0c
 2426 0ed5 BC010000 		.4byte	.LLST10
 2427 0ed9 2C       		.uleb128 0x2c
 2428 0eda 30000000 		.4byte	.Ldebug_ranges0+0x30
 2429 0ede 29       		.uleb128 0x29
 2430 0edf 220D0000 		.4byte	0xd22
 2431 0ee3 D3010000 		.4byte	.LLST11
 2432 0ee7 00       		.byte	0
 2433 0ee8 00       		.byte	0
 2434 0ee9 34       		.uleb128 0x34
 2435 0eea FC0C0000 		.4byte	0xcfc
 2436 0eee E0000000 		.4byte	.LBB29
 2437 0ef2 50000000 		.4byte	.Ldebug_ranges0+0x50
 2438 0ef6 01       		.byte	0x1
 2439 0ef7 A8       		.byte	0xa8
 2440 0ef8 1E0F0000 		.4byte	0xf1e
 2441 0efc 27       		.uleb128 0x27
 2442 0efd 170D0000 		.4byte	0xd17
 2443 0f01 FD010000 		.4byte	.LLST12
 2444 0f05 27       		.uleb128 0x27
 2445 0f06 0C0D0000 		.4byte	0xd0c
 2446 0f0a 14020000 		.4byte	.LLST13
 2447 0f0e 2C       		.uleb128 0x2c
ARM GAS  /tmp/ccmPRfAK.s 			page 44


 2448 0f0f 50000000 		.4byte	.Ldebug_ranges0+0x50
 2449 0f13 29       		.uleb128 0x29
 2450 0f14 220D0000 		.4byte	0xd22
 2451 0f18 2B020000 		.4byte	.LLST14
 2452 0f1c 00       		.byte	0
 2453 0f1d 00       		.byte	0
 2454 0f1e 35       		.uleb128 0x35
 2455 0f1f 2E0D0000 		.4byte	0xd2e
 2456 0f23 42010000 		.4byte	.LBB38
 2457 0f27 14000000 		.4byte	.LBE38-.LBB38
 2458 0f2b 01       		.byte	0x1
 2459 0f2c B0       		.byte	0xb0
 2460 0f2d 550F0000 		.4byte	0xf55
 2461 0f31 2B       		.uleb128 0x2b
 2462 0f32 3A0D0000 		.4byte	0xd3a
 2463 0f36 24       		.uleb128 0x24
 2464 0f37 56010000 		.4byte	.LVL43
 2465 0f3b B7110000 		.4byte	0x11b7
 2466 0f3f 25       		.uleb128 0x25
 2467 0f40 01       		.uleb128 0x1
 2468 0f41 53       		.byte	0x53
 2469 0f42 02       		.uleb128 0x2
 2470 0f43 09       		.byte	0x9
 2471 0f44 FF       		.byte	0xff
 2472 0f45 25       		.uleb128 0x25
 2473 0f46 01       		.uleb128 0x1
 2474 0f47 52       		.byte	0x52
 2475 0f48 01       		.uleb128 0x1
 2476 0f49 32       		.byte	0x32
 2477 0f4a 25       		.uleb128 0x25
 2478 0f4b 01       		.uleb128 0x1
 2479 0f4c 51       		.byte	0x51
 2480 0f4d 05       		.uleb128 0x5
 2481 0f4e 03       		.byte	0x3
 2482 0f4f 14000000 		.4byte	.LC3
 2483 0f53 00       		.byte	0
 2484 0f54 00       		.byte	0
 2485 0f55 36       		.uleb128 0x36
 2486 0f56 0A000000 		.4byte	.LVL22
 2487 0f5a DC110000 		.4byte	0x11dc
 2488 0f5e 36       		.uleb128 0x36
 2489 0f5f 0E000000 		.4byte	.LVL23
 2490 0f63 E3110000 		.4byte	0x11e3
 2491 0f67 2F       		.uleb128 0x2f
 2492 0f68 22000000 		.4byte	.LVL24
 2493 0f6c EA110000 		.4byte	0x11ea
 2494 0f70 7E0F0000 		.4byte	0xf7e
 2495 0f74 25       		.uleb128 0x25
 2496 0f75 01       		.uleb128 0x1
 2497 0f76 51       		.byte	0x51
 2498 0f77 05       		.uleb128 0x5
 2499 0f78 03       		.byte	0x3
 2500 0f79 00000000 		.4byte	.LANCHOR0
 2501 0f7d 00       		.byte	0
 2502 0f7e 2F       		.uleb128 0x2f
 2503 0f7f 30000000 		.4byte	.LVL25
 2504 0f83 06120000 		.4byte	0x1206
ARM GAS  /tmp/ccmPRfAK.s 			page 45


 2505 0f87 910F0000 		.4byte	0xf91
 2506 0f8b 25       		.uleb128 0x25
 2507 0f8c 01       		.uleb128 0x1
 2508 0f8d 51       		.byte	0x51
 2509 0f8e 01       		.uleb128 0x1
 2510 0f8f 30       		.byte	0x30
 2511 0f90 00       		.byte	0
 2512 0f91 2F       		.uleb128 0x2f
 2513 0f92 40000000 		.4byte	.LVL26
 2514 0f96 2E120000 		.4byte	0x122e
 2515 0f9a AB0F0000 		.4byte	0xfab
 2516 0f9e 25       		.uleb128 0x25
 2517 0f9f 01       		.uleb128 0x1
 2518 0fa0 52       		.byte	0x52
 2519 0fa1 03       		.uleb128 0x3
 2520 0fa2 0A       		.byte	0xa
 2521 0fa3 8203     		.2byte	0x382
 2522 0fa5 25       		.uleb128 0x25
 2523 0fa6 01       		.uleb128 0x1
 2524 0fa7 51       		.byte	0x51
 2525 0fa8 01       		.uleb128 0x1
 2526 0fa9 34       		.byte	0x34
 2527 0faa 00       		.byte	0
 2528 0fab 2F       		.uleb128 0x2f
 2529 0fac 54000000 		.4byte	.LVL27
 2530 0fb0 2E120000 		.4byte	0x122e
 2531 0fb4 C50F0000 		.4byte	0xfc5
 2532 0fb8 25       		.uleb128 0x25
 2533 0fb9 01       		.uleb128 0x1
 2534 0fba 52       		.byte	0x52
 2535 0fbb 03       		.uleb128 0x3
 2536 0fbc 0A       		.byte	0xa
 2537 0fbd 8203     		.2byte	0x382
 2538 0fbf 25       		.uleb128 0x25
 2539 0fc0 01       		.uleb128 0x1
 2540 0fc1 51       		.byte	0x51
 2541 0fc2 01       		.uleb128 0x1
 2542 0fc3 38       		.byte	0x38
 2543 0fc4 00       		.byte	0
 2544 0fc5 36       		.uleb128 0x36
 2545 0fc6 78000000 		.4byte	.LVL28
 2546 0fca 4A120000 		.4byte	0x124a
 2547 0fce 2F       		.uleb128 0x2f
 2548 0fcf 94000000 		.4byte	.LVL29
 2549 0fd3 5B120000 		.4byte	0x125b
 2550 0fd7 FF0F0000 		.4byte	0xfff
 2551 0fdb 25       		.uleb128 0x25
 2552 0fdc 01       		.uleb128 0x1
 2553 0fdd 53       		.byte	0x53
 2554 0fde 01       		.uleb128 0x1
 2555 0fdf 32       		.byte	0x32
 2556 0fe0 25       		.uleb128 0x25
 2557 0fe1 01       		.uleb128 0x1
 2558 0fe2 52       		.byte	0x52
 2559 0fe3 02       		.uleb128 0x2
 2560 0fe4 7A       		.byte	0x7a
 2561 0fe5 00       		.sleb128 0
ARM GAS  /tmp/ccmPRfAK.s 			page 46


 2562 0fe6 25       		.uleb128 0x25
 2563 0fe7 01       		.uleb128 0x1
 2564 0fe8 51       		.byte	0x51
 2565 0fe9 01       		.uleb128 0x1
 2566 0fea 4C       		.byte	0x4c
 2567 0feb 25       		.uleb128 0x25
 2568 0fec 02       		.uleb128 0x2
 2569 0fed 7D       		.byte	0x7d
 2570 0fee 08       		.sleb128 8
 2571 0fef 01       		.uleb128 0x1
 2572 0ff0 34       		.byte	0x34
 2573 0ff1 25       		.uleb128 0x25
 2574 0ff2 02       		.uleb128 0x2
 2575 0ff3 7D       		.byte	0x7d
 2576 0ff4 04       		.sleb128 4
 2577 0ff5 01       		.uleb128 0x1
 2578 0ff6 30       		.byte	0x30
 2579 0ff7 25       		.uleb128 0x25
 2580 0ff8 02       		.uleb128 0x2
 2581 0ff9 7D       		.byte	0x7d
 2582 0ffa 00       		.sleb128 0
 2583 0ffb 02       		.uleb128 0x2
 2584 0ffc 74       		.byte	0x74
 2585 0ffd 00       		.sleb128 0
 2586 0ffe 00       		.byte	0
 2587 0fff 36       		.uleb128 0x36
 2588 1000 A2000000 		.4byte	.LVL32
 2589 1004 8E120000 		.4byte	0x128e
 2590 1008 2F       		.uleb128 0x2f
 2591 1009 0A010000 		.4byte	.LVL37
 2592 100d 440D0000 		.4byte	0xd44
 2593 1011 1F100000 		.4byte	0x101f
 2594 1015 25       		.uleb128 0x25
 2595 1016 01       		.uleb128 0x1
 2596 1017 50       		.byte	0x50
 2597 1018 05       		.uleb128 0x5
 2598 1019 03       		.byte	0x3
 2599 101a 00000000 		.4byte	.LC0
 2600 101e 00       		.byte	0
 2601 101f 36       		.uleb128 0x36
 2602 1020 12010000 		.4byte	.LVL38
 2603 1024 C20C0000 		.4byte	0xcc2
 2604 1028 2F       		.uleb128 0x2f
 2605 1029 1E010000 		.4byte	.LVL39
 2606 102d 440D0000 		.4byte	0xd44
 2607 1031 3F100000 		.4byte	0x103f
 2608 1035 25       		.uleb128 0x25
 2609 1036 01       		.uleb128 0x1
 2610 1037 50       		.byte	0x50
 2611 1038 05       		.uleb128 0x5
 2612 1039 03       		.byte	0x3
 2613 103a 04000000 		.4byte	.LC1
 2614 103e 00       		.byte	0
 2615 103f 36       		.uleb128 0x36
 2616 1040 2E010000 		.4byte	.LVL40
 2617 1044 C20C0000 		.4byte	0xcc2
 2618 1048 2F       		.uleb128 0x2f
ARM GAS  /tmp/ccmPRfAK.s 			page 47


 2619 1049 3A010000 		.4byte	.LVL41
 2620 104d 440D0000 		.4byte	0xd44
 2621 1051 5F100000 		.4byte	0x105f
 2622 1055 25       		.uleb128 0x25
 2623 1056 01       		.uleb128 0x1
 2624 1057 50       		.byte	0x50
 2625 1058 05       		.uleb128 0x5
 2626 1059 03       		.byte	0x3
 2627 105a 0C000000 		.4byte	.LC2
 2628 105e 00       		.byte	0
 2629 105f 36       		.uleb128 0x36
 2630 1060 42010000 		.4byte	.LVL42
 2631 1064 C20C0000 		.4byte	0xcc2
 2632 1068 2F       		.uleb128 0x2f
 2633 1069 64010000 		.4byte	.LVL44
 2634 106d 9F120000 		.4byte	0x129f
 2635 1071 7C100000 		.4byte	0x107c
 2636 1075 25       		.uleb128 0x25
 2637 1076 01       		.uleb128 0x1
 2638 1077 50       		.byte	0x50
 2639 1078 02       		.uleb128 0x2
 2640 1079 08       		.byte	0x8
 2641 107a 64       		.byte	0x64
 2642 107b 00       		.byte	0
 2643 107c 36       		.uleb128 0x36
 2644 107d 78010000 		.4byte	.LVL45
 2645 1081 4A120000 		.4byte	0x124a
 2646 1085 2F       		.uleb128 0x2f
 2647 1086 9C010000 		.4byte	.LVL46
 2648 108a 5B120000 		.4byte	0x125b
 2649 108e BA100000 		.4byte	0x10ba
 2650 1092 25       		.uleb128 0x25
 2651 1093 01       		.uleb128 0x1
 2652 1094 53       		.byte	0x53
 2653 1095 02       		.uleb128 0x2
 2654 1096 7A       		.byte	0x7a
 2655 1097 00       		.sleb128 0
 2656 1098 25       		.uleb128 0x25
 2657 1099 01       		.uleb128 0x1
 2658 109a 52       		.byte	0x52
 2659 109b 05       		.uleb128 0x5
 2660 109c 03       		.byte	0x3
 2661 109d 00000000 		.4byte	.LANCHOR1
 2662 10a1 25       		.uleb128 0x25
 2663 10a2 01       		.uleb128 0x1
 2664 10a3 51       		.byte	0x51
 2665 10a4 01       		.uleb128 0x1
 2666 10a5 4C       		.byte	0x4c
 2667 10a6 25       		.uleb128 0x25
 2668 10a7 02       		.uleb128 0x2
 2669 10a8 7D       		.byte	0x7d
 2670 10a9 08       		.sleb128 8
 2671 10aa 01       		.uleb128 0x1
 2672 10ab 34       		.byte	0x34
 2673 10ac 25       		.uleb128 0x25
 2674 10ad 02       		.uleb128 0x2
 2675 10ae 7D       		.byte	0x7d
ARM GAS  /tmp/ccmPRfAK.s 			page 48


 2676 10af 04       		.sleb128 4
 2677 10b0 01       		.uleb128 0x1
 2678 10b1 36       		.byte	0x36
 2679 10b2 25       		.uleb128 0x25
 2680 10b3 02       		.uleb128 0x2
 2681 10b4 7D       		.byte	0x7d
 2682 10b5 00       		.sleb128 0
 2683 10b6 02       		.uleb128 0x2
 2684 10b7 74       		.byte	0x74
 2685 10b8 00       		.sleb128 0
 2686 10b9 00       		.byte	0
 2687 10ba 36       		.uleb128 0x36
 2688 10bb AA010000 		.4byte	.LVL49
 2689 10bf 8E120000 		.4byte	0x128e
 2690 10c3 36       		.uleb128 0x36
 2691 10c4 BC010000 		.4byte	.LVL50
 2692 10c8 B1120000 		.4byte	0x12b1
 2693 10cc 36       		.uleb128 0x36
 2694 10cd CE010000 		.4byte	.LVL52
 2695 10d1 B1120000 		.4byte	0x12b1
 2696 10d5 00       		.byte	0
 2697 10d6 1B       		.uleb128 0x1b
 2698 10d7 D9000000 		.4byte	0xd9
 2699 10db E6100000 		.4byte	0x10e6
 2700 10df 1C       		.uleb128 0x1c
 2701 10e0 B8000000 		.4byte	0xb8
 2702 10e4 05       		.byte	0x5
 2703 10e5 00       		.byte	0
 2704 10e6 37       		.uleb128 0x37
 2705 10e7 7C010000 		.4byte	.LASF177
 2706 10eb 01       		.byte	0x1
 2707 10ec 26       		.byte	0x26
 2708 10ed D6100000 		.4byte	0x10d6
 2709 10f1 05       		.uleb128 0x5
 2710 10f2 03       		.byte	0x3
 2711 10f3 00000000 		.4byte	rxbuf
 2712 10f7 1B       		.uleb128 0x1b
 2713 10f8 D9000000 		.4byte	0xd9
 2714 10fc 07110000 		.4byte	0x1107
 2715 1100 1C       		.uleb128 0x1c
 2716 1101 B8000000 		.4byte	0xb8
 2717 1105 03       		.byte	0x3
 2718 1106 00       		.byte	0
 2719 1107 37       		.uleb128 0x37
 2720 1108 CC020000 		.4byte	.LASF178
 2721 110c 01       		.byte	0x1
 2722 110d 27       		.byte	0x27
 2723 110e F7100000 		.4byte	0x10f7
 2724 1112 05       		.uleb128 0x5
 2725 1113 03       		.byte	0x3
 2726 1114 00000000 		.4byte	txbuf
 2727 1118 37       		.uleb128 0x37
 2728 1119 E9020000 		.4byte	.LASF147
 2729 111d 01       		.byte	0x1
 2730 111e 28       		.byte	0x28
 2731 111f F6090000 		.4byte	0x9f6
 2732 1123 05       		.uleb128 0x5
ARM GAS  /tmp/ccmPRfAK.s 			page 49


 2733 1124 03       		.byte	0x3
 2734 1125 00000000 		.4byte	errors
 2735 1129 37       		.uleb128 0x37
 2736 112a 38060000 		.4byte	.LASF179
 2737 112e 01       		.byte	0x1
 2738 112f 29       		.byte	0x29
 2739 1130 E4000000 		.4byte	0xe4
 2740 1134 05       		.uleb128 0x5
 2741 1135 03       		.byte	0x3
 2742 1136 00000000 		.4byte	acceleration_x
 2743 113a 37       		.uleb128 0x37
 2744 113b 52080000 		.4byte	.LASF180
 2745 113f 01       		.byte	0x1
 2746 1140 29       		.byte	0x29
 2747 1141 E4000000 		.4byte	0xe4
 2748 1145 05       		.uleb128 0x5
 2749 1146 03       		.byte	0x3
 2750 1147 00000000 		.4byte	acceleration_y
 2751 114b 37       		.uleb128 0x37
 2752 114c 61080000 		.4byte	.LASF181
 2753 1150 01       		.byte	0x1
 2754 1151 29       		.byte	0x29
 2755 1152 E4000000 		.4byte	0xe4
 2756 1156 05       		.uleb128 0x5
 2757 1157 03       		.byte	0x3
 2758 1158 00000000 		.4byte	acceleration_z
 2759 115c 37       		.uleb128 0x37
 2760 115d 27050000 		.4byte	.LASF182
 2761 1161 01       		.byte	0x1
 2762 1162 66       		.byte	0x66
 2763 1163 3E0B0000 		.4byte	0xb3e
 2764 1167 05       		.uleb128 0x5
 2765 1168 03       		.byte	0x3
 2766 1169 00000000 		.4byte	i2cfg2
 2767 116d 38       		.uleb128 0x38
 2768 116e DA050000 		.4byte	.LASF183
 2769 1172 13       		.byte	0x13
 2770 1173 9806     		.2byte	0x698
 2771 1175 96050000 		.4byte	0x596
 2772 1179 38       		.uleb128 0x38
 2773 117a CE060000 		.4byte	.LASF184
 2774 117e 10       		.byte	0x10
 2775 117f B201     		.2byte	0x1b2
 2776 1181 8F0A0000 		.4byte	0xa8f
 2777 1185 39       		.uleb128 0x39
 2778 1186 53443200 		.ascii	"SD2\000"
 2779 118a 12       		.byte	0x12
 2780 118b 1201     		.2byte	0x112
 2781 118d 7A0B0000 		.4byte	0xb7a
 2782 1191 3A       		.uleb128 0x3a
 2783 1192 15000000 		.4byte	.LASF186
 2784 1196 0B       		.byte	0xb
 2785 1197 6D01     		.2byte	0x16d
 2786 1199 43010000 		.4byte	0x143
 2787 119d B1110000 		.4byte	0x11b1
 2788 11a1 12       		.uleb128 0x12
 2789 11a2 B1110000 		.4byte	0x11b1
ARM GAS  /tmp/ccmPRfAK.s 			page 50


 2790 11a6 12       		.uleb128 0x12
 2791 11a7 D9000000 		.4byte	0xd9
 2792 11ab 12       		.uleb128 0x12
 2793 11ac 64010000 		.4byte	0x164
 2794 11b0 00       		.byte	0
 2795 11b1 06       		.uleb128 0x6
 2796 11b2 04       		.byte	0x4
 2797 11b3 23050000 		.4byte	0x523
 2798 11b7 3A       		.uleb128 0x3a
 2799 11b8 37040000 		.4byte	.LASF187
 2800 11bc 0B       		.byte	0xb
 2801 11bd 6F01     		.2byte	0x16f
 2802 11bf 25000000 		.4byte	0x25
 2803 11c3 DC110000 		.4byte	0x11dc
 2804 11c7 12       		.uleb128 0x12
 2805 11c8 B1110000 		.4byte	0x11b1
 2806 11cc 12       		.uleb128 0x12
 2807 11cd 47050000 		.4byte	0x547
 2808 11d1 12       		.uleb128 0x12
 2809 11d2 25000000 		.4byte	0x25
 2810 11d6 12       		.uleb128 0x12
 2811 11d7 64010000 		.4byte	0x164
 2812 11db 00       		.byte	0
 2813 11dc 3B       		.uleb128 0x3b
 2814 11dd 02030000 		.4byte	.LASF188
 2815 11e1 14       		.byte	0x14
 2816 11e2 D0       		.byte	0xd0
 2817 11e3 3B       		.uleb128 0x3b
 2818 11e4 D1010000 		.4byte	.LASF189
 2819 11e8 15       		.byte	0x15
 2820 11e9 F6       		.byte	0xf6
 2821 11ea 3C       		.uleb128 0x3c
 2822 11eb 6B040000 		.4byte	.LASF190
 2823 11ef 0F       		.byte	0xf
 2824 11f0 81       		.byte	0x81
 2825 11f1 00120000 		.4byte	0x1200
 2826 11f5 12       		.uleb128 0x12
 2827 11f6 00120000 		.4byte	0x1200
 2828 11fa 12       		.uleb128 0x12
 2829 11fb 380B0000 		.4byte	0xb38
 2830 11ff 00       		.byte	0
 2831 1200 06       		.uleb128 0x6
 2832 1201 04       		.byte	0x4
 2833 1202 8F0A0000 		.4byte	0xa8f
 2834 1206 3D       		.uleb128 0x3d
 2835 1207 17070000 		.4byte	.LASF191
 2836 120b 11       		.byte	0x11
 2837 120c 3701     		.2byte	0x137
 2838 120e 1D120000 		.4byte	0x121d
 2839 1212 12       		.uleb128 0x12
 2840 1213 1D120000 		.4byte	0x121d
 2841 1217 12       		.uleb128 0x12
 2842 1218 23120000 		.4byte	0x1223
 2843 121c 00       		.byte	0
 2844 121d 06       		.uleb128 0x6
 2845 121e 04       		.byte	0x4
 2846 121f 7A0B0000 		.4byte	0xb7a
ARM GAS  /tmp/ccmPRfAK.s 			page 51


 2847 1223 06       		.uleb128 0x6
 2848 1224 04       		.byte	0x4
 2849 1225 29120000 		.4byte	0x1229
 2850 1229 07       		.uleb128 0x7
 2851 122a 290C0000 		.4byte	0xc29
 2852 122e 3D       		.uleb128 0x3d
 2853 122f 85070000 		.4byte	.LASF192
 2854 1233 0E       		.byte	0xe
 2855 1234 C201     		.2byte	0x1c2
 2856 1236 4A120000 		.4byte	0x124a
 2857 123a 12       		.uleb128 0x12
 2858 123b A1090000 		.4byte	0x9a1
 2859 123f 12       		.uleb128 0x12
 2860 1240 8B090000 		.4byte	0x98b
 2861 1244 12       		.uleb128 0x12
 2862 1245 96090000 		.4byte	0x996
 2863 1249 00       		.byte	0
 2864 124a 3C       		.uleb128 0x3c
 2865 124b C6070000 		.4byte	.LASF193
 2866 124f 0F       		.byte	0xf
 2867 1250 8E       		.byte	0x8e
 2868 1251 5B120000 		.4byte	0x125b
 2869 1255 12       		.uleb128 0x12
 2870 1256 00120000 		.4byte	0x1200
 2871 125a 00       		.byte	0
 2872 125b 3E       		.uleb128 0x3e
 2873 125c 89010000 		.4byte	.LASF194
 2874 1260 0F       		.byte	0xf
 2875 1261 84       		.byte	0x84
 2876 1262 43010000 		.4byte	0x143
 2877 1266 8E120000 		.4byte	0x128e
 2878 126a 12       		.uleb128 0x12
 2879 126b 00120000 		.4byte	0x1200
 2880 126f 12       		.uleb128 0x12
 2881 1270 EA090000 		.4byte	0x9ea
 2882 1274 12       		.uleb128 0x12
 2883 1275 47050000 		.4byte	0x547
 2884 1279 12       		.uleb128 0x12
 2885 127a 25000000 		.4byte	0x25
 2886 127e 12       		.uleb128 0x12
 2887 127f 12050000 		.4byte	0x512
 2888 1283 12       		.uleb128 0x12
 2889 1284 25000000 		.4byte	0x25
 2890 1288 12       		.uleb128 0x12
 2891 1289 64010000 		.4byte	0x164
 2892 128d 00       		.byte	0
 2893 128e 3C       		.uleb128 0x3c
 2894 128f 67010000 		.4byte	.LASF195
 2895 1293 0F       		.byte	0xf
 2896 1294 8F       		.byte	0x8f
 2897 1295 9F120000 		.4byte	0x129f
 2898 1299 12       		.uleb128 0x12
 2899 129a 00120000 		.4byte	0x1200
 2900 129e 00       		.byte	0
 2901 129f 3D       		.uleb128 0x3d
 2902 12a0 FA040000 		.4byte	.LASF196
 2903 12a4 07       		.byte	0x7
ARM GAS  /tmp/ccmPRfAK.s 			page 52


 2904 12a5 7501     		.2byte	0x175
 2905 12a7 B1120000 		.4byte	0x12b1
 2906 12ab 12       		.uleb128 0x12
 2907 12ac 64010000 		.4byte	0x164
 2908 12b0 00       		.byte	0
 2909 12b1 3F       		.uleb128 0x3f
 2910 12b2 0D060000 		.4byte	.LASF197
 2911 12b6 0F       		.byte	0xf
 2912 12b7 83       		.byte	0x83
 2913 12b8 F6090000 		.4byte	0x9f6
 2914 12bc 12       		.uleb128 0x12
 2915 12bd 00120000 		.4byte	0x1200
 2916 12c1 00       		.byte	0
 2917 12c2 00       		.byte	0
 2918              		.section	.debug_abbrev,"",%progbits
 2919              	.Ldebug_abbrev0:
 2920 0000 01       		.uleb128 0x1
 2921 0001 11       		.uleb128 0x11
 2922 0002 01       		.byte	0x1
 2923 0003 25       		.uleb128 0x25
 2924 0004 0E       		.uleb128 0xe
 2925 0005 13       		.uleb128 0x13
 2926 0006 0B       		.uleb128 0xb
 2927 0007 03       		.uleb128 0x3
 2928 0008 0E       		.uleb128 0xe
 2929 0009 1B       		.uleb128 0x1b
 2930 000a 0E       		.uleb128 0xe
 2931 000b 55       		.uleb128 0x55
 2932 000c 17       		.uleb128 0x17
 2933 000d 11       		.uleb128 0x11
 2934 000e 01       		.uleb128 0x1
 2935 000f 10       		.uleb128 0x10
 2936 0010 17       		.uleb128 0x17
 2937 0011 00       		.byte	0
 2938 0012 00       		.byte	0
 2939 0013 02       		.uleb128 0x2
 2940 0014 16       		.uleb128 0x16
 2941 0015 00       		.byte	0
 2942 0016 03       		.uleb128 0x3
 2943 0017 0E       		.uleb128 0xe
 2944 0018 3A       		.uleb128 0x3a
 2945 0019 0B       		.uleb128 0xb
 2946 001a 3B       		.uleb128 0x3b
 2947 001b 0B       		.uleb128 0xb
 2948 001c 49       		.uleb128 0x49
 2949 001d 13       		.uleb128 0x13
 2950 001e 00       		.byte	0
 2951 001f 00       		.byte	0
 2952 0020 03       		.uleb128 0x3
 2953 0021 24       		.uleb128 0x24
 2954 0022 00       		.byte	0
 2955 0023 0B       		.uleb128 0xb
 2956 0024 0B       		.uleb128 0xb
 2957 0025 3E       		.uleb128 0x3e
 2958 0026 0B       		.uleb128 0xb
 2959 0027 03       		.uleb128 0x3
 2960 0028 0E       		.uleb128 0xe
ARM GAS  /tmp/ccmPRfAK.s 			page 53


 2961 0029 00       		.byte	0
 2962 002a 00       		.byte	0
 2963 002b 04       		.uleb128 0x4
 2964 002c 24       		.uleb128 0x24
 2965 002d 00       		.byte	0
 2966 002e 0B       		.uleb128 0xb
 2967 002f 0B       		.uleb128 0xb
 2968 0030 3E       		.uleb128 0x3e
 2969 0031 0B       		.uleb128 0xb
 2970 0032 03       		.uleb128 0x3
 2971 0033 08       		.uleb128 0x8
 2972 0034 00       		.byte	0
 2973 0035 00       		.byte	0
 2974 0036 05       		.uleb128 0x5
 2975 0037 0F       		.uleb128 0xf
 2976 0038 00       		.byte	0
 2977 0039 0B       		.uleb128 0xb
 2978 003a 0B       		.uleb128 0xb
 2979 003b 00       		.byte	0
 2980 003c 00       		.byte	0
 2981 003d 06       		.uleb128 0x6
 2982 003e 0F       		.uleb128 0xf
 2983 003f 00       		.byte	0
 2984 0040 0B       		.uleb128 0xb
 2985 0041 0B       		.uleb128 0xb
 2986 0042 49       		.uleb128 0x49
 2987 0043 13       		.uleb128 0x13
 2988 0044 00       		.byte	0
 2989 0045 00       		.byte	0
 2990 0046 07       		.uleb128 0x7
 2991 0047 26       		.uleb128 0x26
 2992 0048 00       		.byte	0
 2993 0049 49       		.uleb128 0x49
 2994 004a 13       		.uleb128 0x13
 2995 004b 00       		.byte	0
 2996 004c 00       		.byte	0
 2997 004d 08       		.uleb128 0x8
 2998 004e 13       		.uleb128 0x13
 2999 004f 01       		.byte	0x1
 3000 0050 03       		.uleb128 0x3
 3001 0051 0E       		.uleb128 0xe
 3002 0052 0B       		.uleb128 0xb
 3003 0053 0B       		.uleb128 0xb
 3004 0054 3A       		.uleb128 0x3a
 3005 0055 0B       		.uleb128 0xb
 3006 0056 3B       		.uleb128 0x3b
 3007 0057 0B       		.uleb128 0xb
 3008 0058 01       		.uleb128 0x1
 3009 0059 13       		.uleb128 0x13
 3010 005a 00       		.byte	0
 3011 005b 00       		.byte	0
 3012 005c 09       		.uleb128 0x9
 3013 005d 0D       		.uleb128 0xd
 3014 005e 00       		.byte	0
 3015 005f 03       		.uleb128 0x3
 3016 0060 0E       		.uleb128 0xe
 3017 0061 3A       		.uleb128 0x3a
ARM GAS  /tmp/ccmPRfAK.s 			page 54


 3018 0062 0B       		.uleb128 0xb
 3019 0063 3B       		.uleb128 0x3b
 3020 0064 0B       		.uleb128 0xb
 3021 0065 49       		.uleb128 0x49
 3022 0066 13       		.uleb128 0x13
 3023 0067 38       		.uleb128 0x38
 3024 0068 0B       		.uleb128 0xb
 3025 0069 00       		.byte	0
 3026 006a 00       		.byte	0
 3027 006b 0A       		.uleb128 0xa
 3028 006c 0D       		.uleb128 0xd
 3029 006d 00       		.byte	0
 3030 006e 03       		.uleb128 0x3
 3031 006f 08       		.uleb128 0x8
 3032 0070 3A       		.uleb128 0x3a
 3033 0071 0B       		.uleb128 0xb
 3034 0072 3B       		.uleb128 0x3b
 3035 0073 0B       		.uleb128 0xb
 3036 0074 49       		.uleb128 0x49
 3037 0075 13       		.uleb128 0x13
 3038 0076 38       		.uleb128 0x38
 3039 0077 0B       		.uleb128 0xb
 3040 0078 00       		.byte	0
 3041 0079 00       		.byte	0
 3042 007a 0B       		.uleb128 0xb
 3043 007b 13       		.uleb128 0x13
 3044 007c 01       		.byte	0x1
 3045 007d 0B       		.uleb128 0xb
 3046 007e 0B       		.uleb128 0xb
 3047 007f 3A       		.uleb128 0x3a
 3048 0080 0B       		.uleb128 0xb
 3049 0081 3B       		.uleb128 0x3b
 3050 0082 0B       		.uleb128 0xb
 3051 0083 01       		.uleb128 0x1
 3052 0084 13       		.uleb128 0x13
 3053 0085 00       		.byte	0
 3054 0086 00       		.byte	0
 3055 0087 0C       		.uleb128 0xc
 3056 0088 13       		.uleb128 0x13
 3057 0089 01       		.byte	0x1
 3058 008a 03       		.uleb128 0x3
 3059 008b 0E       		.uleb128 0xe
 3060 008c 0B       		.uleb128 0xb
 3061 008d 0B       		.uleb128 0xb
 3062 008e 3A       		.uleb128 0x3a
 3063 008f 0B       		.uleb128 0xb
 3064 0090 3B       		.uleb128 0x3b
 3065 0091 05       		.uleb128 0x5
 3066 0092 01       		.uleb128 0x1
 3067 0093 13       		.uleb128 0x13
 3068 0094 00       		.byte	0
 3069 0095 00       		.byte	0
 3070 0096 0D       		.uleb128 0xd
 3071 0097 0D       		.uleb128 0xd
 3072 0098 00       		.byte	0
 3073 0099 03       		.uleb128 0x3
 3074 009a 08       		.uleb128 0x8
ARM GAS  /tmp/ccmPRfAK.s 			page 55


 3075 009b 3A       		.uleb128 0x3a
 3076 009c 0B       		.uleb128 0xb
 3077 009d 3B       		.uleb128 0x3b
 3078 009e 05       		.uleb128 0x5
 3079 009f 49       		.uleb128 0x49
 3080 00a0 13       		.uleb128 0x13
 3081 00a1 38       		.uleb128 0x38
 3082 00a2 0B       		.uleb128 0xb
 3083 00a3 00       		.byte	0
 3084 00a4 00       		.byte	0
 3085 00a5 0E       		.uleb128 0xe
 3086 00a6 35       		.uleb128 0x35
 3087 00a7 00       		.byte	0
 3088 00a8 49       		.uleb128 0x49
 3089 00a9 13       		.uleb128 0x13
 3090 00aa 00       		.byte	0
 3091 00ab 00       		.byte	0
 3092 00ac 0F       		.uleb128 0xf
 3093 00ad 17       		.uleb128 0x17
 3094 00ae 01       		.byte	0x1
 3095 00af 0B       		.uleb128 0xb
 3096 00b0 0B       		.uleb128 0xb
 3097 00b1 3A       		.uleb128 0x3a
 3098 00b2 0B       		.uleb128 0xb
 3099 00b3 3B       		.uleb128 0x3b
 3100 00b4 0B       		.uleb128 0xb
 3101 00b5 01       		.uleb128 0x1
 3102 00b6 13       		.uleb128 0x13
 3103 00b7 00       		.byte	0
 3104 00b8 00       		.byte	0
 3105 00b9 10       		.uleb128 0x10
 3106 00ba 0D       		.uleb128 0xd
 3107 00bb 00       		.byte	0
 3108 00bc 03       		.uleb128 0x3
 3109 00bd 0E       		.uleb128 0xe
 3110 00be 3A       		.uleb128 0x3a
 3111 00bf 0B       		.uleb128 0xb
 3112 00c0 3B       		.uleb128 0x3b
 3113 00c1 0B       		.uleb128 0xb
 3114 00c2 49       		.uleb128 0x49
 3115 00c3 13       		.uleb128 0x13
 3116 00c4 00       		.byte	0
 3117 00c5 00       		.byte	0
 3118 00c6 11       		.uleb128 0x11
 3119 00c7 15       		.uleb128 0x15
 3120 00c8 01       		.byte	0x1
 3121 00c9 27       		.uleb128 0x27
 3122 00ca 19       		.uleb128 0x19
 3123 00cb 49       		.uleb128 0x49
 3124 00cc 13       		.uleb128 0x13
 3125 00cd 01       		.uleb128 0x1
 3126 00ce 13       		.uleb128 0x13
 3127 00cf 00       		.byte	0
 3128 00d0 00       		.byte	0
 3129 00d1 12       		.uleb128 0x12
 3130 00d2 05       		.uleb128 0x5
 3131 00d3 00       		.byte	0
ARM GAS  /tmp/ccmPRfAK.s 			page 56


 3132 00d4 49       		.uleb128 0x49
 3133 00d5 13       		.uleb128 0x13
 3134 00d6 00       		.byte	0
 3135 00d7 00       		.byte	0
 3136 00d8 13       		.uleb128 0x13
 3137 00d9 15       		.uleb128 0x15
 3138 00da 01       		.byte	0x1
 3139 00db 27       		.uleb128 0x27
 3140 00dc 19       		.uleb128 0x19
 3141 00dd 01       		.uleb128 0x1
 3142 00de 13       		.uleb128 0x13
 3143 00df 00       		.byte	0
 3144 00e0 00       		.byte	0
 3145 00e1 14       		.uleb128 0x14
 3146 00e2 13       		.uleb128 0x13
 3147 00e3 01       		.byte	0x1
 3148 00e4 0B       		.uleb128 0xb
 3149 00e5 0B       		.uleb128 0xb
 3150 00e6 3A       		.uleb128 0x3a
 3151 00e7 0B       		.uleb128 0xb
 3152 00e8 3B       		.uleb128 0x3b
 3153 00e9 05       		.uleb128 0x5
 3154 00ea 01       		.uleb128 0x1
 3155 00eb 13       		.uleb128 0x13
 3156 00ec 00       		.byte	0
 3157 00ed 00       		.byte	0
 3158 00ee 15       		.uleb128 0x15
 3159 00ef 0D       		.uleb128 0xd
 3160 00f0 00       		.byte	0
 3161 00f1 03       		.uleb128 0x3
 3162 00f2 0E       		.uleb128 0xe
 3163 00f3 3A       		.uleb128 0x3a
 3164 00f4 0B       		.uleb128 0xb
 3165 00f5 3B       		.uleb128 0x3b
 3166 00f6 05       		.uleb128 0x5
 3167 00f7 49       		.uleb128 0x49
 3168 00f8 13       		.uleb128 0x13
 3169 00f9 38       		.uleb128 0x38
 3170 00fa 0B       		.uleb128 0xb
 3171 00fb 00       		.byte	0
 3172 00fc 00       		.byte	0
 3173 00fd 16       		.uleb128 0x16
 3174 00fe 16       		.uleb128 0x16
 3175 00ff 00       		.byte	0
 3176 0100 03       		.uleb128 0x3
 3177 0101 0E       		.uleb128 0xe
 3178 0102 3A       		.uleb128 0x3a
 3179 0103 0B       		.uleb128 0xb
 3180 0104 3B       		.uleb128 0x3b
 3181 0105 05       		.uleb128 0x5
 3182 0106 49       		.uleb128 0x49
 3183 0107 13       		.uleb128 0x13
 3184 0108 00       		.byte	0
 3185 0109 00       		.byte	0
 3186 010a 17       		.uleb128 0x17
 3187 010b 0D       		.uleb128 0xd
 3188 010c 00       		.byte	0
ARM GAS  /tmp/ccmPRfAK.s 			page 57


 3189 010d 03       		.uleb128 0x3
 3190 010e 08       		.uleb128 0x8
 3191 010f 3A       		.uleb128 0x3a
 3192 0110 0B       		.uleb128 0xb
 3193 0111 3B       		.uleb128 0x3b
 3194 0112 0B       		.uleb128 0xb
 3195 0113 49       		.uleb128 0x49
 3196 0114 13       		.uleb128 0x13
 3197 0115 00       		.byte	0
 3198 0116 00       		.byte	0
 3199 0117 18       		.uleb128 0x18
 3200 0118 04       		.uleb128 0x4
 3201 0119 01       		.byte	0x1
 3202 011a 0B       		.uleb128 0xb
 3203 011b 0B       		.uleb128 0xb
 3204 011c 3A       		.uleb128 0x3a
 3205 011d 0B       		.uleb128 0xb
 3206 011e 3B       		.uleb128 0x3b
 3207 011f 0B       		.uleb128 0xb
 3208 0120 01       		.uleb128 0x1
 3209 0121 13       		.uleb128 0x13
 3210 0122 00       		.byte	0
 3211 0123 00       		.byte	0
 3212 0124 19       		.uleb128 0x19
 3213 0125 28       		.uleb128 0x28
 3214 0126 00       		.byte	0
 3215 0127 03       		.uleb128 0x3
 3216 0128 0E       		.uleb128 0xe
 3217 0129 1C       		.uleb128 0x1c
 3218 012a 0D       		.uleb128 0xd
 3219 012b 00       		.byte	0
 3220 012c 00       		.byte	0
 3221 012d 1A       		.uleb128 0x1a
 3222 012e 04       		.uleb128 0x4
 3223 012f 01       		.byte	0x1
 3224 0130 0B       		.uleb128 0xb
 3225 0131 0B       		.uleb128 0xb
 3226 0132 3A       		.uleb128 0x3a
 3227 0133 0B       		.uleb128 0xb
 3228 0134 3B       		.uleb128 0x3b
 3229 0135 05       		.uleb128 0x5
 3230 0136 01       		.uleb128 0x1
 3231 0137 13       		.uleb128 0x13
 3232 0138 00       		.byte	0
 3233 0139 00       		.byte	0
 3234 013a 1B       		.uleb128 0x1b
 3235 013b 01       		.uleb128 0x1
 3236 013c 01       		.byte	0x1
 3237 013d 49       		.uleb128 0x49
 3238 013e 13       		.uleb128 0x13
 3239 013f 01       		.uleb128 0x1
 3240 0140 13       		.uleb128 0x13
 3241 0141 00       		.byte	0
 3242 0142 00       		.byte	0
 3243 0143 1C       		.uleb128 0x1c
 3244 0144 21       		.uleb128 0x21
 3245 0145 00       		.byte	0
ARM GAS  /tmp/ccmPRfAK.s 			page 58


 3246 0146 49       		.uleb128 0x49
 3247 0147 13       		.uleb128 0x13
 3248 0148 2F       		.uleb128 0x2f
 3249 0149 0B       		.uleb128 0xb
 3250 014a 00       		.byte	0
 3251 014b 00       		.byte	0
 3252 014c 1D       		.uleb128 0x1d
 3253 014d 2E       		.uleb128 0x2e
 3254 014e 01       		.byte	0x1
 3255 014f 03       		.uleb128 0x3
 3256 0150 0E       		.uleb128 0xe
 3257 0151 3A       		.uleb128 0x3a
 3258 0152 0B       		.uleb128 0xb
 3259 0153 3B       		.uleb128 0x3b
 3260 0154 0B       		.uleb128 0xb
 3261 0155 27       		.uleb128 0x27
 3262 0156 19       		.uleb128 0x19
 3263 0157 20       		.uleb128 0x20
 3264 0158 0B       		.uleb128 0xb
 3265 0159 01       		.uleb128 0x1
 3266 015a 13       		.uleb128 0x13
 3267 015b 00       		.byte	0
 3268 015c 00       		.byte	0
 3269 015d 1E       		.uleb128 0x1e
 3270 015e 05       		.uleb128 0x5
 3271 015f 00       		.byte	0
 3272 0160 03       		.uleb128 0x3
 3273 0161 08       		.uleb128 0x8
 3274 0162 3A       		.uleb128 0x3a
 3275 0163 0B       		.uleb128 0xb
 3276 0164 3B       		.uleb128 0x3b
 3277 0165 0B       		.uleb128 0xb
 3278 0166 49       		.uleb128 0x49
 3279 0167 13       		.uleb128 0x13
 3280 0168 00       		.byte	0
 3281 0169 00       		.byte	0
 3282 016a 1F       		.uleb128 0x1f
 3283 016b 34       		.uleb128 0x34
 3284 016c 00       		.byte	0
 3285 016d 03       		.uleb128 0x3
 3286 016e 08       		.uleb128 0x8
 3287 016f 3A       		.uleb128 0x3a
 3288 0170 0B       		.uleb128 0xb
 3289 0171 3B       		.uleb128 0x3b
 3290 0172 0B       		.uleb128 0xb
 3291 0173 49       		.uleb128 0x49
 3292 0174 13       		.uleb128 0x13
 3293 0175 00       		.byte	0
 3294 0176 00       		.byte	0
 3295 0177 20       		.uleb128 0x20
 3296 0178 2E       		.uleb128 0x2e
 3297 0179 01       		.byte	0x1
 3298 017a 3F       		.uleb128 0x3f
 3299 017b 19       		.uleb128 0x19
 3300 017c 03       		.uleb128 0x3
 3301 017d 0E       		.uleb128 0xe
 3302 017e 3A       		.uleb128 0x3a
ARM GAS  /tmp/ccmPRfAK.s 			page 59


 3303 017f 0B       		.uleb128 0xb
 3304 0180 3B       		.uleb128 0x3b
 3305 0181 0B       		.uleb128 0xb
 3306 0182 27       		.uleb128 0x27
 3307 0183 19       		.uleb128 0x19
 3308 0184 49       		.uleb128 0x49
 3309 0185 13       		.uleb128 0x13
 3310 0186 20       		.uleb128 0x20
 3311 0187 0B       		.uleb128 0xb
 3312 0188 01       		.uleb128 0x1
 3313 0189 13       		.uleb128 0x13
 3314 018a 00       		.byte	0
 3315 018b 00       		.byte	0
 3316 018c 21       		.uleb128 0x21
 3317 018d 34       		.uleb128 0x34
 3318 018e 00       		.byte	0
 3319 018f 03       		.uleb128 0x3
 3320 0190 0E       		.uleb128 0xe
 3321 0191 3A       		.uleb128 0x3a
 3322 0192 0B       		.uleb128 0xb
 3323 0193 3B       		.uleb128 0x3b
 3324 0194 0B       		.uleb128 0xb
 3325 0195 49       		.uleb128 0x49
 3326 0196 13       		.uleb128 0x13
 3327 0197 00       		.byte	0
 3328 0198 00       		.byte	0
 3329 0199 22       		.uleb128 0x22
 3330 019a 2E       		.uleb128 0x2e
 3331 019b 01       		.byte	0x1
 3332 019c 03       		.uleb128 0x3
 3333 019d 0E       		.uleb128 0xe
 3334 019e 3A       		.uleb128 0x3a
 3335 019f 0B       		.uleb128 0xb
 3336 01a0 3B       		.uleb128 0x3b
 3337 01a1 0B       		.uleb128 0xb
 3338 01a2 27       		.uleb128 0x27
 3339 01a3 19       		.uleb128 0x19
 3340 01a4 11       		.uleb128 0x11
 3341 01a5 01       		.uleb128 0x1
 3342 01a6 12       		.uleb128 0x12
 3343 01a7 06       		.uleb128 0x6
 3344 01a8 40       		.uleb128 0x40
 3345 01a9 18       		.uleb128 0x18
 3346 01aa 9742     		.uleb128 0x2117
 3347 01ac 19       		.uleb128 0x19
 3348 01ad 01       		.uleb128 0x1
 3349 01ae 13       		.uleb128 0x13
 3350 01af 00       		.byte	0
 3351 01b0 00       		.byte	0
 3352 01b1 23       		.uleb128 0x23
 3353 01b2 05       		.uleb128 0x5
 3354 01b3 00       		.byte	0
 3355 01b4 03       		.uleb128 0x3
 3356 01b5 08       		.uleb128 0x8
 3357 01b6 3A       		.uleb128 0x3a
 3358 01b7 0B       		.uleb128 0xb
 3359 01b8 3B       		.uleb128 0x3b
ARM GAS  /tmp/ccmPRfAK.s 			page 60


 3360 01b9 0B       		.uleb128 0xb
 3361 01ba 49       		.uleb128 0x49
 3362 01bb 13       		.uleb128 0x13
 3363 01bc 02       		.uleb128 0x2
 3364 01bd 17       		.uleb128 0x17
 3365 01be 00       		.byte	0
 3366 01bf 00       		.byte	0
 3367 01c0 24       		.uleb128 0x24
 3368 01c1 898201   		.uleb128 0x4109
 3369 01c4 01       		.byte	0x1
 3370 01c5 11       		.uleb128 0x11
 3371 01c6 01       		.uleb128 0x1
 3372 01c7 31       		.uleb128 0x31
 3373 01c8 13       		.uleb128 0x13
 3374 01c9 00       		.byte	0
 3375 01ca 00       		.byte	0
 3376 01cb 25       		.uleb128 0x25
 3377 01cc 8A8201   		.uleb128 0x410a
 3378 01cf 00       		.byte	0
 3379 01d0 02       		.uleb128 0x2
 3380 01d1 18       		.uleb128 0x18
 3381 01d2 9142     		.uleb128 0x2111
 3382 01d4 18       		.uleb128 0x18
 3383 01d5 00       		.byte	0
 3384 01d6 00       		.byte	0
 3385 01d7 26       		.uleb128 0x26
 3386 01d8 2E       		.uleb128 0x2e
 3387 01d9 01       		.byte	0x1
 3388 01da 31       		.uleb128 0x31
 3389 01db 13       		.uleb128 0x13
 3390 01dc 11       		.uleb128 0x11
 3391 01dd 01       		.uleb128 0x1
 3392 01de 12       		.uleb128 0x12
 3393 01df 06       		.uleb128 0x6
 3394 01e0 40       		.uleb128 0x40
 3395 01e1 18       		.uleb128 0x18
 3396 01e2 9742     		.uleb128 0x2117
 3397 01e4 19       		.uleb128 0x19
 3398 01e5 01       		.uleb128 0x1
 3399 01e6 13       		.uleb128 0x13
 3400 01e7 00       		.byte	0
 3401 01e8 00       		.byte	0
 3402 01e9 27       		.uleb128 0x27
 3403 01ea 05       		.uleb128 0x5
 3404 01eb 00       		.byte	0
 3405 01ec 31       		.uleb128 0x31
 3406 01ed 13       		.uleb128 0x13
 3407 01ee 02       		.uleb128 0x2
 3408 01ef 17       		.uleb128 0x17
 3409 01f0 00       		.byte	0
 3410 01f1 00       		.byte	0
 3411 01f2 28       		.uleb128 0x28
 3412 01f3 34       		.uleb128 0x34
 3413 01f4 00       		.byte	0
 3414 01f5 31       		.uleb128 0x31
 3415 01f6 13       		.uleb128 0x13
 3416 01f7 02       		.uleb128 0x2
ARM GAS  /tmp/ccmPRfAK.s 			page 61


 3417 01f8 18       		.uleb128 0x18
 3418 01f9 00       		.byte	0
 3419 01fa 00       		.byte	0
 3420 01fb 29       		.uleb128 0x29
 3421 01fc 34       		.uleb128 0x34
 3422 01fd 00       		.byte	0
 3423 01fe 31       		.uleb128 0x31
 3424 01ff 13       		.uleb128 0x13
 3425 0200 02       		.uleb128 0x2
 3426 0201 17       		.uleb128 0x17
 3427 0202 00       		.byte	0
 3428 0203 00       		.byte	0
 3429 0204 2A       		.uleb128 0x2a
 3430 0205 0B       		.uleb128 0xb
 3431 0206 01       		.byte	0x1
 3432 0207 55       		.uleb128 0x55
 3433 0208 17       		.uleb128 0x17
 3434 0209 01       		.uleb128 0x1
 3435 020a 13       		.uleb128 0x13
 3436 020b 00       		.byte	0
 3437 020c 00       		.byte	0
 3438 020d 2B       		.uleb128 0x2b
 3439 020e 05       		.uleb128 0x5
 3440 020f 00       		.byte	0
 3441 0210 31       		.uleb128 0x31
 3442 0211 13       		.uleb128 0x13
 3443 0212 00       		.byte	0
 3444 0213 00       		.byte	0
 3445 0214 2C       		.uleb128 0x2c
 3446 0215 0B       		.uleb128 0xb
 3447 0216 01       		.byte	0x1
 3448 0217 55       		.uleb128 0x55
 3449 0218 17       		.uleb128 0x17
 3450 0219 00       		.byte	0
 3451 021a 00       		.byte	0
 3452 021b 2D       		.uleb128 0x2d
 3453 021c 34       		.uleb128 0x34
 3454 021d 00       		.byte	0
 3455 021e 31       		.uleb128 0x31
 3456 021f 13       		.uleb128 0x13
 3457 0220 00       		.byte	0
 3458 0221 00       		.byte	0
 3459 0222 2E       		.uleb128 0x2e
 3460 0223 898201   		.uleb128 0x4109
 3461 0226 01       		.byte	0x1
 3462 0227 11       		.uleb128 0x11
 3463 0228 01       		.uleb128 0x1
 3464 0229 9542     		.uleb128 0x2115
 3465 022b 19       		.uleb128 0x19
 3466 022c 31       		.uleb128 0x31
 3467 022d 13       		.uleb128 0x13
 3468 022e 00       		.byte	0
 3469 022f 00       		.byte	0
 3470 0230 2F       		.uleb128 0x2f
 3471 0231 898201   		.uleb128 0x4109
 3472 0234 01       		.byte	0x1
 3473 0235 11       		.uleb128 0x11
ARM GAS  /tmp/ccmPRfAK.s 			page 62


 3474 0236 01       		.uleb128 0x1
 3475 0237 31       		.uleb128 0x31
 3476 0238 13       		.uleb128 0x13
 3477 0239 01       		.uleb128 0x1
 3478 023a 13       		.uleb128 0x13
 3479 023b 00       		.byte	0
 3480 023c 00       		.byte	0
 3481 023d 30       		.uleb128 0x30
 3482 023e 05       		.uleb128 0x5
 3483 023f 00       		.byte	0
 3484 0240 31       		.uleb128 0x31
 3485 0241 13       		.uleb128 0x13
 3486 0242 02       		.uleb128 0x2
 3487 0243 18       		.uleb128 0x18
 3488 0244 00       		.byte	0
 3489 0245 00       		.byte	0
 3490 0246 31       		.uleb128 0x31
 3491 0247 2E       		.uleb128 0x2e
 3492 0248 01       		.byte	0x1
 3493 0249 3F       		.uleb128 0x3f
 3494 024a 19       		.uleb128 0x19
 3495 024b 03       		.uleb128 0x3
 3496 024c 0E       		.uleb128 0xe
 3497 024d 3A       		.uleb128 0x3a
 3498 024e 0B       		.uleb128 0xb
 3499 024f 3B       		.uleb128 0x3b
 3500 0250 0B       		.uleb128 0xb
 3501 0251 27       		.uleb128 0x27
 3502 0252 19       		.uleb128 0x19
 3503 0253 49       		.uleb128 0x49
 3504 0254 13       		.uleb128 0x13
 3505 0255 11       		.uleb128 0x11
 3506 0256 01       		.uleb128 0x1
 3507 0257 12       		.uleb128 0x12
 3508 0258 06       		.uleb128 0x6
 3509 0259 40       		.uleb128 0x40
 3510 025a 18       		.uleb128 0x18
 3511 025b 9742     		.uleb128 0x2117
 3512 025d 19       		.uleb128 0x19
 3513 025e 01       		.uleb128 0x1
 3514 025f 13       		.uleb128 0x13
 3515 0260 00       		.byte	0
 3516 0261 00       		.byte	0
 3517 0262 32       		.uleb128 0x32
 3518 0263 34       		.uleb128 0x34
 3519 0264 00       		.byte	0
 3520 0265 03       		.uleb128 0x3
 3521 0266 0E       		.uleb128 0xe
 3522 0267 3A       		.uleb128 0x3a
 3523 0268 0B       		.uleb128 0xb
 3524 0269 3B       		.uleb128 0x3b
 3525 026a 0B       		.uleb128 0xb
 3526 026b 49       		.uleb128 0x49
 3527 026c 13       		.uleb128 0x13
 3528 026d 02       		.uleb128 0x2
 3529 026e 17       		.uleb128 0x17
 3530 026f 00       		.byte	0
ARM GAS  /tmp/ccmPRfAK.s 			page 63


 3531 0270 00       		.byte	0
 3532 0271 33       		.uleb128 0x33
 3533 0272 34       		.uleb128 0x34
 3534 0273 00       		.byte	0
 3535 0274 03       		.uleb128 0x3
 3536 0275 08       		.uleb128 0x8
 3537 0276 3A       		.uleb128 0x3a
 3538 0277 0B       		.uleb128 0xb
 3539 0278 3B       		.uleb128 0x3b
 3540 0279 0B       		.uleb128 0xb
 3541 027a 49       		.uleb128 0x49
 3542 027b 13       		.uleb128 0x13
 3543 027c 1C       		.uleb128 0x1c
 3544 027d 0B       		.uleb128 0xb
 3545 027e 00       		.byte	0
 3546 027f 00       		.byte	0
 3547 0280 34       		.uleb128 0x34
 3548 0281 1D       		.uleb128 0x1d
 3549 0282 01       		.byte	0x1
 3550 0283 31       		.uleb128 0x31
 3551 0284 13       		.uleb128 0x13
 3552 0285 52       		.uleb128 0x52
 3553 0286 01       		.uleb128 0x1
 3554 0287 55       		.uleb128 0x55
 3555 0288 17       		.uleb128 0x17
 3556 0289 58       		.uleb128 0x58
 3557 028a 0B       		.uleb128 0xb
 3558 028b 59       		.uleb128 0x59
 3559 028c 0B       		.uleb128 0xb
 3560 028d 01       		.uleb128 0x1
 3561 028e 13       		.uleb128 0x13
 3562 028f 00       		.byte	0
 3563 0290 00       		.byte	0
 3564 0291 35       		.uleb128 0x35
 3565 0292 1D       		.uleb128 0x1d
 3566 0293 01       		.byte	0x1
 3567 0294 31       		.uleb128 0x31
 3568 0295 13       		.uleb128 0x13
 3569 0296 11       		.uleb128 0x11
 3570 0297 01       		.uleb128 0x1
 3571 0298 12       		.uleb128 0x12
 3572 0299 06       		.uleb128 0x6
 3573 029a 58       		.uleb128 0x58
 3574 029b 0B       		.uleb128 0xb
 3575 029c 59       		.uleb128 0x59
 3576 029d 0B       		.uleb128 0xb
 3577 029e 01       		.uleb128 0x1
 3578 029f 13       		.uleb128 0x13
 3579 02a0 00       		.byte	0
 3580 02a1 00       		.byte	0
 3581 02a2 36       		.uleb128 0x36
 3582 02a3 898201   		.uleb128 0x4109
 3583 02a6 00       		.byte	0
 3584 02a7 11       		.uleb128 0x11
 3585 02a8 01       		.uleb128 0x1
 3586 02a9 31       		.uleb128 0x31
 3587 02aa 13       		.uleb128 0x13
ARM GAS  /tmp/ccmPRfAK.s 			page 64


 3588 02ab 00       		.byte	0
 3589 02ac 00       		.byte	0
 3590 02ad 37       		.uleb128 0x37
 3591 02ae 34       		.uleb128 0x34
 3592 02af 00       		.byte	0
 3593 02b0 03       		.uleb128 0x3
 3594 02b1 0E       		.uleb128 0xe
 3595 02b2 3A       		.uleb128 0x3a
 3596 02b3 0B       		.uleb128 0xb
 3597 02b4 3B       		.uleb128 0x3b
 3598 02b5 0B       		.uleb128 0xb
 3599 02b6 49       		.uleb128 0x49
 3600 02b7 13       		.uleb128 0x13
 3601 02b8 02       		.uleb128 0x2
 3602 02b9 18       		.uleb128 0x18
 3603 02ba 00       		.byte	0
 3604 02bb 00       		.byte	0
 3605 02bc 38       		.uleb128 0x38
 3606 02bd 34       		.uleb128 0x34
 3607 02be 00       		.byte	0
 3608 02bf 03       		.uleb128 0x3
 3609 02c0 0E       		.uleb128 0xe
 3610 02c1 3A       		.uleb128 0x3a
 3611 02c2 0B       		.uleb128 0xb
 3612 02c3 3B       		.uleb128 0x3b
 3613 02c4 05       		.uleb128 0x5
 3614 02c5 49       		.uleb128 0x49
 3615 02c6 13       		.uleb128 0x13
 3616 02c7 3F       		.uleb128 0x3f
 3617 02c8 19       		.uleb128 0x19
 3618 02c9 3C       		.uleb128 0x3c
 3619 02ca 19       		.uleb128 0x19
 3620 02cb 00       		.byte	0
 3621 02cc 00       		.byte	0
 3622 02cd 39       		.uleb128 0x39
 3623 02ce 34       		.uleb128 0x34
 3624 02cf 00       		.byte	0
 3625 02d0 03       		.uleb128 0x3
 3626 02d1 08       		.uleb128 0x8
 3627 02d2 3A       		.uleb128 0x3a
 3628 02d3 0B       		.uleb128 0xb
 3629 02d4 3B       		.uleb128 0x3b
 3630 02d5 05       		.uleb128 0x5
 3631 02d6 49       		.uleb128 0x49
 3632 02d7 13       		.uleb128 0x13
 3633 02d8 3F       		.uleb128 0x3f
 3634 02d9 19       		.uleb128 0x19
 3635 02da 3C       		.uleb128 0x3c
 3636 02db 19       		.uleb128 0x19
 3637 02dc 00       		.byte	0
 3638 02dd 00       		.byte	0
 3639 02de 3A       		.uleb128 0x3a
 3640 02df 2E       		.uleb128 0x2e
 3641 02e0 01       		.byte	0x1
 3642 02e1 3F       		.uleb128 0x3f
 3643 02e2 19       		.uleb128 0x19
 3644 02e3 03       		.uleb128 0x3
ARM GAS  /tmp/ccmPRfAK.s 			page 65


 3645 02e4 0E       		.uleb128 0xe
 3646 02e5 3A       		.uleb128 0x3a
 3647 02e6 0B       		.uleb128 0xb
 3648 02e7 3B       		.uleb128 0x3b
 3649 02e8 05       		.uleb128 0x5
 3650 02e9 27       		.uleb128 0x27
 3651 02ea 19       		.uleb128 0x19
 3652 02eb 49       		.uleb128 0x49
 3653 02ec 13       		.uleb128 0x13
 3654 02ed 3C       		.uleb128 0x3c
 3655 02ee 19       		.uleb128 0x19
 3656 02ef 01       		.uleb128 0x1
 3657 02f0 13       		.uleb128 0x13
 3658 02f1 00       		.byte	0
 3659 02f2 00       		.byte	0
 3660 02f3 3B       		.uleb128 0x3b
 3661 02f4 2E       		.uleb128 0x2e
 3662 02f5 00       		.byte	0
 3663 02f6 3F       		.uleb128 0x3f
 3664 02f7 19       		.uleb128 0x19
 3665 02f8 03       		.uleb128 0x3
 3666 02f9 0E       		.uleb128 0xe
 3667 02fa 3A       		.uleb128 0x3a
 3668 02fb 0B       		.uleb128 0xb
 3669 02fc 3B       		.uleb128 0x3b
 3670 02fd 0B       		.uleb128 0xb
 3671 02fe 27       		.uleb128 0x27
 3672 02ff 19       		.uleb128 0x19
 3673 0300 3C       		.uleb128 0x3c
 3674 0301 19       		.uleb128 0x19
 3675 0302 00       		.byte	0
 3676 0303 00       		.byte	0
 3677 0304 3C       		.uleb128 0x3c
 3678 0305 2E       		.uleb128 0x2e
 3679 0306 01       		.byte	0x1
 3680 0307 3F       		.uleb128 0x3f
 3681 0308 19       		.uleb128 0x19
 3682 0309 03       		.uleb128 0x3
 3683 030a 0E       		.uleb128 0xe
 3684 030b 3A       		.uleb128 0x3a
 3685 030c 0B       		.uleb128 0xb
 3686 030d 3B       		.uleb128 0x3b
 3687 030e 0B       		.uleb128 0xb
 3688 030f 27       		.uleb128 0x27
 3689 0310 19       		.uleb128 0x19
 3690 0311 3C       		.uleb128 0x3c
 3691 0312 19       		.uleb128 0x19
 3692 0313 01       		.uleb128 0x1
 3693 0314 13       		.uleb128 0x13
 3694 0315 00       		.byte	0
 3695 0316 00       		.byte	0
 3696 0317 3D       		.uleb128 0x3d
 3697 0318 2E       		.uleb128 0x2e
 3698 0319 01       		.byte	0x1
 3699 031a 3F       		.uleb128 0x3f
 3700 031b 19       		.uleb128 0x19
 3701 031c 03       		.uleb128 0x3
ARM GAS  /tmp/ccmPRfAK.s 			page 66


 3702 031d 0E       		.uleb128 0xe
 3703 031e 3A       		.uleb128 0x3a
 3704 031f 0B       		.uleb128 0xb
 3705 0320 3B       		.uleb128 0x3b
 3706 0321 05       		.uleb128 0x5
 3707 0322 27       		.uleb128 0x27
 3708 0323 19       		.uleb128 0x19
 3709 0324 3C       		.uleb128 0x3c
 3710 0325 19       		.uleb128 0x19
 3711 0326 01       		.uleb128 0x1
 3712 0327 13       		.uleb128 0x13
 3713 0328 00       		.byte	0
 3714 0329 00       		.byte	0
 3715 032a 3E       		.uleb128 0x3e
 3716 032b 2E       		.uleb128 0x2e
 3717 032c 01       		.byte	0x1
 3718 032d 3F       		.uleb128 0x3f
 3719 032e 19       		.uleb128 0x19
 3720 032f 03       		.uleb128 0x3
 3721 0330 0E       		.uleb128 0xe
 3722 0331 3A       		.uleb128 0x3a
 3723 0332 0B       		.uleb128 0xb
 3724 0333 3B       		.uleb128 0x3b
 3725 0334 0B       		.uleb128 0xb
 3726 0335 27       		.uleb128 0x27
 3727 0336 19       		.uleb128 0x19
 3728 0337 49       		.uleb128 0x49
 3729 0338 13       		.uleb128 0x13
 3730 0339 3C       		.uleb128 0x3c
 3731 033a 19       		.uleb128 0x19
 3732 033b 01       		.uleb128 0x1
 3733 033c 13       		.uleb128 0x13
 3734 033d 00       		.byte	0
 3735 033e 00       		.byte	0
 3736 033f 3F       		.uleb128 0x3f
 3737 0340 2E       		.uleb128 0x2e
 3738 0341 01       		.byte	0x1
 3739 0342 3F       		.uleb128 0x3f
 3740 0343 19       		.uleb128 0x19
 3741 0344 03       		.uleb128 0x3
 3742 0345 0E       		.uleb128 0xe
 3743 0346 3A       		.uleb128 0x3a
 3744 0347 0B       		.uleb128 0xb
 3745 0348 3B       		.uleb128 0x3b
 3746 0349 0B       		.uleb128 0xb
 3747 034a 27       		.uleb128 0x27
 3748 034b 19       		.uleb128 0x19
 3749 034c 49       		.uleb128 0x49
 3750 034d 13       		.uleb128 0x13
 3751 034e 3C       		.uleb128 0x3c
 3752 034f 19       		.uleb128 0x19
 3753 0350 00       		.byte	0
 3754 0351 00       		.byte	0
 3755 0352 00       		.byte	0
 3756              		.section	.debug_loc,"",%progbits
 3757              	.Ldebug_loc0:
 3758              	.LLST0:
ARM GAS  /tmp/ccmPRfAK.s 			page 67


 3759 0000 00000000 		.4byte	.LVL0
 3760 0004 08000000 		.4byte	.LVL1
 3761 0008 0100     		.2byte	0x1
 3762 000a 50       		.byte	0x50
 3763 000b 08000000 		.4byte	.LVL1
 3764 000f 16000000 		.4byte	.LVL3
 3765 0013 0300     		.2byte	0x3
 3766 0015 74       		.byte	0x74
 3767 0016 01       		.sleb128 1
 3768 0017 9F       		.byte	0x9f
 3769 0018 16000000 		.4byte	.LVL3
 3770 001c 1A000000 		.4byte	.LVL4
 3771 0020 0100     		.2byte	0x1
 3772 0022 54       		.byte	0x54
 3773 0023 00000000 		.4byte	0
 3774 0027 00000000 		.4byte	0
 3775              	.LLST1:
 3776 002b 00000000 		.4byte	.LVL5
 3777 002f 08000000 		.4byte	.LVL6
 3778 0033 0100     		.2byte	0x1
 3779 0035 50       		.byte	0x50
 3780 0036 08000000 		.4byte	.LVL6
 3781 003a 14000000 		.4byte	.LVL7
 3782 003e 0400     		.2byte	0x4
 3783 0040 F3       		.byte	0xf3
 3784 0041 01       		.uleb128 0x1
 3785 0042 50       		.byte	0x50
 3786 0043 9F       		.byte	0x9f
 3787 0044 68000000 		.4byte	.LVL15
 3788 0048 76000000 		.4byte	.LVL16
 3789 004c 0400     		.2byte	0x4
 3790 004e F3       		.byte	0xf3
 3791 004f 01       		.uleb128 0x1
 3792 0050 50       		.byte	0x50
 3793 0051 9F       		.byte	0x9f
 3794 0052 00000000 		.4byte	0
 3795 0056 00000000 		.4byte	0
 3796              	.LLST2:
 3797 005a 14000000 		.4byte	.LVL7
 3798 005e 22000000 		.4byte	.LVL8
 3799 0062 0100     		.2byte	0x1
 3800 0064 5D       		.byte	0x5d
 3801 0065 22000000 		.4byte	.LVL8
 3802 0069 40000000 		.4byte	.LVL9
 3803 006d 0300     		.2byte	0x3
 3804 006f 73       		.byte	0x73
 3805 0070 7F       		.sleb128 -1
 3806 0071 9F       		.byte	0x9f
 3807 0072 40000000 		.4byte	.LVL9
 3808 0076 42000000 		.4byte	.LVL10
 3809 007a 0100     		.2byte	0x1
 3810 007c 53       		.byte	0x53
 3811 007d 42000000 		.4byte	.LVL10
 3812 0081 50000000 		.4byte	.LVL11
 3813 0085 0100     		.2byte	0x1
 3814 0087 52       		.byte	0x52
 3815 0088 50000000 		.4byte	.LVL11
ARM GAS  /tmp/ccmPRfAK.s 			page 68


 3816 008c 64000000 		.4byte	.LVL14
 3817 0090 0300     		.2byte	0x3
 3818 0092 74       		.byte	0x74
 3819 0093 7F       		.sleb128 -1
 3820 0094 9F       		.byte	0x9f
 3821 0095 00000000 		.4byte	0
 3822 0099 00000000 		.4byte	0
 3823              	.LLST3:
 3824 009d 00000000 		.4byte	.LVL19
 3825 00a1 04000000 		.4byte	.LVL20
 3826 00a5 0100     		.2byte	0x1
 3827 00a7 50       		.byte	0x50
 3828 00a8 04000000 		.4byte	.LVL20
 3829 00ac 08000000 		.4byte	.LFE114
 3830 00b0 0400     		.2byte	0x4
 3831 00b2 F3       		.byte	0xf3
 3832 00b3 01       		.uleb128 0x1
 3833 00b4 50       		.byte	0x50
 3834 00b5 9F       		.byte	0x9f
 3835 00b6 00000000 		.4byte	0
 3836 00ba 00000000 		.4byte	0
 3837              	.LLST4:
 3838 00be 00000000 		.4byte	.LVL19
 3839 00c2 04000000 		.4byte	.LVL20
 3840 00c6 0E00     		.2byte	0xe
 3841 00c8 70       		.byte	0x70
 3842 00c9 00       		.sleb128 0
 3843 00ca 08       		.byte	0x8
 3844 00cb FF       		.byte	0xff
 3845 00cc 1A       		.byte	0x1a
 3846 00cd 38       		.byte	0x38
 3847 00ce 24       		.byte	0x24
 3848 00cf 71       		.byte	0x71
 3849 00d0 00       		.sleb128 0
 3850 00d1 08       		.byte	0x8
 3851 00d2 FF       		.byte	0xff
 3852 00d3 1A       		.byte	0x1a
 3853 00d4 22       		.byte	0x22
 3854 00d5 9F       		.byte	0x9f
 3855 00d6 04000000 		.4byte	.LVL20
 3856 00da 08000000 		.4byte	.LFE114
 3857 00de 0F00     		.2byte	0xf
 3858 00e0 F3       		.byte	0xf3
 3859 00e1 01       		.uleb128 0x1
 3860 00e2 50       		.byte	0x50
 3861 00e3 08       		.byte	0x8
 3862 00e4 FF       		.byte	0xff
 3863 00e5 1A       		.byte	0x1a
 3864 00e6 38       		.byte	0x38
 3865 00e7 24       		.byte	0x24
 3866 00e8 71       		.byte	0x71
 3867 00e9 00       		.sleb128 0
 3868 00ea 08       		.byte	0x8
 3869 00eb FF       		.byte	0xff
 3870 00ec 1A       		.byte	0x1a
 3871 00ed 22       		.byte	0x22
 3872 00ee 9F       		.byte	0x9f
ARM GAS  /tmp/ccmPRfAK.s 			page 69


 3873 00ef 00000000 		.4byte	0
 3874 00f3 00000000 		.4byte	0
 3875              	.LLST5:
 3876 00f7 00000000 		.4byte	.LVL21
 3877 00fb 96000000 		.4byte	.LVL30
 3878 00ff 0200     		.2byte	0x2
 3879 0101 30       		.byte	0x30
 3880 0102 9F       		.byte	0x9f
 3881 0103 96000000 		.4byte	.LVL30
 3882 0107 9A000000 		.4byte	.LVL31
 3883 010b 0100     		.2byte	0x1
 3884 010d 50       		.byte	0x50
 3885 010e 9A000000 		.4byte	.LVL31
 3886 0112 C2000000 		.4byte	.LVL33
 3887 0116 0100     		.2byte	0x1
 3888 0118 55       		.byte	0x55
 3889 0119 D8000000 		.4byte	.LVL34
 3890 011d 56010000 		.4byte	.LVL43
 3891 0121 0100     		.2byte	0x1
 3892 0123 5A       		.byte	0x5a
 3893 0124 9E010000 		.4byte	.LVL47
 3894 0128 A2010000 		.4byte	.LVL48
 3895 012c 0100     		.2byte	0x1
 3896 012e 50       		.byte	0x50
 3897 012f A2010000 		.4byte	.LVL48
 3898 0133 C2010000 		.4byte	.LVL51
 3899 0137 0100     		.2byte	0x1
 3900 0139 5A       		.byte	0x5a
 3901 013a C2010000 		.4byte	.LVL51
 3902 013e E0010000 		.4byte	.LFE115
 3903 0142 0100     		.2byte	0x1
 3904 0144 55       		.byte	0x55
 3905 0145 00000000 		.4byte	0
 3906 0149 00000000 		.4byte	0
 3907              	.LLST6:
 3908 014d 00010000 		.4byte	.LVL35
 3909 0151 09010000 		.4byte	.LVL37-1
 3910 0155 0500     		.2byte	0x5
 3911 0157 03       		.byte	0x3
 3912 0158 03000000 		.4byte	rxbuf+3
 3913 015c 00000000 		.4byte	0
 3914 0160 00000000 		.4byte	0
 3915              	.LLST7:
 3916 0164 00010000 		.4byte	.LVL35
 3917 0168 09010000 		.4byte	.LVL37-1
 3918 016c 0500     		.2byte	0x5
 3919 016e 03       		.byte	0x3
 3920 016f 02000000 		.4byte	rxbuf+2
 3921 0173 00000000 		.4byte	0
 3922 0177 00000000 		.4byte	0
 3923              	.LLST8:
 3924 017b 00010000 		.4byte	.LVL35
 3925 017f 09010000 		.4byte	.LVL37-1
 3926 0183 1800     		.2byte	0x18
 3927 0185 03       		.byte	0x3
 3928 0186 02000000 		.4byte	rxbuf+2
 3929 018a 94       		.byte	0x94
ARM GAS  /tmp/ccmPRfAK.s 			page 70


 3930 018b 01       		.byte	0x1
 3931 018c 08       		.byte	0x8
 3932 018d FF       		.byte	0xff
 3933 018e 1A       		.byte	0x1a
 3934 018f 38       		.byte	0x38
 3935 0190 24       		.byte	0x24
 3936 0191 03       		.byte	0x3
 3937 0192 03000000 		.4byte	rxbuf+3
 3938 0196 94       		.byte	0x94
 3939 0197 01       		.byte	0x1
 3940 0198 08       		.byte	0x8
 3941 0199 FF       		.byte	0xff
 3942 019a 1A       		.byte	0x1a
 3943 019b 22       		.byte	0x22
 3944 019c 9F       		.byte	0x9f
 3945 019d 00000000 		.4byte	0
 3946 01a1 00000000 		.4byte	0
 3947              	.LLST9:
 3948 01a5 D8000000 		.4byte	.LVL34
 3949 01a9 09010000 		.4byte	.LVL37-1
 3950 01ad 0500     		.2byte	0x5
 3951 01af 03       		.byte	0x3
 3952 01b0 01000000 		.4byte	rxbuf+1
 3953 01b4 00000000 		.4byte	0
 3954 01b8 00000000 		.4byte	0
 3955              	.LLST10:
 3956 01bc D8000000 		.4byte	.LVL34
 3957 01c0 09010000 		.4byte	.LVL37-1
 3958 01c4 0500     		.2byte	0x5
 3959 01c6 03       		.byte	0x3
 3960 01c7 00000000 		.4byte	rxbuf
 3961 01cb 00000000 		.4byte	0
 3962 01cf 00000000 		.4byte	0
 3963              	.LLST11:
 3964 01d3 D8000000 		.4byte	.LVL34
 3965 01d7 09010000 		.4byte	.LVL37-1
 3966 01db 1800     		.2byte	0x18
 3967 01dd 03       		.byte	0x3
 3968 01de 00000000 		.4byte	rxbuf
 3969 01e2 94       		.byte	0x94
 3970 01e3 01       		.byte	0x1
 3971 01e4 08       		.byte	0x8
 3972 01e5 FF       		.byte	0xff
 3973 01e6 1A       		.byte	0x1a
 3974 01e7 38       		.byte	0x38
 3975 01e8 24       		.byte	0x24
 3976 01e9 03       		.byte	0x3
 3977 01ea 01000000 		.4byte	rxbuf+1
 3978 01ee 94       		.byte	0x94
 3979 01ef 01       		.byte	0x1
 3980 01f0 08       		.byte	0x8
 3981 01f1 FF       		.byte	0xff
 3982 01f2 1A       		.byte	0x1a
 3983 01f3 22       		.byte	0x22
 3984 01f4 9F       		.byte	0x9f
 3985 01f5 00000000 		.4byte	0
 3986 01f9 00000000 		.4byte	0
ARM GAS  /tmp/ccmPRfAK.s 			page 71


 3987              	.LLST12:
 3988 01fd 04010000 		.4byte	.LVL36
 3989 0201 09010000 		.4byte	.LVL37-1
 3990 0205 0500     		.2byte	0x5
 3991 0207 03       		.byte	0x3
 3992 0208 05000000 		.4byte	rxbuf+5
 3993 020c 00000000 		.4byte	0
 3994 0210 00000000 		.4byte	0
 3995              	.LLST13:
 3996 0214 04010000 		.4byte	.LVL36
 3997 0218 09010000 		.4byte	.LVL37-1
 3998 021c 0500     		.2byte	0x5
 3999 021e 03       		.byte	0x3
 4000 021f 04000000 		.4byte	rxbuf+4
 4001 0223 00000000 		.4byte	0
 4002 0227 00000000 		.4byte	0
 4003              	.LLST14:
 4004 022b 04010000 		.4byte	.LVL36
 4005 022f 09010000 		.4byte	.LVL37-1
 4006 0233 1800     		.2byte	0x18
 4007 0235 03       		.byte	0x3
 4008 0236 04000000 		.4byte	rxbuf+4
 4009 023a 94       		.byte	0x94
 4010 023b 01       		.byte	0x1
 4011 023c 08       		.byte	0x8
 4012 023d FF       		.byte	0xff
 4013 023e 1A       		.byte	0x1a
 4014 023f 38       		.byte	0x38
 4015 0240 24       		.byte	0x24
 4016 0241 03       		.byte	0x3
 4017 0242 05000000 		.4byte	rxbuf+5
 4018 0246 94       		.byte	0x94
 4019 0247 01       		.byte	0x1
 4020 0248 08       		.byte	0x8
 4021 0249 FF       		.byte	0xff
 4022 024a 1A       		.byte	0x1a
 4023 024b 22       		.byte	0x22
 4024 024c 9F       		.byte	0x9f
 4025 024d 00000000 		.4byte	0
 4026 0251 00000000 		.4byte	0
 4027              		.section	.debug_aranges,"",%progbits
 4028 0000 34000000 		.4byte	0x34
 4029 0004 0200     		.2byte	0x2
 4030 0006 00000000 		.4byte	.Ldebug_info0
 4031 000a 04       		.byte	0x4
 4032 000b 00       		.byte	0
 4033 000c 0000     		.2byte	0
 4034 000e 0000     		.2byte	0
 4035 0010 00000000 		.4byte	.LFB111
 4036 0014 20000000 		.4byte	.LFE111-.LFB111
 4037 0018 00000000 		.4byte	.LFB113
 4038 001c 90000000 		.4byte	.LFE113-.LFB113
 4039 0020 00000000 		.4byte	.LFB114
 4040 0024 08000000 		.4byte	.LFE114-.LFB114
 4041 0028 00000000 		.4byte	.LFB115
 4042 002c E0010000 		.4byte	.LFE115-.LFB115
 4043 0030 00000000 		.4byte	0
ARM GAS  /tmp/ccmPRfAK.s 			page 72


 4044 0034 00000000 		.4byte	0
 4045              		.section	.debug_ranges,"",%progbits
 4046              	.Ldebug_ranges0:
 4047 0000 7A000000 		.4byte	.LBB10
 4048 0004 82000000 		.4byte	.LBE10
 4049 0008 88000000 		.4byte	.LBB13
 4050 000c 90000000 		.4byte	.LBE13
 4051 0010 00000000 		.4byte	0
 4052 0014 00000000 		.4byte	0
 4053 0018 D8000000 		.4byte	.LBB22
 4054 001c DC000000 		.4byte	.LBE22
 4055 0020 E8000000 		.4byte	.LBB35
 4056 0024 EC000000 		.4byte	.LBE35
 4057 0028 00000000 		.4byte	0
 4058 002c 00000000 		.4byte	0
 4059 0030 DC000000 		.4byte	.LBB25
 4060 0034 E0000000 		.4byte	.LBE25
 4061 0038 E4000000 		.4byte	.LBB33
 4062 003c E6000000 		.4byte	.LBE33
 4063 0040 F0000000 		.4byte	.LBB36
 4064 0044 F4000000 		.4byte	.LBE36
 4065 0048 00000000 		.4byte	0
 4066 004c 00000000 		.4byte	0
 4067 0050 E0000000 		.4byte	.LBB29
 4068 0054 E4000000 		.4byte	.LBE29
 4069 0058 E6000000 		.4byte	.LBB34
 4070 005c E8000000 		.4byte	.LBE34
 4071 0060 F4000000 		.4byte	.LBB37
 4072 0064 F8000000 		.4byte	.LBE37
 4073 0068 00000000 		.4byte	0
 4074 006c 00000000 		.4byte	0
 4075 0070 00000000 		.4byte	.LFB111
 4076 0074 20000000 		.4byte	.LFE111
 4077 0078 00000000 		.4byte	.LFB113
 4078 007c 90000000 		.4byte	.LFE113
 4079 0080 00000000 		.4byte	.LFB114
 4080 0084 08000000 		.4byte	.LFE114
 4081 0088 00000000 		.4byte	.LFB115
 4082 008c E0010000 		.4byte	.LFE115
 4083 0090 00000000 		.4byte	0
 4084 0094 00000000 		.4byte	0
 4085              		.section	.debug_line,"",%progbits
 4086              	.Ldebug_line0:
 4087 0000 60030000 		.section	.debug_str,"MS",%progbits,1
 4087      0200A602 
 4087      00000201 
 4087      FB0E0D00 
 4087      01010101 
 4088              	.LASF136:
 4089 0000 5354445F 		.ascii	"STD_DUTY_CYCLE\000"
 4089      44555459 
 4089      5F435943 
 4089      4C4500
 4090              	.LASF153:
 4091 000f 646D6172 		.ascii	"dmarx\000"
 4091      7800
 4092              	.LASF186:
ARM GAS  /tmp/ccmPRfAK.s 			page 73


 4093 0015 63684F51 		.ascii	"chOQPutTimeout\000"
 4093      50757454 
 4093      696D656F 
 4093      757400
 4094              	.LASF139:
 4095 0024 69326364 		.ascii	"i2cdutycycle_t\000"
 4095      75747963 
 4095      79636C65 
 4095      5F7400
 4096              	.LASF129:
 4097 0033 69326373 		.ascii	"i2cstate_t\000"
 4097      74617465 
 4097      5F7400
 4098              	.LASF84:
 4099 003e 4D304152 		.ascii	"M0AR\000"
 4099      00
 4100              	.LASF2:
 4101 0043 73697A65 		.ascii	"size_t\000"
 4101      5F7400
 4102              	.LASF67:
 4103 004a 7264796D 		.ascii	"rdymsg\000"
 4103      736700
 4104              	.LASF23:
 4105 0051 75696E74 		.ascii	"uint64_t\000"
 4105      36345F74 
 4105      00
 4106              	.LASF108:
 4107 005a 76656374 		.ascii	"vector\000"
 4107      6F7200
 4108              	.LASF82:
 4109 0061 4F757470 		.ascii	"OutputQueue\000"
 4109      75745175 
 4109      65756500 
 4110              	.LASF3:
 4111 006d 5F5F7569 		.ascii	"__uint8_t\000"
 4111      6E74385F 
 4111      7400
 4112              	.LASF112:
 4113 0077 4F545950 		.ascii	"OTYPER\000"
 4113      455200
 4114              	.LASF97:
 4115 007e 54524953 		.ascii	"TRISE\000"
 4115      4500
 4116              	.LASF104:
 4117 0084 73747265 		.ascii	"stream\000"
 4117      616D00
 4118              	.LASF66:
 4119 008b 65735F6E 		.ascii	"es_next\000"
 4119      65787400 
 4120              	.LASF198:
 4121 0093 474E5520 		.ascii	"GNU C 4.8.2 -mcpu=cortex-m4 -mno-thumb-interwork -m"
 4121      4320342E 
 4121      382E3220 
 4121      2D6D6370 
 4121      753D636F 
 4122 00c6 7468756D 		.ascii	"thumb -ggdb -O2 -fomit-frame-pointer -falign-functi"
 4122      62202D67 
ARM GAS  /tmp/ccmPRfAK.s 			page 74


 4122      67646220 
 4122      2D4F3220 
 4122      2D666F6D 
 4123 00f9 6F6E733D 		.ascii	"ons=16 -ffunction-sections -fdata-sections -fno-com"
 4123      3136202D 
 4123      6666756E 
 4123      6374696F 
 4123      6E2D7365 
 4124 012c 6D6F6E00 		.ascii	"mon\000"
 4125              	.LASF111:
 4126 0130 4D4F4445 		.ascii	"MODER\000"
 4126      5200
 4127              	.LASF15:
 4128 0136 6C6F6E67 		.ascii	"long long unsigned int\000"
 4128      206C6F6E 
 4128      6720756E 
 4128      7369676E 
 4128      65642069 
 4129              	.LASF150:
 4130 014d 61646472 		.ascii	"addr\000"
 4130      00
 4131              	.LASF114:
 4132 0152 50555044 		.ascii	"PUPDR\000"
 4132      5200
 4133              	.LASF68:
 4134 0158 65786974 		.ascii	"exitcode\000"
 4134      636F6465 
 4134      00
 4135              	.LASF201:
 4136 0161 7072696E 		.ascii	"print\000"
 4136      7400
 4137              	.LASF195:
 4138 0167 69326352 		.ascii	"i2cReleaseBus\000"
 4138      656C6561 
 4138      73654275 
 4138      7300
 4139              	.LASF174:
 4140 0175 7072696E 		.ascii	"printn\000"
 4140      746E00
 4141              	.LASF177:
 4142 017c 72786275 		.ascii	"rxbuf\000"
 4142      6600
 4143              	.LASF35:
 4144 0182 705F7072 		.ascii	"p_prio\000"
 4144      696F00
 4145              	.LASF194:
 4146 0189 6932634D 		.ascii	"i2cMasterTransmitTimeout\000"
 4146      61737465 
 4146      72547261 
 4146      6E736D69 
 4146      7454696D 
 4147              	.LASF172:
 4148 01a2 72656164 		.ascii	"readt\000"
 4148      7400
 4149              	.LASF72:
 4150 01a8 715F7761 		.ascii	"q_waiting\000"
 4150      6974696E 
ARM GAS  /tmp/ccmPRfAK.s 			page 75


 4150      6700
 4151              	.LASF13:
 4152 01b2 6C6F6E67 		.ascii	"long long int\000"
 4152      206C6F6E 
 4152      6720696E 
 4152      7400
 4153              	.LASF1:
 4154 01c0 7369676E 		.ascii	"signed char\000"
 4154      65642063 
 4154      68617200 
 4155              	.LASF115:
 4156 01cc 42535252 		.ascii	"BSRR\000"
 4156      00
 4157              	.LASF189:
 4158 01d1 63685379 		.ascii	"chSysInit\000"
 4158      73496E69 
 4158      7400
 4159              	.LASF102:
 4160 01db 47545052 		.ascii	"GTPR\000"
 4160      00
 4161              	.LASF156:
 4162 01e0 53445F53 		.ascii	"SD_STOP\000"
 4162      544F5000 
 4163              	.LASF57:
 4164 01e8 6D5F7175 		.ascii	"m_queue\000"
 4164      65756500 
 4165              	.LASF130:
 4166 01f0 69326361 		.ascii	"i2caddr_t\000"
 4166      6464725F 
 4166      7400
 4167              	.LASF145:
 4168 01fa 73746174 		.ascii	"state\000"
 4168      6500
 4169              	.LASF10:
 4170 0200 6C6F6E67 		.ascii	"long int\000"
 4170      20696E74 
 4170      00
 4171              	.LASF26:
 4172 0209 74737461 		.ascii	"tstate_t\000"
 4172      74655F74 
 4172      00
 4173              	.LASF149:
 4174 0212 74687265 		.ascii	"thread\000"
 4174      616400
 4175              	.LASF74:
 4176 0219 715F6275 		.ascii	"q_buffer\000"
 4176      66666572 
 4176      00
 4177              	.LASF76:
 4178 0222 715F7772 		.ascii	"q_wrptr\000"
 4178      70747200 
 4179              	.LASF79:
 4180 022a 715F6C69 		.ascii	"q_link\000"
 4180      6E6B00
 4181              	.LASF99:
 4182 0231 464C5452 		.ascii	"FLTR\000"
 4182      00
ARM GAS  /tmp/ccmPRfAK.s 			page 76


 4183              	.LASF126:
 4184 0236 4932435F 		.ascii	"I2C_ACTIVE_TX\000"
 4184      41435449 
 4184      56455F54 
 4184      5800
 4185              	.LASF37:
 4186 0244 705F6E65 		.ascii	"p_newer\000"
 4186      77657200 
 4187              	.LASF151:
 4188 024c 7278646D 		.ascii	"rxdmamode\000"
 4188      616D6F64 
 4188      6500
 4189              	.LASF119:
 4190 0256 4750494F 		.ascii	"GPIO_TypeDef\000"
 4190      5F547970 
 4190      65446566 
 4190      00
 4191              	.LASF154:
 4192 0263 646D6174 		.ascii	"dmatx\000"
 4192      7800
 4193              	.LASF113:
 4194 0269 4F535045 		.ascii	"OSPEEDR\000"
 4194      45445200 
 4195              	.LASF11:
 4196 0271 5F5F7569 		.ascii	"__uint32_t\000"
 4196      6E743332 
 4196      5F7400
 4197              	.LASF52:
 4198 027c 72656761 		.ascii	"regarm_t\000"
 4198      726D5F74 
 4198      00
 4199              	.LASF107:
 4200 0285 73656C66 		.ascii	"selfindex\000"
 4200      696E6465 
 4200      7800
 4201              	.LASF5:
 4202 028f 5F5F696E 		.ascii	"__int16_t\000"
 4202      7431365F 
 4202      7400
 4203              	.LASF140:
 4204 0299 6F705F6D 		.ascii	"op_mode\000"
 4204      6F646500 
 4205              	.LASF101:
 4206 02a1 4932435F 		.ascii	"I2C_TypeDef\000"
 4206      54797065 
 4206      44656600 
 4207              	.LASF65:
 4208 02ad 4576656E 		.ascii	"EventSource\000"
 4208      74536F75 
 4208      72636500 
 4209              	.LASF163:
 4210 02b9 75736172 		.ascii	"usart\000"
 4210      7400
 4211              	.LASF0:
 4212 02bf 756E7369 		.ascii	"unsigned int\000"
 4212      676E6564 
 4212      20696E74 
ARM GAS  /tmp/ccmPRfAK.s 			page 77


 4212      00
 4213              	.LASF178:
 4214 02cc 74786275 		.ascii	"txbuf\000"
 4214      6600
 4215              	.LASF166:
 4216 02d2 53657269 		.ascii	"SerialDriverVMT\000"
 4216      616C4472 
 4216      69766572 
 4216      564D5400 
 4217              	.LASF43:
 4218 02e2 705F7469 		.ascii	"p_time\000"
 4218      6D6500
 4219              	.LASF147:
 4220 02e9 6572726F 		.ascii	"errors\000"
 4220      727300
 4221              	.LASF161:
 4222 02f0 69717565 		.ascii	"iqueue\000"
 4222      756500
 4223              	.LASF45:
 4224 02f7 705F6D73 		.ascii	"p_msgqueue\000"
 4224      67717565 
 4224      756500
 4225              	.LASF188:
 4226 0302 68616C49 		.ascii	"halInit\000"
 4226      6E697400 
 4227              	.LASF185:
 4228 030a 636F6D70 		.ascii	"complement2signed\000"
 4228      6C656D65 
 4228      6E743273 
 4228      69676E65 
 4228      6400
 4229              	.LASF170:
 4230 031c 67657474 		.ascii	"gett\000"
 4230      00
 4231              	.LASF106:
 4232 0321 69736869 		.ascii	"ishift\000"
 4232      667400
 4233              	.LASF200:
 4234 0328 2F686F6D 		.ascii	"/home/ece497/vbox-shared/mplayer/ChibiOS-RT-stable_"
 4234      652F6563 
 4234      65343937 
 4234      2F76626F 
 4234      782D7368 
 4235 035b 322E362E 		.ascii	"2.6.x/testhal/STM32F4xx/I2C\000"
 4235      782F7465 
 4235      73746861 
 4235      6C2F5354 
 4235      4D333246 
 4236              	.LASF160:
 4237 0377 6576656E 		.ascii	"event\000"
 4237      7400
 4238              	.LASF133:
 4239 037d 4F504D4F 		.ascii	"OPMODE_SMBUS_DEVICE\000"
 4239      44455F53 
 4239      4D425553 
 4239      5F444556 
 4239      49434500 
ARM GAS  /tmp/ccmPRfAK.s 			page 78


 4240              	.LASF8:
 4241 0391 73686F72 		.ascii	"short unsigned int\000"
 4241      7420756E 
 4241      7369676E 
 4241      65642069 
 4241      6E7400
 4242              	.LASF144:
 4243 03a4 49324344 		.ascii	"I2CDriver\000"
 4243      72697665 
 4243      7200
 4244              	.LASF141:
 4245 03ae 636C6F63 		.ascii	"clock_speed\000"
 4245      6B5F7370 
 4245      65656400 
 4246              	.LASF28:
 4247 03ba 6D73675F 		.ascii	"msg_t\000"
 4247      7400
 4248              	.LASF162:
 4249 03c0 6F717565 		.ascii	"oqueue\000"
 4249      756500
 4250              	.LASF103:
 4251 03c7 55534152 		.ascii	"USART_TypeDef\000"
 4251      545F5479 
 4251      70654465 
 4251      6600
 4252              	.LASF171:
 4253 03d5 77726974 		.ascii	"writet\000"
 4253      657400
 4254              	.LASF25:
 4255 03dc 746D6F64 		.ascii	"tmode_t\000"
 4255      655F7400 
 4256              	.LASF20:
 4257 03e4 75696E74 		.ascii	"uint16_t\000"
 4257      31365F74 
 4257      00
 4258              	.LASF51:
 4259 03ed 54687265 		.ascii	"ThreadsList\000"
 4259      6164734C 
 4259      69737400 
 4260              	.LASF29:
 4261 03f9 6576656E 		.ascii	"eventmask_t\000"
 4261      746D6173 
 4261      6B5F7400 
 4262              	.LASF6:
 4263 0405 73686F72 		.ascii	"short int\000"
 4263      7420696E 
 4263      7400
 4264              	.LASF164:
 4265 040f 73706565 		.ascii	"speed\000"
 4265      6400
 4266              	.LASF80:
 4267 0415 716E6F74 		.ascii	"qnotify_t\000"
 4267      6966795F 
 4267      7400
 4268              	.LASF71:
 4269 041f 47656E65 		.ascii	"GenericQueue\000"
 4269      72696351 
ARM GAS  /tmp/ccmPRfAK.s 			page 79


 4269      75657565 
 4269      00
 4270              	.LASF53:
 4271 042c 73746B61 		.ascii	"stkalign_t\000"
 4271      6C69676E 
 4271      5F7400
 4272              	.LASF187:
 4273 0437 63684F51 		.ascii	"chOQWriteTimeout\000"
 4273      57726974 
 4273      6554696D 
 4273      656F7574 
 4273      00
 4274              	.LASF167:
 4275 0448 77726974 		.ascii	"write\000"
 4275      6500
 4276              	.LASF169:
 4277 044e 70757474 		.ascii	"putt\000"
 4277      00
 4278              	.LASF124:
 4279 0453 4932435F 		.ascii	"I2C_STOP\000"
 4279      53544F50 
 4279      00
 4280              	.LASF16:
 4281 045c 73697A65 		.ascii	"sizetype\000"
 4281      74797065 
 4281      00
 4282              	.LASF110:
 4283 0465 636C6561 		.ascii	"clear\000"
 4283      7200
 4284              	.LASF190:
 4285 046b 69326353 		.ascii	"i2cStart\000"
 4285      74617274 
 4285      00
 4286              	.LASF56:
 4287 0474 4D757465 		.ascii	"Mutex\000"
 4287      7800
 4288              	.LASF142:
 4289 047a 64757479 		.ascii	"duty_cycle\000"
 4289      5F637963 
 4289      6C6500
 4290              	.LASF173:
 4291 0485 776F7264 		.ascii	"word\000"
 4291      00
 4292              	.LASF63:
 4293 048a 656C5F6D 		.ascii	"el_mask\000"
 4293      61736B00 
 4294              	.LASF120:
 4295 0492 696F706F 		.ascii	"ioportmask_t\000"
 4295      72746D61 
 4295      736B5F74 
 4295      00
 4296              	.LASF38:
 4297 049f 705F6F6C 		.ascii	"p_older\000"
 4297      64657200 
 4298              	.LASF143:
 4299 04a7 49324343 		.ascii	"I2CConfig\000"
 4299      6F6E6669 
ARM GAS  /tmp/ccmPRfAK.s 			page 80


 4299      6700
 4300              	.LASF50:
 4301 04b1 54687265 		.ascii	"ThreadsQueue\000"
 4301      61647351 
 4301      75657565 
 4301      00
 4302              	.LASF152:
 4303 04be 7478646D 		.ascii	"txdmamode\000"
 4303      616D6F64 
 4303      6500
 4304              	.LASF40:
 4305 04c8 705F7374 		.ascii	"p_stklimit\000"
 4305      6B6C696D 
 4305      697400
 4306              	.LASF132:
 4307 04d3 4F504D4F 		.ascii	"OPMODE_I2C\000"
 4307      44455F49 
 4307      324300
 4308              	.LASF199:
 4309 04de 6D61696E 		.ascii	"main.c\000"
 4309      2E6300
 4310              	.LASF138:
 4311 04e5 46415354 		.ascii	"FAST_DUTY_CYCLE_16_9\000"
 4311      5F445554 
 4311      595F4359 
 4311      434C455F 
 4311      31365F39 
 4312              	.LASF196:
 4313 04fa 63685468 		.ascii	"chThdSleep\000"
 4313      64536C65 
 4313      657000
 4314              	.LASF165:
 4315 0505 53657269 		.ascii	"SerialConfig\000"
 4315      616C436F 
 4315      6E666967 
 4315      00
 4316              	.LASF14:
 4317 0512 5F5F7569 		.ascii	"__uint64_t\000"
 4317      6E743634 
 4317      5F7400
 4318              	.LASF118:
 4319 051d 41465248 		.ascii	"AFRH\000"
 4319      00
 4320              	.LASF117:
 4321 0522 4146524C 		.ascii	"AFRL\000"
 4321      00
 4322              	.LASF182:
 4323 0527 69326366 		.ascii	"i2cfg2\000"
 4323      673200
 4324              	.LASF105:
 4325 052e 69666372 		.ascii	"ifcr\000"
 4325      00
 4326              	.LASF87:
 4327 0533 52455345 		.ascii	"RESERVED0\000"
 4327      52564544 
 4327      3000
 4328              	.LASF88:
ARM GAS  /tmp/ccmPRfAK.s 			page 81


 4329 053d 52455345 		.ascii	"RESERVED1\000"
 4329      52564544 
 4329      3100
 4330              	.LASF90:
 4331 0547 52455345 		.ascii	"RESERVED2\000"
 4331      52564544 
 4331      3200
 4332              	.LASF92:
 4333 0551 52455345 		.ascii	"RESERVED3\000"
 4333      52564544 
 4333      3300
 4334              	.LASF93:
 4335 055b 52455345 		.ascii	"RESERVED4\000"
 4335      52564544 
 4335      3400
 4336              	.LASF34:
 4337 0565 705F7072 		.ascii	"p_prev\000"
 4337      657600
 4338              	.LASF95:
 4339 056c 52455345 		.ascii	"RESERVED6\000"
 4339      52564544 
 4339      3600
 4340              	.LASF96:
 4341 0576 52455345 		.ascii	"RESERVED7\000"
 4341      52564544 
 4341      3700
 4342              	.LASF98:
 4343 0580 52455345 		.ascii	"RESERVED8\000"
 4343      52564544 
 4343      3800
 4344              	.LASF27:
 4345 058a 74707269 		.ascii	"tprio_t\000"
 4345      6F5F7400 
 4346              	.LASF77:
 4347 0592 715F7264 		.ascii	"q_rdptr\000"
 4347      70747200 
 4348              	.LASF131:
 4349 059a 69326366 		.ascii	"i2cflags_t\000"
 4349      6C616773 
 4349      5F7400
 4350              	.LASF148:
 4351 05a5 6D757465 		.ascii	"mutex\000"
 4351      7800
 4352              	.LASF24:
 4353 05ab 5F426F6F 		.ascii	"_Bool\000"
 4353      6C00
 4354              	.LASF21:
 4355 05b1 696E7433 		.ascii	"int32_t\000"
 4355      325F7400 
 4356              	.LASF4:
 4357 05b9 756E7369 		.ascii	"unsigned char\000"
 4357      676E6564 
 4357      20636861 
 4357      7200
 4358              	.LASF109:
 4359 05c7 73746D33 		.ascii	"stm32_dma_stream_t\000"
 4359      325F646D 
ARM GAS  /tmp/ccmPRfAK.s 			page 82


 4359      615F7374 
 4359      7265616D 
 4359      5F7400
 4360              	.LASF183:
 4361 05da 49544D5F 		.ascii	"ITM_RxBuffer\000"
 4361      52784275 
 4361      66666572 
 4361      00
 4362              	.LASF64:
 4363 05e7 656C5F66 		.ascii	"el_flags\000"
 4363      6C616773 
 4363      00
 4364              	.LASF48:
 4365 05f0 705F6D74 		.ascii	"p_mtxlist\000"
 4365      786C6973 
 4365      7400
 4366              	.LASF123:
 4367 05fa 4932435F 		.ascii	"I2C_UNINIT\000"
 4367      554E494E 
 4367      495400
 4368              	.LASF41:
 4369 0605 705F7374 		.ascii	"p_state\000"
 4369      61746500 
 4370              	.LASF197:
 4371 060d 69326347 		.ascii	"i2cGetErrors\000"
 4371      65744572 
 4371      726F7273 
 4371      00
 4372              	.LASF70:
 4373 061a 65776D61 		.ascii	"ewmask\000"
 4373      736B00
 4374              	.LASF33:
 4375 0621 705F6E65 		.ascii	"p_next\000"
 4375      787400
 4376              	.LASF42:
 4377 0628 705F666C 		.ascii	"p_flags\000"
 4377      61677300 
 4378              	.LASF61:
 4379 0630 656C5F6E 		.ascii	"el_next\000"
 4379      65787400 
 4380              	.LASF179:
 4381 0638 61636365 		.ascii	"acceleration_x\000"
 4381      6C657261 
 4381      74696F6E 
 4381      5F7800
 4382              	.LASF175:
 4383 0647 7072696E 		.ascii	"println\000"
 4383      746C6E00 
 4384              	.LASF137:
 4385 064f 46415354 		.ascii	"FAST_DUTY_CYCLE_2\000"
 4385      5F445554 
 4385      595F4359 
 4385      434C455F 
 4385      3200
 4386              	.LASF32:
 4387 0661 54687265 		.ascii	"Thread\000"
 4387      616400
ARM GAS  /tmp/ccmPRfAK.s 			page 83


 4388              	.LASF116:
 4389 0668 4C434B52 		.ascii	"LCKR\000"
 4389      00
 4390              	.LASF128:
 4391 066d 4932435F 		.ascii	"I2C_LOCKED\000"
 4391      4C4F434B 
 4391      454400
 4392              	.LASF30:
 4393 0678 666C6167 		.ascii	"flagsmask_t\000"
 4393      736D6173 
 4393      6B5F7400 
 4394              	.LASF47:
 4395 0684 705F6570 		.ascii	"p_epending\000"
 4395      656E6469 
 4395      6E6700
 4396              	.LASF155:
 4397 068f 53445F55 		.ascii	"SD_UNINIT\000"
 4397      4E494E49 
 4397      5400
 4398              	.LASF94:
 4399 0699 52455345 		.ascii	"RESERVED5\000"
 4399      52564544 
 4399      3500
 4400              	.LASF73:
 4401 06a3 715F636F 		.ascii	"q_counter\000"
 4401      756E7465 
 4401      7200
 4402              	.LASF158:
 4403 06ad 73647374 		.ascii	"sdstate_t\000"
 4403      6174655F 
 4403      7400
 4404              	.LASF100:
 4405 06b7 52455345 		.ascii	"RESERVED9\000"
 4405      52564544 
 4405      3900
 4406              	.LASF159:
 4407 06c1 53657269 		.ascii	"SerialDriver\000"
 4407      616C4472 
 4407      69766572 
 4407      00
 4408              	.LASF184:
 4409 06ce 49324344 		.ascii	"I2CD2\000"
 4409      3200
 4410              	.LASF127:
 4411 06d4 4932435F 		.ascii	"I2C_ACTIVE_RX\000"
 4411      41435449 
 4411      56455F52 
 4411      5800
 4412              	.LASF12:
 4413 06e2 6C6F6E67 		.ascii	"long unsigned int\000"
 4413      20756E73 
 4413      69676E65 
 4413      6420696E 
 4413      7400
 4414              	.LASF168:
 4415 06f4 72656164 		.ascii	"read\000"
 4415      00
ARM GAS  /tmp/ccmPRfAK.s 			page 84


 4416              	.LASF17:
 4417 06f9 63686172 		.ascii	"char\000"
 4417      00
 4418              	.LASF134:
 4419 06fe 4F504D4F 		.ascii	"OPMODE_SMBUS_HOST\000"
 4419      44455F53 
 4419      4D425553 
 4419      5F484F53 
 4419      5400
 4420              	.LASF146:
 4421 0710 636F6E66 		.ascii	"config\000"
 4421      696700
 4422              	.LASF191:
 4423 0717 73645374 		.ascii	"sdStart\000"
 4423      61727400 
 4424              	.LASF7:
 4425 071f 5F5F7569 		.ascii	"__uint16_t\000"
 4425      6E743136 
 4425      5F7400
 4426              	.LASF59:
 4427 072a 6D5F6E65 		.ascii	"m_next\000"
 4427      787400
 4428              	.LASF31:
 4429 0731 73797374 		.ascii	"systime_t\000"
 4429      696D655F 
 4429      7400
 4430              	.LASF49:
 4431 073b 705F7265 		.ascii	"p_realprio\000"
 4431      616C7072 
 4431      696F00
 4432              	.LASF9:
 4433 0746 5F5F696E 		.ascii	"__int32_t\000"
 4433      7433325F 
 4433      7400
 4434              	.LASF83:
 4435 0750 4E445452 		.ascii	"NDTR\000"
 4435      00
 4436              	.LASF125:
 4437 0755 4932435F 		.ascii	"I2C_READY\000"
 4437      52454144 
 4437      5900
 4438              	.LASF86:
 4439 075f 444D415F 		.ascii	"DMA_Stream_TypeDef\000"
 4439      53747265 
 4439      616D5F54 
 4439      79706544 
 4439      656600
 4440              	.LASF122:
 4441 0772 696F706F 		.ascii	"ioportid_t\000"
 4441      72746964 
 4441      5F7400
 4442              	.LASF55:
 4443 077d 636F6E74 		.ascii	"context\000"
 4443      65787400 
 4444              	.LASF192:
 4445 0785 5F70616C 		.ascii	"_pal_lld_setgroupmode\000"
 4445      5F6C6C64 
ARM GAS  /tmp/ccmPRfAK.s 			page 85


 4445      5F736574 
 4445      67726F75 
 4445      706D6F64 
 4446              	.LASF54:
 4447 079b 696E7463 		.ascii	"intctx\000"
 4447      747800
 4448              	.LASF157:
 4449 07a2 53445F52 		.ascii	"SD_READY\000"
 4449      45414459 
 4449      00
 4450              	.LASF85:
 4451 07ab 4D314152 		.ascii	"M1AR\000"
 4451      00
 4452              	.LASF22:
 4453 07b0 75696E74 		.ascii	"uint32_t\000"
 4453      33325F74 
 4453      00
 4454              	.LASF75:
 4455 07b9 715F746F 		.ascii	"q_top\000"
 4455      7000
 4456              	.LASF39:
 4457 07bf 705F6E61 		.ascii	"p_name\000"
 4457      6D6500
 4458              	.LASF193:
 4459 07c6 69326341 		.ascii	"i2cAcquireBus\000"
 4459      63717569 
 4459      72654275 
 4459      7300
 4460              	.LASF176:
 4461 07d4 73746174 		.ascii	"status\000"
 4461      757300
 4462              	.LASF78:
 4463 07db 715F6E6F 		.ascii	"q_notify\000"
 4463      74696679 
 4463      00
 4464              	.LASF18:
 4465 07e4 75696E74 		.ascii	"uint8_t\000"
 4465      385F7400 
 4466              	.LASF81:
 4467 07ec 496E7075 		.ascii	"InputQueue\000"
 4467      74517565 
 4467      756500
 4468              	.LASF89:
 4469 07f7 4F415231 		.ascii	"OAR1\000"
 4469      00
 4470              	.LASF91:
 4471 07fc 4F415232 		.ascii	"OAR2\000"
 4471      00
 4472              	.LASF60:
 4473 0801 4576656E 		.ascii	"EventListener\000"
 4473      744C6973 
 4473      74656E65 
 4473      7200
 4474              	.LASF69:
 4475 080f 77746F62 		.ascii	"wtobjp\000"
 4475      6A7000
 4476              	.LASF62:
ARM GAS  /tmp/ccmPRfAK.s 			page 86


 4477 0816 656C5F6C 		.ascii	"el_listener\000"
 4477      69737465 
 4477      6E657200 
 4478              	.LASF46:
 4479 0822 705F6D73 		.ascii	"p_msg\000"
 4479      6700
 4480              	.LASF135:
 4481 0828 6932636F 		.ascii	"i2copmode_t\000"
 4481      706D6F64 
 4481      655F7400 
 4482              	.LASF202:
 4483 0834 6D61696E 		.ascii	"main\000"
 4483      00
 4484              	.LASF19:
 4485 0839 696E7431 		.ascii	"int16_t\000"
 4485      365F7400 
 4486              	.LASF121:
 4487 0841 696F6D6F 		.ascii	"iomode_t\000"
 4487      64655F74 
 4487      00
 4488              	.LASF58:
 4489 084a 6D5F6F77 		.ascii	"m_owner\000"
 4489      6E657200 
 4490              	.LASF180:
 4491 0852 61636365 		.ascii	"acceleration_y\000"
 4491      6C657261 
 4491      74696F6E 
 4491      5F7900
 4492              	.LASF181:
 4493 0861 61636365 		.ascii	"acceleration_z\000"
 4493      6C657261 
 4493      74696F6E 
 4493      5F7A00
 4494              	.LASF36:
 4495 0870 705F6374 		.ascii	"p_ctx\000"
 4495      7800
 4496              	.LASF44:
 4497 0876 705F7761 		.ascii	"p_waiting\000"
 4497      6974696E 
 4497      6700
 4498              		.ident	"GCC: (Arch Repository) 4.8.2"
ARM GAS  /tmp/ccmPRfAK.s 			page 87


DEFINED SYMBOLS
                            *ABS*:0000000000000000 main.c
     /tmp/ccmPRfAK.s:19     .text.print:0000000000000000 $t
     /tmp/ccmPRfAK.s:24     .text.print:0000000000000000 print
     /tmp/ccmPRfAK.s:58     .text.print:000000000000001c $d
     /tmp/ccmPRfAK.s:63     .text.printn:0000000000000000 $t
     /tmp/ccmPRfAK.s:68     .text.printn:0000000000000000 printn
     /tmp/ccmPRfAK.s:182    .text.printn:000000000000008c $d
     /tmp/ccmPRfAK.s:189    .text.complement2signed:0000000000000000 $t
     /tmp/ccmPRfAK.s:195    .text.complement2signed:0000000000000000 complement2signed
     /tmp/ccmPRfAK.s:213    .text.startup.main:0000000000000000 $t
     /tmp/ccmPRfAK.s:219    .text.startup.main:0000000000000000 main
     /tmp/ccmPRfAK.s:550    .rodata.i2cfg2:0000000000000000 .LANCHOR0
     /tmp/ccmPRfAK.s:529    .bss.txbuf:0000000000000000 .LANCHOR1
     /tmp/ccmPRfAK.s:515    .bss.rxbuf:0000000000000000 .LANCHOR2
     /tmp/ccmPRfAK.s:508    .bss.errors:0000000000000000 .LANCHOR3
     /tmp/ccmPRfAK.s:536    .bss.acceleration_x:0000000000000000 .LANCHOR4
     /tmp/ccmPRfAK.s:543    .bss.acceleration_y:0000000000000000 .LANCHOR5
     /tmp/ccmPRfAK.s:522    .bss.acceleration_z:0000000000000000 .LANCHOR6
     /tmp/ccmPRfAK.s:561    .rodata.str1.4:0000000000000000 .LC0
     /tmp/ccmPRfAK.s:563    .rodata.str1.4:0000000000000004 .LC1
     /tmp/ccmPRfAK.s:566    .rodata.str1.4:000000000000000c .LC2
     /tmp/ccmPRfAK.s:569    .rodata.str1.4:0000000000000014 .LC3
     /tmp/ccmPRfAK.s:502    .text.startup.main:00000000000001dc $d
     /tmp/ccmPRfAK.s:507    .bss.errors:0000000000000000 $d
     /tmp/ccmPRfAK.s:511    .bss.errors:0000000000000000 errors
     /tmp/ccmPRfAK.s:514    .bss.rxbuf:0000000000000000 $d
     /tmp/ccmPRfAK.s:518    .bss.rxbuf:0000000000000000 rxbuf
     /tmp/ccmPRfAK.s:521    .bss.acceleration_z:0000000000000000 $d
     /tmp/ccmPRfAK.s:525    .bss.acceleration_z:0000000000000000 acceleration_z
     /tmp/ccmPRfAK.s:528    .bss.txbuf:0000000000000000 $d
     /tmp/ccmPRfAK.s:532    .bss.txbuf:0000000000000000 txbuf
     /tmp/ccmPRfAK.s:535    .bss.acceleration_x:0000000000000000 $d
     /tmp/ccmPRfAK.s:539    .bss.acceleration_x:0000000000000000 acceleration_x
     /tmp/ccmPRfAK.s:542    .bss.acceleration_y:0000000000000000 $d
     /tmp/ccmPRfAK.s:546    .bss.acceleration_y:0000000000000000 acceleration_y
     /tmp/ccmPRfAK.s:549    .rodata.i2cfg2:0000000000000000 $d
     /tmp/ccmPRfAK.s:553    .rodata.i2cfg2:0000000000000000 i2cfg2
     /tmp/ccmPRfAK.s:560    .rodata.str1.4:0000000000000000 $d
                     .debug_frame:0000000000000010 $d

UNDEFINED SYMBOLS
chOQPutTimeout
SD2
halInit
chSysInit
I2CD2
i2cStart
sdStart
_pal_lld_setgroupmode
i2cAcquireBus
i2cMasterTransmitTimeout
i2cReleaseBus
chOQWriteTimeout
chThdSleep
i2cGetErrors
