ARM GAS  /tmp/ccFAambi.s 			page 1


   1              		.syntax unified
   2              		.cpu cortex-m4
   3              		.fpu softvfp
   4              		.eabi_attribute 20, 1
   5              		.eabi_attribute 21, 1
   6              		.eabi_attribute 23, 3
   7              		.eabi_attribute 24, 1
   8              		.eabi_attribute 25, 1
   9              		.eabi_attribute 26, 1
  10              		.eabi_attribute 30, 2
  11              		.eabi_attribute 34, 1
  12              		.eabi_attribute 18, 4
  13              		.thumb
  14              		.file	"serial_lld.c"
  15              		.text
  16              	.Ltext0:
  17              		.cfi_sections	.debug_frame
  18              		.section	.text.notify2,"ax",%progbits
  19              		.align	2
  20              		.p2align 4,,15
  21              		.thumb
  22              		.thumb_func
  23              		.type	notify2, %function
  24              	notify2:
  25              	.LFB115:
  26              		.file 1 "../../../os/hal/platforms/STM32/USARTv1/serial_lld.c"
  27              		.loc 1 211 0
  28              		.cfi_startproc
  29              		@ args = 0, pretend = 0, frame = 0
  30              		@ frame_needed = 0, uses_anonymous_args = 0
  31              		@ link register save eliminated.
  32              	.LVL0:
  33              		.loc 1 214 0
  34 0000 4FF48843 		mov	r3, #17408
  35 0004 C4F20003 		movt	r3, 16384
  36 0008 9A89     		ldrh	r2, [r3, #12]
  37 000a 92B2     		uxth	r2, r2
  38 000c 42F08002 		orr	r2, r2, #128
  39 0010 9A81     		strh	r2, [r3, #12]	@ movhi
  40 0012 7047     		bx	lr
  41              		.cfi_endproc
  42              	.LFE115:
  43              		.size	notify2, .-notify2
  44              		.section	.text.VectorD8,"ax",%progbits
  45              		.align	2
  46              		.p2align 4,,15
  47              		.global	VectorD8
  48              		.thumb
  49              		.thumb_func
  50              		.type	VectorD8, %function
  51              	VectorD8:
  52              	.LFB116:
  53              		.loc 1 282 0
  54              		.cfi_startproc
  55              		@ args = 0, pretend = 0, frame = 0
  56              		@ frame_needed = 0, uses_anonymous_args = 0
  57 0000 70B5     		push	{r4, r5, r6, lr}
ARM GAS  /tmp/ccFAambi.s 			page 2


  58              		.cfi_def_cfa_offset 16
  59              		.cfi_offset 4, -16
  60              		.cfi_offset 5, -12
  61              		.cfi_offset 6, -8
  62              		.cfi_offset 14, -4
  63              		.loc 1 284 0
  64 0002 FFF7FEFF 		bl	dbg_check_enter_isr
  65              	.LVL1:
  66              	.LBB10:
  67              	.LBB11:
  68              		.loc 1 155 0
  69 0006 40F20003 		movw	r3, #:lower16:.LANCHOR0
  70 000a C0F20003 		movt	r3, #:upper16:.LANCHOR0
  71 000e 5D6F     		ldr	r5, [r3, #116]
  72              	.LVL2:
  73              		.loc 1 156 0
  74 0010 AE89     		ldrh	r6, [r5, #12]
  75              		.loc 1 157 0
  76 0012 2C88     		ldrh	r4, [r5]
  77 0014 A4B2     		uxth	r4, r4
  78              		.loc 1 160 0
  79 0016 E005     		lsls	r0, r4, #23
  80              		.loc 1 156 0
  81 0018 B6B2     		uxth	r6, r6
  82              	.LVL3:
  83              		.loc 1 160 0
  84 001a 4DD4     		bmi	.L47
  85              	.L3:
  86              		.loc 1 168 0
  87              	@ 168 "../../../os/hal/platforms/STM32/USARTv1/serial_lld.c" 1
  88 001c FFF7FEFF 		bl      _port_lock
  89              	@ 0 "" 2
  90              		.thumb
  91 0020 FFF7FEFF 		bl	dbg_check_lock_from_isr
  92              	.LVL4:
  93              		.loc 1 169 0
  94 0024 A106     		lsls	r1, r4, #26
  95 0026 24D5     		bpl	.L4
  96 0028 0BE0     		b	.L10
  97              	.LVL5:
  98              	.L5:
  99              		.loc 1 173 0
 100 002a A988     		ldrh	r1, [r5, #4]
 101 002c 40F20000 		movw	r0, #:lower16:.LANCHOR0
 102 0030 C0F20000 		movt	r0, #:upper16:.LANCHOR0
 103 0034 C9B2     		uxtb	r1, r1
 104 0036 FFF7FEFF 		bl	sdIncomingDataI
 105              	.LVL6:
 106              		.loc 1 174 0
 107 003a 2C88     		ldrh	r4, [r5]
 108 003c A4B2     		uxth	r4, r4
 109              	.LVL7:
 110              		.loc 1 169 0
 111 003e A006     		lsls	r0, r4, #26
 112 0040 17D5     		bpl	.L4
 113              	.LVL8:
 114              	.L10:
ARM GAS  /tmp/ccFAambi.s 			page 3


 115              		.loc 1 171 0
 116 0042 2207     		lsls	r2, r4, #28
 117 0044 F1D0     		beq	.L5
 118              	.LVL9:
 119              	.LBB12:
 120              	.LBB13:
 121              		.loc 1 136 0
 122 0046 14F0080F 		tst	r4, #8
 123 004a 14BF     		ite	ne
 124 004c 8021     		movne	r1, #128
 125 004e 0021     		moveq	r1, #0
 126              	.LVL10:
 127              		.loc 1 140 0
 128 0050 14F0010F 		tst	r4, #1
 129              		.loc 1 141 0
 130 0054 18BF     		it	ne
 131 0056 41F02001 		orrne	r1, r1, #32
 132              	.LVL11:
 133              		.loc 1 142 0
 134 005a A307     		lsls	r3, r4, #30
 135              		.loc 1 143 0
 136 005c 48BF     		it	mi
 137 005e 41F04001 		orrmi	r1, r1, #64
 138              	.LVL12:
 139              		.loc 1 144 0
 140 0062 6407     		lsls	r4, r4, #29
 141              	.LVL13:
 142              		.loc 1 146 0
 143 0064 2A48     		ldr	r0, .L50
 144              		.loc 1 145 0
 145 0066 48BF     		it	mi
 146 0068 41F48071 		orrmi	r1, r1, #256
 147              	.LVL14:
 148              		.loc 1 146 0
 149 006c FFF7FEFF 		bl	chEvtBroadcastFlagsI
 150              	.LVL15:
 151 0070 DBE7     		b	.L5
 152              	.LVL16:
 153              	.L4:
 154              	.LBE13:
 155              	.LBE12:
 156              		.loc 1 176 0
 157 0072 FFF7FEFF 		bl	dbg_check_unlock_from_isr
 158              	.LVL17:
 159              	@ 176 "../../../os/hal/platforms/STM32/USARTv1/serial_lld.c" 1
 160 0076 FFF7FEFF 		bl      _port_unlock
 161              	@ 0 "" 2
 162              		.loc 1 179 0
 163              		.thumb
 164 007a 3106     		lsls	r1, r6, #24
 165 007c 01D5     		bpl	.L11
 166 007e 2206     		lsls	r2, r4, #24
 167 0080 2BD4     		bmi	.L48
 168              	.L11:
 169              		.loc 1 193 0
 170 0082 6306     		lsls	r3, r4, #25
 171 0084 12D5     		bpl	.L14
ARM GAS  /tmp/ccFAambi.s 			page 4


 172              		.loc 1 194 0
 173              	@ 194 "../../../os/hal/platforms/STM32/USARTv1/serial_lld.c" 1
 174 0086 FFF7FEFF 		bl      _port_lock
 175              	@ 0 "" 2
 176              		.thumb
 177 008a FFF7FEFF 		bl	dbg_check_lock_from_isr
 178              	.LVL18:
 179              		.loc 1 195 0
 180 008e 2048     		ldr	r0, .L50
 181 0090 1021     		movs	r1, #16
 182 0092 FFF7FEFF 		bl	chEvtBroadcastFlagsI
 183              	.LVL19:
 184              		.loc 1 196 0
 185 0096 FFF7FEFF 		bl	dbg_check_unlock_from_isr
 186              	.LVL20:
 187              	@ 196 "../../../os/hal/platforms/STM32/USARTv1/serial_lld.c" 1
 188 009a FFF7FEFF 		bl      _port_unlock
 189              	@ 0 "" 2
 190              		.loc 1 197 0
 191              		.thumb
 192 009e 4FF63F73 		movw	r3, #65343
 193 00a2 3340     		ands	r3, r3, r6
 194              		.loc 1 198 0
 195 00a4 4FF6BF72 		movw	r2, #65471
 196              		.loc 1 197 0
 197 00a8 AB81     		strh	r3, [r5, #12]	@ movhi
 198              		.loc 1 198 0
 199 00aa 2A80     		strh	r2, [r5]	@ movhi
 200              	.L14:
 201              	.LBE11:
 202              	.LBE10:
 203              		.loc 1 288 0
 204 00ac FFF7FEFF 		bl	dbg_check_leave_isr
 205              	.LVL21:
 206              		.loc 1 289 0
 207 00b0 BDE87040 		pop	{r4, r5, r6, lr}
 208              	.LVL22:
 209              		.loc 1 288 0
 210 00b4 FFF7FEBF 		b	_port_irq_epilogue
 211              	.LVL23:
 212              	.L47:
 213              	.LBB16:
 214              	.LBB15:
 215              		.loc 1 161 0
 216              	@ 161 "../../../os/hal/platforms/STM32/USARTv1/serial_lld.c" 1
 217 00b8 FFF7FEFF 		bl      _port_lock
 218              	@ 0 "" 2
 219              		.thumb
 220 00bc FFF7FEFF 		bl	dbg_check_lock_from_isr
 221              	.LVL24:
 222              		.loc 1 162 0
 223 00c0 1348     		ldr	r0, .L50
 224 00c2 4FF40071 		mov	r1, #512
 225 00c6 FFF7FEFF 		bl	chEvtBroadcastFlagsI
 226              	.LVL25:
 227              		.loc 1 163 0
 228 00ca FFF7FEFF 		bl	dbg_check_unlock_from_isr
ARM GAS  /tmp/ccFAambi.s 			page 5


 229              	.LVL26:
 230              	@ 163 "../../../os/hal/platforms/STM32/USARTv1/serial_lld.c" 1
 231 00ce FFF7FEFF 		bl      _port_unlock
 232              	@ 0 "" 2
 233              		.loc 1 164 0
 234              		.thumb
 235 00d2 4FF6FF63 		movw	r3, #65279
 236 00d6 2B80     		strh	r3, [r5]	@ movhi
 237 00d8 A0E7     		b	.L3
 238              	.LVL27:
 239              	.L48:
 240              	.LBB14:
 241              		.loc 1 181 0
 242              	@ 181 "../../../os/hal/platforms/STM32/USARTv1/serial_lld.c" 1
 243 00da FFF7FEFF 		bl      _port_lock
 244              	@ 0 "" 2
 245              		.thumb
 246 00de FFF7FEFF 		bl	dbg_check_lock_from_isr
 247              	.LVL28:
 248              		.loc 1 182 0
 249 00e2 0C48     		ldr	r0, .L50+4
 250 00e4 FFF7FEFF 		bl	chOQGetI
 251              	.LVL29:
 252              		.loc 1 183 0
 253 00e8 0028     		cmp	r0, #0
 254              		.loc 1 188 0
 255 00ea A4BF     		itt	ge
 256 00ec 80B2     		uxthge	r0, r0
 257              	.LVL30:
 258 00ee A880     		strhge	r0, [r5, #4]	@ movhi
 259              		.loc 1 183 0
 260 00f0 04DB     		blt	.L49
 261              	.L13:
 262              		.loc 1 189 0
 263 00f2 FFF7FEFF 		bl	dbg_check_unlock_from_isr
 264              	.LVL31:
 265              	@ 189 "../../../os/hal/platforms/STM32/USARTv1/serial_lld.c" 1
 266 00f6 FFF7FEFF 		bl      _port_unlock
 267              	@ 0 "" 2
 268              		.thumb
 269 00fa C2E7     		b	.L11
 270              	.L49:
 271              		.loc 1 184 0
 272 00fc 0448     		ldr	r0, .L50
 273 00fe 0821     		movs	r1, #8
 274 0100 FFF7FEFF 		bl	chEvtBroadcastFlagsI
 275              	.LVL32:
 276              		.loc 1 185 0
 277 0104 26F0C003 		bic	r3, r6, #192
 278 0108 43F04003 		orr	r3, r3, #64
 279 010c AB81     		strh	r3, [r5, #12]	@ movhi
 280 010e F0E7     		b	.L13
 281              	.L51:
 282              		.align	2
 283              	.L50:
 284 0110 04000000 		.word	.LANCHOR0+4
 285 0114 30000000 		.word	.LANCHOR0+48
ARM GAS  /tmp/ccFAambi.s 			page 6


 286              	.LBE14:
 287              	.LBE15:
 288              	.LBE16:
 289              		.cfi_endproc
 290              	.LFE116:
 291              		.size	VectorD8, .-VectorD8
 292 0118 AFF30080 		.section	.text.sd_lld_init,"ax",%progbits
 292      AFF30080 
 293              		.align	2
 294              		.p2align 4,,15
 295              		.global	sd_lld_init
 296              		.thumb
 297              		.thumb_func
 298              		.type	sd_lld_init, %function
 299              	sd_lld_init:
 300              	.LFB117:
 301              		.loc 1 377 0
 302              		.cfi_startproc
 303              		@ args = 0, pretend = 0, frame = 0
 304              		@ frame_needed = 0, uses_anonymous_args = 0
 305 0000 10B5     		push	{r4, lr}
 306              		.cfi_def_cfa_offset 8
 307              		.cfi_offset 4, -8
 308              		.cfi_offset 14, -4
 309              		.loc 1 385 0
 310 0002 40F20004 		movw	r4, #:lower16:.LANCHOR0
 311 0006 C0F20004 		movt	r4, #:upper16:.LANCHOR0
 312 000a 40F20002 		movw	r2, #:lower16:notify2
 313 000e 2046     		mov	r0, r4
 314 0010 C0F20002 		movt	r2, #:upper16:notify2
 315 0014 0021     		movs	r1, #0
 316 0016 FFF7FEFF 		bl	sdObjectInit
 317              	.LVL33:
 318              		.loc 1 386 0
 319 001a 4FF48843 		mov	r3, #17408
 320 001e C4F20003 		movt	r3, 16384
 321 0022 6367     		str	r3, [r4, #116]
 322 0024 10BD     		pop	{r4, pc}
 323              		.cfi_endproc
 324              	.LFE117:
 325              		.size	sd_lld_init, .-sd_lld_init
 326 0026 00BFAFF3 		.section	.text.sd_lld_start,"ax",%progbits
 326      0080AFF3 
 326      0080
 327              		.align	2
 328              		.p2align 4,,15
 329              		.global	sd_lld_start
 330              		.thumb
 331              		.thumb_func
 332              		.type	sd_lld_start, %function
 333              	sd_lld_start:
 334              	.LFB118:
 335              		.loc 1 420 0
 336              		.cfi_startproc
 337              		@ args = 0, pretend = 0, frame = 0
 338              		@ frame_needed = 0, uses_anonymous_args = 0
 339              	.LVL34:
ARM GAS  /tmp/ccFAambi.s 			page 7


 340 0000 38B5     		push	{r3, r4, r5, lr}
 341              		.cfi_def_cfa_offset 16
 342              		.cfi_offset 3, -16
 343              		.cfi_offset 4, -12
 344              		.cfi_offset 5, -8
 345              		.cfi_offset 14, -4
 346              		.loc 1 423 0
 347 0002 40F20004 		movw	r4, #:lower16:.LANCHOR1
 348              		.loc 1 425 0
 349 0006 037A     		ldrb	r3, [r0, #8]	@ zero_extendqisi2
 350              		.loc 1 423 0
 351 0008 C0F20004 		movt	r4, #:upper16:.LANCHOR1
 352 000c 0029     		cmp	r1, #0
 353 000e 18BF     		it	ne
 354 0010 0C46     		movne	r4, r1
 355              	.LVL35:
 356              		.loc 1 425 0
 357 0012 012B     		cmp	r3, #1
 358              		.loc 1 420 0
 359 0014 0546     		mov	r5, r0
 360              		.loc 1 425 0
 361 0016 31D0     		beq	.L59
 362              	.LVL36:
 363              	.L55:
 364              		.loc 1 420 0
 365 0018 6B6F     		ldr	r3, [r5, #116]
 366              	.LVL37:
 367              	.LBB19:
 368              	.LBB20:
 369              		.loc 1 97 0
 370 001a 4FF4A051 		mov	r1, #5120
 371 001e 4FF48052 		mov	r2, #4096
 372 0022 C4F20102 		movt	r2, 16385
 373 0026 C4F20101 		movt	r1, 16385
 374 002a 9342     		cmp	r3, r2
 375 002c 18BF     		it	ne
 376 002e 8B42     		cmpne	r3, r1
 377              		.loc 1 101 0
 378 0030 0BBF     		itete	eq
 379 0032 2168     		ldreq	r1, [r4]
 380              		.loc 1 103 0
 381 0034 2168     		ldrne	r1, [r4]
 382              		.loc 1 101 0
 383 0036 4FF43D42 		moveq	r2, #48384
 384              		.loc 1 103 0
 385 003a 4DF68062 		movwne	r2, #56960
 386              		.loc 1 101 0
 387 003e 0CBF     		ite	eq
 388 0040 C0F20152 		movteq	r2, 1281
 389              		.loc 1 103 0
 390 0044 C0F28022 		movtne	r2, 640
 391 0048 B2FBF1F2 		udiv	r2, r2, r1
 392 004c 92B2     		uxth	r2, r2
 393 004e 1A81     		strh	r2, [r3, #8]	@ movhi
 394              		.loc 1 108 0
 395 0050 A288     		ldrh	r2, [r4, #4]
 396              		.loc 1 106 0
ARM GAS  /tmp/ccFAambi.s 			page 8


 397 0052 E188     		ldrh	r1, [r4, #6]
 398              		.loc 1 107 0
 399 0054 2089     		ldrh	r0, [r4, #8]
 400              		.loc 1 108 0
 401 0056 42F40452 		orr	r2, r2, #8448
 402              		.loc 1 106 0
 403 005a 41F04004 		orr	r4, r1, #64
 404              	.LVL38:
 405              		.loc 1 108 0
 406 005e 42F02C02 		orr	r2, r2, #44
 407              		.loc 1 107 0
 408 0062 40F00100 		orr	r0, r0, #1
 409              		.loc 1 108 0
 410 0066 92B2     		uxth	r2, r2
 411              		.loc 1 106 0
 412 0068 A4B2     		uxth	r4, r4
 413              		.loc 1 107 0
 414 006a 80B2     		uxth	r0, r0
 415              		.loc 1 111 0
 416 006c 0021     		movs	r1, #0
 417              		.loc 1 106 0
 418 006e 1C82     		strh	r4, [r3, #16]	@ movhi
 419              		.loc 1 107 0
 420 0070 9882     		strh	r0, [r3, #20]	@ movhi
 421              		.loc 1 108 0
 422 0072 9A81     		strh	r2, [r3, #12]	@ movhi
 423              		.loc 1 111 0
 424 0074 1980     		strh	r1, [r3]	@ movhi
 425              		.loc 1 112 0
 426 0076 1A88     		ldrh	r2, [r3]
 427              		.loc 1 113 0
 428 0078 9B88     		ldrh	r3, [r3, #4]
 429              	.LVL39:
 430 007a 38BD     		pop	{r3, r4, r5, pc}
 431              	.LVL40:
 432              	.L59:
 433              	.LBE20:
 434              	.LBE19:
 435              		.loc 1 434 0
 436 007c 40F20003 		movw	r3, #:lower16:.LANCHOR0
 437 0080 C0F20003 		movt	r3, #:upper16:.LANCHOR0
 438 0084 9842     		cmp	r0, r3
 439 0086 C7D1     		bne	.L55
 440              		.loc 1 435 0
 441 0088 4FF46053 		mov	r3, #14336
 442 008c C4F20203 		movt	r3, 16386
 443              		.loc 1 436 0
 444 0090 2620     		movs	r0, #38
 445              	.LVL41:
 446              		.loc 1 435 0
 447 0092 1A6C     		ldr	r2, [r3, #64]
 448 0094 42F40032 		orr	r2, r2, #131072
 449 0098 1A64     		str	r2, [r3, #64]
 450              		.loc 1 436 0
 451 009a C021     		movs	r1, #192
 452 009c FFF7FEFF 		bl	nvicEnableVector
 453              	.LVL42:
ARM GAS  /tmp/ccFAambi.s 			page 9


 454 00a0 BAE7     		b	.L55
 455              		.cfi_endproc
 456              	.LFE118:
 457              		.size	sd_lld_start, .-sd_lld_start
 458 00a2 00BFAFF3 		.section	.text.sd_lld_stop,"ax",%progbits
 458      0080AFF3 
 458      0080AFF3 
 458      0080
 459              		.align	2
 460              		.p2align 4,,15
 461              		.global	sd_lld_stop
 462              		.thumb
 463              		.thumb_func
 464              		.type	sd_lld_stop, %function
 465              	sd_lld_stop:
 466              	.LFB119:
 467              		.loc 1 481 0
 468              		.cfi_startproc
 469              		@ args = 0, pretend = 0, frame = 0
 470              		@ frame_needed = 0, uses_anonymous_args = 0
 471              		@ link register save eliminated.
 472              	.LVL43:
 473              		.loc 1 483 0
 474 0000 037A     		ldrb	r3, [r0, #8]	@ zero_extendqisi2
 475 0002 022B     		cmp	r3, #2
 476 0004 00D0     		beq	.L64
 477              	.L60:
 478 0006 7047     		bx	lr
 479              	.L64:
 480              		.loc 1 493 0
 481 0008 40F20003 		movw	r3, #:lower16:.LANCHOR0
 482              		.loc 1 484 0
 483 000c 426F     		ldr	r2, [r0, #116]
 484              	.LVL44:
 485              		.loc 1 493 0
 486 000e C0F20003 		movt	r3, #:upper16:.LANCHOR0
 487              	.LBB21:
 488              	.LBB22:
 489              		.loc 1 124 0
 490 0012 0021     		movs	r1, #0
 491              	.LBE22:
 492              	.LBE21:
 493              		.loc 1 493 0
 494 0014 9842     		cmp	r0, r3
 495              	.LBB24:
 496              	.LBB23:
 497              		.loc 1 124 0
 498 0016 9181     		strh	r1, [r2, #12]	@ movhi
 499              		.loc 1 125 0
 500 0018 1182     		strh	r1, [r2, #16]	@ movhi
 501              		.loc 1 126 0
 502 001a 9182     		strh	r1, [r2, #20]	@ movhi
 503              	.LBE23:
 504              	.LBE24:
 505              		.loc 1 493 0
 506 001c F3D1     		bne	.L60
 507              		.loc 1 494 0
ARM GAS  /tmp/ccFAambi.s 			page 10


 508 001e 4FF46053 		mov	r3, #14336
 509 0022 C4F20203 		movt	r3, 16386
 510              		.loc 1 495 0
 511 0026 2620     		movs	r0, #38
 512              	.LVL45:
 513              		.loc 1 494 0
 514 0028 1A6C     		ldr	r2, [r3, #64]
 515              	.LVL46:
 516 002a 22F40032 		bic	r2, r2, #131072
 517 002e 1A64     		str	r2, [r3, #64]
 518              		.loc 1 495 0
 519 0030 FFF7FEBF 		b	nvicDisableVector
 520              	.LVL47:
 521              		.cfi_endproc
 522              	.LFE119:
 523              		.size	sd_lld_stop, .-sd_lld_stop
 524              		.global	SD2
 525 0034 AFF30080 		.section	.rodata.default_config,"a",%progbits
 525      AFF30080 
 525      AFF30080 
 526              		.align	2
 527              		.set	.LANCHOR1,. + 0
 528              		.type	default_config, %object
 529              		.size	default_config, 12
 530              	default_config:
 531 0000 00960000 		.word	38400
 532 0004 0000     		.short	0
 533 0006 0040     		.short	16384
 534 0008 0000     		.short	0
 535 000a 0000     		.space	2
 536              		.section	.bss.SD2,"aw",%nobits
 537              		.align	2
 538              		.set	.LANCHOR0,. + 0
 539              		.type	SD2, %object
 540              		.size	SD2, 120
 541              	SD2:
 542 0000 00000000 		.space	120
 542      00000000 
 542      00000000 
 542      00000000 
 542      00000000 
 543              		.text
 544              	.Letext0:
 545              		.file 2 "/usr/lib/gcc/arm-none-eabi/4.8.2/include/stddef.h"
 546              		.file 3 "/usr/arm-none-eabi/include/machine/_default_types.h"
 547              		.file 4 "/usr/arm-none-eabi/include/stdint.h"
 548              		.file 5 "../../../os/ports/GCC/ARMCMx/chtypes.h"
 549              		.file 6 "../../../os/kernel/include/chlists.h"
 550              		.file 7 "../../../os/kernel/include/chthreads.h"
 551              		.file 8 "../../../os/ports/GCC/ARMCMx/chcore_v7m.h"
 552              		.file 9 "../../../os/kernel/include/chmtx.h"
 553              		.file 10 "../../../os/kernel/include/chevents.h"
 554              		.file 11 "../../../os/kernel/include/chqueues.h"
 555              		.file 12 "../../../os/hal/platforms/STM32F4xx/stm32f4xx.h"
 556              		.file 13 "../../../os/hal/include/serial.h"
 557              		.file 14 "../../../os/hal/platforms/STM32/USARTv1/serial_lld.h"
 558              		.file 15 "../../../os/kernel/include/chdebug.h"
ARM GAS  /tmp/ccFAambi.s 			page 11


 559              		.file 16 "../../../os/ports/common/ARMCMx/nvic.h"
 560              		.file 17 "../../../os/ports/common/ARMCMx/CMSIS/include/core_cm4.h"