ARM GAS  /tmp/ccoJNTt5.s 			page 1


   1              		.syntax unified
   2              		.cpu cortex-m4
   3              		.fpu softvfp
   4              		.eabi_attribute 20, 1
   5              		.eabi_attribute 21, 1
   6              		.eabi_attribute 23, 3
   7              		.eabi_attribute 24, 1
   8              		.eabi_attribute 25, 1
   9              		.eabi_attribute 26, 1
  10              		.eabi_attribute 30, 2
  11              		.eabi_attribute 34, 1
  12              		.eabi_attribute 18, 4
  13              		.thumb
  14              		.file	"serial.c"
  15              		.text
  16              	.Ltext0:
  17              		.cfi_sections	.debug_frame
  18              		.section	.text.readt,"ax",%progbits
  19              		.align	2
  20              		.p2align 4,,15
  21              		.thumb
  22              		.thumb_func
  23              		.type	readt, %function
  24              	readt:
  25              	.LFB118:
  26              		.file 1 "../../../os/hal/src/serial.c"
  27              		.loc 1 99 0
  28              		.cfi_startproc
  29              		@ args = 0, pretend = 0, frame = 0
  30              		@ frame_needed = 0, uses_anonymous_args = 0
  31              		@ link register save eliminated.
  32              	.LVL0:
  33              		.loc 1 101 0
  34 0000 0C30     		adds	r0, r0, #12
  35              	.LVL1:
  36 0002 FFF7FEBF 		b	chIQReadTimeout
  37              	.LVL2:
  38              		.cfi_endproc
  39              	.LFE118:
  40              		.size	readt, .-readt
  41 0006 00BFAFF3 		.section	.text.read,"ax",%progbits
  41      0080AFF3 
  41      0080
  42              		.align	2
  43              		.p2align 4,,15
  44              		.thumb
  45              		.thumb_func
  46              		.type	read, %function
  47              	read:
  48              	.LFB112:
  49              		.loc 1 68 0
  50              		.cfi_startproc
  51              		@ args = 0, pretend = 0, frame = 0
  52              		@ frame_needed = 0, uses_anonymous_args = 0
  53              		@ link register save eliminated.
  54              	.LVL3:
  55              		.loc 1 70 0
ARM GAS  /tmp/ccoJNTt5.s 			page 2


  56 0000 0C30     		adds	r0, r0, #12
  57              	.LVL4:
  58 0002 4FF0FF33 		mov	r3, #-1
  59 0006 FFF7FEBF 		b	chIQReadTimeout
  60              	.LVL5:
  61              		.cfi_endproc
  62              	.LFE112:
  63              		.size	read, .-read
  64 000a 00BFAFF3 		.section	.text.writet,"ax",%progbits
  64      0080
  65              		.align	2
  66              		.p2align 4,,15
  67              		.thumb
  68              		.thumb_func
  69              		.type	writet, %function
  70              	writet:
  71              	.LFB117:
  72              		.loc 1 94 0
  73              		.cfi_startproc
  74              		@ args = 0, pretend = 0, frame = 0
  75              		@ frame_needed = 0, uses_anonymous_args = 0
  76              		@ link register save eliminated.
  77              	.LVL6:
  78              		.loc 1 96 0
  79 0000 3030     		adds	r0, r0, #48
  80              	.LVL7:
  81 0002 FFF7FEBF 		b	chOQWriteTimeout
  82              	.LVL8:
  83              		.cfi_endproc
  84              	.LFE117:
  85              		.size	writet, .-writet
  86 0006 00BFAFF3 		.section	.text.write,"ax",%progbits
  86      0080AFF3 
  86      0080
  87              		.align	2
  88              		.p2align 4,,15
  89              		.thumb
  90              		.thumb_func
  91              		.type	write, %function
  92              	write:
  93              	.LFB111:
  94              		.loc 1 62 0
  95              		.cfi_startproc
  96              		@ args = 0, pretend = 0, frame = 0
  97              		@ frame_needed = 0, uses_anonymous_args = 0
  98              		@ link register save eliminated.
  99              	.LVL9:
 100              		.loc 1 64 0
 101 0000 3030     		adds	r0, r0, #48
 102              	.LVL10:
 103 0002 4FF0FF33 		mov	r3, #-1
 104 0006 FFF7FEBF 		b	chOQWriteTimeout
 105              	.LVL11:
 106              		.cfi_endproc
 107              	.LFE111:
 108              		.size	write, .-write
 109 000a 00BFAFF3 		.section	.text.gett,"ax",%progbits
ARM GAS  /tmp/ccoJNTt5.s 			page 3


 109      0080
 110              		.align	2
 111              		.p2align 4,,15
 112              		.thumb
 113              		.thumb_func
 114              		.type	gett, %function
 115              	gett:
 116              	.LFB116:
 117              		.loc 1 89 0
 118              		.cfi_startproc
 119              		@ args = 0, pretend = 0, frame = 0
 120              		@ frame_needed = 0, uses_anonymous_args = 0
 121              		@ link register save eliminated.
 122              	.LVL12:
 123              		.loc 1 91 0
 124 0000 0C30     		adds	r0, r0, #12
 125              	.LVL13:
 126 0002 FFF7FEBF 		b	chIQGetTimeout
 127              	.LVL14:
 128              		.cfi_endproc
 129              	.LFE116:
 130              		.size	gett, .-gett
 131 0006 00BFAFF3 		.section	.text.get,"ax",%progbits
 131      0080AFF3 
 131      0080
 132              		.align	2
 133              		.p2align 4,,15
 134              		.thumb
 135              		.thumb_func
 136              		.type	get, %function
 137              	get:
 138              	.LFB114:
 139              		.loc 1 79 0
 140              		.cfi_startproc
 141              		@ args = 0, pretend = 0, frame = 0
 142              		@ frame_needed = 0, uses_anonymous_args = 0
 143              		@ link register save eliminated.
 144              	.LVL15:
 145              		.loc 1 81 0
 146 0000 0C30     		adds	r0, r0, #12
 147              	.LVL16:
 148 0002 4FF0FF31 		mov	r1, #-1
 149 0006 FFF7FEBF 		b	chIQGetTimeout
 150              	.LVL17:
 151              		.cfi_endproc
 152              	.LFE114:
 153              		.size	get, .-get
 154 000a 00BFAFF3 		.section	.text.putt,"ax",%progbits
 154      0080
 155              		.align	2
 156              		.p2align 4,,15
 157              		.thumb
 158              		.thumb_func
 159              		.type	putt, %function
 160              	putt:
 161              	.LFB115:
 162              		.loc 1 84 0
ARM GAS  /tmp/ccoJNTt5.s 			page 4


 163              		.cfi_startproc
 164              		@ args = 0, pretend = 0, frame = 0
 165              		@ frame_needed = 0, uses_anonymous_args = 0
 166              		@ link register save eliminated.
 167              	.LVL18:
 168              		.loc 1 86 0
 169 0000 3030     		adds	r0, r0, #48
 170              	.LVL19:
 171 0002 FFF7FEBF 		b	chOQPutTimeout
 172              	.LVL20:
 173              		.cfi_endproc
 174              	.LFE115:
 175              		.size	putt, .-putt
 176 0006 00BFAFF3 		.section	.text.put,"ax",%progbits
 176      0080AFF3 
 176      0080
 177              		.align	2
 178              		.p2align 4,,15
 179              		.thumb
 180              		.thumb_func
 181              		.type	put, %function
 182              	put:
 183              	.LFB113:
 184              		.loc 1 74 0
 185              		.cfi_startproc
 186              		@ args = 0, pretend = 0, frame = 0
 187              		@ frame_needed = 0, uses_anonymous_args = 0
 188              		@ link register save eliminated.
 189              	.LVL21:
 190              		.loc 1 76 0
 191 0000 3030     		adds	r0, r0, #48
 192              	.LVL22:
 193 0002 4FF0FF32 		mov	r2, #-1
 194 0006 FFF7FEBF 		b	chOQPutTimeout
 195              	.LVL23:
 196              		.cfi_endproc
 197              	.LFE113:
 198              		.size	put, .-put
 199 000a 00BFAFF3 		.section	.text.sdInit,"ax",%progbits
 199      0080
 200              		.align	2
 201              		.p2align 4,,15
 202              		.global	sdInit
 203              		.thumb
 204              		.thumb_func
 205              		.type	sdInit, %function
 206              	sdInit:
 207              	.LFB119:
 208              		.loc 1 120 0
 209              		.cfi_startproc
 210              		@ args = 0, pretend = 0, frame = 0
 211              		@ frame_needed = 0, uses_anonymous_args = 0
 212              		@ link register save eliminated.
 213              		.loc 1 122 0
 214 0000 FFF7FEBF 		b	sd_lld_init
 215              	.LVL24:
 216              		.cfi_endproc
ARM GAS  /tmp/ccoJNTt5.s 			page 5


 217              	.LFE119:
 218              		.size	sdInit, .-sdInit
 219 0004 AFF30080 		.section	.text.sdObjectInit,"ax",%progbits
 219      AFF30080 
 219      AFF30080 
 220              		.align	2
 221              		.p2align 4,,15
 222              		.global	sdObjectInit
 223              		.thumb
 224              		.thumb_func
 225              		.type	sdObjectInit, %function
 226              	sdObjectInit:
 227              	.LFB120:
 228              		.loc 1 140 0
 229              		.cfi_startproc
 230              		@ args = 0, pretend = 0, frame = 0
 231              		@ frame_needed = 0, uses_anonymous_args = 0
 232              	.LVL25:
 233 0000 70B5     		push	{r4, r5, r6, lr}
 234              		.cfi_def_cfa_offset 16
 235              		.cfi_offset 4, -16
 236              		.cfi_offset 5, -12
 237              		.cfi_offset 6, -8
 238              		.cfi_offset 14, -4
 239              		.loc 1 142 0
 240 0002 40F20003 		movw	r3, #:lower16:.LANCHOR0
 241 0006 C0F20003 		movt	r3, #:upper16:.LANCHOR0
 242              		.loc 1 140 0
 243 000a 0446     		mov	r4, r0
 244 000c 82B0     		sub	sp, sp, #8
 245              		.cfi_def_cfa_offset 24
 246              		.loc 1 142 0
 247 000e 40F8043B 		str	r3, [r0], #4
 248              	.LVL26:
 249              		.loc 1 144 0
 250 0012 0126     		movs	r6, #1
 251              		.loc 1 145 0
 252 0014 0094     		str	r4, [sp]
 253              		.loc 1 140 0
 254 0016 0B46     		mov	r3, r1
 255 0018 1546     		mov	r5, r2
 256              		.loc 1 143 0
 257 001a 6060     		str	r0, [r4, #4]
 258              		.loc 1 145 0
 259 001c 04F15401 		add	r1, r4, #84
 260              	.LVL27:
 261 0020 04F10C00 		add	r0, r4, #12
 262              		.loc 1 144 0
 263 0024 2672     		strb	r6, [r4, #8]
 264              		.loc 1 145 0
 265 0026 1022     		movs	r2, #16
 266              	.LVL28:
 267 0028 FFF7FEFF 		bl	chIQInit
 268              	.LVL29:
 269              		.loc 1 146 0
 270 002c 0094     		str	r4, [sp]
 271 002e 2B46     		mov	r3, r5
ARM GAS  /tmp/ccoJNTt5.s 			page 6


 272 0030 04F13000 		add	r0, r4, #48
 273 0034 04F16401 		add	r1, r4, #100
 274 0038 1022     		movs	r2, #16
 275 003a FFF7FEFF 		bl	chOQInit
 276              	.LVL30:
 277              		.loc 1 147 0
 278 003e 02B0     		add	sp, sp, #8
 279              		@ sp needed
 280 0040 70BD     		pop	{r4, r5, r6, pc}
 281              		.cfi_endproc
 282              	.LFE120:
 283              		.size	sdObjectInit, .-sdObjectInit
 284 0042 00BFAFF3 		.section	.text.sdStart,"ax",%progbits
 284      0080AFF3 
 284      0080AFF3 
 284      0080
 285              		.align	2
 286              		.p2align 4,,15
 287              		.global	sdStart
 288              		.thumb
 289              		.thumb_func
 290              		.type	sdStart, %function
 291              	sdStart:
 292              	.LFB121:
 293              		.loc 1 159 0
 294              		.cfi_startproc
 295              		@ args = 0, pretend = 0, frame = 0
 296              		@ frame_needed = 0, uses_anonymous_args = 0
 297              	.LVL31:
 298 0000 38B5     		push	{r3, r4, r5, lr}
 299              		.cfi_def_cfa_offset 16
 300              		.cfi_offset 3, -16
 301              		.cfi_offset 4, -12
 302              		.cfi_offset 5, -8
 303              		.cfi_offset 14, -4
 304              		.loc 1 161 0
 305 0002 0446     		mov	r4, r0
 306              		.loc 1 159 0
 307 0004 0D46     		mov	r5, r1
 308              		.loc 1 161 0
 309 0006 C8B1     		cbz	r0, .L15
 310              	.LVL32:
 311              	.L12:
 312              		.loc 1 163 0
 313              	@ 163 "../../../os/hal/src/serial.c" 1
 314 0008 FFF7FEFF 		bl      _port_lock
 315              	@ 0 "" 2
 316              		.thumb
 317 000c FFF7FEFF 		bl	dbg_check_lock
 318              	.LVL33:
 319              		.loc 1 164 0
 320 0010 237A     		ldrb	r3, [r4, #8]	@ zero_extendqisi2
 321 0012 013B     		subs	r3, r3, #1
 322 0014 DBB2     		uxtb	r3, r3
 323 0016 012B     		cmp	r3, #1
 324 0018 05D9     		bls	.L13
 325              		.loc 1 164 0 is_stmt 0 discriminator 1
ARM GAS  /tmp/ccoJNTt5.s 			page 7


 326 001a 40F20000 		movw	r0, #:lower16:.LC1
 327 001e C0F20000 		movt	r0, #:upper16:.LC1
 328 0022 FFF7FEFF 		bl	chDbgPanic
 329              	.LVL34:
 330              	.L13:
 331              		.loc 1 167 0 is_stmt 1
 332 0026 2946     		mov	r1, r5
 333 0028 2046     		mov	r0, r4
 334 002a FFF7FEFF 		bl	sd_lld_start
 335              	.LVL35:
 336              		.loc 1 168 0
 337 002e 0223     		movs	r3, #2
 338 0030 2372     		strb	r3, [r4, #8]
 339              		.loc 1 169 0
 340 0032 FFF7FEFF 		bl	dbg_check_unlock
 341              	.LVL36:
 342              	@ 169 "../../../os/hal/src/serial.c" 1
 343 0036 FFF7FEFF 		bl      _port_unlock
 344              	@ 0 "" 2
 345              		.thumb
 346 003a 38BD     		pop	{r3, r4, r5, pc}
 347              	.LVL37:
 348              	.L15:
 349              		.loc 1 161 0 discriminator 1
 350 003c 40F20000 		movw	r0, #:lower16:.LC0
 351              	.LVL38:
 352 0040 C0F20000 		movt	r0, #:upper16:.LC0
 353 0044 FFF7FEFF 		bl	chDbgPanic
 354              	.LVL39:
 355 0048 DEE7     		b	.L12
 356              		.cfi_endproc
 357              	.LFE121:
 358              		.size	sdStart, .-sdStart
 359 004a 00BFAFF3 		.section	.text.sdStop,"ax",%progbits
 359      0080
 360              		.align	2
 361              		.p2align 4,,15
 362              		.global	sdStop
 363              		.thumb
 364              		.thumb_func
 365              		.type	sdStop, %function
 366              	sdStop:
 367              	.LFB122:
 368              		.loc 1 181 0
 369              		.cfi_startproc
 370              		@ args = 0, pretend = 0, frame = 0
 371              		@ frame_needed = 0, uses_anonymous_args = 0
 372              	.LVL40:
 373 0000 10B5     		push	{r4, lr}
 374              		.cfi_def_cfa_offset 8
 375              		.cfi_offset 4, -8
 376              		.cfi_offset 14, -4
 377              		.loc 1 183 0
 378 0002 0446     		mov	r4, r0
 379 0004 10B3     		cbz	r0, .L19
 380              	.LVL41:
 381              	.L17:
ARM GAS  /tmp/ccoJNTt5.s 			page 8


 382              		.loc 1 185 0
 383              	@ 185 "../../../os/hal/src/serial.c" 1
 384 0006 FFF7FEFF 		bl      _port_lock
 385              	@ 0 "" 2
 386              		.thumb
 387 000a FFF7FEFF 		bl	dbg_check_lock
 388              	.LVL42:
 389              		.loc 1 186 0
 390 000e 237A     		ldrb	r3, [r4, #8]	@ zero_extendqisi2
 391 0010 013B     		subs	r3, r3, #1
 392 0012 DBB2     		uxtb	r3, r3
 393 0014 012B     		cmp	r3, #1
 394 0016 05D9     		bls	.L18
 395              		.loc 1 186 0 is_stmt 0 discriminator 1
 396 0018 40F20000 		movw	r0, #:lower16:.LC3
 397 001c C0F20000 		movt	r0, #:upper16:.LC3
 398 0020 FFF7FEFF 		bl	chDbgPanic
 399              	.LVL43:
 400              	.L18:
 401              		.loc 1 189 0 is_stmt 1
 402 0024 2046     		mov	r0, r4
 403 0026 FFF7FEFF 		bl	sd_lld_stop
 404              	.LVL44:
 405              		.loc 1 190 0
 406 002a 0123     		movs	r3, #1
 407 002c 2372     		strb	r3, [r4, #8]
 408              		.loc 1 191 0
 409 002e 04F13000 		add	r0, r4, #48
 410 0032 FFF7FEFF 		bl	chOQResetI
 411              	.LVL45:
 412              		.loc 1 192 0
 413 0036 04F10C00 		add	r0, r4, #12
 414 003a FFF7FEFF 		bl	chIQResetI
 415              	.LVL46:
 416              		.loc 1 193 0
 417 003e FFF7FEFF 		bl	chSchRescheduleS
 418              	.LVL47:
 419              		.loc 1 194 0
 420 0042 FFF7FEFF 		bl	dbg_check_unlock
 421              	.LVL48:
 422              	@ 194 "../../../os/hal/src/serial.c" 1
 423 0046 FFF7FEFF 		bl      _port_unlock
 424              	@ 0 "" 2
 425              		.thumb
 426 004a 10BD     		pop	{r4, pc}
 427              	.LVL49:
 428              	.L19:
 429              		.loc 1 183 0 discriminator 1
 430 004c 40F20000 		movw	r0, #:lower16:.LC2
 431              	.LVL50:
 432 0050 C0F20000 		movt	r0, #:upper16:.LC2
 433 0054 FFF7FEFF 		bl	chDbgPanic
 434              	.LVL51:
 435 0058 D5E7     		b	.L17
 436              		.cfi_endproc
 437              	.LFE122:
 438              		.size	sdStop, .-sdStop
ARM GAS  /tmp/ccoJNTt5.s 			page 9


 439 005a 00BFAFF3 		.section	.text.sdIncomingDataI,"ax",%progbits
 439      0080
 440              		.align	2
 441              		.p2align 4,,15
 442              		.global	sdIncomingDataI
 443              		.thumb
 444              		.thumb_func
 445              		.type	sdIncomingDataI, %function
 446              	sdIncomingDataI:
 447              	.LFB123:
 448              		.loc 1 213 0
 449              		.cfi_startproc
 450              		@ args = 0, pretend = 0, frame = 0
 451              		@ frame_needed = 0, uses_anonymous_args = 0
 452              	.LVL52:
 453 0000 38B5     		push	{r3, r4, r5, lr}
 454              		.cfi_def_cfa_offset 16
 455              		.cfi_offset 3, -16
 456              		.cfi_offset 4, -12
 457              		.cfi_offset 5, -8
 458              		.cfi_offset 14, -4
 459              		.loc 1 213 0
 460 0002 0446     		mov	r4, r0
 461 0004 0D46     		mov	r5, r1
 462              		.loc 1 215 0
 463 0006 FFF7FEFF 		bl	chDbgCheckClassI
 464              	.LVL53:
 465              		.loc 1 216 0
 466 000a D4B1     		cbz	r4, .L24
 467              	.L21:
 468              		.loc 1 218 0
 469 000c 6369     		ldr	r3, [r4, #20]
 470 000e 3BB1     		cbz	r3, .L25
 471              		.loc 1 220 0
 472 0010 2946     		mov	r1, r5
 473 0012 04F10C00 		add	r0, r4, #12
 474 0016 FFF7FEFF 		bl	chIQPutI
 475              	.LVL54:
 476 001a 0028     		cmp	r0, #0
 477 001c 0BDB     		blt	.L26
 478              	.L20:
 479 001e 38BD     		pop	{r3, r4, r5, pc}
 480              	.LVL55:
 481              	.L25:
 482              		.loc 1 219 0
 483 0020 201D     		adds	r0, r4, #4
 484 0022 0421     		movs	r1, #4
 485 0024 FFF7FEFF 		bl	chEvtBroadcastFlagsI
 486              	.LVL56:
 487              		.loc 1 220 0
 488 0028 2946     		mov	r1, r5
 489 002a 04F10C00 		add	r0, r4, #12
 490 002e FFF7FEFF 		bl	chIQPutI
 491              	.LVL57:
 492 0032 0028     		cmp	r0, #0
 493 0034 F3DA     		bge	.L20
 494              	.L26:
ARM GAS  /tmp/ccoJNTt5.s 			page 10


 495              		.loc 1 221 0
 496 0036 201D     		adds	r0, r4, #4
 497 0038 8021     		movs	r1, #128
 498              		.loc 1 222 0
 499 003a BDE83840 		pop	{r3, r4, r5, lr}
 500              	.LVL58:
 501              		.loc 1 221 0
 502 003e FFF7FEBF 		b	chEvtBroadcastFlagsI
 503              	.LVL59:
 504              	.L24:
 505              		.loc 1 216 0 discriminator 1
 506 0042 40F20000 		movw	r0, #:lower16:.LC4
 507 0046 C0F20000 		movt	r0, #:upper16:.LC4
 508 004a FFF7FEFF 		bl	chDbgPanic
 509              	.LVL60:
 510 004e DDE7     		b	.L21
 511              		.cfi_endproc
 512              	.LFE123:
 513              		.size	sdIncomingDataI, .-sdIncomingDataI
 514              		.section	.text.sdRequestDataI,"ax",%progbits
 515              		.align	2
 516              		.p2align 4,,15
 517              		.global	sdRequestDataI
 518              		.thumb
 519              		.thumb_func
 520              		.type	sdRequestDataI, %function
 521              	sdRequestDataI:
 522              	.LFB124:
 523              		.loc 1 239 0
 524              		.cfi_startproc
 525              		@ args = 0, pretend = 0, frame = 0
 526              		@ frame_needed = 0, uses_anonymous_args = 0
 527              	.LVL61:
 528 0000 38B5     		push	{r3, r4, r5, lr}
 529              		.cfi_def_cfa_offset 16
 530              		.cfi_offset 3, -16
 531              		.cfi_offset 4, -12
 532              		.cfi_offset 5, -8
 533              		.cfi_offset 14, -4
 534              		.loc 1 239 0
 535 0002 0446     		mov	r4, r0
 536              		.loc 1 242 0
 537 0004 FFF7FEFF 		bl	chDbgCheckClassI
 538              	.LVL62:
 539              		.loc 1 243 0
 540 0008 6CB1     		cbz	r4, .L30
 541              	.L28:
 542              		.loc 1 245 0
 543 000a 04F13000 		add	r0, r4, #48
 544 000e FFF7FEFF 		bl	chOQGetI
 545              	.LVL63:
 546              		.loc 1 246 0
 547 0012 051E     		subs	r5, r0, #0
 548 0014 01DB     		blt	.L31
 549              		.loc 1 249 0
 550 0016 2846     		mov	r0, r5
 551 0018 38BD     		pop	{r3, r4, r5, pc}
ARM GAS  /tmp/ccoJNTt5.s 			page 11


 552              	.LVL64:
 553              	.L31:
 554              		.loc 1 247 0
 555 001a 201D     		adds	r0, r4, #4
 556              	.LVL65:
 557 001c 0821     		movs	r1, #8
 558 001e FFF7FEFF 		bl	chEvtBroadcastFlagsI
 559              	.LVL66:
 560              		.loc 1 249 0
 561 0022 2846     		mov	r0, r5
 562 0024 38BD     		pop	{r3, r4, r5, pc}
 563              	.LVL67:
 564              	.L30:
 565              		.loc 1 243 0 discriminator 1
 566 0026 40F20000 		movw	r0, #:lower16:.LC5
 567 002a C0F20000 		movt	r0, #:upper16:.LC5
 568 002e FFF7FEFF 		bl	chDbgPanic
 569              	.LVL68:
 570 0032 EAE7     		b	.L28
 571              		.cfi_endproc
 572              	.LFE124:
 573              		.size	sdRequestDataI, .-sdRequestDataI
 574 0034 AFF30080 		.section	.rodata.str1.4,"aMS",%progbits,1
 574      AFF30080 
 574      AFF30080 
 575              		.align	2
 576              	.LC0:
 577 0000 22736453 		.ascii	"\"sdStart\"()\000"
 577      74617274 
 577      22282900 
 578              	.LC1:
 579 000c 73645374 		.ascii	"sdStart(), #1\000"
 579      61727428 
 579      292C2023 
 579      3100
 580 001a 0000     		.space	2
 581              	.LC2:
 582 001c 22736453 		.ascii	"\"sdStop\"()\000"
 582      746F7022 
 582      282900
 583 0027 00       		.space	1
 584              	.LC3:
 585 0028 73645374 		.ascii	"sdStop(), #1\000"
 585      6F702829 
 585      2C202331 
 585      00
 586 0035 000000   		.space	3
 587              	.LC4:
 588 0038 22736449 		.ascii	"\"sdIncomingDataI\"()\000"
 588      6E636F6D 
 588      696E6744 
 588      61746149 
 588      22282900 
 589              	.LC5:
 590 004c 22736452 		.ascii	"\"sdRequestDataI\"()\000"
 590      65717565 
 590      73744461 
ARM GAS  /tmp/ccoJNTt5.s 			page 12


 590      74614922 
 590      282900
 591 005f 00       		.section	.rodata.vmt,"a",%progbits
 592              		.align	2
 593              		.set	.LANCHOR0,. + 0
 594              		.type	vmt, %object
 595              		.size	vmt, 32
 596              	vmt:
 597 0000 00000000 		.word	write
 598 0004 00000000 		.word	read
 599 0008 00000000 		.word	put
 600 000c 00000000 		.word	get
 601 0010 00000000 		.word	putt
 602 0014 00000000 		.word	gett
 603 0018 00000000 		.word	writet
 604 001c 00000000 		.word	readt
 605              		.text
 606              	.Letext0:
 607              		.file 2 "/usr/lib/gcc/arm-none-eabi/4.8.2/include/stddef.h"
 608              		.file 3 "/usr/arm-none-eabi/include/machine/_default_types.h"
 609              		.file 4 "/usr/arm-none-eabi/include/stdint.h"
 610              		.file 5 "../../../os/ports/GCC/ARMCMx/chtypes.h"
 611              		.file 6 "../../../os/kernel/include/chlists.h"
 612              		.file 7 "../../../os/kernel/include/chthreads.h"
 613              		.file 8 "../../../os/ports/GCC/ARMCMx/chcore_v7m.h"
 614              		.file 9 "../../../os/kernel/include/chmtx.h"
 615              		.file 10 "../../../os/kernel/include/chevents.h"
 616              		.file 11 "../../../os/kernel/include/chqueues.h"
 617              		.file 12 "../../../os/hal/platforms/STM32F4xx/stm32f4xx.h"
 618              		.file 13 "../../../os/hal/include/serial.h"
 619              		.file 14 "../../../os/hal/platforms/STM32/USARTv1/serial_lld.h"
 620              		.file 15 "../../../os/kernel/include/chdebug.h"
 621              		.file 16 "../../../os/kernel/include/chschd.h"
 622              		.file 17 "../../../os/ports/common/ARMCMx/CMSIS/include/core_cm4.h"