ARM GAS  /tmp/ccoJNTt5.s 			page 1


   1              		.syntax unified
   2              		.cpu cortex-m4
   3              		.fpu softvfp
   4              		.eabi_attribute 20, 1
   5              		.eabi_attribute 21, 1
   6              		.eabi_attribute 23, 3
   7              		.eabi_attribute 24, 1
   8              		.eabi_attribute 25, 1
   9              		.eabi_attribute 26, 1
  10              		.eabi_attribute 30, 2
  11              		.eabi_attribute 34, 1
  12              		.eabi_attribute 18, 4
  13              		.thumb
  14              		.file	"serial.c"
  15              		.text
  16              	.Ltext0:
  17              		.cfi_sections	.debug_frame
  18              		.section	.text.readt,"ax",%progbits
  19              		.align	2
  20              		.p2align 4,,15
  21              		.thumb
  22              		.thumb_func
  23              		.type	readt, %function
  24              	readt:
  25              	.LFB118:
  26              		.file 1 "../../../os/hal/src/serial.c"
  27              		.loc 1 99 0
  28              		.cfi_startproc
  29              		@ args = 0, pretend = 0, frame = 0
  30              		@ frame_needed = 0, uses_anonymous_args = 0
  31              		@ link register save eliminated.
  32              	.LVL0:
  33              		.loc 1 101 0
  34 0000 0C30     		adds	r0, r0, #12
  35              	.LVL1:
  36 0002 FFF7FEBF 		b	chIQReadTimeout
  37              	.LVL2:
  38              		.cfi_endproc
  39              	.LFE118:
  40              		.size	readt, .-readt
  41 0006 00BFAFF3 		.section	.text.read,"ax",%progbits
  41      0080AFF3 
  41      0080
  42              		.align	2
  43              		.p2align 4,,15
  44              		.thumb
  45              		.thumb_func
  46              		.type	read, %function
  47              	read:
  48              	.LFB112:
  49              		.loc 1 68 0
  50              		.cfi_startproc
  51              		@ args = 0, pretend = 0, frame = 0
  52              		@ frame_needed = 0, uses_anonymous_args = 0
  53              		@ link register save eliminated.
  54              	.LVL3:
  55              		.loc 1 70 0
ARM GAS  /tmp/ccoJNTt5.s 			page 2


  56 0000 0C30     		adds	r0, r0, #12
  57              	.LVL4:
  58 0002 4FF0FF33 		mov	r3, #-1
  59 0006 FFF7FEBF 		b	chIQReadTimeout
  60              	.LVL5:
  61              		.cfi_endproc
  62              	.LFE112:
  63              		.size	read, .-read
  64 000a 00BFAFF3 		.section	.text.writet,"ax",%progbits
  64      0080
  65              		.align	2
  66              		.p2align 4,,15
  67              		.thumb
  68              		.thumb_func
  69              		.type	writet, %function
  70              	writet:
  71              	.LFB117:
  72              		.loc 1 94 0
  73              		.cfi_startproc
  74              		@ args = 0, pretend = 0, frame = 0
  75              		@ frame_needed = 0, uses_anonymous_args = 0
  76              		@ link register save eliminated.
  77              	.LVL6:
  78              		.loc 1 96 0
  79 0000 3030     		adds	r0, r0, #48
  80              	.LVL7:
  81 0002 FFF7FEBF 		b	chOQWriteTimeout
  82              	.LVL8:
  83              		.cfi_endproc
  84              	.LFE117:
  85              		.size	writet, .-writet
  86 0006 00BFAFF3 		.section	.text.write,"ax",%progbits
  86      0080AFF3 
  86      0080
  87              		.align	2
  88              		.p2align 4,,15
  89              		.thumb
  90              		.thumb_func
  91              		.type	write, %function
  92              	write:
  93              	.LFB111:
  94              		.loc 1 62 0
  95              		.cfi_startproc
  96              		@ args = 0, pretend = 0, frame = 0
  97              		@ frame_needed = 0, uses_anonymous_args = 0
  98              		@ link register save eliminated.
  99              	.LVL9:
 100              		.loc 1 64 0
 101 0000 3030     		adds	r0, r0, #48
 102              	.LVL10:
 103 0002 4FF0FF33 		mov	r3, #-1
 104 0006 FFF7FEBF 		b	chOQWriteTimeout
 105              	.LVL11:
 106              		.cfi_endproc
 107              	.LFE111:
 108              		.size	write, .-write
 109 000a 00BFAFF3 		.section	.text.gett,"ax",%progbits
ARM GAS  /tmp/ccoJNTt5.s 			page 3


 109      0080
 110              		.align	2
 111              		.p2align 4,,15
 112              		.thumb
 113              		.thumb_func
 114              		.type	gett, %function
 115              	gett:
 116              	.LFB116:
 117              		.loc 1 89 0
 118              		.cfi_startproc
 119              		@ args = 0, pretend = 0, frame = 0
 120              		@ frame_needed = 0, uses_anonymous_args = 0
 121              		@ link register save eliminated.
 122              	.LVL12:
 123              		.loc 1 91 0
 124 0000 0C30     		adds	r0, r0, #12
 125              	.LVL13:
 126 0002 FFF7FEBF 		b	chIQGetTimeout
 127              	.LVL14:
 128              		.cfi_endproc
 129              	.LFE116:
 130              		.size	gett, .-gett
 131 0006 00BFAFF3 		.section	.text.get,"ax",%progbits
 131      0080AFF3 
 131      0080
 132              		.align	2
 133              		.p2align 4,,15
 134              		.thumb
 135              		.thumb_func
 136              		.type	get, %function
 137              	get:
 138              	.LFB114:
 139              		.loc 1 79 0
 140              		.cfi_startproc
 141              		@ args = 0, pretend = 0, frame = 0
 142              		@ frame_needed = 0, uses_anonymous_args = 0
 143              		@ link register save eliminated.
 144              	.LVL15:
 145              		.loc 1 81 0
 146 0000 0C30     		adds	r0, r0, #12
 147              	.LVL16:
 148 0002 4FF0FF31 		mov	r1, #-1
 149 0006 FFF7FEBF 		b	chIQGetTimeout
 150              	.LVL17:
 151              		.cfi_endproc
 152              	.LFE114:
 153              		.size	get, .-get
 154 000a 00BFAFF3 		.section	.text.putt,"ax",%progbits
 154      0080
 155              		.align	2
 156              		.p2align 4,,15
 157              		.thumb
 158              		.thumb_func
 159              		.type	putt, %function
 160              	putt:
 161              	.LFB115:
 162              		.loc 1 84 0
ARM GAS  /tmp/ccoJNTt5.s 			page 4


 163              		.cfi_startproc
 164              		@ args = 0, pretend = 0, frame = 0
 165              		@ frame_needed = 0, uses_anonymous_args = 0
 166              		@ link register save eliminated.
 167              	.LVL18:
 168              		.loc 1 86 0
 169 0000 3030     		adds	r0, r0, #48
 170              	.LVL19:
 171 0002 FFF7FEBF 		b	chOQPutTimeout
 172              	.LVL20:
 173              		.cfi_endproc
 174              	.LFE115:
 175              		.size	putt, .-putt
 176 0006 00BFAFF3 		.section	.text.put,"ax",%progbits
 176      0080AFF3 
 176      0080
 177              		.align	2
 178              		.p2align 4,,15
 179              		.thumb
 180              		.thumb_func
 181              		.type	put, %function
 182              	put:
 183              	.LFB113:
 184              		.loc 1 74 0
 185              		.cfi_startproc
 186              		@ args = 0, pretend = 0, frame = 0
 187              		@ frame_needed = 0, uses_anonymous_args = 0
 188              		@ link register save eliminated.
 189              	.LVL21:
 190              		.loc 1 76 0
 191 0000 3030     		adds	r0, r0, #48
 192              	.LVL22:
 193 0002 4FF0FF32 		mov	r2, #-1
 194 0006 FFF7FEBF 		b	chOQPutTimeout
 195              	.LVL23:
 196              		.cfi_endproc
 197              	.LFE113:
 198              		.size	put, .-put
 199 000a 00BFAFF3 		.section	.text.sdInit,"ax",%progbits
 199      0080
 200              		.align	2
 201              		.p2align 4,,15
 202              		.global	sdInit
 203              		.thumb
 204              		.thumb_func
 205              		.type	sdInit, %function
 206              	sdInit:
 207              	.LFB119:
 208              		.loc 1 120 0
 209              		.cfi_startproc
 210              		@ args = 0, pretend = 0, frame = 0
 211              		@ frame_needed = 0, uses_anonymous_args = 0
 212              		@ link register save eliminated.
 213              		.loc 1 122 0
 214 0000 FFF7FEBF 		b	sd_lld_init
 215              	.LVL24:
 216              		.cfi_endproc
ARM GAS  /tmp/ccoJNTt5.s 			page 5


 217              	.LFE119:
 218              		.size	sdInit, .-sdInit
 219 0004 AFF30080 		.section	.text.sdObjectInit,"ax",%progbits
 219      AFF30080 
 219      AFF30080 
 220              		.align	2
 221              		.p2align 4,,15
 222              		.global	sdObjectInit
 223              		.thumb
 224              		.thumb_func
 225              		.type	sdObjectInit, %function
 226              	sdObjectInit:
 227              	.LFB120:
 228              		.loc 1 140 0
 229              		.cfi_startproc
 230              		@ args = 0, pretend = 0, frame = 0
 231              		@ frame_needed = 0, uses_anonymous_args = 0
 232              	.LVL25:
 233 0000 70B5     		push	{r4, r5, r6, lr}
 234              		.cfi_def_cfa_offset 16
 235              		.cfi_offset 4, -16
 236              		.cfi_offset 5, -12
 237              		.cfi_offset 6, -8
 238              		.cfi_offset 14, -4
 239              		.loc 1 142 0
 240 0002 40F20003 		movw	r3, #:lower16:.LANCHOR0
 241 0006 C0F20003 		movt	r3, #:upper16:.LANCHOR0
 242              		.loc 1 140 0
 243 000a 0446     		mov	r4, r0
 244 000c 82B0     		sub	sp, sp, #8
 245              		.cfi_def_cfa_offset 24
 246              		.loc 1 142 0
 247 000e 40F8043B 		str	r3, [r0], #4
 248              	.LVL26:
 249              		.loc 1 144 0
 250 0012 0126     		movs	r6, #1
 251              		.loc 1 145 0
 252 0014 0094     		str	r4, [sp]
 253              		.loc 1 140 0
 254 0016 0B46     		mov	r3, r1
 255 0018 1546     		mov	r5, r2
 256              		.loc 1 143 0
 257 001a 6060     		str	r0, [r4, #4]
 258              		.loc 1 145 0
 259 001c 04F15401 		add	r1, r4, #84
 260              	.LVL27:
 261 0020 04F10C00 		add	r0, r4, #12
 262              		.loc 1 144 0
 263 0024 2672     		strb	r6, [r4, #8]
 264              		.loc 1 145 0
 265 0026 1022     		movs	r2, #16
 266              	.LVL28:
 267 0028 FFF7FEFF 		bl	chIQInit
 268              	.LVL29:
 269              		.loc 1 146 0
 270 002c 0094     		str	r4, [sp]
 271 002e 2B46     		mov	r3, r5
ARM GAS  /tmp/ccoJNTt5.s 			page 6


 272 0030 04F13000 		add	r0, r4, #48
 273 0034 04F16401 		add	r1, r4, #100
 274 0038 1022     		movs	r2, #16
 275 003a FFF7FEFF 		bl	chOQInit
 276              	.LVL30:
 277              		.loc 1 147 0
 278 003e 02B0     		add	sp, sp, #8
 279              		@ sp needed
 280 0040 70BD     		pop	{r4, r5, r6, pc}
 281              		.cfi_endproc
 282              	.LFE120:
 283              		.size	sdObjectInit, .-sdObjectInit
 284 0042 00BFAFF3 		.section	.text.sdStart,"ax",%progbits
 284      0080AFF3 
 284      0080AFF3 
 284      0080
 285              		.align	2
 286              		.p2align 4,,15
 287              		.global	sdStart
 288              		.thumb
 289              		.thumb_func
 290              		.type	sdStart, %function
 291              	sdStart:
 292              	.LFB121:
 293              		.loc 1 159 0
 294              		.cfi_startproc
 295              		@ args = 0, pretend = 0, frame = 0
 296              		@ frame_needed = 0, uses_anonymous_args = 0
 297              	.LVL31:
 298 0000 38B5     		push	{r3, r4, r5, lr}
 299              		.cfi_def_cfa_offset 16
 300              		.cfi_offset 3, -16
 301              		.cfi_offset 4, -12
 302              		.cfi_offset 5, -8
 303              		.cfi_offset 14, -4
 304              		.loc 1 161 0
 305 0002 0446     		mov	r4, r0
 306              		.loc 1 159 0
 307 0004 0D46     		mov	r5, r1
 308              		.loc 1 161 0
 309 0006 C8B1     		cbz	r0, .L15
 310              	.LVL32:
 311              	.L12:
 312              		.loc 1 163 0
 313              	@ 163 "../../../os/hal/src/serial.c" 1
 314 0008 FFF7FEFF 		bl      _port_lock
 315              	@ 0 "" 2
 316              		.thumb
 317 000c FFF7FEFF 		bl	dbg_check_lock
 318              	.LVL33:
 319              		.loc 1 164 0
 320 0010 237A     		ldrb	r3, [r4, #8]	@ zero_extendqisi2
 321 0012 013B     		subs	r3, r3, #1
 322 0014 DBB2     		uxtb	r3, r3
 323 0016 012B     		cmp	r3, #1
 324 0018 05D9     		bls	.L13
 325              		.loc 1 164 0 is_stmt 0 discriminator 1
ARM GAS  /tmp/ccoJNTt5.s 			page 7


 326 001a 40F20000 		movw	r0, #:lower16:.LC1
 327 001e C0F20000 		movt	r0, #:upper16:.LC1
 328 0022 FFF7FEFF 		bl	chDbgPanic
 329              	.LVL34:
 330              	.L13:
 331              		.loc 1 167 0 is_stmt 1
 332 0026 2946     		mov	r1, r5
 333 0028 2046     		mov	r0, r4
 334 002a FFF7FEFF 		bl	sd_lld_start
 335              	.LVL35:
 336              		.loc 1 168 0
 337 002e 0223     		movs	r3, #2
 338 0030 2372     		strb	r3, [r4, #8]
 339              		.loc 1 169 0
 340 0032 FFF7FEFF 		bl	dbg_check_unlock
 341              	.LVL36:
 342              	@ 169 "../../../os/hal/src/serial.c" 1
 343 0036 FFF7FEFF 		bl      _port_unlock
 344              	@ 0 "" 2
 345              		.thumb
 346 003a 38BD     		pop	{r3, r4, r5, pc}
 347              	.LVL37:
 348              	.L15:
 349              		.loc 1 161 0 discriminator 1
 350 003c 40F20000 		movw	r0, #:lower16:.LC0
 351              	.LVL38:
 352 0040 C0F20000 		movt	r0, #:upper16:.LC0
 353 0044 FFF7FEFF 		bl	chDbgPanic
 354              	.LVL39:
 355 0048 DEE7     		b	.L12
 356              		.cfi_endproc
 357              	.LFE121:
 358              		.size	sdStart, .-sdStart
 359 004a 00BFAFF3 		.section	.text.sdStop,"ax",%progbits
 359      0080
 360              		.align	2
 361              		.p2align 4,,15
 362              		.global	sdStop
 363              		.thumb
 364              		.thumb_func
 365              		.type	sdStop, %function
 366              	sdStop:
 367              	.LFB122:
 368              		.loc 1 181 0
 369              		.cfi_startproc
 370              		@ args = 0, pretend = 0, frame = 0
 371              		@ frame_needed = 0, uses_anonymous_args = 0
 372              	.LVL40:
 373 0000 10B5     		push	{r4, lr}
 374              		.cfi_def_cfa_offset 8
 375              		.cfi_offset 4, -8
 376              		.cfi_offset 14, -4
 377              		.loc 1 183 0
 378 0002 0446     		mov	r4, r0
 379 0004 10B3     		cbz	r0, .L19
 380              	.LVL41:
 381              	.L17:
ARM GAS  /tmp/ccoJNTt5.s 			page 8


 382              		.loc 1 185 0
 383              	@ 185 "../../../os/hal/src/serial.c" 1
 384 0006 FFF7FEFF 		bl      _port_lock
 385              	@ 0 "" 2
 386              		.thumb
 387 000a FFF7FEFF 		bl	dbg_check_lock
 388              	.LVL42:
 389              		.loc 1 186 0
 390 000e 237A     		ldrb	r3, [r4, #8]	@ zero_extendqisi2
 391 0010 013B     		subs	r3, r3, #1
 392 0012 DBB2     		uxtb	r3, r3
 393 0014 012B     		cmp	r3, #1
 394 0016 05D9     		bls	.L18
 395              		.loc 1 186 0 is_stmt 0 discriminator 1
 396 0018 40F20000 		movw	r0, #:lower16:.LC3
 397 001c C0F20000 		movt	r0, #:upper16:.LC3
 398 0020 FFF7FEFF 		bl	chDbgPanic
 399              	.LVL43:
 400              	.L18:
 401              		.loc 1 189 0 is_stmt 1
 402 0024 2046     		mov	r0, r4
 403 0026 FFF7FEFF 		bl	sd_lld_stop
 404              	.LVL44:
 405              		.loc 1 190 0
 406 002a 0123     		movs	r3, #1
 407 002c 2372     		strb	r3, [r4, #8]
 408              		.loc 1 191 0
 409 002e 04F13000 		add	r0, r4, #48
 410 0032 FFF7FEFF 		bl	chOQResetI
 411              	.LVL45:
 412              		.loc 1 192 0
 413 0036 04F10C00 		add	r0, r4, #12
 414 003a FFF7FEFF 		bl	chIQResetI
 415              	.LVL46:
 416              		.loc 1 193 0
 417 003e FFF7FEFF 		bl	chSchRescheduleS
 418              	.LVL47:
 419              		.loc 1 194 0
 420 0042 FFF7FEFF 		bl	dbg_check_unlock
 421              	.LVL48:
 422              	@ 194 "../../../os/hal/src/serial.c" 1
 423 0046 FFF7FEFF 		bl      _port_unlock
 424              	@ 0 "" 2
 425              		.thumb
 426 004a 10BD     		pop	{r4, pc}
 427              	.LVL49:
 428              	.L19:
 429              		.loc 1 183 0 discriminator 1
 430 004c 40F20000 		movw	r0, #:lower16:.LC2
 431              	.LVL50:
 432 0050 C0F20000 		movt	r0, #:upper16:.LC2
 433 0054 FFF7FEFF 		bl	chDbgPanic
 434              	.LVL51:
 435 0058 D5E7     		b	.L17
 436              		.cfi_endproc
 437              	.LFE122:
 438              		.size	sdStop, .-sdStop
ARM GAS  /tmp/ccoJNTt5.s 			page 9


 439 005a 00BFAFF3 		.section	.text.sdIncomingDataI,"ax",%progbits
 439      0080
 440              		.align	2
 441              		.p2align 4,,15
 442              		.global	sdIncomingDataI
 443              		.thumb
 444              		.thumb_func
 445              		.type	sdIncomingDataI, %function
 446              	sdIncomingDataI:
 447              	.LFB123:
 448              		.loc 1 213 0
 449              		.cfi_startproc
 450              		@ args = 0, pretend = 0, frame = 0
 451              		@ frame_needed = 0, uses_anonymous_args = 0
 452              	.LVL52:
 453 0000 38B5     		push	{r3, r4, r5, lr}
 454              		.cfi_def_cfa_offset 16
 455              		.cfi_offset 3, -16
 456              		.cfi_offset 4, -12
 457              		.cfi_offset 5, -8
 458              		.cfi_offset 14, -4
 459              		.loc 1 213 0
 460 0002 0446     		mov	r4, r0
 461 0004 0D46     		mov	r5, r1
 462              		.loc 1 215 0
 463 0006 FFF7FEFF 		bl	chDbgCheckClassI
 464              	.LVL53:
 465              		.loc 1 216 0
 466 000a D4B1     		cbz	r4, .L24
 467              	.L21:
 468              		.loc 1 218 0
 469 000c 6369     		ldr	r3, [r4, #20]
 470 000e 3BB1     		cbz	r3, .L25
 471              		.loc 1 220 0
 472 0010 2946     		mov	r1, r5
 473 0012 04F10C00 		add	r0, r4, #12
 474 0016 FFF7FEFF 		bl	chIQPutI
 475              	.LVL54:
 476 001a 0028     		cmp	r0, #0
 477 001c 0BDB     		blt	.L26
 478              	.L20:
 479 001e 38BD     		pop	{r3, r4, r5, pc}
 480              	.LVL55:
 481              	.L25:
 482              		.loc 1 219 0
 483 0020 201D     		adds	r0, r4, #4
 484 0022 0421     		movs	r1, #4
 485 0024 FFF7FEFF 		bl	chEvtBroadcastFlagsI
 486              	.LVL56:
 487              		.loc 1 220 0
 488 0028 2946     		mov	r1, r5
 489 002a 04F10C00 		add	r0, r4, #12
 490 002e FFF7FEFF 		bl	chIQPutI
 491              	.LVL57:
 492 0032 0028     		cmp	r0, #0
 493 0034 F3DA     		bge	.L20
 494              	.L26:
ARM GAS  /tmp/ccoJNTt5.s 			page 10


 495              		.loc 1 221 0
 496 0036 201D     		adds	r0, r4, #4
 497 0038 8021     		movs	r1, #128
 498              		.loc 1 222 0
 499 003a BDE83840 		pop	{r3, r4, r5, lr}
 500              	.LVL58:
 501              		.loc 1 221 0
 502 003e FFF7FEBF 		b	chEvtBroadcastFlagsI
 503              	.LVL59:
 504              	.L24:
 505              		.loc 1 216 0 discriminator 1
 506 0042 40F20000 		movw	r0, #:lower16:.LC4
 507 0046 C0F20000 		movt	r0, #:upper16:.LC4
 508 004a FFF7FEFF 		bl	chDbgPanic
 509              	.LVL60:
 510 004e DDE7     		b	.L21
 511              		.cfi_endproc
 512              	.LFE123:
 513              		.size	sdIncomingDataI, .-sdIncomingDataI
 514              		.section	.text.sdRequestDataI,"ax",%progbits
 515              		.align	2
 516              		.p2align 4,,15
 517              		.global	sdRequestDataI
 518              		.thumb
 519              		.thumb_func
 520              		.type	sdRequestDataI, %function
 521              	sdRequestDataI:
 522              	.LFB124:
 523              		.loc 1 239 0
 524              		.cfi_startproc
 525              		@ args = 0, pretend = 0, frame = 0
 526              		@ frame_needed = 0, uses_anonymous_args = 0
 527              	.LVL61:
 528 0000 38B5     		push	{r3, r4, r5, lr}
 529              		.cfi_def_cfa_offset 16
 530              		.cfi_offset 3, -16
 531              		.cfi_offset 4, -12
 532              		.cfi_offset 5, -8
 533              		.cfi_offset 14, -4
 534              		.loc 1 239 0
 535 0002 0446     		mov	r4, r0
 536              		.loc 1 242 0
 537 0004 FFF7FEFF 		bl	chDbgCheckClassI
 538              	.LVL62:
 539              		.loc 1 243 0
 540 0008 6CB1     		cbz	r4, .L30
 541              	.L28:
 542              		.loc 1 245 0
 543 000a 04F13000 		add	r0, r4, #48
 544 000e FFF7FEFF 		bl	chOQGetI
 545              	.LVL63:
 546              		.loc 1 246 0
 547 0012 051E     		subs	r5, r0, #0
 548 0014 01DB     		blt	.L31
 549              		.loc 1 249 0
 550 0016 2846     		mov	r0, r5
 551 0018 38BD     		pop	{r3, r4, r5, pc}
ARM GAS  /tmp/ccoJNTt5.s 			page 11


 552              	.LVL64:
 553              	.L31:
 554              		.loc 1 247 0
 555 001a 201D     		adds	r0, r4, #4
 556              	.LVL65:
 557 001c 0821     		movs	r1, #8
 558 001e FFF7FEFF 		bl	chEvtBroadcastFlagsI
 559              	.LVL66:
 560              		.loc 1 249 0
 561 0022 2846     		mov	r0, r5
 562 0024 38BD     		pop	{r3, r4, r5, pc}
 563              	.LVL67:
 564              	.L30:
 565              		.loc 1 243 0 discriminator 1
 566 0026 40F20000 		movw	r0, #:lower16:.LC5
 567 002a C0F20000 		movt	r0, #:upper16:.LC5
 568 002e FFF7FEFF 		bl	chDbgPanic
 569              	.LVL68:
 570 0032 EAE7     		b	.L28
 571              		.cfi_endproc
 572              	.LFE124:
 573              		.size	sdRequestDataI, .-sdRequestDataI
 574 0034 AFF30080 		.section	.rodata.str1.4,"aMS",%progbits,1
 574      AFF30080 
 574      AFF30080 
 575              		.align	2
 576              	.LC0:
 577 0000 22736453 		.ascii	"\"sdStart\"()\000"
 577      74617274 
 577      22282900 
 578              	.LC1:
 579 000c 73645374 		.ascii	"sdStart(), #1\000"
 579      61727428 
 579      292C2023 
 579      3100
 580 001a 0000     		.space	2
 581              	.LC2:
 582 001c 22736453 		.ascii	"\"sdStop\"()\000"
 582      746F7022 
 582      282900
 583 0027 00       		.space	1
 584              	.LC3:
 585 0028 73645374 		.ascii	"sdStop(), #1\000"
 585      6F702829 
 585      2C202331 
 585      00
 586 0035 000000   		.space	3
 587              	.LC4:
 588 0038 22736449 		.ascii	"\"sdIncomingDataI\"()\000"
 588      6E636F6D 
 588      696E6744 
 588      61746149 
 588      22282900 
 589              	.LC5:
 590 004c 22736452 		.ascii	"\"sdRequestDataI\"()\000"
 590      65717565 
 590      73744461 
ARM GAS  /tmp/ccoJNTt5.s 			page 12


 590      74614922 
 590      282900
 591 005f 00       		.section	.rodata.vmt,"a",%progbits
 592              		.align	2
 593              		.set	.LANCHOR0,. + 0
 594              		.type	vmt, %object
 595              		.size	vmt, 32
 596              	vmt:
 597 0000 00000000 		.word	write
 598 0004 00000000 		.word	read
 599 0008 00000000 		.word	put
 600 000c 00000000 		.word	get
 601 0010 00000000 		.word	putt
 602 0014 00000000 		.word	gett
 603 0018 00000000 		.word	writet
 604 001c 00000000 		.word	readt
 605              		.text
 606              	.Letext0:
 607              		.file 2 "/usr/lib/gcc/arm-none-eabi/4.8.2/include/stddef.h"
 608              		.file 3 "/usr/arm-none-eabi/include/machine/_default_types.h"
 609              		.file 4 "/usr/arm-none-eabi/include/stdint.h"
 610              		.file 5 "../../../os/ports/GCC/ARMCMx/chtypes.h"
 611              		.file 6 "../../../os/kernel/include/chlists.h"
 612              		.file 7 "../../../os/kernel/include/chthreads.h"
 613              		.file 8 "../../../os/ports/GCC/ARMCMx/chcore_v7m.h"
 614              		.file 9 "../../../os/kernel/include/chmtx.h"
 615              		.file 10 "../../../os/kernel/include/chevents.h"
 616              		.file 11 "../../../os/kernel/include/chqueues.h"
 617              		.file 12 "../../../os/hal/platforms/STM32F4xx/stm32f4xx.h"
 618              		.file 13 "../../../os/hal/include/serial.h"
 619              		.file 14 "../../../os/hal/platforms/STM32/USARTv1/serial_lld.h"
 620              		.file 15 "../../../os/kernel/include/chdebug.h"
 621              		.file 16 "../../../os/kernel/include/chschd.h"
 622              		.file 17 "../../../os/ports/common/ARMCMx/CMSIS/include/core_cm4.h"
 623              		.section	.debug_info,"",%progbits
 624              	.Ldebug_info0:
 625 0000 30100000 		.4byte	0x1030
 626 0004 0400     		.2byte	0x4
 627 0006 00000000 		.4byte	.Ldebug_abbrev0
 628 000a 04       		.byte	0x4
 629 000b 01       		.uleb128 0x1
 630 000c 4C000000 		.4byte	.LASF139
 631 0010 01       		.byte	0x1
 632 0011 34060000 		.4byte	.LASF140
 633 0015 76020000 		.4byte	.LASF141
 634 0019 00000000 		.4byte	.Ldebug_ranges0+0
 635 001d 00000000 		.4byte	0
 636 0021 00000000 		.4byte	.Ldebug_line0
 637 0025 02       		.uleb128 0x2
 638 0026 04       		.byte	0x4
 639 0027 05       		.byte	0x5
 640 0028 696E7400 		.ascii	"int\000"
 641 002c 03       		.uleb128 0x3
 642 002d 0F000000 		.4byte	.LASF2
 643 0031 02       		.byte	0x2
 644 0032 D4       		.byte	0xd4
 645 0033 37000000 		.4byte	0x37
ARM GAS  /tmp/ccoJNTt5.s 			page 13


 646 0037 04       		.uleb128 0x4
 647 0038 04       		.byte	0x4
 648 0039 07       		.byte	0x7
 649 003a 1E020000 		.4byte	.LASF0
 650 003e 04       		.uleb128 0x4
 651 003f 01       		.byte	0x1
 652 0040 06       		.byte	0x6
 653 0041 60010000 		.4byte	.LASF1
 654 0045 03       		.uleb128 0x3
 655 0046 32000000 		.4byte	.LASF3
 656 004a 03       		.byte	0x3
 657 004b 1C       		.byte	0x1c
 658 004c 50000000 		.4byte	0x50
 659 0050 04       		.uleb128 0x4
 660 0051 01       		.byte	0x1
 661 0052 08       		.byte	0x8
 662 0053 6D040000 		.4byte	.LASF4
 663 0057 04       		.uleb128 0x4
 664 0058 02       		.byte	0x2
 665 0059 05       		.byte	0x5
 666 005a AF040000 		.4byte	.LASF5
 667 005e 03       		.uleb128 0x3
 668 005f 58050000 		.4byte	.LASF6
 669 0063 03       		.byte	0x3
 670 0064 26       		.byte	0x26
 671 0065 69000000 		.4byte	0x69
 672 0069 04       		.uleb128 0x4
 673 006a 02       		.byte	0x2
 674 006b 07       		.byte	0x7
 675 006c CB020000 		.4byte	.LASF7
 676 0070 03       		.uleb128 0x3
 677 0071 7F050000 		.4byte	.LASF8
 678 0075 03       		.byte	0x3
 679 0076 37       		.byte	0x37
 680 0077 7B000000 		.4byte	0x7b
 681 007b 04       		.uleb128 0x4
 682 007c 04       		.byte	0x4
 683 007d 05       		.byte	0x5
 684 007e 8E010000 		.4byte	.LASF9
 685 0082 03       		.uleb128 0x3
 686 0083 EF010000 		.4byte	.LASF10
 687 0087 03       		.byte	0x3
 688 0088 38       		.byte	0x38
 689 0089 8D000000 		.4byte	0x8d
 690 008d 04       		.uleb128 0x4
 691 008e 04       		.byte	0x4
 692 008f 07       		.byte	0x7
 693 0090 1D050000 		.4byte	.LASF11
 694 0094 04       		.uleb128 0x4
 695 0095 08       		.byte	0x8
 696 0096 05       		.byte	0x5
 697 0097 52010000 		.4byte	.LASF12
 698 009b 03       		.uleb128 0x3
 699 009c 01040000 		.4byte	.LASF13
 700 00a0 03       		.byte	0x3
 701 00a1 4E       		.byte	0x4e
 702 00a2 A6000000 		.4byte	0xa6
ARM GAS  /tmp/ccoJNTt5.s 			page 14


 703 00a6 04       		.uleb128 0x4
 704 00a7 08       		.byte	0x8
 705 00a8 07       		.byte	0x7
 706 00a9 E9000000 		.4byte	.LASF14
 707 00ad 03       		.uleb128 0x3
 708 00ae E5050000 		.4byte	.LASF15
 709 00b2 04       		.byte	0x4
 710 00b3 2A       		.byte	0x2a
 711 00b4 45000000 		.4byte	0x45
 712 00b8 03       		.uleb128 0x3
 713 00b9 2B020000 		.4byte	.LASF16
 714 00bd 04       		.byte	0x4
 715 00be 36       		.byte	0x36
 716 00bf 5E000000 		.4byte	0x5e
 717 00c3 03       		.uleb128 0x3
 718 00c4 65040000 		.4byte	.LASF17
 719 00c8 04       		.byte	0x4
 720 00c9 41       		.byte	0x41
 721 00ca 70000000 		.4byte	0x70
 722 00ce 03       		.uleb128 0x3
 723 00cf FD040000 		.4byte	.LASF18
 724 00d3 04       		.byte	0x4
 725 00d4 42       		.byte	0x42
 726 00d5 82000000 		.4byte	0x82
 727 00d9 03       		.uleb128 0x3
 728 00da 1D000000 		.4byte	.LASF19
 729 00de 04       		.byte	0x4
 730 00df 4E       		.byte	0x4e
 731 00e0 9B000000 		.4byte	0x9b
 732 00e4 03       		.uleb128 0x3
 733 00e5 79010000 		.4byte	.LASF20
 734 00e9 05       		.byte	0x5
 735 00ea 2B       		.byte	0x2b
 736 00eb EF000000 		.4byte	0xef
 737 00ef 04       		.uleb128 0x4
 738 00f0 01       		.byte	0x1
 739 00f1 02       		.byte	0x2
 740 00f2 5F040000 		.4byte	.LASF21
 741 00f6 03       		.uleb128 0x3
 742 00f7 11030000 		.4byte	.LASF22
 743 00fb 05       		.byte	0x5
 744 00fc 2C       		.byte	0x2c
 745 00fd AD000000 		.4byte	0xad
 746 0101 03       		.uleb128 0x3
 747 0102 97010000 		.4byte	.LASF23
 748 0106 05       		.byte	0x5
 749 0107 2D       		.byte	0x2d
 750 0108 AD000000 		.4byte	0xad
 751 010c 03       		.uleb128 0x3
 752 010d 4F040000 		.4byte	.LASF24
 753 0111 05       		.byte	0x5
 754 0112 30       		.byte	0x30
 755 0113 CE000000 		.4byte	0xce
 756 0117 03       		.uleb128 0x3
 757 0118 DE020000 		.4byte	.LASF25
 758 011c 05       		.byte	0x5
 759 011d 31       		.byte	0x31
ARM GAS  /tmp/ccoJNTt5.s 			page 15


 760 011e C3000000 		.4byte	0xc3
 761 0122 03       		.uleb128 0x3
 762 0123 25030000 		.4byte	.LASF26
 763 0127 05       		.byte	0x5
 764 0128 33       		.byte	0x33
 765 0129 CE000000 		.4byte	0xce
 766 012d 03       		.uleb128 0x3
 767 012e AC050000 		.4byte	.LASF27
 768 0132 05       		.byte	0x5
 769 0133 34       		.byte	0x34
 770 0134 CE000000 		.4byte	0xce
 771 0138 03       		.uleb128 0x3
 772 0139 6A050000 		.4byte	.LASF28
 773 013d 05       		.byte	0x5
 774 013e 35       		.byte	0x35
 775 013f CE000000 		.4byte	0xce
 776 0143 03       		.uleb128 0x3
 777 0144 D7040000 		.4byte	.LASF29
 778 0148 06       		.byte	0x6
 779 0149 2A       		.byte	0x2a
 780 014a 4E010000 		.4byte	0x14e
 781 014e 05       		.uleb128 0x5
 782 014f D7040000 		.4byte	.LASF29
 783 0153 48       		.byte	0x48
 784 0154 07       		.byte	0x7
 785 0155 5E       		.byte	0x5e
 786 0156 33020000 		.4byte	0x233
 787 015a 06       		.uleb128 0x6
 788 015b C0040000 		.4byte	.LASF30
 789 015f 07       		.byte	0x7
 790 0160 5F       		.byte	0x5f
 791 0161 54020000 		.4byte	0x254
 792 0165 00       		.byte	0
 793 0166 06       		.uleb128 0x6
 794 0167 3E040000 		.4byte	.LASF31
 795 016b 07       		.byte	0x7
 796 016c 61       		.byte	0x61
 797 016d 54020000 		.4byte	0x254
 798 0171 04       		.byte	0x4
 799 0172 06       		.uleb128 0x6
 800 0173 99030000 		.4byte	.LASF32
 801 0177 07       		.byte	0x7
 802 0178 63       		.byte	0x63
 803 0179 0C010000 		.4byte	0x10c
 804 017d 08       		.byte	0x8
 805 017e 06       		.uleb128 0x6
 806 017f 59060000 		.4byte	.LASF33
 807 0183 07       		.byte	0x7
 808 0184 64       		.byte	0x64
 809 0185 19030000 		.4byte	0x319
 810 0189 0C       		.byte	0xc
 811 018a 06       		.uleb128 0x6
 812 018b D6010000 		.4byte	.LASF34
 813 018f 07       		.byte	0x7
 814 0190 66       		.byte	0x66
 815 0191 54020000 		.4byte	0x254
 816 0195 10       		.byte	0x10
ARM GAS  /tmp/ccoJNTt5.s 			page 16


 817 0196 06       		.uleb128 0x6
 818 0197 A8030000 		.4byte	.LASF35
 819 019b 07       		.byte	0x7
 820 019c 67       		.byte	0x67
 821 019d 54020000 		.4byte	0x254
 822 01a1 14       		.byte	0x14
 823 01a2 06       		.uleb128 0x6
 824 01a3 BE050000 		.4byte	.LASF36
 825 01a7 07       		.byte	0x7
 826 01a8 6E       		.byte	0x6e
 827 01a9 2F040000 		.4byte	0x42f
 828 01ad 18       		.byte	0x18
 829 01ae 06       		.uleb128 0x6
 830 01af BD030000 		.4byte	.LASF37
 831 01b3 07       		.byte	0x7
 832 01b4 74       		.byte	0x74
 833 01b5 41040000 		.4byte	0x441
 834 01b9 1C       		.byte	0x1c
 835 01ba 06       		.uleb128 0x6
 836 01bb 9D040000 		.4byte	.LASF38
 837 01bf 07       		.byte	0x7
 838 01c0 79       		.byte	0x79
 839 01c1 01010000 		.4byte	0x101
 840 01c5 20       		.byte	0x20
 841 01c6 06       		.uleb128 0x6
 842 01c7 C7040000 		.4byte	.LASF39
 843 01cb 07       		.byte	0x7
 844 01cc 7D       		.byte	0x7d
 845 01cd F6000000 		.4byte	0xf6
 846 01d1 21       		.byte	0x21
 847 01d2 06       		.uleb128 0x6
 848 01d3 44020000 		.4byte	.LASF40
 849 01d7 07       		.byte	0x7
 850 01d8 8F       		.byte	0x8f
 851 01d9 41030000 		.4byte	0x341
 852 01dd 24       		.byte	0x24
 853 01de 07       		.uleb128 0x7
 854 01df 705F7500 		.ascii	"p_u\000"
 855 01e3 07       		.byte	0x7
 856 01e4 B4       		.byte	0xb4
 857 01e5 FA030000 		.4byte	0x3fa
 858 01e9 28       		.byte	0x28
 859 01ea 06       		.uleb128 0x6
 860 01eb 5F060000 		.4byte	.LASF41
 861 01ef 07       		.byte	0x7
 862 01f0 B9       		.byte	0xb9
 863 01f1 7A020000 		.4byte	0x27a
 864 01f5 2C       		.byte	0x2c
 865 01f6 06       		.uleb128 0x6
 866 01f7 5A020000 		.4byte	.LASF42
 867 01fb 07       		.byte	0x7
 868 01fc BF       		.byte	0xbf
 869 01fd 5A020000 		.4byte	0x25a
 870 0201 30       		.byte	0x30
 871 0202 06       		.uleb128 0x6
 872 0203 0A060000 		.4byte	.LASF43
 873 0207 07       		.byte	0x7
ARM GAS  /tmp/ccoJNTt5.s 			page 17


 874 0208 C3       		.byte	0xc3
 875 0209 17010000 		.4byte	0x117
 876 020d 38       		.byte	0x38
 877 020e 06       		.uleb128 0x6
 878 020f DE040000 		.4byte	.LASF44
 879 0213 07       		.byte	0x7
 880 0214 C9       		.byte	0xc9
 881 0215 22010000 		.4byte	0x122
 882 0219 3C       		.byte	0x3c
 883 021a 06       		.uleb128 0x6
 884 021b A5040000 		.4byte	.LASF45
 885 021f 07       		.byte	0x7
 886 0220 D0       		.byte	0xd0
 887 0221 47040000 		.4byte	0x447
 888 0225 40       		.byte	0x40
 889 0226 06       		.uleb128 0x6
 890 0227 74050000 		.4byte	.LASF46
 891 022b 07       		.byte	0x7
 892 022c D4       		.byte	0xd4
 893 022d 0C010000 		.4byte	0x10c
 894 0231 44       		.byte	0x44
 895 0232 00       		.byte	0
 896 0233 08       		.uleb128 0x8
 897 0234 08       		.byte	0x8
 898 0235 06       		.byte	0x6
 899 0236 61       		.byte	0x61
 900 0237 54020000 		.4byte	0x254
 901 023b 06       		.uleb128 0x6
 902 023c C0040000 		.4byte	.LASF30
 903 0240 06       		.byte	0x6
 904 0241 62       		.byte	0x62
 905 0242 54020000 		.4byte	0x254
 906 0246 00       		.byte	0
 907 0247 06       		.uleb128 0x6
 908 0248 3E040000 		.4byte	.LASF31
 909 024c 06       		.byte	0x6
 910 024d 64       		.byte	0x64
 911 024e 54020000 		.4byte	0x254
 912 0252 04       		.byte	0x4
 913 0253 00       		.byte	0
 914 0254 09       		.uleb128 0x9
 915 0255 04       		.byte	0x4
 916 0256 43010000 		.4byte	0x143
 917 025a 03       		.uleb128 0x3
 918 025b B0030000 		.4byte	.LASF47
 919 025f 06       		.byte	0x6
 920 0260 66       		.byte	0x66
 921 0261 33020000 		.4byte	0x233
 922 0265 08       		.uleb128 0x8
 923 0266 04       		.byte	0x4
 924 0267 06       		.byte	0x6
 925 0268 6B       		.byte	0x6b
 926 0269 7A020000 		.4byte	0x27a
 927 026d 06       		.uleb128 0x6
 928 026e C0040000 		.4byte	.LASF30
 929 0272 06       		.byte	0x6
 930 0273 6D       		.byte	0x6d
ARM GAS  /tmp/ccoJNTt5.s 			page 18


 931 0274 54020000 		.4byte	0x254
 932 0278 00       		.byte	0
 933 0279 00       		.byte	0
 934 027a 03       		.uleb128 0x3
 935 027b 19030000 		.4byte	.LASF48
 936 027f 06       		.byte	0x6
 937 0280 70       		.byte	0x70
 938 0281 65020000 		.4byte	0x265
 939 0285 03       		.uleb128 0x3
 940 0286 FA010000 		.4byte	.LASF49
 941 028a 08       		.byte	0x8
 942 028b E5       		.byte	0xe5
 943 028c 90020000 		.4byte	0x290
 944 0290 0A       		.uleb128 0xa
 945 0291 04       		.byte	0x4
 946 0292 03       		.uleb128 0x3
 947 0293 59030000 		.4byte	.LASF50
 948 0297 08       		.byte	0x8
 949 0298 EB       		.byte	0xeb
 950 0299 D9000000 		.4byte	0xd9
 951 029d 0B       		.uleb128 0xb
 952 029e 9C050000 		.4byte	.LASF51
 953 02a2 24       		.byte	0x24
 954 02a3 08       		.byte	0x8
 955 02a4 0C01     		.2byte	0x10c
 956 02a6 19030000 		.4byte	0x319
 957 02aa 0C       		.uleb128 0xc
 958 02ab 723400   		.ascii	"r4\000"
 959 02ae 08       		.byte	0x8
 960 02af 1F01     		.2byte	0x11f
 961 02b1 85020000 		.4byte	0x285
 962 02b5 00       		.byte	0
 963 02b6 0C       		.uleb128 0xc
 964 02b7 723500   		.ascii	"r5\000"
 965 02ba 08       		.byte	0x8
 966 02bb 2001     		.2byte	0x120
 967 02bd 85020000 		.4byte	0x285
 968 02c1 04       		.byte	0x4
 969 02c2 0C       		.uleb128 0xc
 970 02c3 723600   		.ascii	"r6\000"
 971 02c6 08       		.byte	0x8
 972 02c7 2101     		.2byte	0x121
 973 02c9 85020000 		.4byte	0x285
 974 02cd 08       		.byte	0x8
 975 02ce 0C       		.uleb128 0xc
 976 02cf 723700   		.ascii	"r7\000"
 977 02d2 08       		.byte	0x8
 978 02d3 2201     		.2byte	0x122
 979 02d5 85020000 		.4byte	0x285
 980 02d9 0C       		.byte	0xc
 981 02da 0C       		.uleb128 0xc
 982 02db 723800   		.ascii	"r8\000"
 983 02de 08       		.byte	0x8
 984 02df 2301     		.2byte	0x123
 985 02e1 85020000 		.4byte	0x285
 986 02e5 10       		.byte	0x10
 987 02e6 0C       		.uleb128 0xc
ARM GAS  /tmp/ccoJNTt5.s 			page 19


 988 02e7 723900   		.ascii	"r9\000"
 989 02ea 08       		.byte	0x8
 990 02eb 2401     		.2byte	0x124
 991 02ed 85020000 		.4byte	0x285
 992 02f1 14       		.byte	0x14
 993 02f2 0C       		.uleb128 0xc
 994 02f3 72313000 		.ascii	"r10\000"
 995 02f7 08       		.byte	0x8
 996 02f8 2501     		.2byte	0x125
 997 02fa 85020000 		.4byte	0x285
 998 02fe 18       		.byte	0x18
 999 02ff 0C       		.uleb128 0xc
 1000 0300 72313100 		.ascii	"r11\000"
 1001 0304 08       		.byte	0x8
 1002 0305 2601     		.2byte	0x126
 1003 0307 85020000 		.4byte	0x285
 1004 030b 1C       		.byte	0x1c
 1005 030c 0C       		.uleb128 0xc
 1006 030d 6C7200   		.ascii	"lr\000"
 1007 0310 08       		.byte	0x8
 1008 0311 2701     		.2byte	0x127
 1009 0313 85020000 		.4byte	0x285
 1010 0317 20       		.byte	0x20
 1011 0318 00       		.byte	0
 1012 0319 0B       		.uleb128 0xb
 1013 031a 94050000 		.4byte	.LASF52
 1014 031e 04       		.byte	0x4
 1015 031f 08       		.byte	0x8
 1016 0320 3101     		.2byte	0x131
 1017 0322 34030000 		.4byte	0x334
 1018 0326 0C       		.uleb128 0xc
 1019 0327 72313300 		.ascii	"r13\000"
 1020 032b 08       		.byte	0x8
 1021 032c 3201     		.2byte	0x132
 1022 032e 34030000 		.4byte	0x334
 1023 0332 00       		.byte	0
 1024 0333 00       		.byte	0
 1025 0334 09       		.uleb128 0x9
 1026 0335 04       		.byte	0x4
 1027 0336 9D020000 		.4byte	0x29d
 1028 033a 04       		.uleb128 0x4
 1029 033b 04       		.byte	0x4
 1030 033c 07       		.byte	0x7
 1031 033d 80030000 		.4byte	.LASF53
 1032 0341 0D       		.uleb128 0xd
 1033 0342 38010000 		.4byte	0x138
 1034 0346 05       		.uleb128 0x5
 1035 0347 93030000 		.4byte	.LASF54
 1036 034b 10       		.byte	0x10
 1037 034c 09       		.byte	0x9
 1038 034d 2C       		.byte	0x2c
 1039 034e 77030000 		.4byte	0x377
 1040 0352 06       		.uleb128 0x6
 1041 0353 80010000 		.4byte	.LASF55
 1042 0357 09       		.byte	0x9
 1043 0358 2D       		.byte	0x2d
 1044 0359 5A020000 		.4byte	0x25a
ARM GAS  /tmp/ccoJNTt5.s 			page 20


 1045 035d 00       		.byte	0
 1046 035e 06       		.uleb128 0x6
 1047 035f 51060000 		.4byte	.LASF56
 1048 0363 09       		.byte	0x9
 1049 0364 2F       		.byte	0x2f
 1050 0365 54020000 		.4byte	0x254
 1051 0369 08       		.byte	0x8
 1052 036a 06       		.uleb128 0x6
 1053 036b 63050000 		.4byte	.LASF57
 1054 036f 09       		.byte	0x9
 1055 0370 31       		.byte	0x31
 1056 0371 77030000 		.4byte	0x377
 1057 0375 0C       		.byte	0xc
 1058 0376 00       		.byte	0
 1059 0377 09       		.uleb128 0x9
 1060 0378 04       		.byte	0x4
 1061 0379 46030000 		.4byte	0x346
 1062 037d 03       		.uleb128 0x3
 1063 037e 93030000 		.4byte	.LASF54
 1064 0382 09       		.byte	0x9
 1065 0383 33       		.byte	0x33
 1066 0384 46030000 		.4byte	0x346
 1067 0388 03       		.uleb128 0x3
 1068 0389 F5050000 		.4byte	.LASF58
 1069 038d 0A       		.byte	0xa
 1070 038e 2C       		.byte	0x2c
 1071 038f 93030000 		.4byte	0x393
 1072 0393 05       		.uleb128 0x5
 1073 0394 F5050000 		.4byte	.LASF58
 1074 0398 10       		.byte	0x10
 1075 0399 0A       		.byte	0xa
 1076 039a 31       		.byte	0x31
 1077 039b D0030000 		.4byte	0x3d0
 1078 039f 06       		.uleb128 0x6
 1079 03a0 CF040000 		.4byte	.LASF59
 1080 03a4 0A       		.byte	0xa
 1081 03a5 32       		.byte	0x32
 1082 03a6 D0030000 		.4byte	0x3d0
 1083 03aa 00       		.byte	0
 1084 03ab 06       		.uleb128 0x6
 1085 03ac 88040000 		.4byte	.LASF60
 1086 03b0 0A       		.byte	0xa
 1087 03b1 35       		.byte	0x35
 1088 03b2 54020000 		.4byte	0x254
 1089 03b6 04       		.byte	0x4
 1090 03b7 06       		.uleb128 0x6
 1091 03b8 A0030000 		.4byte	.LASF61
 1092 03bc 0A       		.byte	0xa
 1093 03bd 37       		.byte	0x37
 1094 03be 22010000 		.4byte	0x122
 1095 03c2 08       		.byte	0x8
 1096 03c3 06       		.uleb128 0x6
 1097 03c4 94040000 		.4byte	.LASF62
 1098 03c8 0A       		.byte	0xa
 1099 03c9 3A       		.byte	0x3a
 1100 03ca 2D010000 		.4byte	0x12d
 1101 03ce 0C       		.byte	0xc
ARM GAS  /tmp/ccoJNTt5.s 			page 21


 1102 03cf 00       		.byte	0
 1103 03d0 09       		.uleb128 0x9
 1104 03d1 04       		.byte	0x4
 1105 03d2 88030000 		.4byte	0x388
 1106 03d6 05       		.uleb128 0x5
 1107 03d7 0C020000 		.4byte	.LASF63
 1108 03db 04       		.byte	0x4
 1109 03dc 0A       		.byte	0xa
 1110 03dd 41       		.byte	0x41
 1111 03de EF030000 		.4byte	0x3ef
 1112 03e2 06       		.uleb128 0x6
 1113 03e3 C5050000 		.4byte	.LASF64
 1114 03e7 0A       		.byte	0xa
 1115 03e8 42       		.byte	0x42
 1116 03e9 D0030000 		.4byte	0x3d0
 1117 03ed 00       		.byte	0
 1118 03ee 00       		.byte	0
 1119 03ef 03       		.uleb128 0x3
 1120 03f0 0C020000 		.4byte	.LASF63
 1121 03f4 0A       		.byte	0xa
 1122 03f5 45       		.byte	0x45
 1123 03f6 D6030000 		.4byte	0x3d6
 1124 03fa 0E       		.uleb128 0xe
 1125 03fb 04       		.byte	0x4
 1126 03fc 07       		.byte	0x7
 1127 03fd 96       		.byte	0x96
 1128 03fe 2F040000 		.4byte	0x42f
 1129 0402 0F       		.uleb128 0xf
 1130 0403 16000000 		.4byte	.LASF65
 1131 0407 07       		.byte	0x7
 1132 0408 9D       		.byte	0x9d
 1133 0409 17010000 		.4byte	0x117
 1134 040d 0F       		.uleb128 0xf
 1135 040e 14010000 		.4byte	.LASF66
 1136 0412 07       		.byte	0x7
 1137 0413 A4       		.byte	0xa4
 1138 0414 17010000 		.4byte	0x117
 1139 0418 0F       		.uleb128 0xf
 1140 0419 03060000 		.4byte	.LASF67
 1141 041d 07       		.byte	0x7
 1142 041e AB       		.byte	0xab
 1143 041f 90020000 		.4byte	0x290
 1144 0423 0F       		.uleb128 0xf
 1145 0424 B9040000 		.4byte	.LASF68
 1146 0428 07       		.byte	0x7
 1147 0429 B2       		.byte	0xb2
 1148 042a 22010000 		.4byte	0x122
 1149 042e 00       		.byte	0
 1150 042f 09       		.uleb128 0x9
 1151 0430 04       		.byte	0x4
 1152 0431 35040000 		.4byte	0x435
 1153 0435 10       		.uleb128 0x10
 1154 0436 3A040000 		.4byte	0x43a
 1155 043a 04       		.uleb128 0x4
 1156 043b 01       		.byte	0x1
 1157 043c 08       		.byte	0x8
 1158 043d 34050000 		.4byte	.LASF69
ARM GAS  /tmp/ccoJNTt5.s 			page 22


 1159 0441 09       		.uleb128 0x9
 1160 0442 04       		.byte	0x4
 1161 0443 92020000 		.4byte	0x292
 1162 0447 09       		.uleb128 0x9
 1163 0448 04       		.byte	0x4
 1164 0449 7D030000 		.4byte	0x37d
 1165 044d 09       		.uleb128 0x9
 1166 044e 04       		.byte	0x4
 1167 044f 53040000 		.4byte	0x453
 1168 0453 11       		.uleb128 0x11
 1169 0454 17010000 		.4byte	0x117
 1170 0458 62040000 		.4byte	0x462
 1171 045c 12       		.uleb128 0x12
 1172 045d 90020000 		.4byte	0x290
 1173 0461 00       		.byte	0
 1174 0462 03       		.uleb128 0x3
 1175 0463 4C030000 		.4byte	.LASF70
 1176 0467 0B       		.byte	0xb
 1177 0468 37       		.byte	0x37
 1178 0469 6D040000 		.4byte	0x46d
 1179 046d 05       		.uleb128 0x5
 1180 046e 4C030000 		.4byte	.LASF70
 1181 0472 24       		.byte	0x24
 1182 0473 0B       		.byte	0xb
 1183 0474 45       		.byte	0x45
 1184 0475 DA040000 		.4byte	0x4da
 1185 0479 06       		.uleb128 0x6
 1186 047a 48010000 		.4byte	.LASF71
 1187 047e 0B       		.byte	0xb
 1188 047f 46       		.byte	0x46
 1189 0480 5A020000 		.4byte	0x25a
 1190 0484 00       		.byte	0
 1191 0485 06       		.uleb128 0x6
 1192 0486 89030000 		.4byte	.LASF72
 1193 048a 0B       		.byte	0xb
 1194 048b 47       		.byte	0x47
 1195 048c 2C000000 		.4byte	0x2c
 1196 0490 08       		.byte	0x8
 1197 0491 06       		.uleb128 0x6
 1198 0492 A9010000 		.4byte	.LASF73
 1199 0496 0B       		.byte	0xb
 1200 0497 48       		.byte	0x48
 1201 0498 FC040000 		.4byte	0x4fc
 1202 049c 0C       		.byte	0xc
 1203 049d 06       		.uleb128 0x6
 1204 049e B8050000 		.4byte	.LASF74
 1205 04a2 0B       		.byte	0xb
 1206 04a3 49       		.byte	0x49
 1207 04a4 FC040000 		.4byte	0x4fc
 1208 04a8 10       		.byte	0x10
 1209 04a9 06       		.uleb128 0x6
 1210 04aa B2010000 		.4byte	.LASF75
 1211 04ae 0B       		.byte	0xb
 1212 04af 4B       		.byte	0x4b
 1213 04b0 FC040000 		.4byte	0x4fc
 1214 04b4 14       		.byte	0x14
 1215 04b5 06       		.uleb128 0x6
ARM GAS  /tmp/ccoJNTt5.s 			page 23


 1216 04b6 57040000 		.4byte	.LASF76
 1217 04ba 0B       		.byte	0xb
 1218 04bb 4C       		.byte	0x4c
 1219 04bc FC040000 		.4byte	0x4fc
 1220 04c0 18       		.byte	0x18
 1221 04c1 06       		.uleb128 0x6
 1222 04c2 CD050000 		.4byte	.LASF77
 1223 04c6 0B       		.byte	0xb
 1224 04c7 4D       		.byte	0x4d
 1225 04c8 DA040000 		.4byte	0x4da
 1226 04cc 1C       		.byte	0x1c
 1227 04cd 06       		.uleb128 0x6
 1228 04ce BA010000 		.4byte	.LASF78
 1229 04d2 0B       		.byte	0xb
 1230 04d3 4E       		.byte	0x4e
 1231 04d4 90020000 		.4byte	0x290
 1232 04d8 20       		.byte	0x20
 1233 04d9 00       		.byte	0
 1234 04da 03       		.uleb128 0x3
 1235 04db 42030000 		.4byte	.LASF79
 1236 04df 0B       		.byte	0xb
 1237 04e0 3A       		.byte	0x3a
 1238 04e1 E5040000 		.4byte	0x4e5
 1239 04e5 09       		.uleb128 0x9
 1240 04e6 04       		.byte	0x4
 1241 04e7 EB040000 		.4byte	0x4eb
 1242 04eb 13       		.uleb128 0x13
 1243 04ec F6040000 		.4byte	0x4f6
 1244 04f0 12       		.uleb128 0x12
 1245 04f1 F6040000 		.4byte	0x4f6
 1246 04f5 00       		.byte	0
 1247 04f6 09       		.uleb128 0x9
 1248 04f7 04       		.byte	0x4
 1249 04f8 62040000 		.4byte	0x462
 1250 04fc 09       		.uleb128 0x9
 1251 04fd 04       		.byte	0x4
 1252 04fe AD000000 		.4byte	0xad
 1253 0502 03       		.uleb128 0x3
 1254 0503 31030000 		.4byte	.LASF80
 1255 0507 0B       		.byte	0xb
 1256 0508 82       		.byte	0x82
 1257 0509 62040000 		.4byte	0x462
 1258 050d 03       		.uleb128 0x3
 1259 050e 26000000 		.4byte	.LASF81
 1260 0512 0B       		.byte	0xb
 1261 0513 F5       		.byte	0xf5
 1262 0514 62040000 		.4byte	0x462
 1263 0518 11       		.uleb128 0x11
 1264 0519 2C000000 		.4byte	0x2c
 1265 051d 31050000 		.4byte	0x531
 1266 0521 12       		.uleb128 0x12
 1267 0522 90020000 		.4byte	0x290
 1268 0526 12       		.uleb128 0x12
 1269 0527 31050000 		.4byte	0x531
 1270 052b 12       		.uleb128 0x12
 1271 052c 2C000000 		.4byte	0x2c
 1272 0530 00       		.byte	0
ARM GAS  /tmp/ccoJNTt5.s 			page 24


 1273 0531 09       		.uleb128 0x9
 1274 0532 04       		.byte	0x4
 1275 0533 37050000 		.4byte	0x537
 1276 0537 10       		.uleb128 0x10
 1277 0538 AD000000 		.4byte	0xad
 1278 053c 09       		.uleb128 0x9
 1279 053d 04       		.byte	0x4
 1280 053e 18050000 		.4byte	0x518
 1281 0542 11       		.uleb128 0x11
 1282 0543 2C000000 		.4byte	0x2c
 1283 0547 5B050000 		.4byte	0x55b
 1284 054b 12       		.uleb128 0x12
 1285 054c 90020000 		.4byte	0x290
 1286 0550 12       		.uleb128 0x12
 1287 0551 FC040000 		.4byte	0x4fc
 1288 0555 12       		.uleb128 0x12
 1289 0556 2C000000 		.4byte	0x2c
 1290 055a 00       		.byte	0
 1291 055b 09       		.uleb128 0x9
 1292 055c 04       		.byte	0x4
 1293 055d 42050000 		.4byte	0x542
 1294 0561 11       		.uleb128 0x11
 1295 0562 17010000 		.4byte	0x117
 1296 0566 75050000 		.4byte	0x575
 1297 056a 12       		.uleb128 0x12
 1298 056b 90020000 		.4byte	0x290
 1299 056f 12       		.uleb128 0x12
 1300 0570 AD000000 		.4byte	0xad
 1301 0574 00       		.byte	0
 1302 0575 09       		.uleb128 0x9
 1303 0576 04       		.byte	0x4
 1304 0577 61050000 		.4byte	0x561
 1305 057b 0D       		.uleb128 0xd
 1306 057c B8000000 		.4byte	0xb8
 1307 0580 0D       		.uleb128 0xd
 1308 0581 C3000000 		.4byte	0xc3
 1309 0585 14       		.uleb128 0x14
 1310 0586 1C       		.byte	0x1c
 1311 0587 0C       		.byte	0xc
 1312 0588 2905     		.2byte	0x529
 1313 058a 43060000 		.4byte	0x643
 1314 058e 0C       		.uleb128 0xc
 1315 058f 535200   		.ascii	"SR\000"
 1316 0592 0C       		.byte	0xc
 1317 0593 2B05     		.2byte	0x52b
 1318 0595 7B050000 		.4byte	0x57b
 1319 0599 00       		.byte	0
 1320 059a 15       		.uleb128 0x15
 1321 059b 0C040000 		.4byte	.LASF82
 1322 059f 0C       		.byte	0xc
 1323 05a0 2C05     		.2byte	0x52c
 1324 05a2 B8000000 		.4byte	0xb8
 1325 05a6 02       		.byte	0x2
 1326 05a7 0C       		.uleb128 0xc
 1327 05a8 445200   		.ascii	"DR\000"
 1328 05ab 0C       		.byte	0xc
 1329 05ac 2D05     		.2byte	0x52d
ARM GAS  /tmp/ccoJNTt5.s 			page 25


 1330 05ae 7B050000 		.4byte	0x57b
 1331 05b2 04       		.byte	0x4
 1332 05b3 15       		.uleb128 0x15
 1333 05b4 16040000 		.4byte	.LASF83
 1334 05b8 0C       		.byte	0xc
 1335 05b9 2E05     		.2byte	0x52e
 1336 05bb B8000000 		.4byte	0xb8
 1337 05bf 06       		.byte	0x6
 1338 05c0 0C       		.uleb128 0xc
 1339 05c1 42525200 		.ascii	"BRR\000"
 1340 05c5 0C       		.byte	0xc
 1341 05c6 2F05     		.2byte	0x52f
 1342 05c8 7B050000 		.4byte	0x57b
 1343 05cc 08       		.byte	0x8
 1344 05cd 15       		.uleb128 0x15
 1345 05ce 20040000 		.4byte	.LASF84
 1346 05d2 0C       		.byte	0xc
 1347 05d3 3005     		.2byte	0x530
 1348 05d5 B8000000 		.4byte	0xb8
 1349 05d9 0A       		.byte	0xa
 1350 05da 0C       		.uleb128 0xc
 1351 05db 43523100 		.ascii	"CR1\000"
 1352 05df 0C       		.byte	0xc
 1353 05e0 3105     		.2byte	0x531
 1354 05e2 7B050000 		.4byte	0x57b
 1355 05e6 0C       		.byte	0xc
 1356 05e7 15       		.uleb128 0x15
 1357 05e8 2A040000 		.4byte	.LASF85
 1358 05ec 0C       		.byte	0xc
 1359 05ed 3205     		.2byte	0x532
 1360 05ef B8000000 		.4byte	0xb8
 1361 05f3 0E       		.byte	0xe
 1362 05f4 0C       		.uleb128 0xc
 1363 05f5 43523200 		.ascii	"CR2\000"
 1364 05f9 0C       		.byte	0xc
 1365 05fa 3305     		.2byte	0x533
 1366 05fc 7B050000 		.4byte	0x57b
 1367 0600 10       		.byte	0x10
 1368 0601 15       		.uleb128 0x15
 1369 0602 34040000 		.4byte	.LASF86
 1370 0606 0C       		.byte	0xc
 1371 0607 3405     		.2byte	0x534
 1372 0609 B8000000 		.4byte	0xb8
 1373 060d 12       		.byte	0x12
 1374 060e 0C       		.uleb128 0xc
 1375 060f 43523300 		.ascii	"CR3\000"
 1376 0613 0C       		.byte	0xc
 1377 0614 3505     		.2byte	0x535
 1378 0616 7B050000 		.4byte	0x57b
 1379 061a 14       		.byte	0x14
 1380 061b 15       		.uleb128 0x15
 1381 061c F3040000 		.4byte	.LASF87
 1382 0620 0C       		.byte	0xc
 1383 0621 3605     		.2byte	0x536
 1384 0623 B8000000 		.4byte	0xb8
 1385 0627 16       		.byte	0x16
 1386 0628 15       		.uleb128 0x15
ARM GAS  /tmp/ccoJNTt5.s 			page 26


 1387 0629 6C010000 		.4byte	.LASF88
 1388 062d 0C       		.byte	0xc
 1389 062e 3705     		.2byte	0x537
 1390 0630 7B050000 		.4byte	0x57b
 1391 0634 18       		.byte	0x18
 1392 0635 15       		.uleb128 0x15
 1393 0636 45040000 		.4byte	.LASF89
 1394 063a 0C       		.byte	0xc
 1395 063b 3805     		.2byte	0x538
 1396 063d B8000000 		.4byte	0xb8
 1397 0641 1A       		.byte	0x1a
 1398 0642 00       		.byte	0
 1399 0643 16       		.uleb128 0x16
 1400 0644 FC020000 		.4byte	.LASF90
 1401 0648 0C       		.byte	0xc
 1402 0649 3905     		.2byte	0x539
 1403 064b 85050000 		.4byte	0x585
 1404 064f 11       		.uleb128 0x11
 1405 0650 17010000 		.4byte	0x117
 1406 0654 68060000 		.4byte	0x668
 1407 0658 12       		.uleb128 0x12
 1408 0659 90020000 		.4byte	0x290
 1409 065d 12       		.uleb128 0x12
 1410 065e AD000000 		.4byte	0xad
 1411 0662 12       		.uleb128 0x12
 1412 0663 38010000 		.4byte	0x138
 1413 0667 00       		.byte	0
 1414 0668 09       		.uleb128 0x9
 1415 0669 04       		.byte	0x4
 1416 066a 4F060000 		.4byte	0x64f
 1417 066e 11       		.uleb128 0x11
 1418 066f 17010000 		.4byte	0x117
 1419 0673 82060000 		.4byte	0x682
 1420 0677 12       		.uleb128 0x12
 1421 0678 90020000 		.4byte	0x290
 1422 067c 12       		.uleb128 0x12
 1423 067d 38010000 		.4byte	0x138
 1424 0681 00       		.byte	0
 1425 0682 09       		.uleb128 0x9
 1426 0683 04       		.byte	0x4
 1427 0684 6E060000 		.4byte	0x66e
 1428 0688 11       		.uleb128 0x11
 1429 0689 2C000000 		.4byte	0x2c
 1430 068d A6060000 		.4byte	0x6a6
 1431 0691 12       		.uleb128 0x12
 1432 0692 90020000 		.4byte	0x290
 1433 0696 12       		.uleb128 0x12
 1434 0697 31050000 		.4byte	0x531
 1435 069b 12       		.uleb128 0x12
 1436 069c 2C000000 		.4byte	0x2c
 1437 06a0 12       		.uleb128 0x12
 1438 06a1 38010000 		.4byte	0x138
 1439 06a5 00       		.byte	0
 1440 06a6 09       		.uleb128 0x9
 1441 06a7 04       		.byte	0x4
 1442 06a8 88060000 		.4byte	0x688
 1443 06ac 11       		.uleb128 0x11
ARM GAS  /tmp/ccoJNTt5.s 			page 27


 1444 06ad 2C000000 		.4byte	0x2c
 1445 06b1 CA060000 		.4byte	0x6ca
 1446 06b5 12       		.uleb128 0x12
 1447 06b6 90020000 		.4byte	0x290
 1448 06ba 12       		.uleb128 0x12
 1449 06bb FC040000 		.4byte	0x4fc
 1450 06bf 12       		.uleb128 0x12
 1451 06c0 2C000000 		.4byte	0x2c
 1452 06c4 12       		.uleb128 0x12
 1453 06c5 38010000 		.4byte	0x138
 1454 06c9 00       		.byte	0
 1455 06ca 09       		.uleb128 0x9
 1456 06cb 04       		.byte	0x4
 1457 06cc AC060000 		.4byte	0x6ac
 1458 06d0 17       		.uleb128 0x17
 1459 06d1 01       		.byte	0x1
 1460 06d2 0D       		.byte	0xd
 1461 06d3 64       		.byte	0x64
 1462 06d4 EB060000 		.4byte	0x6eb
 1463 06d8 18       		.uleb128 0x18
 1464 06d9 E9040000 		.4byte	.LASF91
 1465 06dd 00       		.sleb128 0
 1466 06de 18       		.uleb128 0x18
 1467 06df 71010000 		.4byte	.LASF92
 1468 06e3 01       		.sleb128 1
 1469 06e4 18       		.uleb128 0x18
 1470 06e5 A3050000 		.4byte	.LASF93
 1471 06e9 02       		.sleb128 2
 1472 06ea 00       		.byte	0
 1473 06eb 03       		.uleb128 0x3
 1474 06ec 06050000 		.4byte	.LASF94
 1475 06f0 0D       		.byte	0xd
 1476 06f1 68       		.byte	0x68
 1477 06f2 D0060000 		.4byte	0x6d0
 1478 06f6 03       		.uleb128 0x3
 1479 06f7 10050000 		.4byte	.LASF95
 1480 06fb 0D       		.byte	0xd
 1481 06fc 6D       		.byte	0x6d
 1482 06fd 01070000 		.4byte	0x701
 1483 0701 05       		.uleb128 0x5
 1484 0702 10050000 		.4byte	.LASF95
 1485 0706 78       		.byte	0x78
 1486 0707 0D       		.byte	0xd
 1487 0708 87       		.byte	0x87
 1488 0709 6C070000 		.4byte	0x76c
 1489 070d 07       		.uleb128 0x7
 1490 070e 766D7400 		.ascii	"vmt\000"
 1491 0712 0D       		.byte	0xd
 1492 0713 89       		.byte	0x89
 1493 0714 1D080000 		.4byte	0x81d
 1494 0718 00       		.byte	0
 1495 0719 06       		.uleb128 0x6
 1496 071a C5020000 		.4byte	.LASF96
 1497 071e 0D       		.byte	0xd
 1498 071f 8A       		.byte	0x8a
 1499 0720 EF030000 		.4byte	0x3ef
 1500 0724 04       		.byte	0x4
ARM GAS  /tmp/ccoJNTt5.s 			page 28


 1501 0725 06       		.uleb128 0x6
 1502 0726 88010000 		.4byte	.LASF97
 1503 072a 0D       		.byte	0xd
 1504 072b 8A       		.byte	0x8a
 1505 072c EB060000 		.4byte	0x6eb
 1506 0730 08       		.byte	0x8
 1507 0731 06       		.uleb128 0x6
 1508 0732 53020000 		.4byte	.LASF98
 1509 0736 0D       		.byte	0xd
 1510 0737 8A       		.byte	0x8a
 1511 0738 02050000 		.4byte	0x502
 1512 073c 0C       		.byte	0xc
 1513 073d 06       		.uleb128 0x6
 1514 073e E4020000 		.4byte	.LASF99
 1515 0742 0D       		.byte	0xd
 1516 0743 8A       		.byte	0x8a
 1517 0744 0D050000 		.4byte	0x50d
 1518 0748 30       		.byte	0x30
 1519 0749 07       		.uleb128 0x7
 1520 074a 696200   		.ascii	"ib\000"
 1521 074d 0D       		.byte	0xd
 1522 074e 8A       		.byte	0x8a
 1523 074f 28080000 		.4byte	0x828
 1524 0753 54       		.byte	0x54
 1525 0754 07       		.uleb128 0x7
 1526 0755 6F6200   		.ascii	"ob\000"
 1527 0758 0D       		.byte	0xd
 1528 0759 8A       		.byte	0x8a
 1529 075a 28080000 		.4byte	0x828
 1530 075e 64       		.byte	0x64
 1531 075f 06       		.uleb128 0x6
 1532 0760 18020000 		.4byte	.LASF100
 1533 0764 0D       		.byte	0xd
 1534 0765 8A       		.byte	0x8a
 1535 0766 38080000 		.4byte	0x838
 1536 076a 74       		.byte	0x74
 1537 076b 00       		.byte	0
 1538 076c 08       		.uleb128 0x8
 1539 076d 0C       		.byte	0xc
 1540 076e 0E       		.byte	0xe
 1541 076f D7       		.byte	0xd7
 1542 0770 A5070000 		.4byte	0x7a5
 1543 0774 06       		.uleb128 0x6
 1544 0775 3C030000 		.4byte	.LASF101
 1545 0779 0E       		.byte	0xe
 1546 077a DB       		.byte	0xdb
 1547 077b CE000000 		.4byte	0xce
 1548 077f 00       		.byte	0
 1549 0780 07       		.uleb128 0x7
 1550 0781 63723100 		.ascii	"cr1\000"
 1551 0785 0E       		.byte	0xe
 1552 0786 E0       		.byte	0xe0
 1553 0787 B8000000 		.4byte	0xb8
 1554 078b 04       		.byte	0x4
 1555 078c 07       		.uleb128 0x7
 1556 078d 63723200 		.ascii	"cr2\000"
 1557 0791 0E       		.byte	0xe
ARM GAS  /tmp/ccoJNTt5.s 			page 29


 1558 0792 E4       		.byte	0xe4
 1559 0793 B8000000 		.4byte	0xb8
 1560 0797 06       		.byte	0x6
 1561 0798 07       		.uleb128 0x7
 1562 0799 63723300 		.ascii	"cr3\000"
 1563 079d 0E       		.byte	0xe
 1564 079e E8       		.byte	0xe8
 1565 079f B8000000 		.4byte	0xb8
 1566 07a3 08       		.byte	0x8
 1567 07a4 00       		.byte	0
 1568 07a5 03       		.uleb128 0x3
 1569 07a6 F4030000 		.4byte	.LASF102
 1570 07aa 0E       		.byte	0xe
 1571 07ab E9       		.byte	0xe9
 1572 07ac 6C070000 		.4byte	0x76c
 1573 07b0 05       		.uleb128 0x5
 1574 07b1 34020000 		.4byte	.LASF103
 1575 07b5 20       		.byte	0x20
 1576 07b6 0D       		.byte	0xd
 1577 07b7 7C       		.byte	0x7c
 1578 07b8 1D080000 		.4byte	0x81d
 1579 07bc 06       		.uleb128 0x6
 1580 07bd 75030000 		.4byte	.LASF104
 1581 07c1 0D       		.byte	0xd
 1582 07c2 7D       		.byte	0x7d
 1583 07c3 3C050000 		.4byte	0x53c
 1584 07c7 00       		.byte	0
 1585 07c8 06       		.uleb128 0x6
 1586 07c9 2F050000 		.4byte	.LASF105
 1587 07cd 0D       		.byte	0xd
 1588 07ce 7D       		.byte	0x7d
 1589 07cf 5B050000 		.4byte	0x55b
 1590 07d3 04       		.byte	0x4
 1591 07d4 07       		.uleb128 0x7
 1592 07d5 70757400 		.ascii	"put\000"
 1593 07d9 0D       		.byte	0xd
 1594 07da 7D       		.byte	0x7d
 1595 07db 75050000 		.4byte	0x575
 1596 07df 08       		.byte	0x8
 1597 07e0 07       		.uleb128 0x7
 1598 07e1 67657400 		.ascii	"get\000"
 1599 07e5 0D       		.byte	0xd
 1600 07e6 7D       		.byte	0x7d
 1601 07e7 4D040000 		.4byte	0x44d
 1602 07eb 0C       		.byte	0xc
 1603 07ec 06       		.uleb128 0x6
 1604 07ed 7B030000 		.4byte	.LASF106
 1605 07f1 0D       		.byte	0xd
 1606 07f2 7D       		.byte	0x7d
 1607 07f3 68060000 		.4byte	0x668
 1608 07f7 10       		.byte	0x10
 1609 07f8 06       		.uleb128 0x6
 1610 07f9 71020000 		.4byte	.LASF107
 1611 07fd 0D       		.byte	0xd
 1612 07fe 7D       		.byte	0x7d
 1613 07ff 82060000 		.4byte	0x682
 1614 0803 14       		.byte	0x14
ARM GAS  /tmp/ccoJNTt5.s 			page 30


 1615 0804 06       		.uleb128 0x6
 1616 0805 0A030000 		.4byte	.LASF108
 1617 0809 0D       		.byte	0xd
 1618 080a 7D       		.byte	0x7d
 1619 080b A6060000 		.4byte	0x6a6
 1620 080f 18       		.byte	0x18
 1621 0810 06       		.uleb128 0x6
 1622 0811 42010000 		.4byte	.LASF109
 1623 0815 0D       		.byte	0xd
 1624 0816 7D       		.byte	0x7d
 1625 0817 CA060000 		.4byte	0x6ca
 1626 081b 1C       		.byte	0x1c
 1627 081c 00       		.byte	0
 1628 081d 09       		.uleb128 0x9
 1629 081e 04       		.byte	0x4
 1630 081f 23080000 		.4byte	0x823
 1631 0823 10       		.uleb128 0x10
 1632 0824 B0070000 		.4byte	0x7b0
 1633 0828 19       		.uleb128 0x19
 1634 0829 AD000000 		.4byte	0xad
 1635 082d 38080000 		.4byte	0x838
 1636 0831 1A       		.uleb128 0x1a
 1637 0832 3A030000 		.4byte	0x33a
 1638 0836 0F       		.byte	0xf
 1639 0837 00       		.byte	0
 1640 0838 09       		.uleb128 0x9
 1641 0839 04       		.byte	0x4
 1642 083a 43060000 		.4byte	0x643
 1643 083e 1B       		.uleb128 0x1b
 1644 083f 42010000 		.4byte	.LASF109
 1645 0843 01       		.byte	0x1
 1646 0844 63       		.byte	0x63
 1647 0845 2C000000 		.4byte	0x2c
 1648 0849 00000000 		.4byte	.LFB118
 1649 084d 06000000 		.4byte	.LFE118-.LFB118
 1650 0851 01       		.uleb128 0x1
 1651 0852 9C       		.byte	0x9c
 1652 0853 B8080000 		.4byte	0x8b8
 1653 0857 1C       		.uleb128 0x1c
 1654 0858 697000   		.ascii	"ip\000"
 1655 085b 01       		.byte	0x1
 1656 085c 63       		.byte	0x63
 1657 085d 90020000 		.4byte	0x290
 1658 0861 00000000 		.4byte	.LLST0
 1659 0865 1C       		.uleb128 0x1c
 1660 0866 627000   		.ascii	"bp\000"
 1661 0869 01       		.byte	0x1
 1662 086a 63       		.byte	0x63
 1663 086b FC040000 		.4byte	0x4fc
 1664 086f 2E000000 		.4byte	.LLST1
 1665 0873 1C       		.uleb128 0x1c
 1666 0874 6E00     		.ascii	"n\000"
 1667 0876 01       		.byte	0x1
 1668 0877 63       		.byte	0x63
 1669 0878 2C000000 		.4byte	0x2c
 1670 087c 4F000000 		.4byte	.LLST2
 1671 0880 1D       		.uleb128 0x1d
ARM GAS  /tmp/ccoJNTt5.s 			page 31


 1672 0881 CF030000 		.4byte	.LASF110
 1673 0885 01       		.byte	0x1
 1674 0886 63       		.byte	0x63
 1675 0887 38010000 		.4byte	0x138
 1676 088b 70000000 		.4byte	.LLST3
 1677 088f 1E       		.uleb128 0x1e
 1678 0890 06000000 		.4byte	.LVL2
 1679 0894 8B0E0000 		.4byte	0xe8b
 1680 0898 1F       		.uleb128 0x1f
 1681 0899 01       		.uleb128 0x1
 1682 089a 53       		.byte	0x53
 1683 089b 03       		.uleb128 0x3
 1684 089c F3       		.byte	0xf3
 1685 089d 01       		.uleb128 0x1
 1686 089e 53       		.byte	0x53
 1687 089f 1F       		.uleb128 0x1f
 1688 08a0 01       		.uleb128 0x1
 1689 08a1 52       		.byte	0x52
 1690 08a2 03       		.uleb128 0x3
 1691 08a3 F3       		.byte	0xf3
 1692 08a4 01       		.uleb128 0x1
 1693 08a5 52       		.byte	0x52
 1694 08a6 1F       		.uleb128 0x1f
 1695 08a7 01       		.uleb128 0x1
 1696 08a8 51       		.byte	0x51
 1697 08a9 03       		.uleb128 0x3
 1698 08aa F3       		.byte	0xf3
 1699 08ab 01       		.uleb128 0x1
 1700 08ac 51       		.byte	0x51
 1701 08ad 1F       		.uleb128 0x1f
 1702 08ae 01       		.uleb128 0x1
 1703 08af 50       		.byte	0x50
 1704 08b0 05       		.uleb128 0x5
 1705 08b1 F3       		.byte	0xf3
 1706 08b2 01       		.uleb128 0x1
 1707 08b3 50       		.byte	0x50
 1708 08b4 23       		.byte	0x23
 1709 08b5 0C       		.uleb128 0xc
 1710 08b6 00       		.byte	0
 1711 08b7 00       		.byte	0
 1712 08b8 1B       		.uleb128 0x1b
 1713 08b9 2F050000 		.4byte	.LASF105
 1714 08bd 01       		.byte	0x1
 1715 08be 44       		.byte	0x44
 1716 08bf 2C000000 		.4byte	0x2c
 1717 08c3 00000000 		.4byte	.LFB112
 1718 08c7 0A000000 		.4byte	.LFE112-.LFB112
 1719 08cb 01       		.uleb128 0x1
 1720 08cc 9C       		.byte	0x9c
 1721 08cd 22090000 		.4byte	0x922
 1722 08d1 1C       		.uleb128 0x1c
 1723 08d2 697000   		.ascii	"ip\000"
 1724 08d5 01       		.byte	0x1
 1725 08d6 44       		.byte	0x44
 1726 08d7 90020000 		.4byte	0x290
 1727 08db 91000000 		.4byte	.LLST4
 1728 08df 1C       		.uleb128 0x1c
ARM GAS  /tmp/ccoJNTt5.s 			page 32


 1729 08e0 627000   		.ascii	"bp\000"
 1730 08e3 01       		.byte	0x1
 1731 08e4 44       		.byte	0x44
 1732 08e5 FC040000 		.4byte	0x4fc
 1733 08e9 BF000000 		.4byte	.LLST5
 1734 08ed 1C       		.uleb128 0x1c
 1735 08ee 6E00     		.ascii	"n\000"
 1736 08f0 01       		.byte	0x1
 1737 08f1 44       		.byte	0x44
 1738 08f2 2C000000 		.4byte	0x2c
 1739 08f6 E0000000 		.4byte	.LLST6
 1740 08fa 1E       		.uleb128 0x1e
 1741 08fb 0A000000 		.4byte	.LVL5
 1742 08ff 8B0E0000 		.4byte	0xe8b
 1743 0903 1F       		.uleb128 0x1f
 1744 0904 01       		.uleb128 0x1
 1745 0905 53       		.byte	0x53
 1746 0906 02       		.uleb128 0x2
 1747 0907 09       		.byte	0x9
 1748 0908 FF       		.byte	0xff
 1749 0909 1F       		.uleb128 0x1f
 1750 090a 01       		.uleb128 0x1
 1751 090b 52       		.byte	0x52
 1752 090c 03       		.uleb128 0x3
 1753 090d F3       		.byte	0xf3
 1754 090e 01       		.uleb128 0x1
 1755 090f 52       		.byte	0x52
 1756 0910 1F       		.uleb128 0x1f
 1757 0911 01       		.uleb128 0x1
 1758 0912 51       		.byte	0x51
 1759 0913 03       		.uleb128 0x3
 1760 0914 F3       		.byte	0xf3
 1761 0915 01       		.uleb128 0x1
 1762 0916 51       		.byte	0x51
 1763 0917 1F       		.uleb128 0x1f
 1764 0918 01       		.uleb128 0x1
 1765 0919 50       		.byte	0x50
 1766 091a 05       		.uleb128 0x5
 1767 091b F3       		.byte	0xf3
 1768 091c 01       		.uleb128 0x1
 1769 091d 50       		.byte	0x50
 1770 091e 23       		.byte	0x23
 1771 091f 0C       		.uleb128 0xc
 1772 0920 00       		.byte	0
 1773 0921 00       		.byte	0
 1774 0922 1B       		.uleb128 0x1b
 1775 0923 0A030000 		.4byte	.LASF108
 1776 0927 01       		.byte	0x1
 1777 0928 5E       		.byte	0x5e
 1778 0929 2C000000 		.4byte	0x2c
 1779 092d 00000000 		.4byte	.LFB117
 1780 0931 06000000 		.4byte	.LFE117-.LFB117
 1781 0935 01       		.uleb128 0x1
 1782 0936 9C       		.byte	0x9c
 1783 0937 9C090000 		.4byte	0x99c
 1784 093b 1C       		.uleb128 0x1c
 1785 093c 697000   		.ascii	"ip\000"
ARM GAS  /tmp/ccoJNTt5.s 			page 33


 1786 093f 01       		.byte	0x1
 1787 0940 5E       		.byte	0x5e
 1788 0941 90020000 		.4byte	0x290
 1789 0945 01010000 		.4byte	.LLST7
 1790 0949 1C       		.uleb128 0x1c
 1791 094a 627000   		.ascii	"bp\000"
 1792 094d 01       		.byte	0x1
 1793 094e 5E       		.byte	0x5e
 1794 094f 31050000 		.4byte	0x531
 1795 0953 2F010000 		.4byte	.LLST8
 1796 0957 1C       		.uleb128 0x1c
 1797 0958 6E00     		.ascii	"n\000"
 1798 095a 01       		.byte	0x1
 1799 095b 5E       		.byte	0x5e
 1800 095c 2C000000 		.4byte	0x2c
 1801 0960 50010000 		.4byte	.LLST9
 1802 0964 1D       		.uleb128 0x1d
 1803 0965 CF030000 		.4byte	.LASF110
 1804 0969 01       		.byte	0x1
 1805 096a 5E       		.byte	0x5e
 1806 096b 38010000 		.4byte	0x138
 1807 096f 71010000 		.4byte	.LLST10
 1808 0973 1E       		.uleb128 0x1e
 1809 0974 06000000 		.4byte	.LVL8
 1810 0978 B60E0000 		.4byte	0xeb6
 1811 097c 1F       		.uleb128 0x1f
 1812 097d 01       		.uleb128 0x1
 1813 097e 53       		.byte	0x53
 1814 097f 03       		.uleb128 0x3
 1815 0980 F3       		.byte	0xf3
 1816 0981 01       		.uleb128 0x1
 1817 0982 53       		.byte	0x53
 1818 0983 1F       		.uleb128 0x1f
 1819 0984 01       		.uleb128 0x1
 1820 0985 52       		.byte	0x52
 1821 0986 03       		.uleb128 0x3
 1822 0987 F3       		.byte	0xf3
 1823 0988 01       		.uleb128 0x1
 1824 0989 52       		.byte	0x52
 1825 098a 1F       		.uleb128 0x1f
 1826 098b 01       		.uleb128 0x1
 1827 098c 51       		.byte	0x51
 1828 098d 03       		.uleb128 0x3
 1829 098e F3       		.byte	0xf3
 1830 098f 01       		.uleb128 0x1
 1831 0990 51       		.byte	0x51
 1832 0991 1F       		.uleb128 0x1f
 1833 0992 01       		.uleb128 0x1
 1834 0993 50       		.byte	0x50
 1835 0994 05       		.uleb128 0x5
 1836 0995 F3       		.byte	0xf3
 1837 0996 01       		.uleb128 0x1
 1838 0997 50       		.byte	0x50
 1839 0998 23       		.byte	0x23
 1840 0999 30       		.uleb128 0x30
 1841 099a 00       		.byte	0
 1842 099b 00       		.byte	0
ARM GAS  /tmp/ccoJNTt5.s 			page 34


 1843 099c 1B       		.uleb128 0x1b
 1844 099d 75030000 		.4byte	.LASF104
 1845 09a1 01       		.byte	0x1
 1846 09a2 3E       		.byte	0x3e
 1847 09a3 2C000000 		.4byte	0x2c
 1848 09a7 00000000 		.4byte	.LFB111
 1849 09ab 0A000000 		.4byte	.LFE111-.LFB111
 1850 09af 01       		.uleb128 0x1
 1851 09b0 9C       		.byte	0x9c
 1852 09b1 060A0000 		.4byte	0xa06
 1853 09b5 1C       		.uleb128 0x1c
 1854 09b6 697000   		.ascii	"ip\000"
 1855 09b9 01       		.byte	0x1
 1856 09ba 3E       		.byte	0x3e
 1857 09bb 90020000 		.4byte	0x290
 1858 09bf 92010000 		.4byte	.LLST11
 1859 09c3 1C       		.uleb128 0x1c
 1860 09c4 627000   		.ascii	"bp\000"
 1861 09c7 01       		.byte	0x1
 1862 09c8 3E       		.byte	0x3e
 1863 09c9 31050000 		.4byte	0x531
 1864 09cd C0010000 		.4byte	.LLST12
 1865 09d1 1C       		.uleb128 0x1c
 1866 09d2 6E00     		.ascii	"n\000"
 1867 09d4 01       		.byte	0x1
 1868 09d5 3E       		.byte	0x3e
 1869 09d6 2C000000 		.4byte	0x2c
 1870 09da E1010000 		.4byte	.LLST13
 1871 09de 1E       		.uleb128 0x1e
 1872 09df 0A000000 		.4byte	.LVL11
 1873 09e3 B60E0000 		.4byte	0xeb6
 1874 09e7 1F       		.uleb128 0x1f
 1875 09e8 01       		.uleb128 0x1
 1876 09e9 53       		.byte	0x53
 1877 09ea 02       		.uleb128 0x2
 1878 09eb 09       		.byte	0x9
 1879 09ec FF       		.byte	0xff
 1880 09ed 1F       		.uleb128 0x1f
 1881 09ee 01       		.uleb128 0x1
 1882 09ef 52       		.byte	0x52
 1883 09f0 03       		.uleb128 0x3
 1884 09f1 F3       		.byte	0xf3
 1885 09f2 01       		.uleb128 0x1
 1886 09f3 52       		.byte	0x52
 1887 09f4 1F       		.uleb128 0x1f
 1888 09f5 01       		.uleb128 0x1
 1889 09f6 51       		.byte	0x51
 1890 09f7 03       		.uleb128 0x3
 1891 09f8 F3       		.byte	0xf3
 1892 09f9 01       		.uleb128 0x1
 1893 09fa 51       		.byte	0x51
 1894 09fb 1F       		.uleb128 0x1f
 1895 09fc 01       		.uleb128 0x1
 1896 09fd 50       		.byte	0x50
 1897 09fe 05       		.uleb128 0x5
 1898 09ff F3       		.byte	0xf3
 1899 0a00 01       		.uleb128 0x1
ARM GAS  /tmp/ccoJNTt5.s 			page 35


 1900 0a01 50       		.byte	0x50
 1901 0a02 23       		.byte	0x23
 1902 0a03 30       		.uleb128 0x30
 1903 0a04 00       		.byte	0
 1904 0a05 00       		.byte	0
 1905 0a06 1B       		.uleb128 0x1b
 1906 0a07 71020000 		.4byte	.LASF107
 1907 0a0b 01       		.byte	0x1
 1908 0a0c 59       		.byte	0x59
 1909 0a0d 17010000 		.4byte	0x117
 1910 0a11 00000000 		.4byte	.LFB116
 1911 0a15 06000000 		.4byte	.LFE116-.LFB116
 1912 0a19 01       		.uleb128 0x1
 1913 0a1a 9C       		.byte	0x9c
 1914 0a1b 570A0000 		.4byte	0xa57
 1915 0a1f 1C       		.uleb128 0x1c
 1916 0a20 697000   		.ascii	"ip\000"
 1917 0a23 01       		.byte	0x1
 1918 0a24 59       		.byte	0x59
 1919 0a25 90020000 		.4byte	0x290
 1920 0a29 02020000 		.4byte	.LLST14
 1921 0a2d 1D       		.uleb128 0x1d
 1922 0a2e 1C060000 		.4byte	.LASF111
 1923 0a32 01       		.byte	0x1
 1924 0a33 59       		.byte	0x59
 1925 0a34 38010000 		.4byte	0x138
 1926 0a38 30020000 		.4byte	.LLST15
 1927 0a3c 1E       		.uleb128 0x1e
 1928 0a3d 06000000 		.4byte	.LVL14
 1929 0a41 E10E0000 		.4byte	0xee1
 1930 0a45 1F       		.uleb128 0x1f
 1931 0a46 01       		.uleb128 0x1
 1932 0a47 51       		.byte	0x51
 1933 0a48 03       		.uleb128 0x3
 1934 0a49 F3       		.byte	0xf3
 1935 0a4a 01       		.uleb128 0x1
 1936 0a4b 51       		.byte	0x51
 1937 0a4c 1F       		.uleb128 0x1f
 1938 0a4d 01       		.uleb128 0x1
 1939 0a4e 50       		.byte	0x50
 1940 0a4f 05       		.uleb128 0x5
 1941 0a50 F3       		.byte	0xf3
 1942 0a51 01       		.uleb128 0x1
 1943 0a52 50       		.byte	0x50
 1944 0a53 23       		.byte	0x23
 1945 0a54 0C       		.uleb128 0xc
 1946 0a55 00       		.byte	0
 1947 0a56 00       		.byte	0
 1948 0a57 20       		.uleb128 0x20
 1949 0a58 67657400 		.ascii	"get\000"
 1950 0a5c 01       		.byte	0x1
 1951 0a5d 4F       		.byte	0x4f
 1952 0a5e 17010000 		.4byte	0x117
 1953 0a62 00000000 		.4byte	.LFB114
 1954 0a66 0A000000 		.4byte	.LFE114-.LFB114
 1955 0a6a 01       		.uleb128 0x1
 1956 0a6b 9C       		.byte	0x9c
ARM GAS  /tmp/ccoJNTt5.s 			page 36


 1957 0a6c 980A0000 		.4byte	0xa98
 1958 0a70 1C       		.uleb128 0x1c
 1959 0a71 697000   		.ascii	"ip\000"
 1960 0a74 01       		.byte	0x1
 1961 0a75 4F       		.byte	0x4f
 1962 0a76 90020000 		.4byte	0x290
 1963 0a7a 51020000 		.4byte	.LLST16
 1964 0a7e 1E       		.uleb128 0x1e
 1965 0a7f 0A000000 		.4byte	.LVL17
 1966 0a83 E10E0000 		.4byte	0xee1
 1967 0a87 1F       		.uleb128 0x1f
 1968 0a88 01       		.uleb128 0x1
 1969 0a89 51       		.byte	0x51
 1970 0a8a 02       		.uleb128 0x2
 1971 0a8b 09       		.byte	0x9
 1972 0a8c FF       		.byte	0xff
 1973 0a8d 1F       		.uleb128 0x1f
 1974 0a8e 01       		.uleb128 0x1
 1975 0a8f 50       		.byte	0x50
 1976 0a90 05       		.uleb128 0x5
 1977 0a91 F3       		.byte	0xf3
 1978 0a92 01       		.uleb128 0x1
 1979 0a93 50       		.byte	0x50
 1980 0a94 23       		.byte	0x23
 1981 0a95 0C       		.uleb128 0xc
 1982 0a96 00       		.byte	0
 1983 0a97 00       		.byte	0
 1984 0a98 1B       		.uleb128 0x1b
 1985 0a99 7B030000 		.4byte	.LASF106
 1986 0a9d 01       		.byte	0x1
 1987 0a9e 54       		.byte	0x54
 1988 0a9f 17010000 		.4byte	0x117
 1989 0aa3 00000000 		.4byte	.LFB115
 1990 0aa7 06000000 		.4byte	.LFE115-.LFB115
 1991 0aab 01       		.uleb128 0x1
 1992 0aac 9C       		.byte	0x9c
 1993 0aad F60A0000 		.4byte	0xaf6
 1994 0ab1 1C       		.uleb128 0x1c
 1995 0ab2 697000   		.ascii	"ip\000"
 1996 0ab5 01       		.byte	0x1
 1997 0ab6 54       		.byte	0x54
 1998 0ab7 90020000 		.4byte	0x290
 1999 0abb 7F020000 		.4byte	.LLST17
 2000 0abf 1C       		.uleb128 0x1c
 2001 0ac0 6200     		.ascii	"b\000"
 2002 0ac2 01       		.byte	0x1
 2003 0ac3 54       		.byte	0x54
 2004 0ac4 AD000000 		.4byte	0xad
 2005 0ac8 AD020000 		.4byte	.LLST18
 2006 0acc 1D       		.uleb128 0x1d
 2007 0acd 1C060000 		.4byte	.LASF111
 2008 0ad1 01       		.byte	0x1
 2009 0ad2 54       		.byte	0x54
 2010 0ad3 38010000 		.4byte	0x138
 2011 0ad7 CE020000 		.4byte	.LLST19
 2012 0adb 1E       		.uleb128 0x1e
 2013 0adc 06000000 		.4byte	.LVL20
ARM GAS  /tmp/ccoJNTt5.s 			page 37


 2014 0ae0 FC0E0000 		.4byte	0xefc
 2015 0ae4 1F       		.uleb128 0x1f
 2016 0ae5 01       		.uleb128 0x1
 2017 0ae6 52       		.byte	0x52
 2018 0ae7 03       		.uleb128 0x3
 2019 0ae8 F3       		.byte	0xf3
 2020 0ae9 01       		.uleb128 0x1
 2021 0aea 52       		.byte	0x52
 2022 0aeb 1F       		.uleb128 0x1f
 2023 0aec 01       		.uleb128 0x1
 2024 0aed 50       		.byte	0x50
 2025 0aee 05       		.uleb128 0x5
 2026 0aef F3       		.byte	0xf3
 2027 0af0 01       		.uleb128 0x1
 2028 0af1 50       		.byte	0x50
 2029 0af2 23       		.byte	0x23
 2030 0af3 30       		.uleb128 0x30
 2031 0af4 00       		.byte	0
 2032 0af5 00       		.byte	0
 2033 0af6 20       		.uleb128 0x20
 2034 0af7 70757400 		.ascii	"put\000"
 2035 0afb 01       		.byte	0x1
 2036 0afc 4A       		.byte	0x4a
 2037 0afd 17010000 		.4byte	0x117
 2038 0b01 00000000 		.4byte	.LFB113
 2039 0b05 0A000000 		.4byte	.LFE113-.LFB113
 2040 0b09 01       		.uleb128 0x1
 2041 0b0a 9C       		.byte	0x9c
 2042 0b0b 440B0000 		.4byte	0xb44
 2043 0b0f 1C       		.uleb128 0x1c
 2044 0b10 697000   		.ascii	"ip\000"
 2045 0b13 01       		.byte	0x1
 2046 0b14 4A       		.byte	0x4a
 2047 0b15 90020000 		.4byte	0x290
 2048 0b19 EF020000 		.4byte	.LLST20
 2049 0b1d 1C       		.uleb128 0x1c
 2050 0b1e 6200     		.ascii	"b\000"
 2051 0b20 01       		.byte	0x1
 2052 0b21 4A       		.byte	0x4a
 2053 0b22 AD000000 		.4byte	0xad
 2054 0b26 1D030000 		.4byte	.LLST21
 2055 0b2a 1E       		.uleb128 0x1e
 2056 0b2b 0A000000 		.4byte	.LVL23
 2057 0b2f FC0E0000 		.4byte	0xefc
 2058 0b33 1F       		.uleb128 0x1f
 2059 0b34 01       		.uleb128 0x1
 2060 0b35 52       		.byte	0x52
 2061 0b36 02       		.uleb128 0x2
 2062 0b37 09       		.byte	0x9
 2063 0b38 FF       		.byte	0xff
 2064 0b39 1F       		.uleb128 0x1f
 2065 0b3a 01       		.uleb128 0x1
 2066 0b3b 50       		.byte	0x50
 2067 0b3c 05       		.uleb128 0x5
 2068 0b3d F3       		.byte	0xf3
 2069 0b3e 01       		.uleb128 0x1
 2070 0b3f 50       		.byte	0x50
ARM GAS  /tmp/ccoJNTt5.s 			page 38


 2071 0b40 23       		.byte	0x23
 2072 0b41 30       		.uleb128 0x30
 2073 0b42 00       		.byte	0
 2074 0b43 00       		.byte	0
 2075 0b44 21       		.uleb128 0x21
 2076 0b45 24060000 		.4byte	.LASF112
 2077 0b49 01       		.byte	0x1
 2078 0b4a 78       		.byte	0x78
 2079 0b4b 00000000 		.4byte	.LFB119
 2080 0b4f 04000000 		.4byte	.LFE119-.LFB119
 2081 0b53 01       		.uleb128 0x1
 2082 0b54 9C       		.byte	0x9c
 2083 0b55 630B0000 		.4byte	0xb63
 2084 0b59 22       		.uleb128 0x22
 2085 0b5a 04000000 		.4byte	.LVL24
 2086 0b5e 1C0F0000 		.4byte	0xf1c
 2087 0b62 00       		.byte	0
 2088 0b63 21       		.uleb128 0x21
 2089 0b64 35010000 		.4byte	.LASF113
 2090 0b68 01       		.byte	0x1
 2091 0b69 8C       		.byte	0x8c
 2092 0b6a 00000000 		.4byte	.LFB120
 2093 0b6e 42000000 		.4byte	.LFE120-.LFB120
 2094 0b72 01       		.uleb128 0x1
 2095 0b73 9C       		.byte	0x9c
 2096 0b74 F60B0000 		.4byte	0xbf6
 2097 0b78 1C       		.uleb128 0x1c
 2098 0b79 73647000 		.ascii	"sdp\000"
 2099 0b7d 01       		.byte	0x1
 2100 0b7e 8C       		.byte	0x8c
 2101 0b7f F60B0000 		.4byte	0xbf6
 2102 0b83 3E030000 		.4byte	.LLST22
 2103 0b87 1D       		.uleb128 0x1d
 2104 0b88 4B020000 		.4byte	.LASF114
 2105 0b8c 01       		.byte	0x1
 2106 0b8d 8C       		.byte	0x8c
 2107 0b8e DA040000 		.4byte	0x4da
 2108 0b92 5C030000 		.4byte	.LLST23
 2109 0b96 1D       		.uleb128 0x1d
 2110 0b97 ED050000 		.4byte	.LASF115
 2111 0b9b 01       		.byte	0x1
 2112 0b9c 8C       		.byte	0x8c
 2113 0b9d DA040000 		.4byte	0x4da
 2114 0ba1 88030000 		.4byte	.LLST24
 2115 0ba5 23       		.uleb128 0x23
 2116 0ba6 2C000000 		.4byte	.LVL29
 2117 0baa 240F0000 		.4byte	0xf24
 2118 0bae CC0B0000 		.4byte	0xbcc
 2119 0bb2 1F       		.uleb128 0x1f
 2120 0bb3 01       		.uleb128 0x1
 2121 0bb4 53       		.byte	0x53
 2122 0bb5 03       		.uleb128 0x3
 2123 0bb6 F3       		.byte	0xf3
 2124 0bb7 01       		.uleb128 0x1
 2125 0bb8 51       		.byte	0x51
 2126 0bb9 1F       		.uleb128 0x1f
 2127 0bba 01       		.uleb128 0x1
ARM GAS  /tmp/ccoJNTt5.s 			page 39


 2128 0bbb 52       		.byte	0x52
 2129 0bbc 01       		.uleb128 0x1
 2130 0bbd 40       		.byte	0x40
 2131 0bbe 1F       		.uleb128 0x1f
 2132 0bbf 01       		.uleb128 0x1
 2133 0bc0 51       		.byte	0x51
 2134 0bc1 03       		.uleb128 0x3
 2135 0bc2 74       		.byte	0x74
 2136 0bc3 D400     		.sleb128 84
 2137 0bc5 1F       		.uleb128 0x1f
 2138 0bc6 01       		.uleb128 0x1
 2139 0bc7 50       		.byte	0x50
 2140 0bc8 02       		.uleb128 0x2
 2141 0bc9 74       		.byte	0x74
 2142 0bca 0C       		.sleb128 12
 2143 0bcb 00       		.byte	0
 2144 0bcc 24       		.uleb128 0x24
 2145 0bcd 3E000000 		.4byte	.LVL30
 2146 0bd1 4A0F0000 		.4byte	0xf4a
 2147 0bd5 1F       		.uleb128 0x1f
 2148 0bd6 01       		.uleb128 0x1
 2149 0bd7 53       		.byte	0x53
 2150 0bd8 02       		.uleb128 0x2
 2151 0bd9 75       		.byte	0x75
 2152 0bda 00       		.sleb128 0
 2153 0bdb 1F       		.uleb128 0x1f
 2154 0bdc 01       		.uleb128 0x1
 2155 0bdd 52       		.byte	0x52
 2156 0bde 01       		.uleb128 0x1
 2157 0bdf 40       		.byte	0x40
 2158 0be0 1F       		.uleb128 0x1f
 2159 0be1 01       		.uleb128 0x1
 2160 0be2 51       		.byte	0x51
 2161 0be3 03       		.uleb128 0x3
 2162 0be4 74       		.byte	0x74
 2163 0be5 E400     		.sleb128 100
 2164 0be7 1F       		.uleb128 0x1f
 2165 0be8 01       		.uleb128 0x1
 2166 0be9 50       		.byte	0x50
 2167 0bea 02       		.uleb128 0x2
 2168 0beb 74       		.byte	0x74
 2169 0bec 30       		.sleb128 48
 2170 0bed 1F       		.uleb128 0x1f
 2171 0bee 02       		.uleb128 0x2
 2172 0bef 7D       		.byte	0x7d
 2173 0bf0 00       		.sleb128 0
 2174 0bf1 02       		.uleb128 0x2
 2175 0bf2 74       		.byte	0x74
 2176 0bf3 00       		.sleb128 0
 2177 0bf4 00       		.byte	0
 2178 0bf5 00       		.byte	0
 2179 0bf6 09       		.uleb128 0x9
 2180 0bf7 04       		.byte	0x4
 2181 0bf8 F6060000 		.4byte	0x6f6
 2182 0bfc 21       		.uleb128 0x21
 2183 0bfd 50050000 		.4byte	.LASF116
 2184 0c01 01       		.byte	0x1
ARM GAS  /tmp/ccoJNTt5.s 			page 40


 2185 0c02 9F       		.byte	0x9f
 2186 0c03 00000000 		.4byte	.LFB121
 2187 0c07 4A000000 		.4byte	.LFE121-.LFB121
 2188 0c0b 01       		.uleb128 0x1
 2189 0c0c 9C       		.byte	0x9c
 2190 0c0d 860C0000 		.4byte	0xc86
 2191 0c11 1C       		.uleb128 0x1c
 2192 0c12 73647000 		.ascii	"sdp\000"
 2193 0c16 01       		.byte	0x1
 2194 0c17 9F       		.byte	0x9f
 2195 0c18 F60B0000 		.4byte	0xbf6
 2196 0c1c A6030000 		.4byte	.LLST25
 2197 0c20 1D       		.uleb128 0x1d
 2198 0c21 49050000 		.4byte	.LASF117
 2199 0c25 01       		.byte	0x1
 2200 0c26 9F       		.byte	0x9f
 2201 0c27 860C0000 		.4byte	0xc86
 2202 0c2b DA030000 		.4byte	.LLST26
 2203 0c2f 25       		.uleb128 0x25
 2204 0c30 10000000 		.4byte	.LVL33
 2205 0c34 700F0000 		.4byte	0xf70
 2206 0c38 23       		.uleb128 0x23
 2207 0c39 26000000 		.4byte	.LVL34
 2208 0c3d 770F0000 		.4byte	0xf77
 2209 0c41 4F0C0000 		.4byte	0xc4f
 2210 0c45 1F       		.uleb128 0x1f
 2211 0c46 01       		.uleb128 0x1
 2212 0c47 50       		.byte	0x50
 2213 0c48 05       		.uleb128 0x5
 2214 0c49 03       		.byte	0x3
 2215 0c4a 0C000000 		.4byte	.LC1
 2216 0c4e 00       		.byte	0
 2217 0c4f 23       		.uleb128 0x23
 2218 0c50 2E000000 		.4byte	.LVL35
 2219 0c54 880F0000 		.4byte	0xf88
 2220 0c58 690C0000 		.4byte	0xc69
 2221 0c5c 1F       		.uleb128 0x1f
 2222 0c5d 01       		.uleb128 0x1
 2223 0c5e 51       		.byte	0x51
 2224 0c5f 02       		.uleb128 0x2
 2225 0c60 75       		.byte	0x75
 2226 0c61 00       		.sleb128 0
 2227 0c62 1F       		.uleb128 0x1f
 2228 0c63 01       		.uleb128 0x1
 2229 0c64 50       		.byte	0x50
 2230 0c65 02       		.uleb128 0x2
 2231 0c66 74       		.byte	0x74
 2232 0c67 00       		.sleb128 0
 2233 0c68 00       		.byte	0
 2234 0c69 25       		.uleb128 0x25
 2235 0c6a 36000000 		.4byte	.LVL36
 2236 0c6e 9F0F0000 		.4byte	0xf9f
 2237 0c72 24       		.uleb128 0x24
 2238 0c73 48000000 		.4byte	.LVL39
 2239 0c77 770F0000 		.4byte	0xf77
 2240 0c7b 1F       		.uleb128 0x1f
 2241 0c7c 01       		.uleb128 0x1
ARM GAS  /tmp/ccoJNTt5.s 			page 41


 2242 0c7d 50       		.byte	0x50
 2243 0c7e 05       		.uleb128 0x5
 2244 0c7f 03       		.byte	0x3
 2245 0c80 00000000 		.4byte	.LC0
 2246 0c84 00       		.byte	0
 2247 0c85 00       		.byte	0
 2248 0c86 09       		.uleb128 0x9
 2249 0c87 04       		.byte	0x4
 2250 0c88 8C0C0000 		.4byte	0xc8c
 2251 0c8c 10       		.uleb128 0x10
 2252 0c8d A5070000 		.4byte	0x7a5
 2253 0c91 21       		.uleb128 0x21
 2254 0c92 C8030000 		.4byte	.LASF118
 2255 0c96 01       		.byte	0x1
 2256 0c97 B5       		.byte	0xb5
 2257 0c98 00000000 		.4byte	.LFB122
 2258 0c9c 5A000000 		.4byte	.LFE122-.LFB122
 2259 0ca0 01       		.uleb128 0x1
 2260 0ca1 9C       		.byte	0x9c
 2261 0ca2 370D0000 		.4byte	0xd37
 2262 0ca6 1C       		.uleb128 0x1c
 2263 0ca7 73647000 		.ascii	"sdp\000"
 2264 0cab 01       		.byte	0x1
 2265 0cac B5       		.byte	0xb5
 2266 0cad F60B0000 		.4byte	0xbf6
 2267 0cb1 0E040000 		.4byte	.LLST27
 2268 0cb5 25       		.uleb128 0x25
 2269 0cb6 0E000000 		.4byte	.LVL42
 2270 0cba 700F0000 		.4byte	0xf70
 2271 0cbe 23       		.uleb128 0x23
 2272 0cbf 24000000 		.4byte	.LVL43
 2273 0cc3 770F0000 		.4byte	0xf77
 2274 0cc7 D50C0000 		.4byte	0xcd5
 2275 0ccb 1F       		.uleb128 0x1f
 2276 0ccc 01       		.uleb128 0x1
 2277 0ccd 50       		.byte	0x50
 2278 0cce 05       		.uleb128 0x5
 2279 0ccf 03       		.byte	0x3
 2280 0cd0 28000000 		.4byte	.LC3
 2281 0cd4 00       		.byte	0
 2282 0cd5 23       		.uleb128 0x23
 2283 0cd6 2A000000 		.4byte	.LVL44
 2284 0cda A60F0000 		.4byte	0xfa6
 2285 0cde E90C0000 		.4byte	0xce9
 2286 0ce2 1F       		.uleb128 0x1f
 2287 0ce3 01       		.uleb128 0x1
 2288 0ce4 50       		.byte	0x50
 2289 0ce5 02       		.uleb128 0x2
 2290 0ce6 74       		.byte	0x74
 2291 0ce7 00       		.sleb128 0
 2292 0ce8 00       		.byte	0
 2293 0ce9 23       		.uleb128 0x23
 2294 0cea 36000000 		.4byte	.LVL45
 2295 0cee B80F0000 		.4byte	0xfb8
 2296 0cf2 FD0C0000 		.4byte	0xcfd
 2297 0cf6 1F       		.uleb128 0x1f
 2298 0cf7 01       		.uleb128 0x1
ARM GAS  /tmp/ccoJNTt5.s 			page 42


 2299 0cf8 50       		.byte	0x50
 2300 0cf9 02       		.uleb128 0x2
 2301 0cfa 74       		.byte	0x74
 2302 0cfb 30       		.sleb128 48
 2303 0cfc 00       		.byte	0
 2304 0cfd 23       		.uleb128 0x23
 2305 0cfe 3E000000 		.4byte	.LVL46
 2306 0d02 CA0F0000 		.4byte	0xfca
 2307 0d06 110D0000 		.4byte	0xd11
 2308 0d0a 1F       		.uleb128 0x1f
 2309 0d0b 01       		.uleb128 0x1
 2310 0d0c 50       		.byte	0x50
 2311 0d0d 02       		.uleb128 0x2
 2312 0d0e 74       		.byte	0x74
 2313 0d0f 0C       		.sleb128 12
 2314 0d10 00       		.byte	0
 2315 0d11 25       		.uleb128 0x25
 2316 0d12 42000000 		.4byte	.LVL47
 2317 0d16 DC0F0000 		.4byte	0xfdc
 2318 0d1a 25       		.uleb128 0x25
 2319 0d1b 46000000 		.4byte	.LVL48
 2320 0d1f 9F0F0000 		.4byte	0xf9f
 2321 0d23 24       		.uleb128 0x24
 2322 0d24 58000000 		.4byte	.LVL51
 2323 0d28 770F0000 		.4byte	0xf77
 2324 0d2c 1F       		.uleb128 0x1f
 2325 0d2d 01       		.uleb128 0x1
 2326 0d2e 50       		.byte	0x50
 2327 0d2f 05       		.uleb128 0x5
 2328 0d30 03       		.byte	0x3
 2329 0d31 1C000000 		.4byte	.LC2
 2330 0d35 00       		.byte	0
 2331 0d36 00       		.byte	0
 2332 0d37 21       		.uleb128 0x21
 2333 0d38 39050000 		.4byte	.LASF119
 2334 0d3c 01       		.byte	0x1
 2335 0d3d D5       		.byte	0xd5
 2336 0d3e 00000000 		.4byte	.LFB123
 2337 0d42 50000000 		.4byte	.LFE123-.LFB123
 2338 0d46 01       		.uleb128 0x1
 2339 0d47 9C       		.byte	0x9c
 2340 0d48 EF0D0000 		.4byte	0xdef
 2341 0d4c 1C       		.uleb128 0x1c
 2342 0d4d 73647000 		.ascii	"sdp\000"
 2343 0d51 01       		.byte	0x1
 2344 0d52 D5       		.byte	0xd5
 2345 0d53 F60B0000 		.4byte	0xbf6
 2346 0d57 42040000 		.4byte	.LLST28
 2347 0d5b 1C       		.uleb128 0x1c
 2348 0d5c 6200     		.ascii	"b\000"
 2349 0d5e 01       		.byte	0x1
 2350 0d5f D5       		.byte	0xd5
 2351 0d60 AD000000 		.4byte	0xad
 2352 0d64 86040000 		.4byte	.LLST29
 2353 0d68 25       		.uleb128 0x25
 2354 0d69 0A000000 		.4byte	.LVL53
 2355 0d6d E30F0000 		.4byte	0xfe3
ARM GAS  /tmp/ccoJNTt5.s 			page 43


 2356 0d71 23       		.uleb128 0x23
 2357 0d72 1A000000 		.4byte	.LVL54
 2358 0d76 EA0F0000 		.4byte	0xfea
 2359 0d7a 8B0D0000 		.4byte	0xd8b
 2360 0d7e 1F       		.uleb128 0x1f
 2361 0d7f 01       		.uleb128 0x1
 2362 0d80 51       		.byte	0x51
 2363 0d81 02       		.uleb128 0x2
 2364 0d82 75       		.byte	0x75
 2365 0d83 00       		.sleb128 0
 2366 0d84 1F       		.uleb128 0x1f
 2367 0d85 01       		.uleb128 0x1
 2368 0d86 50       		.byte	0x50
 2369 0d87 02       		.uleb128 0x2
 2370 0d88 74       		.byte	0x74
 2371 0d89 0C       		.sleb128 12
 2372 0d8a 00       		.byte	0
 2373 0d8b 23       		.uleb128 0x23
 2374 0d8c 28000000 		.4byte	.LVL56
 2375 0d90 05100000 		.4byte	0x1005
 2376 0d94 A40D0000 		.4byte	0xda4
 2377 0d98 1F       		.uleb128 0x1f
 2378 0d99 01       		.uleb128 0x1
 2379 0d9a 51       		.byte	0x51
 2380 0d9b 01       		.uleb128 0x1
 2381 0d9c 34       		.byte	0x34
 2382 0d9d 1F       		.uleb128 0x1f
 2383 0d9e 01       		.uleb128 0x1
 2384 0d9f 50       		.byte	0x50
 2385 0da0 02       		.uleb128 0x2
 2386 0da1 74       		.byte	0x74
 2387 0da2 04       		.sleb128 4
 2388 0da3 00       		.byte	0
 2389 0da4 23       		.uleb128 0x23
 2390 0da5 32000000 		.4byte	.LVL57
 2391 0da9 EA0F0000 		.4byte	0xfea
 2392 0dad BE0D0000 		.4byte	0xdbe
 2393 0db1 1F       		.uleb128 0x1f
 2394 0db2 01       		.uleb128 0x1
 2395 0db3 51       		.byte	0x51
 2396 0db4 02       		.uleb128 0x2
 2397 0db5 75       		.byte	0x75
 2398 0db6 00       		.sleb128 0
 2399 0db7 1F       		.uleb128 0x1f
 2400 0db8 01       		.uleb128 0x1
 2401 0db9 50       		.byte	0x50
 2402 0dba 02       		.uleb128 0x2
 2403 0dbb 74       		.byte	0x74
 2404 0dbc 0C       		.sleb128 12
 2405 0dbd 00       		.byte	0
 2406 0dbe 26       		.uleb128 0x26
 2407 0dbf 42000000 		.4byte	.LVL59
 2408 0dc3 05100000 		.4byte	0x1005
 2409 0dc7 DB0D0000 		.4byte	0xddb
 2410 0dcb 1F       		.uleb128 0x1f
 2411 0dcc 01       		.uleb128 0x1
 2412 0dcd 51       		.byte	0x51
ARM GAS  /tmp/ccoJNTt5.s 			page 44


 2413 0dce 02       		.uleb128 0x2
 2414 0dcf 08       		.byte	0x8
 2415 0dd0 80       		.byte	0x80
 2416 0dd1 1F       		.uleb128 0x1f
 2417 0dd2 01       		.uleb128 0x1
 2418 0dd3 50       		.byte	0x50
 2419 0dd4 05       		.uleb128 0x5
 2420 0dd5 F3       		.byte	0xf3
 2421 0dd6 01       		.uleb128 0x1
 2422 0dd7 50       		.byte	0x50
 2423 0dd8 23       		.byte	0x23
 2424 0dd9 04       		.uleb128 0x4
 2425 0dda 00       		.byte	0
 2426 0ddb 24       		.uleb128 0x24
 2427 0ddc 4E000000 		.4byte	.LVL60
 2428 0de0 770F0000 		.4byte	0xf77
 2429 0de4 1F       		.uleb128 0x1f
 2430 0de5 01       		.uleb128 0x1
 2431 0de6 50       		.byte	0x50
 2432 0de7 05       		.uleb128 0x5
 2433 0de8 03       		.byte	0x3
 2434 0de9 38000000 		.4byte	.LC4
 2435 0ded 00       		.byte	0
 2436 0dee 00       		.byte	0
 2437 0def 27       		.uleb128 0x27
 2438 0df0 D6050000 		.4byte	.LASF142
 2439 0df4 01       		.byte	0x1
 2440 0df5 EF       		.byte	0xef
 2441 0df6 17010000 		.4byte	0x117
 2442 0dfa 00000000 		.4byte	.LFB124
 2443 0dfe 34000000 		.4byte	.LFE124-.LFB124
 2444 0e02 01       		.uleb128 0x1
 2445 0e03 9C       		.byte	0x9c
 2446 0e04 6E0E0000 		.4byte	0xe6e
 2447 0e08 1C       		.uleb128 0x1c
 2448 0e09 73647000 		.ascii	"sdp\000"
 2449 0e0d 01       		.byte	0x1
 2450 0e0e EF       		.byte	0xef
 2451 0e0f F60B0000 		.4byte	0xbf6
 2452 0e13 A7040000 		.4byte	.LLST30
 2453 0e17 28       		.uleb128 0x28
 2454 0e18 6200     		.ascii	"b\000"
 2455 0e1a 01       		.byte	0x1
 2456 0e1b F0       		.byte	0xf0
 2457 0e1c 17010000 		.4byte	0x117
 2458 0e20 C5040000 		.4byte	.LLST31
 2459 0e24 25       		.uleb128 0x25
 2460 0e25 08000000 		.4byte	.LVL62
 2461 0e29 E30F0000 		.4byte	0xfe3
 2462 0e2d 23       		.uleb128 0x23
 2463 0e2e 12000000 		.4byte	.LVL63
 2464 0e32 21100000 		.4byte	0x1021
 2465 0e36 410E0000 		.4byte	0xe41
 2466 0e3a 1F       		.uleb128 0x1f
 2467 0e3b 01       		.uleb128 0x1
 2468 0e3c 50       		.byte	0x50
 2469 0e3d 02       		.uleb128 0x2
ARM GAS  /tmp/ccoJNTt5.s 			page 45


 2470 0e3e 74       		.byte	0x74
 2471 0e3f 30       		.sleb128 48
 2472 0e40 00       		.byte	0
 2473 0e41 23       		.uleb128 0x23
 2474 0e42 22000000 		.4byte	.LVL66
 2475 0e46 05100000 		.4byte	0x1005
 2476 0e4a 5A0E0000 		.4byte	0xe5a
 2477 0e4e 1F       		.uleb128 0x1f
 2478 0e4f 01       		.uleb128 0x1
 2479 0e50 51       		.byte	0x51
 2480 0e51 01       		.uleb128 0x1
 2481 0e52 38       		.byte	0x38
 2482 0e53 1F       		.uleb128 0x1f
 2483 0e54 01       		.uleb128 0x1
 2484 0e55 50       		.byte	0x50
 2485 0e56 02       		.uleb128 0x2
 2486 0e57 74       		.byte	0x74
 2487 0e58 04       		.sleb128 4
 2488 0e59 00       		.byte	0
 2489 0e5a 24       		.uleb128 0x24
 2490 0e5b 32000000 		.4byte	.LVL68
 2491 0e5f 770F0000 		.4byte	0xf77
 2492 0e63 1F       		.uleb128 0x1f
 2493 0e64 01       		.uleb128 0x1
 2494 0e65 50       		.byte	0x50
 2495 0e66 05       		.uleb128 0x5
 2496 0e67 03       		.byte	0x3
 2497 0e68 4C000000 		.4byte	.LC5
 2498 0e6c 00       		.byte	0
 2499 0e6d 00       		.byte	0
 2500 0e6e 29       		.uleb128 0x29
 2501 0e6f 766D7400 		.ascii	"vmt\000"
 2502 0e73 01       		.byte	0x1
 2503 0e74 68       		.byte	0x68
 2504 0e75 23080000 		.4byte	0x823
 2505 0e79 05       		.uleb128 0x5
 2506 0e7a 03       		.byte	0x3
 2507 0e7b 00000000 		.4byte	vmt
 2508 0e7f 2A       		.uleb128 0x2a
 2509 0e80 28010000 		.4byte	.LASF143
 2510 0e84 11       		.byte	0x11
 2511 0e85 9806     		.2byte	0x698
 2512 0e87 80050000 		.4byte	0x580
 2513 0e8b 2B       		.uleb128 0x2b
 2514 0e8c 3C000000 		.4byte	.LASF120
 2515 0e90 0B       		.byte	0xb
 2516 0e91 6701     		.2byte	0x167
 2517 0e93 2C000000 		.4byte	0x2c
 2518 0e97 B00E0000 		.4byte	0xeb0
 2519 0e9b 12       		.uleb128 0x12
 2520 0e9c B00E0000 		.4byte	0xeb0
 2521 0ea0 12       		.uleb128 0x12
 2522 0ea1 FC040000 		.4byte	0x4fc
 2523 0ea5 12       		.uleb128 0x12
 2524 0ea6 2C000000 		.4byte	0x2c
 2525 0eaa 12       		.uleb128 0x12
 2526 0eab 38010000 		.4byte	0x138
ARM GAS  /tmp/ccoJNTt5.s 			page 46


 2527 0eaf 00       		.byte	0
 2528 0eb0 09       		.uleb128 0x9
 2529 0eb1 04       		.byte	0x4
 2530 0eb2 02050000 		.4byte	0x502
 2531 0eb6 2B       		.uleb128 0x2b
 2532 0eb7 64030000 		.4byte	.LASF121
 2533 0ebb 0B       		.byte	0xb
 2534 0ebc 6F01     		.2byte	0x16f
 2535 0ebe 2C000000 		.4byte	0x2c
 2536 0ec2 DB0E0000 		.4byte	0xedb
 2537 0ec6 12       		.uleb128 0x12
 2538 0ec7 DB0E0000 		.4byte	0xedb
 2539 0ecb 12       		.uleb128 0x12
 2540 0ecc 31050000 		.4byte	0x531
 2541 0ed0 12       		.uleb128 0x12
 2542 0ed1 2C000000 		.4byte	0x2c
 2543 0ed5 12       		.uleb128 0x12
 2544 0ed6 38010000 		.4byte	0x138
 2545 0eda 00       		.byte	0
 2546 0edb 09       		.uleb128 0x9
 2547 0edc 04       		.byte	0x4
 2548 0edd 0D050000 		.4byte	0x50d
 2549 0ee1 2B       		.uleb128 0x2b
 2550 0ee2 69060000 		.4byte	.LASF122
 2551 0ee6 0B       		.byte	0xb
 2552 0ee7 6601     		.2byte	0x166
 2553 0ee9 17010000 		.4byte	0x117
 2554 0eed FC0E0000 		.4byte	0xefc
 2555 0ef1 12       		.uleb128 0x12
 2556 0ef2 B00E0000 		.4byte	0xeb0
 2557 0ef6 12       		.uleb128 0x12
 2558 0ef7 38010000 		.4byte	0x138
 2559 0efb 00       		.byte	0
 2560 0efc 2B       		.uleb128 0x2b
 2561 0efd 00000000 		.4byte	.LASF123
 2562 0f01 0B       		.byte	0xb
 2563 0f02 6D01     		.2byte	0x16d
 2564 0f04 17010000 		.4byte	0x117
 2565 0f08 1C0F0000 		.4byte	0xf1c
 2566 0f0c 12       		.uleb128 0x12
 2567 0f0d DB0E0000 		.4byte	0xedb
 2568 0f11 12       		.uleb128 0x12
 2569 0f12 AD000000 		.4byte	0xad
 2570 0f16 12       		.uleb128 0x12
 2571 0f17 38010000 		.4byte	0x138
 2572 0f1b 00       		.byte	0
 2573 0f1c 2C       		.uleb128 0x2c
 2574 0f1d 65020000 		.4byte	.LASF126
 2575 0f21 0E       		.byte	0xe
 2576 0f22 2401     		.2byte	0x124
 2577 0f24 2D       		.uleb128 0x2d
 2578 0f25 2B060000 		.4byte	.LASF124
 2579 0f29 0B       		.byte	0xb
 2580 0f2a 6201     		.2byte	0x162
 2581 0f2c 4A0F0000 		.4byte	0xf4a
 2582 0f30 12       		.uleb128 0x12
 2583 0f31 B00E0000 		.4byte	0xeb0
ARM GAS  /tmp/ccoJNTt5.s 			page 47


 2584 0f35 12       		.uleb128 0x12
 2585 0f36 FC040000 		.4byte	0x4fc
 2586 0f3a 12       		.uleb128 0x12
 2587 0f3b 2C000000 		.4byte	0x2c
 2588 0f3f 12       		.uleb128 0x12
 2589 0f40 DA040000 		.4byte	0x4da
 2590 0f44 12       		.uleb128 0x12
 2591 0f45 90020000 		.4byte	0x290
 2592 0f49 00       		.byte	0
 2593 0f4a 2D       		.uleb128 0x2d
 2594 0f4b 0B010000 		.4byte	.LASF125
 2595 0f4f 0B       		.byte	0xb
 2596 0f50 6A01     		.2byte	0x16a
 2597 0f52 700F0000 		.4byte	0xf70
 2598 0f56 12       		.uleb128 0x12
 2599 0f57 DB0E0000 		.4byte	0xedb
 2600 0f5b 12       		.uleb128 0x12
 2601 0f5c FC040000 		.4byte	0x4fc
 2602 0f60 12       		.uleb128 0x12
 2603 0f61 2C000000 		.4byte	0x2c
 2604 0f65 12       		.uleb128 0x12
 2605 0f66 DA040000 		.4byte	0x4da
 2606 0f6a 12       		.uleb128 0x12
 2607 0f6b 90020000 		.4byte	0x290
 2608 0f6f 00       		.byte	0
 2609 0f70 2E       		.uleb128 0x2e
 2610 0f71 D4030000 		.4byte	.LASF127
 2611 0f75 0F       		.byte	0xf
 2612 0f76 E7       		.byte	0xe7
 2613 0f77 2F       		.uleb128 0x2f
 2614 0f78 1D010000 		.4byte	.LASF128
 2615 0f7c 0F       		.byte	0xf
 2616 0f7d F6       		.byte	0xf6
 2617 0f7e 880F0000 		.4byte	0xf88
 2618 0f82 12       		.uleb128 0x12
 2619 0f83 2F040000 		.4byte	0x42f
 2620 0f87 00       		.byte	0
 2621 0f88 2D       		.uleb128 0x2d
 2622 0f89 7B040000 		.4byte	.LASF129
 2623 0f8d 0E       		.byte	0xe
 2624 0f8e 2501     		.2byte	0x125
 2625 0f90 9F0F0000 		.4byte	0xf9f
 2626 0f94 12       		.uleb128 0x12
 2627 0f95 F60B0000 		.4byte	0xbf6
 2628 0f99 12       		.uleb128 0x12
 2629 0f9a 860C0000 		.4byte	0xc86
 2630 0f9e 00       		.byte	0
 2631 0f9f 2E       		.uleb128 0x2e
 2632 0fa0 E3030000 		.4byte	.LASF130
 2633 0fa4 0F       		.byte	0xf
 2634 0fa5 E8       		.byte	0xe8
 2635 0fa6 2D       		.uleb128 0x2d
 2636 0fa7 10060000 		.4byte	.LASF131
 2637 0fab 0E       		.byte	0xe
 2638 0fac 2601     		.2byte	0x126
 2639 0fae B80F0000 		.4byte	0xfb8
 2640 0fb2 12       		.uleb128 0x12
ARM GAS  /tmp/ccoJNTt5.s 			page 48


 2641 0fb3 F60B0000 		.4byte	0xbf6
 2642 0fb7 00       		.byte	0
 2643 0fb8 2D       		.uleb128 0x2d
 2644 0fb9 89050000 		.4byte	.LASF132
 2645 0fbd 0B       		.byte	0xb
 2646 0fbe 6C01     		.2byte	0x16c
 2647 0fc0 CA0F0000 		.4byte	0xfca
 2648 0fc4 12       		.uleb128 0x12
 2649 0fc5 DB0E0000 		.4byte	0xedb
 2650 0fc9 00       		.byte	0
 2651 0fca 2D       		.uleb128 0x2d
 2652 0fcb 00010000 		.4byte	.LASF133
 2653 0fcf 0B       		.byte	0xb
 2654 0fd0 6401     		.2byte	0x164
 2655 0fd2 DC0F0000 		.4byte	0xfdc
 2656 0fd6 12       		.uleb128 0x12
 2657 0fd7 B00E0000 		.4byte	0xeb0
 2658 0fdb 00       		.byte	0
 2659 0fdc 2E       		.uleb128 0x2e
 2660 0fdd DE010000 		.4byte	.LASF134
 2661 0fe1 10       		.byte	0x10
 2662 0fe2 9C       		.byte	0x9c
 2663 0fe3 2E       		.uleb128 0x2e
 2664 0fe4 EB020000 		.4byte	.LASF135
 2665 0fe8 0F       		.byte	0xf
 2666 0fe9 ED       		.byte	0xed
 2667 0fea 2B       		.uleb128 0x2b
 2668 0feb 03020000 		.4byte	.LASF136
 2669 0fef 0B       		.byte	0xb
 2670 0ff0 6501     		.2byte	0x165
 2671 0ff2 17010000 		.4byte	0x117
 2672 0ff6 05100000 		.4byte	0x1005
 2673 0ffa 12       		.uleb128 0x12
 2674 0ffb B00E0000 		.4byte	0xeb0
 2675 0fff 12       		.uleb128 0x12
 2676 1000 AD000000 		.4byte	0xad
 2677 1004 00       		.byte	0
 2678 1005 2F       		.uleb128 0x2f
 2679 1006 C1010000 		.4byte	.LASF137
 2680 100a 0A       		.byte	0xa
 2681 100b BA       		.byte	0xba
 2682 100c 1B100000 		.4byte	0x101b
 2683 1010 12       		.uleb128 0x12
 2684 1011 1B100000 		.4byte	0x101b
 2685 1015 12       		.uleb128 0x12
 2686 1016 2D010000 		.4byte	0x12d
 2687 101a 00       		.byte	0
 2688 101b 09       		.uleb128 0x9
 2689 101c 04       		.byte	0x4
 2690 101d EF030000 		.4byte	0x3ef
 2691 1021 30       		.uleb128 0x30
 2692 1022 A0010000 		.4byte	.LASF138
 2693 1026 0B       		.byte	0xb
 2694 1027 6E01     		.2byte	0x16e
 2695 1029 17010000 		.4byte	0x117
 2696 102d 12       		.uleb128 0x12
 2697 102e DB0E0000 		.4byte	0xedb
ARM GAS  /tmp/ccoJNTt5.s 			page 49


 2698 1032 00       		.byte	0
 2699 1033 00       		.byte	0
 2700              		.section	.debug_abbrev,"",%progbits
 2701              	.Ldebug_abbrev0:
 2702 0000 01       		.uleb128 0x1
 2703 0001 11       		.uleb128 0x11
 2704 0002 01       		.byte	0x1
 2705 0003 25       		.uleb128 0x25
 2706 0004 0E       		.uleb128 0xe
 2707 0005 13       		.uleb128 0x13
 2708 0006 0B       		.uleb128 0xb
 2709 0007 03       		.uleb128 0x3
 2710 0008 0E       		.uleb128 0xe
 2711 0009 1B       		.uleb128 0x1b
 2712 000a 0E       		.uleb128 0xe
 2713 000b 55       		.uleb128 0x55
 2714 000c 17       		.uleb128 0x17
 2715 000d 11       		.uleb128 0x11
 2716 000e 01       		.uleb128 0x1
 2717 000f 10       		.uleb128 0x10
 2718 0010 17       		.uleb128 0x17
 2719 0011 00       		.byte	0
 2720 0012 00       		.byte	0
 2721 0013 02       		.uleb128 0x2
 2722 0014 24       		.uleb128 0x24
 2723 0015 00       		.byte	0
 2724 0016 0B       		.uleb128 0xb
 2725 0017 0B       		.uleb128 0xb
 2726 0018 3E       		.uleb128 0x3e
 2727 0019 0B       		.uleb128 0xb
 2728 001a 03       		.uleb128 0x3
 2729 001b 08       		.uleb128 0x8
 2730 001c 00       		.byte	0
 2731 001d 00       		.byte	0
 2732 001e 03       		.uleb128 0x3
 2733 001f 16       		.uleb128 0x16
 2734 0020 00       		.byte	0
 2735 0021 03       		.uleb128 0x3
 2736 0022 0E       		.uleb128 0xe
 2737 0023 3A       		.uleb128 0x3a
 2738 0024 0B       		.uleb128 0xb
 2739 0025 3B       		.uleb128 0x3b
 2740 0026 0B       		.uleb128 0xb
 2741 0027 49       		.uleb128 0x49
 2742 0028 13       		.uleb128 0x13
 2743 0029 00       		.byte	0
 2744 002a 00       		.byte	0
 2745 002b 04       		.uleb128 0x4
 2746 002c 24       		.uleb128 0x24
 2747 002d 00       		.byte	0
 2748 002e 0B       		.uleb128 0xb
 2749 002f 0B       		.uleb128 0xb
 2750 0030 3E       		.uleb128 0x3e
 2751 0031 0B       		.uleb128 0xb
 2752 0032 03       		.uleb128 0x3
 2753 0033 0E       		.uleb128 0xe
 2754 0034 00       		.byte	0
ARM GAS  /tmp/ccoJNTt5.s 			page 50


 2755 0035 00       		.byte	0
 2756 0036 05       		.uleb128 0x5
 2757 0037 13       		.uleb128 0x13
 2758 0038 01       		.byte	0x1
 2759 0039 03       		.uleb128 0x3
 2760 003a 0E       		.uleb128 0xe
 2761 003b 0B       		.uleb128 0xb
 2762 003c 0B       		.uleb128 0xb
 2763 003d 3A       		.uleb128 0x3a
 2764 003e 0B       		.uleb128 0xb
 2765 003f 3B       		.uleb128 0x3b
 2766 0040 0B       		.uleb128 0xb
 2767 0041 01       		.uleb128 0x1
 2768 0042 13       		.uleb128 0x13
 2769 0043 00       		.byte	0
 2770 0044 00       		.byte	0
 2771 0045 06       		.uleb128 0x6
 2772 0046 0D       		.uleb128 0xd
 2773 0047 00       		.byte	0
 2774 0048 03       		.uleb128 0x3
 2775 0049 0E       		.uleb128 0xe
 2776 004a 3A       		.uleb128 0x3a
 2777 004b 0B       		.uleb128 0xb
 2778 004c 3B       		.uleb128 0x3b
 2779 004d 0B       		.uleb128 0xb
 2780 004e 49       		.uleb128 0x49
 2781 004f 13       		.uleb128 0x13
 2782 0050 38       		.uleb128 0x38
 2783 0051 0B       		.uleb128 0xb
 2784 0052 00       		.byte	0
 2785 0053 00       		.byte	0
 2786 0054 07       		.uleb128 0x7
 2787 0055 0D       		.uleb128 0xd
 2788 0056 00       		.byte	0
 2789 0057 03       		.uleb128 0x3
 2790 0058 08       		.uleb128 0x8
 2791 0059 3A       		.uleb128 0x3a
 2792 005a 0B       		.uleb128 0xb
 2793 005b 3B       		.uleb128 0x3b
 2794 005c 0B       		.uleb128 0xb
 2795 005d 49       		.uleb128 0x49
 2796 005e 13       		.uleb128 0x13
 2797 005f 38       		.uleb128 0x38
 2798 0060 0B       		.uleb128 0xb
 2799 0061 00       		.byte	0
 2800 0062 00       		.byte	0
 2801 0063 08       		.uleb128 0x8
 2802 0064 13       		.uleb128 0x13
 2803 0065 01       		.byte	0x1
 2804 0066 0B       		.uleb128 0xb
 2805 0067 0B       		.uleb128 0xb
 2806 0068 3A       		.uleb128 0x3a
 2807 0069 0B       		.uleb128 0xb
 2808 006a 3B       		.uleb128 0x3b
 2809 006b 0B       		.uleb128 0xb
 2810 006c 01       		.uleb128 0x1
 2811 006d 13       		.uleb128 0x13
ARM GAS  /tmp/ccoJNTt5.s 			page 51


 2812 006e 00       		.byte	0
 2813 006f 00       		.byte	0
 2814 0070 09       		.uleb128 0x9
 2815 0071 0F       		.uleb128 0xf
 2816 0072 00       		.byte	0
 2817 0073 0B       		.uleb128 0xb
 2818 0074 0B       		.uleb128 0xb
 2819 0075 49       		.uleb128 0x49
 2820 0076 13       		.uleb128 0x13
 2821 0077 00       		.byte	0
 2822 0078 00       		.byte	0
 2823 0079 0A       		.uleb128 0xa
 2824 007a 0F       		.uleb128 0xf
 2825 007b 00       		.byte	0
 2826 007c 0B       		.uleb128 0xb
 2827 007d 0B       		.uleb128 0xb
 2828 007e 00       		.byte	0
 2829 007f 00       		.byte	0
 2830 0080 0B       		.uleb128 0xb
 2831 0081 13       		.uleb128 0x13
 2832 0082 01       		.byte	0x1
 2833 0083 03       		.uleb128 0x3
 2834 0084 0E       		.uleb128 0xe
 2835 0085 0B       		.uleb128 0xb
 2836 0086 0B       		.uleb128 0xb
 2837 0087 3A       		.uleb128 0x3a
 2838 0088 0B       		.uleb128 0xb
 2839 0089 3B       		.uleb128 0x3b
 2840 008a 05       		.uleb128 0x5
 2841 008b 01       		.uleb128 0x1
 2842 008c 13       		.uleb128 0x13
 2843 008d 00       		.byte	0
 2844 008e 00       		.byte	0
 2845 008f 0C       		.uleb128 0xc
 2846 0090 0D       		.uleb128 0xd
 2847 0091 00       		.byte	0
 2848 0092 03       		.uleb128 0x3
 2849 0093 08       		.uleb128 0x8
 2850 0094 3A       		.uleb128 0x3a
 2851 0095 0B       		.uleb128 0xb
 2852 0096 3B       		.uleb128 0x3b
 2853 0097 05       		.uleb128 0x5
 2854 0098 49       		.uleb128 0x49
 2855 0099 13       		.uleb128 0x13
 2856 009a 38       		.uleb128 0x38
 2857 009b 0B       		.uleb128 0xb
 2858 009c 00       		.byte	0
 2859 009d 00       		.byte	0
 2860 009e 0D       		.uleb128 0xd
 2861 009f 35       		.uleb128 0x35
 2862 00a0 00       		.byte	0
 2863 00a1 49       		.uleb128 0x49
 2864 00a2 13       		.uleb128 0x13
 2865 00a3 00       		.byte	0
 2866 00a4 00       		.byte	0
 2867 00a5 0E       		.uleb128 0xe
 2868 00a6 17       		.uleb128 0x17
ARM GAS  /tmp/ccoJNTt5.s 			page 52


 2869 00a7 01       		.byte	0x1
 2870 00a8 0B       		.uleb128 0xb
 2871 00a9 0B       		.uleb128 0xb
 2872 00aa 3A       		.uleb128 0x3a
 2873 00ab 0B       		.uleb128 0xb
 2874 00ac 3B       		.uleb128 0x3b
 2875 00ad 0B       		.uleb128 0xb
 2876 00ae 01       		.uleb128 0x1
 2877 00af 13       		.uleb128 0x13
 2878 00b0 00       		.byte	0
 2879 00b1 00       		.byte	0
 2880 00b2 0F       		.uleb128 0xf
 2881 00b3 0D       		.uleb128 0xd
 2882 00b4 00       		.byte	0
 2883 00b5 03       		.uleb128 0x3
 2884 00b6 0E       		.uleb128 0xe
 2885 00b7 3A       		.uleb128 0x3a
 2886 00b8 0B       		.uleb128 0xb
 2887 00b9 3B       		.uleb128 0x3b
 2888 00ba 0B       		.uleb128 0xb
 2889 00bb 49       		.uleb128 0x49
 2890 00bc 13       		.uleb128 0x13
 2891 00bd 00       		.byte	0
 2892 00be 00       		.byte	0
 2893 00bf 10       		.uleb128 0x10
 2894 00c0 26       		.uleb128 0x26
 2895 00c1 00       		.byte	0
 2896 00c2 49       		.uleb128 0x49
 2897 00c3 13       		.uleb128 0x13
 2898 00c4 00       		.byte	0
 2899 00c5 00       		.byte	0
 2900 00c6 11       		.uleb128 0x11
 2901 00c7 15       		.uleb128 0x15
 2902 00c8 01       		.byte	0x1
 2903 00c9 27       		.uleb128 0x27
 2904 00ca 19       		.uleb128 0x19
 2905 00cb 49       		.uleb128 0x49
 2906 00cc 13       		.uleb128 0x13
 2907 00cd 01       		.uleb128 0x1
 2908 00ce 13       		.uleb128 0x13
 2909 00cf 00       		.byte	0
 2910 00d0 00       		.byte	0
 2911 00d1 12       		.uleb128 0x12
 2912 00d2 05       		.uleb128 0x5
 2913 00d3 00       		.byte	0
 2914 00d4 49       		.uleb128 0x49
 2915 00d5 13       		.uleb128 0x13
 2916 00d6 00       		.byte	0
 2917 00d7 00       		.byte	0
 2918 00d8 13       		.uleb128 0x13
 2919 00d9 15       		.uleb128 0x15
 2920 00da 01       		.byte	0x1
 2921 00db 27       		.uleb128 0x27
 2922 00dc 19       		.uleb128 0x19
 2923 00dd 01       		.uleb128 0x1
 2924 00de 13       		.uleb128 0x13
 2925 00df 00       		.byte	0
ARM GAS  /tmp/ccoJNTt5.s 			page 53


 2926 00e0 00       		.byte	0
 2927 00e1 14       		.uleb128 0x14
 2928 00e2 13       		.uleb128 0x13
 2929 00e3 01       		.byte	0x1
 2930 00e4 0B       		.uleb128 0xb
 2931 00e5 0B       		.uleb128 0xb
 2932 00e6 3A       		.uleb128 0x3a
 2933 00e7 0B       		.uleb128 0xb
 2934 00e8 3B       		.uleb128 0x3b
 2935 00e9 05       		.uleb128 0x5
 2936 00ea 01       		.uleb128 0x1
 2937 00eb 13       		.uleb128 0x13
 2938 00ec 00       		.byte	0
 2939 00ed 00       		.byte	0
 2940 00ee 15       		.uleb128 0x15
 2941 00ef 0D       		.uleb128 0xd
 2942 00f0 00       		.byte	0
 2943 00f1 03       		.uleb128 0x3
 2944 00f2 0E       		.uleb128 0xe
 2945 00f3 3A       		.uleb128 0x3a
 2946 00f4 0B       		.uleb128 0xb
 2947 00f5 3B       		.uleb128 0x3b
 2948 00f6 05       		.uleb128 0x5
 2949 00f7 49       		.uleb128 0x49
 2950 00f8 13       		.uleb128 0x13
 2951 00f9 38       		.uleb128 0x38
 2952 00fa 0B       		.uleb128 0xb
 2953 00fb 00       		.byte	0
 2954 00fc 00       		.byte	0
 2955 00fd 16       		.uleb128 0x16
 2956 00fe 16       		.uleb128 0x16
 2957 00ff 00       		.byte	0
 2958 0100 03       		.uleb128 0x3
 2959 0101 0E       		.uleb128 0xe
 2960 0102 3A       		.uleb128 0x3a
 2961 0103 0B       		.uleb128 0xb
 2962 0104 3B       		.uleb128 0x3b
 2963 0105 05       		.uleb128 0x5
 2964 0106 49       		.uleb128 0x49
 2965 0107 13       		.uleb128 0x13
 2966 0108 00       		.byte	0
 2967 0109 00       		.byte	0
 2968 010a 17       		.uleb128 0x17
 2969 010b 04       		.uleb128 0x4
 2970 010c 01       		.byte	0x1
 2971 010d 0B       		.uleb128 0xb
 2972 010e 0B       		.uleb128 0xb
 2973 010f 3A       		.uleb128 0x3a
 2974 0110 0B       		.uleb128 0xb
 2975 0111 3B       		.uleb128 0x3b
 2976 0112 0B       		.uleb128 0xb
 2977 0113 01       		.uleb128 0x1
 2978 0114 13       		.uleb128 0x13
 2979 0115 00       		.byte	0
 2980 0116 00       		.byte	0
 2981 0117 18       		.uleb128 0x18
 2982 0118 28       		.uleb128 0x28
ARM GAS  /tmp/ccoJNTt5.s 			page 54


 2983 0119 00       		.byte	0
 2984 011a 03       		.uleb128 0x3
 2985 011b 0E       		.uleb128 0xe
 2986 011c 1C       		.uleb128 0x1c
 2987 011d 0D       		.uleb128 0xd
 2988 011e 00       		.byte	0
 2989 011f 00       		.byte	0
 2990 0120 19       		.uleb128 0x19
 2991 0121 01       		.uleb128 0x1
 2992 0122 01       		.byte	0x1
 2993 0123 49       		.uleb128 0x49
 2994 0124 13       		.uleb128 0x13
 2995 0125 01       		.uleb128 0x1
 2996 0126 13       		.uleb128 0x13
 2997 0127 00       		.byte	0
 2998 0128 00       		.byte	0
 2999 0129 1A       		.uleb128 0x1a
 3000 012a 21       		.uleb128 0x21
 3001 012b 00       		.byte	0
 3002 012c 49       		.uleb128 0x49
 3003 012d 13       		.uleb128 0x13
 3004 012e 2F       		.uleb128 0x2f
 3005 012f 0B       		.uleb128 0xb
 3006 0130 00       		.byte	0
 3007 0131 00       		.byte	0
 3008 0132 1B       		.uleb128 0x1b
 3009 0133 2E       		.uleb128 0x2e
 3010 0134 01       		.byte	0x1
 3011 0135 03       		.uleb128 0x3
 3012 0136 0E       		.uleb128 0xe
 3013 0137 3A       		.uleb128 0x3a
 3014 0138 0B       		.uleb128 0xb
 3015 0139 3B       		.uleb128 0x3b
 3016 013a 0B       		.uleb128 0xb
 3017 013b 27       		.uleb128 0x27
 3018 013c 19       		.uleb128 0x19
 3019 013d 49       		.uleb128 0x49
 3020 013e 13       		.uleb128 0x13
 3021 013f 11       		.uleb128 0x11
 3022 0140 01       		.uleb128 0x1
 3023 0141 12       		.uleb128 0x12
 3024 0142 06       		.uleb128 0x6
 3025 0143 40       		.uleb128 0x40
 3026 0144 18       		.uleb128 0x18
 3027 0145 9742     		.uleb128 0x2117
 3028 0147 19       		.uleb128 0x19
 3029 0148 01       		.uleb128 0x1
 3030 0149 13       		.uleb128 0x13
 3031 014a 00       		.byte	0
 3032 014b 00       		.byte	0
 3033 014c 1C       		.uleb128 0x1c
 3034 014d 05       		.uleb128 0x5
 3035 014e 00       		.byte	0
 3036 014f 03       		.uleb128 0x3
 3037 0150 08       		.uleb128 0x8
 3038 0151 3A       		.uleb128 0x3a
 3039 0152 0B       		.uleb128 0xb
ARM GAS  /tmp/ccoJNTt5.s 			page 55


 3040 0153 3B       		.uleb128 0x3b
 3041 0154 0B       		.uleb128 0xb
 3042 0155 49       		.uleb128 0x49
 3043 0156 13       		.uleb128 0x13
 3044 0157 02       		.uleb128 0x2
 3045 0158 17       		.uleb128 0x17
 3046 0159 00       		.byte	0
 3047 015a 00       		.byte	0
 3048 015b 1D       		.uleb128 0x1d
 3049 015c 05       		.uleb128 0x5
 3050 015d 00       		.byte	0
 3051 015e 03       		.uleb128 0x3
 3052 015f 0E       		.uleb128 0xe
 3053 0160 3A       		.uleb128 0x3a
 3054 0161 0B       		.uleb128 0xb
 3055 0162 3B       		.uleb128 0x3b
 3056 0163 0B       		.uleb128 0xb
 3057 0164 49       		.uleb128 0x49
 3058 0165 13       		.uleb128 0x13
 3059 0166 02       		.uleb128 0x2
 3060 0167 17       		.uleb128 0x17
 3061 0168 00       		.byte	0
 3062 0169 00       		.byte	0
 3063 016a 1E       		.uleb128 0x1e
 3064 016b 898201   		.uleb128 0x4109
 3065 016e 01       		.byte	0x1
 3066 016f 11       		.uleb128 0x11
 3067 0170 01       		.uleb128 0x1
 3068 0171 9542     		.uleb128 0x2115
 3069 0173 19       		.uleb128 0x19
 3070 0174 31       		.uleb128 0x31
 3071 0175 13       		.uleb128 0x13
 3072 0176 00       		.byte	0
 3073 0177 00       		.byte	0
 3074 0178 1F       		.uleb128 0x1f
 3075 0179 8A8201   		.uleb128 0x410a
 3076 017c 00       		.byte	0
 3077 017d 02       		.uleb128 0x2
 3078 017e 18       		.uleb128 0x18
 3079 017f 9142     		.uleb128 0x2111
 3080 0181 18       		.uleb128 0x18
 3081 0182 00       		.byte	0
 3082 0183 00       		.byte	0
 3083 0184 20       		.uleb128 0x20
 3084 0185 2E       		.uleb128 0x2e
 3085 0186 01       		.byte	0x1
 3086 0187 03       		.uleb128 0x3
 3087 0188 08       		.uleb128 0x8
 3088 0189 3A       		.uleb128 0x3a
 3089 018a 0B       		.uleb128 0xb
 3090 018b 3B       		.uleb128 0x3b
 3091 018c 0B       		.uleb128 0xb
 3092 018d 27       		.uleb128 0x27
 3093 018e 19       		.uleb128 0x19
 3094 018f 49       		.uleb128 0x49
 3095 0190 13       		.uleb128 0x13
 3096 0191 11       		.uleb128 0x11
ARM GAS  /tmp/ccoJNTt5.s 			page 56


 3097 0192 01       		.uleb128 0x1
 3098 0193 12       		.uleb128 0x12
 3099 0194 06       		.uleb128 0x6
 3100 0195 40       		.uleb128 0x40
 3101 0196 18       		.uleb128 0x18
 3102 0197 9742     		.uleb128 0x2117
 3103 0199 19       		.uleb128 0x19
 3104 019a 01       		.uleb128 0x1
 3105 019b 13       		.uleb128 0x13
 3106 019c 00       		.byte	0
 3107 019d 00       		.byte	0
 3108 019e 21       		.uleb128 0x21
 3109 019f 2E       		.uleb128 0x2e
 3110 01a0 01       		.byte	0x1
 3111 01a1 3F       		.uleb128 0x3f
 3112 01a2 19       		.uleb128 0x19
 3113 01a3 03       		.uleb128 0x3
 3114 01a4 0E       		.uleb128 0xe
 3115 01a5 3A       		.uleb128 0x3a
 3116 01a6 0B       		.uleb128 0xb
 3117 01a7 3B       		.uleb128 0x3b
 3118 01a8 0B       		.uleb128 0xb
 3119 01a9 27       		.uleb128 0x27
 3120 01aa 19       		.uleb128 0x19
 3121 01ab 11       		.uleb128 0x11
 3122 01ac 01       		.uleb128 0x1
 3123 01ad 12       		.uleb128 0x12
 3124 01ae 06       		.uleb128 0x6
 3125 01af 40       		.uleb128 0x40
 3126 01b0 18       		.uleb128 0x18
 3127 01b1 9742     		.uleb128 0x2117
 3128 01b3 19       		.uleb128 0x19
 3129 01b4 01       		.uleb128 0x1
 3130 01b5 13       		.uleb128 0x13
 3131 01b6 00       		.byte	0
 3132 01b7 00       		.byte	0
 3133 01b8 22       		.uleb128 0x22
 3134 01b9 898201   		.uleb128 0x4109
 3135 01bc 00       		.byte	0
 3136 01bd 11       		.uleb128 0x11
 3137 01be 01       		.uleb128 0x1
 3138 01bf 9542     		.uleb128 0x2115
 3139 01c1 19       		.uleb128 0x19
 3140 01c2 31       		.uleb128 0x31
 3141 01c3 13       		.uleb128 0x13
 3142 01c4 00       		.byte	0
 3143 01c5 00       		.byte	0
 3144 01c6 23       		.uleb128 0x23
 3145 01c7 898201   		.uleb128 0x4109
 3146 01ca 01       		.byte	0x1
 3147 01cb 11       		.uleb128 0x11
 3148 01cc 01       		.uleb128 0x1
 3149 01cd 31       		.uleb128 0x31
 3150 01ce 13       		.uleb128 0x13
 3151 01cf 01       		.uleb128 0x1
 3152 01d0 13       		.uleb128 0x13
 3153 01d1 00       		.byte	0
ARM GAS  /tmp/ccoJNTt5.s 			page 57


 3154 01d2 00       		.byte	0
 3155 01d3 24       		.uleb128 0x24
 3156 01d4 898201   		.uleb128 0x4109
 3157 01d7 01       		.byte	0x1
 3158 01d8 11       		.uleb128 0x11
 3159 01d9 01       		.uleb128 0x1
 3160 01da 31       		.uleb128 0x31
 3161 01db 13       		.uleb128 0x13
 3162 01dc 00       		.byte	0
 3163 01dd 00       		.byte	0
 3164 01de 25       		.uleb128 0x25
 3165 01df 898201   		.uleb128 0x4109
 3166 01e2 00       		.byte	0
 3167 01e3 11       		.uleb128 0x11
 3168 01e4 01       		.uleb128 0x1
 3169 01e5 31       		.uleb128 0x31
 3170 01e6 13       		.uleb128 0x13
 3171 01e7 00       		.byte	0
 3172 01e8 00       		.byte	0
 3173 01e9 26       		.uleb128 0x26
 3174 01ea 898201   		.uleb128 0x4109
 3175 01ed 01       		.byte	0x1
 3176 01ee 11       		.uleb128 0x11
 3177 01ef 01       		.uleb128 0x1
 3178 01f0 9542     		.uleb128 0x2115
 3179 01f2 19       		.uleb128 0x19
 3180 01f3 31       		.uleb128 0x31
 3181 01f4 13       		.uleb128 0x13
 3182 01f5 01       		.uleb128 0x1
 3183 01f6 13       		.uleb128 0x13
 3184 01f7 00       		.byte	0
 3185 01f8 00       		.byte	0
 3186 01f9 27       		.uleb128 0x27
 3187 01fa 2E       		.uleb128 0x2e
 3188 01fb 01       		.byte	0x1
 3189 01fc 3F       		.uleb128 0x3f
 3190 01fd 19       		.uleb128 0x19
 3191 01fe 03       		.uleb128 0x3
 3192 01ff 0E       		.uleb128 0xe
 3193 0200 3A       		.uleb128 0x3a
 3194 0201 0B       		.uleb128 0xb
 3195 0202 3B       		.uleb128 0x3b
 3196 0203 0B       		.uleb128 0xb
 3197 0204 27       		.uleb128 0x27
 3198 0205 19       		.uleb128 0x19
 3199 0206 49       		.uleb128 0x49
 3200 0207 13       		.uleb128 0x13
 3201 0208 11       		.uleb128 0x11
 3202 0209 01       		.uleb128 0x1
 3203 020a 12       		.uleb128 0x12
 3204 020b 06       		.uleb128 0x6
 3205 020c 40       		.uleb128 0x40
 3206 020d 18       		.uleb128 0x18
 3207 020e 9742     		.uleb128 0x2117
 3208 0210 19       		.uleb128 0x19
 3209 0211 01       		.uleb128 0x1
 3210 0212 13       		.uleb128 0x13
ARM GAS  /tmp/ccoJNTt5.s 			page 58


 3211 0213 00       		.byte	0
 3212 0214 00       		.byte	0
 3213 0215 28       		.uleb128 0x28
 3214 0216 34       		.uleb128 0x34
 3215 0217 00       		.byte	0
 3216 0218 03       		.uleb128 0x3
 3217 0219 08       		.uleb128 0x8
 3218 021a 3A       		.uleb128 0x3a
 3219 021b 0B       		.uleb128 0xb
 3220 021c 3B       		.uleb128 0x3b
 3221 021d 0B       		.uleb128 0xb
 3222 021e 49       		.uleb128 0x49
 3223 021f 13       		.uleb128 0x13
 3224 0220 02       		.uleb128 0x2
 3225 0221 17       		.uleb128 0x17
 3226 0222 00       		.byte	0
 3227 0223 00       		.byte	0
 3228 0224 29       		.uleb128 0x29
 3229 0225 34       		.uleb128 0x34
 3230 0226 00       		.byte	0
 3231 0227 03       		.uleb128 0x3
 3232 0228 08       		.uleb128 0x8
 3233 0229 3A       		.uleb128 0x3a
 3234 022a 0B       		.uleb128 0xb
 3235 022b 3B       		.uleb128 0x3b
 3236 022c 0B       		.uleb128 0xb
 3237 022d 49       		.uleb128 0x49
 3238 022e 13       		.uleb128 0x13
 3239 022f 02       		.uleb128 0x2
 3240 0230 18       		.uleb128 0x18
 3241 0231 00       		.byte	0
 3242 0232 00       		.byte	0
 3243 0233 2A       		.uleb128 0x2a
 3244 0234 34       		.uleb128 0x34
 3245 0235 00       		.byte	0
 3246 0236 03       		.uleb128 0x3
 3247 0237 0E       		.uleb128 0xe
 3248 0238 3A       		.uleb128 0x3a
 3249 0239 0B       		.uleb128 0xb
 3250 023a 3B       		.uleb128 0x3b
 3251 023b 05       		.uleb128 0x5
 3252 023c 49       		.uleb128 0x49
 3253 023d 13       		.uleb128 0x13
 3254 023e 3F       		.uleb128 0x3f
 3255 023f 19       		.uleb128 0x19
 3256 0240 3C       		.uleb128 0x3c
 3257 0241 19       		.uleb128 0x19
 3258 0242 00       		.byte	0
 3259 0243 00       		.byte	0
 3260 0244 2B       		.uleb128 0x2b
 3261 0245 2E       		.uleb128 0x2e
 3262 0246 01       		.byte	0x1
 3263 0247 3F       		.uleb128 0x3f
 3264 0248 19       		.uleb128 0x19
 3265 0249 03       		.uleb128 0x3
 3266 024a 0E       		.uleb128 0xe
 3267 024b 3A       		.uleb128 0x3a
ARM GAS  /tmp/ccoJNTt5.s 			page 59


 3268 024c 0B       		.uleb128 0xb
 3269 024d 3B       		.uleb128 0x3b
 3270 024e 05       		.uleb128 0x5
 3271 024f 27       		.uleb128 0x27
 3272 0250 19       		.uleb128 0x19
 3273 0251 49       		.uleb128 0x49
 3274 0252 13       		.uleb128 0x13
 3275 0253 3C       		.uleb128 0x3c
 3276 0254 19       		.uleb128 0x19
 3277 0255 01       		.uleb128 0x1
 3278 0256 13       		.uleb128 0x13
 3279 0257 00       		.byte	0
 3280 0258 00       		.byte	0
 3281 0259 2C       		.uleb128 0x2c
 3282 025a 2E       		.uleb128 0x2e
 3283 025b 00       		.byte	0
 3284 025c 3F       		.uleb128 0x3f
 3285 025d 19       		.uleb128 0x19
 3286 025e 03       		.uleb128 0x3
 3287 025f 0E       		.uleb128 0xe
 3288 0260 3A       		.uleb128 0x3a
 3289 0261 0B       		.uleb128 0xb
 3290 0262 3B       		.uleb128 0x3b
 3291 0263 05       		.uleb128 0x5
 3292 0264 27       		.uleb128 0x27
 3293 0265 19       		.uleb128 0x19
 3294 0266 3C       		.uleb128 0x3c
 3295 0267 19       		.uleb128 0x19
 3296 0268 00       		.byte	0
 3297 0269 00       		.byte	0
 3298 026a 2D       		.uleb128 0x2d
 3299 026b 2E       		.uleb128 0x2e
 3300 026c 01       		.byte	0x1
 3301 026d 3F       		.uleb128 0x3f
 3302 026e 19       		.uleb128 0x19
 3303 026f 03       		.uleb128 0x3
 3304 0270 0E       		.uleb128 0xe
 3305 0271 3A       		.uleb128 0x3a
 3306 0272 0B       		.uleb128 0xb
 3307 0273 3B       		.uleb128 0x3b
 3308 0274 05       		.uleb128 0x5
 3309 0275 27       		.uleb128 0x27
 3310 0276 19       		.uleb128 0x19
 3311 0277 3C       		.uleb128 0x3c
 3312 0278 19       		.uleb128 0x19
 3313 0279 01       		.uleb128 0x1
 3314 027a 13       		.uleb128 0x13
 3315 027b 00       		.byte	0
 3316 027c 00       		.byte	0
 3317 027d 2E       		.uleb128 0x2e
 3318 027e 2E       		.uleb128 0x2e
 3319 027f 00       		.byte	0
 3320 0280 3F       		.uleb128 0x3f
 3321 0281 19       		.uleb128 0x19
 3322 0282 03       		.uleb128 0x3
 3323 0283 0E       		.uleb128 0xe
 3324 0284 3A       		.uleb128 0x3a
ARM GAS  /tmp/ccoJNTt5.s 			page 60


 3325 0285 0B       		.uleb128 0xb
 3326 0286 3B       		.uleb128 0x3b
 3327 0287 0B       		.uleb128 0xb
 3328 0288 27       		.uleb128 0x27
 3329 0289 19       		.uleb128 0x19
 3330 028a 3C       		.uleb128 0x3c
 3331 028b 19       		.uleb128 0x19
 3332 028c 00       		.byte	0
 3333 028d 00       		.byte	0
 3334 028e 2F       		.uleb128 0x2f
 3335 028f 2E       		.uleb128 0x2e
 3336 0290 01       		.byte	0x1
 3337 0291 3F       		.uleb128 0x3f
 3338 0292 19       		.uleb128 0x19
 3339 0293 03       		.uleb128 0x3
 3340 0294 0E       		.uleb128 0xe
 3341 0295 3A       		.uleb128 0x3a
 3342 0296 0B       		.uleb128 0xb
 3343 0297 3B       		.uleb128 0x3b
 3344 0298 0B       		.uleb128 0xb
 3345 0299 27       		.uleb128 0x27
 3346 029a 19       		.uleb128 0x19
 3347 029b 3C       		.uleb128 0x3c
 3348 029c 19       		.uleb128 0x19
 3349 029d 01       		.uleb128 0x1
 3350 029e 13       		.uleb128 0x13
 3351 029f 00       		.byte	0
 3352 02a0 00       		.byte	0
 3353 02a1 30       		.uleb128 0x30
 3354 02a2 2E       		.uleb128 0x2e
 3355 02a3 01       		.byte	0x1
 3356 02a4 3F       		.uleb128 0x3f
 3357 02a5 19       		.uleb128 0x19
 3358 02a6 03       		.uleb128 0x3
 3359 02a7 0E       		.uleb128 0xe
 3360 02a8 3A       		.uleb128 0x3a
 3361 02a9 0B       		.uleb128 0xb
 3362 02aa 3B       		.uleb128 0x3b
 3363 02ab 05       		.uleb128 0x5
 3364 02ac 27       		.uleb128 0x27
 3365 02ad 19       		.uleb128 0x19
 3366 02ae 49       		.uleb128 0x49
 3367 02af 13       		.uleb128 0x13
 3368 02b0 3C       		.uleb128 0x3c
 3369 02b1 19       		.uleb128 0x19
 3370 02b2 00       		.byte	0
 3371 02b3 00       		.byte	0
 3372 02b4 00       		.byte	0
 3373              		.section	.debug_loc,"",%progbits
 3374              	.Ldebug_loc0:
 3375              	.LLST0:
 3376 0000 00000000 		.4byte	.LVL0
 3377 0004 02000000 		.4byte	.LVL1
 3378 0008 0100     		.2byte	0x1
 3379 000a 50       		.byte	0x50
 3380 000b 02000000 		.4byte	.LVL1
 3381 000f 05000000 		.4byte	.LVL2-1
ARM GAS  /tmp/ccoJNTt5.s 			page 61


 3382 0013 0300     		.2byte	0x3
 3383 0015 70       		.byte	0x70
 3384 0016 74       		.sleb128 -12
 3385 0017 9F       		.byte	0x9f
 3386 0018 05000000 		.4byte	.LVL2-1
 3387 001c 06000000 		.4byte	.LFE118
 3388 0020 0400     		.2byte	0x4
 3389 0022 F3       		.byte	0xf3
 3390 0023 01       		.uleb128 0x1
 3391 0024 50       		.byte	0x50
 3392 0025 9F       		.byte	0x9f
 3393 0026 00000000 		.4byte	0
 3394 002a 00000000 		.4byte	0
 3395              	.LLST1:
 3396 002e 00000000 		.4byte	.LVL0
 3397 0032 05000000 		.4byte	.LVL2-1
 3398 0036 0100     		.2byte	0x1
 3399 0038 51       		.byte	0x51
 3400 0039 05000000 		.4byte	.LVL2-1
 3401 003d 06000000 		.4byte	.LFE118
 3402 0041 0400     		.2byte	0x4
 3403 0043 F3       		.byte	0xf3
 3404 0044 01       		.uleb128 0x1
 3405 0045 51       		.byte	0x51
 3406 0046 9F       		.byte	0x9f
 3407 0047 00000000 		.4byte	0
 3408 004b 00000000 		.4byte	0
 3409              	.LLST2:
 3410 004f 00000000 		.4byte	.LVL0
 3411 0053 05000000 		.4byte	.LVL2-1
 3412 0057 0100     		.2byte	0x1
 3413 0059 52       		.byte	0x52
 3414 005a 05000000 		.4byte	.LVL2-1
 3415 005e 06000000 		.4byte	.LFE118
 3416 0062 0400     		.2byte	0x4
 3417 0064 F3       		.byte	0xf3
 3418 0065 01       		.uleb128 0x1
 3419 0066 52       		.byte	0x52
 3420 0067 9F       		.byte	0x9f
 3421 0068 00000000 		.4byte	0
 3422 006c 00000000 		.4byte	0
 3423              	.LLST3:
 3424 0070 00000000 		.4byte	.LVL0
 3425 0074 05000000 		.4byte	.LVL2-1
 3426 0078 0100     		.2byte	0x1
 3427 007a 53       		.byte	0x53
 3428 007b 05000000 		.4byte	.LVL2-1
 3429 007f 06000000 		.4byte	.LFE118
 3430 0083 0400     		.2byte	0x4
 3431 0085 F3       		.byte	0xf3
 3432 0086 01       		.uleb128 0x1
 3433 0087 53       		.byte	0x53
 3434 0088 9F       		.byte	0x9f
 3435 0089 00000000 		.4byte	0
 3436 008d 00000000 		.4byte	0
 3437              	.LLST4:
 3438 0091 00000000 		.4byte	.LVL3
ARM GAS  /tmp/ccoJNTt5.s 			page 62


 3439 0095 02000000 		.4byte	.LVL4
 3440 0099 0100     		.2byte	0x1
 3441 009b 50       		.byte	0x50
 3442 009c 02000000 		.4byte	.LVL4
 3443 00a0 09000000 		.4byte	.LVL5-1
 3444 00a4 0300     		.2byte	0x3
 3445 00a6 70       		.byte	0x70
 3446 00a7 74       		.sleb128 -12
 3447 00a8 9F       		.byte	0x9f
 3448 00a9 09000000 		.4byte	.LVL5-1
 3449 00ad 0A000000 		.4byte	.LFE112
 3450 00b1 0400     		.2byte	0x4
 3451 00b3 F3       		.byte	0xf3
 3452 00b4 01       		.uleb128 0x1
 3453 00b5 50       		.byte	0x50
 3454 00b6 9F       		.byte	0x9f
 3455 00b7 00000000 		.4byte	0
 3456 00bb 00000000 		.4byte	0
 3457              	.LLST5:
 3458 00bf 00000000 		.4byte	.LVL3
 3459 00c3 09000000 		.4byte	.LVL5-1
 3460 00c7 0100     		.2byte	0x1
 3461 00c9 51       		.byte	0x51
 3462 00ca 09000000 		.4byte	.LVL5-1
 3463 00ce 0A000000 		.4byte	.LFE112
 3464 00d2 0400     		.2byte	0x4
 3465 00d4 F3       		.byte	0xf3
 3466 00d5 01       		.uleb128 0x1
 3467 00d6 51       		.byte	0x51
 3468 00d7 9F       		.byte	0x9f
 3469 00d8 00000000 		.4byte	0
 3470 00dc 00000000 		.4byte	0
 3471              	.LLST6:
 3472 00e0 00000000 		.4byte	.LVL3
 3473 00e4 09000000 		.4byte	.LVL5-1
 3474 00e8 0100     		.2byte	0x1
 3475 00ea 52       		.byte	0x52
 3476 00eb 09000000 		.4byte	.LVL5-1
 3477 00ef 0A000000 		.4byte	.LFE112
 3478 00f3 0400     		.2byte	0x4
 3479 00f5 F3       		.byte	0xf3
 3480 00f6 01       		.uleb128 0x1
 3481 00f7 52       		.byte	0x52
 3482 00f8 9F       		.byte	0x9f
 3483 00f9 00000000 		.4byte	0
 3484 00fd 00000000 		.4byte	0
 3485              	.LLST7:
 3486 0101 00000000 		.4byte	.LVL6
 3487 0105 02000000 		.4byte	.LVL7
 3488 0109 0100     		.2byte	0x1
 3489 010b 50       		.byte	0x50
 3490 010c 02000000 		.4byte	.LVL7
 3491 0110 05000000 		.4byte	.LVL8-1
 3492 0114 0300     		.2byte	0x3
 3493 0116 70       		.byte	0x70
 3494 0117 50       		.sleb128 -48
 3495 0118 9F       		.byte	0x9f
ARM GAS  /tmp/ccoJNTt5.s 			page 63


 3496 0119 05000000 		.4byte	.LVL8-1
 3497 011d 06000000 		.4byte	.LFE117
 3498 0121 0400     		.2byte	0x4
 3499 0123 F3       		.byte	0xf3
 3500 0124 01       		.uleb128 0x1
 3501 0125 50       		.byte	0x50
 3502 0126 9F       		.byte	0x9f
 3503 0127 00000000 		.4byte	0
 3504 012b 00000000 		.4byte	0
 3505              	.LLST8:
 3506 012f 00000000 		.4byte	.LVL6
 3507 0133 05000000 		.4byte	.LVL8-1
 3508 0137 0100     		.2byte	0x1
 3509 0139 51       		.byte	0x51
 3510 013a 05000000 		.4byte	.LVL8-1
 3511 013e 06000000 		.4byte	.LFE117
 3512 0142 0400     		.2byte	0x4
 3513 0144 F3       		.byte	0xf3
 3514 0145 01       		.uleb128 0x1
 3515 0146 51       		.byte	0x51
 3516 0147 9F       		.byte	0x9f
 3517 0148 00000000 		.4byte	0
 3518 014c 00000000 		.4byte	0
 3519              	.LLST9:
 3520 0150 00000000 		.4byte	.LVL6
 3521 0154 05000000 		.4byte	.LVL8-1
 3522 0158 0100     		.2byte	0x1
 3523 015a 52       		.byte	0x52
 3524 015b 05000000 		.4byte	.LVL8-1
 3525 015f 06000000 		.4byte	.LFE117
 3526 0163 0400     		.2byte	0x4
 3527 0165 F3       		.byte	0xf3
 3528 0166 01       		.uleb128 0x1
 3529 0167 52       		.byte	0x52
 3530 0168 9F       		.byte	0x9f
 3531 0169 00000000 		.4byte	0
 3532 016d 00000000 		.4byte	0
 3533              	.LLST10:
 3534 0171 00000000 		.4byte	.LVL6
 3535 0175 05000000 		.4byte	.LVL8-1
 3536 0179 0100     		.2byte	0x1
 3537 017b 53       		.byte	0x53
 3538 017c 05000000 		.4byte	.LVL8-1
 3539 0180 06000000 		.4byte	.LFE117
 3540 0184 0400     		.2byte	0x4
 3541 0186 F3       		.byte	0xf3
 3542 0187 01       		.uleb128 0x1
 3543 0188 53       		.byte	0x53
 3544 0189 9F       		.byte	0x9f
 3545 018a 00000000 		.4byte	0
 3546 018e 00000000 		.4byte	0
 3547              	.LLST11:
 3548 0192 00000000 		.4byte	.LVL9
 3549 0196 02000000 		.4byte	.LVL10
 3550 019a 0100     		.2byte	0x1
 3551 019c 50       		.byte	0x50
 3552 019d 02000000 		.4byte	.LVL10
ARM GAS  /tmp/ccoJNTt5.s 			page 64


 3553 01a1 09000000 		.4byte	.LVL11-1
 3554 01a5 0300     		.2byte	0x3
 3555 01a7 70       		.byte	0x70
 3556 01a8 50       		.sleb128 -48
 3557 01a9 9F       		.byte	0x9f
 3558 01aa 09000000 		.4byte	.LVL11-1
 3559 01ae 0A000000 		.4byte	.LFE111
 3560 01b2 0400     		.2byte	0x4
 3561 01b4 F3       		.byte	0xf3
 3562 01b5 01       		.uleb128 0x1
 3563 01b6 50       		.byte	0x50
 3564 01b7 9F       		.byte	0x9f
 3565 01b8 00000000 		.4byte	0
 3566 01bc 00000000 		.4byte	0
 3567              	.LLST12:
 3568 01c0 00000000 		.4byte	.LVL9
 3569 01c4 09000000 		.4byte	.LVL11-1
 3570 01c8 0100     		.2byte	0x1
 3571 01ca 51       		.byte	0x51
 3572 01cb 09000000 		.4byte	.LVL11-1
 3573 01cf 0A000000 		.4byte	.LFE111
 3574 01d3 0400     		.2byte	0x4
 3575 01d5 F3       		.byte	0xf3
 3576 01d6 01       		.uleb128 0x1
 3577 01d7 51       		.byte	0x51
 3578 01d8 9F       		.byte	0x9f
 3579 01d9 00000000 		.4byte	0
 3580 01dd 00000000 		.4byte	0
 3581              	.LLST13:
 3582 01e1 00000000 		.4byte	.LVL9
 3583 01e5 09000000 		.4byte	.LVL11-1
 3584 01e9 0100     		.2byte	0x1
 3585 01eb 52       		.byte	0x52
 3586 01ec 09000000 		.4byte	.LVL11-1
 3587 01f0 0A000000 		.4byte	.LFE111
 3588 01f4 0400     		.2byte	0x4
 3589 01f6 F3       		.byte	0xf3
 3590 01f7 01       		.uleb128 0x1
 3591 01f8 52       		.byte	0x52
 3592 01f9 9F       		.byte	0x9f
 3593 01fa 00000000 		.4byte	0
 3594 01fe 00000000 		.4byte	0
 3595              	.LLST14:
 3596 0202 00000000 		.4byte	.LVL12
 3597 0206 02000000 		.4byte	.LVL13
 3598 020a 0100     		.2byte	0x1
 3599 020c 50       		.byte	0x50
 3600 020d 02000000 		.4byte	.LVL13
 3601 0211 05000000 		.4byte	.LVL14-1
 3602 0215 0300     		.2byte	0x3
 3603 0217 70       		.byte	0x70
 3604 0218 74       		.sleb128 -12
 3605 0219 9F       		.byte	0x9f
 3606 021a 05000000 		.4byte	.LVL14-1
 3607 021e 06000000 		.4byte	.LFE116
 3608 0222 0400     		.2byte	0x4
 3609 0224 F3       		.byte	0xf3
ARM GAS  /tmp/ccoJNTt5.s 			page 65


 3610 0225 01       		.uleb128 0x1
 3611 0226 50       		.byte	0x50
 3612 0227 9F       		.byte	0x9f
 3613 0228 00000000 		.4byte	0
 3614 022c 00000000 		.4byte	0
 3615              	.LLST15:
 3616 0230 00000000 		.4byte	.LVL12
 3617 0234 05000000 		.4byte	.LVL14-1
 3618 0238 0100     		.2byte	0x1
 3619 023a 51       		.byte	0x51
 3620 023b 05000000 		.4byte	.LVL14-1
 3621 023f 06000000 		.4byte	.LFE116
 3622 0243 0400     		.2byte	0x4
 3623 0245 F3       		.byte	0xf3
 3624 0246 01       		.uleb128 0x1
 3625 0247 51       		.byte	0x51
 3626 0248 9F       		.byte	0x9f
 3627 0249 00000000 		.4byte	0
 3628 024d 00000000 		.4byte	0
 3629              	.LLST16:
 3630 0251 00000000 		.4byte	.LVL15
 3631 0255 02000000 		.4byte	.LVL16
 3632 0259 0100     		.2byte	0x1
 3633 025b 50       		.byte	0x50
 3634 025c 02000000 		.4byte	.LVL16
 3635 0260 09000000 		.4byte	.LVL17-1
 3636 0264 0300     		.2byte	0x3
 3637 0266 70       		.byte	0x70
 3638 0267 74       		.sleb128 -12
 3639 0268 9F       		.byte	0x9f
 3640 0269 09000000 		.4byte	.LVL17-1
 3641 026d 0A000000 		.4byte	.LFE114
 3642 0271 0400     		.2byte	0x4
 3643 0273 F3       		.byte	0xf3
 3644 0274 01       		.uleb128 0x1
 3645 0275 50       		.byte	0x50
 3646 0276 9F       		.byte	0x9f
 3647 0277 00000000 		.4byte	0
 3648 027b 00000000 		.4byte	0
 3649              	.LLST17:
 3650 027f 00000000 		.4byte	.LVL18
 3651 0283 02000000 		.4byte	.LVL19
 3652 0287 0100     		.2byte	0x1
 3653 0289 50       		.byte	0x50
 3654 028a 02000000 		.4byte	.LVL19
 3655 028e 05000000 		.4byte	.LVL20-1
 3656 0292 0300     		.2byte	0x3
 3657 0294 70       		.byte	0x70
 3658 0295 50       		.sleb128 -48
 3659 0296 9F       		.byte	0x9f
 3660 0297 05000000 		.4byte	.LVL20-1
 3661 029b 06000000 		.4byte	.LFE115
 3662 029f 0400     		.2byte	0x4
 3663 02a1 F3       		.byte	0xf3
 3664 02a2 01       		.uleb128 0x1
 3665 02a3 50       		.byte	0x50
 3666 02a4 9F       		.byte	0x9f
ARM GAS  /tmp/ccoJNTt5.s 			page 66


 3667 02a5 00000000 		.4byte	0
 3668 02a9 00000000 		.4byte	0
 3669              	.LLST18:
 3670 02ad 00000000 		.4byte	.LVL18
 3671 02b1 05000000 		.4byte	.LVL20-1
 3672 02b5 0100     		.2byte	0x1
 3673 02b7 51       		.byte	0x51
 3674 02b8 05000000 		.4byte	.LVL20-1
 3675 02bc 06000000 		.4byte	.LFE115
 3676 02c0 0400     		.2byte	0x4
 3677 02c2 F3       		.byte	0xf3
 3678 02c3 01       		.uleb128 0x1
 3679 02c4 51       		.byte	0x51
 3680 02c5 9F       		.byte	0x9f
 3681 02c6 00000000 		.4byte	0
 3682 02ca 00000000 		.4byte	0
 3683              	.LLST19:
 3684 02ce 00000000 		.4byte	.LVL18
 3685 02d2 05000000 		.4byte	.LVL20-1
 3686 02d6 0100     		.2byte	0x1
 3687 02d8 52       		.byte	0x52
 3688 02d9 05000000 		.4byte	.LVL20-1
 3689 02dd 06000000 		.4byte	.LFE115
 3690 02e1 0400     		.2byte	0x4
 3691 02e3 F3       		.byte	0xf3
 3692 02e4 01       		.uleb128 0x1
 3693 02e5 52       		.byte	0x52
 3694 02e6 9F       		.byte	0x9f
 3695 02e7 00000000 		.4byte	0
 3696 02eb 00000000 		.4byte	0
 3697              	.LLST20:
 3698 02ef 00000000 		.4byte	.LVL21
 3699 02f3 02000000 		.4byte	.LVL22
 3700 02f7 0100     		.2byte	0x1
 3701 02f9 50       		.byte	0x50
 3702 02fa 02000000 		.4byte	.LVL22
 3703 02fe 09000000 		.4byte	.LVL23-1
 3704 0302 0300     		.2byte	0x3
 3705 0304 70       		.byte	0x70
 3706 0305 50       		.sleb128 -48
 3707 0306 9F       		.byte	0x9f
 3708 0307 09000000 		.4byte	.LVL23-1
 3709 030b 0A000000 		.4byte	.LFE113
 3710 030f 0400     		.2byte	0x4
 3711 0311 F3       		.byte	0xf3
 3712 0312 01       		.uleb128 0x1
 3713 0313 50       		.byte	0x50
 3714 0314 9F       		.byte	0x9f
 3715 0315 00000000 		.4byte	0
 3716 0319 00000000 		.4byte	0
 3717              	.LLST21:
 3718 031d 00000000 		.4byte	.LVL21
 3719 0321 09000000 		.4byte	.LVL23-1
 3720 0325 0100     		.2byte	0x1
 3721 0327 51       		.byte	0x51
 3722 0328 09000000 		.4byte	.LVL23-1
 3723 032c 0A000000 		.4byte	.LFE113
ARM GAS  /tmp/ccoJNTt5.s 			page 67


 3724 0330 0400     		.2byte	0x4
 3725 0332 F3       		.byte	0xf3
 3726 0333 01       		.uleb128 0x1
 3727 0334 51       		.byte	0x51
 3728 0335 9F       		.byte	0x9f
 3729 0336 00000000 		.4byte	0
 3730 033a 00000000 		.4byte	0
 3731              	.LLST22:
 3732 033e 00000000 		.4byte	.LVL25
 3733 0342 12000000 		.4byte	.LVL26
 3734 0346 0100     		.2byte	0x1
 3735 0348 50       		.byte	0x50
 3736 0349 12000000 		.4byte	.LVL26
 3737 034d 42000000 		.4byte	.LFE120
 3738 0351 0100     		.2byte	0x1
 3739 0353 54       		.byte	0x54
 3740 0354 00000000 		.4byte	0
 3741 0358 00000000 		.4byte	0
 3742              	.LLST23:
 3743 035c 00000000 		.4byte	.LVL25
 3744 0360 20000000 		.4byte	.LVL27
 3745 0364 0100     		.2byte	0x1
 3746 0366 51       		.byte	0x51
 3747 0367 20000000 		.4byte	.LVL27
 3748 036b 2B000000 		.4byte	.LVL29-1
 3749 036f 0100     		.2byte	0x1
 3750 0371 53       		.byte	0x53
 3751 0372 2B000000 		.4byte	.LVL29-1
 3752 0376 42000000 		.4byte	.LFE120
 3753 037a 0400     		.2byte	0x4
 3754 037c F3       		.byte	0xf3
 3755 037d 01       		.uleb128 0x1
 3756 037e 51       		.byte	0x51
 3757 037f 9F       		.byte	0x9f
 3758 0380 00000000 		.4byte	0
 3759 0384 00000000 		.4byte	0
 3760              	.LLST24:
 3761 0388 00000000 		.4byte	.LVL25
 3762 038c 28000000 		.4byte	.LVL28
 3763 0390 0100     		.2byte	0x1
 3764 0392 52       		.byte	0x52
 3765 0393 28000000 		.4byte	.LVL28
 3766 0397 42000000 		.4byte	.LFE120
 3767 039b 0100     		.2byte	0x1
 3768 039d 55       		.byte	0x55
 3769 039e 00000000 		.4byte	0
 3770 03a2 00000000 		.4byte	0
 3771              	.LLST25:
 3772 03a6 00000000 		.4byte	.LVL31
 3773 03aa 08000000 		.4byte	.LVL32
 3774 03ae 0100     		.2byte	0x1
 3775 03b0 50       		.byte	0x50
 3776 03b1 08000000 		.4byte	.LVL32
 3777 03b5 3C000000 		.4byte	.LVL37
 3778 03b9 0100     		.2byte	0x1
 3779 03bb 54       		.byte	0x54
 3780 03bc 3C000000 		.4byte	.LVL37
ARM GAS  /tmp/ccoJNTt5.s 			page 68


 3781 03c0 40000000 		.4byte	.LVL38
 3782 03c4 0100     		.2byte	0x1
 3783 03c6 50       		.byte	0x50
 3784 03c7 40000000 		.4byte	.LVL38
 3785 03cb 4A000000 		.4byte	.LFE121
 3786 03cf 0100     		.2byte	0x1
 3787 03d1 54       		.byte	0x54
 3788 03d2 00000000 		.4byte	0
 3789 03d6 00000000 		.4byte	0
 3790              	.LLST26:
 3791 03da 00000000 		.4byte	.LVL31
 3792 03de 08000000 		.4byte	.LVL32
 3793 03e2 0100     		.2byte	0x1
 3794 03e4 51       		.byte	0x51
 3795 03e5 08000000 		.4byte	.LVL32
 3796 03e9 3C000000 		.4byte	.LVL37
 3797 03ed 0100     		.2byte	0x1
 3798 03ef 55       		.byte	0x55
 3799 03f0 3C000000 		.4byte	.LVL37
 3800 03f4 47000000 		.4byte	.LVL39-1
 3801 03f8 0100     		.2byte	0x1
 3802 03fa 51       		.byte	0x51
 3803 03fb 47000000 		.4byte	.LVL39-1
 3804 03ff 4A000000 		.4byte	.LFE121
 3805 0403 0100     		.2byte	0x1
 3806 0405 55       		.byte	0x55
 3807 0406 00000000 		.4byte	0
 3808 040a 00000000 		.4byte	0
 3809              	.LLST27:
 3810 040e 00000000 		.4byte	.LVL40
 3811 0412 06000000 		.4byte	.LVL41
 3812 0416 0100     		.2byte	0x1
 3813 0418 50       		.byte	0x50
 3814 0419 06000000 		.4byte	.LVL41
 3815 041d 4C000000 		.4byte	.LVL49
 3816 0421 0100     		.2byte	0x1
 3817 0423 54       		.byte	0x54
 3818 0424 4C000000 		.4byte	.LVL49
 3819 0428 50000000 		.4byte	.LVL50
 3820 042c 0100     		.2byte	0x1
 3821 042e 50       		.byte	0x50
 3822 042f 50000000 		.4byte	.LVL50
 3823 0433 5A000000 		.4byte	.LFE122
 3824 0437 0100     		.2byte	0x1
 3825 0439 54       		.byte	0x54
 3826 043a 00000000 		.4byte	0
 3827 043e 00000000 		.4byte	0
 3828              	.LLST28:
 3829 0442 00000000 		.4byte	.LVL52
 3830 0446 09000000 		.4byte	.LVL53-1
 3831 044a 0100     		.2byte	0x1
 3832 044c 50       		.byte	0x50
 3833 044d 09000000 		.4byte	.LVL53-1
 3834 0451 3E000000 		.4byte	.LVL58
 3835 0455 0100     		.2byte	0x1
 3836 0457 54       		.byte	0x54
 3837 0458 3E000000 		.4byte	.LVL58
ARM GAS  /tmp/ccoJNTt5.s 			page 69


 3838 045c 41000000 		.4byte	.LVL59-1
 3839 0460 0300     		.2byte	0x3
 3840 0462 70       		.byte	0x70
 3841 0463 7C       		.sleb128 -4
 3842 0464 9F       		.byte	0x9f
 3843 0465 41000000 		.4byte	.LVL59-1
 3844 0469 42000000 		.4byte	.LVL59
 3845 046d 0400     		.2byte	0x4
 3846 046f F3       		.byte	0xf3
 3847 0470 01       		.uleb128 0x1
 3848 0471 50       		.byte	0x50
 3849 0472 9F       		.byte	0x9f
 3850 0473 42000000 		.4byte	.LVL59
 3851 0477 50000000 		.4byte	.LFE123
 3852 047b 0100     		.2byte	0x1
 3853 047d 54       		.byte	0x54
 3854 047e 00000000 		.4byte	0
 3855 0482 00000000 		.4byte	0
 3856              	.LLST29:
 3857 0486 00000000 		.4byte	.LVL52
 3858 048a 09000000 		.4byte	.LVL53-1
 3859 048e 0100     		.2byte	0x1
 3860 0490 51       		.byte	0x51
 3861 0491 09000000 		.4byte	.LVL53-1
 3862 0495 50000000 		.4byte	.LFE123
 3863 0499 0400     		.2byte	0x4
 3864 049b F3       		.byte	0xf3
 3865 049c 01       		.uleb128 0x1
 3866 049d 51       		.byte	0x51
 3867 049e 9F       		.byte	0x9f
 3868 049f 00000000 		.4byte	0
 3869 04a3 00000000 		.4byte	0
 3870              	.LLST30:
 3871 04a7 00000000 		.4byte	.LVL61
 3872 04ab 07000000 		.4byte	.LVL62-1
 3873 04af 0100     		.2byte	0x1
 3874 04b1 50       		.byte	0x50
 3875 04b2 07000000 		.4byte	.LVL62-1
 3876 04b6 34000000 		.4byte	.LFE124
 3877 04ba 0100     		.2byte	0x1
 3878 04bc 54       		.byte	0x54
 3879 04bd 00000000 		.4byte	0
 3880 04c1 00000000 		.4byte	0
 3881              	.LLST31:
 3882 04c5 12000000 		.4byte	.LVL63
 3883 04c9 1C000000 		.4byte	.LVL65
 3884 04cd 0100     		.2byte	0x1
 3885 04cf 50       		.byte	0x50
 3886 04d0 1C000000 		.4byte	.LVL65
 3887 04d4 26000000 		.4byte	.LVL67
 3888 04d8 0100     		.2byte	0x1
 3889 04da 55       		.byte	0x55
 3890 04db 00000000 		.4byte	0
 3891 04df 00000000 		.4byte	0
 3892              		.section	.debug_aranges,"",%progbits
 3893 0000 84000000 		.4byte	0x84
 3894 0004 0200     		.2byte	0x2
ARM GAS  /tmp/ccoJNTt5.s 			page 70


 3895 0006 00000000 		.4byte	.Ldebug_info0
 3896 000a 04       		.byte	0x4
 3897 000b 00       		.byte	0
 3898 000c 0000     		.2byte	0
 3899 000e 0000     		.2byte	0
 3900 0010 00000000 		.4byte	.LFB118
 3901 0014 06000000 		.4byte	.LFE118-.LFB118
 3902 0018 00000000 		.4byte	.LFB112
 3903 001c 0A000000 		.4byte	.LFE112-.LFB112
 3904 0020 00000000 		.4byte	.LFB117
 3905 0024 06000000 		.4byte	.LFE117-.LFB117
 3906 0028 00000000 		.4byte	.LFB111
 3907 002c 0A000000 		.4byte	.LFE111-.LFB111
 3908 0030 00000000 		.4byte	.LFB116
 3909 0034 06000000 		.4byte	.LFE116-.LFB116
 3910 0038 00000000 		.4byte	.LFB114
 3911 003c 0A000000 		.4byte	.LFE114-.LFB114
 3912 0040 00000000 		.4byte	.LFB115
 3913 0044 06000000 		.4byte	.LFE115-.LFB115
 3914 0048 00000000 		.4byte	.LFB113
 3915 004c 0A000000 		.4byte	.LFE113-.LFB113
 3916 0050 00000000 		.4byte	.LFB119
 3917 0054 04000000 		.4byte	.LFE119-.LFB119
 3918 0058 00000000 		.4byte	.LFB120
 3919 005c 42000000 		.4byte	.LFE120-.LFB120
 3920 0060 00000000 		.4byte	.LFB121
 3921 0064 4A000000 		.4byte	.LFE121-.LFB121
 3922 0068 00000000 		.4byte	.LFB122
 3923 006c 5A000000 		.4byte	.LFE122-.LFB122
 3924 0070 00000000 		.4byte	.LFB123
 3925 0074 50000000 		.4byte	.LFE123-.LFB123
 3926 0078 00000000 		.4byte	.LFB124
 3927 007c 34000000 		.4byte	.LFE124-.LFB124
 3928 0080 00000000 		.4byte	0
 3929 0084 00000000 		.4byte	0
 3930              		.section	.debug_ranges,"",%progbits
 3931              	.Ldebug_ranges0:
 3932 0000 00000000 		.4byte	.LFB118
 3933 0004 06000000 		.4byte	.LFE118
 3934 0008 00000000 		.4byte	.LFB112
 3935 000c 0A000000 		.4byte	.LFE112
 3936 0010 00000000 		.4byte	.LFB117
 3937 0014 06000000 		.4byte	.LFE117
 3938 0018 00000000 		.4byte	.LFB111
 3939 001c 0A000000 		.4byte	.LFE111
 3940 0020 00000000 		.4byte	.LFB116
 3941 0024 06000000 		.4byte	.LFE116
 3942 0028 00000000 		.4byte	.LFB114
 3943 002c 0A000000 		.4byte	.LFE114
 3944 0030 00000000 		.4byte	.LFB115
 3945 0034 06000000 		.4byte	.LFE115
 3946 0038 00000000 		.4byte	.LFB113
 3947 003c 0A000000 		.4byte	.LFE113
 3948 0040 00000000 		.4byte	.LFB119
 3949 0044 04000000 		.4byte	.LFE119
 3950 0048 00000000 		.4byte	.LFB120
 3951 004c 42000000 		.4byte	.LFE120
ARM GAS  /tmp/ccoJNTt5.s 			page 71


 3952 0050 00000000 		.4byte	.LFB121
 3953 0054 4A000000 		.4byte	.LFE121
 3954 0058 00000000 		.4byte	.LFB122
 3955 005c 5A000000 		.4byte	.LFE122
 3956 0060 00000000 		.4byte	.LFB123
 3957 0064 50000000 		.4byte	.LFE123
 3958 0068 00000000 		.4byte	.LFB124
 3959 006c 34000000 		.4byte	.LFE124
 3960 0070 00000000 		.4byte	0
 3961 0074 00000000 		.4byte	0
 3962              		.section	.debug_line,"",%progbits
 3963              	.Ldebug_line0:
 3964 0000 87030000 		.section	.debug_str,"MS",%progbits,1
 3964      02004202 
 3964      00000201 
 3964      FB0E0D00 
 3964      01010101 
 3965              	.LASF123:
 3966 0000 63684F51 		.ascii	"chOQPutTimeout\000"
 3966      50757454 
 3966      696D656F 
 3966      757400
 3967              	.LASF2:
 3968 000f 73697A65 		.ascii	"size_t\000"
 3968      5F7400
 3969              	.LASF65:
 3970 0016 7264796D 		.ascii	"rdymsg\000"
 3970      736700
 3971              	.LASF19:
 3972 001d 75696E74 		.ascii	"uint64_t\000"
 3972      36345F74 
 3972      00
 3973              	.LASF81:
 3974 0026 4F757470 		.ascii	"OutputQueue\000"
 3974      75745175 
 3974      65756500 
 3975              	.LASF3:
 3976 0032 5F5F7569 		.ascii	"__uint8_t\000"
 3976      6E74385F 
 3976      7400
 3977              	.LASF120:
 3978 003c 63684951 		.ascii	"chIQReadTimeout\000"
 3978      52656164 
 3978      54696D65 
 3978      6F757400 
 3979              	.LASF139:
 3980 004c 474E5520 		.ascii	"GNU C 4.8.2 -mcpu=cortex-m4 -mno-thumb-interwork -m"
 3980      4320342E 
 3980      382E3220 
 3980      2D6D6370 
 3980      753D636F 
 3981 007f 7468756D 		.ascii	"thumb -ggdb -O2 -fomit-frame-pointer -falign-functi"
 3981      62202D67 
 3981      67646220 
 3981      2D4F3220 
 3981      2D666F6D 
 3982 00b2 6F6E733D 		.ascii	"ons=16 -ffunction-sections -fdata-sections -fno-com"
ARM GAS  /tmp/ccoJNTt5.s 			page 72


 3982      3136202D 
 3982      6666756E 
 3982      6374696F 
 3982      6E2D7365 
 3983 00e5 6D6F6E00 		.ascii	"mon\000"
 3984              	.LASF14:
 3985 00e9 6C6F6E67 		.ascii	"long long unsigned int\000"
 3985      206C6F6E 
 3985      6720756E 
 3985      7369676E 
 3985      65642069 
 3986              	.LASF133:
 3987 0100 63684951 		.ascii	"chIQResetI\000"
 3987      52657365 
 3987      744900
 3988              	.LASF125:
 3989 010b 63684F51 		.ascii	"chOQInit\000"
 3989      496E6974 
 3989      00
 3990              	.LASF66:
 3991 0114 65786974 		.ascii	"exitcode\000"
 3991      636F6465 
 3991      00
 3992              	.LASF128:
 3993 011d 63684462 		.ascii	"chDbgPanic\000"
 3993      6750616E 
 3993      696300
 3994              	.LASF143:
 3995 0128 49544D5F 		.ascii	"ITM_RxBuffer\000"
 3995      52784275 
 3995      66666572 
 3995      00
 3996              	.LASF113:
 3997 0135 73644F62 		.ascii	"sdObjectInit\000"
 3997      6A656374 
 3997      496E6974 
 3997      00
 3998              	.LASF109:
 3999 0142 72656164 		.ascii	"readt\000"
 3999      7400
 4000              	.LASF71:
 4001 0148 715F7761 		.ascii	"q_waiting\000"
 4001      6974696E 
 4001      6700
 4002              	.LASF12:
 4003 0152 6C6F6E67 		.ascii	"long long int\000"
 4003      206C6F6E 
 4003      6720696E 
 4003      7400
 4004              	.LASF1:
 4005 0160 7369676E 		.ascii	"signed char\000"
 4005      65642063 
 4005      68617200 
 4006              	.LASF88:
 4007 016c 47545052 		.ascii	"GTPR\000"
 4007      00
 4008              	.LASF92:
ARM GAS  /tmp/ccoJNTt5.s 			page 73


 4009 0171 53445F53 		.ascii	"SD_STOP\000"
 4009      544F5000 
 4010              	.LASF20:
 4011 0179 626F6F6C 		.ascii	"bool_t\000"
 4011      5F7400
 4012              	.LASF55:
 4013 0180 6D5F7175 		.ascii	"m_queue\000"
 4013      65756500 
 4014              	.LASF97:
 4015 0188 73746174 		.ascii	"state\000"
 4015      6500
 4016              	.LASF9:
 4017 018e 6C6F6E67 		.ascii	"long int\000"
 4017      20696E74 
 4017      00
 4018              	.LASF23:
 4019 0197 74737461 		.ascii	"tstate_t\000"
 4019      74655F74 
 4019      00
 4020              	.LASF138:
 4021 01a0 63684F51 		.ascii	"chOQGetI\000"
 4021      47657449 
 4021      00
 4022              	.LASF73:
 4023 01a9 715F6275 		.ascii	"q_buffer\000"
 4023      66666572 
 4023      00
 4024              	.LASF75:
 4025 01b2 715F7772 		.ascii	"q_wrptr\000"
 4025      70747200 
 4026              	.LASF78:
 4027 01ba 715F6C69 		.ascii	"q_link\000"
 4027      6E6B00
 4028              	.LASF137:
 4029 01c1 63684576 		.ascii	"chEvtBroadcastFlagsI\000"
 4029      7442726F 
 4029      61646361 
 4029      7374466C 
 4029      61677349 
 4030              	.LASF34:
 4031 01d6 705F6E65 		.ascii	"p_newer\000"
 4031      77657200 
 4032              	.LASF134:
 4033 01de 63685363 		.ascii	"chSchRescheduleS\000"
 4033      68526573 
 4033      63686564 
 4033      756C6553 
 4033      00
 4034              	.LASF10:
 4035 01ef 5F5F7569 		.ascii	"__uint32_t\000"
 4035      6E743332 
 4035      5F7400
 4036              	.LASF49:
 4037 01fa 72656761 		.ascii	"regarm_t\000"
 4037      726D5F74 
 4037      00
 4038              	.LASF136:
ARM GAS  /tmp/ccoJNTt5.s 			page 74


 4039 0203 63684951 		.ascii	"chIQPutI\000"
 4039      50757449 
 4039      00
 4040              	.LASF63:
 4041 020c 4576656E 		.ascii	"EventSource\000"
 4041      74536F75 
 4041      72636500 
 4042              	.LASF100:
 4043 0218 75736172 		.ascii	"usart\000"
 4043      7400
 4044              	.LASF0:
 4045 021e 756E7369 		.ascii	"unsigned int\000"
 4045      676E6564 
 4045      20696E74 
 4045      00
 4046              	.LASF16:
 4047 022b 75696E74 		.ascii	"uint16_t\000"
 4047      31365F74 
 4047      00
 4048              	.LASF103:
 4049 0234 53657269 		.ascii	"SerialDriverVMT\000"
 4049      616C4472 
 4049      69766572 
 4049      564D5400 
 4050              	.LASF40:
 4051 0244 705F7469 		.ascii	"p_time\000"
 4051      6D6500
 4052              	.LASF114:
 4053 024b 696E6F74 		.ascii	"inotify\000"
 4053      69667900 
 4054              	.LASF98:
 4055 0253 69717565 		.ascii	"iqueue\000"
 4055      756500
 4056              	.LASF42:
 4057 025a 705F6D73 		.ascii	"p_msgqueue\000"
 4057      67717565 
 4057      756500
 4058              	.LASF126:
 4059 0265 73645F6C 		.ascii	"sd_lld_init\000"
 4059      6C645F69 
 4059      6E697400 
 4060              	.LASF107:
 4061 0271 67657474 		.ascii	"gett\000"
 4061      00
 4062              	.LASF141:
 4063 0276 2F686F6D 		.ascii	"/home/ece497/vbox-shared/mplayer/ChibiOS-RT-stable_"
 4063      652F6563 
 4063      65343937 
 4063      2F76626F 
 4063      782D7368 
 4064 02a9 322E362E 		.ascii	"2.6.x/testhal/STM32F4xx/I2C\000"
 4064      782F7465 
 4064      73746861 
 4064      6C2F5354 
 4064      4D333246 
 4065              	.LASF96:
 4066 02c5 6576656E 		.ascii	"event\000"
ARM GAS  /tmp/ccoJNTt5.s 			page 75


 4066      7400
 4067              	.LASF7:
 4068 02cb 73686F72 		.ascii	"short unsigned int\000"
 4068      7420756E 
 4068      7369676E 
 4068      65642069 
 4068      6E7400
 4069              	.LASF25:
 4070 02de 6D73675F 		.ascii	"msg_t\000"
 4070      7400
 4071              	.LASF99:
 4072 02e4 6F717565 		.ascii	"oqueue\000"
 4072      756500
 4073              	.LASF135:
 4074 02eb 63684462 		.ascii	"chDbgCheckClassI\000"
 4074      67436865 
 4074      636B436C 
 4074      61737349 
 4074      00
 4075              	.LASF90:
 4076 02fc 55534152 		.ascii	"USART_TypeDef\000"
 4076      545F5479 
 4076      70654465 
 4076      6600
 4077              	.LASF108:
 4078 030a 77726974 		.ascii	"writet\000"
 4078      657400
 4079              	.LASF22:
 4080 0311 746D6F64 		.ascii	"tmode_t\000"
 4080      655F7400 
 4081              	.LASF48:
 4082 0319 54687265 		.ascii	"ThreadsList\000"
 4082      6164734C 
 4082      69737400 
 4083              	.LASF26:
 4084 0325 6576656E 		.ascii	"eventmask_t\000"
 4084      746D6173 
 4084      6B5F7400 
 4085              	.LASF80:
 4086 0331 496E7075 		.ascii	"InputQueue\000"
 4086      74517565 
 4086      756500
 4087              	.LASF101:
 4088 033c 73706565 		.ascii	"speed\000"
 4088      6400
 4089              	.LASF79:
 4090 0342 716E6F74 		.ascii	"qnotify_t\000"
 4090      6966795F 
 4090      7400
 4091              	.LASF70:
 4092 034c 47656E65 		.ascii	"GenericQueue\000"
 4092      72696351 
 4092      75657565 
 4092      00
 4093              	.LASF50:
 4094 0359 73746B61 		.ascii	"stkalign_t\000"
 4094      6C69676E 
ARM GAS  /tmp/ccoJNTt5.s 			page 76


 4094      5F7400
 4095              	.LASF121:
 4096 0364 63684F51 		.ascii	"chOQWriteTimeout\000"
 4096      57726974 
 4096      6554696D 
 4096      656F7574 
 4096      00
 4097              	.LASF104:
 4098 0375 77726974 		.ascii	"write\000"
 4098      6500
 4099              	.LASF106:
 4100 037b 70757474 		.ascii	"putt\000"
 4100      00
 4101              	.LASF53:
 4102 0380 73697A65 		.ascii	"sizetype\000"
 4102      74797065 
 4102      00
 4103              	.LASF72:
 4104 0389 715F636F 		.ascii	"q_counter\000"
 4104      756E7465 
 4104      7200
 4105              	.LASF54:
 4106 0393 4D757465 		.ascii	"Mutex\000"
 4106      7800
 4107              	.LASF32:
 4108 0399 705F7072 		.ascii	"p_prio\000"
 4108      696F00
 4109              	.LASF61:
 4110 03a0 656C5F6D 		.ascii	"el_mask\000"
 4110      61736B00 
 4111              	.LASF35:
 4112 03a8 705F6F6C 		.ascii	"p_older\000"
 4112      64657200 
 4113              	.LASF47:
 4114 03b0 54687265 		.ascii	"ThreadsQueue\000"
 4114      61647351 
 4114      75657565 
 4114      00
 4115              	.LASF37:
 4116 03bd 705F7374 		.ascii	"p_stklimit\000"
 4116      6B6C696D 
 4116      697400
 4117              	.LASF118:
 4118 03c8 73645374 		.ascii	"sdStop\000"
 4118      6F7000
 4119              	.LASF110:
 4120 03cf 74696D65 		.ascii	"time\000"
 4120      00
 4121              	.LASF127:
 4122 03d4 6462675F 		.ascii	"dbg_check_lock\000"
 4122      63686563 
 4122      6B5F6C6F 
 4122      636B00
 4123              	.LASF130:
 4124 03e3 6462675F 		.ascii	"dbg_check_unlock\000"
 4124      63686563 
 4124      6B5F756E 
ARM GAS  /tmp/ccoJNTt5.s 			page 77


 4124      6C6F636B 
 4124      00
 4125              	.LASF102:
 4126 03f4 53657269 		.ascii	"SerialConfig\000"
 4126      616C436F 
 4126      6E666967 
 4126      00
 4127              	.LASF13:
 4128 0401 5F5F7569 		.ascii	"__uint64_t\000"
 4128      6E743634 
 4128      5F7400
 4129              	.LASF82:
 4130 040c 52455345 		.ascii	"RESERVED0\000"
 4130      52564544 
 4130      3000
 4131              	.LASF83:
 4132 0416 52455345 		.ascii	"RESERVED1\000"
 4132      52564544 
 4132      3100
 4133              	.LASF84:
 4134 0420 52455345 		.ascii	"RESERVED2\000"
 4134      52564544 
 4134      3200
 4135              	.LASF85:
 4136 042a 52455345 		.ascii	"RESERVED3\000"
 4136      52564544 
 4136      3300
 4137              	.LASF86:
 4138 0434 52455345 		.ascii	"RESERVED4\000"
 4138      52564544 
 4138      3400
 4139              	.LASF31:
 4140 043e 705F7072 		.ascii	"p_prev\000"
 4140      657600
 4141              	.LASF89:
 4142 0445 52455345 		.ascii	"RESERVED6\000"
 4142      52564544 
 4142      3600
 4143              	.LASF24:
 4144 044f 74707269 		.ascii	"tprio_t\000"
 4144      6F5F7400 
 4145              	.LASF76:
 4146 0457 715F7264 		.ascii	"q_rdptr\000"
 4146      70747200 
 4147              	.LASF21:
 4148 045f 5F426F6F 		.ascii	"_Bool\000"
 4148      6C00
 4149              	.LASF17:
 4150 0465 696E7433 		.ascii	"int32_t\000"
 4150      325F7400 
 4151              	.LASF4:
 4152 046d 756E7369 		.ascii	"unsigned char\000"
 4152      676E6564 
 4152      20636861 
 4152      7200
 4153              	.LASF129:
 4154 047b 73645F6C 		.ascii	"sd_lld_start\000"
ARM GAS  /tmp/ccoJNTt5.s 			page 78


 4154      6C645F73 
 4154      74617274 
 4154      00
 4155              	.LASF60:
 4156 0488 656C5F6C 		.ascii	"el_listener\000"
 4156      69737465 
 4156      6E657200 
 4157              	.LASF62:
 4158 0494 656C5F66 		.ascii	"el_flags\000"
 4158      6C616773 
 4158      00
 4159              	.LASF38:
 4160 049d 705F7374 		.ascii	"p_state\000"
 4160      61746500 
 4161              	.LASF45:
 4162 04a5 705F6D74 		.ascii	"p_mtxlist\000"
 4162      786C6973 
 4162      7400
 4163              	.LASF5:
 4164 04af 73686F72 		.ascii	"short int\000"
 4164      7420696E 
 4164      7400
 4165              	.LASF68:
 4166 04b9 65776D61 		.ascii	"ewmask\000"
 4166      736B00
 4167              	.LASF30:
 4168 04c0 705F6E65 		.ascii	"p_next\000"
 4168      787400
 4169              	.LASF39:
 4170 04c7 705F666C 		.ascii	"p_flags\000"
 4170      61677300 
 4171              	.LASF59:
 4172 04cf 656C5F6E 		.ascii	"el_next\000"
 4172      65787400 
 4173              	.LASF29:
 4174 04d7 54687265 		.ascii	"Thread\000"
 4174      616400
 4175              	.LASF44:
 4176 04de 705F6570 		.ascii	"p_epending\000"
 4176      656E6469 
 4176      6E6700
 4177              	.LASF91:
 4178 04e9 53445F55 		.ascii	"SD_UNINIT\000"
 4178      4E494E49 
 4178      5400
 4179              	.LASF87:
 4180 04f3 52455345 		.ascii	"RESERVED5\000"
 4180      52564544 
 4180      3500
 4181              	.LASF18:
 4182 04fd 75696E74 		.ascii	"uint32_t\000"
 4182      33325F74 
 4182      00
 4183              	.LASF94:
 4184 0506 73647374 		.ascii	"sdstate_t\000"
 4184      6174655F 
 4184      7400
ARM GAS  /tmp/ccoJNTt5.s 			page 79


 4185              	.LASF95:
 4186 0510 53657269 		.ascii	"SerialDriver\000"
 4186      616C4472 
 4186      69766572 
 4186      00
 4187              	.LASF11:
 4188 051d 6C6F6E67 		.ascii	"long unsigned int\000"
 4188      20756E73 
 4188      69676E65 
 4188      6420696E 
 4188      7400
 4189              	.LASF105:
 4190 052f 72656164 		.ascii	"read\000"
 4190      00
 4191              	.LASF69:
 4192 0534 63686172 		.ascii	"char\000"
 4192      00
 4193              	.LASF119:
 4194 0539 7364496E 		.ascii	"sdIncomingDataI\000"
 4194      636F6D69 
 4194      6E674461 
 4194      74614900 
 4195              	.LASF117:
 4196 0549 636F6E66 		.ascii	"config\000"
 4196      696700
 4197              	.LASF116:
 4198 0550 73645374 		.ascii	"sdStart\000"
 4198      61727400 
 4199              	.LASF6:
 4200 0558 5F5F7569 		.ascii	"__uint16_t\000"
 4200      6E743136 
 4200      5F7400
 4201              	.LASF57:
 4202 0563 6D5F6E65 		.ascii	"m_next\000"
 4202      787400
 4203              	.LASF28:
 4204 056a 73797374 		.ascii	"systime_t\000"
 4204      696D655F 
 4204      7400
 4205              	.LASF46:
 4206 0574 705F7265 		.ascii	"p_realprio\000"
 4206      616C7072 
 4206      696F00
 4207              	.LASF8:
 4208 057f 5F5F696E 		.ascii	"__int32_t\000"
 4208      7433325F 
 4208      7400
 4209              	.LASF132:
 4210 0589 63684F51 		.ascii	"chOQResetI\000"
 4210      52657365 
 4210      744900
 4211              	.LASF52:
 4212 0594 636F6E74 		.ascii	"context\000"
 4212      65787400 
 4213              	.LASF51:
 4214 059c 696E7463 		.ascii	"intctx\000"
 4214      747800
ARM GAS  /tmp/ccoJNTt5.s 			page 80


 4215              	.LASF93:
 4216 05a3 53445F52 		.ascii	"SD_READY\000"
 4216      45414459 
 4216      00
 4217              	.LASF27:
 4218 05ac 666C6167 		.ascii	"flagsmask_t\000"
 4218      736D6173 
 4218      6B5F7400 
 4219              	.LASF74:
 4220 05b8 715F746F 		.ascii	"q_top\000"
 4220      7000
 4221              	.LASF36:
 4222 05be 705F6E61 		.ascii	"p_name\000"
 4222      6D6500
 4223              	.LASF64:
 4224 05c5 65735F6E 		.ascii	"es_next\000"
 4224      65787400 
 4225              	.LASF77:
 4226 05cd 715F6E6F 		.ascii	"q_notify\000"
 4226      74696679 
 4226      00
 4227              	.LASF142:
 4228 05d6 73645265 		.ascii	"sdRequestDataI\000"
 4228      71756573 
 4228      74446174 
 4228      614900
 4229              	.LASF15:
 4230 05e5 75696E74 		.ascii	"uint8_t\000"
 4230      385F7400 
 4231              	.LASF115:
 4232 05ed 6F6E6F74 		.ascii	"onotify\000"
 4232      69667900 
 4233              	.LASF58:
 4234 05f5 4576656E 		.ascii	"EventListener\000"
 4234      744C6973 
 4234      74656E65 
 4234      7200
 4235              	.LASF67:
 4236 0603 77746F62 		.ascii	"wtobjp\000"
 4236      6A7000
 4237              	.LASF43:
 4238 060a 705F6D73 		.ascii	"p_msg\000"
 4238      6700
 4239              	.LASF131:
 4240 0610 73645F6C 		.ascii	"sd_lld_stop\000"
 4240      6C645F73 
 4240      746F7000 
 4241              	.LASF111:
 4242 061c 74696D65 		.ascii	"timeout\000"
 4242      6F757400 
 4243              	.LASF112:
 4244 0624 7364496E 		.ascii	"sdInit\000"
 4244      697400
 4245              	.LASF124:
 4246 062b 63684951 		.ascii	"chIQInit\000"
 4246      496E6974 
 4246      00
ARM GAS  /tmp/ccoJNTt5.s 			page 81


 4247              	.LASF140:
 4248 0634 2E2E2F2E 		.ascii	"../../../os/hal/src/serial.c\000"
 4248      2E2F2E2E 
 4248      2F6F732F 
 4248      68616C2F 
 4248      7372632F 
 4249              	.LASF56:
 4250 0651 6D5F6F77 		.ascii	"m_owner\000"
 4250      6E657200 
 4251              	.LASF33:
 4252 0659 705F6374 		.ascii	"p_ctx\000"
 4252      7800
 4253              	.LASF41:
 4254 065f 705F7761 		.ascii	"p_waiting\000"
 4254      6974696E 
 4254      6700
 4255              	.LASF122:
 4256 0669 63684951 		.ascii	"chIQGetTimeout\000"
 4256      47657454 
 4256      696D656F 
 4256      757400
 4257              		.ident	"GCC: (Arch Repository) 4.8.2"
ARM GAS  /tmp/ccoJNTt5.s 			page 82


DEFINED SYMBOLS
                            *ABS*:0000000000000000 serial.c
     /tmp/ccoJNTt5.s:19     .text.readt:0000000000000000 $t
     /tmp/ccoJNTt5.s:24     .text.readt:0000000000000000 readt
     /tmp/ccoJNTt5.s:42     .text.read:0000000000000000 $t
     /tmp/ccoJNTt5.s:47     .text.read:0000000000000000 read
     /tmp/ccoJNTt5.s:65     .text.writet:0000000000000000 $t
     /tmp/ccoJNTt5.s:70     .text.writet:0000000000000000 writet
     /tmp/ccoJNTt5.s:87     .text.write:0000000000000000 $t
     /tmp/ccoJNTt5.s:92     .text.write:0000000000000000 write
     /tmp/ccoJNTt5.s:110    .text.gett:0000000000000000 $t
     /tmp/ccoJNTt5.s:115    .text.gett:0000000000000000 gett
     /tmp/ccoJNTt5.s:132    .text.get:0000000000000000 $t
     /tmp/ccoJNTt5.s:137    .text.get:0000000000000000 get
     /tmp/ccoJNTt5.s:155    .text.putt:0000000000000000 $t
     /tmp/ccoJNTt5.s:160    .text.putt:0000000000000000 putt
     /tmp/ccoJNTt5.s:177    .text.put:0000000000000000 $t
     /tmp/ccoJNTt5.s:182    .text.put:0000000000000000 put
     /tmp/ccoJNTt5.s:200    .text.sdInit:0000000000000000 $t
     /tmp/ccoJNTt5.s:206    .text.sdInit:0000000000000000 sdInit
     /tmp/ccoJNTt5.s:220    .text.sdObjectInit:0000000000000000 $t
     /tmp/ccoJNTt5.s:226    .text.sdObjectInit:0000000000000000 sdObjectInit
     /tmp/ccoJNTt5.s:593    .rodata.vmt:0000000000000000 .LANCHOR0
     /tmp/ccoJNTt5.s:285    .text.sdStart:0000000000000000 $t
     /tmp/ccoJNTt5.s:291    .text.sdStart:0000000000000000 sdStart
     /tmp/ccoJNTt5.s:578    .rodata.str1.4:000000000000000c .LC1
     /tmp/ccoJNTt5.s:576    .rodata.str1.4:0000000000000000 .LC0
     /tmp/ccoJNTt5.s:360    .text.sdStop:0000000000000000 $t
     /tmp/ccoJNTt5.s:366    .text.sdStop:0000000000000000 sdStop
     /tmp/ccoJNTt5.s:584    .rodata.str1.4:0000000000000028 .LC3
     /tmp/ccoJNTt5.s:581    .rodata.str1.4:000000000000001c .LC2
     /tmp/ccoJNTt5.s:440    .text.sdIncomingDataI:0000000000000000 $t
     /tmp/ccoJNTt5.s:446    .text.sdIncomingDataI:0000000000000000 sdIncomingDataI
     /tmp/ccoJNTt5.s:587    .rodata.str1.4:0000000000000038 .LC4
     /tmp/ccoJNTt5.s:515    .text.sdRequestDataI:0000000000000000 $t
     /tmp/ccoJNTt5.s:521    .text.sdRequestDataI:0000000000000000 sdRequestDataI
     /tmp/ccoJNTt5.s:589    .rodata.str1.4:000000000000004c .LC5
     /tmp/ccoJNTt5.s:575    .rodata.str1.4:0000000000000000 $d
     /tmp/ccoJNTt5.s:592    .rodata.vmt:0000000000000000 $d
     /tmp/ccoJNTt5.s:596    .rodata.vmt:0000000000000000 vmt
                     .debug_frame:0000000000000010 $d

UNDEFINED SYMBOLS
chIQReadTimeout
chOQWriteTimeout
chIQGetTimeout
chOQPutTimeout
sd_lld_init
chIQInit
chOQInit
_port_lock
dbg_check_lock
chDbgPanic
sd_lld_start
dbg_check_unlock
_port_unlock
sd_lld_stop
ARM GAS  /tmp/ccoJNTt5.s 			page 83


chOQResetI
chIQResetI
chSchRescheduleS
chDbgCheckClassI
chIQPutI
chEvtBroadcastFlagsI
chOQGetI
