ARM GAS  /tmp/ccFAambi.s 			page 1


   1              		.syntax unified
   2              		.cpu cortex-m4
   3              		.fpu softvfp
   4              		.eabi_attribute 20, 1
   5              		.eabi_attribute 21, 1
   6              		.eabi_attribute 23, 3
   7              		.eabi_attribute 24, 1
   8              		.eabi_attribute 25, 1
   9              		.eabi_attribute 26, 1
  10              		.eabi_attribute 30, 2
  11              		.eabi_attribute 34, 1
  12              		.eabi_attribute 18, 4
  13              		.thumb
  14              		.file	"serial_lld.c"
  15              		.text
  16              	.Ltext0:
  17              		.cfi_sections	.debug_frame
  18              		.section	.text.notify2,"ax",%progbits
  19              		.align	2
  20              		.p2align 4,,15
  21              		.thumb
  22              		.thumb_func
  23              		.type	notify2, %function
  24              	notify2:
  25              	.LFB115:
  26              		.file 1 "../../../os/hal/platforms/STM32/USARTv1/serial_lld.c"
  27              		.loc 1 211 0
  28              		.cfi_startproc
  29              		@ args = 0, pretend = 0, frame = 0
  30              		@ frame_needed = 0, uses_anonymous_args = 0
  31              		@ link register save eliminated.
  32              	.LVL0:
  33              		.loc 1 214 0
  34 0000 4FF48843 		mov	r3, #17408
  35 0004 C4F20003 		movt	r3, 16384
  36 0008 9A89     		ldrh	r2, [r3, #12]
  37 000a 92B2     		uxth	r2, r2
  38 000c 42F08002 		orr	r2, r2, #128
  39 0010 9A81     		strh	r2, [r3, #12]	@ movhi
  40 0012 7047     		bx	lr
  41              		.cfi_endproc
  42              	.LFE115:
  43              		.size	notify2, .-notify2
  44              		.section	.text.VectorD8,"ax",%progbits
  45              		.align	2
  46              		.p2align 4,,15
  47              		.global	VectorD8
  48              		.thumb
  49              		.thumb_func
  50              		.type	VectorD8, %function
  51              	VectorD8:
  52              	.LFB116:
  53              		.loc 1 282 0
  54              		.cfi_startproc
  55              		@ args = 0, pretend = 0, frame = 0
  56              		@ frame_needed = 0, uses_anonymous_args = 0
  57 0000 70B5     		push	{r4, r5, r6, lr}
ARM GAS  /tmp/ccFAambi.s 			page 2


  58              		.cfi_def_cfa_offset 16
  59              		.cfi_offset 4, -16
  60              		.cfi_offset 5, -12
  61              		.cfi_offset 6, -8
  62              		.cfi_offset 14, -4
  63              		.loc 1 284 0
  64 0002 FFF7FEFF 		bl	dbg_check_enter_isr
  65              	.LVL1:
  66              	.LBB10:
  67              	.LBB11:
  68              		.loc 1 155 0
  69 0006 40F20003 		movw	r3, #:lower16:.LANCHOR0
  70 000a C0F20003 		movt	r3, #:upper16:.LANCHOR0
  71 000e 5D6F     		ldr	r5, [r3, #116]
  72              	.LVL2:
  73              		.loc 1 156 0
  74 0010 AE89     		ldrh	r6, [r5, #12]
  75              		.loc 1 157 0
  76 0012 2C88     		ldrh	r4, [r5]
  77 0014 A4B2     		uxth	r4, r4
  78              		.loc 1 160 0
  79 0016 E005     		lsls	r0, r4, #23
  80              		.loc 1 156 0
  81 0018 B6B2     		uxth	r6, r6
  82              	.LVL3:
  83              		.loc 1 160 0
  84 001a 4DD4     		bmi	.L47
  85              	.L3:
  86              		.loc 1 168 0
  87              	@ 168 "../../../os/hal/platforms/STM32/USARTv1/serial_lld.c" 1
  88 001c FFF7FEFF 		bl      _port_lock
  89              	@ 0 "" 2
  90              		.thumb
  91 0020 FFF7FEFF 		bl	dbg_check_lock_from_isr
  92              	.LVL4:
  93              		.loc 1 169 0
  94 0024 A106     		lsls	r1, r4, #26
  95 0026 24D5     		bpl	.L4
  96 0028 0BE0     		b	.L10
  97              	.LVL5:
  98              	.L5:
  99              		.loc 1 173 0
 100 002a A988     		ldrh	r1, [r5, #4]
 101 002c 40F20000 		movw	r0, #:lower16:.LANCHOR0
 102 0030 C0F20000 		movt	r0, #:upper16:.LANCHOR0
 103 0034 C9B2     		uxtb	r1, r1
 104 0036 FFF7FEFF 		bl	sdIncomingDataI
 105              	.LVL6:
 106              		.loc 1 174 0
 107 003a 2C88     		ldrh	r4, [r5]
 108 003c A4B2     		uxth	r4, r4
 109              	.LVL7:
 110              		.loc 1 169 0
 111 003e A006     		lsls	r0, r4, #26
 112 0040 17D5     		bpl	.L4
 113              	.LVL8:
 114              	.L10:
ARM GAS  /tmp/ccFAambi.s 			page 3


 115              		.loc 1 171 0
 116 0042 2207     		lsls	r2, r4, #28
 117 0044 F1D0     		beq	.L5
 118              	.LVL9:
 119              	.LBB12:
 120              	.LBB13:
 121              		.loc 1 136 0
 122 0046 14F0080F 		tst	r4, #8
 123 004a 14BF     		ite	ne
 124 004c 8021     		movne	r1, #128
 125 004e 0021     		moveq	r1, #0
 126              	.LVL10:
 127              		.loc 1 140 0
 128 0050 14F0010F 		tst	r4, #1
 129              		.loc 1 141 0
 130 0054 18BF     		it	ne
 131 0056 41F02001 		orrne	r1, r1, #32
 132              	.LVL11:
 133              		.loc 1 142 0
 134 005a A307     		lsls	r3, r4, #30
 135              		.loc 1 143 0
 136 005c 48BF     		it	mi
 137 005e 41F04001 		orrmi	r1, r1, #64
 138              	.LVL12:
 139              		.loc 1 144 0
 140 0062 6407     		lsls	r4, r4, #29
 141              	.LVL13:
 142              		.loc 1 146 0
 143 0064 2A48     		ldr	r0, .L50
 144              		.loc 1 145 0
 145 0066 48BF     		it	mi
 146 0068 41F48071 		orrmi	r1, r1, #256
 147              	.LVL14:
 148              		.loc 1 146 0
 149 006c FFF7FEFF 		bl	chEvtBroadcastFlagsI
 150              	.LVL15:
 151 0070 DBE7     		b	.L5
 152              	.LVL16:
 153              	.L4:
 154              	.LBE13:
 155              	.LBE12:
 156              		.loc 1 176 0
 157 0072 FFF7FEFF 		bl	dbg_check_unlock_from_isr
 158              	.LVL17:
 159              	@ 176 "../../../os/hal/platforms/STM32/USARTv1/serial_lld.c" 1
 160 0076 FFF7FEFF 		bl      _port_unlock
 161              	@ 0 "" 2
 162              		.loc 1 179 0
 163              		.thumb
 164 007a 3106     		lsls	r1, r6, #24
 165 007c 01D5     		bpl	.L11
 166 007e 2206     		lsls	r2, r4, #24
 167 0080 2BD4     		bmi	.L48
 168              	.L11:
 169              		.loc 1 193 0
 170 0082 6306     		lsls	r3, r4, #25
 171 0084 12D5     		bpl	.L14
ARM GAS  /tmp/ccFAambi.s 			page 4


 172              		.loc 1 194 0
 173              	@ 194 "../../../os/hal/platforms/STM32/USARTv1/serial_lld.c" 1
 174 0086 FFF7FEFF 		bl      _port_lock
 175              	@ 0 "" 2
 176              		.thumb
 177 008a FFF7FEFF 		bl	dbg_check_lock_from_isr
 178              	.LVL18:
 179              		.loc 1 195 0
 180 008e 2048     		ldr	r0, .L50
 181 0090 1021     		movs	r1, #16
 182 0092 FFF7FEFF 		bl	chEvtBroadcastFlagsI
 183              	.LVL19:
 184              		.loc 1 196 0
 185 0096 FFF7FEFF 		bl	dbg_check_unlock_from_isr
 186              	.LVL20:
 187              	@ 196 "../../../os/hal/platforms/STM32/USARTv1/serial_lld.c" 1
 188 009a FFF7FEFF 		bl      _port_unlock
 189              	@ 0 "" 2
 190              		.loc 1 197 0
 191              		.thumb
 192 009e 4FF63F73 		movw	r3, #65343
 193 00a2 3340     		ands	r3, r3, r6
 194              		.loc 1 198 0
 195 00a4 4FF6BF72 		movw	r2, #65471
 196              		.loc 1 197 0
 197 00a8 AB81     		strh	r3, [r5, #12]	@ movhi
 198              		.loc 1 198 0
 199 00aa 2A80     		strh	r2, [r5]	@ movhi
 200              	.L14:
 201              	.LBE11:
 202              	.LBE10:
 203              		.loc 1 288 0
 204 00ac FFF7FEFF 		bl	dbg_check_leave_isr
 205              	.LVL21:
 206              		.loc 1 289 0
 207 00b0 BDE87040 		pop	{r4, r5, r6, lr}
 208              	.LVL22:
 209              		.loc 1 288 0
 210 00b4 FFF7FEBF 		b	_port_irq_epilogue
 211              	.LVL23:
 212              	.L47:
 213              	.LBB16:
 214              	.LBB15:
 215              		.loc 1 161 0
 216              	@ 161 "../../../os/hal/platforms/STM32/USARTv1/serial_lld.c" 1
 217 00b8 FFF7FEFF 		bl      _port_lock
 218              	@ 0 "" 2
 219              		.thumb
 220 00bc FFF7FEFF 		bl	dbg_check_lock_from_isr
 221              	.LVL24:
 222              		.loc 1 162 0
 223 00c0 1348     		ldr	r0, .L50
 224 00c2 4FF40071 		mov	r1, #512
 225 00c6 FFF7FEFF 		bl	chEvtBroadcastFlagsI
 226              	.LVL25:
 227              		.loc 1 163 0
 228 00ca FFF7FEFF 		bl	dbg_check_unlock_from_isr
ARM GAS  /tmp/ccFAambi.s 			page 5


 229              	.LVL26:
 230              	@ 163 "../../../os/hal/platforms/STM32/USARTv1/serial_lld.c" 1
 231 00ce FFF7FEFF 		bl      _port_unlock
 232              	@ 0 "" 2
 233              		.loc 1 164 0
 234              		.thumb
 235 00d2 4FF6FF63 		movw	r3, #65279
 236 00d6 2B80     		strh	r3, [r5]	@ movhi
 237 00d8 A0E7     		b	.L3
 238              	.LVL27:
 239              	.L48:
 240              	.LBB14:
 241              		.loc 1 181 0
 242              	@ 181 "../../../os/hal/platforms/STM32/USARTv1/serial_lld.c" 1
 243 00da FFF7FEFF 		bl      _port_lock
 244              	@ 0 "" 2
 245              		.thumb
 246 00de FFF7FEFF 		bl	dbg_check_lock_from_isr
 247              	.LVL28:
 248              		.loc 1 182 0
 249 00e2 0C48     		ldr	r0, .L50+4
 250 00e4 FFF7FEFF 		bl	chOQGetI
 251              	.LVL29:
 252              		.loc 1 183 0
 253 00e8 0028     		cmp	r0, #0
 254              		.loc 1 188 0
 255 00ea A4BF     		itt	ge
 256 00ec 80B2     		uxthge	r0, r0
 257              	.LVL30:
 258 00ee A880     		strhge	r0, [r5, #4]	@ movhi
 259              		.loc 1 183 0
 260 00f0 04DB     		blt	.L49
 261              	.L13:
 262              		.loc 1 189 0
 263 00f2 FFF7FEFF 		bl	dbg_check_unlock_from_isr
 264              	.LVL31:
 265              	@ 189 "../../../os/hal/platforms/STM32/USARTv1/serial_lld.c" 1
 266 00f6 FFF7FEFF 		bl      _port_unlock
 267              	@ 0 "" 2
 268              		.thumb
 269 00fa C2E7     		b	.L11
 270              	.L49:
 271              		.loc 1 184 0
 272 00fc 0448     		ldr	r0, .L50
 273 00fe 0821     		movs	r1, #8
 274 0100 FFF7FEFF 		bl	chEvtBroadcastFlagsI
 275              	.LVL32:
 276              		.loc 1 185 0
 277 0104 26F0C003 		bic	r3, r6, #192
 278 0108 43F04003 		orr	r3, r3, #64
 279 010c AB81     		strh	r3, [r5, #12]	@ movhi
 280 010e F0E7     		b	.L13
 281              	.L51:
 282              		.align	2
 283              	.L50:
 284 0110 04000000 		.word	.LANCHOR0+4
 285 0114 30000000 		.word	.LANCHOR0+48
ARM GAS  /tmp/ccFAambi.s 			page 6


 286              	.LBE14:
 287              	.LBE15:
 288              	.LBE16:
 289              		.cfi_endproc
 290              	.LFE116:
 291              		.size	VectorD8, .-VectorD8
 292 0118 AFF30080 		.section	.text.sd_lld_init,"ax",%progbits
 292      AFF30080 
 293              		.align	2
 294              		.p2align 4,,15
 295              		.global	sd_lld_init
 296              		.thumb
 297              		.thumb_func
 298              		.type	sd_lld_init, %function
 299              	sd_lld_init:
 300              	.LFB117:
 301              		.loc 1 377 0
 302              		.cfi_startproc
 303              		@ args = 0, pretend = 0, frame = 0
 304              		@ frame_needed = 0, uses_anonymous_args = 0
 305 0000 10B5     		push	{r4, lr}
 306              		.cfi_def_cfa_offset 8
 307              		.cfi_offset 4, -8
 308              		.cfi_offset 14, -4
 309              		.loc 1 385 0
 310 0002 40F20004 		movw	r4, #:lower16:.LANCHOR0
 311 0006 C0F20004 		movt	r4, #:upper16:.LANCHOR0
 312 000a 40F20002 		movw	r2, #:lower16:notify2
 313 000e 2046     		mov	r0, r4
 314 0010 C0F20002 		movt	r2, #:upper16:notify2
 315 0014 0021     		movs	r1, #0
 316 0016 FFF7FEFF 		bl	sdObjectInit
 317              	.LVL33:
 318              		.loc 1 386 0
 319 001a 4FF48843 		mov	r3, #17408
 320 001e C4F20003 		movt	r3, 16384
 321 0022 6367     		str	r3, [r4, #116]
 322 0024 10BD     		pop	{r4, pc}
 323              		.cfi_endproc
 324              	.LFE117:
 325              		.size	sd_lld_init, .-sd_lld_init
 326 0026 00BFAFF3 		.section	.text.sd_lld_start,"ax",%progbits
 326      0080AFF3 
 326      0080
 327              		.align	2
 328              		.p2align 4,,15
 329              		.global	sd_lld_start
 330              		.thumb
 331              		.thumb_func
 332              		.type	sd_lld_start, %function
 333              	sd_lld_start:
 334              	.LFB118:
 335              		.loc 1 420 0
 336              		.cfi_startproc
 337              		@ args = 0, pretend = 0, frame = 0
 338              		@ frame_needed = 0, uses_anonymous_args = 0
 339              	.LVL34:
ARM GAS  /tmp/ccFAambi.s 			page 7


 340 0000 38B5     		push	{r3, r4, r5, lr}
 341              		.cfi_def_cfa_offset 16
 342              		.cfi_offset 3, -16
 343              		.cfi_offset 4, -12
 344              		.cfi_offset 5, -8
 345              		.cfi_offset 14, -4
 346              		.loc 1 423 0
 347 0002 40F20004 		movw	r4, #:lower16:.LANCHOR1
 348              		.loc 1 425 0
 349 0006 037A     		ldrb	r3, [r0, #8]	@ zero_extendqisi2
 350              		.loc 1 423 0
 351 0008 C0F20004 		movt	r4, #:upper16:.LANCHOR1
 352 000c 0029     		cmp	r1, #0
 353 000e 18BF     		it	ne
 354 0010 0C46     		movne	r4, r1
 355              	.LVL35:
 356              		.loc 1 425 0
 357 0012 012B     		cmp	r3, #1
 358              		.loc 1 420 0
 359 0014 0546     		mov	r5, r0
 360              		.loc 1 425 0
 361 0016 31D0     		beq	.L59
 362              	.LVL36:
 363              	.L55:
 364              		.loc 1 420 0
 365 0018 6B6F     		ldr	r3, [r5, #116]
 366              	.LVL37:
 367              	.LBB19:
 368              	.LBB20:
 369              		.loc 1 97 0
 370 001a 4FF4A051 		mov	r1, #5120
 371 001e 4FF48052 		mov	r2, #4096
 372 0022 C4F20102 		movt	r2, 16385
 373 0026 C4F20101 		movt	r1, 16385
 374 002a 9342     		cmp	r3, r2
 375 002c 18BF     		it	ne
 376 002e 8B42     		cmpne	r3, r1
 377              		.loc 1 101 0
 378 0030 0BBF     		itete	eq
 379 0032 2168     		ldreq	r1, [r4]
 380              		.loc 1 103 0
 381 0034 2168     		ldrne	r1, [r4]
 382              		.loc 1 101 0
 383 0036 4FF43D42 		moveq	r2, #48384
 384              		.loc 1 103 0
 385 003a 4DF68062 		movwne	r2, #56960
 386              		.loc 1 101 0
 387 003e 0CBF     		ite	eq
 388 0040 C0F20152 		movteq	r2, 1281
 389              		.loc 1 103 0
 390 0044 C0F28022 		movtne	r2, 640
 391 0048 B2FBF1F2 		udiv	r2, r2, r1
 392 004c 92B2     		uxth	r2, r2
 393 004e 1A81     		strh	r2, [r3, #8]	@ movhi
 394              		.loc 1 108 0
 395 0050 A288     		ldrh	r2, [r4, #4]
 396              		.loc 1 106 0
ARM GAS  /tmp/ccFAambi.s 			page 8


 397 0052 E188     		ldrh	r1, [r4, #6]
 398              		.loc 1 107 0
 399 0054 2089     		ldrh	r0, [r4, #8]
 400              		.loc 1 108 0
 401 0056 42F40452 		orr	r2, r2, #8448
 402              		.loc 1 106 0
 403 005a 41F04004 		orr	r4, r1, #64
 404              	.LVL38:
 405              		.loc 1 108 0
 406 005e 42F02C02 		orr	r2, r2, #44
 407              		.loc 1 107 0
 408 0062 40F00100 		orr	r0, r0, #1
 409              		.loc 1 108 0
 410 0066 92B2     		uxth	r2, r2
 411              		.loc 1 106 0
 412 0068 A4B2     		uxth	r4, r4
 413              		.loc 1 107 0
 414 006a 80B2     		uxth	r0, r0
 415              		.loc 1 111 0
 416 006c 0021     		movs	r1, #0
 417              		.loc 1 106 0
 418 006e 1C82     		strh	r4, [r3, #16]	@ movhi
 419              		.loc 1 107 0
 420 0070 9882     		strh	r0, [r3, #20]	@ movhi
 421              		.loc 1 108 0
 422 0072 9A81     		strh	r2, [r3, #12]	@ movhi
 423              		.loc 1 111 0
 424 0074 1980     		strh	r1, [r3]	@ movhi
 425              		.loc 1 112 0
 426 0076 1A88     		ldrh	r2, [r3]
 427              		.loc 1 113 0
 428 0078 9B88     		ldrh	r3, [r3, #4]
 429              	.LVL39:
 430 007a 38BD     		pop	{r3, r4, r5, pc}
 431              	.LVL40:
 432              	.L59:
 433              	.LBE20:
 434              	.LBE19:
 435              		.loc 1 434 0
 436 007c 40F20003 		movw	r3, #:lower16:.LANCHOR0
 437 0080 C0F20003 		movt	r3, #:upper16:.LANCHOR0
 438 0084 9842     		cmp	r0, r3
 439 0086 C7D1     		bne	.L55
 440              		.loc 1 435 0
 441 0088 4FF46053 		mov	r3, #14336
 442 008c C4F20203 		movt	r3, 16386
 443              		.loc 1 436 0
 444 0090 2620     		movs	r0, #38
 445              	.LVL41:
 446              		.loc 1 435 0
 447 0092 1A6C     		ldr	r2, [r3, #64]
 448 0094 42F40032 		orr	r2, r2, #131072
 449 0098 1A64     		str	r2, [r3, #64]
 450              		.loc 1 436 0
 451 009a C021     		movs	r1, #192
 452 009c FFF7FEFF 		bl	nvicEnableVector
 453              	.LVL42:
ARM GAS  /tmp/ccFAambi.s 			page 9


 454 00a0 BAE7     		b	.L55
 455              		.cfi_endproc
 456              	.LFE118:
 457              		.size	sd_lld_start, .-sd_lld_start
 458 00a2 00BFAFF3 		.section	.text.sd_lld_stop,"ax",%progbits
 458      0080AFF3 
 458      0080AFF3 
 458      0080
 459              		.align	2
 460              		.p2align 4,,15
 461              		.global	sd_lld_stop
 462              		.thumb
 463              		.thumb_func
 464              		.type	sd_lld_stop, %function
 465              	sd_lld_stop:
 466              	.LFB119:
 467              		.loc 1 481 0
 468              		.cfi_startproc
 469              		@ args = 0, pretend = 0, frame = 0
 470              		@ frame_needed = 0, uses_anonymous_args = 0
 471              		@ link register save eliminated.
 472              	.LVL43:
 473              		.loc 1 483 0
 474 0000 037A     		ldrb	r3, [r0, #8]	@ zero_extendqisi2
 475 0002 022B     		cmp	r3, #2
 476 0004 00D0     		beq	.L64
 477              	.L60:
 478 0006 7047     		bx	lr
 479              	.L64:
 480              		.loc 1 493 0
 481 0008 40F20003 		movw	r3, #:lower16:.LANCHOR0
 482              		.loc 1 484 0
 483 000c 426F     		ldr	r2, [r0, #116]
 484              	.LVL44:
 485              		.loc 1 493 0
 486 000e C0F20003 		movt	r3, #:upper16:.LANCHOR0
 487              	.LBB21:
 488              	.LBB22:
 489              		.loc 1 124 0
 490 0012 0021     		movs	r1, #0
 491              	.LBE22:
 492              	.LBE21:
 493              		.loc 1 493 0
 494 0014 9842     		cmp	r0, r3
 495              	.LBB24:
 496              	.LBB23:
 497              		.loc 1 124 0
 498 0016 9181     		strh	r1, [r2, #12]	@ movhi
 499              		.loc 1 125 0
 500 0018 1182     		strh	r1, [r2, #16]	@ movhi
 501              		.loc 1 126 0
 502 001a 9182     		strh	r1, [r2, #20]	@ movhi
 503              	.LBE23:
 504              	.LBE24:
 505              		.loc 1 493 0
 506 001c F3D1     		bne	.L60
 507              		.loc 1 494 0
ARM GAS  /tmp/ccFAambi.s 			page 10


 508 001e 4FF46053 		mov	r3, #14336
 509 0022 C4F20203 		movt	r3, 16386
 510              		.loc 1 495 0
 511 0026 2620     		movs	r0, #38
 512              	.LVL45:
 513              		.loc 1 494 0
 514 0028 1A6C     		ldr	r2, [r3, #64]
 515              	.LVL46:
 516 002a 22F40032 		bic	r2, r2, #131072
 517 002e 1A64     		str	r2, [r3, #64]
 518              		.loc 1 495 0
 519 0030 FFF7FEBF 		b	nvicDisableVector
 520              	.LVL47:
 521              		.cfi_endproc
 522              	.LFE119:
 523              		.size	sd_lld_stop, .-sd_lld_stop
 524              		.global	SD2
 525 0034 AFF30080 		.section	.rodata.default_config,"a",%progbits
 525      AFF30080 
 525      AFF30080 
 526              		.align	2
 527              		.set	.LANCHOR1,. + 0
 528              		.type	default_config, %object
 529              		.size	default_config, 12
 530              	default_config:
 531 0000 00960000 		.word	38400
 532 0004 0000     		.short	0
 533 0006 0040     		.short	16384
 534 0008 0000     		.short	0
 535 000a 0000     		.space	2
 536              		.section	.bss.SD2,"aw",%nobits
 537              		.align	2
 538              		.set	.LANCHOR0,. + 0
 539              		.type	SD2, %object
 540              		.size	SD2, 120
 541              	SD2:
 542 0000 00000000 		.space	120
 542      00000000 
 542      00000000 
 542      00000000 
 542      00000000 
 543              		.text
 544              	.Letext0:
 545              		.file 2 "/usr/lib/gcc/arm-none-eabi/4.8.2/include/stddef.h"
 546              		.file 3 "/usr/arm-none-eabi/include/machine/_default_types.h"
 547              		.file 4 "/usr/arm-none-eabi/include/stdint.h"
 548              		.file 5 "../../../os/ports/GCC/ARMCMx/chtypes.h"
 549              		.file 6 "../../../os/kernel/include/chlists.h"
 550              		.file 7 "../../../os/kernel/include/chthreads.h"
 551              		.file 8 "../../../os/ports/GCC/ARMCMx/chcore_v7m.h"
 552              		.file 9 "../../../os/kernel/include/chmtx.h"
 553              		.file 10 "../../../os/kernel/include/chevents.h"
 554              		.file 11 "../../../os/kernel/include/chqueues.h"
 555              		.file 12 "../../../os/hal/platforms/STM32F4xx/stm32f4xx.h"
 556              		.file 13 "../../../os/hal/include/serial.h"
 557              		.file 14 "../../../os/hal/platforms/STM32/USARTv1/serial_lld.h"
 558              		.file 15 "../../../os/kernel/include/chdebug.h"
ARM GAS  /tmp/ccFAambi.s 			page 11


 559              		.file 16 "../../../os/ports/common/ARMCMx/nvic.h"
 560              		.file 17 "../../../os/ports/common/ARMCMx/CMSIS/include/core_cm4.h"
 561              		.section	.debug_info,"",%progbits
 562              	.Ldebug_info0:
 563 0000 AA100000 		.4byte	0x10aa
 564 0004 0400     		.2byte	0x4
 565 0006 00000000 		.4byte	.Ldebug_abbrev0
 566 000a 04       		.byte	0x4
 567 000b 01       		.uleb128 0x1
 568 000c 270A0000 		.4byte	.LASF241
 569 0010 01       		.byte	0x1
 570 0011 75040000 		.4byte	.LASF242
 571 0015 4D020000 		.4byte	.LASF243
 572 0019 30000000 		.4byte	.Ldebug_ranges0+0x30
 573 001d 00000000 		.4byte	0
 574 0021 00000000 		.4byte	.Ldebug_line0
 575 0025 02       		.uleb128 0x2
 576 0026 04       		.byte	0x4
 577 0027 05       		.byte	0x5
 578 0028 696E7400 		.ascii	"int\000"
 579 002c 03       		.uleb128 0x3
 580 002d 00000000 		.4byte	.LASF2
 581 0031 02       		.byte	0x2
 582 0032 D4       		.byte	0xd4
 583 0033 37000000 		.4byte	0x37
 584 0037 04       		.uleb128 0x4
 585 0038 04       		.byte	0x4
 586 0039 07       		.byte	0x7
 587 003a 2B070000 		.4byte	.LASF0
 588 003e 04       		.uleb128 0x4
 589 003f 01       		.byte	0x1
 590 0040 06       		.byte	0x6
 591 0041 A2020000 		.4byte	.LASF1
 592 0045 03       		.uleb128 0x3
 593 0046 1C010000 		.4byte	.LASF3
 594 004a 03       		.byte	0x3
 595 004b 1C       		.byte	0x1c
 596 004c 50000000 		.4byte	0x50
 597 0050 04       		.uleb128 0x4
 598 0051 01       		.byte	0x1
 599 0052 08       		.byte	0x8
 600 0053 F7020000 		.4byte	.LASF4
 601 0057 04       		.uleb128 0x4
 602 0058 02       		.byte	0x2
 603 0059 05       		.byte	0x5
 604 005a CB090000 		.4byte	.LASF5
 605 005e 03       		.uleb128 0x3
 606 005f AA030000 		.4byte	.LASF6
 607 0063 03       		.byte	0x3
 608 0064 26       		.byte	0x26
 609 0065 69000000 		.4byte	0x69
 610 0069 04       		.uleb128 0x4
 611 006a 02       		.byte	0x2
 612 006b 07       		.byte	0x7
 613 006c 530B0000 		.4byte	.LASF7
 614 0070 03       		.uleb128 0x3
 615 0071 DB0B0000 		.4byte	.LASF8
ARM GAS  /tmp/ccFAambi.s 			page 12


 616 0075 03       		.byte	0x3
 617 0076 37       		.byte	0x37
 618 0077 7B000000 		.4byte	0x7b
 619 007b 04       		.uleb128 0x4
 620 007c 04       		.byte	0x4
 621 007d 05       		.byte	0x5
 622 007e 9F010000 		.4byte	.LASF9
 623 0082 03       		.uleb128 0x3
 624 0083 29060000 		.4byte	.LASF10
 625 0087 03       		.byte	0x3
 626 0088 38       		.byte	0x38
 627 0089 8D000000 		.4byte	0x8d
 628 008d 04       		.uleb128 0x4
 629 008e 04       		.byte	0x4
 630 008f 07       		.byte	0x7
 631 0090 69050000 		.4byte	.LASF11
 632 0094 04       		.uleb128 0x4
 633 0095 08       		.byte	0x8
 634 0096 05       		.byte	0x5
 635 0097 54060000 		.4byte	.LASF12
 636 009b 03       		.uleb128 0x3
 637 009c 54050000 		.4byte	.LASF13
 638 00a0 03       		.byte	0x3
 639 00a1 4E       		.byte	0x4e
 640 00a2 A6000000 		.4byte	0xa6
 641 00a6 04       		.uleb128 0x4
 642 00a7 08       		.byte	0x8
 643 00a8 07       		.byte	0x7
 644 00a9 A4080000 		.4byte	.LASF14
 645 00ad 03       		.uleb128 0x3
 646 00ae B5020000 		.4byte	.LASF15
 647 00b2 04       		.byte	0x4
 648 00b3 2A       		.byte	0x2a
 649 00b4 45000000 		.4byte	0x45
 650 00b8 03       		.uleb128 0x3
 651 00b9 C3080000 		.4byte	.LASF16
 652 00bd 04       		.byte	0x4
 653 00be 36       		.byte	0x36
 654 00bf 5E000000 		.4byte	0x5e
 655 00c3 03       		.uleb128 0x3
 656 00c4 51000000 		.4byte	.LASF17
 657 00c8 04       		.byte	0x4
 658 00c9 41       		.byte	0x41
 659 00ca 70000000 		.4byte	0x70
 660 00ce 03       		.uleb128 0x3
 661 00cf 050B0000 		.4byte	.LASF18
 662 00d3 04       		.byte	0x4
 663 00d4 42       		.byte	0x42
 664 00d5 82000000 		.4byte	0x82
 665 00d9 03       		.uleb128 0x3
 666 00da D5090000 		.4byte	.LASF19
 667 00de 04       		.byte	0x4
 668 00df 4E       		.byte	0x4e
 669 00e0 9B000000 		.4byte	0x9b
 670 00e4 04       		.uleb128 0x4
 671 00e5 01       		.byte	0x1
 672 00e6 02       		.byte	0x2
ARM GAS  /tmp/ccFAambi.s 			page 13


 673 00e7 57030000 		.4byte	.LASF20
 674 00eb 03       		.uleb128 0x3
 675 00ec 3F090000 		.4byte	.LASF21
 676 00f0 05       		.byte	0x5
 677 00f1 2C       		.byte	0x2c
 678 00f2 AD000000 		.4byte	0xad
 679 00f6 03       		.uleb128 0x3
 680 00f7 DF010000 		.4byte	.LASF22
 681 00fb 05       		.byte	0x5
 682 00fc 2D       		.byte	0x2d
 683 00fd AD000000 		.4byte	0xad
 684 0101 03       		.uleb128 0x3
 685 0102 3E000000 		.4byte	.LASF23
 686 0106 05       		.byte	0x5
 687 0107 30       		.byte	0x30
 688 0108 CE000000 		.4byte	0xce
 689 010c 03       		.uleb128 0x3
 690 010d CC080000 		.4byte	.LASF24
 691 0111 05       		.byte	0x5
 692 0112 31       		.byte	0x31
 693 0113 C3000000 		.4byte	0xc3
 694 0117 03       		.uleb128 0x3
 695 0118 BD020000 		.4byte	.LASF25
 696 011c 05       		.byte	0x5
 697 011d 33       		.byte	0x33
 698 011e CE000000 		.4byte	0xce
 699 0122 03       		.uleb128 0x3
 700 0123 97070000 		.4byte	.LASF26
 701 0127 05       		.byte	0x5
 702 0128 34       		.byte	0x34
 703 0129 CE000000 		.4byte	0xce
 704 012d 03       		.uleb128 0x3
 705 012e 23000000 		.4byte	.LASF27
 706 0132 05       		.byte	0x5
 707 0133 35       		.byte	0x35
 708 0134 CE000000 		.4byte	0xce
 709 0138 03       		.uleb128 0x3
 710 0139 000A0000 		.4byte	.LASF28
 711 013d 06       		.byte	0x6
 712 013e 2A       		.byte	0x2a
 713 013f 43010000 		.4byte	0x143
 714 0143 05       		.uleb128 0x5
 715 0144 000A0000 		.4byte	.LASF28
 716 0148 48       		.byte	0x48
 717 0149 07       		.byte	0x7
 718 014a 5E       		.byte	0x5e
 719 014b 28020000 		.4byte	0x228
 720 014f 06       		.uleb128 0x6
 721 0150 A8010000 		.4byte	.LASF29
 722 0154 07       		.byte	0x7
 723 0155 5F       		.byte	0x5f
 724 0156 49020000 		.4byte	0x249
 725 015a 00       		.byte	0
 726 015b 06       		.uleb128 0x6
 727 015c B7010000 		.4byte	.LASF30
 728 0160 07       		.byte	0x7
 729 0161 61       		.byte	0x61
ARM GAS  /tmp/ccFAambi.s 			page 14


 730 0162 49020000 		.4byte	0x249
 731 0166 04       		.byte	0x4
 732 0167 06       		.uleb128 0x6
 733 0168 A3030000 		.4byte	.LASF31
 734 016c 07       		.byte	0x7
 735 016d 63       		.byte	0x63
 736 016e 01010000 		.4byte	0x101
 737 0172 08       		.byte	0x8
 738 0173 06       		.uleb128 0x6
 739 0174 38000000 		.4byte	.LASF32
 740 0178 07       		.byte	0x7
 741 0179 64       		.byte	0x64
 742 017a 0E030000 		.4byte	0x30e
 743 017e 0C       		.byte	0xc
 744 017f 06       		.uleb128 0x6
 745 0180 97010000 		.4byte	.LASF33
 746 0184 07       		.byte	0x7
 747 0185 66       		.byte	0x66
 748 0186 49020000 		.4byte	0x249
 749 018a 10       		.byte	0x10
 750 018b 06       		.uleb128 0x6
 751 018c BB080000 		.4byte	.LASF34
 752 0190 07       		.byte	0x7
 753 0191 67       		.byte	0x67
 754 0192 49020000 		.4byte	0x249
 755 0196 14       		.byte	0x14
 756 0197 06       		.uleb128 0x6
 757 0198 F50B0000 		.4byte	.LASF35
 758 019c 07       		.byte	0x7
 759 019d 6E       		.byte	0x6e
 760 019e 29040000 		.4byte	0x429
 761 01a2 18       		.byte	0x18
 762 01a3 06       		.uleb128 0x6
 763 01a4 BE0B0000 		.4byte	.LASF36
 764 01a8 07       		.byte	0x7
 765 01a9 74       		.byte	0x74
 766 01aa 3B040000 		.4byte	0x43b
 767 01ae 1C       		.byte	0x1c
 768 01af 06       		.uleb128 0x6
 769 01b0 2F0C0000 		.4byte	.LASF37
 770 01b4 07       		.byte	0x7
 771 01b5 79       		.byte	0x79
 772 01b6 F6000000 		.4byte	0xf6
 773 01ba 20       		.byte	0x20
 774 01bb 06       		.uleb128 0x6
 775 01bc 1E070000 		.4byte	.LASF38
 776 01c0 07       		.byte	0x7
 777 01c1 7D       		.byte	0x7d
 778 01c2 EB000000 		.4byte	0xeb
 779 01c6 21       		.byte	0x21
 780 01c7 06       		.uleb128 0x6
 781 01c8 C2070000 		.4byte	.LASF39
 782 01cc 07       		.byte	0x7
 783 01cd 8F       		.byte	0x8f
 784 01ce 3B030000 		.4byte	0x33b
 785 01d2 24       		.byte	0x24
 786 01d3 07       		.uleb128 0x7
ARM GAS  /tmp/ccFAambi.s 			page 15


 787 01d4 705F7500 		.ascii	"p_u\000"
 788 01d8 07       		.byte	0x7
 789 01d9 B4       		.byte	0xb4
 790 01da F4030000 		.4byte	0x3f4
 791 01de 28       		.byte	0x28
 792 01df 06       		.uleb128 0x6
 793 01e0 EB060000 		.4byte	.LASF40
 794 01e4 07       		.byte	0x7
 795 01e5 B9       		.byte	0xb9
 796 01e6 6F020000 		.4byte	0x26f
 797 01ea 2C       		.byte	0x2c
 798 01eb 06       		.uleb128 0x6
 799 01ec 46000000 		.4byte	.LASF41
 800 01f0 07       		.byte	0x7
 801 01f1 BF       		.byte	0xbf
 802 01f2 4F020000 		.4byte	0x24f
 803 01f6 30       		.byte	0x30
 804 01f7 06       		.uleb128 0x6
 805 01f8 1D0C0000 		.4byte	.LASF42
 806 01fc 07       		.byte	0x7
 807 01fd C3       		.byte	0xc3
 808 01fe 0C010000 		.4byte	0x10c
 809 0202 38       		.byte	0x38
 810 0203 06       		.uleb128 0x6
 811 0204 6A040000 		.4byte	.LASF43
 812 0208 07       		.byte	0x7
 813 0209 C9       		.byte	0xc9
 814 020a 17010000 		.4byte	0x117
 815 020e 3C       		.byte	0x3c
 816 020f 06       		.uleb128 0x6
 817 0210 E8010000 		.4byte	.LASF44
 818 0214 07       		.byte	0x7
 819 0215 D0       		.byte	0xd0
 820 0216 41040000 		.4byte	0x441
 821 021a 40       		.byte	0x40
 822 021b 06       		.uleb128 0x6
 823 021c 10080000 		.4byte	.LASF45
 824 0220 07       		.byte	0x7
 825 0221 D4       		.byte	0xd4
 826 0222 01010000 		.4byte	0x101
 827 0226 44       		.byte	0x44
 828 0227 00       		.byte	0
 829 0228 08       		.uleb128 0x8
 830 0229 08       		.byte	0x8
 831 022a 06       		.byte	0x6
 832 022b 61       		.byte	0x61
 833 022c 49020000 		.4byte	0x249
 834 0230 06       		.uleb128 0x6
 835 0231 A8010000 		.4byte	.LASF29
 836 0235 06       		.byte	0x6
 837 0236 62       		.byte	0x62
 838 0237 49020000 		.4byte	0x249
 839 023b 00       		.byte	0
 840 023c 06       		.uleb128 0x6
 841 023d B7010000 		.4byte	.LASF30
 842 0241 06       		.byte	0x6
 843 0242 64       		.byte	0x64
ARM GAS  /tmp/ccFAambi.s 			page 16


 844 0243 49020000 		.4byte	0x249
 845 0247 04       		.byte	0x4
 846 0248 00       		.byte	0
 847 0249 09       		.uleb128 0x9
 848 024a 04       		.byte	0x4
 849 024b 38010000 		.4byte	0x138
 850 024f 03       		.uleb128 0x3
 851 0250 1C0B0000 		.4byte	.LASF46
 852 0254 06       		.byte	0x6
 853 0255 66       		.byte	0x66
 854 0256 28020000 		.4byte	0x228
 855 025a 08       		.uleb128 0x8
 856 025b 04       		.byte	0x4
 857 025c 06       		.byte	0x6
 858 025d 6B       		.byte	0x6b
 859 025e 6F020000 		.4byte	0x26f
 860 0262 06       		.uleb128 0x6
 861 0263 A8010000 		.4byte	.LASF29
 862 0267 06       		.byte	0x6
 863 0268 6D       		.byte	0x6d
 864 0269 49020000 		.4byte	0x249
 865 026d 00       		.byte	0
 866 026e 00       		.byte	0
 867 026f 03       		.uleb128 0x3
 868 0270 6F070000 		.4byte	.LASF47
 869 0274 06       		.byte	0x6
 870 0275 70       		.byte	0x70
 871 0276 5A020000 		.4byte	0x25a
 872 027a 03       		.uleb128 0x3
 873 027b 11020000 		.4byte	.LASF48
 874 027f 08       		.byte	0x8
 875 0280 E5       		.byte	0xe5
 876 0281 85020000 		.4byte	0x285
 877 0285 0A       		.uleb128 0xa
 878 0286 04       		.byte	0x4
 879 0287 03       		.uleb128 0x3
 880 0288 E4030000 		.4byte	.LASF49
 881 028c 08       		.byte	0x8
 882 028d EB       		.byte	0xeb
 883 028e D9000000 		.4byte	0xd9
 884 0292 0B       		.uleb128 0xb
 885 0293 5D040000 		.4byte	.LASF50
 886 0297 24       		.byte	0x24
 887 0298 08       		.byte	0x8
 888 0299 0C01     		.2byte	0x10c
 889 029b 0E030000 		.4byte	0x30e
 890 029f 0C       		.uleb128 0xc
 891 02a0 723400   		.ascii	"r4\000"
 892 02a3 08       		.byte	0x8
 893 02a4 1F01     		.2byte	0x11f
 894 02a6 7A020000 		.4byte	0x27a
 895 02aa 00       		.byte	0
 896 02ab 0C       		.uleb128 0xc
 897 02ac 723500   		.ascii	"r5\000"
 898 02af 08       		.byte	0x8
 899 02b0 2001     		.2byte	0x120
 900 02b2 7A020000 		.4byte	0x27a
ARM GAS  /tmp/ccFAambi.s 			page 17


 901 02b6 04       		.byte	0x4
 902 02b7 0C       		.uleb128 0xc
 903 02b8 723600   		.ascii	"r6\000"
 904 02bb 08       		.byte	0x8
 905 02bc 2101     		.2byte	0x121
 906 02be 7A020000 		.4byte	0x27a
 907 02c2 08       		.byte	0x8
 908 02c3 0C       		.uleb128 0xc
 909 02c4 723700   		.ascii	"r7\000"
 910 02c7 08       		.byte	0x8
 911 02c8 2201     		.2byte	0x122
 912 02ca 7A020000 		.4byte	0x27a
 913 02ce 0C       		.byte	0xc
 914 02cf 0C       		.uleb128 0xc
 915 02d0 723800   		.ascii	"r8\000"
 916 02d3 08       		.byte	0x8
 917 02d4 2301     		.2byte	0x123
 918 02d6 7A020000 		.4byte	0x27a
 919 02da 10       		.byte	0x10
 920 02db 0C       		.uleb128 0xc
 921 02dc 723900   		.ascii	"r9\000"
 922 02df 08       		.byte	0x8
 923 02e0 2401     		.2byte	0x124
 924 02e2 7A020000 		.4byte	0x27a
 925 02e6 14       		.byte	0x14
 926 02e7 0C       		.uleb128 0xc
 927 02e8 72313000 		.ascii	"r10\000"
 928 02ec 08       		.byte	0x8
 929 02ed 2501     		.2byte	0x125
 930 02ef 7A020000 		.4byte	0x27a
 931 02f3 18       		.byte	0x18
 932 02f4 0C       		.uleb128 0xc
 933 02f5 72313100 		.ascii	"r11\000"
 934 02f9 08       		.byte	0x8
 935 02fa 2601     		.2byte	0x126
 936 02fc 7A020000 		.4byte	0x27a
 937 0300 1C       		.byte	0x1c
 938 0301 0C       		.uleb128 0xc
 939 0302 6C7200   		.ascii	"lr\000"
 940 0305 08       		.byte	0x8
 941 0306 2701     		.2byte	0x127
 942 0308 7A020000 		.4byte	0x27a
 943 030c 20       		.byte	0x20
 944 030d 00       		.byte	0
 945 030e 0B       		.uleb128 0xb
 946 030f C9020000 		.4byte	.LASF51
 947 0313 04       		.byte	0x4
 948 0314 08       		.byte	0x8
 949 0315 3101     		.2byte	0x131
 950 0317 29030000 		.4byte	0x329
 951 031b 0C       		.uleb128 0xc
 952 031c 72313300 		.ascii	"r13\000"
 953 0320 08       		.byte	0x8
 954 0321 3201     		.2byte	0x132
 955 0323 29030000 		.4byte	0x329
 956 0327 00       		.byte	0
 957 0328 00       		.byte	0
ARM GAS  /tmp/ccFAambi.s 			page 18


 958 0329 09       		.uleb128 0x9
 959 032a 04       		.byte	0x4
 960 032b 92020000 		.4byte	0x292
 961 032f 0D       		.uleb128 0xd
 962 0330 CE000000 		.4byte	0xce
 963 0334 04       		.uleb128 0x4
 964 0335 04       		.byte	0x4
 965 0336 07       		.byte	0x7
 966 0337 1A000000 		.4byte	.LASF52
 967 033b 0D       		.uleb128 0xd
 968 033c 2D010000 		.4byte	0x12d
 969 0340 05       		.uleb128 0x5
 970 0341 34060000 		.4byte	.LASF53
 971 0345 10       		.byte	0x10
 972 0346 09       		.byte	0x9
 973 0347 2C       		.byte	0x2c
 974 0348 71030000 		.4byte	0x371
 975 034c 06       		.uleb128 0x6
 976 034d 7C060000 		.4byte	.LASF54
 977 0351 09       		.byte	0x9
 978 0352 2D       		.byte	0x2d
 979 0353 4F020000 		.4byte	0x24f
 980 0357 00       		.byte	0
 981 0358 06       		.uleb128 0x6
 982 0359 0B010000 		.4byte	.LASF55
 983 035d 09       		.byte	0x9
 984 035e 2F       		.byte	0x2f
 985 035f 49020000 		.4byte	0x249
 986 0363 08       		.byte	0x8
 987 0364 06       		.uleb128 0x6
 988 0365 FC0B0000 		.4byte	.LASF56
 989 0369 09       		.byte	0x9
 990 036a 31       		.byte	0x31
 991 036b 71030000 		.4byte	0x371
 992 036f 0C       		.byte	0xc
 993 0370 00       		.byte	0
 994 0371 09       		.uleb128 0x9
 995 0372 04       		.byte	0x4
 996 0373 40030000 		.4byte	0x340
 997 0377 03       		.uleb128 0x3
 998 0378 34060000 		.4byte	.LASF53
 999 037c 09       		.byte	0x9
 1000 037d 33       		.byte	0x33
 1001 037e 40030000 		.4byte	0x340
 1002 0382 03       		.uleb128 0x3
 1003 0383 E60A0000 		.4byte	.LASF57
 1004 0387 0A       		.byte	0xa
 1005 0388 2C       		.byte	0x2c
 1006 0389 8D030000 		.4byte	0x38d
 1007 038d 05       		.uleb128 0x5
 1008 038e E60A0000 		.4byte	.LASF57
 1009 0392 10       		.byte	0x10
 1010 0393 0A       		.byte	0xa
 1011 0394 31       		.byte	0x31
 1012 0395 CA030000 		.4byte	0x3ca
 1013 0399 06       		.uleb128 0x6
 1014 039a AF050000 		.4byte	.LASF58
ARM GAS  /tmp/ccFAambi.s 			page 19


 1015 039e 0A       		.byte	0xa
 1016 039f 32       		.byte	0x32
 1017 03a0 CA030000 		.4byte	0x3ca
 1018 03a4 00       		.byte	0
 1019 03a5 06       		.uleb128 0x6
 1020 03a6 230C0000 		.4byte	.LASF59
 1021 03aa 0A       		.byte	0xa
 1022 03ab 35       		.byte	0x35
 1023 03ac 49020000 		.4byte	0x249
 1024 03b0 04       		.byte	0x4
 1025 03b1 06       		.uleb128 0x6
 1026 03b2 ED0B0000 		.4byte	.LASF60
 1027 03b6 0A       		.byte	0xa
 1028 03b7 37       		.byte	0x37
 1029 03b8 17010000 		.4byte	0x117
 1030 03bc 08       		.byte	0x8
 1031 03bd 06       		.uleb128 0x6
 1032 03be B2000000 		.4byte	.LASF61
 1033 03c2 0A       		.byte	0xa
 1034 03c3 3A       		.byte	0x3a
 1035 03c4 22010000 		.4byte	0x122
 1036 03c8 0C       		.byte	0xc
 1037 03c9 00       		.byte	0
 1038 03ca 09       		.uleb128 0x9
 1039 03cb 04       		.byte	0x4
 1040 03cc 82030000 		.4byte	0x382
 1041 03d0 05       		.uleb128 0x5
 1042 03d1 48050000 		.4byte	.LASF62
 1043 03d5 04       		.byte	0x4
 1044 03d6 0A       		.byte	0xa
 1045 03d7 41       		.byte	0x41
 1046 03d8 E9030000 		.4byte	0x3e9
 1047 03dc 06       		.uleb128 0x6
 1048 03dd 0C050000 		.4byte	.LASF63
 1049 03e1 0A       		.byte	0xa
 1050 03e2 42       		.byte	0x42
 1051 03e3 CA030000 		.4byte	0x3ca
 1052 03e7 00       		.byte	0
 1053 03e8 00       		.byte	0
 1054 03e9 03       		.uleb128 0x3
 1055 03ea 48050000 		.4byte	.LASF62
 1056 03ee 0A       		.byte	0xa
 1057 03ef 45       		.byte	0x45
 1058 03f0 D0030000 		.4byte	0x3d0
 1059 03f4 0E       		.uleb128 0xe
 1060 03f5 04       		.byte	0x4
 1061 03f6 07       		.byte	0x7
 1062 03f7 96       		.byte	0x96
 1063 03f8 29040000 		.4byte	0x429
 1064 03fc 0F       		.uleb128 0xf
 1065 03fd 410B0000 		.4byte	.LASF64
 1066 0401 07       		.byte	0x7
 1067 0402 9D       		.byte	0x9d
 1068 0403 0C010000 		.4byte	0x10c
 1069 0407 0F       		.uleb128 0xf
 1070 0408 13010000 		.4byte	.LASF65
 1071 040c 07       		.byte	0x7
ARM GAS  /tmp/ccFAambi.s 			page 20


 1072 040d A4       		.byte	0xa4
 1073 040e 0C010000 		.4byte	0x10c
 1074 0412 0F       		.uleb128 0xf
 1075 0413 CA030000 		.4byte	.LASF66
 1076 0417 07       		.byte	0x7
 1077 0418 AB       		.byte	0xab
 1078 0419 85020000 		.4byte	0x285
 1079 041d 0F       		.uleb128 0xf
 1080 041e AE020000 		.4byte	.LASF67
 1081 0422 07       		.byte	0x7
 1082 0423 B2       		.byte	0xb2
 1083 0424 17010000 		.4byte	0x117
 1084 0428 00       		.byte	0
 1085 0429 09       		.uleb128 0x9
 1086 042a 04       		.byte	0x4
 1087 042b 2F040000 		.4byte	0x42f
 1088 042f 10       		.uleb128 0x10
 1089 0430 34040000 		.4byte	0x434
 1090 0434 04       		.uleb128 0x4
 1091 0435 01       		.byte	0x1
 1092 0436 08       		.byte	0x8
 1093 0437 95030000 		.4byte	.LASF68
 1094 043b 09       		.uleb128 0x9
 1095 043c 04       		.byte	0x4
 1096 043d 87020000 		.4byte	0x287
 1097 0441 09       		.uleb128 0x9
 1098 0442 04       		.byte	0x4
 1099 0443 77030000 		.4byte	0x377
 1100 0447 09       		.uleb128 0x9
 1101 0448 04       		.byte	0x4
 1102 0449 4D040000 		.4byte	0x44d
 1103 044d 11       		.uleb128 0x11
 1104 044e 0C010000 		.4byte	0x10c
 1105 0452 5C040000 		.4byte	0x45c
 1106 0456 12       		.uleb128 0x12
 1107 0457 85020000 		.4byte	0x285
 1108 045b 00       		.byte	0
 1109 045c 03       		.uleb128 0x3
 1110 045d BD030000 		.4byte	.LASF69
 1111 0461 0B       		.byte	0xb
 1112 0462 37       		.byte	0x37
 1113 0463 67040000 		.4byte	0x467
 1114 0467 05       		.uleb128 0x5
 1115 0468 BD030000 		.4byte	.LASF69
 1116 046c 24       		.byte	0x24
 1117 046d 0B       		.byte	0xb
 1118 046e 45       		.byte	0x45
 1119 046f D4040000 		.4byte	0x4d4
 1120 0473 06       		.uleb128 0x6
 1121 0474 2A090000 		.4byte	.LASF70
 1122 0478 0B       		.byte	0xb
 1123 0479 46       		.byte	0x46
 1124 047a 4F020000 		.4byte	0x24f
 1125 047e 00       		.byte	0
 1126 047f 06       		.uleb128 0x6
 1127 0480 14050000 		.4byte	.LASF71
 1128 0484 0B       		.byte	0xb
ARM GAS  /tmp/ccFAambi.s 			page 21


 1129 0485 47       		.byte	0x47
 1130 0486 2C000000 		.4byte	0x2c
 1131 048a 08       		.byte	0x8
 1132 048b 06       		.uleb128 0x6
 1133 048c 78010000 		.4byte	.LASF72
 1134 0490 0B       		.byte	0xb
 1135 0491 48       		.byte	0x48
 1136 0492 F6040000 		.4byte	0x4f6
 1137 0496 0C       		.byte	0xc
 1138 0497 06       		.uleb128 0x6
 1139 0498 37010000 		.4byte	.LASF73
 1140 049c 0B       		.byte	0xb
 1141 049d 49       		.byte	0x49
 1142 049e F6040000 		.4byte	0x4f6
 1143 04a2 10       		.byte	0x10
 1144 04a3 06       		.uleb128 0x6
 1145 04a4 B7050000 		.4byte	.LASF74
 1146 04a8 0B       		.byte	0xb
 1147 04a9 4B       		.byte	0x4b
 1148 04aa F6040000 		.4byte	0x4f6
 1149 04ae 14       		.byte	0x14
 1150 04af 06       		.uleb128 0x6
 1151 04b0 AF010000 		.4byte	.LASF75
 1152 04b4 0B       		.byte	0xb
 1153 04b5 4C       		.byte	0x4c
 1154 04b6 F6040000 		.4byte	0x4f6
 1155 04ba 18       		.byte	0x18
 1156 04bb 06       		.uleb128 0x6
 1157 04bc 81010000 		.4byte	.LASF76
 1158 04c0 0B       		.byte	0xb
 1159 04c1 4D       		.byte	0x4d
 1160 04c2 D4040000 		.4byte	0x4d4
 1161 04c6 1C       		.byte	0x1c
 1162 04c7 06       		.uleb128 0x6
 1163 04c8 21030000 		.4byte	.LASF77
 1164 04cc 0B       		.byte	0xb
 1165 04cd 4E       		.byte	0x4e
 1166 04ce 85020000 		.4byte	0x285
 1167 04d2 20       		.byte	0x20
 1168 04d3 00       		.byte	0
 1169 04d4 03       		.uleb128 0x3
 1170 04d5 E1060000 		.4byte	.LASF78
 1171 04d9 0B       		.byte	0xb
 1172 04da 3A       		.byte	0x3a
 1173 04db DF040000 		.4byte	0x4df
 1174 04df 09       		.uleb128 0x9
 1175 04e0 04       		.byte	0x4
 1176 04e1 E5040000 		.4byte	0x4e5
 1177 04e5 13       		.uleb128 0x13
 1178 04e6 F0040000 		.4byte	0x4f0
 1179 04ea 12       		.uleb128 0x12
 1180 04eb F0040000 		.4byte	0x4f0
 1181 04ef 00       		.byte	0
 1182 04f0 09       		.uleb128 0x9
 1183 04f1 04       		.byte	0x4
 1184 04f2 5C040000 		.4byte	0x45c
 1185 04f6 09       		.uleb128 0x9
ARM GAS  /tmp/ccFAambi.s 			page 22


 1186 04f7 04       		.byte	0x4
 1187 04f8 AD000000 		.4byte	0xad
 1188 04fc 03       		.uleb128 0x3
 1189 04fd 890B0000 		.4byte	.LASF79
 1190 0501 0B       		.byte	0xb
 1191 0502 82       		.byte	0x82
 1192 0503 5C040000 		.4byte	0x45c
 1193 0507 03       		.uleb128 0x3
 1194 0508 FD030000 		.4byte	.LASF80
 1195 050c 0B       		.byte	0xb
 1196 050d F5       		.byte	0xf5
 1197 050e 5C040000 		.4byte	0x45c
 1198 0512 11       		.uleb128 0x11
 1199 0513 2C000000 		.4byte	0x2c
 1200 0517 2B050000 		.4byte	0x52b
 1201 051b 12       		.uleb128 0x12
 1202 051c 85020000 		.4byte	0x285
 1203 0520 12       		.uleb128 0x12
 1204 0521 2B050000 		.4byte	0x52b
 1205 0525 12       		.uleb128 0x12
 1206 0526 2C000000 		.4byte	0x2c
 1207 052a 00       		.byte	0
 1208 052b 09       		.uleb128 0x9
 1209 052c 04       		.byte	0x4
 1210 052d 31050000 		.4byte	0x531
 1211 0531 10       		.uleb128 0x10
 1212 0532 AD000000 		.4byte	0xad
 1213 0536 09       		.uleb128 0x9
 1214 0537 04       		.byte	0x4
 1215 0538 12050000 		.4byte	0x512
 1216 053c 11       		.uleb128 0x11
 1217 053d 2C000000 		.4byte	0x2c
 1218 0541 55050000 		.4byte	0x555
 1219 0545 12       		.uleb128 0x12
 1220 0546 85020000 		.4byte	0x285
 1221 054a 12       		.uleb128 0x12
 1222 054b F6040000 		.4byte	0x4f6
 1223 054f 12       		.uleb128 0x12
 1224 0550 2C000000 		.4byte	0x2c
 1225 0554 00       		.byte	0
 1226 0555 09       		.uleb128 0x9
 1227 0556 04       		.byte	0x4
 1228 0557 3C050000 		.4byte	0x53c
 1229 055b 11       		.uleb128 0x11
 1230 055c 0C010000 		.4byte	0x10c
 1231 0560 6F050000 		.4byte	0x56f
 1232 0564 12       		.uleb128 0x12
 1233 0565 85020000 		.4byte	0x285
 1234 0569 12       		.uleb128 0x12
 1235 056a AD000000 		.4byte	0xad
 1236 056e 00       		.byte	0
 1237 056f 09       		.uleb128 0x9
 1238 0570 04       		.byte	0x4
 1239 0571 5B050000 		.4byte	0x55b
 1240 0575 14       		.uleb128 0x14
 1241 0576 C9070000 		.4byte	.LASF244
 1242 057a 01       		.byte	0x1
ARM GAS  /tmp/ccFAambi.s 			page 23


 1243 057b 0C       		.byte	0xc
 1244 057c AA       		.byte	0xaa
 1245 057d B0070000 		.4byte	0x7b0
 1246 0581 15       		.uleb128 0x15
 1247 0582 2A050000 		.4byte	.LASF81
 1248 0586 72       		.sleb128 -14
 1249 0587 15       		.uleb128 0x15
 1250 0588 7B050000 		.4byte	.LASF82
 1251 058c 74       		.sleb128 -12
 1252 058d 15       		.uleb128 0x15
 1253 058e E9050000 		.4byte	.LASF83
 1254 0592 75       		.sleb128 -11
 1255 0593 15       		.uleb128 0x15
 1256 0594 85030000 		.4byte	.LASF84
 1257 0598 76       		.sleb128 -10
 1258 0599 15       		.uleb128 0x15
 1259 059a 94060000 		.4byte	.LASF85
 1260 059e 7B       		.sleb128 -5
 1261 059f 15       		.uleb128 0x15
 1262 05a0 7D090000 		.4byte	.LASF86
 1263 05a4 7C       		.sleb128 -4
 1264 05a5 15       		.uleb128 0x15
 1265 05a6 9F0B0000 		.4byte	.LASF87
 1266 05aa 7E       		.sleb128 -2
 1267 05ab 15       		.uleb128 0x15
 1268 05ac 2C020000 		.4byte	.LASF88
 1269 05b0 7F       		.sleb128 -1
 1270 05b1 15       		.uleb128 0x15
 1271 05b2 5F050000 		.4byte	.LASF89
 1272 05b6 00       		.sleb128 0
 1273 05b7 15       		.uleb128 0x15
 1274 05b8 14090000 		.4byte	.LASF90
 1275 05bc 01       		.sleb128 1
 1276 05bd 15       		.uleb128 0x15
 1277 05be 91050000 		.4byte	.LASF91
 1278 05c2 02       		.sleb128 2
 1279 05c3 15       		.uleb128 0x15
 1280 05c4 D80A0000 		.4byte	.LASF92
 1281 05c8 03       		.sleb128 3
 1282 05c9 15       		.uleb128 0x15
 1283 05ca 9D000000 		.4byte	.LASF93
 1284 05ce 04       		.sleb128 4
 1285 05cf 15       		.uleb128 0x15
 1286 05d0 DE090000 		.4byte	.LASF94
 1287 05d4 05       		.sleb128 5
 1288 05d5 15       		.uleb128 0x15
 1289 05d6 34090000 		.4byte	.LASF95
 1290 05da 06       		.sleb128 6
 1291 05db 15       		.uleb128 0x15
 1292 05dc CA040000 		.4byte	.LASF96
 1293 05e0 07       		.sleb128 7
 1294 05e1 15       		.uleb128 0x15
 1295 05e2 E8080000 		.4byte	.LASF97
 1296 05e6 08       		.sleb128 8
 1297 05e7 15       		.uleb128 0x15
 1298 05e8 940B0000 		.4byte	.LASF98
 1299 05ec 09       		.sleb128 9
ARM GAS  /tmp/ccFAambi.s 			page 24


 1300 05ed 15       		.uleb128 0x15
 1301 05ee 480B0000 		.4byte	.LASF99
 1302 05f2 0A       		.sleb128 10
 1303 05f3 15       		.uleb128 0x15
 1304 05f4 2D080000 		.4byte	.LASF100
 1305 05f8 0B       		.sleb128 11
 1306 05f9 15       		.uleb128 0x15
 1307 05fa 85070000 		.4byte	.LASF101
 1308 05fe 0C       		.sleb128 12
 1309 05ff 15       		.uleb128 0x15
 1310 0600 D1020000 		.4byte	.LASF102
 1311 0604 0D       		.sleb128 13
 1312 0605 15       		.uleb128 0x15
 1313 0606 EE090000 		.4byte	.LASF103
 1314 060a 0E       		.sleb128 14
 1315 060b 15       		.uleb128 0x15
 1316 060c 47090000 		.4byte	.LASF104
 1317 0610 0F       		.sleb128 15
 1318 0611 15       		.uleb128 0x15
 1319 0612 E2040000 		.4byte	.LASF105
 1320 0616 10       		.sleb128 16
 1321 0617 15       		.uleb128 0x15
 1322 0618 CE070000 		.4byte	.LASF106
 1323 061c 11       		.sleb128 17
 1324 061d 15       		.uleb128 0x15
 1325 061e 01090000 		.4byte	.LASF107
 1326 0622 12       		.sleb128 18
 1327 0623 15       		.uleb128 0x15
 1328 0624 D5040000 		.4byte	.LASF108
 1329 0628 13       		.sleb128 19
 1330 0629 15       		.uleb128 0x15
 1331 062a D1030000 		.4byte	.LASF109
 1332 062e 14       		.sleb128 20
 1333 062f 15       		.uleb128 0x15
 1334 0630 0E0B0000 		.4byte	.LASF110
 1335 0634 15       		.sleb128 21
 1336 0635 15       		.uleb128 0x15
 1337 0636 A1050000 		.4byte	.LASF111
 1338 063a 16       		.sleb128 22
 1339 063b 15       		.uleb128 0x15
 1340 063c 290B0000 		.4byte	.LASF112
 1341 0640 17       		.sleb128 23
 1342 0641 15       		.uleb128 0x15
 1343 0642 16060000 		.4byte	.LASF113
 1344 0646 18       		.sleb128 24
 1345 0647 15       		.uleb128 0x15
 1346 0648 070A0000 		.4byte	.LASF114
 1347 064c 19       		.sleb128 25
 1348 064d 15       		.uleb128 0x15
 1349 064e F2010000 		.4byte	.LASF115
 1350 0652 1A       		.sleb128 26
 1351 0653 15       		.uleb128 0x15
 1352 0654 AF040000 		.4byte	.LASF116
 1353 0658 1B       		.sleb128 27
 1354 0659 15       		.uleb128 0x15
 1355 065a CD000000 		.4byte	.LASF117
 1356 065e 1C       		.sleb128 28
ARM GAS  /tmp/ccFAambi.s 			page 25


 1357 065f 15       		.uleb128 0x15
 1358 0660 D2080000 		.4byte	.LASF118
 1359 0664 1D       		.sleb128 29
 1360 0665 15       		.uleb128 0x15
 1361 0666 09040000 		.4byte	.LASF119
 1362 066a 1E       		.sleb128 30
 1363 066b 15       		.uleb128 0x15
 1364 066c 3C040000 		.4byte	.LASF120
 1365 0670 1F       		.sleb128 31
 1366 0671 15       		.uleb128 0x15
 1367 0672 32030000 		.4byte	.LASF121
 1368 0676 20       		.sleb128 32
 1369 0677 15       		.uleb128 0x15
 1370 0678 46070000 		.4byte	.LASF122
 1371 067c 21       		.sleb128 33
 1372 067d 15       		.uleb128 0x15
 1373 067e DC050000 		.4byte	.LASF123
 1374 0682 22       		.sleb128 34
 1375 0683 15       		.uleb128 0x15
 1376 0684 8A060000 		.4byte	.LASF124
 1377 0688 23       		.sleb128 35
 1378 0689 15       		.uleb128 0x15
 1379 068a 3D010000 		.4byte	.LASF125
 1380 068e 24       		.sleb128 36
 1381 068f 15       		.uleb128 0x15
 1382 0690 DC080000 		.4byte	.LASF126
 1383 0694 25       		.sleb128 37
 1384 0695 15       		.uleb128 0x15
 1385 0696 13040000 		.4byte	.LASF127
 1386 069a 26       		.sleb128 38
 1387 069b 15       		.uleb128 0x15
 1388 069c 39020000 		.4byte	.LASF128
 1389 06a0 27       		.sleb128 39
 1390 06a1 15       		.uleb128 0x15
 1391 06a2 95080000 		.4byte	.LASF129
 1392 06a6 28       		.sleb128 40
 1393 06a7 15       		.uleb128 0x15
 1394 06a8 53080000 		.4byte	.LASF130
 1395 06ac 29       		.sleb128 41
 1396 06ad 15       		.uleb128 0x15
 1397 06ae 0D070000 		.4byte	.LASF131
 1398 06b2 2A       		.sleb128 42
 1399 06b3 15       		.uleb128 0x15
 1400 06b4 47010000 		.4byte	.LASF132
 1401 06b8 2B       		.sleb128 43
 1402 06b9 15       		.uleb128 0x15
 1403 06ba 07000000 		.4byte	.LASF133
 1404 06be 2C       		.sleb128 44
 1405 06bf 15       		.uleb128 0x15
 1406 06c0 F4040000 		.4byte	.LASF134
 1407 06c4 2D       		.sleb128 45
 1408 06c5 15       		.uleb128 0x15
 1409 06c6 720B0000 		.4byte	.LASF135
 1410 06ca 2E       		.sleb128 46
 1411 06cb 15       		.uleb128 0x15
 1412 06cc C90B0000 		.4byte	.LASF136
 1413 06d0 2F       		.sleb128 47
ARM GAS  /tmp/ccFAambi.s 			page 26


 1414 06d1 15       		.uleb128 0x15
 1415 06d2 3E050000 		.4byte	.LASF137
 1416 06d6 30       		.sleb128 48
 1417 06d7 15       		.uleb128 0x15
 1418 06d8 7F0B0000 		.4byte	.LASF138
 1419 06dc 31       		.sleb128 49
 1420 06dd 15       		.uleb128 0x15
 1421 06de 71030000 		.4byte	.LASF139
 1422 06e2 32       		.sleb128 50
 1423 06e3 15       		.uleb128 0x15
 1424 06e4 93000000 		.4byte	.LASF140
 1425 06e8 33       		.sleb128 51
 1426 06e9 15       		.uleb128 0x15
 1427 06ea CC060000 		.4byte	.LASF141
 1428 06ee 34       		.sleb128 52
 1429 06ef 15       		.uleb128 0x15
 1430 06f0 0B060000 		.4byte	.LASF142
 1431 06f4 35       		.sleb128 53
 1432 06f5 15       		.uleb128 0x15
 1433 06f6 38070000 		.4byte	.LASF143
 1434 06fa 36       		.sleb128 54
 1435 06fb 15       		.uleb128 0x15
 1436 06fc 4A060000 		.4byte	.LASF144
 1437 0700 37       		.sleb128 55
 1438 0701 15       		.uleb128 0x15
 1439 0702 F5060000 		.4byte	.LASF145
 1440 0706 38       		.sleb128 56
 1441 0707 15       		.uleb128 0x15
 1442 0708 78000000 		.4byte	.LASF146
 1443 070c 39       		.sleb128 57
 1444 070d 15       		.uleb128 0x15
 1445 070e 0B0C0000 		.4byte	.LASF147
 1446 0712 3A       		.sleb128 58
 1447 0713 15       		.uleb128 0x15
 1448 0714 A3070000 		.4byte	.LASF148
 1449 0718 3B       		.sleb128 59
 1450 0719 15       		.uleb128 0x15
 1451 071a 05030000 		.4byte	.LASF149
 1452 071e 3C       		.sleb128 60
 1453 071f 15       		.uleb128 0x15
 1454 0720 AE090000 		.4byte	.LASF150
 1455 0724 3D       		.sleb128 61
 1456 0725 15       		.uleb128 0x15
 1457 0726 62060000 		.4byte	.LASF151
 1458 072a 3E       		.sleb128 62
 1459 072b 15       		.uleb128 0x15
 1460 072c B5070000 		.4byte	.LASF152
 1461 0730 3F       		.sleb128 63
 1462 0731 15       		.uleb128 0x15
 1463 0732 F1000000 		.4byte	.LASF153
 1464 0736 C000     		.sleb128 64
 1465 0738 15       		.uleb128 0x15
 1466 0739 F3080000 		.4byte	.LASF154
 1467 073d C100     		.sleb128 65
 1468 073f 15       		.uleb128 0x15
 1469 0740 3F030000 		.4byte	.LASF155
 1470 0744 C200     		.sleb128 66
ARM GAS  /tmp/ccFAambi.s 			page 27


 1471 0746 15       		.uleb128 0x15
 1472 0747 1E050000 		.4byte	.LASF156
 1473 074b C300     		.sleb128 67
 1474 074d 15       		.uleb128 0x15
 1475 074e CD010000 		.4byte	.LASF157
 1476 0752 C400     		.sleb128 68
 1477 0754 15       		.uleb128 0x15
 1478 0755 63090000 		.4byte	.LASF158
 1479 0759 C500     		.sleb128 69
 1480 075b 15       		.uleb128 0x15
 1481 075c 1B080000 		.4byte	.LASF159
 1482 0760 C600     		.sleb128 70
 1483 0762 15       		.uleb128 0x15
 1484 0763 FF000000 		.4byte	.LASF160
 1485 0767 C700     		.sleb128 71
 1486 0769 15       		.uleb128 0x15
 1487 076a 98090000 		.4byte	.LASF161
 1488 076e C800     		.sleb128 72
 1489 0770 15       		.uleb128 0x15
 1490 0771 6A080000 		.4byte	.LASF162
 1491 0775 C900     		.sleb128 73
 1492 0777 15       		.uleb128 0x15
 1493 0778 C40A0000 		.4byte	.LASF163
 1494 077c CA00     		.sleb128 74
 1495 077e 15       		.uleb128 0x15
 1496 077f AB0B0000 		.4byte	.LASF164
 1497 0783 CB00     		.sleb128 75
 1498 0785 15       		.uleb128 0x15
 1499 0786 26010000 		.4byte	.LASF165
 1500 078a CC00     		.sleb128 76
 1501 078c 15       		.uleb128 0x15
 1502 078d 70060000 		.4byte	.LASF166
 1503 0791 CD00     		.sleb128 77
 1504 0793 15       		.uleb128 0x15
 1505 0794 A8000000 		.4byte	.LASF167
 1506 0798 CE00     		.sleb128 78
 1507 079a 15       		.uleb128 0x15
 1508 079b 8B080000 		.4byte	.LASF168
 1509 079f CF00     		.sleb128 79
 1510 07a1 15       		.uleb128 0x15
 1511 07a2 BC040000 		.4byte	.LASF169
 1512 07a6 D000     		.sleb128 80
 1513 07a8 15       		.uleb128 0x15
 1514 07a9 C3060000 		.4byte	.LASF170
 1515 07ad D100     		.sleb128 81
 1516 07af 00       		.byte	0
 1517 07b0 16       		.uleb128 0x16
 1518 07b1 CE000000 		.4byte	0xce
 1519 07b5 C0070000 		.4byte	0x7c0
 1520 07b9 17       		.uleb128 0x17
 1521 07ba 34030000 		.4byte	0x334
 1522 07be 01       		.byte	0x1
 1523 07bf 00       		.byte	0
 1524 07c0 0D       		.uleb128 0xd
 1525 07c1 B8000000 		.4byte	0xb8
 1526 07c5 0D       		.uleb128 0xd
 1527 07c6 C3000000 		.4byte	0xc3
ARM GAS  /tmp/ccFAambi.s 			page 28


 1528 07ca 18       		.uleb128 0x18
 1529 07cb 90       		.byte	0x90
 1530 07cc 0C       		.byte	0xc
 1531 07cd 5804     		.2byte	0x458
 1532 07cf 73090000 		.4byte	0x973
 1533 07d3 0C       		.uleb128 0xc
 1534 07d4 435200   		.ascii	"CR\000"
 1535 07d7 0C       		.byte	0xc
 1536 07d8 5A04     		.2byte	0x45a
 1537 07da 2F030000 		.4byte	0x32f
 1538 07de 00       		.byte	0
 1539 07df 19       		.uleb128 0x19
 1540 07e0 03060000 		.4byte	.LASF171
 1541 07e4 0C       		.byte	0xc
 1542 07e5 5B04     		.2byte	0x45b
 1543 07e7 2F030000 		.4byte	0x32f
 1544 07eb 04       		.byte	0x4
 1545 07ec 19       		.uleb128 0x19
 1546 07ed AA040000 		.4byte	.LASF172
 1547 07f1 0C       		.byte	0xc
 1548 07f2 5C04     		.2byte	0x45c
 1549 07f4 2F030000 		.4byte	0x32f
 1550 07f8 08       		.byte	0x8
 1551 07f9 0C       		.uleb128 0xc
 1552 07fa 43495200 		.ascii	"CIR\000"
 1553 07fe 0C       		.byte	0xc
 1554 07ff 5D04     		.2byte	0x45d
 1555 0801 2F030000 		.4byte	0x32f
 1556 0805 0C       		.byte	0xc
 1557 0806 19       		.uleb128 0x19
 1558 0807 9A030000 		.4byte	.LASF173
 1559 080b 0C       		.byte	0xc
 1560 080c 5E04     		.2byte	0x45e
 1561 080e 2F030000 		.4byte	0x32f
 1562 0812 10       		.byte	0x10
 1563 0813 19       		.uleb128 0x19
 1564 0814 A5090000 		.4byte	.LASF174
 1565 0818 0C       		.byte	0xc
 1566 0819 5F04     		.2byte	0x45f
 1567 081b 2F030000 		.4byte	0x32f
 1568 081f 14       		.byte	0x14
 1569 0820 19       		.uleb128 0x19
 1570 0821 F5070000 		.4byte	.LASF175
 1571 0825 0C       		.byte	0xc
 1572 0826 6004     		.2byte	0x460
 1573 0828 2F030000 		.4byte	0x32f
 1574 082c 18       		.byte	0x18
 1575 082d 19       		.uleb128 0x19
 1576 082e E3020000 		.4byte	.LASF176
 1577 0832 0C       		.byte	0xc
 1578 0833 6104     		.2byte	0x461
 1579 0835 CE000000 		.4byte	0xce
 1580 0839 1C       		.byte	0x1c
 1581 083a 19       		.uleb128 0x19
 1582 083b 3F080000 		.4byte	.LASF177
 1583 083f 0C       		.byte	0xc
 1584 0840 6204     		.2byte	0x462
ARM GAS  /tmp/ccFAambi.s 			page 29


 1585 0842 2F030000 		.4byte	0x32f
 1586 0846 20       		.byte	0x20
 1587 0847 19       		.uleb128 0x19
 1588 0848 A0060000 		.4byte	.LASF178
 1589 084c 0C       		.byte	0xc
 1590 084d 6304     		.2byte	0x463
 1591 084f 2F030000 		.4byte	0x32f
 1592 0853 24       		.byte	0x24
 1593 0854 19       		.uleb128 0x19
 1594 0855 ED020000 		.4byte	.LASF179
 1595 0859 0C       		.byte	0xc
 1596 085a 6404     		.2byte	0x464
 1597 085c B0070000 		.4byte	0x7b0
 1598 0860 28       		.byte	0x28
 1599 0861 19       		.uleb128 0x19
 1600 0862 75090000 		.4byte	.LASF180
 1601 0866 0C       		.byte	0xc
 1602 0867 6504     		.2byte	0x465
 1603 0869 2F030000 		.4byte	0x32f
 1604 086d 30       		.byte	0x30
 1605 086e 19       		.uleb128 0x19
 1606 086f B5030000 		.4byte	.LASF181
 1607 0873 0C       		.byte	0xc
 1608 0874 6604     		.2byte	0x466
 1609 0876 2F030000 		.4byte	0x32f
 1610 087a 34       		.byte	0x34
 1611 087b 19       		.uleb128 0x19
 1612 087c 030C0000 		.4byte	.LASF182
 1613 0880 0C       		.byte	0xc
 1614 0881 6704     		.2byte	0x467
 1615 0883 2F030000 		.4byte	0x32f
 1616 0887 38       		.byte	0x38
 1617 0888 19       		.uleb128 0x19
 1618 0889 5D030000 		.4byte	.LASF183
 1619 088d 0C       		.byte	0xc
 1620 088e 6804     		.2byte	0x468
 1621 0890 CE000000 		.4byte	0xce
 1622 0894 3C       		.byte	0x3c
 1623 0895 19       		.uleb128 0x19
 1624 0896 62080000 		.4byte	.LASF184
 1625 089a 0C       		.byte	0xc
 1626 089b 6904     		.2byte	0x469
 1627 089d 2F030000 		.4byte	0x32f
 1628 08a1 40       		.byte	0x40
 1629 08a2 19       		.uleb128 0x19
 1630 08a3 1A020000 		.4byte	.LASF185
 1631 08a7 0C       		.byte	0xc
 1632 08a8 6A04     		.2byte	0x46a
 1633 08aa 2F030000 		.4byte	0x32f
 1634 08ae 44       		.byte	0x44
 1635 08af 19       		.uleb128 0x19
 1636 08b0 67030000 		.4byte	.LASF186
 1637 08b4 0C       		.byte	0xc
 1638 08b5 6B04     		.2byte	0x46b
 1639 08b7 B0070000 		.4byte	0x7b0
 1640 08bb 48       		.byte	0x48
 1641 08bc 19       		.uleb128 0x19
ARM GAS  /tmp/ccFAambi.s 			page 30


 1642 08bd 22020000 		.4byte	.LASF187
 1643 08c1 0C       		.byte	0xc
 1644 08c2 6C04     		.2byte	0x46c
 1645 08c4 2F030000 		.4byte	0x32f
 1646 08c8 50       		.byte	0x50
 1647 08c9 19       		.uleb128 0x19
 1648 08ca 5B010000 		.4byte	.LASF188
 1649 08ce 0C       		.byte	0xc
 1650 08cf 6D04     		.2byte	0x46d
 1651 08d1 2F030000 		.4byte	0x32f
 1652 08d5 54       		.byte	0x54
 1653 08d6 19       		.uleb128 0x19
 1654 08d7 0A090000 		.4byte	.LASF189
 1655 08db 0C       		.byte	0xc
 1656 08dc 6E04     		.2byte	0x46e
 1657 08de 2F030000 		.4byte	0x32f
 1658 08e2 58       		.byte	0x58
 1659 08e3 19       		.uleb128 0x19
 1660 08e4 17030000 		.4byte	.LASF190
 1661 08e8 0C       		.byte	0xc
 1662 08e9 6F04     		.2byte	0x46f
 1663 08eb CE000000 		.4byte	0xce
 1664 08ef 5C       		.byte	0x5c
 1665 08f0 19       		.uleb128 0x19
 1666 08f1 7B070000 		.4byte	.LASF191
 1667 08f5 0C       		.byte	0xc
 1668 08f6 7004     		.2byte	0x470
 1669 08f8 2F030000 		.4byte	0x32f
 1670 08fc 60       		.byte	0x60
 1671 08fd 19       		.uleb128 0x19
 1672 08fe D7060000 		.4byte	.LASF192
 1673 0902 0C       		.byte	0xc
 1674 0903 7104     		.2byte	0x471
 1675 0905 2F030000 		.4byte	0x32f
 1676 0909 64       		.byte	0x64
 1677 090a 19       		.uleb128 0x19
 1678 090b 7B030000 		.4byte	.LASF193
 1679 090f 0C       		.byte	0xc
 1680 0910 7204     		.2byte	0x472
 1681 0912 B0070000 		.4byte	0x7b0
 1682 0916 68       		.byte	0x68
 1683 0917 19       		.uleb128 0x19
 1684 0918 37040000 		.4byte	.LASF194
 1685 091c 0C       		.byte	0xc
 1686 091d 7304     		.2byte	0x473
 1687 091f 2F030000 		.4byte	0x32f
 1688 0923 70       		.byte	0x70
 1689 0924 0C       		.uleb128 0xc
 1690 0925 43535200 		.ascii	"CSR\000"
 1691 0929 0C       		.byte	0xc
 1692 092a 7404     		.2byte	0x474
 1693 092c 2F030000 		.4byte	0x32f
 1694 0930 74       		.byte	0x74
 1695 0931 19       		.uleb128 0x19
 1696 0932 28030000 		.4byte	.LASF195
 1697 0936 0C       		.byte	0xc
 1698 0937 7504     		.2byte	0x475
ARM GAS  /tmp/ccFAambi.s 			page 31


 1699 0939 B0070000 		.4byte	0x7b0
 1700 093d 78       		.byte	0x78
 1701 093e 19       		.uleb128 0x19
 1702 093f 84060000 		.4byte	.LASF196
 1703 0943 0C       		.byte	0xc
 1704 0944 7604     		.2byte	0x476
 1705 0946 2F030000 		.4byte	0x32f
 1706 094a 80       		.byte	0x80
 1707 094b 19       		.uleb128 0x19
 1708 094c 2D000000 		.4byte	.LASF197
 1709 0950 0C       		.byte	0xc
 1710 0951 7704     		.2byte	0x477
 1711 0953 2F030000 		.4byte	0x32f
 1712 0957 84       		.byte	0x84
 1713 0958 19       		.uleb128 0x19
 1714 0959 360B0000 		.4byte	.LASF198
 1715 095d 0C       		.byte	0xc
 1716 095e 7804     		.2byte	0x478
 1717 0960 2F030000 		.4byte	0x32f
 1718 0964 88       		.byte	0x88
 1719 0965 19       		.uleb128 0x19
 1720 0966 45020000 		.4byte	.LASF199
 1721 096a 0C       		.byte	0xc
 1722 096b 7904     		.2byte	0x479
 1723 096d 2F030000 		.4byte	0x32f
 1724 0971 8C       		.byte	0x8c
 1725 0972 00       		.byte	0
 1726 0973 1A       		.uleb128 0x1a
 1727 0974 BF090000 		.4byte	.LASF200
 1728 0978 0C       		.byte	0xc
 1729 0979 7B04     		.2byte	0x47b
 1730 097b CA070000 		.4byte	0x7ca
 1731 097f 18       		.uleb128 0x18
 1732 0980 1C       		.byte	0x1c
 1733 0981 0C       		.byte	0xc
 1734 0982 2905     		.2byte	0x529
 1735 0984 3D0A0000 		.4byte	0xa3d
 1736 0988 0C       		.uleb128 0xc
 1737 0989 535200   		.ascii	"SR\000"
 1738 098c 0C       		.byte	0xc
 1739 098d 2B05     		.2byte	0x52b
 1740 098f C0070000 		.4byte	0x7c0
 1741 0993 00       		.byte	0
 1742 0994 19       		.uleb128 0x19
 1743 0995 E3020000 		.4byte	.LASF176
 1744 0999 0C       		.byte	0xc
 1745 099a 2C05     		.2byte	0x52c
 1746 099c B8000000 		.4byte	0xb8
 1747 09a0 02       		.byte	0x2
 1748 09a1 0C       		.uleb128 0xc
 1749 09a2 445200   		.ascii	"DR\000"
 1750 09a5 0C       		.byte	0xc
 1751 09a6 2D05     		.2byte	0x52d
 1752 09a8 C0070000 		.4byte	0x7c0
 1753 09ac 04       		.byte	0x4
 1754 09ad 19       		.uleb128 0x19
 1755 09ae ED020000 		.4byte	.LASF179
ARM GAS  /tmp/ccFAambi.s 			page 32


 1756 09b2 0C       		.byte	0xc
 1757 09b3 2E05     		.2byte	0x52e
 1758 09b5 B8000000 		.4byte	0xb8
 1759 09b9 06       		.byte	0x6
 1760 09ba 0C       		.uleb128 0xc
 1761 09bb 42525200 		.ascii	"BRR\000"
 1762 09bf 0C       		.byte	0xc
 1763 09c0 2F05     		.2byte	0x52f
 1764 09c2 C0070000 		.4byte	0x7c0
 1765 09c6 08       		.byte	0x8
 1766 09c7 19       		.uleb128 0x19
 1767 09c8 5D030000 		.4byte	.LASF183
 1768 09cc 0C       		.byte	0xc
 1769 09cd 3005     		.2byte	0x530
 1770 09cf B8000000 		.4byte	0xb8
 1771 09d3 0A       		.byte	0xa
 1772 09d4 0C       		.uleb128 0xc
 1773 09d5 43523100 		.ascii	"CR1\000"
 1774 09d9 0C       		.byte	0xc
 1775 09da 3105     		.2byte	0x531
 1776 09dc C0070000 		.4byte	0x7c0
 1777 09e0 0C       		.byte	0xc
 1778 09e1 19       		.uleb128 0x19
 1779 09e2 67030000 		.4byte	.LASF186
 1780 09e6 0C       		.byte	0xc
 1781 09e7 3205     		.2byte	0x532
 1782 09e9 B8000000 		.4byte	0xb8
 1783 09ed 0E       		.byte	0xe
 1784 09ee 0C       		.uleb128 0xc
 1785 09ef 43523200 		.ascii	"CR2\000"
 1786 09f3 0C       		.byte	0xc
 1787 09f4 3305     		.2byte	0x533
 1788 09f6 C0070000 		.4byte	0x7c0
 1789 09fa 10       		.byte	0x10
 1790 09fb 19       		.uleb128 0x19
 1791 09fc 17030000 		.4byte	.LASF190
 1792 0a00 0C       		.byte	0xc
 1793 0a01 3405     		.2byte	0x534
 1794 0a03 B8000000 		.4byte	0xb8
 1795 0a07 12       		.byte	0x12
 1796 0a08 0C       		.uleb128 0xc
 1797 0a09 43523300 		.ascii	"CR3\000"
 1798 0a0d 0C       		.byte	0xc
 1799 0a0e 3505     		.2byte	0x535
 1800 0a10 C0070000 		.4byte	0x7c0
 1801 0a14 14       		.byte	0x14
 1802 0a15 19       		.uleb128 0x19
 1803 0a16 7B030000 		.4byte	.LASF193
 1804 0a1a 0C       		.byte	0xc
 1805 0a1b 3605     		.2byte	0x536
 1806 0a1d B8000000 		.4byte	0xb8
 1807 0a21 16       		.byte	0x16
 1808 0a22 19       		.uleb128 0x19
 1809 0a23 6D000000 		.4byte	.LASF201
 1810 0a27 0C       		.byte	0xc
 1811 0a28 3705     		.2byte	0x537
 1812 0a2a C0070000 		.4byte	0x7c0
ARM GAS  /tmp/ccFAambi.s 			page 33


 1813 0a2e 18       		.byte	0x18
 1814 0a2f 19       		.uleb128 0x19
 1815 0a30 28030000 		.4byte	.LASF195
 1816 0a34 0C       		.byte	0xc
 1817 0a35 3805     		.2byte	0x538
 1818 0a37 B8000000 		.4byte	0xb8
 1819 0a3b 1A       		.byte	0x1a
 1820 0a3c 00       		.byte	0
 1821 0a3d 1A       		.uleb128 0x1a
 1822 0a3e EF030000 		.4byte	.LASF202
 1823 0a42 0C       		.byte	0xc
 1824 0a43 3905     		.2byte	0x539
 1825 0a45 7F090000 		.4byte	0x97f
 1826 0a49 11       		.uleb128 0x11
 1827 0a4a 0C010000 		.4byte	0x10c
 1828 0a4e 620A0000 		.4byte	0xa62
 1829 0a52 12       		.uleb128 0x12
 1830 0a53 85020000 		.4byte	0x285
 1831 0a57 12       		.uleb128 0x12
 1832 0a58 AD000000 		.4byte	0xad
 1833 0a5c 12       		.uleb128 0x12
 1834 0a5d 2D010000 		.4byte	0x12d
 1835 0a61 00       		.byte	0
 1836 0a62 09       		.uleb128 0x9
 1837 0a63 04       		.byte	0x4
 1838 0a64 490A0000 		.4byte	0xa49
 1839 0a68 11       		.uleb128 0x11
 1840 0a69 0C010000 		.4byte	0x10c
 1841 0a6d 7C0A0000 		.4byte	0xa7c
 1842 0a71 12       		.uleb128 0x12
 1843 0a72 85020000 		.4byte	0x285
 1844 0a76 12       		.uleb128 0x12
 1845 0a77 2D010000 		.4byte	0x12d
 1846 0a7b 00       		.byte	0
 1847 0a7c 09       		.uleb128 0x9
 1848 0a7d 04       		.byte	0x4
 1849 0a7e 680A0000 		.4byte	0xa68
 1850 0a82 11       		.uleb128 0x11
 1851 0a83 2C000000 		.4byte	0x2c
 1852 0a87 A00A0000 		.4byte	0xaa0
 1853 0a8b 12       		.uleb128 0x12
 1854 0a8c 85020000 		.4byte	0x285
 1855 0a90 12       		.uleb128 0x12
 1856 0a91 2B050000 		.4byte	0x52b
 1857 0a95 12       		.uleb128 0x12
 1858 0a96 2C000000 		.4byte	0x2c
 1859 0a9a 12       		.uleb128 0x12
 1860 0a9b 2D010000 		.4byte	0x12d
 1861 0a9f 00       		.byte	0
 1862 0aa0 09       		.uleb128 0x9
 1863 0aa1 04       		.byte	0x4
 1864 0aa2 820A0000 		.4byte	0xa82
 1865 0aa6 11       		.uleb128 0x11
 1866 0aa7 2C000000 		.4byte	0x2c
 1867 0aab C40A0000 		.4byte	0xac4
 1868 0aaf 12       		.uleb128 0x12
 1869 0ab0 85020000 		.4byte	0x285
ARM GAS  /tmp/ccFAambi.s 			page 34


 1870 0ab4 12       		.uleb128 0x12
 1871 0ab5 F6040000 		.4byte	0x4f6
 1872 0ab9 12       		.uleb128 0x12
 1873 0aba 2C000000 		.4byte	0x2c
 1874 0abe 12       		.uleb128 0x12
 1875 0abf 2D010000 		.4byte	0x12d
 1876 0ac3 00       		.byte	0
 1877 0ac4 09       		.uleb128 0x9
 1878 0ac5 04       		.byte	0x4
 1879 0ac6 A60A0000 		.4byte	0xaa6
 1880 0aca 1B       		.uleb128 0x1b
 1881 0acb 01       		.byte	0x1
 1882 0acc 0D       		.byte	0xd
 1883 0acd 64       		.byte	0x64
 1884 0ace E50A0000 		.4byte	0xae5
 1885 0ad2 15       		.uleb128 0x15
 1886 0ad3 4D030000 		.4byte	.LASF203
 1887 0ad7 00       		.sleb128 0
 1888 0ad8 15       		.uleb128 0x15
 1889 0ad9 E50B0000 		.4byte	.LASF204
 1890 0add 01       		.sleb128 1
 1891 0ade 15       		.uleb128 0x15
 1892 0adf 8F090000 		.4byte	.LASF205
 1893 0ae3 02       		.sleb128 2
 1894 0ae4 00       		.byte	0
 1895 0ae5 03       		.uleb128 0x3
 1896 0ae6 59090000 		.4byte	.LASF206
 1897 0aea 0D       		.byte	0xd
 1898 0aeb 68       		.byte	0x68
 1899 0aec CA0A0000 		.4byte	0xaca
 1900 0af0 03       		.uleb128 0x3
 1901 0af1 1D090000 		.4byte	.LASF207
 1902 0af5 0D       		.byte	0xd
 1903 0af6 6D       		.byte	0x6d
 1904 0af7 FB0A0000 		.4byte	0xafb
 1905 0afb 05       		.uleb128 0x5
 1906 0afc 1D090000 		.4byte	.LASF207
 1907 0b00 78       		.byte	0x78
 1908 0b01 0D       		.byte	0xd
 1909 0b02 87       		.byte	0x87
 1910 0b03 660B0000 		.4byte	0xb66
 1911 0b07 07       		.uleb128 0x7
 1912 0b08 766D7400 		.ascii	"vmt\000"
 1913 0b0c 0D       		.byte	0xd
 1914 0b0d 89       		.byte	0x89
 1915 0b0e 170C0000 		.4byte	0xc17
 1916 0b12 00       		.byte	0
 1917 0b13 06       		.uleb128 0x6
 1918 0b14 07070000 		.4byte	.LASF208
 1919 0b18 0D       		.byte	0xd
 1920 0b19 8A       		.byte	0x8a
 1921 0b1a E9030000 		.4byte	0x3e9
 1922 0b1e 04       		.byte	0x4
 1923 0b1f 06       		.uleb128 0x6
 1924 0b20 C2000000 		.4byte	.LASF209
 1925 0b24 0D       		.byte	0xd
 1926 0b25 8A       		.byte	0x8a
ARM GAS  /tmp/ccFAambi.s 			page 35


 1927 0b26 E50A0000 		.4byte	0xae5
 1928 0b2a 08       		.byte	0x8
 1929 0b2b 06       		.uleb128 0x6
 1930 0b2c E7090000 		.4byte	.LASF210
 1931 0b30 0D       		.byte	0xd
 1932 0b31 8A       		.byte	0x8a
 1933 0b32 FC040000 		.4byte	0x4fc
 1934 0b36 0C       		.byte	0xc
 1935 0b37 06       		.uleb128 0x6
 1936 0b38 0A020000 		.4byte	.LASF211
 1937 0b3c 0D       		.byte	0xd
 1938 0b3d 8A       		.byte	0x8a
 1939 0b3e 07050000 		.4byte	0x507
 1940 0b42 30       		.byte	0x30
 1941 0b43 07       		.uleb128 0x7
 1942 0b44 696200   		.ascii	"ib\000"
 1943 0b47 0D       		.byte	0xd
 1944 0b48 8A       		.byte	0x8a
 1945 0b49 220C0000 		.4byte	0xc22
 1946 0b4d 54       		.byte	0x54
 1947 0b4e 07       		.uleb128 0x7
 1948 0b4f 6F6200   		.ascii	"ob\000"
 1949 0b52 0D       		.byte	0xd
 1950 0b53 8A       		.byte	0x8a
 1951 0b54 220C0000 		.4byte	0xc22
 1952 0b58 64       		.byte	0x64
 1953 0b59 06       		.uleb128 0x6
 1954 0b5a 9C020000 		.4byte	.LASF212
 1955 0b5e 0D       		.byte	0xd
 1956 0b5f 8A       		.byte	0x8a
 1957 0b60 320C0000 		.4byte	0xc32
 1958 0b64 74       		.byte	0x74
 1959 0b65 00       		.byte	0
 1960 0b66 08       		.uleb128 0x8
 1961 0b67 0C       		.byte	0xc
 1962 0b68 0E       		.byte	0xe
 1963 0b69 D7       		.byte	0xd7
 1964 0b6a 9F0B0000 		.4byte	0xb9f
 1965 0b6e 06       		.uleb128 0x6
 1966 0b6f 64040000 		.4byte	.LASF213
 1967 0b73 0E       		.byte	0xe
 1968 0b74 DB       		.byte	0xdb
 1969 0b75 CE000000 		.4byte	0xce
 1970 0b79 00       		.byte	0
 1971 0b7a 07       		.uleb128 0x7
 1972 0b7b 63723100 		.ascii	"cr1\000"
 1973 0b7f 0E       		.byte	0xe
 1974 0b80 E0       		.byte	0xe0
 1975 0b81 B8000000 		.4byte	0xb8
 1976 0b85 04       		.byte	0x4
 1977 0b86 07       		.uleb128 0x7
 1978 0b87 63723200 		.ascii	"cr2\000"
 1979 0b8b 0E       		.byte	0xe
 1980 0b8c E4       		.byte	0xe4
 1981 0b8d B8000000 		.4byte	0xb8
 1982 0b91 06       		.byte	0x6
 1983 0b92 07       		.uleb128 0x7
ARM GAS  /tmp/ccFAambi.s 			page 36


 1984 0b93 63723300 		.ascii	"cr3\000"
 1985 0b97 0E       		.byte	0xe
 1986 0b98 E8       		.byte	0xe8
 1987 0b99 B8000000 		.4byte	0xb8
 1988 0b9d 08       		.byte	0x8
 1989 0b9e 00       		.byte	0
 1990 0b9f 03       		.uleb128 0x3
 1991 0ba0 59000000 		.4byte	.LASF214
 1992 0ba4 0E       		.byte	0xe
 1993 0ba5 E9       		.byte	0xe9
 1994 0ba6 660B0000 		.4byte	0xb66
 1995 0baa 05       		.uleb128 0x5
 1996 0bab BF050000 		.4byte	.LASF215
 1997 0baf 20       		.byte	0x20
 1998 0bb0 0D       		.byte	0xd
 1999 0bb1 7C       		.byte	0x7c
 2000 0bb2 170C0000 		.4byte	0xc17
 2001 0bb6 06       		.uleb128 0x6
 2002 0bb7 72000000 		.4byte	.LASF216
 2003 0bbb 0D       		.byte	0xd
 2004 0bbc 7D       		.byte	0x7d
 2005 0bbd 36050000 		.4byte	0x536
 2006 0bc1 00       		.byte	0
 2007 0bc2 06       		.uleb128 0x6
 2008 0bc3 26070000 		.4byte	.LASF217
 2009 0bc7 0D       		.byte	0xd
 2010 0bc8 7D       		.byte	0x7d
 2011 0bc9 55050000 		.4byte	0x555
 2012 0bcd 04       		.byte	0x4
 2013 0bce 07       		.uleb128 0x7
 2014 0bcf 70757400 		.ascii	"put\000"
 2015 0bd3 0D       		.byte	0xd
 2016 0bd4 7D       		.byte	0x7d
 2017 0bd5 6F050000 		.4byte	0x56f
 2018 0bd9 08       		.byte	0x8
 2019 0bda 07       		.uleb128 0x7
 2020 0bdb 67657400 		.ascii	"get\000"
 2021 0bdf 0D       		.byte	0xd
 2022 0be0 7D       		.byte	0x7d
 2023 0be1 47040000 		.4byte	0x447
 2024 0be5 0C       		.byte	0xc
 2025 0be6 06       		.uleb128 0x6
 2026 0be7 C8000000 		.4byte	.LASF218
 2027 0beb 0D       		.byte	0xd
 2028 0bec 7D       		.byte	0x7d
 2029 0bed 620A0000 		.4byte	0xa62
 2030 0bf1 10       		.byte	0x10
 2031 0bf2 06       		.uleb128 0x6
 2032 0bf3 DF030000 		.4byte	.LASF219
 2033 0bf7 0D       		.byte	0xd
 2034 0bf8 7D       		.byte	0x7d
 2035 0bf9 7C0A0000 		.4byte	0xa7c
 2036 0bfd 14       		.byte	0x14
 2037 0bfe 06       		.uleb128 0x6
 2038 0bff 66000000 		.4byte	.LASF220
 2039 0c03 0D       		.byte	0xd
 2040 0c04 7D       		.byte	0x7d
ARM GAS  /tmp/ccFAambi.s 			page 37


 2041 0c05 A00A0000 		.4byte	0xaa0
 2042 0c09 18       		.byte	0x18
 2043 0c0a 06       		.uleb128 0x6
 2044 0c0b 65010000 		.4byte	.LASF221
 2045 0c0f 0D       		.byte	0xd
 2046 0c10 7D       		.byte	0x7d
 2047 0c11 C40A0000 		.4byte	0xac4
 2048 0c15 1C       		.byte	0x1c
 2049 0c16 00       		.byte	0
 2050 0c17 09       		.uleb128 0x9
 2051 0c18 04       		.byte	0x4
 2052 0c19 1D0C0000 		.4byte	0xc1d
 2053 0c1d 10       		.uleb128 0x10
 2054 0c1e AA0B0000 		.4byte	0xbaa
 2055 0c22 16       		.uleb128 0x16
 2056 0c23 AD000000 		.4byte	0xad
 2057 0c27 320C0000 		.4byte	0xc32
 2058 0c2b 17       		.uleb128 0x17
 2059 0c2c 34030000 		.4byte	0x334
 2060 0c30 0F       		.byte	0xf
 2061 0c31 00       		.byte	0
 2062 0c32 09       		.uleb128 0x9
 2063 0c33 04       		.byte	0x4
 2064 0c34 3D0A0000 		.4byte	0xa3d
 2065 0c38 1C       		.uleb128 0x1c
 2066 0c39 48080000 		.4byte	.LASF223
 2067 0c3d 01       		.byte	0x1
 2068 0c3e 5C       		.byte	0x5c
 2069 0c3f 01       		.byte	0x1
 2070 0c40 640C0000 		.4byte	0xc64
 2071 0c44 1D       		.uleb128 0x1d
 2072 0c45 73647000 		.ascii	"sdp\000"
 2073 0c49 01       		.byte	0x1
 2074 0c4a 5C       		.byte	0x5c
 2075 0c4b 640C0000 		.4byte	0xc64
 2076 0c4f 1E       		.uleb128 0x1e
 2077 0c50 BB000000 		.4byte	.LASF222
 2078 0c54 01       		.byte	0x1
 2079 0c55 5C       		.byte	0x5c
 2080 0c56 6A0C0000 		.4byte	0xc6a
 2081 0c5a 1F       		.uleb128 0x1f
 2082 0c5b 7500     		.ascii	"u\000"
 2083 0c5d 01       		.byte	0x1
 2084 0c5e 5D       		.byte	0x5d
 2085 0c5f 320C0000 		.4byte	0xc32
 2086 0c63 00       		.byte	0
 2087 0c64 09       		.uleb128 0x9
 2088 0c65 04       		.byte	0x4
 2089 0c66 F00A0000 		.4byte	0xaf0
 2090 0c6a 09       		.uleb128 0x9
 2091 0c6b 04       		.byte	0x4
 2092 0c6c 700C0000 		.4byte	0xc70
 2093 0c70 10       		.uleb128 0x10
 2094 0c71 9F0B0000 		.4byte	0xb9f
 2095 0c75 1C       		.uleb128 0x1c
 2096 0c76 CF050000 		.4byte	.LASF224
 2097 0c7a 01       		.byte	0x1
ARM GAS  /tmp/ccFAambi.s 			page 38


 2098 0c7b 7A       		.byte	0x7a
 2099 0c7c 01       		.byte	0x1
 2100 0c7d 8B0C0000 		.4byte	0xc8b
 2101 0c81 1D       		.uleb128 0x1d
 2102 0c82 7500     		.ascii	"u\000"
 2103 0c84 01       		.byte	0x1
 2104 0c85 7A       		.byte	0x7a
 2105 0c86 320C0000 		.4byte	0xc32
 2106 0c8a 00       		.byte	0
 2107 0c8b 1C       		.uleb128 0x1c
 2108 0c8c D7000000 		.4byte	.LASF225
 2109 0c90 01       		.byte	0x1
 2110 0c91 9A       		.byte	0x9a
 2111 0c92 01       		.byte	0x1
 2112 0c93 CC0C0000 		.4byte	0xccc
 2113 0c97 1D       		.uleb128 0x1d
 2114 0c98 73647000 		.ascii	"sdp\000"
 2115 0c9c 01       		.byte	0x1
 2116 0c9d 9A       		.byte	0x9a
 2117 0c9e 640C0000 		.4byte	0xc64
 2118 0ca2 1F       		.uleb128 0x1f
 2119 0ca3 7500     		.ascii	"u\000"
 2120 0ca5 01       		.byte	0x1
 2121 0ca6 9B       		.byte	0x9b
 2122 0ca7 320C0000 		.4byte	0xc32
 2123 0cab 1F       		.uleb128 0x1f
 2124 0cac 63723100 		.ascii	"cr1\000"
 2125 0cb0 01       		.byte	0x1
 2126 0cb1 9C       		.byte	0x9c
 2127 0cb2 B8000000 		.4byte	0xb8
 2128 0cb6 1F       		.uleb128 0x1f
 2129 0cb7 737200   		.ascii	"sr\000"
 2130 0cba 01       		.byte	0x1
 2131 0cbb 9D       		.byte	0x9d
 2132 0cbc B8000000 		.4byte	0xb8
 2133 0cc0 20       		.uleb128 0x20
 2134 0cc1 1F       		.uleb128 0x1f
 2135 0cc2 6200     		.ascii	"b\000"
 2136 0cc4 01       		.byte	0x1
 2137 0cc5 B4       		.byte	0xb4
 2138 0cc6 0C010000 		.4byte	0x10c
 2139 0cca 00       		.byte	0
 2140 0ccb 00       		.byte	0
 2141 0ccc 21       		.uleb128 0x21
 2142 0ccd B7090000 		.4byte	.LASF245
 2143 0cd1 01       		.byte	0x1
 2144 0cd2 D3       		.byte	0xd3
 2145 0cd3 00000000 		.4byte	.LFB115
 2146 0cd7 14000000 		.4byte	.LFE115-.LFB115
 2147 0cdb 01       		.uleb128 0x1
 2148 0cdc 9C       		.byte	0x9c
 2149 0cdd EE0C0000 		.4byte	0xcee
 2150 0ce1 22       		.uleb128 0x22
 2151 0ce2 717000   		.ascii	"qp\000"
 2152 0ce5 01       		.byte	0x1
 2153 0ce6 D3       		.byte	0xd3
 2154 0ce7 F0040000 		.4byte	0x4f0
ARM GAS  /tmp/ccFAambi.s 			page 39


 2155 0ceb 01       		.uleb128 0x1
 2156 0cec 50       		.byte	0x50
 2157 0ced 00       		.byte	0
 2158 0cee 1C       		.uleb128 0x1c
 2159 0cef E7000000 		.4byte	.LASF226
 2160 0cf3 01       		.byte	0x1
 2161 0cf4 87       		.byte	0x87
 2162 0cf5 01       		.byte	0x1
 2163 0cf6 1B0D0000 		.4byte	0xd1b
 2164 0cfa 1D       		.uleb128 0x1d
 2165 0cfb 73647000 		.ascii	"sdp\000"
 2166 0cff 01       		.byte	0x1
 2167 0d00 87       		.byte	0x87
 2168 0d01 640C0000 		.4byte	0xc64
 2169 0d05 1D       		.uleb128 0x1d
 2170 0d06 737200   		.ascii	"sr\000"
 2171 0d09 01       		.byte	0x1
 2172 0d0a 87       		.byte	0x87
 2173 0d0b B8000000 		.4byte	0xb8
 2174 0d0f 1F       		.uleb128 0x1f
 2175 0d10 73747300 		.ascii	"sts\000"
 2176 0d14 01       		.byte	0x1
 2177 0d15 88       		.byte	0x88
 2178 0d16 22010000 		.4byte	0x122
 2179 0d1a 00       		.byte	0
 2180 0d1b 23       		.uleb128 0x23
 2181 0d1c 8A000000 		.4byte	.LASF227
 2182 0d20 01       		.byte	0x1
 2183 0d21 1A01     		.2byte	0x11a
 2184 0d23 00000000 		.4byte	.LFB116
 2185 0d27 18010000 		.4byte	.LFE116-.LFB116
 2186 0d2b 01       		.uleb128 0x1
 2187 0d2c 9C       		.byte	0x9c
 2188 0d2d BA0E0000 		.4byte	0xeba
 2189 0d31 24       		.uleb128 0x24
 2190 0d32 8B0C0000 		.4byte	0xc8b
 2191 0d36 06000000 		.4byte	.LBB10
 2192 0d3a 00000000 		.4byte	.Ldebug_ranges0+0
 2193 0d3e 01       		.byte	0x1
 2194 0d3f 1E01     		.2byte	0x11e
 2195 0d41 9E0E0000 		.4byte	0xe9e
 2196 0d45 25       		.uleb128 0x25
 2197 0d46 970C0000 		.4byte	0xc97
 2198 0d4a 06       		.uleb128 0x6
 2199 0d4b 03       		.byte	0x3
 2200 0d4c 00000000 		.4byte	SD2
 2201 0d50 9F       		.byte	0x9f
 2202 0d51 26       		.uleb128 0x26
 2203 0d52 00000000 		.4byte	.Ldebug_ranges0+0
 2204 0d56 27       		.uleb128 0x27
 2205 0d57 A20C0000 		.4byte	0xca2
 2206 0d5b 00000000 		.4byte	.LLST0
 2207 0d5f 27       		.uleb128 0x27
 2208 0d60 AB0C0000 		.4byte	0xcab
 2209 0d64 1E000000 		.4byte	.LLST1
 2210 0d68 27       		.uleb128 0x27
 2211 0d69 B60C0000 		.4byte	0xcb6
ARM GAS  /tmp/ccFAambi.s 			page 40


 2212 0d6d 3C000000 		.4byte	.LLST2
 2213 0d71 28       		.uleb128 0x28
 2214 0d72 EE0C0000 		.4byte	0xcee
 2215 0d76 46000000 		.4byte	.LBB12
 2216 0d7a 2C000000 		.4byte	.LBE12-.LBB12
 2217 0d7e 01       		.byte	0x1
 2218 0d7f AC       		.byte	0xac
 2219 0d80 BD0D0000 		.4byte	0xdbd
 2220 0d84 29       		.uleb128 0x29
 2221 0d85 050D0000 		.4byte	0xd05
 2222 0d89 65000000 		.4byte	.LLST3
 2223 0d8d 29       		.uleb128 0x29
 2224 0d8e FA0C0000 		.4byte	0xcfa
 2225 0d92 78000000 		.4byte	.LLST4
 2226 0d96 2A       		.uleb128 0x2a
 2227 0d97 46000000 		.4byte	.LBB13
 2228 0d9b 2C000000 		.4byte	.LBE13-.LBB13
 2229 0d9f 27       		.uleb128 0x27
 2230 0da0 0F0D0000 		.4byte	0xd0f
 2231 0da4 90000000 		.4byte	.LLST5
 2232 0da8 2B       		.uleb128 0x2b
 2233 0da9 70000000 		.4byte	.LVL15
 2234 0dad F90F0000 		.4byte	0xff9
 2235 0db1 2C       		.uleb128 0x2c
 2236 0db2 01       		.uleb128 0x1
 2237 0db3 50       		.byte	0x50
 2238 0db4 05       		.uleb128 0x5
 2239 0db5 03       		.byte	0x3
 2240 0db6 04000000 		.4byte	.LANCHOR0+4
 2241 0dba 00       		.byte	0
 2242 0dbb 00       		.byte	0
 2243 0dbc 00       		.byte	0
 2244 0dbd 2D       		.uleb128 0x2d
 2245 0dbe DA000000 		.4byte	.LBB14
 2246 0dc2 3E000000 		.4byte	.LBE14-.LBB14
 2247 0dc6 150E0000 		.4byte	0xe15
 2248 0dca 27       		.uleb128 0x27
 2249 0dcb C10C0000 		.4byte	0xcc1
 2250 0dcf AF000000 		.4byte	.LLST6
 2251 0dd3 2E       		.uleb128 0x2e
 2252 0dd4 E2000000 		.4byte	.LVL28
 2253 0dd8 15100000 		.4byte	0x1015
 2254 0ddc 2F       		.uleb128 0x2f
 2255 0ddd E8000000 		.4byte	.LVL29
 2256 0de1 1C100000 		.4byte	0x101c
 2257 0de5 F30D0000 		.4byte	0xdf3
 2258 0de9 2C       		.uleb128 0x2c
 2259 0dea 01       		.uleb128 0x1
 2260 0deb 50       		.byte	0x50
 2261 0dec 05       		.uleb128 0x5
 2262 0ded 03       		.byte	0x3
 2263 0dee 30000000 		.4byte	.LANCHOR0+48
 2264 0df2 00       		.byte	0
 2265 0df3 2E       		.uleb128 0x2e
 2266 0df4 F6000000 		.4byte	.LVL31
 2267 0df8 38100000 		.4byte	0x1038
 2268 0dfc 2B       		.uleb128 0x2b
ARM GAS  /tmp/ccFAambi.s 			page 41


 2269 0dfd 04010000 		.4byte	.LVL32
 2270 0e01 F90F0000 		.4byte	0xff9
 2271 0e05 2C       		.uleb128 0x2c
 2272 0e06 01       		.uleb128 0x1
 2273 0e07 51       		.byte	0x51
 2274 0e08 01       		.uleb128 0x1
 2275 0e09 38       		.byte	0x38
 2276 0e0a 2C       		.uleb128 0x2c
 2277 0e0b 01       		.uleb128 0x1
 2278 0e0c 50       		.byte	0x50
 2279 0e0d 05       		.uleb128 0x5
 2280 0e0e 03       		.byte	0x3
 2281 0e0f 04000000 		.4byte	.LANCHOR0+4
 2282 0e13 00       		.byte	0
 2283 0e14 00       		.byte	0
 2284 0e15 2E       		.uleb128 0x2e
 2285 0e16 24000000 		.4byte	.LVL4
 2286 0e1a 15100000 		.4byte	0x1015
 2287 0e1e 2F       		.uleb128 0x2f
 2288 0e1f 3A000000 		.4byte	.LVL6
 2289 0e23 3F100000 		.4byte	0x103f
 2290 0e27 350E0000 		.4byte	0xe35
 2291 0e2b 2C       		.uleb128 0x2c
 2292 0e2c 01       		.uleb128 0x1
 2293 0e2d 50       		.byte	0x50
 2294 0e2e 05       		.uleb128 0x5
 2295 0e2f 03       		.byte	0x3
 2296 0e30 00000000 		.4byte	.LANCHOR0
 2297 0e34 00       		.byte	0
 2298 0e35 2E       		.uleb128 0x2e
 2299 0e36 76000000 		.4byte	.LVL17
 2300 0e3a 38100000 		.4byte	0x1038
 2301 0e3e 2E       		.uleb128 0x2e
 2302 0e3f 8E000000 		.4byte	.LVL18
 2303 0e43 15100000 		.4byte	0x1015
 2304 0e47 2F       		.uleb128 0x2f
 2305 0e48 96000000 		.4byte	.LVL19
 2306 0e4c F90F0000 		.4byte	0xff9
 2307 0e50 630E0000 		.4byte	0xe63
 2308 0e54 2C       		.uleb128 0x2c
 2309 0e55 01       		.uleb128 0x1
 2310 0e56 51       		.byte	0x51
 2311 0e57 01       		.uleb128 0x1
 2312 0e58 40       		.byte	0x40
 2313 0e59 2C       		.uleb128 0x2c
 2314 0e5a 01       		.uleb128 0x1
 2315 0e5b 50       		.byte	0x50
 2316 0e5c 05       		.uleb128 0x5
 2317 0e5d 03       		.byte	0x3
 2318 0e5e 04000000 		.4byte	.LANCHOR0+4
 2319 0e62 00       		.byte	0
 2320 0e63 2E       		.uleb128 0x2e
 2321 0e64 9A000000 		.4byte	.LVL20
 2322 0e68 38100000 		.4byte	0x1038
 2323 0e6c 2E       		.uleb128 0x2e
 2324 0e6d C0000000 		.4byte	.LVL24
 2325 0e71 15100000 		.4byte	0x1015
ARM GAS  /tmp/ccFAambi.s 			page 42


 2326 0e75 2F       		.uleb128 0x2f
 2327 0e76 CA000000 		.4byte	.LVL25
 2328 0e7a F90F0000 		.4byte	0xff9
 2329 0e7e 930E0000 		.4byte	0xe93
 2330 0e82 2C       		.uleb128 0x2c
 2331 0e83 01       		.uleb128 0x1
 2332 0e84 51       		.byte	0x51
 2333 0e85 03       		.uleb128 0x3
 2334 0e86 0A       		.byte	0xa
 2335 0e87 0002     		.2byte	0x200
 2336 0e89 2C       		.uleb128 0x2c
 2337 0e8a 01       		.uleb128 0x1
 2338 0e8b 50       		.byte	0x50
 2339 0e8c 05       		.uleb128 0x5
 2340 0e8d 03       		.byte	0x3
 2341 0e8e 04000000 		.4byte	.LANCHOR0+4
 2342 0e92 00       		.byte	0
 2343 0e93 2E       		.uleb128 0x2e
 2344 0e94 CE000000 		.4byte	.LVL26
 2345 0e98 38100000 		.4byte	0x1038
 2346 0e9c 00       		.byte	0
 2347 0e9d 00       		.byte	0
 2348 0e9e 2E       		.uleb128 0x2e
 2349 0e9f 06000000 		.4byte	.LVL1
 2350 0ea3 56100000 		.4byte	0x1056
 2351 0ea7 2E       		.uleb128 0x2e
 2352 0ea8 B0000000 		.4byte	.LVL21
 2353 0eac 5D100000 		.4byte	0x105d
 2354 0eb0 30       		.uleb128 0x30
 2355 0eb1 B8000000 		.4byte	.LVL23
 2356 0eb5 64100000 		.4byte	0x1064
 2357 0eb9 00       		.byte	0
 2358 0eba 23       		.uleb128 0x23
 2359 0ebb F7050000 		.4byte	.LASF228
 2360 0ebf 01       		.byte	0x1
 2361 0ec0 7901     		.2byte	0x179
 2362 0ec2 00000000 		.4byte	.LFB117
 2363 0ec6 26000000 		.4byte	.LFE117-.LFB117
 2364 0eca 01       		.uleb128 0x1
 2365 0ecb 9C       		.byte	0x9c
 2366 0ecc EF0E0000 		.4byte	0xeef
 2367 0ed0 2B       		.uleb128 0x2b
 2368 0ed1 1A000000 		.4byte	.LVL33
 2369 0ed5 6C100000 		.4byte	0x106c
 2370 0ed9 2C       		.uleb128 0x2c
 2371 0eda 01       		.uleb128 0x1
 2372 0edb 52       		.byte	0x52
 2373 0edc 05       		.uleb128 0x5
 2374 0edd 03       		.byte	0x3
 2375 0ede 00000000 		.4byte	notify2
 2376 0ee2 2C       		.uleb128 0x2c
 2377 0ee3 01       		.uleb128 0x1
 2378 0ee4 51       		.byte	0x51
 2379 0ee5 01       		.uleb128 0x1
 2380 0ee6 30       		.byte	0x30
 2381 0ee7 2C       		.uleb128 0x2c
 2382 0ee8 01       		.uleb128 0x1
ARM GAS  /tmp/ccFAambi.s 			page 43


 2383 0ee9 50       		.byte	0x50
 2384 0eea 02       		.uleb128 0x2
 2385 0eeb 74       		.byte	0x74
 2386 0eec 00       		.sleb128 0
 2387 0eed 00       		.byte	0
 2388 0eee 00       		.byte	0
 2389 0eef 23       		.uleb128 0x23
 2390 0ef0 6B010000 		.4byte	.LASF229
 2391 0ef4 01       		.byte	0x1
 2392 0ef5 A401     		.2byte	0x1a4
 2393 0ef7 00000000 		.4byte	.LFB118
 2394 0efb A2000000 		.4byte	.LFE118-.LFB118
 2395 0eff 01       		.uleb128 0x1
 2396 0f00 9C       		.byte	0x9c
 2397 0f01 760F0000 		.4byte	0xf76
 2398 0f05 31       		.uleb128 0x31
 2399 0f06 73647000 		.ascii	"sdp\000"
 2400 0f0a 01       		.byte	0x1
 2401 0f0b A401     		.2byte	0x1a4
 2402 0f0d 640C0000 		.4byte	0xc64
 2403 0f11 C2000000 		.4byte	.LLST7
 2404 0f15 32       		.uleb128 0x32
 2405 0f16 BB000000 		.4byte	.LASF222
 2406 0f1a 01       		.byte	0x1
 2407 0f1b A401     		.2byte	0x1a4
 2408 0f1d 6A0C0000 		.4byte	0xc6a
 2409 0f21 F6000000 		.4byte	.LLST8
 2410 0f25 33       		.uleb128 0x33
 2411 0f26 380C0000 		.4byte	0xc38
 2412 0f2a 1A000000 		.4byte	.LBB19
 2413 0f2e 62000000 		.4byte	.LBE19-.LBB19
 2414 0f32 01       		.byte	0x1
 2415 0f33 D501     		.2byte	0x1d5
 2416 0f35 5F0F0000 		.4byte	0xf5f
 2417 0f39 29       		.uleb128 0x29
 2418 0f3a 440C0000 		.4byte	0xc44
 2419 0f3e 3C010000 		.4byte	.LLST9
 2420 0f42 29       		.uleb128 0x29
 2421 0f43 4F0C0000 		.4byte	0xc4f
 2422 0f47 4F010000 		.4byte	.LLST10
 2423 0f4b 2A       		.uleb128 0x2a
 2424 0f4c 1A000000 		.4byte	.LBB20
 2425 0f50 62000000 		.4byte	.LBE20-.LBB20
 2426 0f54 27       		.uleb128 0x27
 2427 0f55 5A0C0000 		.4byte	0xc5a
 2428 0f59 7F010000 		.4byte	.LLST11
 2429 0f5d 00       		.byte	0
 2430 0f5e 00       		.byte	0
 2431 0f5f 2B       		.uleb128 0x2b
 2432 0f60 A0000000 		.4byte	.LVL42
 2433 0f64 88100000 		.4byte	0x1088
 2434 0f68 2C       		.uleb128 0x2c
 2435 0f69 01       		.uleb128 0x1
 2436 0f6a 51       		.byte	0x51
 2437 0f6b 02       		.uleb128 0x2
 2438 0f6c 08       		.byte	0x8
 2439 0f6d C0       		.byte	0xc0
ARM GAS  /tmp/ccFAambi.s 			page 44


 2440 0f6e 2C       		.uleb128 0x2c
 2441 0f6f 01       		.uleb128 0x1
 2442 0f70 50       		.byte	0x50
 2443 0f71 02       		.uleb128 0x2
 2444 0f72 08       		.byte	0x8
 2445 0f73 26       		.byte	0x26
 2446 0f74 00       		.byte	0
 2447 0f75 00       		.byte	0
 2448 0f76 23       		.uleb128 0x23
 2449 0f77 660B0000 		.4byte	.LASF230
 2450 0f7b 01       		.byte	0x1
 2451 0f7c E101     		.2byte	0x1e1
 2452 0f7e 00000000 		.4byte	.LFB119
 2453 0f82 34000000 		.4byte	.LFE119-.LFB119
 2454 0f86 01       		.uleb128 0x1
 2455 0f87 9C       		.byte	0x9c
 2456 0f88 CB0F0000 		.4byte	0xfcb
 2457 0f8c 31       		.uleb128 0x31
 2458 0f8d 73647000 		.ascii	"sdp\000"
 2459 0f91 01       		.byte	0x1
 2460 0f92 E101     		.2byte	0x1e1
 2461 0f94 640C0000 		.4byte	0xc64
 2462 0f98 92010000 		.4byte	.LLST12
 2463 0f9c 24       		.uleb128 0x24
 2464 0f9d 750C0000 		.4byte	0xc75
 2465 0fa1 12000000 		.4byte	.LBB21
 2466 0fa5 18000000 		.4byte	.Ldebug_ranges0+0x18
 2467 0fa9 01       		.byte	0x1
 2468 0faa E401     		.2byte	0x1e4
 2469 0fac BA0F0000 		.4byte	0xfba
 2470 0fb0 29       		.uleb128 0x29
 2471 0fb1 810C0000 		.4byte	0xc81
 2472 0fb5 B3010000 		.4byte	.LLST13
 2473 0fb9 00       		.byte	0
 2474 0fba 34       		.uleb128 0x34
 2475 0fbb 34000000 		.4byte	.LVL47
 2476 0fbf 9F100000 		.4byte	0x109f
 2477 0fc3 2C       		.uleb128 0x2c
 2478 0fc4 01       		.uleb128 0x1
 2479 0fc5 50       		.byte	0x50
 2480 0fc6 02       		.uleb128 0x2
 2481 0fc7 08       		.byte	0x8
 2482 0fc8 26       		.byte	0x26
 2483 0fc9 00       		.byte	0
 2484 0fca 00       		.byte	0
 2485 0fcb 35       		.uleb128 0x35
 2486 0fcc BE010000 		.4byte	.LASF246
 2487 0fd0 01       		.byte	0x1
 2488 0fd1 49       		.byte	0x49
 2489 0fd2 700C0000 		.4byte	0xc70
 2490 0fd6 05       		.uleb128 0x5
 2491 0fd7 03       		.byte	0x3
 2492 0fd8 00000000 		.4byte	default_config
 2493 0fdc 36       		.uleb128 0x36
 2494 0fdd 1A0A0000 		.4byte	.LASF231
 2495 0fe1 11       		.byte	0x11
 2496 0fe2 9806     		.2byte	0x698
ARM GAS  /tmp/ccFAambi.s 			page 45


 2497 0fe4 C5070000 		.4byte	0x7c5
 2498 0fe8 37       		.uleb128 0x37
 2499 0fe9 53443200 		.ascii	"SD2\000"
 2500 0fed 01       		.byte	0x1
 2501 0fee 2D       		.byte	0x2d
 2502 0fef F00A0000 		.4byte	0xaf0
 2503 0ff3 05       		.uleb128 0x5
 2504 0ff4 03       		.byte	0x3
 2505 0ff5 00000000 		.4byte	SD2
 2506 0ff9 38       		.uleb128 0x38
 2507 0ffa E0070000 		.4byte	.LASF234
 2508 0ffe 0A       		.byte	0xa
 2509 0fff BA       		.byte	0xba
 2510 1000 0F100000 		.4byte	0x100f
 2511 1004 12       		.uleb128 0x12
 2512 1005 0F100000 		.4byte	0x100f
 2513 1009 12       		.uleb128 0x12
 2514 100a 22010000 		.4byte	0x122
 2515 100e 00       		.byte	0
 2516 100f 09       		.uleb128 0x9
 2517 1010 04       		.byte	0x4
 2518 1011 E9030000 		.4byte	0x3e9
 2519 1015 39       		.uleb128 0x39
 2520 1016 1F040000 		.4byte	.LASF232
 2521 101a 0F       		.byte	0xf
 2522 101b E9       		.byte	0xe9
 2523 101c 3A       		.uleb128 0x3a
 2524 101d 53070000 		.4byte	.LASF247
 2525 1021 0B       		.byte	0xb
 2526 1022 6E01     		.2byte	0x16e
 2527 1024 0C010000 		.4byte	0x10c
 2528 1028 32100000 		.4byte	0x1032
 2529 102c 12       		.uleb128 0x12
 2530 102d 32100000 		.4byte	0x1032
 2531 1031 00       		.byte	0
 2532 1032 09       		.uleb128 0x9
 2533 1033 04       		.byte	0x4
 2534 1034 07050000 		.4byte	0x507
 2535 1038 39       		.uleb128 0x39
 2536 1039 A9060000 		.4byte	.LASF233
 2537 103d 0F       		.byte	0xf
 2538 103e EA       		.byte	0xea
 2539 103f 3B       		.uleb128 0x3b
 2540 1040 3A060000 		.4byte	.LASF235
 2541 1044 0D       		.byte	0xd
 2542 1045 3901     		.2byte	0x139
 2543 1047 56100000 		.4byte	0x1056
 2544 104b 12       		.uleb128 0x12
 2545 104c 640C0000 		.4byte	0xc64
 2546 1050 12       		.uleb128 0x12
 2547 1051 AD000000 		.4byte	0xad
 2548 1055 00       		.byte	0
 2549 1056 39       		.uleb128 0x39
 2550 1057 49040000 		.4byte	.LASF236
 2551 105b 0F       		.byte	0xf
 2552 105c EB       		.byte	0xeb
 2553 105d 39       		.uleb128 0x39
ARM GAS  /tmp/ccFAambi.s 			page 46


 2554 105e 77080000 		.4byte	.LASF237
 2555 1062 0F       		.byte	0xf
 2556 1063 EC       		.byte	0xec
 2557 1064 3C       		.uleb128 0x3c
 2558 1065 5C070000 		.4byte	.LASF238
 2559 1069 08       		.byte	0x8
 2560 106a 0302     		.2byte	0x203
 2561 106c 3B       		.uleb128 0x3b
 2562 106d 8A010000 		.4byte	.LASF239
 2563 1071 0D       		.byte	0xd
 2564 1072 3601     		.2byte	0x136
 2565 1074 88100000 		.4byte	0x1088
 2566 1078 12       		.uleb128 0x12
 2567 1079 640C0000 		.4byte	0xc64
 2568 107d 12       		.uleb128 0x12
 2569 107e D4040000 		.4byte	0x4d4
 2570 1082 12       		.uleb128 0x12
 2571 1083 D4040000 		.4byte	0x4d4
 2572 1087 00       		.byte	0
 2573 1088 3B       		.uleb128 0x3b
 2574 1089 F40A0000 		.4byte	.LASF240
 2575 108d 10       		.byte	0x10
 2576 108e 2301     		.2byte	0x123
 2577 1090 9F100000 		.4byte	0x109f
 2578 1094 12       		.uleb128 0x12
 2579 1095 CE000000 		.4byte	0xce
 2580 1099 12       		.uleb128 0x12
 2581 109a CE000000 		.4byte	0xce
 2582 109e 00       		.byte	0
 2583 109f 3D       		.uleb128 0x3d
 2584 10a0 FE070000 		.4byte	.LASF248
 2585 10a4 10       		.byte	0x10
 2586 10a5 2401     		.2byte	0x124
 2587 10a7 12       		.uleb128 0x12
 2588 10a8 CE000000 		.4byte	0xce
 2589 10ac 00       		.byte	0
 2590 10ad 00       		.byte	0
 2591              		.section	.debug_abbrev,"",%progbits
 2592              	.Ldebug_abbrev0:
 2593 0000 01       		.uleb128 0x1
 2594 0001 11       		.uleb128 0x11
 2595 0002 01       		.byte	0x1
 2596 0003 25       		.uleb128 0x25
 2597 0004 0E       		.uleb128 0xe
 2598 0005 13       		.uleb128 0x13
 2599 0006 0B       		.uleb128 0xb
 2600 0007 03       		.uleb128 0x3
 2601 0008 0E       		.uleb128 0xe
 2602 0009 1B       		.uleb128 0x1b
 2603 000a 0E       		.uleb128 0xe
 2604 000b 55       		.uleb128 0x55
 2605 000c 17       		.uleb128 0x17
 2606 000d 11       		.uleb128 0x11
 2607 000e 01       		.uleb128 0x1
 2608 000f 10       		.uleb128 0x10
 2609 0010 17       		.uleb128 0x17
 2610 0011 00       		.byte	0
ARM GAS  /tmp/ccFAambi.s 			page 47


 2611 0012 00       		.byte	0
 2612 0013 02       		.uleb128 0x2
 2613 0014 24       		.uleb128 0x24
 2614 0015 00       		.byte	0
 2615 0016 0B       		.uleb128 0xb
 2616 0017 0B       		.uleb128 0xb
 2617 0018 3E       		.uleb128 0x3e
 2618 0019 0B       		.uleb128 0xb
 2619 001a 03       		.uleb128 0x3
 2620 001b 08       		.uleb128 0x8
 2621 001c 00       		.byte	0
 2622 001d 00       		.byte	0
 2623 001e 03       		.uleb128 0x3
 2624 001f 16       		.uleb128 0x16
 2625 0020 00       		.byte	0
 2626 0021 03       		.uleb128 0x3
 2627 0022 0E       		.uleb128 0xe
 2628 0023 3A       		.uleb128 0x3a
 2629 0024 0B       		.uleb128 0xb
 2630 0025 3B       		.uleb128 0x3b
 2631 0026 0B       		.uleb128 0xb
 2632 0027 49       		.uleb128 0x49
 2633 0028 13       		.uleb128 0x13
 2634 0029 00       		.byte	0
 2635 002a 00       		.byte	0
 2636 002b 04       		.uleb128 0x4
 2637 002c 24       		.uleb128 0x24
 2638 002d 00       		.byte	0
 2639 002e 0B       		.uleb128 0xb
 2640 002f 0B       		.uleb128 0xb
 2641 0030 3E       		.uleb128 0x3e
 2642 0031 0B       		.uleb128 0xb
 2643 0032 03       		.uleb128 0x3
 2644 0033 0E       		.uleb128 0xe
 2645 0034 00       		.byte	0
 2646 0035 00       		.byte	0
 2647 0036 05       		.uleb128 0x5
 2648 0037 13       		.uleb128 0x13
 2649 0038 01       		.byte	0x1
 2650 0039 03       		.uleb128 0x3
 2651 003a 0E       		.uleb128 0xe
 2652 003b 0B       		.uleb128 0xb
 2653 003c 0B       		.uleb128 0xb
 2654 003d 3A       		.uleb128 0x3a
 2655 003e 0B       		.uleb128 0xb
 2656 003f 3B       		.uleb128 0x3b
 2657 0040 0B       		.uleb128 0xb
 2658 0041 01       		.uleb128 0x1
 2659 0042 13       		.uleb128 0x13
 2660 0043 00       		.byte	0
 2661 0044 00       		.byte	0
 2662 0045 06       		.uleb128 0x6
 2663 0046 0D       		.uleb128 0xd
 2664 0047 00       		.byte	0
 2665 0048 03       		.uleb128 0x3
 2666 0049 0E       		.uleb128 0xe
 2667 004a 3A       		.uleb128 0x3a
ARM GAS  /tmp/ccFAambi.s 			page 48


 2668 004b 0B       		.uleb128 0xb
 2669 004c 3B       		.uleb128 0x3b
 2670 004d 0B       		.uleb128 0xb
 2671 004e 49       		.uleb128 0x49
 2672 004f 13       		.uleb128 0x13
 2673 0050 38       		.uleb128 0x38
 2674 0051 0B       		.uleb128 0xb
 2675 0052 00       		.byte	0
 2676 0053 00       		.byte	0
 2677 0054 07       		.uleb128 0x7
 2678 0055 0D       		.uleb128 0xd
 2679 0056 00       		.byte	0
 2680 0057 03       		.uleb128 0x3
 2681 0058 08       		.uleb128 0x8
 2682 0059 3A       		.uleb128 0x3a
 2683 005a 0B       		.uleb128 0xb
 2684 005b 3B       		.uleb128 0x3b
 2685 005c 0B       		.uleb128 0xb
 2686 005d 49       		.uleb128 0x49
 2687 005e 13       		.uleb128 0x13
 2688 005f 38       		.uleb128 0x38
 2689 0060 0B       		.uleb128 0xb
 2690 0061 00       		.byte	0
 2691 0062 00       		.byte	0
 2692 0063 08       		.uleb128 0x8
 2693 0064 13       		.uleb128 0x13
 2694 0065 01       		.byte	0x1
 2695 0066 0B       		.uleb128 0xb
 2696 0067 0B       		.uleb128 0xb
 2697 0068 3A       		.uleb128 0x3a
 2698 0069 0B       		.uleb128 0xb
 2699 006a 3B       		.uleb128 0x3b
 2700 006b 0B       		.uleb128 0xb
 2701 006c 01       		.uleb128 0x1
 2702 006d 13       		.uleb128 0x13
 2703 006e 00       		.byte	0
 2704 006f 00       		.byte	0
 2705 0070 09       		.uleb128 0x9
 2706 0071 0F       		.uleb128 0xf
 2707 0072 00       		.byte	0
 2708 0073 0B       		.uleb128 0xb
 2709 0074 0B       		.uleb128 0xb
 2710 0075 49       		.uleb128 0x49
 2711 0076 13       		.uleb128 0x13
 2712 0077 00       		.byte	0
 2713 0078 00       		.byte	0
 2714 0079 0A       		.uleb128 0xa
 2715 007a 0F       		.uleb128 0xf
 2716 007b 00       		.byte	0
 2717 007c 0B       		.uleb128 0xb
 2718 007d 0B       		.uleb128 0xb
 2719 007e 00       		.byte	0
 2720 007f 00       		.byte	0
 2721 0080 0B       		.uleb128 0xb
 2722 0081 13       		.uleb128 0x13
 2723 0082 01       		.byte	0x1
 2724 0083 03       		.uleb128 0x3
ARM GAS  /tmp/ccFAambi.s 			page 49


 2725 0084 0E       		.uleb128 0xe
 2726 0085 0B       		.uleb128 0xb
 2727 0086 0B       		.uleb128 0xb
 2728 0087 3A       		.uleb128 0x3a
 2729 0088 0B       		.uleb128 0xb
 2730 0089 3B       		.uleb128 0x3b
 2731 008a 05       		.uleb128 0x5
 2732 008b 01       		.uleb128 0x1
 2733 008c 13       		.uleb128 0x13
 2734 008d 00       		.byte	0
 2735 008e 00       		.byte	0
 2736 008f 0C       		.uleb128 0xc
 2737 0090 0D       		.uleb128 0xd
 2738 0091 00       		.byte	0
 2739 0092 03       		.uleb128 0x3
 2740 0093 08       		.uleb128 0x8
 2741 0094 3A       		.uleb128 0x3a
 2742 0095 0B       		.uleb128 0xb
 2743 0096 3B       		.uleb128 0x3b
 2744 0097 05       		.uleb128 0x5
 2745 0098 49       		.uleb128 0x49
 2746 0099 13       		.uleb128 0x13
 2747 009a 38       		.uleb128 0x38
 2748 009b 0B       		.uleb128 0xb
 2749 009c 00       		.byte	0
 2750 009d 00       		.byte	0
 2751 009e 0D       		.uleb128 0xd
 2752 009f 35       		.uleb128 0x35
 2753 00a0 00       		.byte	0
 2754 00a1 49       		.uleb128 0x49
 2755 00a2 13       		.uleb128 0x13
 2756 00a3 00       		.byte	0
 2757 00a4 00       		.byte	0
 2758 00a5 0E       		.uleb128 0xe
 2759 00a6 17       		.uleb128 0x17
 2760 00a7 01       		.byte	0x1
 2761 00a8 0B       		.uleb128 0xb
 2762 00a9 0B       		.uleb128 0xb
 2763 00aa 3A       		.uleb128 0x3a
 2764 00ab 0B       		.uleb128 0xb
 2765 00ac 3B       		.uleb128 0x3b
 2766 00ad 0B       		.uleb128 0xb
 2767 00ae 01       		.uleb128 0x1
 2768 00af 13       		.uleb128 0x13
 2769 00b0 00       		.byte	0
 2770 00b1 00       		.byte	0
 2771 00b2 0F       		.uleb128 0xf
 2772 00b3 0D       		.uleb128 0xd
 2773 00b4 00       		.byte	0
 2774 00b5 03       		.uleb128 0x3
 2775 00b6 0E       		.uleb128 0xe
 2776 00b7 3A       		.uleb128 0x3a
 2777 00b8 0B       		.uleb128 0xb
 2778 00b9 3B       		.uleb128 0x3b
 2779 00ba 0B       		.uleb128 0xb
 2780 00bb 49       		.uleb128 0x49
 2781 00bc 13       		.uleb128 0x13
ARM GAS  /tmp/ccFAambi.s 			page 50


 2782 00bd 00       		.byte	0
 2783 00be 00       		.byte	0
 2784 00bf 10       		.uleb128 0x10
 2785 00c0 26       		.uleb128 0x26
 2786 00c1 00       		.byte	0
 2787 00c2 49       		.uleb128 0x49
 2788 00c3 13       		.uleb128 0x13
 2789 00c4 00       		.byte	0
 2790 00c5 00       		.byte	0
 2791 00c6 11       		.uleb128 0x11
 2792 00c7 15       		.uleb128 0x15
 2793 00c8 01       		.byte	0x1
 2794 00c9 27       		.uleb128 0x27
 2795 00ca 19       		.uleb128 0x19
 2796 00cb 49       		.uleb128 0x49
 2797 00cc 13       		.uleb128 0x13
 2798 00cd 01       		.uleb128 0x1
 2799 00ce 13       		.uleb128 0x13
 2800 00cf 00       		.byte	0
 2801 00d0 00       		.byte	0
 2802 00d1 12       		.uleb128 0x12
 2803 00d2 05       		.uleb128 0x5
 2804 00d3 00       		.byte	0
 2805 00d4 49       		.uleb128 0x49
 2806 00d5 13       		.uleb128 0x13
 2807 00d6 00       		.byte	0
 2808 00d7 00       		.byte	0
 2809 00d8 13       		.uleb128 0x13
 2810 00d9 15       		.uleb128 0x15
 2811 00da 01       		.byte	0x1
 2812 00db 27       		.uleb128 0x27
 2813 00dc 19       		.uleb128 0x19
 2814 00dd 01       		.uleb128 0x1
 2815 00de 13       		.uleb128 0x13
 2816 00df 00       		.byte	0
 2817 00e0 00       		.byte	0
 2818 00e1 14       		.uleb128 0x14
 2819 00e2 04       		.uleb128 0x4
 2820 00e3 01       		.byte	0x1
 2821 00e4 03       		.uleb128 0x3
 2822 00e5 0E       		.uleb128 0xe
 2823 00e6 0B       		.uleb128 0xb
 2824 00e7 0B       		.uleb128 0xb
 2825 00e8 3A       		.uleb128 0x3a
 2826 00e9 0B       		.uleb128 0xb
 2827 00ea 3B       		.uleb128 0x3b
 2828 00eb 0B       		.uleb128 0xb
 2829 00ec 01       		.uleb128 0x1
 2830 00ed 13       		.uleb128 0x13
 2831 00ee 00       		.byte	0
 2832 00ef 00       		.byte	0
 2833 00f0 15       		.uleb128 0x15
 2834 00f1 28       		.uleb128 0x28
 2835 00f2 00       		.byte	0
 2836 00f3 03       		.uleb128 0x3
 2837 00f4 0E       		.uleb128 0xe
 2838 00f5 1C       		.uleb128 0x1c
ARM GAS  /tmp/ccFAambi.s 			page 51


 2839 00f6 0D       		.uleb128 0xd
 2840 00f7 00       		.byte	0
 2841 00f8 00       		.byte	0
 2842 00f9 16       		.uleb128 0x16
 2843 00fa 01       		.uleb128 0x1
 2844 00fb 01       		.byte	0x1
 2845 00fc 49       		.uleb128 0x49
 2846 00fd 13       		.uleb128 0x13
 2847 00fe 01       		.uleb128 0x1
 2848 00ff 13       		.uleb128 0x13
 2849 0100 00       		.byte	0
 2850 0101 00       		.byte	0
 2851 0102 17       		.uleb128 0x17
 2852 0103 21       		.uleb128 0x21
 2853 0104 00       		.byte	0
 2854 0105 49       		.uleb128 0x49
 2855 0106 13       		.uleb128 0x13
 2856 0107 2F       		.uleb128 0x2f
 2857 0108 0B       		.uleb128 0xb
 2858 0109 00       		.byte	0
 2859 010a 00       		.byte	0
 2860 010b 18       		.uleb128 0x18
 2861 010c 13       		.uleb128 0x13
 2862 010d 01       		.byte	0x1
 2863 010e 0B       		.uleb128 0xb
 2864 010f 0B       		.uleb128 0xb
 2865 0110 3A       		.uleb128 0x3a
 2866 0111 0B       		.uleb128 0xb
 2867 0112 3B       		.uleb128 0x3b
 2868 0113 05       		.uleb128 0x5
 2869 0114 01       		.uleb128 0x1
 2870 0115 13       		.uleb128 0x13
 2871 0116 00       		.byte	0
 2872 0117 00       		.byte	0
 2873 0118 19       		.uleb128 0x19
 2874 0119 0D       		.uleb128 0xd
 2875 011a 00       		.byte	0
 2876 011b 03       		.uleb128 0x3
 2877 011c 0E       		.uleb128 0xe
 2878 011d 3A       		.uleb128 0x3a
 2879 011e 0B       		.uleb128 0xb
 2880 011f 3B       		.uleb128 0x3b
 2881 0120 05       		.uleb128 0x5
 2882 0121 49       		.uleb128 0x49
 2883 0122 13       		.uleb128 0x13
 2884 0123 38       		.uleb128 0x38
 2885 0124 0B       		.uleb128 0xb
 2886 0125 00       		.byte	0
 2887 0126 00       		.byte	0
 2888 0127 1A       		.uleb128 0x1a
 2889 0128 16       		.uleb128 0x16
 2890 0129 00       		.byte	0
 2891 012a 03       		.uleb128 0x3
 2892 012b 0E       		.uleb128 0xe
 2893 012c 3A       		.uleb128 0x3a
 2894 012d 0B       		.uleb128 0xb
 2895 012e 3B       		.uleb128 0x3b
ARM GAS  /tmp/ccFAambi.s 			page 52


 2896 012f 05       		.uleb128 0x5
 2897 0130 49       		.uleb128 0x49
 2898 0131 13       		.uleb128 0x13
 2899 0132 00       		.byte	0
 2900 0133 00       		.byte	0
 2901 0134 1B       		.uleb128 0x1b
 2902 0135 04       		.uleb128 0x4
 2903 0136 01       		.byte	0x1
 2904 0137 0B       		.uleb128 0xb
 2905 0138 0B       		.uleb128 0xb
 2906 0139 3A       		.uleb128 0x3a
 2907 013a 0B       		.uleb128 0xb
 2908 013b 3B       		.uleb128 0x3b
 2909 013c 0B       		.uleb128 0xb
 2910 013d 01       		.uleb128 0x1
 2911 013e 13       		.uleb128 0x13
 2912 013f 00       		.byte	0
 2913 0140 00       		.byte	0
 2914 0141 1C       		.uleb128 0x1c
 2915 0142 2E       		.uleb128 0x2e
 2916 0143 01       		.byte	0x1
 2917 0144 03       		.uleb128 0x3
 2918 0145 0E       		.uleb128 0xe
 2919 0146 3A       		.uleb128 0x3a
 2920 0147 0B       		.uleb128 0xb
 2921 0148 3B       		.uleb128 0x3b
 2922 0149 0B       		.uleb128 0xb
 2923 014a 27       		.uleb128 0x27
 2924 014b 19       		.uleb128 0x19
 2925 014c 20       		.uleb128 0x20
 2926 014d 0B       		.uleb128 0xb
 2927 014e 01       		.uleb128 0x1
 2928 014f 13       		.uleb128 0x13
 2929 0150 00       		.byte	0
 2930 0151 00       		.byte	0
 2931 0152 1D       		.uleb128 0x1d
 2932 0153 05       		.uleb128 0x5
 2933 0154 00       		.byte	0
 2934 0155 03       		.uleb128 0x3
 2935 0156 08       		.uleb128 0x8
 2936 0157 3A       		.uleb128 0x3a
 2937 0158 0B       		.uleb128 0xb
 2938 0159 3B       		.uleb128 0x3b
 2939 015a 0B       		.uleb128 0xb
 2940 015b 49       		.uleb128 0x49
 2941 015c 13       		.uleb128 0x13
 2942 015d 00       		.byte	0
 2943 015e 00       		.byte	0
 2944 015f 1E       		.uleb128 0x1e
 2945 0160 05       		.uleb128 0x5
 2946 0161 00       		.byte	0
 2947 0162 03       		.uleb128 0x3
 2948 0163 0E       		.uleb128 0xe
 2949 0164 3A       		.uleb128 0x3a
 2950 0165 0B       		.uleb128 0xb
 2951 0166 3B       		.uleb128 0x3b
 2952 0167 0B       		.uleb128 0xb
ARM GAS  /tmp/ccFAambi.s 			page 53


 2953 0168 49       		.uleb128 0x49
 2954 0169 13       		.uleb128 0x13
 2955 016a 00       		.byte	0
 2956 016b 00       		.byte	0
 2957 016c 1F       		.uleb128 0x1f
 2958 016d 34       		.uleb128 0x34
 2959 016e 00       		.byte	0
 2960 016f 03       		.uleb128 0x3
 2961 0170 08       		.uleb128 0x8
 2962 0171 3A       		.uleb128 0x3a
 2963 0172 0B       		.uleb128 0xb
 2964 0173 3B       		.uleb128 0x3b
 2965 0174 0B       		.uleb128 0xb
 2966 0175 49       		.uleb128 0x49
 2967 0176 13       		.uleb128 0x13
 2968 0177 00       		.byte	0
 2969 0178 00       		.byte	0
 2970 0179 20       		.uleb128 0x20
 2971 017a 0B       		.uleb128 0xb
 2972 017b 01       		.byte	0x1
 2973 017c 00       		.byte	0
 2974 017d 00       		.byte	0
 2975 017e 21       		.uleb128 0x21
 2976 017f 2E       		.uleb128 0x2e
 2977 0180 01       		.byte	0x1
 2978 0181 03       		.uleb128 0x3
 2979 0182 0E       		.uleb128 0xe
 2980 0183 3A       		.uleb128 0x3a
 2981 0184 0B       		.uleb128 0xb
 2982 0185 3B       		.uleb128 0x3b
 2983 0186 0B       		.uleb128 0xb
 2984 0187 27       		.uleb128 0x27
 2985 0188 19       		.uleb128 0x19
 2986 0189 11       		.uleb128 0x11
 2987 018a 01       		.uleb128 0x1
 2988 018b 12       		.uleb128 0x12
 2989 018c 06       		.uleb128 0x6
 2990 018d 40       		.uleb128 0x40
 2991 018e 18       		.uleb128 0x18
 2992 018f 9742     		.uleb128 0x2117
 2993 0191 19       		.uleb128 0x19
 2994 0192 01       		.uleb128 0x1
 2995 0193 13       		.uleb128 0x13
 2996 0194 00       		.byte	0
 2997 0195 00       		.byte	0
 2998 0196 22       		.uleb128 0x22
 2999 0197 05       		.uleb128 0x5
 3000 0198 00       		.byte	0
 3001 0199 03       		.uleb128 0x3
 3002 019a 08       		.uleb128 0x8
 3003 019b 3A       		.uleb128 0x3a
 3004 019c 0B       		.uleb128 0xb
 3005 019d 3B       		.uleb128 0x3b
 3006 019e 0B       		.uleb128 0xb
 3007 019f 49       		.uleb128 0x49
 3008 01a0 13       		.uleb128 0x13
 3009 01a1 02       		.uleb128 0x2
ARM GAS  /tmp/ccFAambi.s 			page 54


 3010 01a2 18       		.uleb128 0x18
 3011 01a3 00       		.byte	0
 3012 01a4 00       		.byte	0
 3013 01a5 23       		.uleb128 0x23
 3014 01a6 2E       		.uleb128 0x2e
 3015 01a7 01       		.byte	0x1
 3016 01a8 3F       		.uleb128 0x3f
 3017 01a9 19       		.uleb128 0x19
 3018 01aa 03       		.uleb128 0x3
 3019 01ab 0E       		.uleb128 0xe
 3020 01ac 3A       		.uleb128 0x3a
 3021 01ad 0B       		.uleb128 0xb
 3022 01ae 3B       		.uleb128 0x3b
 3023 01af 05       		.uleb128 0x5
 3024 01b0 27       		.uleb128 0x27
 3025 01b1 19       		.uleb128 0x19
 3026 01b2 11       		.uleb128 0x11
 3027 01b3 01       		.uleb128 0x1
 3028 01b4 12       		.uleb128 0x12
 3029 01b5 06       		.uleb128 0x6
 3030 01b6 40       		.uleb128 0x40
 3031 01b7 18       		.uleb128 0x18
 3032 01b8 9742     		.uleb128 0x2117
 3033 01ba 19       		.uleb128 0x19
 3034 01bb 01       		.uleb128 0x1
 3035 01bc 13       		.uleb128 0x13
 3036 01bd 00       		.byte	0
 3037 01be 00       		.byte	0
 3038 01bf 24       		.uleb128 0x24
 3039 01c0 1D       		.uleb128 0x1d
 3040 01c1 01       		.byte	0x1
 3041 01c2 31       		.uleb128 0x31
 3042 01c3 13       		.uleb128 0x13
 3043 01c4 52       		.uleb128 0x52
 3044 01c5 01       		.uleb128 0x1
 3045 01c6 55       		.uleb128 0x55
 3046 01c7 17       		.uleb128 0x17
 3047 01c8 58       		.uleb128 0x58
 3048 01c9 0B       		.uleb128 0xb
 3049 01ca 59       		.uleb128 0x59
 3050 01cb 05       		.uleb128 0x5
 3051 01cc 01       		.uleb128 0x1
 3052 01cd 13       		.uleb128 0x13
 3053 01ce 00       		.byte	0
 3054 01cf 00       		.byte	0
 3055 01d0 25       		.uleb128 0x25
 3056 01d1 05       		.uleb128 0x5
 3057 01d2 00       		.byte	0
 3058 01d3 31       		.uleb128 0x31
 3059 01d4 13       		.uleb128 0x13
 3060 01d5 02       		.uleb128 0x2
 3061 01d6 18       		.uleb128 0x18
 3062 01d7 00       		.byte	0
 3063 01d8 00       		.byte	0
 3064 01d9 26       		.uleb128 0x26
 3065 01da 0B       		.uleb128 0xb
 3066 01db 01       		.byte	0x1
ARM GAS  /tmp/ccFAambi.s 			page 55


 3067 01dc 55       		.uleb128 0x55
 3068 01dd 17       		.uleb128 0x17
 3069 01de 00       		.byte	0
 3070 01df 00       		.byte	0
 3071 01e0 27       		.uleb128 0x27
 3072 01e1 34       		.uleb128 0x34
 3073 01e2 00       		.byte	0
 3074 01e3 31       		.uleb128 0x31
 3075 01e4 13       		.uleb128 0x13
 3076 01e5 02       		.uleb128 0x2
 3077 01e6 17       		.uleb128 0x17
 3078 01e7 00       		.byte	0
 3079 01e8 00       		.byte	0
 3080 01e9 28       		.uleb128 0x28
 3081 01ea 1D       		.uleb128 0x1d
 3082 01eb 01       		.byte	0x1
 3083 01ec 31       		.uleb128 0x31
 3084 01ed 13       		.uleb128 0x13
 3085 01ee 11       		.uleb128 0x11
 3086 01ef 01       		.uleb128 0x1
 3087 01f0 12       		.uleb128 0x12
 3088 01f1 06       		.uleb128 0x6
 3089 01f2 58       		.uleb128 0x58
 3090 01f3 0B       		.uleb128 0xb
 3091 01f4 59       		.uleb128 0x59
 3092 01f5 0B       		.uleb128 0xb
 3093 01f6 01       		.uleb128 0x1
 3094 01f7 13       		.uleb128 0x13
 3095 01f8 00       		.byte	0
 3096 01f9 00       		.byte	0
 3097 01fa 29       		.uleb128 0x29
 3098 01fb 05       		.uleb128 0x5
 3099 01fc 00       		.byte	0
 3100 01fd 31       		.uleb128 0x31
 3101 01fe 13       		.uleb128 0x13
 3102 01ff 02       		.uleb128 0x2
 3103 0200 17       		.uleb128 0x17
 3104 0201 00       		.byte	0
 3105 0202 00       		.byte	0
 3106 0203 2A       		.uleb128 0x2a
 3107 0204 0B       		.uleb128 0xb
 3108 0205 01       		.byte	0x1
 3109 0206 11       		.uleb128 0x11
 3110 0207 01       		.uleb128 0x1
 3111 0208 12       		.uleb128 0x12
 3112 0209 06       		.uleb128 0x6
 3113 020a 00       		.byte	0
 3114 020b 00       		.byte	0
 3115 020c 2B       		.uleb128 0x2b
 3116 020d 898201   		.uleb128 0x4109
 3117 0210 01       		.byte	0x1
 3118 0211 11       		.uleb128 0x11
 3119 0212 01       		.uleb128 0x1
 3120 0213 31       		.uleb128 0x31
 3121 0214 13       		.uleb128 0x13
 3122 0215 00       		.byte	0
 3123 0216 00       		.byte	0
ARM GAS  /tmp/ccFAambi.s 			page 56


 3124 0217 2C       		.uleb128 0x2c
 3125 0218 8A8201   		.uleb128 0x410a
 3126 021b 00       		.byte	0
 3127 021c 02       		.uleb128 0x2
 3128 021d 18       		.uleb128 0x18
 3129 021e 9142     		.uleb128 0x2111
 3130 0220 18       		.uleb128 0x18
 3131 0221 00       		.byte	0
 3132 0222 00       		.byte	0
 3133 0223 2D       		.uleb128 0x2d
 3134 0224 0B       		.uleb128 0xb
 3135 0225 01       		.byte	0x1
 3136 0226 11       		.uleb128 0x11
 3137 0227 01       		.uleb128 0x1
 3138 0228 12       		.uleb128 0x12
 3139 0229 06       		.uleb128 0x6
 3140 022a 01       		.uleb128 0x1
 3141 022b 13       		.uleb128 0x13
 3142 022c 00       		.byte	0
 3143 022d 00       		.byte	0
 3144 022e 2E       		.uleb128 0x2e
 3145 022f 898201   		.uleb128 0x4109
 3146 0232 00       		.byte	0
 3147 0233 11       		.uleb128 0x11
 3148 0234 01       		.uleb128 0x1
 3149 0235 31       		.uleb128 0x31
 3150 0236 13       		.uleb128 0x13
 3151 0237 00       		.byte	0
 3152 0238 00       		.byte	0
 3153 0239 2F       		.uleb128 0x2f
 3154 023a 898201   		.uleb128 0x4109
 3155 023d 01       		.byte	0x1
 3156 023e 11       		.uleb128 0x11
 3157 023f 01       		.uleb128 0x1
 3158 0240 31       		.uleb128 0x31
 3159 0241 13       		.uleb128 0x13
 3160 0242 01       		.uleb128 0x1
 3161 0243 13       		.uleb128 0x13
 3162 0244 00       		.byte	0
 3163 0245 00       		.byte	0
 3164 0246 30       		.uleb128 0x30
 3165 0247 898201   		.uleb128 0x4109
 3166 024a 00       		.byte	0
 3167 024b 11       		.uleb128 0x11
 3168 024c 01       		.uleb128 0x1
 3169 024d 9542     		.uleb128 0x2115
 3170 024f 19       		.uleb128 0x19
 3171 0250 31       		.uleb128 0x31
 3172 0251 13       		.uleb128 0x13
 3173 0252 00       		.byte	0
 3174 0253 00       		.byte	0
 3175 0254 31       		.uleb128 0x31
 3176 0255 05       		.uleb128 0x5
 3177 0256 00       		.byte	0
 3178 0257 03       		.uleb128 0x3
 3179 0258 08       		.uleb128 0x8
 3180 0259 3A       		.uleb128 0x3a
ARM GAS  /tmp/ccFAambi.s 			page 57


 3181 025a 0B       		.uleb128 0xb
 3182 025b 3B       		.uleb128 0x3b
 3183 025c 05       		.uleb128 0x5
 3184 025d 49       		.uleb128 0x49
 3185 025e 13       		.uleb128 0x13
 3186 025f 02       		.uleb128 0x2
 3187 0260 17       		.uleb128 0x17
 3188 0261 00       		.byte	0
 3189 0262 00       		.byte	0
 3190 0263 32       		.uleb128 0x32
 3191 0264 05       		.uleb128 0x5
 3192 0265 00       		.byte	0
 3193 0266 03       		.uleb128 0x3
 3194 0267 0E       		.uleb128 0xe
 3195 0268 3A       		.uleb128 0x3a
 3196 0269 0B       		.uleb128 0xb
 3197 026a 3B       		.uleb128 0x3b
 3198 026b 05       		.uleb128 0x5
 3199 026c 49       		.uleb128 0x49
 3200 026d 13       		.uleb128 0x13
 3201 026e 02       		.uleb128 0x2
 3202 026f 17       		.uleb128 0x17
 3203 0270 00       		.byte	0
 3204 0271 00       		.byte	0
 3205 0272 33       		.uleb128 0x33
 3206 0273 1D       		.uleb128 0x1d
 3207 0274 01       		.byte	0x1
 3208 0275 31       		.uleb128 0x31
 3209 0276 13       		.uleb128 0x13
 3210 0277 11       		.uleb128 0x11
 3211 0278 01       		.uleb128 0x1
 3212 0279 12       		.uleb128 0x12
 3213 027a 06       		.uleb128 0x6
 3214 027b 58       		.uleb128 0x58
 3215 027c 0B       		.uleb128 0xb
 3216 027d 59       		.uleb128 0x59
 3217 027e 05       		.uleb128 0x5
 3218 027f 01       		.uleb128 0x1
 3219 0280 13       		.uleb128 0x13
 3220 0281 00       		.byte	0
 3221 0282 00       		.byte	0
 3222 0283 34       		.uleb128 0x34
 3223 0284 898201   		.uleb128 0x4109
 3224 0287 01       		.byte	0x1
 3225 0288 11       		.uleb128 0x11
 3226 0289 01       		.uleb128 0x1
 3227 028a 9542     		.uleb128 0x2115
 3228 028c 19       		.uleb128 0x19
 3229 028d 31       		.uleb128 0x31
 3230 028e 13       		.uleb128 0x13
 3231 028f 00       		.byte	0
 3232 0290 00       		.byte	0
 3233 0291 35       		.uleb128 0x35
 3234 0292 34       		.uleb128 0x34
 3235 0293 00       		.byte	0
 3236 0294 03       		.uleb128 0x3
 3237 0295 0E       		.uleb128 0xe
ARM GAS  /tmp/ccFAambi.s 			page 58


 3238 0296 3A       		.uleb128 0x3a
 3239 0297 0B       		.uleb128 0xb
 3240 0298 3B       		.uleb128 0x3b
 3241 0299 0B       		.uleb128 0xb
 3242 029a 49       		.uleb128 0x49
 3243 029b 13       		.uleb128 0x13
 3244 029c 02       		.uleb128 0x2
 3245 029d 18       		.uleb128 0x18
 3246 029e 00       		.byte	0
 3247 029f 00       		.byte	0
 3248 02a0 36       		.uleb128 0x36
 3249 02a1 34       		.uleb128 0x34
 3250 02a2 00       		.byte	0
 3251 02a3 03       		.uleb128 0x3
 3252 02a4 0E       		.uleb128 0xe
 3253 02a5 3A       		.uleb128 0x3a
 3254 02a6 0B       		.uleb128 0xb
 3255 02a7 3B       		.uleb128 0x3b
 3256 02a8 05       		.uleb128 0x5
 3257 02a9 49       		.uleb128 0x49
 3258 02aa 13       		.uleb128 0x13
 3259 02ab 3F       		.uleb128 0x3f
 3260 02ac 19       		.uleb128 0x19
 3261 02ad 3C       		.uleb128 0x3c
 3262 02ae 19       		.uleb128 0x19
 3263 02af 00       		.byte	0
 3264 02b0 00       		.byte	0
 3265 02b1 37       		.uleb128 0x37
 3266 02b2 34       		.uleb128 0x34
 3267 02b3 00       		.byte	0
 3268 02b4 03       		.uleb128 0x3
 3269 02b5 08       		.uleb128 0x8
 3270 02b6 3A       		.uleb128 0x3a
 3271 02b7 0B       		.uleb128 0xb
 3272 02b8 3B       		.uleb128 0x3b
 3273 02b9 0B       		.uleb128 0xb
 3274 02ba 49       		.uleb128 0x49
 3275 02bb 13       		.uleb128 0x13
 3276 02bc 3F       		.uleb128 0x3f
 3277 02bd 19       		.uleb128 0x19
 3278 02be 02       		.uleb128 0x2
 3279 02bf 18       		.uleb128 0x18
 3280 02c0 00       		.byte	0
 3281 02c1 00       		.byte	0
 3282 02c2 38       		.uleb128 0x38
 3283 02c3 2E       		.uleb128 0x2e
 3284 02c4 01       		.byte	0x1
 3285 02c5 3F       		.uleb128 0x3f
 3286 02c6 19       		.uleb128 0x19
 3287 02c7 03       		.uleb128 0x3
 3288 02c8 0E       		.uleb128 0xe
 3289 02c9 3A       		.uleb128 0x3a
 3290 02ca 0B       		.uleb128 0xb
 3291 02cb 3B       		.uleb128 0x3b
 3292 02cc 0B       		.uleb128 0xb
 3293 02cd 27       		.uleb128 0x27
 3294 02ce 19       		.uleb128 0x19
ARM GAS  /tmp/ccFAambi.s 			page 59


 3295 02cf 3C       		.uleb128 0x3c
 3296 02d0 19       		.uleb128 0x19
 3297 02d1 01       		.uleb128 0x1
 3298 02d2 13       		.uleb128 0x13
 3299 02d3 00       		.byte	0
 3300 02d4 00       		.byte	0
 3301 02d5 39       		.uleb128 0x39
 3302 02d6 2E       		.uleb128 0x2e
 3303 02d7 00       		.byte	0
 3304 02d8 3F       		.uleb128 0x3f
 3305 02d9 19       		.uleb128 0x19
 3306 02da 03       		.uleb128 0x3
 3307 02db 0E       		.uleb128 0xe
 3308 02dc 3A       		.uleb128 0x3a
 3309 02dd 0B       		.uleb128 0xb
 3310 02de 3B       		.uleb128 0x3b
 3311 02df 0B       		.uleb128 0xb
 3312 02e0 27       		.uleb128 0x27
 3313 02e1 19       		.uleb128 0x19
 3314 02e2 3C       		.uleb128 0x3c
 3315 02e3 19       		.uleb128 0x19
 3316 02e4 00       		.byte	0
 3317 02e5 00       		.byte	0
 3318 02e6 3A       		.uleb128 0x3a
 3319 02e7 2E       		.uleb128 0x2e
 3320 02e8 01       		.byte	0x1
 3321 02e9 3F       		.uleb128 0x3f
 3322 02ea 19       		.uleb128 0x19
 3323 02eb 03       		.uleb128 0x3
 3324 02ec 0E       		.uleb128 0xe
 3325 02ed 3A       		.uleb128 0x3a
 3326 02ee 0B       		.uleb128 0xb
 3327 02ef 3B       		.uleb128 0x3b
 3328 02f0 05       		.uleb128 0x5
 3329 02f1 27       		.uleb128 0x27
 3330 02f2 19       		.uleb128 0x19
 3331 02f3 49       		.uleb128 0x49
 3332 02f4 13       		.uleb128 0x13
 3333 02f5 3C       		.uleb128 0x3c
 3334 02f6 19       		.uleb128 0x19
 3335 02f7 01       		.uleb128 0x1
 3336 02f8 13       		.uleb128 0x13
 3337 02f9 00       		.byte	0
 3338 02fa 00       		.byte	0
 3339 02fb 3B       		.uleb128 0x3b
 3340 02fc 2E       		.uleb128 0x2e
 3341 02fd 01       		.byte	0x1
 3342 02fe 3F       		.uleb128 0x3f
 3343 02ff 19       		.uleb128 0x19
 3344 0300 03       		.uleb128 0x3
 3345 0301 0E       		.uleb128 0xe
 3346 0302 3A       		.uleb128 0x3a
 3347 0303 0B       		.uleb128 0xb
 3348 0304 3B       		.uleb128 0x3b
 3349 0305 05       		.uleb128 0x5
 3350 0306 27       		.uleb128 0x27
 3351 0307 19       		.uleb128 0x19
ARM GAS  /tmp/ccFAambi.s 			page 60


 3352 0308 3C       		.uleb128 0x3c
 3353 0309 19       		.uleb128 0x19
 3354 030a 01       		.uleb128 0x1
 3355 030b 13       		.uleb128 0x13
 3356 030c 00       		.byte	0
 3357 030d 00       		.byte	0
 3358 030e 3C       		.uleb128 0x3c
 3359 030f 2E       		.uleb128 0x2e
 3360 0310 00       		.byte	0
 3361 0311 3F       		.uleb128 0x3f
 3362 0312 19       		.uleb128 0x19
 3363 0313 03       		.uleb128 0x3
 3364 0314 0E       		.uleb128 0xe
 3365 0315 3A       		.uleb128 0x3a
 3366 0316 0B       		.uleb128 0xb
 3367 0317 3B       		.uleb128 0x3b
 3368 0318 05       		.uleb128 0x5
 3369 0319 27       		.uleb128 0x27
 3370 031a 19       		.uleb128 0x19
 3371 031b 3C       		.uleb128 0x3c
 3372 031c 19       		.uleb128 0x19
 3373 031d 00       		.byte	0
 3374 031e 00       		.byte	0
 3375 031f 3D       		.uleb128 0x3d
 3376 0320 2E       		.uleb128 0x2e
 3377 0321 01       		.byte	0x1
 3378 0322 3F       		.uleb128 0x3f
 3379 0323 19       		.uleb128 0x19
 3380 0324 03       		.uleb128 0x3
 3381 0325 0E       		.uleb128 0xe
 3382 0326 3A       		.uleb128 0x3a
 3383 0327 0B       		.uleb128 0xb
 3384 0328 3B       		.uleb128 0x3b
 3385 0329 05       		.uleb128 0x5
 3386 032a 27       		.uleb128 0x27
 3387 032b 19       		.uleb128 0x19
 3388 032c 3C       		.uleb128 0x3c
 3389 032d 19       		.uleb128 0x19
 3390 032e 00       		.byte	0
 3391 032f 00       		.byte	0
 3392 0330 00       		.byte	0
 3393              		.section	.debug_loc,"",%progbits
 3394              	.Ldebug_loc0:
 3395              	.LLST0:
 3396 0000 10000000 		.4byte	.LVL2
 3397 0004 B4000000 		.4byte	.LVL22
 3398 0008 0100     		.2byte	0x1
 3399 000a 55       		.byte	0x55
 3400 000b B8000000 		.4byte	.LVL23
 3401 000f 18010000 		.4byte	.LFE116
 3402 0013 0100     		.2byte	0x1
 3403 0015 55       		.byte	0x55
 3404 0016 00000000 		.4byte	0
 3405 001a 00000000 		.4byte	0
 3406              	.LLST1:
 3407 001e 1A000000 		.4byte	.LVL3
 3408 0022 B4000000 		.4byte	.LVL22
ARM GAS  /tmp/ccFAambi.s 			page 61


 3409 0026 0100     		.2byte	0x1
 3410 0028 56       		.byte	0x56
 3411 0029 B8000000 		.4byte	.LVL23
 3412 002d 18010000 		.4byte	.LFE116
 3413 0031 0100     		.2byte	0x1
 3414 0033 56       		.byte	0x56
 3415 0034 00000000 		.4byte	0
 3416 0038 00000000 		.4byte	0
 3417              	.LLST2:
 3418 003c 1A000000 		.4byte	.LVL3
 3419 0040 2A000000 		.4byte	.LVL5
 3420 0044 0100     		.2byte	0x1
 3421 0046 54       		.byte	0x54
 3422 0047 3E000000 		.4byte	.LVL7
 3423 004b 64000000 		.4byte	.LVL13
 3424 004f 0100     		.2byte	0x1
 3425 0051 54       		.byte	0x54
 3426 0052 B8000000 		.4byte	.LVL23
 3427 0056 DA000000 		.4byte	.LVL27
 3428 005a 0100     		.2byte	0x1
 3429 005c 54       		.byte	0x54
 3430 005d 00000000 		.4byte	0
 3431 0061 00000000 		.4byte	0
 3432              	.LLST3:
 3433 0065 46000000 		.4byte	.LVL9
 3434 0069 64000000 		.4byte	.LVL13
 3435 006d 0100     		.2byte	0x1
 3436 006f 54       		.byte	0x54
 3437 0070 00000000 		.4byte	0
 3438 0074 00000000 		.4byte	0
 3439              	.LLST4:
 3440 0078 46000000 		.4byte	.LVL9
 3441 007c 72000000 		.4byte	.LVL16
 3442 0080 0600     		.2byte	0x6
 3443 0082 03       		.byte	0x3
 3444 0083 00000000 		.4byte	SD2
 3445 0087 9F       		.byte	0x9f
 3446 0088 00000000 		.4byte	0
 3447 008c 00000000 		.4byte	0
 3448              	.LLST5:
 3449 0090 46000000 		.4byte	.LVL9
 3450 0094 50000000 		.4byte	.LVL10
 3451 0098 0200     		.2byte	0x2
 3452 009a 30       		.byte	0x30
 3453 009b 9F       		.byte	0x9f
 3454 009c 50000000 		.4byte	.LVL10
 3455 00a0 6F000000 		.4byte	.LVL15-1
 3456 00a4 0100     		.2byte	0x1
 3457 00a6 51       		.byte	0x51
 3458 00a7 00000000 		.4byte	0
 3459 00ab 00000000 		.4byte	0
 3460              	.LLST6:
 3461 00af E8000000 		.4byte	.LVL29
 3462 00b3 EE000000 		.4byte	.LVL30
 3463 00b7 0100     		.2byte	0x1
 3464 00b9 50       		.byte	0x50
 3465 00ba 00000000 		.4byte	0
ARM GAS  /tmp/ccFAambi.s 			page 62


 3466 00be 00000000 		.4byte	0
 3467              	.LLST7:
 3468 00c2 00000000 		.4byte	.LVL34
 3469 00c6 18000000 		.4byte	.LVL36
 3470 00ca 0100     		.2byte	0x1
 3471 00cc 50       		.byte	0x50
 3472 00cd 18000000 		.4byte	.LVL36
 3473 00d1 7C000000 		.4byte	.LVL40
 3474 00d5 0100     		.2byte	0x1
 3475 00d7 55       		.byte	0x55
 3476 00d8 7C000000 		.4byte	.LVL40
 3477 00dc 92000000 		.4byte	.LVL41
 3478 00e0 0100     		.2byte	0x1
 3479 00e2 50       		.byte	0x50
 3480 00e3 92000000 		.4byte	.LVL41
 3481 00e7 A2000000 		.4byte	.LFE118
 3482 00eb 0100     		.2byte	0x1
 3483 00ed 55       		.byte	0x55
 3484 00ee 00000000 		.4byte	0
 3485 00f2 00000000 		.4byte	0
 3486              	.LLST8:
 3487 00f6 00000000 		.4byte	.LVL34
 3488 00fa 12000000 		.4byte	.LVL35
 3489 00fe 0100     		.2byte	0x1
 3490 0100 51       		.byte	0x51
 3491 0101 12000000 		.4byte	.LVL35
 3492 0105 5E000000 		.4byte	.LVL38
 3493 0109 0100     		.2byte	0x1
 3494 010b 54       		.byte	0x54
 3495 010c 5E000000 		.4byte	.LVL38
 3496 0110 7C000000 		.4byte	.LVL40
 3497 0114 1300     		.2byte	0x13
 3498 0116 F3       		.byte	0xf3
 3499 0117 01       		.uleb128 0x1
 3500 0118 51       		.byte	0x51
 3501 0119 03       		.byte	0x3
 3502 011a 00000000 		.4byte	.LANCHOR1
 3503 011e F3       		.byte	0xf3
 3504 011f 01       		.uleb128 0x1
 3505 0120 51       		.byte	0x51
 3506 0121 30       		.byte	0x30
 3507 0122 2E       		.byte	0x2e
 3508 0123 28       		.byte	0x28
 3509 0124 0100     		.2byte	0x1
 3510 0126 16       		.byte	0x16
 3511 0127 13       		.byte	0x13
 3512 0128 9F       		.byte	0x9f
 3513 0129 7C000000 		.4byte	.LVL40
 3514 012d A2000000 		.4byte	.LFE118
 3515 0131 0100     		.2byte	0x1
 3516 0133 54       		.byte	0x54
 3517 0134 00000000 		.4byte	0
 3518 0138 00000000 		.4byte	0
 3519              	.LLST9:
 3520 013c 1A000000 		.4byte	.LVL37
 3521 0140 7C000000 		.4byte	.LVL40
 3522 0144 0100     		.2byte	0x1
ARM GAS  /tmp/ccFAambi.s 			page 63


 3523 0146 55       		.byte	0x55
 3524 0147 00000000 		.4byte	0
 3525 014b 00000000 		.4byte	0
 3526              	.LLST10:
 3527 014f 1A000000 		.4byte	.LVL37
 3528 0153 5E000000 		.4byte	.LVL38
 3529 0157 0100     		.2byte	0x1
 3530 0159 54       		.byte	0x54
 3531 015a 5E000000 		.4byte	.LVL38
 3532 015e 7C000000 		.4byte	.LVL40
 3533 0162 1300     		.2byte	0x13
 3534 0164 F3       		.byte	0xf3
 3535 0165 01       		.uleb128 0x1
 3536 0166 51       		.byte	0x51
 3537 0167 03       		.byte	0x3
 3538 0168 00000000 		.4byte	.LANCHOR1
 3539 016c F3       		.byte	0xf3
 3540 016d 01       		.uleb128 0x1
 3541 016e 51       		.byte	0x51
 3542 016f 30       		.byte	0x30
 3543 0170 2E       		.byte	0x2e
 3544 0171 28       		.byte	0x28
 3545 0172 0100     		.2byte	0x1
 3546 0174 16       		.byte	0x16
 3547 0175 13       		.byte	0x13
 3548 0176 9F       		.byte	0x9f
 3549 0177 00000000 		.4byte	0
 3550 017b 00000000 		.4byte	0
 3551              	.LLST11:
 3552 017f 1A000000 		.4byte	.LVL37
 3553 0183 7A000000 		.4byte	.LVL39
 3554 0187 0100     		.2byte	0x1
 3555 0189 53       		.byte	0x53
 3556 018a 00000000 		.4byte	0
 3557 018e 00000000 		.4byte	0
 3558              	.LLST12:
 3559 0192 00000000 		.4byte	.LVL43
 3560 0196 28000000 		.4byte	.LVL45
 3561 019a 0100     		.2byte	0x1
 3562 019c 50       		.byte	0x50
 3563 019d 28000000 		.4byte	.LVL45
 3564 01a1 34000000 		.4byte	.LFE119
 3565 01a5 0400     		.2byte	0x4
 3566 01a7 F3       		.byte	0xf3
 3567 01a8 01       		.uleb128 0x1
 3568 01a9 50       		.byte	0x50
 3569 01aa 9F       		.byte	0x9f
 3570 01ab 00000000 		.4byte	0
 3571 01af 00000000 		.4byte	0
 3572              	.LLST13:
 3573 01b3 0E000000 		.4byte	.LVL44
 3574 01b7 2A000000 		.4byte	.LVL46
 3575 01bb 0100     		.2byte	0x1
 3576 01bd 52       		.byte	0x52
 3577 01be 2A000000 		.4byte	.LVL46
 3578 01c2 33000000 		.4byte	.LVL47-1
 3579 01c6 0500     		.2byte	0x5
ARM GAS  /tmp/ccFAambi.s 			page 64


 3580 01c8 F3       		.byte	0xf3
 3581 01c9 01       		.uleb128 0x1
 3582 01ca 50       		.byte	0x50
 3583 01cb 23       		.byte	0x23
 3584 01cc 74       		.uleb128 0x74
 3585 01cd 00000000 		.4byte	0
 3586 01d1 00000000 		.4byte	0
 3587              		.section	.debug_aranges,"",%progbits
 3588 0000 3C000000 		.4byte	0x3c
 3589 0004 0200     		.2byte	0x2
 3590 0006 00000000 		.4byte	.Ldebug_info0
 3591 000a 04       		.byte	0x4
 3592 000b 00       		.byte	0
 3593 000c 0000     		.2byte	0
 3594 000e 0000     		.2byte	0
 3595 0010 00000000 		.4byte	.LFB115
 3596 0014 14000000 		.4byte	.LFE115-.LFB115
 3597 0018 00000000 		.4byte	.LFB116
 3598 001c 18010000 		.4byte	.LFE116-.LFB116
 3599 0020 00000000 		.4byte	.LFB117
 3600 0024 26000000 		.4byte	.LFE117-.LFB117
 3601 0028 00000000 		.4byte	.LFB118
 3602 002c A2000000 		.4byte	.LFE118-.LFB118
 3603 0030 00000000 		.4byte	.LFB119
 3604 0034 34000000 		.4byte	.LFE119-.LFB119
 3605 0038 00000000 		.4byte	0
 3606 003c 00000000 		.4byte	0
 3607              		.section	.debug_ranges,"",%progbits
 3608              	.Ldebug_ranges0:
 3609 0000 06000000 		.4byte	.LBB10
 3610 0004 AC000000 		.4byte	.LBE10
 3611 0008 B8000000 		.4byte	.LBB16
 3612 000c 18010000 		.4byte	.LBE16
 3613 0010 00000000 		.4byte	0
 3614 0014 00000000 		.4byte	0
 3615 0018 12000000 		.4byte	.LBB21
 3616 001c 14000000 		.4byte	.LBE21
 3617 0020 16000000 		.4byte	.LBB24
 3618 0024 1C000000 		.4byte	.LBE24
 3619 0028 00000000 		.4byte	0
 3620 002c 00000000 		.4byte	0
 3621 0030 00000000 		.4byte	.LFB115
 3622 0034 14000000 		.4byte	.LFE115
 3623 0038 00000000 		.4byte	.LFB116
 3624 003c 18010000 		.4byte	.LFE116
 3625 0040 00000000 		.4byte	.LFB117
 3626 0044 26000000 		.4byte	.LFE117
 3627 0048 00000000 		.4byte	.LFB118
 3628 004c A2000000 		.4byte	.LFE118
 3629 0050 00000000 		.4byte	.LFB119
 3630 0054 34000000 		.4byte	.LFE119
 3631 0058 00000000 		.4byte	0
 3632 005c 00000000 		.4byte	0
 3633              		.section	.debug_line,"",%progbits
 3634              	.Ldebug_line0:
 3635 0000 33030000 		.section	.debug_str,"MS",%progbits,1
 3635      02005002 
ARM GAS  /tmp/ccFAambi.s 			page 65


 3635      00000201 
 3635      FB0E0D00 
 3635      01010101 
 3636              	.LASF2:
 3637 0000 73697A65 		.ascii	"size_t\000"
 3637      5F7400
 3638              	.LASF133:
 3639 0007 54494D38 		.ascii	"TIM8_UP_TIM13_IRQn\000"
 3639      5F55505F 
 3639      54494D31 
 3639      335F4952 
 3639      516E00
 3640              	.LASF52:
 3641 001a 73697A65 		.ascii	"sizetype\000"
 3641      74797065 
 3641      00
 3642              	.LASF27:
 3643 0023 73797374 		.ascii	"systime_t\000"
 3643      696D655F 
 3643      7400
 3644              	.LASF197:
 3645 002d 504C4C49 		.ascii	"PLLI2SCFGR\000"
 3645      32534346 
 3645      475200
 3646              	.LASF32:
 3647 0038 705F6374 		.ascii	"p_ctx\000"
 3647      7800
 3648              	.LASF23:
 3649 003e 74707269 		.ascii	"tprio_t\000"
 3649      6F5F7400 
 3650              	.LASF41:
 3651 0046 705F6D73 		.ascii	"p_msgqueue\000"
 3651      67717565 
 3651      756500
 3652              	.LASF17:
 3653 0051 696E7433 		.ascii	"int32_t\000"
 3653      325F7400 
 3654              	.LASF214:
 3655 0059 53657269 		.ascii	"SerialConfig\000"
 3655      616C436F 
 3655      6E666967 
 3655      00
 3656              	.LASF220:
 3657 0066 77726974 		.ascii	"writet\000"
 3657      657400
 3658              	.LASF201:
 3659 006d 47545052 		.ascii	"GTPR\000"
 3659      00
 3660              	.LASF216:
 3661 0072 77726974 		.ascii	"write\000"
 3661      6500
 3662              	.LASF146:
 3663 0078 444D4132 		.ascii	"DMA2_Stream1_IRQn\000"
 3663      5F537472 
 3663      65616D31 
 3663      5F495251 
 3663      6E00
ARM GAS  /tmp/ccFAambi.s 			page 66


 3664              	.LASF227:
 3665 008a 56656374 		.ascii	"VectorD8\000"
 3665      6F724438 
 3665      00
 3666              	.LASF140:
 3667 0093 53504933 		.ascii	"SPI3_IRQn\000"
 3667      5F495251 
 3667      6E00
 3668              	.LASF93:
 3669 009d 464C4153 		.ascii	"FLASH_IRQn\000"
 3669      485F4952 
 3669      516E00
 3670              	.LASF167:
 3671 00a8 44434D49 		.ascii	"DCMI_IRQn\000"
 3671      5F495251 
 3671      6E00
 3672              	.LASF61:
 3673 00b2 656C5F66 		.ascii	"el_flags\000"
 3673      6C616773 
 3673      00
 3674              	.LASF222:
 3675 00bb 636F6E66 		.ascii	"config\000"
 3675      696700
 3676              	.LASF209:
 3677 00c2 73746174 		.ascii	"state\000"
 3677      6500
 3678              	.LASF218:
 3679 00c8 70757474 		.ascii	"putt\000"
 3679      00
 3680              	.LASF117:
 3681 00cd 54494D32 		.ascii	"TIM2_IRQn\000"
 3681      5F495251 
 3681      6E00
 3682              	.LASF225:
 3683 00d7 73657276 		.ascii	"serve_interrupt\000"
 3683      655F696E 
 3683      74657272 
 3683      75707400 
 3684              	.LASF226:
 3685 00e7 7365745F 		.ascii	"set_error\000"
 3685      6572726F 
 3685      7200
 3686              	.LASF153:
 3687 00f1 43414E32 		.ascii	"CAN2_RX0_IRQn\000"
 3687      5F525830 
 3687      5F495251 
 3687      6E00
 3688              	.LASF160:
 3689 00ff 55534152 		.ascii	"USART6_IRQn\000"
 3689      54365F49 
 3689      52516E00 
 3690              	.LASF55:
 3691 010b 6D5F6F77 		.ascii	"m_owner\000"
 3691      6E657200 
 3692              	.LASF65:
 3693 0113 65786974 		.ascii	"exitcode\000"
 3693      636F6465 
ARM GAS  /tmp/ccFAambi.s 			page 67


 3693      00
 3694              	.LASF3:
 3695 011c 5F5F7569 		.ascii	"__uint8_t\000"
 3695      6E74385F 
 3695      7400
 3696              	.LASF165:
 3697 0126 4F54475F 		.ascii	"OTG_HS_WKUP_IRQn\000"
 3697      48535F57 
 3697      4B55505F 
 3697      4952516E 
 3697      00
 3698              	.LASF73:
 3699 0137 715F746F 		.ascii	"q_top\000"
 3699      7000
 3700              	.LASF125:
 3701 013d 53504932 		.ascii	"SPI2_IRQn\000"
 3701      5F495251 
 3701      6E00
 3702              	.LASF132:
 3703 0147 54494D38 		.ascii	"TIM8_BRK_TIM12_IRQn\000"
 3703      5F42524B 
 3703      5F54494D 
 3703      31325F49 
 3703      52516E00 
 3704              	.LASF188:
 3705 015b 41484232 		.ascii	"AHB2LPENR\000"
 3705      4C50454E 
 3705      5200
 3706              	.LASF221:
 3707 0165 72656164 		.ascii	"readt\000"
 3707      7400
 3708              	.LASF229:
 3709 016b 73645F6C 		.ascii	"sd_lld_start\000"
 3709      6C645F73 
 3709      74617274 
 3709      00
 3710              	.LASF72:
 3711 0178 715F6275 		.ascii	"q_buffer\000"
 3711      66666572 
 3711      00
 3712              	.LASF76:
 3713 0181 715F6E6F 		.ascii	"q_notify\000"
 3713      74696679 
 3713      00
 3714              	.LASF239:
 3715 018a 73644F62 		.ascii	"sdObjectInit\000"
 3715      6A656374 
 3715      496E6974 
 3715      00
 3716              	.LASF33:
 3717 0197 705F6E65 		.ascii	"p_newer\000"
 3717      77657200 
 3718              	.LASF9:
 3719 019f 6C6F6E67 		.ascii	"long int\000"
 3719      20696E74 
 3719      00
 3720              	.LASF29:
ARM GAS  /tmp/ccFAambi.s 			page 68


 3721 01a8 705F6E65 		.ascii	"p_next\000"
 3721      787400
 3722              	.LASF75:
 3723 01af 715F7264 		.ascii	"q_rdptr\000"
 3723      70747200 
 3724              	.LASF30:
 3725 01b7 705F7072 		.ascii	"p_prev\000"
 3725      657600
 3726              	.LASF246:
 3727 01be 64656661 		.ascii	"default_config\000"
 3727      756C745F 
 3727      636F6E66 
 3727      696700
 3728              	.LASF157:
 3729 01cd 444D4132 		.ascii	"DMA2_Stream5_IRQn\000"
 3729      5F537472 
 3729      65616D35 
 3729      5F495251 
 3729      6E00
 3730              	.LASF22:
 3731 01df 74737461 		.ascii	"tstate_t\000"
 3731      74655F74 
 3731      00
 3732              	.LASF44:
 3733 01e8 705F6D74 		.ascii	"p_mtxlist\000"
 3733      786C6973 
 3733      7400
 3734              	.LASF115:
 3735 01f2 54494D31 		.ascii	"TIM1_TRG_COM_TIM11_IRQn\000"
 3735      5F545247 
 3735      5F434F4D 
 3735      5F54494D 
 3735      31315F49 
 3736              	.LASF211:
 3737 020a 6F717565 		.ascii	"oqueue\000"
 3737      756500
 3738              	.LASF48:
 3739 0211 72656761 		.ascii	"regarm_t\000"
 3739      726D5F74 
 3739      00
 3740              	.LASF185:
 3741 021a 41504232 		.ascii	"APB2ENR\000"
 3741      454E5200 
 3742              	.LASF187:
 3743 0222 41484231 		.ascii	"AHB1LPENR\000"
 3743      4C50454E 
 3743      5200
 3744              	.LASF88:
 3745 022c 53797354 		.ascii	"SysTick_IRQn\000"
 3745      69636B5F 
 3745      4952516E 
 3745      00
 3746              	.LASF128:
 3747 0239 55534152 		.ascii	"USART3_IRQn\000"
 3747      54335F49 
 3747      52516E00 
 3748              	.LASF199:
ARM GAS  /tmp/ccFAambi.s 			page 69


 3749 0245 44434B43 		.ascii	"DCKCFGR\000"
 3749      46475200 
 3750              	.LASF243:
 3751 024d 2F686F6D 		.ascii	"/home/ece497/vbox-shared/mplayer/ChibiOS-RT-stable_"
 3751      652F6563 
 3751      65343937 
 3751      2F76626F 
 3751      782D7368 
 3752 0280 322E362E 		.ascii	"2.6.x/testhal/STM32F4xx/I2C\000"
 3752      782F7465 
 3752      73746861 
 3752      6C2F5354 
 3752      4D333246 
 3753              	.LASF212:
 3754 029c 75736172 		.ascii	"usart\000"
 3754      7400
 3755              	.LASF1:
 3756 02a2 7369676E 		.ascii	"signed char\000"
 3756      65642063 
 3756      68617200 
 3757              	.LASF67:
 3758 02ae 65776D61 		.ascii	"ewmask\000"
 3758      736B00
 3759              	.LASF15:
 3760 02b5 75696E74 		.ascii	"uint8_t\000"
 3760      385F7400 
 3761              	.LASF25:
 3762 02bd 6576656E 		.ascii	"eventmask_t\000"
 3762      746D6173 
 3762      6B5F7400 
 3763              	.LASF51:
 3764 02c9 636F6E74 		.ascii	"context\000"
 3764      65787400 
 3765              	.LASF102:
 3766 02d1 444D4131 		.ascii	"DMA1_Stream2_IRQn\000"
 3766      5F537472 
 3766      65616D32 
 3766      5F495251 
 3766      6E00
 3767              	.LASF176:
 3768 02e3 52455345 		.ascii	"RESERVED0\000"
 3768      52564544 
 3768      3000
 3769              	.LASF179:
 3770 02ed 52455345 		.ascii	"RESERVED1\000"
 3770      52564544 
 3770      3100
 3771              	.LASF4:
 3772 02f7 756E7369 		.ascii	"unsigned char\000"
 3772      676E6564 
 3772      20636861 
 3772      7200
 3773              	.LASF149:
 3774 0305 444D4132 		.ascii	"DMA2_Stream4_IRQn\000"
 3774      5F537472 
 3774      65616D34 
 3774      5F495251 
ARM GAS  /tmp/ccFAambi.s 			page 70


 3774      6E00
 3775              	.LASF190:
 3776 0317 52455345 		.ascii	"RESERVED4\000"
 3776      52564544 
 3776      3400
 3777              	.LASF77:
 3778 0321 715F6C69 		.ascii	"q_link\000"
 3778      6E6B00
 3779              	.LASF195:
 3780 0328 52455345 		.ascii	"RESERVED6\000"
 3780      52564544 
 3780      3600
 3781              	.LASF121:
 3782 0332 49324331 		.ascii	"I2C1_ER_IRQn\000"
 3782      5F45525F 
 3782      4952516E 
 3782      00
 3783              	.LASF155:
 3784 033f 43414E32 		.ascii	"CAN2_SCE_IRQn\000"
 3784      5F534345 
 3784      5F495251 
 3784      6E00
 3785              	.LASF203:
 3786 034d 53445F55 		.ascii	"SD_UNINIT\000"
 3786      4E494E49 
 3786      5400
 3787              	.LASF20:
 3788 0357 5F426F6F 		.ascii	"_Bool\000"
 3788      6C00
 3789              	.LASF183:
 3790 035d 52455345 		.ascii	"RESERVED2\000"
 3790      52564544 
 3790      3200
 3791              	.LASF186:
 3792 0367 52455345 		.ascii	"RESERVED3\000"
 3792      52564544 
 3792      3300
 3793              	.LASF139:
 3794 0371 54494D35 		.ascii	"TIM5_IRQn\000"
 3794      5F495251 
 3794      6E00
 3795              	.LASF193:
 3796 037b 52455345 		.ascii	"RESERVED5\000"
 3796      52564544 
 3796      3500
 3797              	.LASF84:
 3798 0385 55736167 		.ascii	"UsageFault_IRQn\000"
 3798      65466175 
 3798      6C745F49 
 3798      52516E00 
 3799              	.LASF68:
 3800 0395 63686172 		.ascii	"char\000"
 3800      00
 3801              	.LASF173:
 3802 039a 41484231 		.ascii	"AHB1RSTR\000"
 3802      52535452 
 3802      00
ARM GAS  /tmp/ccFAambi.s 			page 71


 3803              	.LASF31:
 3804 03a3 705F7072 		.ascii	"p_prio\000"
 3804      696F00
 3805              	.LASF6:
 3806 03aa 5F5F7569 		.ascii	"__uint16_t\000"
 3806      6E743136 
 3806      5F7400
 3807              	.LASF181:
 3808 03b5 41484232 		.ascii	"AHB2ENR\000"
 3808      454E5200 
 3809              	.LASF69:
 3810 03bd 47656E65 		.ascii	"GenericQueue\000"
 3810      72696351 
 3810      75657565 
 3810      00
 3811              	.LASF66:
 3812 03ca 77746F62 		.ascii	"wtobjp\000"
 3812      6A7000
 3813              	.LASF109:
 3814 03d1 43414E31 		.ascii	"CAN1_RX0_IRQn\000"
 3814      5F525830 
 3814      5F495251 
 3814      6E00
 3815              	.LASF219:
 3816 03df 67657474 		.ascii	"gett\000"
 3816      00
 3817              	.LASF49:
 3818 03e4 73746B61 		.ascii	"stkalign_t\000"
 3818      6C69676E 
 3818      5F7400
 3819              	.LASF202:
 3820 03ef 55534152 		.ascii	"USART_TypeDef\000"
 3820      545F5479 
 3820      70654465 
 3820      6600
 3821              	.LASF80:
 3822 03fd 4F757470 		.ascii	"OutputQueue\000"
 3822      75745175 
 3822      65756500 
 3823              	.LASF119:
 3824 0409 54494D34 		.ascii	"TIM4_IRQn\000"
 3824      5F495251 
 3824      6E00
 3825              	.LASF127:
 3826 0413 55534152 		.ascii	"USART2_IRQn\000"
 3826      54325F49 
 3826      52516E00 
 3827              	.LASF232:
 3828 041f 6462675F 		.ascii	"dbg_check_lock_from_isr\000"
 3828      63686563 
 3828      6B5F6C6F 
 3828      636B5F66 
 3828      726F6D5F 
 3829              	.LASF194:
 3830 0437 42444352 		.ascii	"BDCR\000"
 3830      00
 3831              	.LASF120:
ARM GAS  /tmp/ccFAambi.s 			page 72


 3832 043c 49324331 		.ascii	"I2C1_EV_IRQn\000"
 3832      5F45565F 
 3832      4952516E 
 3832      00
 3833              	.LASF236:
 3834 0449 6462675F 		.ascii	"dbg_check_enter_isr\000"
 3834      63686563 
 3834      6B5F656E 
 3834      7465725F 
 3834      69737200 
 3835              	.LASF50:
 3836 045d 696E7463 		.ascii	"intctx\000"
 3836      747800
 3837              	.LASF213:
 3838 0464 73706565 		.ascii	"speed\000"
 3838      6400
 3839              	.LASF43:
 3840 046a 705F6570 		.ascii	"p_epending\000"
 3840      656E6469 
 3840      6E6700
 3841              	.LASF242:
 3842 0475 2E2E2F2E 		.ascii	"../../../os/hal/platforms/STM32/USARTv1/serial_lld."
 3842      2E2F2E2E 
 3842      2F6F732F 
 3842      68616C2F 
 3842      706C6174 
 3843 04a8 6300     		.ascii	"c\000"
 3844              	.LASF172:
 3845 04aa 43464752 		.ascii	"CFGR\000"
 3845      00
 3846              	.LASF116:
 3847 04af 54494D31 		.ascii	"TIM1_CC_IRQn\000"
 3847      5F43435F 
 3847      4952516E 
 3847      00
 3848              	.LASF169:
 3849 04bc 48415348 		.ascii	"HASH_RNG_IRQn\000"
 3849      5F524E47 
 3849      5F495251 
 3849      6E00
 3850              	.LASF96:
 3851 04ca 45585449 		.ascii	"EXTI1_IRQn\000"
 3851      315F4952 
 3851      516E00
 3852              	.LASF108:
 3853 04d5 43414E31 		.ascii	"CAN1_TX_IRQn\000"
 3853      5F54585F 
 3853      4952516E 
 3853      00
 3854              	.LASF105:
 3855 04e2 444D4131 		.ascii	"DMA1_Stream5_IRQn\000"
 3855      5F537472 
 3855      65616D35 
 3855      5F495251 
 3855      6E00
 3856              	.LASF134:
 3857 04f4 54494D38 		.ascii	"TIM8_TRG_COM_TIM14_IRQn\000"
ARM GAS  /tmp/ccFAambi.s 			page 73


 3857      5F545247 
 3857      5F434F4D 
 3857      5F54494D 
 3857      31345F49 
 3858              	.LASF63:
 3859 050c 65735F6E 		.ascii	"es_next\000"
 3859      65787400 
 3860              	.LASF71:
 3861 0514 715F636F 		.ascii	"q_counter\000"
 3861      756E7465 
 3861      7200
 3862              	.LASF156:
 3863 051e 4F54475F 		.ascii	"OTG_FS_IRQn\000"
 3863      46535F49 
 3863      52516E00 
 3864              	.LASF81:
 3865 052a 4E6F6E4D 		.ascii	"NonMaskableInt_IRQn\000"
 3865      61736B61 
 3865      626C6549 
 3865      6E745F49 
 3865      52516E00 
 3866              	.LASF137:
 3867 053e 46534D43 		.ascii	"FSMC_IRQn\000"
 3867      5F495251 
 3867      6E00
 3868              	.LASF62:
 3869 0548 4576656E 		.ascii	"EventSource\000"
 3869      74536F75 
 3869      72636500 
 3870              	.LASF13:
 3871 0554 5F5F7569 		.ascii	"__uint64_t\000"
 3871      6E743634 
 3871      5F7400
 3872              	.LASF89:
 3873 055f 57574447 		.ascii	"WWDG_IRQn\000"
 3873      5F495251 
 3873      6E00
 3874              	.LASF11:
 3875 0569 6C6F6E67 		.ascii	"long unsigned int\000"
 3875      20756E73 
 3875      69676E65 
 3875      6420696E 
 3875      7400
 3876              	.LASF82:
 3877 057b 4D656D6F 		.ascii	"MemoryManagement_IRQn\000"
 3877      72794D61 
 3877      6E616765 
 3877      6D656E74 
 3877      5F495251 
 3878              	.LASF91:
 3879 0591 54414D50 		.ascii	"TAMP_STAMP_IRQn\000"
 3879      5F535441 
 3879      4D505F49 
 3879      52516E00 
 3880              	.LASF111:
 3881 05a1 43414E31 		.ascii	"CAN1_SCE_IRQn\000"
 3881      5F534345 
ARM GAS  /tmp/ccFAambi.s 			page 74


 3881      5F495251 
 3881      6E00
 3882              	.LASF58:
 3883 05af 656C5F6E 		.ascii	"el_next\000"
 3883      65787400 
 3884              	.LASF74:
 3885 05b7 715F7772 		.ascii	"q_wrptr\000"
 3885      70747200 
 3886              	.LASF215:
 3887 05bf 53657269 		.ascii	"SerialDriverVMT\000"
 3887      616C4472 
 3887      69766572 
 3887      564D5400 
 3888              	.LASF224:
 3889 05cf 75736172 		.ascii	"usart_deinit\000"
 3889      745F6465 
 3889      696E6974 
 3889      00
 3890              	.LASF123:
 3891 05dc 49324332 		.ascii	"I2C2_ER_IRQn\000"
 3891      5F45525F 
 3891      4952516E 
 3891      00
 3892              	.LASF83:
 3893 05e9 42757346 		.ascii	"BusFault_IRQn\000"
 3893      61756C74 
 3893      5F495251 
 3893      6E00
 3894              	.LASF228:
 3895 05f7 73645F6C 		.ascii	"sd_lld_init\000"
 3895      6C645F69 
 3895      6E697400 
 3896              	.LASF171:
 3897 0603 504C4C43 		.ascii	"PLLCFGR\000"
 3897      46475200 
 3898              	.LASF142:
 3899 060b 55415254 		.ascii	"UART5_IRQn\000"
 3899      355F4952 
 3899      516E00
 3900              	.LASF113:
 3901 0616 54494D31 		.ascii	"TIM1_BRK_TIM9_IRQn\000"
 3901      5F42524B 
 3901      5F54494D 
 3901      395F4952 
 3901      516E00
 3902              	.LASF10:
 3903 0629 5F5F7569 		.ascii	"__uint32_t\000"
 3903      6E743332 
 3903      5F7400
 3904              	.LASF53:
 3905 0634 4D757465 		.ascii	"Mutex\000"
 3905      7800
 3906              	.LASF235:
 3907 063a 7364496E 		.ascii	"sdIncomingDataI\000"
 3907      636F6D69 
 3907      6E674461 
 3907      74614900 
ARM GAS  /tmp/ccFAambi.s 			page 75


 3908              	.LASF144:
 3909 064a 54494D37 		.ascii	"TIM7_IRQn\000"
 3909      5F495251 
 3909      6E00
 3910              	.LASF12:
 3911 0654 6C6F6E67 		.ascii	"long long int\000"
 3911      206C6F6E 
 3911      6720696E 
 3911      7400
 3912              	.LASF151:
 3913 0662 4554485F 		.ascii	"ETH_WKUP_IRQn\000"
 3913      574B5550 
 3913      5F495251 
 3913      6E00
 3914              	.LASF166:
 3915 0670 4F54475F 		.ascii	"OTG_HS_IRQn\000"
 3915      48535F49 
 3915      52516E00 
 3916              	.LASF54:
 3917 067c 6D5F7175 		.ascii	"m_queue\000"
 3917      65756500 
 3918              	.LASF196:
 3919 0684 53534347 		.ascii	"SSCGR\000"
 3919      5200
 3920              	.LASF124:
 3921 068a 53504931 		.ascii	"SPI1_IRQn\000"
 3921      5F495251 
 3921      6E00
 3922              	.LASF85:
 3923 0694 53564361 		.ascii	"SVCall_IRQn\000"
 3923      6C6C5F49 
 3923      52516E00 
 3924              	.LASF178:
 3925 06a0 41504232 		.ascii	"APB2RSTR\000"
 3925      52535452 
 3925      00
 3926              	.LASF233:
 3927 06a9 6462675F 		.ascii	"dbg_check_unlock_from_isr\000"
 3927      63686563 
 3927      6B5F756E 
 3927      6C6F636B 
 3927      5F66726F 
 3928              	.LASF170:
 3929 06c3 4650555F 		.ascii	"FPU_IRQn\000"
 3929      4952516E 
 3929      00
 3930              	.LASF141:
 3931 06cc 55415254 		.ascii	"UART4_IRQn\000"
 3931      345F4952 
 3931      516E00
 3932              	.LASF192:
 3933 06d7 41504232 		.ascii	"APB2LPENR\000"
 3933      4C50454E 
 3933      5200
 3934              	.LASF78:
 3935 06e1 716E6F74 		.ascii	"qnotify_t\000"
 3935      6966795F 
ARM GAS  /tmp/ccFAambi.s 			page 76


 3935      7400
 3936              	.LASF40:
 3937 06eb 705F7761 		.ascii	"p_waiting\000"
 3937      6974696E 
 3937      6700
 3938              	.LASF145:
 3939 06f5 444D4132 		.ascii	"DMA2_Stream0_IRQn\000"
 3939      5F537472 
 3939      65616D30 
 3939      5F495251 
 3939      6E00
 3940              	.LASF208:
 3941 0707 6576656E 		.ascii	"event\000"
 3941      7400
 3942              	.LASF131:
 3943 070d 4F54475F 		.ascii	"OTG_FS_WKUP_IRQn\000"
 3943      46535F57 
 3943      4B55505F 
 3943      4952516E 
 3943      00
 3944              	.LASF38:
 3945 071e 705F666C 		.ascii	"p_flags\000"
 3945      61677300 
 3946              	.LASF217:
 3947 0726 72656164 		.ascii	"read\000"
 3947      00
 3948              	.LASF0:
 3949 072b 756E7369 		.ascii	"unsigned int\000"
 3949      676E6564 
 3949      20696E74 
 3949      00
 3950              	.LASF143:
 3951 0738 54494D36 		.ascii	"TIM6_DAC_IRQn\000"
 3951      5F444143 
 3951      5F495251 
 3951      6E00
 3952              	.LASF122:
 3953 0746 49324332 		.ascii	"I2C2_EV_IRQn\000"
 3953      5F45565F 
 3953      4952516E 
 3953      00
 3954              	.LASF247:
 3955 0753 63684F51 		.ascii	"chOQGetI\000"
 3955      47657449 
 3955      00
 3956              	.LASF238:
 3957 075c 5F706F72 		.ascii	"_port_irq_epilogue\000"
 3957      745F6972 
 3957      715F6570 
 3957      696C6F67 
 3957      756500
 3958              	.LASF47:
 3959 076f 54687265 		.ascii	"ThreadsList\000"
 3959      6164734C 
 3959      69737400 
 3960              	.LASF191:
 3961 077b 41504231 		.ascii	"APB1LPENR\000"
ARM GAS  /tmp/ccFAambi.s 			page 77


 3961      4C50454E 
 3961      5200
 3962              	.LASF101:
 3963 0785 444D4131 		.ascii	"DMA1_Stream1_IRQn\000"
 3963      5F537472 
 3963      65616D31 
 3963      5F495251 
 3963      6E00
 3964              	.LASF26:
 3965 0797 666C6167 		.ascii	"flagsmask_t\000"
 3965      736D6173 
 3965      6B5F7400 
 3966              	.LASF148:
 3967 07a3 444D4132 		.ascii	"DMA2_Stream3_IRQn\000"
 3967      5F537472 
 3967      65616D33 
 3967      5F495251 
 3967      6E00
 3968              	.LASF152:
 3969 07b5 43414E32 		.ascii	"CAN2_TX_IRQn\000"
 3969      5F54585F 
 3969      4952516E 
 3969      00
 3970              	.LASF39:
 3971 07c2 705F7469 		.ascii	"p_time\000"
 3971      6D6500
 3972              	.LASF244:
 3973 07c9 4952516E 		.ascii	"IRQn\000"
 3973      00
 3974              	.LASF106:
 3975 07ce 444D4131 		.ascii	"DMA1_Stream6_IRQn\000"
 3975      5F537472 
 3975      65616D36 
 3975      5F495251 
 3975      6E00
 3976              	.LASF234:
 3977 07e0 63684576 		.ascii	"chEvtBroadcastFlagsI\000"
 3977      7442726F 
 3977      61646361 
 3977      7374466C 
 3977      61677349 
 3978              	.LASF175:
 3979 07f5 41484233 		.ascii	"AHB3RSTR\000"
 3979      52535452 
 3979      00
 3980              	.LASF248:
 3981 07fe 6E766963 		.ascii	"nvicDisableVector\000"
 3981      44697361 
 3981      626C6556 
 3981      6563746F 
 3981      7200
 3982              	.LASF45:
 3983 0810 705F7265 		.ascii	"p_realprio\000"
 3983      616C7072 
 3983      696F00
 3984              	.LASF159:
 3985 081b 444D4132 		.ascii	"DMA2_Stream7_IRQn\000"
ARM GAS  /tmp/ccFAambi.s 			page 78


 3985      5F537472 
 3985      65616D37 
 3985      5F495251 
 3985      6E00
 3986              	.LASF100:
 3987 082d 444D4131 		.ascii	"DMA1_Stream0_IRQn\000"
 3987      5F537472 
 3987      65616D30 
 3987      5F495251 
 3987      6E00
 3988              	.LASF177:
 3989 083f 41504231 		.ascii	"APB1RSTR\000"
 3989      52535452 
 3989      00
 3990              	.LASF223:
 3991 0848 75736172 		.ascii	"usart_init\000"
 3991      745F696E 
 3991      697400
 3992              	.LASF130:
 3993 0853 5254435F 		.ascii	"RTC_Alarm_IRQn\000"
 3993      416C6172 
 3993      6D5F4952 
 3993      516E00
 3994              	.LASF184:
 3995 0862 41504231 		.ascii	"APB1ENR\000"
 3995      454E5200 
 3996              	.LASF162:
 3997 086a 49324333 		.ascii	"I2C3_ER_IRQn\000"
 3997      5F45525F 
 3997      4952516E 
 3997      00
 3998              	.LASF237:
 3999 0877 6462675F 		.ascii	"dbg_check_leave_isr\000"
 3999      63686563 
 3999      6B5F6C65 
 3999      6176655F 
 3999      69737200 
 4000              	.LASF168:
 4001 088b 43525950 		.ascii	"CRYP_IRQn\000"
 4001      5F495251 
 4001      6E00
 4002              	.LASF129:
 4003 0895 45585449 		.ascii	"EXTI15_10_IRQn\000"
 4003      31355F31 
 4003      305F4952 
 4003      516E00
 4004              	.LASF14:
 4005 08a4 6C6F6E67 		.ascii	"long long unsigned int\000"
 4005      206C6F6E 
 4005      6720756E 
 4005      7369676E 
 4005      65642069 
 4006              	.LASF34:
 4007 08bb 705F6F6C 		.ascii	"p_older\000"
 4007      64657200 
 4008              	.LASF16:
 4009 08c3 75696E74 		.ascii	"uint16_t\000"
ARM GAS  /tmp/ccFAambi.s 			page 79


 4009      31365F74 
 4009      00
 4010              	.LASF24:
 4011 08cc 6D73675F 		.ascii	"msg_t\000"
 4011      7400
 4012              	.LASF118:
 4013 08d2 54494D33 		.ascii	"TIM3_IRQn\000"
 4013      5F495251 
 4013      6E00
 4014              	.LASF126:
 4015 08dc 55534152 		.ascii	"USART1_IRQn\000"
 4015      54315F49 
 4015      52516E00 
 4016              	.LASF97:
 4017 08e8 45585449 		.ascii	"EXTI2_IRQn\000"
 4017      325F4952 
 4017      516E00
 4018              	.LASF154:
 4019 08f3 43414E32 		.ascii	"CAN2_RX1_IRQn\000"
 4019      5F525831 
 4019      5F495251 
 4019      6E00
 4020              	.LASF107:
 4021 0901 4144435F 		.ascii	"ADC_IRQn\000"
 4021      4952516E 
 4021      00
 4022              	.LASF189:
 4023 090a 41484233 		.ascii	"AHB3LPENR\000"
 4023      4C50454E 
 4023      5200
 4024              	.LASF90:
 4025 0914 5056445F 		.ascii	"PVD_IRQn\000"
 4025      4952516E 
 4025      00
 4026              	.LASF207:
 4027 091d 53657269 		.ascii	"SerialDriver\000"
 4027      616C4472 
 4027      69766572 
 4027      00
 4028              	.LASF70:
 4029 092a 715F7761 		.ascii	"q_waiting\000"
 4029      6974696E 
 4029      6700
 4030              	.LASF95:
 4031 0934 45585449 		.ascii	"EXTI0_IRQn\000"
 4031      305F4952 
 4031      516E00
 4032              	.LASF21:
 4033 093f 746D6F64 		.ascii	"tmode_t\000"
 4033      655F7400 
 4034              	.LASF104:
 4035 0947 444D4131 		.ascii	"DMA1_Stream4_IRQn\000"
 4035      5F537472 
 4035      65616D34 
 4035      5F495251 
 4035      6E00
 4036              	.LASF206:
ARM GAS  /tmp/ccFAambi.s 			page 80


 4037 0959 73647374 		.ascii	"sdstate_t\000"
 4037      6174655F 
 4037      7400
 4038              	.LASF158:
 4039 0963 444D4132 		.ascii	"DMA2_Stream6_IRQn\000"
 4039      5F537472 
 4039      65616D36 
 4039      5F495251 
 4039      6E00
 4040              	.LASF180:
 4041 0975 41484231 		.ascii	"AHB1ENR\000"
 4041      454E5200 
 4042              	.LASF86:
 4043 097d 44656275 		.ascii	"DebugMonitor_IRQn\000"
 4043      674D6F6E 
 4043      69746F72 
 4043      5F495251 
 4043      6E00
 4044              	.LASF205:
 4045 098f 53445F52 		.ascii	"SD_READY\000"
 4045      45414459 
 4045      00
 4046              	.LASF161:
 4047 0998 49324333 		.ascii	"I2C3_EV_IRQn\000"
 4047      5F45565F 
 4047      4952516E 
 4047      00
 4048              	.LASF174:
 4049 09a5 41484232 		.ascii	"AHB2RSTR\000"
 4049      52535452 
 4049      00
 4050              	.LASF150:
 4051 09ae 4554485F 		.ascii	"ETH_IRQn\000"
 4051      4952516E 
 4051      00
 4052              	.LASF245:
 4053 09b7 6E6F7469 		.ascii	"notify2\000"
 4053      66793200 
 4054              	.LASF200:
 4055 09bf 5243435F 		.ascii	"RCC_TypeDef\000"
 4055      54797065 
 4055      44656600 
 4056              	.LASF5:
 4057 09cb 73686F72 		.ascii	"short int\000"
 4057      7420696E 
 4057      7400
 4058              	.LASF19:
 4059 09d5 75696E74 		.ascii	"uint64_t\000"
 4059      36345F74 
 4059      00
 4060              	.LASF94:
 4061 09de 5243435F 		.ascii	"RCC_IRQn\000"
 4061      4952516E 
 4061      00
 4062              	.LASF210:
 4063 09e7 69717565 		.ascii	"iqueue\000"
 4063      756500
ARM GAS  /tmp/ccFAambi.s 			page 81


 4064              	.LASF103:
 4065 09ee 444D4131 		.ascii	"DMA1_Stream3_IRQn\000"
 4065      5F537472 
 4065      65616D33 
 4065      5F495251 
 4065      6E00
 4066              	.LASF28:
 4067 0a00 54687265 		.ascii	"Thread\000"
 4067      616400
 4068              	.LASF114:
 4069 0a07 54494D31 		.ascii	"TIM1_UP_TIM10_IRQn\000"
 4069      5F55505F 
 4069      54494D31 
 4069      305F4952 
 4069      516E00
 4070              	.LASF231:
 4071 0a1a 49544D5F 		.ascii	"ITM_RxBuffer\000"
 4071      52784275 
 4071      66666572 
 4071      00
 4072              	.LASF241:
 4073 0a27 474E5520 		.ascii	"GNU C 4.8.2 -mcpu=cortex-m4 -mno-thumb-interwork -m"
 4073      4320342E 
 4073      382E3220 
 4073      2D6D6370 
 4073      753D636F 
 4074 0a5a 7468756D 		.ascii	"thumb -ggdb -O2 -fomit-frame-pointer -falign-functi"
 4074      62202D67 
 4074      67646220 
 4074      2D4F3220 
 4074      2D666F6D 
 4075 0a8d 6F6E733D 		.ascii	"ons=16 -ffunction-sections -fdata-sections -fno-com"
 4075      3136202D 
 4075      6666756E 
 4075      6374696F 
 4075      6E2D7365 
 4076 0ac0 6D6F6E00 		.ascii	"mon\000"
 4077              	.LASF163:
 4078 0ac4 4F54475F 		.ascii	"OTG_HS_EP1_OUT_IRQn\000"
 4078      48535F45 
 4078      50315F4F 
 4078      55545F49 
 4078      52516E00 
 4079              	.LASF92:
 4080 0ad8 5254435F 		.ascii	"RTC_WKUP_IRQn\000"
 4080      574B5550 
 4080      5F495251 
 4080      6E00
 4081              	.LASF57:
 4082 0ae6 4576656E 		.ascii	"EventListener\000"
 4082      744C6973 
 4082      74656E65 
 4082      7200
 4083              	.LASF240:
 4084 0af4 6E766963 		.ascii	"nvicEnableVector\000"
 4084      456E6162 
 4084      6C655665 
ARM GAS  /tmp/ccFAambi.s 			page 82


 4084      63746F72 
 4084      00
 4085              	.LASF18:
 4086 0b05 75696E74 		.ascii	"uint32_t\000"
 4086      33325F74 
 4086      00
 4087              	.LASF110:
 4088 0b0e 43414E31 		.ascii	"CAN1_RX1_IRQn\000"
 4088      5F525831 
 4088      5F495251 
 4088      6E00
 4089              	.LASF46:
 4090 0b1c 54687265 		.ascii	"ThreadsQueue\000"
 4090      61647351 
 4090      75657565 
 4090      00
 4091              	.LASF112:
 4092 0b29 45585449 		.ascii	"EXTI9_5_IRQn\000"
 4092      395F355F 
 4092      4952516E 
 4092      00
 4093              	.LASF198:
 4094 0b36 504C4C53 		.ascii	"PLLSAICFGR\000"
 4094      41494346 
 4094      475200
 4095              	.LASF64:
 4096 0b41 7264796D 		.ascii	"rdymsg\000"
 4096      736700
 4097              	.LASF99:
 4098 0b48 45585449 		.ascii	"EXTI4_IRQn\000"
 4098      345F4952 
 4098      516E00
 4099              	.LASF7:
 4100 0b53 73686F72 		.ascii	"short unsigned int\000"
 4100      7420756E 
 4100      7369676E 
 4100      65642069 
 4100      6E7400
 4101              	.LASF230:
 4102 0b66 73645F6C 		.ascii	"sd_lld_stop\000"
 4102      6C645F73 
 4102      746F7000 
 4103              	.LASF135:
 4104 0b72 54494D38 		.ascii	"TIM8_CC_IRQn\000"
 4104      5F43435F 
 4104      4952516E 
 4104      00
 4105              	.LASF138:
 4106 0b7f 5344494F 		.ascii	"SDIO_IRQn\000"
 4106      5F495251 
 4106      6E00
 4107              	.LASF79:
 4108 0b89 496E7075 		.ascii	"InputQueue\000"
 4108      74517565 
 4108      756500
 4109              	.LASF98:
 4110 0b94 45585449 		.ascii	"EXTI3_IRQn\000"
ARM GAS  /tmp/ccFAambi.s 			page 83


 4110      335F4952 
 4110      516E00
 4111              	.LASF87:
 4112 0b9f 50656E64 		.ascii	"PendSV_IRQn\000"
 4112      53565F49 
 4112      52516E00 
 4113              	.LASF164:
 4114 0bab 4F54475F 		.ascii	"OTG_HS_EP1_IN_IRQn\000"
 4114      48535F45 
 4114      50315F49 
 4114      4E5F4952 
 4114      516E00
 4115              	.LASF36:
 4116 0bbe 705F7374 		.ascii	"p_stklimit\000"
 4116      6B6C696D 
 4116      697400
 4117              	.LASF136:
 4118 0bc9 444D4131 		.ascii	"DMA1_Stream7_IRQn\000"
 4118      5F537472 
 4118      65616D37 
 4118      5F495251 
 4118      6E00
 4119              	.LASF8:
 4120 0bdb 5F5F696E 		.ascii	"__int32_t\000"
 4120      7433325F 
 4120      7400
 4121              	.LASF204:
 4122 0be5 53445F53 		.ascii	"SD_STOP\000"
 4122      544F5000 
 4123              	.LASF60:
 4124 0bed 656C5F6D 		.ascii	"el_mask\000"
 4124      61736B00 
 4125              	.LASF35:
 4126 0bf5 705F6E61 		.ascii	"p_name\000"
 4126      6D6500
 4127              	.LASF56:
 4128 0bfc 6D5F6E65 		.ascii	"m_next\000"
 4128      787400
 4129              	.LASF182:
 4130 0c03 41484233 		.ascii	"AHB3ENR\000"
 4130      454E5200 
 4131              	.LASF147:
 4132 0c0b 444D4132 		.ascii	"DMA2_Stream2_IRQn\000"
 4132      5F537472 
 4132      65616D32 
 4132      5F495251 
 4132      6E00
 4133              	.LASF42:
 4134 0c1d 705F6D73 		.ascii	"p_msg\000"
 4134      6700
 4135              	.LASF59:
 4136 0c23 656C5F6C 		.ascii	"el_listener\000"
 4136      69737465 
 4136      6E657200 
 4137              	.LASF37:
 4138 0c2f 705F7374 		.ascii	"p_state\000"
 4138      61746500 
ARM GAS  /tmp/ccFAambi.s 			page 84


 4139              		.ident	"GCC: (Arch Repository) 4.8.2"
ARM GAS  /tmp/ccFAambi.s 			page 85


DEFINED SYMBOLS
                            *ABS*:0000000000000000 serial_lld.c
     /tmp/ccFAambi.s:19     .text.notify2:0000000000000000 $t
     /tmp/ccFAambi.s:24     .text.notify2:0000000000000000 notify2
     /tmp/ccFAambi.s:45     .text.VectorD8:0000000000000000 $t
     /tmp/ccFAambi.s:51     .text.VectorD8:0000000000000000 VectorD8
     /tmp/ccFAambi.s:538    .bss.SD2:0000000000000000 .LANCHOR0
     /tmp/ccFAambi.s:284    .text.VectorD8:0000000000000110 $d
     /tmp/ccFAambi.s:293    .text.sd_lld_init:0000000000000000 $t
     /tmp/ccFAambi.s:299    .text.sd_lld_init:0000000000000000 sd_lld_init
     /tmp/ccFAambi.s:327    .text.sd_lld_start:0000000000000000 $t
     /tmp/ccFAambi.s:333    .text.sd_lld_start:0000000000000000 sd_lld_start
     /tmp/ccFAambi.s:527    .rodata.default_config:0000000000000000 .LANCHOR1
     /tmp/ccFAambi.s:459    .text.sd_lld_stop:0000000000000000 $t
     /tmp/ccFAambi.s:465    .text.sd_lld_stop:0000000000000000 sd_lld_stop
     /tmp/ccFAambi.s:541    .bss.SD2:0000000000000000 SD2
     /tmp/ccFAambi.s:526    .rodata.default_config:0000000000000000 $d
     /tmp/ccFAambi.s:530    .rodata.default_config:0000000000000000 default_config
     /tmp/ccFAambi.s:537    .bss.SD2:0000000000000000 $d
                     .debug_frame:0000000000000010 $d
     /tmp/ccFAambi.s:292    .text.VectorD8:0000000000000118 $t

UNDEFINED SYMBOLS
dbg_check_enter_isr
_port_lock
dbg_check_lock_from_isr
sdIncomingDataI
chEvtBroadcastFlagsI
dbg_check_unlock_from_isr
_port_unlock
dbg_check_leave_isr
_port_irq_epilogue
chOQGetI
sdObjectInit
nvicEnableVector
nvicDisableVector
