ARM GAS  /tmp/ccZvnD1b.s 			page 1


   1              		.syntax unified
   2              		.cpu cortex-m4
   3              		.fpu softvfp
   4              		.eabi_attribute 20, 1
   5              		.eabi_attribute 21, 1
   6              		.eabi_attribute 23, 3
   7              		.eabi_attribute 24, 1
   8              		.eabi_attribute 25, 1
   9              		.eabi_attribute 26, 1
  10              		.eabi_attribute 30, 2
  11              		.eabi_attribute 34, 1
  12              		.eabi_attribute 18, 4
  13              		.thumb
  14              		.file	"testmbox.c"
  15              		.text
  16              	.Ltext0:
  17              		.cfi_sections	.debug_frame
  18              		.section	.text.mbox1_execute,"ax",%progbits
  19              		.align	2
  20              		.p2align 4,,15
  21              		.thumb
  22              		.thumb_func
  23              		.type	mbox1_execute, %function
  24              	mbox1_execute:
  25              	.LFB1:
  26              		.file 1 "../../../test/testmbox.c"
  27              		.loc 1 76 0
  28              		.cfi_startproc
  29              		@ args = 0, pretend = 0, frame = 8
  30              		@ frame_needed = 0, uses_anonymous_args = 0
  31 0000 70B5     		push	{r4, r5, r6, lr}
  32              		.cfi_def_cfa_offset 16
  33              		.cfi_offset 4, -16
  34              		.cfi_offset 5, -12
  35              		.cfi_offset 6, -8
  36              		.cfi_offset 14, -4
  37              		.loc 1 83 0
  38 0002 40F20005 		movw	r5, #:lower16:.LANCHOR0
  39 0006 C0F20005 		movt	r5, #:upper16:.LANCHOR0
  40              		.loc 1 76 0
  41 000a 82B0     		sub	sp, sp, #8
  42              		.cfi_def_cfa_offset 24
  43              		.loc 1 83 0
  44 000c 696A     		ldr	r1, [r5, #36]
  45 000e B1F1050E 		subs	lr, r1, #5
  46 0012 DEF10001 		rsbs	r1, lr, #0
  47 0016 51EB0E01 		adcs	r1, r1, lr
  48 001a 0120     		movs	r0, #1
  49 001c FFF7FEFF 		bl	_test_assert
  50              	.LVL0:
  51 0020 28BB     		cbnz	r0, .L1
  52 0022 4224     		movs	r4, #66
  53              	.L4:
  54              	.LVL1:
  55              		.loc 1 89 0
  56 0024 40F20000 		movw	r0, #:lower16:.LANCHOR0
  57 0028 2146     		mov	r1, r4
ARM GAS  /tmp/ccZvnD1b.s 			page 2


  58 002a C0F20000 		movt	r0, #:upper16:.LANCHOR0
  59 002e 4FF0FF32 		mov	r2, #-1
  60 0032 FFF7FEFF 		bl	chMBPost
  61              	.LVL2:
  62              		.loc 1 90 0
  63 0036 D0F10101 		rsbs	r1, r0, #1
  64 003a 38BF     		it	cc
  65 003c 0021     		movcc	r1, #0
  66 003e 0220     		movs	r0, #2
  67              	.LVL3:
  68 0040 0134     		adds	r4, r4, #1
  69              	.LVL4:
  70 0042 FFF7FEFF 		bl	_test_assert
  71              	.LVL5:
  72 0046 90B9     		cbnz	r0, .L1
  73              		.loc 1 88 0
  74 0048 462C     		cmp	r4, #70
  75 004a EBD1     		bne	.L4
  76              		.loc 1 92 0
  77 004c 40F20000 		movw	r0, #:lower16:.LANCHOR0
  78 0050 4121     		movs	r1, #65
  79 0052 C0F20000 		movt	r0, #:upper16:.LANCHOR0
  80 0056 4FF0FF32 		mov	r2, #-1
  81 005a FFF7FEFF 		bl	chMBPostAhead
  82              	.LVL6:
  83              		.loc 1 93 0
  84 005e D0F10101 		rsbs	r1, r0, #1
  85 0062 38BF     		it	cc
  86 0064 0021     		movcc	r1, #0
  87 0066 0320     		movs	r0, #3
  88              	.LVL7:
  89 0068 FFF7FEFF 		bl	_test_assert
  90              	.LVL8:
  91 006c 08B1     		cbz	r0, .L28
  92              	.L1:
  93              		.loc 1 220 0
  94 006e 02B0     		add	sp, sp, #8
  95              		@ sp needed
  96 0070 70BD     		pop	{r4, r5, r6, pc}
  97              	.L28:
  98              		.loc 1 98 0
  99 0072 40F20000 		movw	r0, #:lower16:.LANCHOR0
 100 0076 5821     		movs	r1, #88
 101 0078 C0F20000 		movt	r0, #:upper16:.LANCHOR0
 102 007c 0122     		movs	r2, #1
 103 007e FFF7FEFF 		bl	chMBPost
 104              	.LVL9:
 105              		.loc 1 99 0
 106 0082 B0F1FF36 		subs	r6, r0, #-1
 107 0086 7142     		rsbs	r1, r6, #0
 108 0088 7141     		adcs	r1, r1, r6
 109 008a 0420     		movs	r0, #4
 110              	.LVL10:
 111 008c FFF7FEFF 		bl	_test_assert
 112              	.LVL11:
 113 0090 0028     		cmp	r0, #0
 114 0092 ECD1     		bne	.L1
ARM GAS  /tmp/ccZvnD1b.s 			page 3


 115              		.loc 1 100 0
 116              	@ 100 "../../../test/testmbox.c" 1
 117 0094 FFF7FEFF 		bl      _port_lock
 118              	@ 0 "" 2
 119              		.thumb
 120 0098 FFF7FEFF 		bl	dbg_check_lock
 121              	.LVL12:
 122              		.loc 1 101 0
 123 009c 40F20000 		movw	r0, #:lower16:.LANCHOR0
 124 00a0 5821     		movs	r1, #88
 125 00a2 C0F20000 		movt	r0, #:upper16:.LANCHOR0
 126 00a6 FFF7FEFF 		bl	chMBPostI
 127              	.LVL13:
 128 00aa 0446     		mov	r4, r0
 129              	.LVL14:
 130              		.loc 1 102 0
 131 00ac FFF7FEFF 		bl	dbg_check_unlock
 132              	.LVL15:
 133              	@ 102 "../../../test/testmbox.c" 1
 134 00b0 FFF7FEFF 		bl      _port_unlock
 135              	@ 0 "" 2
 136              		.loc 1 103 0
 137              		.thumb
 138 00b4 B4F1FF34 		subs	r4, r4, #-1
 139              	.LVL16:
 140 00b8 6142     		rsbs	r1, r4, #0
 141 00ba 6141     		adcs	r1, r1, r4
 142 00bc 0520     		movs	r0, #5
 143 00be FFF7FEFF 		bl	_test_assert
 144              	.LVL17:
 145 00c2 0028     		cmp	r0, #0
 146 00c4 D3D1     		bne	.L1
 147              		.loc 1 104 0
 148 00c6 40F20000 		movw	r0, #:lower16:.LANCHOR0
 149 00ca 5821     		movs	r1, #88
 150 00cc 0122     		movs	r2, #1
 151 00ce C0F20000 		movt	r0, #:upper16:.LANCHOR0
 152 00d2 FFF7FEFF 		bl	chMBPostAhead
 153              	.LVL18:
 154              		.loc 1 105 0
 155 00d6 B0F1FF32 		subs	r2, r0, #-1
 156 00da 5142     		rsbs	r1, r2, #0
 157 00dc 5141     		adcs	r1, r1, r2
 158 00de 0620     		movs	r0, #6
 159              	.LVL19:
 160 00e0 FFF7FEFF 		bl	_test_assert
 161              	.LVL20:
 162 00e4 0028     		cmp	r0, #0
 163 00e6 C2D1     		bne	.L1
 164              		.loc 1 106 0
 165              	@ 106 "../../../test/testmbox.c" 1
 166 00e8 FFF7FEFF 		bl      _port_lock
 167              	@ 0 "" 2
 168              		.thumb
 169 00ec FFF7FEFF 		bl	dbg_check_lock
 170              	.LVL21:
 171              		.loc 1 107 0
ARM GAS  /tmp/ccZvnD1b.s 			page 4


 172 00f0 40F20000 		movw	r0, #:lower16:.LANCHOR0
 173 00f4 5821     		movs	r1, #88
 174 00f6 C0F20000 		movt	r0, #:upper16:.LANCHOR0
 175 00fa FFF7FEFF 		bl	chMBPostAheadI
 176              	.LVL22:
 177 00fe 0446     		mov	r4, r0
 178              	.LVL23:
 179              		.loc 1 108 0
 180 0100 FFF7FEFF 		bl	dbg_check_unlock
 181              	.LVL24:
 182              	@ 108 "../../../test/testmbox.c" 1
 183 0104 FFF7FEFF 		bl      _port_unlock
 184              	@ 0 "" 2
 185              		.loc 1 109 0
 186              		.thumb
 187 0108 B4F1FF33 		subs	r3, r4, #-1
 188 010c 5942     		rsbs	r1, r3, #0
 189 010e 5941     		adcs	r1, r1, r3
 190 0110 0720     		movs	r0, #7
 191 0112 FFF7FEFF 		bl	_test_assert
 192              	.LVL25:
 193 0116 0028     		cmp	r0, #0
 194 0118 A9D1     		bne	.L1
 195              		.loc 1 114 0
 196              	@ 114 "../../../test/testmbox.c" 1
 197 011a FFF7FEFF 		bl      _port_lock
 198              	@ 0 "" 2
 199              		.thumb
 200 011e FFF7FEFF 		bl	dbg_check_lock
 201              	.LVL26:
 202 0122 696A     		ldr	r1, [r5, #36]
 203 0124 D1F10101 		rsbs	r1, r1, #1
 204 0128 38BF     		it	cc
 205 012a 0021     		movcc	r1, #0
 206 012c 0820     		movs	r0, #8
 207 012e FFF7FEFF 		bl	_test_assert
 208              	.LVL27:
 209 0132 0028     		cmp	r0, #0
 210 0134 40F0C182 		bne	.L25
 211              		.loc 1 114 0 is_stmt 0 discriminator 2
 212 0138 FFF7FEFF 		bl	dbg_check_unlock
 213              	.LVL28:
 214              	@ 114 "../../../test/testmbox.c" 1
 215 013c FFF7FEFF 		bl      _port_unlock
 216              	@ 0 "" 2
 217              		.loc 1 115 0 is_stmt 1 discriminator 2
 218              	@ 115 "../../../test/testmbox.c" 1
 219 0140 FFF7FEFF 		bl      _port_lock
 220              	@ 0 "" 2
 221              		.thumb
 222 0144 FFF7FEFF 		bl	dbg_check_lock
 223              	.LVL29:
 224 0148 A969     		ldr	r1, [r5, #24]
 225 014a B1F1050C 		subs	ip, r1, #5
 226 014e DCF10001 		rsbs	r1, ip, #0
 227 0152 51EB0C01 		adcs	r1, r1, ip
 228 0156 0920     		movs	r0, #9
ARM GAS  /tmp/ccZvnD1b.s 			page 5


 229 0158 FFF7FEFF 		bl	_test_assert
 230              	.LVL30:
 231 015c 0028     		cmp	r0, #0
 232 015e 40F0AC82 		bne	.L25
 233 0162 FFF7FEFF 		bl	dbg_check_unlock
 234              	.LVL31:
 235              	@ 115 "../../../test/testmbox.c" 1
 236 0166 FFF7FEFF 		bl      _port_unlock
 237              	@ 0 "" 2
 238              		.loc 1 116 0 discriminator 2
 239              	@ 116 "../../../test/testmbox.c" 1
 240 016a FFF7FEFF 		bl      _port_lock
 241              	@ 0 "" 2
 242              		.thumb
 243 016e FFF7FEFF 		bl	dbg_check_lock
 244              	.LVL32:
 245 0172 E968     		ldr	r1, [r5, #12]
 246 0174 AB68     		ldr	r3, [r5, #8]
 247 0176 B1EB030E 		subs	lr, r1, r3
 248 017a DEF10001 		rsbs	r1, lr, #0
 249 017e 51EB0E01 		adcs	r1, r1, lr
 250 0182 0A20     		movs	r0, #10
 251 0184 FFF7FEFF 		bl	_test_assert
 252              	.LVL33:
 253 0188 0028     		cmp	r0, #0
 254 018a 40F09682 		bne	.L25
 255 018e FFF7FEFF 		bl	dbg_check_unlock
 256              	.LVL34:
 257              	@ 116 "../../../test/testmbox.c" 1
 258 0192 FFF7FEFF 		bl      _port_unlock
 259              	@ 0 "" 2
 260              	.LVL35:
 261              		.thumb
 262 0196 0526     		movs	r6, #5
 263              	.LVL36:
 264              	.L10:
 265              		.loc 1 122 0
 266 0198 40F20004 		movw	r4, #:lower16:.LANCHOR0
 267 019c C0F20004 		movt	r4, #:upper16:.LANCHOR0
 268 01a0 01A9     		add	r1, sp, #4
 269 01a2 2046     		mov	r0, r4
 270 01a4 4FF0FF32 		mov	r2, #-1
 271 01a8 FFF7FEFF 		bl	chMBFetch
 272              	.LVL37:
 273              		.loc 1 123 0
 274 01ac D0F10101 		rsbs	r1, r0, #1
 275 01b0 38BF     		it	cc
 276 01b2 0021     		movcc	r1, #0
 277 01b4 0B20     		movs	r0, #11
 278              	.LVL38:
 279 01b6 FFF7FEFF 		bl	_test_assert
 280              	.LVL39:
 281 01ba 0028     		cmp	r0, #0
 282 01bc 7FF457AF 		bne	.L1
 283              		.loc 1 124 0
 284 01c0 9DF80400 		ldrb	r0, [sp, #4]	@ zero_extendqisi2
 285 01c4 FFF7FEFF 		bl	test_emit_token
ARM GAS  /tmp/ccZvnD1b.s 			page 6


 286              	.LVL40:
 287              		.loc 1 121 0
 288 01c8 013E     		subs	r6, r6, #1
 289              	.LVL41:
 290 01ca E5D1     		bne	.L10
 291              		.loc 1 126 0
 292 01cc 40F20001 		movw	r1, #:lower16:.LC0
 293 01d0 C0F20001 		movt	r1, #:upper16:.LC0
 294 01d4 0C20     		movs	r0, #12
 295 01d6 FFF7FEFF 		bl	_test_assert_sequence
 296              	.LVL42:
 297 01da 0028     		cmp	r0, #0
 298 01dc 7FF447AF 		bne	.L1
 299              		.loc 1 131 0
 300 01e0 4721     		movs	r1, #71
 301 01e2 2046     		mov	r0, r4
 302 01e4 4FF0FF32 		mov	r2, #-1
 303 01e8 FFF7FEFF 		bl	chMBPost
 304              	.LVL43:
 305              		.loc 1 132 0
 306 01ec D0F10101 		rsbs	r1, r0, #1
 307 01f0 38BF     		it	cc
 308 01f2 0021     		movcc	r1, #0
 309 01f4 0D20     		movs	r0, #13
 310              	.LVL44:
 311 01f6 FFF7FEFF 		bl	_test_assert
 312              	.LVL45:
 313 01fa 0028     		cmp	r0, #0
 314 01fc 7FF437AF 		bne	.L1
 315              		.loc 1 133 0
 316 0200 01A9     		add	r1, sp, #4
 317 0202 2046     		mov	r0, r4
 318 0204 4FF0FF32 		mov	r2, #-1
 319 0208 FFF7FEFF 		bl	chMBFetch
 320              	.LVL46:
 321              		.loc 1 134 0
 322 020c D0F10101 		rsbs	r1, r0, #1
 323 0210 38BF     		it	cc
 324 0212 0021     		movcc	r1, #0
 325 0214 0E20     		movs	r0, #14
 326              	.LVL47:
 327 0216 FFF7FEFF 		bl	_test_assert
 328              	.LVL48:
 329 021a 0028     		cmp	r0, #0
 330 021c 7FF427AF 		bne	.L1
 331              		.loc 1 135 0
 332 0220 2168     		ldr	r1, [r4]
 333 0222 A368     		ldr	r3, [r4, #8]
 334 0224 CE1A     		subs	r6, r1, r3
 335              	.LVL49:
 336 0226 7142     		rsbs	r1, r6, #0
 337 0228 7141     		adcs	r1, r1, r6
 338 022a 0F20     		movs	r0, #15
 339 022c FFF7FEFF 		bl	_test_assert
 340              	.LVL50:
 341 0230 0028     		cmp	r0, #0
 342 0232 7FF41CAF 		bne	.L1
ARM GAS  /tmp/ccZvnD1b.s 			page 7


 343              		.loc 1 136 0
 344 0236 2168     		ldr	r1, [r4]
 345 0238 E368     		ldr	r3, [r4, #12]
 346 023a CA1A     		subs	r2, r1, r3
 347 023c 5142     		rsbs	r1, r2, #0
 348 023e 5141     		adcs	r1, r1, r2
 349 0240 1020     		movs	r0, #16
 350 0242 FFF7FEFF 		bl	_test_assert
 351              	.LVL51:
 352 0246 0028     		cmp	r0, #0
 353 0248 7FF411AF 		bne	.L1
 354              		.loc 1 141 0
 355 024c 01A9     		add	r1, sp, #4
 356 024e 2046     		mov	r0, r4
 357 0250 0122     		movs	r2, #1
 358 0252 FFF7FEFF 		bl	chMBFetch
 359              	.LVL52:
 360              		.loc 1 142 0
 361 0256 B0F1FF33 		subs	r3, r0, #-1
 362 025a 5942     		rsbs	r1, r3, #0
 363 025c 5941     		adcs	r1, r1, r3
 364 025e 1120     		movs	r0, #17
 365              	.LVL53:
 366 0260 FFF7FEFF 		bl	_test_assert
 367              	.LVL54:
 368 0264 0028     		cmp	r0, #0
 369 0266 7FF402AF 		bne	.L1
 370              		.loc 1 143 0
 371              	@ 143 "../../../test/testmbox.c" 1
 372 026a FFF7FEFF 		bl      _port_lock
 373              	@ 0 "" 2
 374              		.thumb
 375 026e FFF7FEFF 		bl	dbg_check_lock
 376              	.LVL55:
 377              		.loc 1 144 0
 378 0272 40F20000 		movw	r0, #:lower16:.LANCHOR0
 379 0276 01A9     		add	r1, sp, #4
 380 0278 C0F20000 		movt	r0, #:upper16:.LANCHOR0
 381 027c FFF7FEFF 		bl	chMBFetchI
 382              	.LVL56:
 383 0280 0446     		mov	r4, r0
 384              	.LVL57:
 385              		.loc 1 145 0
 386 0282 FFF7FEFF 		bl	dbg_check_unlock
 387              	.LVL58:
 388              	@ 145 "../../../test/testmbox.c" 1
 389 0286 FFF7FEFF 		bl      _port_unlock
 390              	@ 0 "" 2
 391              		.loc 1 146 0
 392              		.thumb
 393 028a B4F1FF3C 		subs	ip, r4, #-1
 394 028e DCF10001 		rsbs	r1, ip, #0
 395 0292 51EB0C01 		adcs	r1, r1, ip
 396 0296 1220     		movs	r0, #18
 397 0298 FFF7FEFF 		bl	_test_assert
 398              	.LVL59:
 399 029c 0028     		cmp	r0, #0
ARM GAS  /tmp/ccZvnD1b.s 			page 8


 400 029e 7FF4E6AE 		bne	.L1
 401              		.loc 1 151 0
 402              	@ 151 "../../../test/testmbox.c" 1
 403 02a2 FFF7FEFF 		bl      _port_lock
 404              	@ 0 "" 2
 405              		.thumb
 406 02a6 FFF7FEFF 		bl	dbg_check_lock
 407              	.LVL60:
 408 02aa 696A     		ldr	r1, [r5, #36]
 409 02ac B1F1050E 		subs	lr, r1, #5
 410 02b0 DEF10001 		rsbs	r1, lr, #0
 411 02b4 51EB0E01 		adcs	r1, r1, lr
 412 02b8 1320     		movs	r0, #19
 413 02ba FFF7FEFF 		bl	_test_assert
 414              	.LVL61:
 415 02be 0028     		cmp	r0, #0
 416 02c0 40F0FB81 		bne	.L25
 417              		.loc 1 151 0 is_stmt 0 discriminator 2
 418 02c4 FFF7FEFF 		bl	dbg_check_unlock
 419              	.LVL62:
 420              	@ 151 "../../../test/testmbox.c" 1
 421 02c8 FFF7FEFF 		bl      _port_unlock
 422              	@ 0 "" 2
 423              		.loc 1 152 0 is_stmt 1 discriminator 2
 424              	@ 152 "../../../test/testmbox.c" 1
 425 02cc FFF7FEFF 		bl      _port_lock
 426              	@ 0 "" 2
 427              		.thumb
 428 02d0 FFF7FEFF 		bl	dbg_check_lock
 429              	.LVL63:
 430 02d4 A969     		ldr	r1, [r5, #24]
 431 02d6 D1F10101 		rsbs	r1, r1, #1
 432 02da 38BF     		it	cc
 433 02dc 0021     		movcc	r1, #0
 434 02de 1420     		movs	r0, #20
 435 02e0 FFF7FEFF 		bl	_test_assert
 436              	.LVL64:
 437 02e4 0028     		cmp	r0, #0
 438 02e6 40F0E881 		bne	.L25
 439 02ea FFF7FEFF 		bl	dbg_check_unlock
 440              	.LVL65:
 441              	@ 152 "../../../test/testmbox.c" 1
 442 02ee FFF7FEFF 		bl      _port_unlock
 443              	@ 0 "" 2
 444              		.loc 1 153 0 discriminator 2
 445              	@ 153 "../../../test/testmbox.c" 1
 446 02f2 FFF7FEFF 		bl      _port_lock
 447              	@ 0 "" 2
 448              		.thumb
 449 02f6 FFF7FEFF 		bl	dbg_check_lock
 450              	.LVL66:
 451 02fa E968     		ldr	r1, [r5, #12]
 452 02fc AB68     		ldr	r3, [r5, #8]
 453 02fe CE1A     		subs	r6, r1, r3
 454 0300 7142     		rsbs	r1, r6, #0
 455 0302 7141     		adcs	r1, r1, r6
 456 0304 1520     		movs	r0, #21
ARM GAS  /tmp/ccZvnD1b.s 			page 9


 457 0306 FFF7FEFF 		bl	_test_assert
 458              	.LVL67:
 459 030a 0028     		cmp	r0, #0
 460 030c 40F0D581 		bne	.L25
 461 0310 FFF7FEFF 		bl	dbg_check_unlock
 462              	.LVL68:
 463              	@ 153 "../../../test/testmbox.c" 1
 464 0314 FFF7FEFF 		bl      _port_unlock
 465              	@ 0 "" 2
 466              		.loc 1 158 0 discriminator 2
 467              	@ 158 "../../../test/testmbox.c" 1
 468 0318 FFF7FEFF 		bl      _port_lock
 469              	@ 0 "" 2
 470              		.thumb
 471 031c FFF7FEFF 		bl	dbg_check_lock
 472              	.LVL69:
 473              		.loc 1 159 0 discriminator 2
 474 0320 40F20000 		movw	r0, #:lower16:.LANCHOR0
 475 0324 4121     		movs	r1, #65
 476 0326 C0F20000 		movt	r0, #:upper16:.LANCHOR0
 477 032a FFF7FEFF 		bl	chMBPostI
 478              	.LVL70:
 479              		.loc 1 160 0 discriminator 2
 480 032e D0F10101 		rsbs	r1, r0, #1
 481 0332 38BF     		it	cc
 482 0334 0021     		movcc	r1, #0
 483 0336 1620     		movs	r0, #22
 484              	.LVL71:
 485 0338 FFF7FEFF 		bl	_test_assert
 486              	.LVL72:
 487 033c 0028     		cmp	r0, #0
 488 033e 7FF496AE 		bne	.L1
 489              		.loc 1 161 0
 490 0342 40F20000 		movw	r0, #:lower16:.LANCHOR0
 491 0346 4221     		movs	r1, #66
 492 0348 C0F20000 		movt	r0, #:upper16:.LANCHOR0
 493 034c FFF7FEFF 		bl	chMBPostI
 494              	.LVL73:
 495              		.loc 1 162 0
 496 0350 D0F10101 		rsbs	r1, r0, #1
 497 0354 38BF     		it	cc
 498 0356 0021     		movcc	r1, #0
 499 0358 1720     		movs	r0, #23
 500              	.LVL74:
 501 035a FFF7FEFF 		bl	_test_assert
 502              	.LVL75:
 503 035e 0028     		cmp	r0, #0
 504 0360 7FF485AE 		bne	.L1
 505              		.loc 1 163 0
 506 0364 40F20000 		movw	r0, #:lower16:.LANCHOR0
 507 0368 4321     		movs	r1, #67
 508 036a C0F20000 		movt	r0, #:upper16:.LANCHOR0
 509 036e FFF7FEFF 		bl	chMBPostI
 510              	.LVL76:
 511              		.loc 1 164 0
 512 0372 D0F10101 		rsbs	r1, r0, #1
 513 0376 38BF     		it	cc
ARM GAS  /tmp/ccZvnD1b.s 			page 10


 514 0378 0021     		movcc	r1, #0
 515 037a 1820     		movs	r0, #24
 516              	.LVL77:
 517 037c FFF7FEFF 		bl	_test_assert
 518              	.LVL78:
 519 0380 0028     		cmp	r0, #0
 520 0382 7FF474AE 		bne	.L1
 521              		.loc 1 165 0
 522 0386 40F20000 		movw	r0, #:lower16:.LANCHOR0
 523 038a 4421     		movs	r1, #68
 524 038c C0F20000 		movt	r0, #:upper16:.LANCHOR0
 525 0390 FFF7FEFF 		bl	chMBPostI
 526              	.LVL79:
 527              		.loc 1 166 0
 528 0394 D0F10101 		rsbs	r1, r0, #1
 529 0398 38BF     		it	cc
 530 039a 0021     		movcc	r1, #0
 531 039c 1920     		movs	r0, #25
 532              	.LVL80:
 533 039e FFF7FEFF 		bl	_test_assert
 534              	.LVL81:
 535 03a2 0028     		cmp	r0, #0
 536 03a4 7FF463AE 		bne	.L1
 537              		.loc 1 167 0
 538 03a8 40F20000 		movw	r0, #:lower16:.LANCHOR0
 539 03ac 4521     		movs	r1, #69
 540 03ae C0F20000 		movt	r0, #:upper16:.LANCHOR0
 541 03b2 FFF7FEFF 		bl	chMBPostI
 542              	.LVL82:
 543 03b6 0446     		mov	r4, r0
 544              	.LVL83:
 545              		.loc 1 168 0
 546 03b8 FFF7FEFF 		bl	dbg_check_unlock
 547              	.LVL84:
 548              	@ 168 "../../../test/testmbox.c" 1
 549 03bc FFF7FEFF 		bl      _port_unlock
 550              	@ 0 "" 2
 551              		.loc 1 169 0
 552              		.thumb
 553 03c0 D4F10101 		rsbs	r1, r4, #1
 554 03c4 38BF     		it	cc
 555 03c6 0021     		movcc	r1, #0
 556 03c8 1A20     		movs	r0, #26
 557 03ca FFF7FEFF 		bl	_test_assert
 558              	.LVL85:
 559 03ce 0028     		cmp	r0, #0
 560 03d0 7FF44DAE 		bne	.L1
 561              		.loc 1 170 0
 562 03d4 E968     		ldr	r1, [r5, #12]
 563 03d6 AB68     		ldr	r3, [r5, #8]
 564 03d8 CC1A     		subs	r4, r1, r3
 565              	.LVL86:
 566 03da 6142     		rsbs	r1, r4, #0
 567 03dc 6141     		adcs	r1, r1, r4
 568 03de 1B20     		movs	r0, #27
 569 03e0 FFF7FEFF 		bl	_test_assert
 570              	.LVL87:
ARM GAS  /tmp/ccZvnD1b.s 			page 11


 571 03e4 0028     		cmp	r0, #0
 572 03e6 7FF442AE 		bne	.L1
 573 03ea 0524     		movs	r4, #5
 574              	.L15:
 575              	.LVL88:
 576              		.loc 1 172 0
 577              	@ 172 "../../../test/testmbox.c" 1
 578 03ec FFF7FEFF 		bl      _port_lock
 579              	@ 0 "" 2
 580              		.thumb
 581 03f0 FFF7FEFF 		bl	dbg_check_lock
 582              	.LVL89:
 583              		.loc 1 173 0
 584 03f4 40F20000 		movw	r0, #:lower16:.LANCHOR0
 585 03f8 01A9     		add	r1, sp, #4
 586 03fa C0F20000 		movt	r0, #:upper16:.LANCHOR0
 587 03fe FFF7FEFF 		bl	chMBFetchI
 588              	.LVL90:
 589 0402 0646     		mov	r6, r0
 590              	.LVL91:
 591              		.loc 1 174 0
 592 0404 FFF7FEFF 		bl	dbg_check_unlock
 593              	.LVL92:
 594              	@ 174 "../../../test/testmbox.c" 1
 595 0408 FFF7FEFF 		bl      _port_unlock
 596              	@ 0 "" 2
 597              		.loc 1 175 0
 598              		.thumb
 599 040c D6F10101 		rsbs	r1, r6, #1
 600 0410 38BF     		it	cc
 601 0412 0021     		movcc	r1, #0
 602 0414 1C20     		movs	r0, #28
 603 0416 FFF7FEFF 		bl	_test_assert
 604              	.LVL93:
 605 041a 0028     		cmp	r0, #0
 606 041c 7FF427AE 		bne	.L1
 607              		.loc 1 176 0
 608 0420 9DF80400 		ldrb	r0, [sp, #4]	@ zero_extendqisi2
 609 0424 FFF7FEFF 		bl	test_emit_token
 610              	.LVL94:
 611              		.loc 1 171 0
 612 0428 013C     		subs	r4, r4, #1
 613              	.LVL95:
 614 042a DFD1     		bne	.L15
 615              		.loc 1 178 0
 616 042c 40F20001 		movw	r1, #:lower16:.LC0
 617 0430 C0F20001 		movt	r1, #:upper16:.LC0
 618 0434 1D20     		movs	r0, #29
 619 0436 FFF7FEFF 		bl	_test_assert_sequence
 620              	.LVL96:
 621 043a 0028     		cmp	r0, #0
 622 043c 7FF417AE 		bne	.L1
 623              		.loc 1 179 0
 624              	@ 179 "../../../test/testmbox.c" 1
 625 0440 FFF7FEFF 		bl      _port_lock
 626              	@ 0 "" 2
 627              		.thumb
ARM GAS  /tmp/ccZvnD1b.s 			page 12


 628 0444 FFF7FEFF 		bl	dbg_check_lock
 629              	.LVL97:
 630 0448 696A     		ldr	r1, [r5, #36]
 631 044a 4A1F     		subs	r2, r1, #5
 632 044c 5142     		rsbs	r1, r2, #0
 633 044e 5141     		adcs	r1, r1, r2
 634 0450 1E20     		movs	r0, #30
 635 0452 FFF7FEFF 		bl	_test_assert
 636              	.LVL98:
 637 0456 0028     		cmp	r0, #0
 638 0458 40F02F81 		bne	.L25
 639              		.loc 1 179 0 is_stmt 0 discriminator 2
 640 045c FFF7FEFF 		bl	dbg_check_unlock
 641              	.LVL99:
 642              	@ 179 "../../../test/testmbox.c" 1
 643 0460 FFF7FEFF 		bl      _port_unlock
 644              	@ 0 "" 2
 645              		.loc 1 180 0 is_stmt 1 discriminator 2
 646              	@ 180 "../../../test/testmbox.c" 1
 647 0464 FFF7FEFF 		bl      _port_lock
 648              	@ 0 "" 2
 649              		.thumb
 650 0468 FFF7FEFF 		bl	dbg_check_lock
 651              	.LVL100:
 652 046c A969     		ldr	r1, [r5, #24]
 653 046e D1F10101 		rsbs	r1, r1, #1
 654 0472 38BF     		it	cc
 655 0474 0021     		movcc	r1, #0
 656 0476 1F20     		movs	r0, #31
 657 0478 FFF7FEFF 		bl	_test_assert
 658              	.LVL101:
 659 047c 0028     		cmp	r0, #0
 660 047e 40F01C81 		bne	.L25
 661 0482 FFF7FEFF 		bl	dbg_check_unlock
 662              	.LVL102:
 663              	@ 180 "../../../test/testmbox.c" 1
 664 0486 FFF7FEFF 		bl      _port_unlock
 665              	@ 0 "" 2
 666              		.loc 1 181 0 discriminator 2
 667              		.thumb
 668 048a E968     		ldr	r1, [r5, #12]
 669 048c AB68     		ldr	r3, [r5, #8]
 670 048e CB1A     		subs	r3, r1, r3
 671 0490 5942     		rsbs	r1, r3, #0
 672 0492 5941     		adcs	r1, r1, r3
 673 0494 2020     		movs	r0, #32
 674 0496 FFF7FEFF 		bl	_test_assert
 675              	.LVL103:
 676 049a 0028     		cmp	r0, #0
 677 049c 7FF4E7AD 		bne	.L1
 678              		.loc 1 183 0
 679              	@ 183 "../../../test/testmbox.c" 1
 680 04a0 FFF7FEFF 		bl      _port_lock
 681              	@ 0 "" 2
 682              		.thumb
 683 04a4 FFF7FEFF 		bl	dbg_check_lock
 684              	.LVL104:
ARM GAS  /tmp/ccZvnD1b.s 			page 13


 685              		.loc 1 184 0
 686 04a8 40F20000 		movw	r0, #:lower16:.LANCHOR0
 687 04ac 4521     		movs	r1, #69
 688 04ae C0F20000 		movt	r0, #:upper16:.LANCHOR0
 689 04b2 FFF7FEFF 		bl	chMBPostAheadI
 690              	.LVL105:
 691              		.loc 1 185 0
 692 04b6 D0F10101 		rsbs	r1, r0, #1
 693 04ba 38BF     		it	cc
 694 04bc 0021     		movcc	r1, #0
 695 04be 2120     		movs	r0, #33
 696              	.LVL106:
 697 04c0 FFF7FEFF 		bl	_test_assert
 698              	.LVL107:
 699 04c4 0028     		cmp	r0, #0
 700 04c6 7FF4D2AD 		bne	.L1
 701              		.loc 1 186 0
 702 04ca 40F20000 		movw	r0, #:lower16:.LANCHOR0
 703 04ce 4421     		movs	r1, #68
 704 04d0 C0F20000 		movt	r0, #:upper16:.LANCHOR0
 705 04d4 FFF7FEFF 		bl	chMBPostAheadI
 706              	.LVL108:
 707              		.loc 1 187 0
 708 04d8 D0F10101 		rsbs	r1, r0, #1
 709 04dc 38BF     		it	cc
 710 04de 0021     		movcc	r1, #0
 711 04e0 2220     		movs	r0, #34
 712              	.LVL109:
 713 04e2 FFF7FEFF 		bl	_test_assert
 714              	.LVL110:
 715 04e6 0028     		cmp	r0, #0
 716 04e8 7FF4C1AD 		bne	.L1
 717              		.loc 1 188 0
 718 04ec 40F20000 		movw	r0, #:lower16:.LANCHOR0
 719 04f0 4321     		movs	r1, #67
 720 04f2 C0F20000 		movt	r0, #:upper16:.LANCHOR0
 721 04f6 FFF7FEFF 		bl	chMBPostAheadI
 722              	.LVL111:
 723              		.loc 1 189 0
 724 04fa D0F10101 		rsbs	r1, r0, #1
 725 04fe 38BF     		it	cc
 726 0500 0021     		movcc	r1, #0
 727 0502 2320     		movs	r0, #35
 728              	.LVL112:
 729 0504 FFF7FEFF 		bl	_test_assert
 730              	.LVL113:
 731 0508 0028     		cmp	r0, #0
 732 050a 7FF4B0AD 		bne	.L1
 733              		.loc 1 190 0
 734 050e 40F20000 		movw	r0, #:lower16:.LANCHOR0
 735 0512 4221     		movs	r1, #66
 736 0514 C0F20000 		movt	r0, #:upper16:.LANCHOR0
 737 0518 FFF7FEFF 		bl	chMBPostAheadI
 738              	.LVL114:
 739              		.loc 1 191 0
 740 051c D0F10101 		rsbs	r1, r0, #1
 741 0520 38BF     		it	cc
ARM GAS  /tmp/ccZvnD1b.s 			page 14


 742 0522 0021     		movcc	r1, #0
 743 0524 2420     		movs	r0, #36
 744              	.LVL115:
 745 0526 FFF7FEFF 		bl	_test_assert
 746              	.LVL116:
 747 052a 0028     		cmp	r0, #0
 748 052c 7FF49FAD 		bne	.L1
 749              		.loc 1 192 0
 750 0530 40F20000 		movw	r0, #:lower16:.LANCHOR0
 751 0534 4121     		movs	r1, #65
 752 0536 C0F20000 		movt	r0, #:upper16:.LANCHOR0
 753 053a FFF7FEFF 		bl	chMBPostAheadI
 754              	.LVL117:
 755 053e 0446     		mov	r4, r0
 756              	.LVL118:
 757              		.loc 1 193 0
 758 0540 FFF7FEFF 		bl	dbg_check_unlock
 759              	.LVL119:
 760              	@ 193 "../../../test/testmbox.c" 1
 761 0544 FFF7FEFF 		bl      _port_unlock
 762              	@ 0 "" 2
 763              		.loc 1 194 0
 764              		.thumb
 765 0548 D4F10101 		rsbs	r1, r4, #1
 766 054c 38BF     		it	cc
 767 054e 0021     		movcc	r1, #0
 768 0550 2520     		movs	r0, #37
 769 0552 FFF7FEFF 		bl	_test_assert
 770              	.LVL120:
 771 0556 0028     		cmp	r0, #0
 772 0558 7FF489AD 		bne	.L1
 773              		.loc 1 195 0
 774 055c E968     		ldr	r1, [r5, #12]
 775 055e AB68     		ldr	r3, [r5, #8]
 776 0560 B1EB030C 		subs	ip, r1, r3
 777 0564 DCF10001 		rsbs	r1, ip, #0
 778 0568 51EB0C01 		adcs	r1, r1, ip
 779 056c 2620     		movs	r0, #38
 780 056e FFF7FEFF 		bl	_test_assert
 781              	.LVL121:
 782 0572 0028     		cmp	r0, #0
 783 0574 7FF47BAD 		bne	.L1
 784 0578 0524     		movs	r4, #5
 785              	.LVL122:
 786              	.L19:
 787              		.loc 1 197 0
 788              	@ 197 "../../../test/testmbox.c" 1
 789 057a FFF7FEFF 		bl      _port_lock
 790              	@ 0 "" 2
 791              		.thumb
 792 057e FFF7FEFF 		bl	dbg_check_lock
 793              	.LVL123:
 794              		.loc 1 198 0
 795 0582 40F20000 		movw	r0, #:lower16:.LANCHOR0
 796 0586 01A9     		add	r1, sp, #4
 797 0588 C0F20000 		movt	r0, #:upper16:.LANCHOR0
 798 058c FFF7FEFF 		bl	chMBFetchI
ARM GAS  /tmp/ccZvnD1b.s 			page 15


 799              	.LVL124:
 800 0590 0646     		mov	r6, r0
 801              	.LVL125:
 802              		.loc 1 199 0
 803 0592 FFF7FEFF 		bl	dbg_check_unlock
 804              	.LVL126:
 805              	@ 199 "../../../test/testmbox.c" 1
 806 0596 FFF7FEFF 		bl      _port_unlock
 807              	@ 0 "" 2
 808              		.loc 1 200 0
 809              		.thumb
 810 059a D6F10101 		rsbs	r1, r6, #1
 811 059e 38BF     		it	cc
 812 05a0 0021     		movcc	r1, #0
 813 05a2 2720     		movs	r0, #39
 814 05a4 FFF7FEFF 		bl	_test_assert
 815              	.LVL127:
 816 05a8 0028     		cmp	r0, #0
 817 05aa 7FF460AD 		bne	.L1
 818              		.loc 1 201 0
 819 05ae 9DF80400 		ldrb	r0, [sp, #4]	@ zero_extendqisi2
 820 05b2 FFF7FEFF 		bl	test_emit_token
 821              	.LVL128:
 822              		.loc 1 196 0
 823 05b6 013C     		subs	r4, r4, #1
 824              	.LVL129:
 825 05b8 DFD1     		bne	.L19
 826              		.loc 1 203 0
 827 05ba 40F20001 		movw	r1, #:lower16:.LC0
 828 05be C0F20001 		movt	r1, #:upper16:.LC0
 829 05c2 2820     		movs	r0, #40
 830 05c4 FFF7FEFF 		bl	_test_assert_sequence
 831              	.LVL130:
 832 05c8 0028     		cmp	r0, #0
 833 05ca 7FF450AD 		bne	.L1
 834              		.loc 1 204 0
 835              	@ 204 "../../../test/testmbox.c" 1
 836 05ce FFF7FEFF 		bl      _port_lock
 837              	@ 0 "" 2
 838              		.thumb
 839 05d2 FFF7FEFF 		bl	dbg_check_lock
 840              	.LVL131:
 841 05d6 696A     		ldr	r1, [r5, #36]
 842 05d8 B1F1050E 		subs	lr, r1, #5
 843 05dc DEF10001 		rsbs	r1, lr, #0
 844 05e0 51EB0E01 		adcs	r1, r1, lr
 845 05e4 2920     		movs	r0, #41
 846 05e6 FFF7FEFF 		bl	_test_assert
 847              	.LVL132:
 848 05ea 0028     		cmp	r0, #0
 849 05ec 65D1     		bne	.L25
 850              		.loc 1 204 0 is_stmt 0 discriminator 2
 851 05ee FFF7FEFF 		bl	dbg_check_unlock
 852              	.LVL133:
 853              	@ 204 "../../../test/testmbox.c" 1
 854 05f2 FFF7FEFF 		bl      _port_unlock
 855              	@ 0 "" 2
ARM GAS  /tmp/ccZvnD1b.s 			page 16


 856              		.loc 1 205 0 is_stmt 1 discriminator 2
 857              	@ 205 "../../../test/testmbox.c" 1
 858 05f6 FFF7FEFF 		bl      _port_lock
 859              	@ 0 "" 2
 860              		.thumb
 861 05fa FFF7FEFF 		bl	dbg_check_lock
 862              	.LVL134:
 863 05fe A969     		ldr	r1, [r5, #24]
 864 0600 D1F10101 		rsbs	r1, r1, #1
 865 0604 38BF     		it	cc
 866 0606 0021     		movcc	r1, #0
 867 0608 2A20     		movs	r0, #42
 868 060a FFF7FEFF 		bl	_test_assert
 869              	.LVL135:
 870 060e 0028     		cmp	r0, #0
 871 0610 53D1     		bne	.L25
 872 0612 FFF7FEFF 		bl	dbg_check_unlock
 873              	.LVL136:
 874              	@ 205 "../../../test/testmbox.c" 1
 875 0616 FFF7FEFF 		bl      _port_unlock
 876              	@ 0 "" 2
 877              		.loc 1 206 0 discriminator 2
 878              		.thumb
 879 061a E968     		ldr	r1, [r5, #12]
 880 061c AB68     		ldr	r3, [r5, #8]
 881 061e CE1A     		subs	r6, r1, r3
 882              	.LVL137:
 883 0620 7142     		rsbs	r1, r6, #0
 884 0622 7141     		adcs	r1, r1, r6
 885 0624 2B20     		movs	r0, #43
 886 0626 FFF7FEFF 		bl	_test_assert
 887              	.LVL138:
 888 062a 0028     		cmp	r0, #0
 889 062c 7FF41FAD 		bne	.L1
 890              		.loc 1 211 0
 891 0630 40F20000 		movw	r0, #:lower16:.LANCHOR0
 892 0634 C0F20000 		movt	r0, #:upper16:.LANCHOR0
 893 0638 FFF7FEFF 		bl	chMBReset
 894              	.LVL139:
 895              		.loc 1 216 0
 896              	@ 216 "../../../test/testmbox.c" 1
 897 063c FFF7FEFF 		bl      _port_lock
 898              	@ 0 "" 2
 899              		.thumb
 900 0640 FFF7FEFF 		bl	dbg_check_lock
 901              	.LVL140:
 902 0644 696A     		ldr	r1, [r5, #36]
 903 0646 4C1F     		subs	r4, r1, #5
 904              	.LVL141:
 905 0648 6142     		rsbs	r1, r4, #0
 906 064a 6141     		adcs	r1, r1, r4
 907 064c 2C20     		movs	r0, #44
 908 064e FFF7FEFF 		bl	_test_assert
 909              	.LVL142:
 910 0652 90BB     		cbnz	r0, .L25
 911              		.loc 1 216 0 is_stmt 0 discriminator 2
 912 0654 FFF7FEFF 		bl	dbg_check_unlock
ARM GAS  /tmp/ccZvnD1b.s 			page 17


 913              	.LVL143:
 914              	@ 216 "../../../test/testmbox.c" 1
 915 0658 FFF7FEFF 		bl      _port_unlock
 916              	@ 0 "" 2
 917              		.loc 1 217 0 is_stmt 1 discriminator 2
 918              	@ 217 "../../../test/testmbox.c" 1
 919 065c FFF7FEFF 		bl      _port_lock
 920              	@ 0 "" 2
 921              		.thumb
 922 0660 FFF7FEFF 		bl	dbg_check_lock
 923              	.LVL144:
 924 0664 A969     		ldr	r1, [r5, #24]
 925 0666 D1F10101 		rsbs	r1, r1, #1
 926 066a 38BF     		it	cc
 927 066c 0021     		movcc	r1, #0
 928 066e 2D20     		movs	r0, #45
 929 0670 FFF7FEFF 		bl	_test_assert
 930              	.LVL145:
 931 0674 08BB     		cbnz	r0, .L25
 932 0676 FFF7FEFF 		bl	dbg_check_unlock
 933              	.LVL146:
 934              	@ 217 "../../../test/testmbox.c" 1
 935 067a FFF7FEFF 		bl      _port_unlock
 936              	@ 0 "" 2
 937              		.loc 1 218 0 discriminator 2
 938              	@ 218 "../../../test/testmbox.c" 1
 939 067e FFF7FEFF 		bl      _port_lock
 940              	@ 0 "" 2
 941              		.thumb
 942 0682 FFF7FEFF 		bl	dbg_check_lock
 943              	.LVL147:
 944 0686 2968     		ldr	r1, [r5]
 945 0688 AB68     		ldr	r3, [r5, #8]
 946 068a CA1A     		subs	r2, r1, r3
 947 068c 5142     		rsbs	r1, r2, #0
 948 068e 5141     		adcs	r1, r1, r2
 949 0690 2E20     		movs	r0, #46
 950 0692 FFF7FEFF 		bl	_test_assert
 951              	.LVL148:
 952 0696 80B9     		cbnz	r0, .L25
 953 0698 FFF7FEFF 		bl	dbg_check_unlock
 954              	.LVL149:
 955              	@ 218 "../../../test/testmbox.c" 1
 956 069c FFF7FEFF 		bl      _port_unlock
 957              	@ 0 "" 2
 958              		.loc 1 219 0 discriminator 2
 959              	@ 219 "../../../test/testmbox.c" 1
 960 06a0 FFF7FEFF 		bl      _port_lock
 961              	@ 0 "" 2
 962              		.thumb
 963 06a4 FFF7FEFF 		bl	dbg_check_lock
 964              	.LVL150:
 965 06a8 2968     		ldr	r1, [r5]
 966 06aa EB68     		ldr	r3, [r5, #12]
 967 06ac CB1A     		subs	r3, r1, r3
 968 06ae 5942     		rsbs	r1, r3, #0
 969 06b0 4FF02F00 		mov	r0, #47
ARM GAS  /tmp/ccZvnD1b.s 			page 18


 970 06b4 5941     		adcs	r1, r1, r3
 971 06b6 FFF7FEFF 		bl	_test_assert
 972              	.LVL151:
 973              	.L25:
 974 06ba FFF7FEFF 		bl	dbg_check_unlock
 975              	.LVL152:
 976              	@ 219 "../../../test/testmbox.c" 1
 977 06be FFF7FEFF 		bl      _port_unlock
 978              	@ 0 "" 2
 979              		.thumb
 980 06c2 D4E4     		b	.L1
 981              		.cfi_endproc
 982              	.LFE1:
 983              		.size	mbox1_execute, .-mbox1_execute
 984 06c4 AFF30080 		.section	.text.mbox1_setup,"ax",%progbits
 984      AFF30080 
 984      AFF30080 
 985              		.align	2
 986              		.p2align 4,,15
 987              		.thumb
 988              		.thumb_func
 989              		.type	mbox1_setup, %function
 990              	mbox1_setup:
 991              	.LFB0:
 992              		.loc 1 71 0
 993              		.cfi_startproc
 994              		@ args = 0, pretend = 0, frame = 0
 995              		@ frame_needed = 0, uses_anonymous_args = 0
 996              		@ link register save eliminated.
 997              		.loc 1 73 0
 998 0000 40F20000 		movw	r0, #:lower16:.LANCHOR0
 999 0004 40F20001 		movw	r1, #:lower16:test
 1000 0008 C0F20000 		movt	r0, #:upper16:.LANCHOR0
 1001 000c C0F20001 		movt	r1, #:upper16:test
 1002 0010 0522     		movs	r2, #5
 1003 0012 FFF7FEBF 		b	chMBInit
 1004              	.LVL153:
 1005              		.cfi_endproc
 1006              	.LFE0:
 1007              		.size	mbox1_setup, .-mbox1_setup
 1008              		.global	patternmbox
 1009              		.global	testmbox1
 1010              		.section	.data.mb1,"aw",%progbits
 1011              		.align	2
 1012              		.set	.LANCHOR0,. + 0
 1013              		.type	mb1, %object
 1014              		.size	mb1, 40
 1015              	mb1:
 1016 0000 00000000 		.word	test
 1017 0004 14000000 		.word	test+20
 1018 0008 00000000 		.word	test
 1019 000c 00000000 		.word	test
 1020 0010 10000000 		.word	mb1+16
 1021 0014 10000000 		.word	mb1+16
 1022 0018 00000000 		.word	0
 1023 001c 1C000000 		.word	mb1+28
 1024 0020 1C000000 		.word	mb1+28
ARM GAS  /tmp/ccZvnD1b.s 			page 19


 1025 0024 05000000 		.word	5
 1026              		.section	.rodata.patternmbox,"a",%progbits
 1027              		.align	2
 1028              		.type	patternmbox, %object
 1029              		.size	patternmbox, 8
 1030              	patternmbox:
 1031 0000 00000000 		.word	testmbox1
 1032 0004 00000000 		.word	0
 1033              		.section	.rodata.str1.4,"aMS",%progbits,1
 1034              		.align	2
 1035              	.LC0:
 1036 0000 41424344 		.ascii	"ABCDE\000"
 1036      4500
 1037 0006 0000     		.space	2
 1038              	.LC1:
 1039 0008 4D61696C 		.ascii	"Mailboxes, queuing and timeouts\000"
 1039      626F7865 
 1039      732C2071 
 1039      75657569 
 1039      6E672061 
 1040              		.section	.rodata.testmbox1,"a",%progbits
 1041              		.align	2
 1042              		.type	testmbox1, %object
 1043              		.size	testmbox1, 16
 1044              	testmbox1:
 1045 0000 08000000 		.word	.LC1
 1046 0004 00000000 		.word	mbox1_setup
 1047 0008 00000000 		.word	0
 1048 000c 00000000 		.word	mbox1_execute
 1049              		.text
 1050              	.Letext0:
 1051              		.file 2 "/usr/arm-none-eabi/include/machine/_default_types.h"
 1052              		.file 3 "/usr/arm-none-eabi/include/stdint.h"
 1053              		.file 4 "../../../os/ports/GCC/ARMCMx/chtypes.h"
 1054              		.file 5 "../../../os/kernel/include/chlists.h"
 1055              		.file 6 "../../../os/kernel/include/chthreads.h"
 1056              		.file 7 "../../../os/ports/GCC/ARMCMx/chcore_v7m.h"
 1057              		.file 8 "../../../os/kernel/include/chsem.h"
 1058              		.file 9 "../../../os/kernel/include/chmtx.h"
 1059              		.file 10 "../../../os/kernel/include/chmboxes.h"
 1060              		.file 11 "../../../test/test.h"
 1061              		.file 12 "../../../os/kernel/include/chdebug.h"