ARM GAS  /tmp/ccNeolZB.s 			page 1


   1              		.syntax unified
   2              		.cpu cortex-m4
   3              		.fpu softvfp
   4              		.eabi_attribute 20, 1
   5              		.eabi_attribute 21, 1
   6              		.eabi_attribute 23, 3
   7              		.eabi_attribute 24, 1
   8              		.eabi_attribute 25, 1
   9              		.eabi_attribute 26, 1
  10              		.eabi_attribute 30, 2
  11              		.eabi_attribute 34, 1
  12              		.eabi_attribute 18, 4
  13              		.thumb
  14              		.file	"testqueues.c"
  15              		.text
  16              	.Ltext0:
  17              		.cfi_sections	.debug_frame
  18              		.section	.text.notify,"ax",%progbits
  19              		.align	2
  20              		.p2align 4,,15
  21              		.thumb
  22              		.thumb_func
  23              		.type	notify, %function
  24              	notify:
  25              	.LFB0:
  26              		.file 1 "../../../test/testqueues.c"
  27              		.loc 1 57 0
  28              		.cfi_startproc
  29              		@ args = 0, pretend = 0, frame = 0
  30              		@ frame_needed = 0, uses_anonymous_args = 0
  31              		@ link register save eliminated.
  32              	.LVL0:
  33 0000 7047     		bx	lr
  34              		.cfi_endproc
  35              	.LFE0:
  36              		.size	notify, .-notify
  37 0002 00BFAFF3 		.section	.text.thread1,"ax",%progbits
  37      0080AFF3 
  37      0080AFF3 
  37      0080
  38              		.align	2
  39              		.p2align 4,,15
  40              		.thumb
  41              		.thumb_func
  42              		.type	thread1, %function
  43              	thread1:
  44              	.LFB2:
  45              		.loc 1 83 0
  46              		.cfi_startproc
  47              		@ args = 0, pretend = 0, frame = 0
  48              		@ frame_needed = 0, uses_anonymous_args = 0
  49              	.LVL1:
  50              		.loc 1 83 0
  51 0000 08B5     		push	{r3, lr}
  52              		.cfi_def_cfa_offset 8
  53              		.cfi_offset 3, -8
  54              		.cfi_offset 14, -4
ARM GAS  /tmp/ccNeolZB.s 			page 2


  55              		.loc 1 86 0
  56 0002 40F20000 		movw	r0, #:lower16:.LANCHOR0
  57              	.LVL2:
  58 0006 C821     		movs	r1, #200
  59 0008 C0F20000 		movt	r0, #:upper16:.LANCHOR0
  60 000c FFF7FEFF 		bl	chIQGetTimeout
  61              	.LVL3:
  62              		.loc 1 88 0
  63 0010 0020     		movs	r0, #0
  64 0012 08BD     		pop	{r3, pc}
  65              		.cfi_endproc
  66              	.LFE2:
  67              		.size	thread1, .-thread1
  68 0014 AFF30080 		.section	.text.queues1_setup,"ax",%progbits
  68      AFF30080 
  68      AFF30080 
  69              		.align	2
  70              		.p2align 4,,15
  71              		.thumb
  72              		.thumb_func
  73              		.type	queues1_setup, %function
  74              	queues1_setup:
  75              	.LFB1:
  76              		.loc 1 78 0
  77              		.cfi_startproc
  78              		@ args = 0, pretend = 0, frame = 0
  79              		@ frame_needed = 0, uses_anonymous_args = 0
  80 0000 00B5     		push	{lr}
  81              		.cfi_def_cfa_offset 4
  82              		.cfi_offset 14, -4
  83              		.loc 1 80 0
  84 0002 40F20003 		movw	r3, #:lower16:wa
  85 0006 C0F20003 		movt	r3, #:upper16:wa
  86              		.loc 1 78 0
  87 000a 83B0     		sub	sp, sp, #12
  88              		.cfi_def_cfa_offset 16
  89              		.loc 1 80 0
  90 000c 1968     		ldr	r1, [r3]
  91 000e 0022     		movs	r2, #0
  92 0010 40F20000 		movw	r0, #:lower16:.LANCHOR0
  93 0014 40F20003 		movw	r3, #:lower16:notify
  94 0018 0092     		str	r2, [sp]
  95 001a C0F20000 		movt	r0, #:upper16:.LANCHOR0
  96 001e C0F20003 		movt	r3, #:upper16:notify
  97 0022 0422     		movs	r2, #4
  98 0024 FFF7FEFF 		bl	chIQInit
  99              	.LVL4:
 100              		.loc 1 81 0
 101 0028 03B0     		add	sp, sp, #12
 102              		@ sp needed
 103 002a 5DF804FB 		ldr	pc, [sp], #4
 104              		.cfi_endproc
 105              	.LFE1:
 106              		.size	queues1_setup, .-queues1_setup
 107 002e 00BF     		.section	.text.thread2,"ax",%progbits
 108              		.align	2
 109              		.p2align 4,,15
ARM GAS  /tmp/ccNeolZB.s 			page 3


 110              		.thumb
 111              		.thumb_func
 112              		.type	thread2, %function
 113              	thread2:
 114              	.LFB5:
 115              		.loc 1 170 0
 116              		.cfi_startproc
 117              		@ args = 0, pretend = 0, frame = 0
 118              		@ frame_needed = 0, uses_anonymous_args = 0
 119              	.LVL5:
 120 0000 08B5     		push	{r3, lr}
 121              		.cfi_def_cfa_offset 8
 122              		.cfi_offset 3, -8
 123              		.cfi_offset 14, -4
 124              		.loc 1 173 0
 125 0002 40F20000 		movw	r0, #:lower16:.LANCHOR1
 126              	.LVL6:
 127 0006 0021     		movs	r1, #0
 128 0008 C822     		movs	r2, #200
 129 000a C0F20000 		movt	r0, #:upper16:.LANCHOR1
 130 000e FFF7FEFF 		bl	chOQPutTimeout
 131              	.LVL7:
 132              		.loc 1 175 0
 133 0012 0020     		movs	r0, #0
 134 0014 08BD     		pop	{r3, pc}
 135              		.cfi_endproc
 136              	.LFE5:
 137              		.size	thread2, .-thread2
 138 0016 00BFAFF3 		.section	.text.queues2_setup,"ax",%progbits
 138      0080AFF3 
 138      0080
 139              		.align	2
 140              		.p2align 4,,15
 141              		.thumb
 142              		.thumb_func
 143              		.type	queues2_setup, %function
 144              	queues2_setup:
 145              	.LFB4:
 146              		.loc 1 165 0
 147              		.cfi_startproc
 148              		@ args = 0, pretend = 0, frame = 0
 149              		@ frame_needed = 0, uses_anonymous_args = 0
 150 0000 00B5     		push	{lr}
 151              		.cfi_def_cfa_offset 4
 152              		.cfi_offset 14, -4
 153              		.loc 1 167 0
 154 0002 40F20003 		movw	r3, #:lower16:wa
 155 0006 C0F20003 		movt	r3, #:upper16:wa
 156              		.loc 1 165 0
 157 000a 83B0     		sub	sp, sp, #12
 158              		.cfi_def_cfa_offset 16
 159              		.loc 1 167 0
 160 000c 1968     		ldr	r1, [r3]
 161 000e 0022     		movs	r2, #0
 162 0010 40F20000 		movw	r0, #:lower16:.LANCHOR1
 163 0014 40F20003 		movw	r3, #:lower16:notify
 164 0018 0092     		str	r2, [sp]
ARM GAS  /tmp/ccNeolZB.s 			page 4


 165 001a C0F20000 		movt	r0, #:upper16:.LANCHOR1
 166 001e C0F20003 		movt	r3, #:upper16:notify
 167 0022 0422     		movs	r2, #4
 168 0024 FFF7FEFF 		bl	chOQInit
 169              	.LVL8:
 170              		.loc 1 168 0
 171 0028 03B0     		add	sp, sp, #12
 172              		@ sp needed
 173 002a 5DF804FB 		ldr	pc, [sp], #4
 174              		.cfi_endproc
 175              	.LFE4:
 176              		.size	queues2_setup, .-queues2_setup
 177 002e 00BF     		.section	.text.queues1_execute,"ax",%progbits
 178              		.align	2
 179              		.p2align 4,,15
 180              		.thumb
 181              		.thumb_func
 182              		.type	queues1_execute, %function
 183              	queues1_execute:
 184              	.LFB3:
 185              		.loc 1 90 0
 186              		.cfi_startproc
 187              		@ args = 0, pretend = 0, frame = 0
 188              		@ frame_needed = 0, uses_anonymous_args = 0
 189 0000 70B5     		push	{r4, r5, r6, lr}
 190              		.cfi_def_cfa_offset 16
 191              		.cfi_offset 4, -16
 192              		.cfi_offset 5, -12
 193              		.cfi_offset 6, -8
 194              		.cfi_offset 14, -4
 195 0002 82B0     		sub	sp, sp, #8
 196              		.cfi_def_cfa_offset 24
 197              		.loc 1 95 0
 198              	@ 95 "../../../test/testqueues.c" 1
 199 0004 FFF7FEFF 		bl      _port_lock
 200              	@ 0 "" 2
 201              		.thumb
 202 0008 40F20005 		movw	r5, #:lower16:.LANCHOR0
 203 000c C0F20005 		movt	r5, #:upper16:.LANCHOR0
 204 0010 FFF7FEFF 		bl	dbg_check_lock
 205              	.LVL9:
 206 0014 A968     		ldr	r1, [r5, #8]
 207 0016 D1F10101 		rsbs	r1, r1, #1
 208 001a 4FF00100 		mov	r0, #1
 209 001e 38BF     		it	cc
 210 0020 0021     		movcc	r1, #0
 211 0022 FFF7FEFF 		bl	_test_assert
 212              	.LVL10:
 213 0026 0646     		mov	r6, r0
 214 0028 0028     		cmp	r0, #0
 215 002a 40F05D81 		bne	.L27
 216              	.LBB5:
 217              	.LBB6:
 218 002e FFF7FEFF 		bl	dbg_check_unlock
 219              	.LVL11:
 220              	@ 95 "../../../test/testqueues.c" 1
 221 0032 FFF7FEFF 		bl      _port_unlock
ARM GAS  /tmp/ccNeolZB.s 			page 5


 222              	@ 0 "" 2
 223              		.loc 1 98 0
 224              	@ 98 "../../../test/testqueues.c" 1
 225 0036 FFF7FEFF 		bl      _port_lock
 226              	@ 0 "" 2
 227              		.thumb
 228 003a FFF7FEFF 		bl	dbg_check_lock
 229              	.LVL12:
 230 003e 4124     		movs	r4, #65
 231              	.LVL13:
 232              	.L10:
 233              		.loc 1 100 0
 234 0040 2146     		mov	r1, r4
 235 0042 40F20000 		movw	r0, #:lower16:.LANCHOR0
 236 0046 0134     		adds	r4, r4, #1
 237 0048 C0F20000 		movt	r0, #:upper16:.LANCHOR0
 238 004c E4B2     		uxtb	r4, r4
 239 004e FFF7FEFF 		bl	chIQPutI
 240              	.LVL14:
 241              		.loc 1 99 0
 242 0052 452C     		cmp	r4, #69
 243 0054 F4D1     		bne	.L10
 244              		.loc 1 101 0
 245 0056 FFF7FEFF 		bl	dbg_check_unlock
 246              	.LVL15:
 247              	@ 101 "../../../test/testqueues.c" 1
 248 005a FFF7FEFF 		bl      _port_unlock
 249              	@ 0 "" 2
 250              		.loc 1 102 0
 251              	@ 102 "../../../test/testqueues.c" 1
 252 005e FFF7FEFF 		bl      _port_lock
 253              	@ 0 "" 2
 254              		.thumb
 255 0062 FFF7FEFF 		bl	dbg_check_lock
 256              	.LVL16:
 257 0066 6969     		ldr	r1, [r5, #20]
 258 0068 AA69     		ldr	r2, [r5, #24]
 259 006a 40F20003 		movw	r3, #:lower16:.LANCHOR0
 260 006e 9142     		cmp	r1, r2
 261 0070 C0F20003 		movt	r3, #:upper16:.LANCHOR0
 262 0074 00F03E81 		beq	.L29
 263              	.L11:
 264 0078 3146     		mov	r1, r6
 265 007a 0220     		movs	r0, #2
 266 007c FFF7FEFF 		bl	_test_assert
 267              	.LVL17:
 268 0080 0028     		cmp	r0, #0
 269 0082 40F03181 		bne	.L27
 270 0086 FFF7FEFF 		bl	dbg_check_unlock
 271              	.LVL18:
 272              	@ 102 "../../../test/testqueues.c" 1
 273 008a FFF7FEFF 		bl      _port_unlock
 274              	@ 0 "" 2
 275              		.loc 1 103 0
 276              	@ 103 "../../../test/testqueues.c" 1
 277 008e FFF7FEFF 		bl      _port_lock
 278              	@ 0 "" 2
ARM GAS  /tmp/ccNeolZB.s 			page 6


 279              		.thumb
 280 0092 FFF7FEFF 		bl	dbg_check_lock
 281              	.LVL19:
 282 0096 40F20000 		movw	r0, #:lower16:.LANCHOR0
 283 009a 0021     		movs	r1, #0
 284 009c C0F20000 		movt	r0, #:upper16:.LANCHOR0
 285 00a0 FFF7FEFF 		bl	chIQPutI
 286              	.LVL20:
 287 00a4 0430     		adds	r0, r0, #4
 288 00a6 14BF     		ite	ne
 289 00a8 0021     		movne	r1, #0
 290 00aa 0121     		moveq	r1, #1
 291 00ac 0320     		movs	r0, #3
 292 00ae FFF7FEFF 		bl	_test_assert
 293              	.LVL21:
 294 00b2 0028     		cmp	r0, #0
 295 00b4 40F01881 		bne	.L27
 296 00b8 FFF7FEFF 		bl	dbg_check_unlock
 297              	.LVL22:
 298              	@ 103 "../../../test/testqueues.c" 1
 299 00bc FFF7FEFF 		bl      _port_unlock
 300              	@ 0 "" 2
 301              	.LVL23:
 302              		.thumb
 303 00c0 0424     		movs	r4, #4
 304              	.LVL24:
 305              	.L15:
 306              		.loc 1 107 0
 307 00c2 40F20000 		movw	r0, #:lower16:.LANCHOR0
 308 00c6 4FF0FF31 		mov	r1, #-1
 309 00ca C0F20000 		movt	r0, #:upper16:.LANCHOR0
 310 00ce FFF7FEFF 		bl	chIQGetTimeout
 311              	.LVL25:
 312 00d2 C0B2     		uxtb	r0, r0
 313 00d4 FFF7FEFF 		bl	test_emit_token
 314              	.LVL26:
 315              		.loc 1 106 0
 316 00d8 013C     		subs	r4, r4, #1
 317              	.LVL27:
 318 00da F2D1     		bne	.L15
 319              		.loc 1 108 0
 320              	@ 108 "../../../test/testqueues.c" 1
 321 00dc FFF7FEFF 		bl      _port_lock
 322              	@ 0 "" 2
 323              		.thumb
 324 00e0 FFF7FEFF 		bl	dbg_check_lock
 325              	.LVL28:
 326 00e4 A968     		ldr	r1, [r5, #8]
 327 00e6 D1F10101 		rsbs	r1, r1, #1
 328 00ea 38BF     		it	cc
 329 00ec 0021     		movcc	r1, #0
 330 00ee 0420     		movs	r0, #4
 331 00f0 FFF7FEFF 		bl	_test_assert
 332              	.LVL29:
 333 00f4 0028     		cmp	r0, #0
 334 00f6 40F0F780 		bne	.L27
 335 00fa FFF7FEFF 		bl	dbg_check_unlock
ARM GAS  /tmp/ccNeolZB.s 			page 7


 336              	.LVL30:
 337              	@ 108 "../../../test/testqueues.c" 1
 338 00fe FFF7FEFF 		bl      _port_unlock
 339              	@ 0 "" 2
 340              		.loc 1 109 0
 341              		.thumb
 342 0102 40F20001 		movw	r1, #:lower16:.LC0
 343 0106 C0F20001 		movt	r1, #:upper16:.LC0
 344 010a 0520     		movs	r0, #5
 345 010c FFF7FEFF 		bl	_test_assert_sequence
 346              	.LVL31:
 347 0110 0028     		cmp	r0, #0
 348 0112 40F0ED80 		bne	.L6
 349              		.loc 1 112 0
 350              	@ 112 "../../../test/testqueues.c" 1
 351 0116 FFF7FEFF 		bl      _port_lock
 352              	@ 0 "" 2
 353              		.thumb
 354 011a FFF7FEFF 		bl	dbg_check_lock
 355              	.LVL32:
 356 011e 4124     		movs	r4, #65
 357              	.LVL33:
 358              	.L19:
 359              		.loc 1 114 0
 360 0120 2146     		mov	r1, r4
 361 0122 40F20000 		movw	r0, #:lower16:.LANCHOR0
 362 0126 0134     		adds	r4, r4, #1
 363 0128 C0F20000 		movt	r0, #:upper16:.LANCHOR0
 364 012c E4B2     		uxtb	r4, r4
 365 012e FFF7FEFF 		bl	chIQPutI
 366              	.LVL34:
 367              		.loc 1 113 0
 368 0132 452C     		cmp	r4, #69
 369 0134 F4D1     		bne	.L19
 370              		.loc 1 115 0
 371 0136 FFF7FEFF 		bl	dbg_check_unlock
 372              	.LVL35:
 373              	@ 115 "../../../test/testqueues.c" 1
 374 013a FFF7FEFF 		bl      _port_unlock
 375              	@ 0 "" 2
 376              		.loc 1 118 0
 377              		.thumb
 378 013e 40F20004 		movw	r4, #:lower16:wa
 379 0142 C0F20004 		movt	r4, #:upper16:wa
 380 0146 40F20000 		movw	r0, #:lower16:.LANCHOR0
 381 014a 6168     		ldr	r1, [r4, #4]
 382 014c C0F20000 		movt	r0, #:upper16:.LANCHOR0
 383 0150 0822     		movs	r2, #8
 384 0152 0023     		movs	r3, #0
 385 0154 FFF7FEFF 		bl	chIQReadTimeout
 386              	.LVL36:
 387              		.loc 1 119 0
 388 0158 061F     		subs	r6, r0, #4
 389 015a 7142     		rsbs	r1, r6, #0
 390 015c 7141     		adcs	r1, r1, r6
 391 015e 0620     		movs	r0, #6
 392              	.LVL37:
ARM GAS  /tmp/ccNeolZB.s 			page 8


 393 0160 FFF7FEFF 		bl	_test_assert
 394              	.LVL38:
 395 0164 0028     		cmp	r0, #0
 396 0166 40F0C380 		bne	.L6
 397              		.loc 1 120 0
 398              	@ 120 "../../../test/testqueues.c" 1
 399 016a FFF7FEFF 		bl      _port_lock
 400              	@ 0 "" 2
 401              		.thumb
 402 016e FFF7FEFF 		bl	dbg_check_lock
 403              	.LVL39:
 404 0172 A968     		ldr	r1, [r5, #8]
 405 0174 D1F10101 		rsbs	r1, r1, #1
 406 0178 38BF     		it	cc
 407 017a 0021     		movcc	r1, #0
 408 017c 0720     		movs	r0, #7
 409 017e FFF7FEFF 		bl	_test_assert
 410              	.LVL40:
 411 0182 0028     		cmp	r0, #0
 412 0184 40F0B080 		bne	.L27
 413 0188 FFF7FEFF 		bl	dbg_check_unlock
 414              	.LVL41:
 415              	@ 120 "../../../test/testqueues.c" 1
 416 018c FFF7FEFF 		bl      _port_unlock
 417              	@ 0 "" 2
 418              		.loc 1 123 0
 419              	@ 123 "../../../test/testqueues.c" 1
 420 0190 FFF7FEFF 		bl      _port_lock
 421              	@ 0 "" 2
 422              		.thumb
 423 0194 FFF7FEFF 		bl	dbg_check_lock
 424              	.LVL42:
 425 0198 4126     		movs	r6, #65
 426              	.LVL43:
 427              	.L23:
 428              		.loc 1 125 0
 429 019a 3146     		mov	r1, r6
 430 019c 40F20000 		movw	r0, #:lower16:.LANCHOR0
 431 01a0 0136     		adds	r6, r6, #1
 432 01a2 C0F20000 		movt	r0, #:upper16:.LANCHOR0
 433 01a6 F6B2     		uxtb	r6, r6
 434 01a8 FFF7FEFF 		bl	chIQPutI
 435              	.LVL44:
 436              		.loc 1 124 0
 437 01ac 452E     		cmp	r6, #69
 438 01ae F4D1     		bne	.L23
 439              		.loc 1 126 0
 440 01b0 FFF7FEFF 		bl	dbg_check_unlock
 441              	.LVL45:
 442              	@ 126 "../../../test/testqueues.c" 1
 443 01b4 FFF7FEFF 		bl      _port_unlock
 444              	@ 0 "" 2
 445              		.loc 1 129 0
 446              		.thumb
 447 01b8 6668     		ldr	r6, [r4, #4]
 448 01ba 40F20000 		movw	r0, #:lower16:.LANCHOR0
 449 01be 0023     		movs	r3, #0
ARM GAS  /tmp/ccNeolZB.s 			page 9


 450 01c0 3146     		mov	r1, r6
 451 01c2 0222     		movs	r2, #2
 452 01c4 C0F20000 		movt	r0, #:upper16:.LANCHOR0
 453 01c8 FFF7FEFF 		bl	chIQReadTimeout
 454              	.LVL46:
 455              		.loc 1 130 0
 456 01cc 0238     		subs	r0, r0, #2
 457              	.LVL47:
 458 01ce 4142     		rsbs	r1, r0, #0
 459 01d0 4141     		adcs	r1, r1, r0
 460 01d2 0820     		movs	r0, #8
 461              	.LVL48:
 462 01d4 FFF7FEFF 		bl	_test_assert
 463              	.LVL49:
 464 01d8 0346     		mov	r3, r0
 465 01da 0028     		cmp	r0, #0
 466 01dc 40F08880 		bne	.L6
 467              		.loc 1 131 0
 468 01e0 40F20000 		movw	r0, #:lower16:.LANCHOR0
 469 01e4 3146     		mov	r1, r6
 470 01e6 0222     		movs	r2, #2
 471 01e8 C0F20000 		movt	r0, #:upper16:.LANCHOR0
 472 01ec FFF7FEFF 		bl	chIQReadTimeout
 473              	.LVL50:
 474              		.loc 1 132 0
 475 01f0 821E     		subs	r2, r0, #2
 476 01f2 5142     		rsbs	r1, r2, #0
 477 01f4 5141     		adcs	r1, r1, r2
 478 01f6 0920     		movs	r0, #9
 479              	.LVL51:
 480 01f8 FFF7FEFF 		bl	_test_assert
 481              	.LVL52:
 482 01fc 0028     		cmp	r0, #0
 483 01fe 77D1     		bne	.L6
 484              		.loc 1 133 0
 485              	@ 133 "../../../test/testqueues.c" 1
 486 0200 FFF7FEFF 		bl      _port_lock
 487              	@ 0 "" 2
 488              		.thumb
 489 0204 FFF7FEFF 		bl	dbg_check_lock
 490              	.LVL53:
 491 0208 A968     		ldr	r1, [r5, #8]
 492 020a D1F10101 		rsbs	r1, r1, #1
 493 020e 38BF     		it	cc
 494 0210 0021     		movcc	r1, #0
 495 0212 0A20     		movs	r0, #10
 496 0214 FFF7FEFF 		bl	_test_assert
 497              	.LVL54:
 498 0218 0028     		cmp	r0, #0
 499 021a 65D1     		bne	.L27
 500 021c FFF7FEFF 		bl	dbg_check_unlock
 501              	.LVL55:
 502              	@ 133 "../../../test/testqueues.c" 1
 503 0220 FFF7FEFF 		bl      _port_unlock
 504              	@ 0 "" 2
 505              		.loc 1 136 0
 506              	@ 136 "../../../test/testqueues.c" 1
ARM GAS  /tmp/ccNeolZB.s 			page 10


 507 0224 FFF7FEFF 		bl      _port_lock
 508              	@ 0 "" 2
 509              		.thumb
 510 0228 FFF7FEFF 		bl	dbg_check_lock
 511              	.LVL56:
 512              		.loc 1 137 0
 513 022c 40F20000 		movw	r0, #:lower16:.LANCHOR0
 514 0230 0021     		movs	r1, #0
 515 0232 C0F20000 		movt	r0, #:upper16:.LANCHOR0
 516 0236 FFF7FEFF 		bl	chIQPutI
 517              	.LVL57:
 518              		.loc 1 138 0
 519 023a 40F20000 		movw	r0, #:lower16:.LANCHOR0
 520 023e C0F20000 		movt	r0, #:upper16:.LANCHOR0
 521 0242 FFF7FEFF 		bl	chIQResetI
 522              	.LVL58:
 523              		.loc 1 139 0
 524 0246 FFF7FEFF 		bl	dbg_check_unlock
 525              	.LVL59:
 526              	@ 139 "../../../test/testqueues.c" 1
 527 024a FFF7FEFF 		bl      _port_unlock
 528              	@ 0 "" 2
 529              		.loc 1 140 0
 530              	@ 140 "../../../test/testqueues.c" 1
 531 024e FFF7FEFF 		bl      _port_lock
 532              	@ 0 "" 2
 533              		.thumb
 534 0252 FFF7FEFF 		bl	dbg_check_lock
 535              	.LVL60:
 536 0256 A968     		ldr	r1, [r5, #8]
 537 0258 D1F10101 		rsbs	r1, r1, #1
 538 025c 38BF     		it	cc
 539 025e 0021     		movcc	r1, #0
 540 0260 0B20     		movs	r0, #11
 541 0262 FFF7FEFF 		bl	_test_assert
 542              	.LVL61:
 543 0266 0028     		cmp	r0, #0
 544 0268 3ED1     		bne	.L27
 545 026a FFF7FEFF 		bl	dbg_check_unlock
 546              	.LVL62:
 547              	@ 140 "../../../test/testqueues.c" 1
 548 026e FFF7FEFF 		bl      _port_unlock
 549              	@ 0 "" 2
 550              		.loc 1 141 0
 551              		.thumb
 552 0272 40F20003 		movw	r3, #:lower16:rlist
 553 0276 C0F20003 		movt	r3, #:upper16:rlist
 554 027a 0021     		movs	r1, #0
 555 027c 9B69     		ldr	r3, [r3, #24]
 556 027e 2068     		ldr	r0, [r4]
 557 0280 9A68     		ldr	r2, [r3, #8]
 558 0282 0091     		str	r1, [sp]
 559 0284 40F20003 		movw	r3, #:lower16:thread1
 560 0288 0132     		adds	r2, r2, #1
 561 028a C0F20003 		movt	r3, #:upper16:thread1
 562 028e 4FF49871 		mov	r1, #304
 563 0292 FFF7FEFF 		bl	chThdCreateStatic
ARM GAS  /tmp/ccNeolZB.s 			page 11


 564              	.LVL63:
 565 0296 40F20003 		movw	r3, #:lower16:threads
 566 029a C0F20003 		movt	r3, #:upper16:threads
 567 029e 1860     		str	r0, [r3]
 568              		.loc 1 142 0
 569              	@ 142 "../../../test/testqueues.c" 1
 570 02a0 FFF7FEFF 		bl      _port_lock
 571              	@ 0 "" 2
 572              		.thumb
 573 02a4 FFF7FEFF 		bl	dbg_check_lock
 574              	.LVL64:
 575 02a8 A968     		ldr	r1, [r5, #8]
 576 02aa D1F10101 		rsbs	r1, r1, #1
 577 02ae 38BF     		it	cc
 578 02b0 0021     		movcc	r1, #0
 579 02b2 0C20     		movs	r0, #12
 580 02b4 FFF7FEFF 		bl	_test_assert
 581              	.LVL65:
 582 02b8 B0B9     		cbnz	r0, .L27
 583 02ba FFF7FEFF 		bl	dbg_check_unlock
 584              	.LVL66:
 585              	@ 142 "../../../test/testqueues.c" 1
 586 02be FFF7FEFF 		bl      _port_unlock
 587              	@ 0 "" 2
 588              		.loc 1 143 0
 589              		.thumb
 590 02c2 FFF7FEFF 		bl	test_wait_threads
 591              	.LVL67:
 592              		.loc 1 146 0
 593 02c6 40F20000 		movw	r0, #:lower16:.LANCHOR0
 594 02ca 0A21     		movs	r1, #10
 595 02cc C0F20000 		movt	r0, #:upper16:.LANCHOR0
 596 02d0 FFF7FEFF 		bl	chIQGetTimeout
 597              	.LVL68:
 598 02d4 B0F1FF33 		subs	r3, r0, #-1
 599 02d8 5942     		rsbs	r1, r3, #0
 600 02da 5941     		adcs	r1, r1, r3
 601 02dc 0D20     		movs	r0, #13
 602              	.LBE6:
 603              	.LBE5:
 604              		.loc 1 147 0
 605 02de 02B0     		add	sp, sp, #8
 606              		@ sp needed
 607 02e0 BDE87040 		pop	{r4, r5, r6, lr}
 608              	.LBB9:
 609              	.LBB7:
 610              		.loc 1 146 0
 611 02e4 FFF7FEBF 		b	_test_assert
 612              	.LVL69:
 613              	.L27:
 614              		.loc 1 142 0
 615 02e8 FFF7FEFF 		bl	dbg_check_unlock
 616              	.LVL70:
 617              	@ 142 "../../../test/testqueues.c" 1
 618 02ec FFF7FEFF 		bl      _port_unlock
 619              	@ 0 "" 2
 620              		.thumb
ARM GAS  /tmp/ccNeolZB.s 			page 12


 621              	.L6:
 622              	.LBE7:
 623              	.LBE9:
 624              		.loc 1 147 0
 625 02f0 02B0     		add	sp, sp, #8
 626              		@ sp needed
 627 02f2 70BD     		pop	{r4, r5, r6, pc}
 628              	.L29:
 629              	.LBB10:
 630              	.LBB8:
 631              		.loc 1 102 0
 632 02f4 9E68     		ldr	r6, [r3, #8]
 633 02f6 0036     		adds	r6, r6, #0
 634 02f8 18BF     		it	ne
 635 02fa 0126     		movne	r6, #1
 636 02fc BCE6     		b	.L11
 637              	.LBE8:
 638              	.LBE10:
 639              		.cfi_endproc
 640              	.LFE3:
 641              		.size	queues1_execute, .-queues1_execute
 642              		.section	.text.queues2_execute,"ax",%progbits
 643              		.align	2
 644              		.p2align 4,,15
 645              		.thumb
 646              		.thumb_func
 647              		.type	queues2_execute, %function
 648              	queues2_execute:
 649              	.LFB6:
 650              		.loc 1 177 0
 651              		.cfi_startproc
 652              		@ args = 0, pretend = 0, frame = 0
 653              		@ frame_needed = 0, uses_anonymous_args = 0
 654 0000 F0B5     		push	{r4, r5, r6, r7, lr}
 655              		.cfi_def_cfa_offset 20
 656              		.cfi_offset 4, -20
 657              		.cfi_offset 5, -16
 658              		.cfi_offset 6, -12
 659              		.cfi_offset 7, -8
 660              		.cfi_offset 14, -4
 661 0002 83B0     		sub	sp, sp, #12
 662              		.cfi_def_cfa_offset 32
 663              		.loc 1 182 0
 664              	@ 182 "../../../test/testqueues.c" 1
 665 0004 FFF7FEFF 		bl      _port_lock
 666              	@ 0 "" 2
 667              		.thumb
 668 0008 40F20005 		movw	r5, #:lower16:.LANCHOR1
 669 000c C0F20005 		movt	r5, #:upper16:.LANCHOR1
 670 0010 FFF7FEFF 		bl	dbg_check_lock
 671              	.LVL71:
 672 0014 6A69     		ldr	r2, [r5, #20]
 673 0016 AB69     		ldr	r3, [r5, #24]
 674 0018 9A42     		cmp	r2, r3
 675 001a 18BF     		it	ne
 676 001c 0021     		movne	r1, #0
 677 001e 00F04581 		beq	.L50
ARM GAS  /tmp/ccNeolZB.s 			page 13


 678              	.L31:
 679              		.loc 1 182 0 is_stmt 0 discriminator 4
 680 0022 0120     		movs	r0, #1
 681 0024 FFF7FEFF 		bl	_test_assert
 682              	.LVL72:
 683 0028 0028     		cmp	r0, #0
 684 002a 40F03981 		bne	.L49
 685              	.LBB14:
 686              	.LBB15:
 687              		.loc 1 182 0
 688 002e FFF7FEFF 		bl	dbg_check_unlock
 689              	.LVL73:
 690              	@ 182 "../../../test/testqueues.c" 1
 691 0032 FFF7FEFF 		bl      _port_unlock
 692              	@ 0 "" 2
 693              	.LVL74:
 694              		.thumb
 695 0036 4124     		movs	r4, #65
 696              	.LVL75:
 697              	.L35:
 698              		.loc 1 186 0 is_stmt 1
 699 0038 2146     		mov	r1, r4
 700 003a 40F20000 		movw	r0, #:lower16:.LANCHOR1
 701 003e 0134     		adds	r4, r4, #1
 702 0040 C0F20000 		movt	r0, #:upper16:.LANCHOR1
 703 0044 4FF0FF32 		mov	r2, #-1
 704 0048 E4B2     		uxtb	r4, r4
 705 004a FFF7FEFF 		bl	chOQPutTimeout
 706              	.LVL76:
 707              		.loc 1 185 0
 708 004e 452C     		cmp	r4, #69
 709 0050 F2D1     		bne	.L35
 710              		.loc 1 187 0
 711              	@ 187 "../../../test/testqueues.c" 1
 712 0052 FFF7FEFF 		bl      _port_lock
 713              	@ 0 "" 2
 714              		.thumb
 715 0056 FFF7FEFF 		bl	dbg_check_lock
 716              	.LVL77:
 717 005a A968     		ldr	r1, [r5, #8]
 718 005c D1F10101 		rsbs	r1, r1, #1
 719 0060 4FF00200 		mov	r0, #2
 720 0064 38BF     		it	cc
 721 0066 0021     		movcc	r1, #0
 722 0068 FFF7FEFF 		bl	_test_assert
 723              	.LVL78:
 724 006c 0746     		mov	r7, r0
 725 006e 0028     		cmp	r0, #0
 726 0070 40F01681 		bne	.L49
 727 0074 FFF7FEFF 		bl	dbg_check_unlock
 728              	.LVL79:
 729              	@ 187 "../../../test/testqueues.c" 1
 730 0078 FFF7FEFF 		bl      _port_unlock
 731              	@ 0 "" 2
 732              	.LVL80:
 733              		.thumb
 734 007c 0424     		movs	r4, #4
ARM GAS  /tmp/ccNeolZB.s 			page 14


 735              	.LVL81:
 736              	.L38:
 737              	.LBB16:
 738              		.loc 1 193 0
 739              	@ 193 "../../../test/testqueues.c" 1
 740 007e FFF7FEFF 		bl      _port_lock
 741              	@ 0 "" 2
 742              		.thumb
 743 0082 FFF7FEFF 		bl	dbg_check_lock
 744              	.LVL82:
 745              		.loc 1 194 0
 746 0086 40F20000 		movw	r0, #:lower16:.LANCHOR1
 747 008a C0F20000 		movt	r0, #:upper16:.LANCHOR1
 748 008e FFF7FEFF 		bl	chOQGetI
 749              	.LVL83:
 750 0092 0646     		mov	r6, r0
 751              	.LVL84:
 752              		.loc 1 195 0
 753 0094 FFF7FEFF 		bl	dbg_check_unlock
 754              	.LVL85:
 755              	@ 195 "../../../test/testqueues.c" 1
 756 0098 FFF7FEFF 		bl      _port_unlock
 757              	@ 0 "" 2
 758              		.loc 1 196 0
 759              		.thumb
 760 009c F0B2     		uxtb	r0, r6
 761 009e FFF7FEFF 		bl	test_emit_token
 762              	.LVL86:
 763              	.LBE16:
 764              		.loc 1 190 0
 765 00a2 013C     		subs	r4, r4, #1
 766              	.LVL87:
 767 00a4 EBD1     		bne	.L38
 768              		.loc 1 198 0
 769              	@ 198 "../../../test/testqueues.c" 1
 770 00a6 FFF7FEFF 		bl      _port_lock
 771              	@ 0 "" 2
 772              		.thumb
 773 00aa FFF7FEFF 		bl	dbg_check_lock
 774              	.LVL88:
 775 00ae 6969     		ldr	r1, [r5, #20]
 776 00b0 AA69     		ldr	r2, [r5, #24]
 777 00b2 40F20003 		movw	r3, #:lower16:.LANCHOR1
 778 00b6 9142     		cmp	r1, r2
 779 00b8 C0F20003 		movt	r3, #:upper16:.LANCHOR1
 780 00bc 00F0FB80 		beq	.L51
 781              	.L39:
 782 00c0 3946     		mov	r1, r7
 783 00c2 0320     		movs	r0, #3
 784 00c4 FFF7FEFF 		bl	_test_assert
 785              	.LVL89:
 786 00c8 0028     		cmp	r0, #0
 787 00ca 40F0E980 		bne	.L49
 788 00ce FFF7FEFF 		bl	dbg_check_unlock
 789              	.LVL90:
 790              	@ 198 "../../../test/testqueues.c" 1
 791 00d2 FFF7FEFF 		bl      _port_unlock
ARM GAS  /tmp/ccNeolZB.s 			page 15


 792              	@ 0 "" 2
 793              		.loc 1 199 0
 794              		.thumb
 795 00d6 40F20001 		movw	r1, #:lower16:.LC0
 796 00da C0F20001 		movt	r1, #:upper16:.LC0
 797 00de 0420     		movs	r0, #4
 798 00e0 FFF7FEFF 		bl	_test_assert_sequence
 799              	.LVL91:
 800 00e4 0028     		cmp	r0, #0
 801 00e6 40F0DF80 		bne	.L30
 802              		.loc 1 200 0
 803              	@ 200 "../../../test/testqueues.c" 1
 804 00ea FFF7FEFF 		bl      _port_lock
 805              	@ 0 "" 2
 806              		.thumb
 807 00ee FFF7FEFF 		bl	dbg_check_lock
 808              	.LVL92:
 809 00f2 40F20000 		movw	r0, #:lower16:.LANCHOR1
 810 00f6 C0F20000 		movt	r0, #:upper16:.LANCHOR1
 811 00fa FFF7FEFF 		bl	chOQGetI
 812              	.LVL93:
 813 00fe 0330     		adds	r0, r0, #3
 814 0100 14BF     		ite	ne
 815 0102 0021     		movne	r1, #0
 816 0104 0121     		moveq	r1, #1
 817 0106 0520     		movs	r0, #5
 818 0108 FFF7FEFF 		bl	_test_assert
 819              	.LVL94:
 820 010c 0028     		cmp	r0, #0
 821 010e 40F0C780 		bne	.L49
 822 0112 FFF7FEFF 		bl	dbg_check_unlock
 823              	.LVL95:
 824              	@ 200 "../../../test/testqueues.c" 1
 825 0116 FFF7FEFF 		bl      _port_unlock
 826              	@ 0 "" 2
 827              		.loc 1 203 0
 828              		.thumb
 829 011a 40F20004 		movw	r4, #:lower16:wa
 830              	.LVL96:
 831 011e C0F20004 		movt	r4, #:upper16:wa
 832 0122 40F20000 		movw	r0, #:lower16:.LANCHOR1
 833 0126 6168     		ldr	r1, [r4, #4]
 834 0128 C0F20000 		movt	r0, #:upper16:.LANCHOR1
 835 012c 0822     		movs	r2, #8
 836 012e 0023     		movs	r3, #0
 837 0130 FFF7FEFF 		bl	chOQWriteTimeout
 838              	.LVL97:
 839              		.loc 1 204 0
 840 0134 0438     		subs	r0, r0, #4
 841              	.LVL98:
 842 0136 4142     		rsbs	r1, r0, #0
 843 0138 4141     		adcs	r1, r1, r0
 844 013a 0620     		movs	r0, #6
 845              	.LVL99:
 846 013c FFF7FEFF 		bl	_test_assert
 847              	.LVL100:
 848 0140 0028     		cmp	r0, #0
ARM GAS  /tmp/ccNeolZB.s 			page 16


 849 0142 40F0B180 		bne	.L30
 850              		.loc 1 205 0
 851              	@ 205 "../../../test/testqueues.c" 1
 852 0146 FFF7FEFF 		bl      _port_lock
 853              	@ 0 "" 2
 854              		.thumb
 855 014a FFF7FEFF 		bl	dbg_check_lock
 856              	.LVL101:
 857 014e A968     		ldr	r1, [r5, #8]
 858 0150 D1F10101 		rsbs	r1, r1, #1
 859 0154 38BF     		it	cc
 860 0156 0021     		movcc	r1, #0
 861 0158 0720     		movs	r0, #7
 862 015a FFF7FEFF 		bl	_test_assert
 863              	.LVL102:
 864 015e 0028     		cmp	r0, #0
 865 0160 40F09E80 		bne	.L49
 866 0164 FFF7FEFF 		bl	dbg_check_unlock
 867              	.LVL103:
 868              	@ 205 "../../../test/testqueues.c" 1
 869 0168 FFF7FEFF 		bl      _port_unlock
 870              	@ 0 "" 2
 871              		.loc 1 206 0
 872              		.thumb
 873 016c 40F20003 		movw	r3, #:lower16:rlist
 874 0170 C0F20003 		movt	r3, #:upper16:rlist
 875 0174 0021     		movs	r1, #0
 876 0176 9B69     		ldr	r3, [r3, #24]
 877 0178 2068     		ldr	r0, [r4]
 878 017a 9A68     		ldr	r2, [r3, #8]
 879 017c 0091     		str	r1, [sp]
 880 017e 40F20003 		movw	r3, #:lower16:thread2
 881 0182 0132     		adds	r2, r2, #1
 882 0184 C0F20003 		movt	r3, #:upper16:thread2
 883 0188 4FF49871 		mov	r1, #304
 884 018c FFF7FEFF 		bl	chThdCreateStatic
 885              	.LVL104:
 886 0190 40F20003 		movw	r3, #:lower16:threads
 887 0194 C0F20003 		movt	r3, #:upper16:threads
 888 0198 1860     		str	r0, [r3]
 889              		.loc 1 207 0
 890              	@ 207 "../../../test/testqueues.c" 1
 891 019a FFF7FEFF 		bl      _port_lock
 892              	@ 0 "" 2
 893              		.thumb
 894 019e FFF7FEFF 		bl	dbg_check_lock
 895              	.LVL105:
 896 01a2 2969     		ldr	r1, [r5, #16]
 897 01a4 EA68     		ldr	r2, [r5, #12]
 898 01a6 AB68     		ldr	r3, [r5, #8]
 899 01a8 8A1A     		subs	r2, r1, r2
 900 01aa D11A     		subs	r1, r2, r3
 901 01ac 0A1F     		subs	r2, r1, #4
 902 01ae 5142     		rsbs	r1, r2, #0
 903 01b0 5141     		adcs	r1, r1, r2
 904 01b2 0820     		movs	r0, #8
 905 01b4 FFF7FEFF 		bl	_test_assert
ARM GAS  /tmp/ccNeolZB.s 			page 17


 906              	.LVL106:
 907 01b8 0028     		cmp	r0, #0
 908 01ba 71D1     		bne	.L49
 909 01bc FFF7FEFF 		bl	dbg_check_unlock
 910              	.LVL107:
 911              	@ 207 "../../../test/testqueues.c" 1
 912 01c0 FFF7FEFF 		bl      _port_unlock
 913              	@ 0 "" 2
 914              		.loc 1 208 0
 915              		.thumb
 916 01c4 FFF7FEFF 		bl	test_wait_threads
 917              	.LVL108:
 918              		.loc 1 211 0
 919              	@ 211 "../../../test/testqueues.c" 1
 920 01c8 FFF7FEFF 		bl      _port_lock
 921              	@ 0 "" 2
 922              		.thumb
 923 01cc FFF7FEFF 		bl	dbg_check_lock
 924              	.LVL109:
 925              		.loc 1 212 0
 926 01d0 40F20000 		movw	r0, #:lower16:.LANCHOR1
 927 01d4 C0F20000 		movt	r0, #:upper16:.LANCHOR1
 928 01d8 FFF7FEFF 		bl	chOQResetI
 929              	.LVL110:
 930              		.loc 1 213 0
 931 01dc FFF7FEFF 		bl	dbg_check_unlock
 932              	.LVL111:
 933              	@ 213 "../../../test/testqueues.c" 1
 934 01e0 FFF7FEFF 		bl      _port_unlock
 935              	@ 0 "" 2
 936              		.loc 1 214 0
 937              	@ 214 "../../../test/testqueues.c" 1
 938 01e4 FFF7FEFF 		bl      _port_lock
 939              	@ 0 "" 2
 940              		.thumb
 941 01e8 FFF7FEFF 		bl	dbg_check_lock
 942              	.LVL112:
 943 01ec 2969     		ldr	r1, [r5, #16]
 944 01ee EA68     		ldr	r2, [r5, #12]
 945 01f0 AB68     		ldr	r3, [r5, #8]
 946 01f2 891A     		subs	r1, r1, r2
 947 01f4 CB1A     		subs	r3, r1, r3
 948 01f6 5942     		rsbs	r1, r3, #0
 949 01f8 5941     		adcs	r1, r1, r3
 950 01fa 0920     		movs	r0, #9
 951 01fc FFF7FEFF 		bl	_test_assert
 952              	.LVL113:
 953 0200 0028     		cmp	r0, #0
 954 0202 4DD1     		bne	.L49
 955 0204 FFF7FEFF 		bl	dbg_check_unlock
 956              	.LVL114:
 957              	@ 214 "../../../test/testqueues.c" 1
 958 0208 FFF7FEFF 		bl      _port_unlock
 959              	@ 0 "" 2
 960              		.loc 1 217 0
 961              		.thumb
 962 020c 6468     		ldr	r4, [r4, #4]
ARM GAS  /tmp/ccNeolZB.s 			page 18


 963 020e 40F20000 		movw	r0, #:lower16:.LANCHOR1
 964 0212 0023     		movs	r3, #0
 965 0214 2146     		mov	r1, r4
 966 0216 0222     		movs	r2, #2
 967 0218 C0F20000 		movt	r0, #:upper16:.LANCHOR1
 968 021c FFF7FEFF 		bl	chOQWriteTimeout
 969              	.LVL115:
 970              		.loc 1 218 0
 971 0220 B0F1020C 		subs	ip, r0, #2
 972 0224 DCF10001 		rsbs	r1, ip, #0
 973 0228 51EB0C01 		adcs	r1, r1, ip
 974 022c 0A20     		movs	r0, #10
 975              	.LVL116:
 976 022e FFF7FEFF 		bl	_test_assert
 977              	.LVL117:
 978 0232 0346     		mov	r3, r0
 979 0234 C0BB     		cbnz	r0, .L30
 980              		.loc 1 219 0
 981 0236 40F20000 		movw	r0, #:lower16:.LANCHOR1
 982 023a 2146     		mov	r1, r4
 983 023c C0F20000 		movt	r0, #:upper16:.LANCHOR1
 984 0240 0222     		movs	r2, #2
 985 0242 FFF7FEFF 		bl	chOQWriteTimeout
 986              	.LVL118:
 987              		.loc 1 220 0
 988 0246 B0F1020E 		subs	lr, r0, #2
 989 024a DEF10001 		rsbs	r1, lr, #0
 990 024e 51EB0E01 		adcs	r1, r1, lr
 991 0252 0B20     		movs	r0, #11
 992              	.LVL119:
 993 0254 FFF7FEFF 		bl	_test_assert
 994              	.LVL120:
 995 0258 30BB     		cbnz	r0, .L30
 996              		.loc 1 221 0
 997              	@ 221 "../../../test/testqueues.c" 1
 998 025a FFF7FEFF 		bl      _port_lock
 999              	@ 0 "" 2
 1000              		.thumb
 1001 025e FFF7FEFF 		bl	dbg_check_lock
 1002              	.LVL121:
 1003 0262 A968     		ldr	r1, [r5, #8]
 1004 0264 D1F10101 		rsbs	r1, r1, #1
 1005 0268 38BF     		it	cc
 1006 026a 0021     		movcc	r1, #0
 1007 026c 0C20     		movs	r0, #12
 1008 026e FFF7FEFF 		bl	_test_assert
 1009              	.LVL122:
 1010 0272 A8B9     		cbnz	r0, .L49
 1011 0274 FFF7FEFF 		bl	dbg_check_unlock
 1012              	.LVL123:
 1013              	@ 221 "../../../test/testqueues.c" 1
 1014 0278 FFF7FEFF 		bl      _port_unlock
 1015              	@ 0 "" 2
 1016              		.loc 1 224 0
 1017              		.thumb
 1018 027c 40F20000 		movw	r0, #:lower16:.LANCHOR1
 1019 0280 0021     		movs	r1, #0
ARM GAS  /tmp/ccNeolZB.s 			page 19


 1020 0282 0A22     		movs	r2, #10
 1021 0284 C0F20000 		movt	r0, #:upper16:.LANCHOR1
 1022 0288 FFF7FEFF 		bl	chOQPutTimeout
 1023              	.LVL124:
 1024 028c B0F1FF37 		subs	r7, r0, #-1
 1025 0290 7942     		rsbs	r1, r7, #0
 1026 0292 7941     		adcs	r1, r1, r7
 1027 0294 0D20     		movs	r0, #13
 1028              	.LBE15:
 1029              	.LBE14:
 1030              		.loc 1 225 0
 1031 0296 03B0     		add	sp, sp, #12
 1032              		@ sp needed
 1033 0298 BDE8F040 		pop	{r4, r5, r6, r7, lr}
 1034              	.LVL125:
 1035              	.LBB19:
 1036              	.LBB17:
 1037              		.loc 1 224 0
 1038 029c FFF7FEBF 		b	_test_assert
 1039              	.LVL126:
 1040              	.L49:
 1041              		.loc 1 221 0
 1042 02a0 FFF7FEFF 		bl	dbg_check_unlock
 1043              	.LVL127:
 1044              	@ 221 "../../../test/testqueues.c" 1
 1045 02a4 FFF7FEFF 		bl      _port_unlock
 1046              	@ 0 "" 2
 1047              		.thumb
 1048              	.L30:
 1049              	.LBE17:
 1050              	.LBE19:
 1051              		.loc 1 225 0
 1052 02a8 03B0     		add	sp, sp, #12
 1053              		@ sp needed
 1054 02aa F0BD     		pop	{r4, r5, r6, r7, pc}
 1055              	.L50:
 1056              		.loc 1 182 0 discriminator 1
 1057 02ac A968     		ldr	r1, [r5, #8]
 1058 02ae 0031     		adds	r1, r1, #0
 1059 02b0 18BF     		it	ne
 1060 02b2 0121     		movne	r1, #1
 1061 02b4 B5E6     		b	.L31
 1062              	.LVL128:
 1063              	.L51:
 1064              	.LBB20:
 1065              	.LBB18:
 1066              		.loc 1 198 0
 1067 02b6 9F68     		ldr	r7, [r3, #8]
 1068 02b8 0037     		adds	r7, r7, #0
 1069 02ba 18BF     		it	ne
 1070 02bc 0127     		movne	r7, #1
 1071 02be FFE6     		b	.L39
 1072              	.LBE18:
 1073              	.LBE20:
 1074              		.cfi_endproc
 1075              	.LFE6:
 1076              		.size	queues2_execute, .-queues2_execute
ARM GAS  /tmp/ccNeolZB.s 			page 20


 1077              		.global	patternqueues
 1078              		.global	testqueues2
 1079              		.global	testqueues1
 1080              		.section	.rodata.testqueues1,"a",%progbits
 1081              		.align	2
 1082              		.type	testqueues1, %object
 1083              		.size	testqueues1, 16
 1084              	testqueues1:
 1085 0000 20000000 		.word	.LC2
 1086 0004 00000000 		.word	queues1_setup
 1087 0008 00000000 		.word	0
 1088 000c 00000000 		.word	queues1_execute
 1089              		.section	.rodata.testqueues2,"a",%progbits
 1090              		.align	2
 1091              		.type	testqueues2, %object
 1092              		.size	testqueues2, 16
 1093              	testqueues2:
 1094 0000 08000000 		.word	.LC1
 1095 0004 00000000 		.word	queues2_setup
 1096 0008 00000000 		.word	0
 1097 000c 00000000 		.word	queues2_execute
 1098              		.section	.rodata.str1.4,"aMS",%progbits,1
 1099              		.align	2
 1100              	.LC0:
 1101 0000 41424344 		.ascii	"ABCD\000"
 1101      00
 1102 0005 000000   		.space	3
 1103              	.LC1:
 1104 0008 51756575 		.ascii	"Queues, output queues\000"
 1104      65732C20 
 1104      6F757470 
 1104      75742071 
 1104      75657565 
 1105 001e 0000     		.space	2
 1106              	.LC2:
 1107 0020 51756575 		.ascii	"Queues, input queues\000"
 1107      65732C20 
 1107      696E7075 
 1107      74207175 
 1107      65756573 
 1108 0035 000000   		.section	.rodata.patternqueues,"a",%progbits
 1109              		.align	2
 1110              		.type	patternqueues, %object
 1111              		.size	patternqueues, 12
 1112              	patternqueues:
 1113 0000 00000000 		.word	testqueues1
 1114 0004 00000000 		.word	testqueues2
 1115 0008 00000000 		.word	0
 1116              		.section	.data.oq,"aw",%progbits
 1117              		.align	2
 1118              		.set	.LANCHOR1,. + 0
 1119              		.type	oq, %object
 1120              		.size	oq, 36
 1121              	oq:
 1122 0000 00000000 		.word	oq
 1123 0004 00000000 		.word	oq
 1124 0008 04000000 		.word	4
ARM GAS  /tmp/ccNeolZB.s 			page 21


 1125 000c 30010000 		.word	test+304
 1126 0010 34010000 		.word	test+308
 1127 0014 30010000 		.word	test+304
 1128 0018 30010000 		.word	test+304
 1129 001c 00000000 		.word	notify
 1130 0020 00000000 		.word	0
 1131              		.section	.data.iq,"aw",%progbits
 1132              		.align	2
 1133              		.set	.LANCHOR0,. + 0
 1134              		.type	iq, %object
 1135              		.size	iq, 36
 1136              	iq:
 1137 0000 00000000 		.word	iq
 1138 0004 00000000 		.word	iq
 1139 0008 00000000 		.word	0
 1140 000c 00000000 		.word	test
 1141 0010 04000000 		.word	test+4
 1142 0014 00000000 		.word	test
 1143 0018 00000000 		.word	test
 1144 001c 00000000 		.word	notify
 1145 0020 00000000 		.word	0
 1146              		.text
 1147              	.Letext0:
 1148              		.file 2 "/usr/lib/gcc/arm-none-eabi/4.8.2/include/stddef.h"
 1149              		.file 3 "/usr/arm-none-eabi/include/machine/_default_types.h"
 1150              		.file 4 "/usr/arm-none-eabi/include/stdint.h"
 1151              		.file 5 "../../../os/ports/GCC/ARMCMx/chtypes.h"
 1152              		.file 6 "../../../os/kernel/include/chlists.h"
 1153              		.file 7 "../../../os/kernel/include/chthreads.h"
 1154              		.file 8 "../../../os/ports/GCC/ARMCMx/chcore_v7m.h"
 1155              		.file 9 "../../../os/kernel/include/chschd.h"
 1156              		.file 10 "../../../os/kernel/include/chmtx.h"
 1157              		.file 11 "../../../os/kernel/include/chqueues.h"
 1158              		.file 12 "../../../test/test.h"
 1159              		.file 13 "../../../os/kernel/include/chdebug.h"