ARM GAS  /tmp/ccBYOWCk.s 			page 1


   1              		.syntax unified
   2              		.cpu cortex-m4
   3              		.fpu softvfp
   4              		.eabi_attribute 20, 1
   5              		.eabi_attribute 21, 1
   6              		.eabi_attribute 23, 3
   7              		.eabi_attribute 24, 1
   8              		.eabi_attribute 25, 1
   9              		.eabi_attribute 26, 1
  10              		.eabi_attribute 30, 2
  11              		.eabi_attribute 34, 1
  12              		.eabi_attribute 18, 4
  13              		.thumb
  14              		.file	"testevt.c"
  15              		.text
  16              	.Ltext0:
  17              		.cfi_sections	.debug_frame
  18              		.section	.text.evt1_execute,"ax",%progbits
  19              		.align	2
  20              		.p2align 4,,15
  21              		.thumb
  22              		.thumb_func
  23              		.type	evt1_execute, %function
  24              	evt1_execute:
  25              	.LFB4:
  26              		.file 1 "../../../test/testevt.c"
  27              		.loc 1 85 0
  28              		.cfi_startproc
  29              		@ args = 0, pretend = 0, frame = 32
  30              		@ frame_needed = 0, uses_anonymous_args = 0
  31 0000 10B5     		push	{r4, lr}
  32              		.cfi_def_cfa_offset 8
  33              		.cfi_offset 4, -8
  34              		.cfi_offset 14, -4
  35              		.loc 1 91 0
  36 0002 40F20004 		movw	r4, #:lower16:.LANCHOR0
  37              		.loc 1 85 0
  38 0006 88B0     		sub	sp, sp, #32
  39              		.cfi_def_cfa_offset 40
  40              		.loc 1 91 0
  41 0008 C0F20004 		movt	r4, #:upper16:.LANCHOR0
  42              		.loc 1 92 0
  43 000c 2046     		mov	r0, r4
  44 000e 6946     		mov	r1, sp
  45 0010 0122     		movs	r2, #1
  46              		.loc 1 91 0
  47 0012 2460     		str	r4, [r4]
  48              		.loc 1 92 0
  49 0014 FFF7FEFF 		bl	chEvtRegisterMask
  50              	.LVL0:
  51              		.loc 1 93 0
  52 0018 2046     		mov	r0, r4
  53 001a 04A9     		add	r1, sp, #16
  54 001c 0222     		movs	r2, #2
  55 001e FFF7FEFF 		bl	chEvtRegisterMask
  56              	.LVL1:
  57              		.loc 1 94 0
ARM GAS  /tmp/ccBYOWCk.s 			page 2


  58 0022 2168     		ldr	r1, [r4]
  59 0024 091B     		subs	r1, r1, r4
  60 0026 18BF     		it	ne
  61 0028 0121     		movne	r1, #1
  62 002a 0120     		movs	r0, #1
  63 002c FFF7FEFF 		bl	_test_assert
  64              	.LVL2:
  65 0030 08B1     		cbz	r0, .L5
  66              	.L1:
  67              		.loc 1 105 0
  68 0032 08B0     		add	sp, sp, #32
  69              		@ sp needed
  70 0034 10BD     		pop	{r4, pc}
  71              	.L5:
  72              		.loc 1 95 0
  73 0036 6946     		mov	r1, sp
  74 0038 2046     		mov	r0, r4
  75 003a FFF7FEFF 		bl	chEvtUnregister
  76              	.LVL3:
  77              		.loc 1 96 0
  78 003e 2168     		ldr	r1, [r4]
  79 0040 091B     		subs	r1, r1, r4
  80 0042 18BF     		it	ne
  81 0044 0121     		movne	r1, #1
  82 0046 0220     		movs	r0, #2
  83 0048 FFF7FEFF 		bl	_test_assert
  84              	.LVL4:
  85 004c 0028     		cmp	r0, #0
  86 004e F0D1     		bne	.L1
  87              		.loc 1 97 0
  88 0050 04A9     		add	r1, sp, #16
  89 0052 2046     		mov	r0, r4
  90 0054 FFF7FEFF 		bl	chEvtUnregister
  91              	.LVL5:
  92              		.loc 1 98 0
  93 0058 2168     		ldr	r1, [r4]
  94 005a 0B1B     		subs	r3, r1, r4
  95 005c 5942     		rsbs	r1, r3, #0
  96 005e 5941     		adcs	r1, r1, r3
  97 0060 0320     		movs	r0, #3
  98 0062 FFF7FEFF 		bl	_test_assert
  99              	.LVL6:
 100 0066 0028     		cmp	r0, #0
 101 0068 E3D1     		bne	.L1
 102              		.loc 1 103 0
 103 006a 40F20000 		movw	r0, #:lower16:.LANCHOR1
 104 006e C0F20000 		movt	r0, #:upper16:.LANCHOR1
 105 0072 0721     		movs	r1, #7
 106 0074 FFF7FEFF 		bl	chEvtDispatch
 107              	.LVL7:
 108              		.loc 1 104 0
 109 0078 40F20001 		movw	r1, #:lower16:.LC0
 110 007c C0F20001 		movt	r1, #:upper16:.LC0
 111 0080 0420     		movs	r0, #4
 112 0082 FFF7FEFF 		bl	_test_assert_sequence
 113              	.LVL8:
 114 0086 D4E7     		b	.L1
ARM GAS  /tmp/ccBYOWCk.s 			page 3


 115              		.cfi_endproc
 116              	.LFE4:
 117              		.size	evt1_execute, .-evt1_execute
 118 0088 AFF30080 		.section	.text.h3,"ax",%progbits
 118      AFF30080 
 119              		.align	2
 120              		.p2align 4,,15
 121              		.thumb
 122              		.thumb_func
 123              		.type	h3, %function
 124              	h3:
 125              	.LFB3:
 126              		.loc 1 82 0
 127              		.cfi_startproc
 128              		@ args = 0, pretend = 0, frame = 0
 129              		@ frame_needed = 0, uses_anonymous_args = 0
 130              		@ link register save eliminated.
 131              	.LVL9:
 132              		.loc 1 82 0
 133 0000 4320     		movs	r0, #67
 134              	.LVL10:
 135 0002 FFF7FEBF 		b	test_emit_token
 136              	.LVL11:
 137              		.cfi_endproc
 138              	.LFE3:
 139              		.size	h3, .-h3
 140 0006 00BFAFF3 		.section	.text.h2,"ax",%progbits
 140      0080AFF3 
 140      0080
 141              		.align	2
 142              		.p2align 4,,15
 143              		.thumb
 144              		.thumb_func
 145              		.type	h2, %function
 146              	h2:
 147              	.LFB2:
 148              		.loc 1 81 0
 149              		.cfi_startproc
 150              		@ args = 0, pretend = 0, frame = 0
 151              		@ frame_needed = 0, uses_anonymous_args = 0
 152              		@ link register save eliminated.
 153              	.LVL12:
 154              		.loc 1 81 0
 155 0000 4220     		movs	r0, #66
 156              	.LVL13:
 157 0002 FFF7FEBF 		b	test_emit_token
 158              	.LVL14:
 159              		.cfi_endproc
 160              	.LFE2:
 161              		.size	h2, .-h2
 162 0006 00BFAFF3 		.section	.text.h1,"ax",%progbits
 162      0080AFF3 
 162      0080
 163              		.align	2
 164              		.p2align 4,,15
 165              		.thumb
 166              		.thumb_func
ARM GAS  /tmp/ccBYOWCk.s 			page 4


 167              		.type	h1, %function
 168              	h1:
 169              	.LFB1:
 170              		.loc 1 80 0
 171              		.cfi_startproc
 172              		@ args = 0, pretend = 0, frame = 0
 173              		@ frame_needed = 0, uses_anonymous_args = 0
 174              		@ link register save eliminated.
 175              	.LVL15:
 176              		.loc 1 80 0
 177 0000 4120     		movs	r0, #65
 178              	.LVL16:
 179 0002 FFF7FEBF 		b	test_emit_token
 180              	.LVL17:
 181              		.cfi_endproc
 182              	.LFE1:
 183              		.size	h1, .-h1
 184 0006 00BFAFF3 		.section	.text.evt1_setup,"ax",%progbits
 184      0080AFF3 
 184      0080
 185              		.align	2
 186              		.p2align 4,,15
 187              		.thumb
 188              		.thumb_func
 189              		.type	evt1_setup, %function
 190              	evt1_setup:
 191              	.LFB0:
 192              		.loc 1 75 0
 193              		.cfi_startproc
 194              		@ args = 0, pretend = 0, frame = 0
 195              		@ frame_needed = 0, uses_anonymous_args = 0
 196              		@ link register save eliminated.
 197              		.loc 1 77 0
 198 0000 4FF0FF30 		mov	r0, #-1
 199 0004 FFF7FEBF 		b	chEvtGetAndClearEvents
 200              	.LVL18:
 201              		.cfi_endproc
 202              	.LFE0:
 203              		.size	evt1_setup, .-evt1_setup
 204 0008 AFF30080 		.section	.text.evt2_setup,"ax",%progbits
 204      AFF30080 
 205              		.align	2
 206              		.p2align 4,,15
 207              		.thumb
 208              		.thumb_func
 209              		.type	evt2_setup, %function
 210              	evt2_setup:
 211              	.LFB5:
 212              		.loc 1 128 0
 213              		.cfi_startproc
 214              		@ args = 0, pretend = 0, frame = 0
 215              		@ frame_needed = 0, uses_anonymous_args = 0
 216              		@ link register save eliminated.
 217              		.loc 1 130 0
 218 0000 4FF0FF30 		mov	r0, #-1
 219 0004 FFF7FEBF 		b	chEvtGetAndClearEvents
 220              	.LVL19:
ARM GAS  /tmp/ccBYOWCk.s 			page 5


 221              		.cfi_endproc
 222              	.LFE5:
 223              		.size	evt2_setup, .-evt2_setup
 224 0008 AFF30080 		.section	.text.evt2_execute,"ax",%progbits
 224      AFF30080 
 225              		.align	2
 226              		.p2align 4,,15
 227              		.thumb
 228              		.thumb_func
 229              		.type	evt2_execute, %function
 230              	evt2_execute:
 231              	.LFB8:
 232              		.loc 1 149 0
 233              		.cfi_startproc
 234              		@ args = 0, pretend = 0, frame = 40
 235              		@ frame_needed = 0, uses_anonymous_args = 0
 236 0000 2DE9F043 		push	{r4, r5, r6, r7, r8, r9, lr}
 237              		.cfi_def_cfa_offset 28
 238              		.cfi_offset 4, -28
 239              		.cfi_offset 5, -24
 240              		.cfi_offset 6, -20
 241              		.cfi_offset 7, -16
 242              		.cfi_offset 8, -12
 243              		.cfi_offset 9, -8
 244              		.cfi_offset 14, -4
 245              		.loc 1 157 0
 246 0004 0520     		movs	r0, #5
 247              		.loc 1 149 0
 248 0006 8DB0     		sub	sp, sp, #52
 249              		.cfi_def_cfa_offset 80
 250              		.loc 1 157 0
 251 0008 FFF7FEFF 		bl	chEvtAddEvents
 252              	.LVL20:
 253              		.loc 1 158 0
 254 000c 4FF0FF30 		mov	r0, #-1
 255 0010 FFF7FEFF 		bl	chEvtWaitOne
 256              	.LVL21:
 257              		.loc 1 159 0
 258 0014 B0F10109 		subs	r9, r0, #1
 259 0018 D9F10001 		rsbs	r1, r9, #0
 260 001c 51EB0901 		adcs	r1, r1, r9
 261 0020 0120     		movs	r0, #1
 262              	.LVL22:
 263 0022 FFF7FEFF 		bl	_test_assert
 264              	.LVL23:
 265 0026 10B1     		cbz	r0, .L14
 266              	.LVL24:
 267              	.L11:
 268              		.loc 1 222 0
 269 0028 0DB0     		add	sp, sp, #52
 270              		@ sp needed
 271 002a BDE8F083 		pop	{r4, r5, r6, r7, r8, r9, pc}
 272              	.LVL25:
 273              	.L14:
 274              		.loc 1 160 0
 275 002e 4FF0FF30 		mov	r0, #-1
 276 0032 FFF7FEFF 		bl	chEvtWaitOne
ARM GAS  /tmp/ccBYOWCk.s 			page 6


 277              	.LVL26:
 278              		.loc 1 161 0
 279 0036 B0F10408 		subs	r8, r0, #4
 280 003a D8F10001 		rsbs	r1, r8, #0
 281 003e 51EB0801 		adcs	r1, r1, r8
 282 0042 0220     		movs	r0, #2
 283              	.LVL27:
 284 0044 FFF7FEFF 		bl	_test_assert
 285              	.LVL28:
 286 0048 0028     		cmp	r0, #0
 287 004a EDD1     		bne	.L11
 288              		.loc 1 162 0
 289 004c 4FF0FF30 		mov	r0, #-1
 290 0050 FFF7FEFF 		bl	chEvtGetAndClearEvents
 291              	.LVL29:
 292              		.loc 1 163 0
 293 0054 D0F10101 		rsbs	r1, r0, #1
 294 0058 38BF     		it	cc
 295 005a 0021     		movcc	r1, #0
 296 005c 0320     		movs	r0, #3
 297              	.LVL30:
 298 005e FFF7FEFF 		bl	_test_assert
 299              	.LVL31:
 300 0062 0028     		cmp	r0, #0
 301 0064 E0D1     		bne	.L11
 302              		.loc 1 170 0
 303 0066 40F20005 		movw	r5, #:lower16:rlist
 304              		.loc 1 168 0
 305 006a FFF7FEFF 		bl	test_wait_tick
 306              	.LVL32:
 307              		.loc 1 170 0
 308 006e C0F20005 		movt	r5, #:upper16:rlist
 309 0072 40F20003 		movw	r3, #:lower16:wa
 310 0076 C0F20003 		movt	r3, #:upper16:wa
 311 007a A969     		ldr	r1, [r5, #24]
 312 007c 1B68     		ldr	r3, [r3]
 313 007e 8A68     		ldr	r2, [r1, #8]
 314 0080 0393     		str	r3, [sp, #12]
 315              		.loc 1 169 0
 316 0082 40F20006 		movw	r6, #:lower16:vtlist
 317 0086 C0F20006 		movt	r6, #:upper16:vtlist
 318              		.loc 1 170 0
 319 008a 40F20003 		movw	r3, #:lower16:thread1
 320 008e 013A     		subs	r2, r2, #1
 321 0090 0091     		str	r1, [sp]
 322 0092 C0F20003 		movt	r3, #:upper16:thread1
 323 0096 4FF49871 		mov	r1, #304
 324 009a 0398     		ldr	r0, [sp, #12]
 325              		.loc 1 169 0
 326 009c F768     		ldr	r7, [r6, #12]
 327              	.LVL33:
 328              		.loc 1 170 0
 329 009e 40F20004 		movw	r4, #:lower16:threads
 330 00a2 FFF7FEFF 		bl	chThdCreateStatic
 331              	.LVL34:
 332 00a6 C0F20004 		movt	r4, #:upper16:threads
 333 00aa 2060     		str	r0, [r4]
ARM GAS  /tmp/ccBYOWCk.s 			page 7


 334              		.loc 1 172 0
 335 00ac 4FF0FF30 		mov	r0, #-1
 336 00b0 FFF7FEFF 		bl	chEvtWaitOne
 337              	.LVL35:
 338              		.loc 1 173 0
 339 00b4 07F13201 		add	r1, r7, #50
 340              	.LVL36:
 341              		.loc 1 172 0
 342 00b8 8146     		mov	r9, r0
 343              	.LVL37:
 344              		.loc 1 173 0
 345 00ba 07F13702 		add	r2, r7, #55
 346 00be 0420     		movs	r0, #4
 347              	.LVL38:
 348 00c0 FFF7FEFF 		bl	_test_assert_time_window
 349              	.LVL39:
 350 00c4 0028     		cmp	r0, #0
 351 00c6 AFD1     		bne	.L11
 352              		.loc 1 174 0
 353 00c8 B9F1010C 		subs	ip, r9, #1
 354 00cc DCF10001 		rsbs	r1, ip, #0
 355 00d0 51EB0C01 		adcs	r1, r1, ip
 356 00d4 0520     		movs	r0, #5
 357 00d6 FFF7FEFF 		bl	_test_assert
 358              	.LVL40:
 359 00da 0028     		cmp	r0, #0
 360 00dc A4D1     		bne	.L11
 361              		.loc 1 175 0
 362 00de 4FF0FF30 		mov	r0, #-1
 363 00e2 FFF7FEFF 		bl	chEvtGetAndClearEvents
 364              	.LVL41:
 365              		.loc 1 176 0
 366 00e6 D0F10101 		rsbs	r1, r0, #1
 367 00ea 38BF     		it	cc
 368 00ec 0021     		movcc	r1, #0
 369 00ee 0620     		movs	r0, #6
 370              	.LVL42:
 371 00f0 FFF7FEFF 		bl	_test_assert
 372              	.LVL43:
 373 00f4 0028     		cmp	r0, #0
 374 00f6 97D1     		bne	.L11
 375              		.loc 1 177 0
 376 00f8 FFF7FEFF 		bl	test_wait_threads
 377              	.LVL44:
 378              		.loc 1 182 0
 379 00fc 0520     		movs	r0, #5
 380 00fe FFF7FEFF 		bl	chEvtAddEvents
 381              	.LVL45:
 382              		.loc 1 183 0
 383 0102 4FF0FF30 		mov	r0, #-1
 384 0106 FFF7FEFF 		bl	chEvtWaitAny
 385              	.LVL46:
 386              		.loc 1 184 0
 387 010a B0F1050E 		subs	lr, r0, #5
 388 010e DEF10001 		rsbs	r1, lr, #0
 389 0112 51EB0E01 		adcs	r1, r1, lr
 390 0116 0720     		movs	r0, #7
ARM GAS  /tmp/ccBYOWCk.s 			page 8


 391              	.LVL47:
 392 0118 FFF7FEFF 		bl	_test_assert
 393              	.LVL48:
 394 011c 0028     		cmp	r0, #0
 395 011e 83D1     		bne	.L11
 396              		.loc 1 185 0
 397 0120 4FF0FF30 		mov	r0, #-1
 398 0124 FFF7FEFF 		bl	chEvtGetAndClearEvents
 399              	.LVL49:
 400              		.loc 1 186 0
 401 0128 D0F10101 		rsbs	r1, r0, #1
 402 012c 38BF     		it	cc
 403 012e 0021     		movcc	r1, #0
 404 0130 0820     		movs	r0, #8
 405              	.LVL50:
 406 0132 FFF7FEFF 		bl	_test_assert
 407              	.LVL51:
 408 0136 0028     		cmp	r0, #0
 409 0138 7FF476AF 		bne	.L11
 410              		.loc 1 191 0
 411 013c FFF7FEFF 		bl	test_wait_tick
 412              	.LVL52:
 413              		.loc 1 193 0
 414 0140 AB69     		ldr	r3, [r5, #24]
 415 0142 0398     		ldr	r0, [sp, #12]
 416 0144 9A68     		ldr	r2, [r3, #8]
 417 0146 0093     		str	r3, [sp]
 418 0148 40F20003 		movw	r3, #:lower16:thread1
 419 014c 013A     		subs	r2, r2, #1
 420 014e 4FF49871 		mov	r1, #304
 421 0152 C0F20003 		movt	r3, #:upper16:thread1
 422              		.loc 1 192 0
 423 0156 D6F80C80 		ldr	r8, [r6, #12]
 424              	.LVL53:
 425              		.loc 1 193 0
 426 015a FFF7FEFF 		bl	chThdCreateStatic
 427              	.LVL54:
 428 015e 2060     		str	r0, [r4]
 429              		.loc 1 195 0
 430 0160 4FF0FF30 		mov	r0, #-1
 431 0164 FFF7FEFF 		bl	chEvtWaitAny
 432              	.LVL55:
 433              		.loc 1 196 0
 434 0168 08F13201 		add	r1, r8, #50
 435              	.LVL56:
 436              		.loc 1 195 0
 437 016c 8146     		mov	r9, r0
 438              	.LVL57:
 439              		.loc 1 196 0
 440 016e 08F13702 		add	r2, r8, #55
 441 0172 0920     		movs	r0, #9
 442              	.LVL58:
 443 0174 FFF7FEFF 		bl	_test_assert_time_window
 444              	.LVL59:
 445 0178 0028     		cmp	r0, #0
 446 017a 7FF455AF 		bne	.L11
 447              		.loc 1 197 0
ARM GAS  /tmp/ccBYOWCk.s 			page 9


 448 017e B9F10107 		subs	r7, r9, #1
 449 0182 7942     		rsbs	r1, r7, #0
 450 0184 7941     		adcs	r1, r1, r7
 451 0186 0A20     		movs	r0, #10
 452 0188 FFF7FEFF 		bl	_test_assert
 453              	.LVL60:
 454 018c 0028     		cmp	r0, #0
 455 018e 7FF44BAF 		bne	.L11
 456              		.loc 1 198 0
 457 0192 4FF0FF30 		mov	r0, #-1
 458 0196 FFF7FEFF 		bl	chEvtGetAndClearEvents
 459              	.LVL61:
 460              		.loc 1 199 0
 461 019a D0F10101 		rsbs	r1, r0, #1
 462 019e 38BF     		it	cc
 463 01a0 0021     		movcc	r1, #0
 464 01a2 0B20     		movs	r0, #11
 465              	.LVL62:
 466 01a4 FFF7FEFF 		bl	_test_assert
 467              	.LVL63:
 468 01a8 0028     		cmp	r0, #0
 469 01aa 7FF43DAF 		bne	.L11
 470              		.loc 1 205 0
 471 01ae 40F20009 		movw	r9, #:lower16:.LANCHOR0
 472              		.loc 1 206 0
 473 01b2 40F20008 		movw	r8, #:lower16:.LANCHOR2
 474              	.LVL64:
 475              		.loc 1 205 0
 476 01b6 C0F20009 		movt	r9, #:upper16:.LANCHOR0
 477              		.loc 1 206 0
 478 01ba C0F20008 		movt	r8, #:upper16:.LANCHOR2
 479              		.loc 1 200 0
 480 01be FFF7FEFF 		bl	test_wait_threads
 481              	.LVL65:
 482              		.loc 1 207 0
 483 01c2 4846     		mov	r0, r9
 484 01c4 04A9     		add	r1, sp, #16
 485 01c6 0122     		movs	r2, #1
 486              		.loc 1 205 0
 487 01c8 C9F80090 		str	r9, [r9]
 488              		.loc 1 206 0
 489 01cc C8F80080 		str	r8, [r8]
 490              		.loc 1 207 0
 491 01d0 FFF7FEFF 		bl	chEvtRegisterMask
 492              	.LVL66:
 493              		.loc 1 208 0
 494 01d4 08A9     		add	r1, sp, #32
 495 01d6 0422     		movs	r2, #4
 496 01d8 4046     		mov	r0, r8
 497 01da FFF7FEFF 		bl	chEvtRegisterMask
 498              	.LVL67:
 499              		.loc 1 209 0
 500 01de FFF7FEFF 		bl	test_wait_tick
 501              	.LVL68:
 502              		.loc 1 211 0
 503 01e2 AB69     		ldr	r3, [r5, #24]
 504 01e4 0398     		ldr	r0, [sp, #12]
ARM GAS  /tmp/ccBYOWCk.s 			page 10


 505 01e6 9A68     		ldr	r2, [r3, #8]
 506              		.loc 1 210 0
 507 01e8 F568     		ldr	r5, [r6, #12]
 508              	.LVL69:
 509              		.loc 1 211 0
 510 01ea 40F20001 		movw	r1, #:lower16:.LC1
 511 01ee C0F20001 		movt	r1, #:upper16:.LC1
 512 01f2 40F20003 		movw	r3, #:lower16:thread2
 513 01f6 013A     		subs	r2, r2, #1
 514 01f8 0091     		str	r1, [sp]
 515 01fa C0F20003 		movt	r3, #:upper16:thread2
 516 01fe 4FF49871 		mov	r1, #304
 517 0202 FFF7FEFF 		bl	chThdCreateStatic
 518              	.LVL70:
 519 0206 2060     		str	r0, [r4]
 520              		.loc 1 213 0
 521 0208 0520     		movs	r0, #5
 522 020a FFF7FEFF 		bl	chEvtWaitAll
 523              	.LVL71:
 524              		.loc 1 214 0
 525 020e 05F13201 		add	r1, r5, #50
 526              	.LVL72:
 527 0212 05F13702 		add	r2, r5, #55
 528 0216 0C20     		movs	r0, #12
 529 0218 FFF7FEFF 		bl	_test_assert_time_window
 530              	.LVL73:
 531 021c 0028     		cmp	r0, #0
 532 021e 7FF403AF 		bne	.L11
 533              		.loc 1 215 0
 534 0222 4FF0FF30 		mov	r0, #-1
 535 0226 FFF7FEFF 		bl	chEvtGetAndClearEvents
 536              	.LVL74:
 537              		.loc 1 216 0
 538 022a D0F10101 		rsbs	r1, r0, #1
 539 022e 38BF     		it	cc
 540 0230 0021     		movcc	r1, #0
 541 0232 0D20     		movs	r0, #13
 542              	.LVL75:
 543 0234 FFF7FEFF 		bl	_test_assert
 544              	.LVL76:
 545 0238 0028     		cmp	r0, #0
 546 023a 7FF4F5AE 		bne	.L11
 547              		.loc 1 217 0
 548 023e FFF7FEFF 		bl	test_wait_threads
 549              	.LVL77:
 550              		.loc 1 218 0
 551 0242 4846     		mov	r0, r9
 552 0244 04A9     		add	r1, sp, #16
 553 0246 FFF7FEFF 		bl	chEvtUnregister
 554              	.LVL78:
 555              		.loc 1 219 0
 556 024a 4046     		mov	r0, r8
 557 024c 08A9     		add	r1, sp, #32
 558 024e FFF7FEFF 		bl	chEvtUnregister
 559              	.LVL79:
 560              		.loc 1 220 0
 561 0252 D9F80010 		ldr	r1, [r9]
ARM GAS  /tmp/ccBYOWCk.s 			page 11


 562 0256 B1EB0904 		subs	r4, r1, r9
 563 025a 6142     		rsbs	r1, r4, #0
 564 025c 6141     		adcs	r1, r1, r4
 565 025e 0E20     		movs	r0, #14
 566 0260 FFF7FEFF 		bl	_test_assert
 567              	.LVL80:
 568 0264 0028     		cmp	r0, #0
 569 0266 7FF4DFAE 		bne	.L11
 570              		.loc 1 221 0
 571 026a D8F80010 		ldr	r1, [r8]
 572 026e B1EB0802 		subs	r2, r1, r8
 573 0272 5142     		rsbs	r1, r2, #0
 574 0274 5141     		adcs	r1, r1, r2
 575 0276 0F20     		movs	r0, #15
 576 0278 FFF7FEFF 		bl	_test_assert
 577              	.LVL81:
 578 027c D4E6     		b	.L11
 579              		.cfi_endproc
 580              	.LFE8:
 581              		.size	evt2_execute, .-evt2_execute
 582              		.section	.text.thread2,"ax",%progbits
 583              		.align	2
 584              		.p2align 4,,15
 585              		.thumb
 586              		.thumb_func
 587              		.type	thread2, %function
 588              	thread2:
 589              	.LFB7:
 590              		.loc 1 140 0
 591              		.cfi_startproc
 592              		@ args = 0, pretend = 0, frame = 0
 593              		@ frame_needed = 0, uses_anonymous_args = 0
 594              	.LVL82:
 595 0000 08B5     		push	{r3, lr}
 596              		.cfi_def_cfa_offset 8
 597              		.cfi_offset 3, -8
 598              		.cfi_offset 14, -4
 599              		.loc 1 143 0
 600 0002 40F20000 		movw	r0, #:lower16:.LANCHOR0
 601              	.LVL83:
 602 0006 0021     		movs	r1, #0
 603 0008 C0F20000 		movt	r0, #:upper16:.LANCHOR0
 604 000c FFF7FEFF 		bl	chEvtBroadcastFlags
 605              	.LVL84:
 606              		.loc 1 144 0
 607 0010 3220     		movs	r0, #50
 608 0012 FFF7FEFF 		bl	chThdSleep
 609              	.LVL85:
 610              		.loc 1 145 0
 611 0016 40F20000 		movw	r0, #:lower16:.LANCHOR2
 612 001a C0F20000 		movt	r0, #:upper16:.LANCHOR2
 613 001e 0021     		movs	r1, #0
 614 0020 FFF7FEFF 		bl	chEvtBroadcastFlags
 615              	.LVL86:
 616              		.loc 1 147 0
 617 0024 0020     		movs	r0, #0
 618 0026 08BD     		pop	{r3, pc}
ARM GAS  /tmp/ccBYOWCk.s 			page 12


 619              		.cfi_endproc
 620              	.LFE7:
 621              		.size	thread2, .-thread2
 622 0028 AFF30080 		.section	.text.thread1,"ax",%progbits
 622      AFF30080 
 623              		.align	2
 624              		.p2align 4,,15
 625              		.thumb
 626              		.thumb_func
 627              		.type	thread1, %function
 628              	thread1:
 629              	.LFB6:
 630              		.loc 1 133 0
 631              		.cfi_startproc
 632              		@ args = 0, pretend = 0, frame = 0
 633              		@ frame_needed = 0, uses_anonymous_args = 0
 634              	.LVL87:
 635 0000 10B5     		push	{r4, lr}
 636              		.cfi_def_cfa_offset 8
 637              		.cfi_offset 4, -8
 638              		.cfi_offset 14, -4
 639              		.loc 1 133 0
 640 0002 0446     		mov	r4, r0
 641              		.loc 1 135 0
 642 0004 3220     		movs	r0, #50
 643              	.LVL88:
 644 0006 FFF7FEFF 		bl	chThdSleep
 645              	.LVL89:
 646              		.loc 1 136 0
 647 000a 2046     		mov	r0, r4
 648 000c 0121     		movs	r1, #1
 649 000e FFF7FEFF 		bl	chEvtSignal
 650              	.LVL90:
 651              		.loc 1 138 0
 652 0012 0020     		movs	r0, #0
 653 0014 10BD     		pop	{r4, pc}
 654              		.cfi_endproc
 655              	.LFE6:
 656              		.size	thread1, .-thread1
 657              		.global	patternevt
 658              		.global	testevt2
 659              		.global	testevt1
 660              		.section	.rodata.patternevt,"a",%progbits
 661              		.align	2
 662              		.type	patternevt, %object
 663              		.size	patternevt, 12
 664              	patternevt:
 665 0000 00000000 		.word	testevt1
 666 0004 00000000 		.word	testevt2
 667 0008 00000000 		.word	0
 668              		.section	.rodata.testevt2,"a",%progbits
 669              		.align	2
 670              		.type	testevt2, %object
 671              		.size	testevt2, 16
 672              	testevt2:
 673 0000 08000000 		.word	.LC2
 674 0004 00000000 		.word	evt2_setup
ARM GAS  /tmp/ccBYOWCk.s 			page 13


 675 0008 00000000 		.word	0
 676 000c 00000000 		.word	evt2_execute
 677              		.section	.rodata.str1.4,"aMS",%progbits,1
 678              		.align	2
 679              	.LC0:
 680 0000 41424300 		.ascii	"ABC\000"
 681              	.LC1:
 682 0004 4100     		.ascii	"A\000"
 683 0006 0000     		.space	2
 684              	.LC2:
 685 0008 4576656E 		.ascii	"Events, wait and broadcast\000"
 685      74732C20 
 685      77616974 
 685      20616E64 
 685      2062726F 
 686 0023 00       		.space	1
 687              	.LC3:
 688 0024 4576656E 		.ascii	"Events, registration and dispatch\000"
 688      74732C20 
 688      72656769 
 688      73747261 
 688      74696F6E 
 689 0046 0000     		.section	.rodata.testevt1,"a",%progbits
 690              		.align	2
 691              		.type	testevt1, %object
 692              		.size	testevt1, 16
 693              	testevt1:
 694 0000 24000000 		.word	.LC3
 695 0004 00000000 		.word	evt1_setup
 696 0008 00000000 		.word	0
 697 000c 00000000 		.word	evt1_execute
 698              		.section	.rodata.evhndl,"a",%progbits
 699              		.align	2
 700              		.set	.LANCHOR1,. + 0
 701              		.type	evhndl, %object
 702              		.size	evhndl, 12
 703              	evhndl:
 704 0000 00000000 		.word	h1
 705 0004 00000000 		.word	h2
 706 0008 00000000 		.word	h3
 707              		.section	.data.es1,"aw",%progbits
 708              		.align	2
 709              		.set	.LANCHOR0,. + 0
 710              		.type	es1, %object
 711              		.size	es1, 4
 712              	es1:
 713 0000 00000000 		.word	es1
 714              		.section	.data.es2,"aw",%progbits
 715              		.align	2
 716              		.set	.LANCHOR2,. + 0
 717              		.type	es2, %object
 718              		.size	es2, 4
 719              	es2:
 720 0000 00000000 		.word	es2
 721              		.text
 722              	.Letext0:
 723              		.file 2 "/usr/lib/gcc/arm-none-eabi/4.8.2/include/stddef.h"
ARM GAS  /tmp/ccBYOWCk.s 			page 14


 724              		.file 3 "/usr/arm-none-eabi/include/machine/_default_types.h"
 725              		.file 4 "/usr/arm-none-eabi/include/stdint.h"
 726              		.file 5 "../../../os/ports/GCC/ARMCMx/chtypes.h"
 727              		.file 6 "../../../os/kernel/include/chlists.h"
 728              		.file 7 "../../../os/kernel/include/chthreads.h"
 729              		.file 8 "../../../os/ports/GCC/ARMCMx/chcore_v7m.h"
 730              		.file 9 "../../../os/kernel/include/chvt.h"
 731              		.file 10 "../../../os/kernel/include/chschd.h"
 732              		.file 11 "../../../os/kernel/include/chmtx.h"
 733              		.file 12 "../../../os/kernel/include/chevents.h"
 734              		.file 13 "../../../test/test.h"