ARM GAS  /tmp/cclOFUKU.s 			page 1


   1              		.syntax unified
   2              		.cpu cortex-m4
   3              		.fpu softvfp
   4              		.eabi_attribute 20, 1
   5              		.eabi_attribute 21, 1
   6              		.eabi_attribute 23, 3
   7              		.eabi_attribute 24, 1
   8              		.eabi_attribute 25, 1
   9              		.eabi_attribute 26, 1
  10              		.eabi_attribute 30, 2
  11              		.eabi_attribute 34, 1
  12              		.eabi_attribute 18, 4
  13              		.thumb
  14              		.file	"testmtx.c"
  15              		.text
  16              	.Ltext0:
  17              		.cfi_sections	.debug_frame
  18              		.section	.text.mtx1_execute,"ax",%progbits
  19              		.align	2
  20              		.p2align 4,,15
  21              		.thumb
  22              		.thumb_func
  23              		.type	mtx1_execute, %function
  24              	mtx1_execute:
  25              	.LFB2:
  26              		.file 1 "../../../test/testmtx.c"
  27              		.loc 1 97 0
  28              		.cfi_startproc
  29              		@ args = 0, pretend = 0, frame = 8
  30              		@ frame_needed = 0, uses_anonymous_args = 0
  31 0000 F0B5     		push	{r4, r5, r6, r7, lr}
  32              		.cfi_def_cfa_offset 20
  33              		.cfi_offset 4, -20
  34              		.cfi_offset 5, -16
  35              		.cfi_offset 6, -12
  36              		.cfi_offset 7, -8
  37              		.cfi_offset 14, -4
  38              		.loc 1 99 0
  39 0002 40F20007 		movw	r7, #:lower16:rlist
  40 0006 C0F20007 		movt	r7, #:upper16:rlist
  41              		.loc 1 100 0
  42 000a 40F20000 		movw	r0, #:lower16:.LANCHOR0
  43              		.loc 1 99 0
  44 000e BB69     		ldr	r3, [r7, #24]
  45              		.loc 1 97 0
  46 0010 85B0     		sub	sp, sp, #20
  47              		.cfi_def_cfa_offset 40
  48              		.loc 1 100 0
  49 0012 C0F20000 		movt	r0, #:upper16:.LANCHOR0
  50              		.loc 1 101 0
  51 0016 40F20005 		movw	r5, #:lower16:wa
  52              		.loc 1 99 0
  53 001a 9E68     		ldr	r6, [r3, #8]
  54              	.LVL0:
  55              		.loc 1 101 0
  56 001c C0F20005 		movt	r5, #:upper16:wa
  57              		.loc 1 100 0
ARM GAS  /tmp/cclOFUKU.s 			page 2


  58 0020 FFF7FEFF 		bl	chMtxLock
  59              	.LVL1:
  60              		.loc 1 101 0
  61 0024 40F20001 		movw	r1, #:lower16:.LC0
  62 0028 C0F20001 		movt	r1, #:upper16:.LC0
  63 002c 40F20003 		movw	r3, #:lower16:thread1
  64 0030 721C     		adds	r2, r6, #1
  65 0032 0091     		str	r1, [sp]
  66 0034 C0F20003 		movt	r3, #:upper16:thread1
  67 0038 4FF49871 		mov	r1, #304
  68 003c 2868     		ldr	r0, [r5]
  69 003e FFF7FEFF 		bl	chThdCreateStatic
  70              	.LVL2:
  71 0042 40F20004 		movw	r4, #:lower16:threads
  72              		.loc 1 102 0
  73 0046 6B68     		ldr	r3, [r5, #4]
  74              		.loc 1 101 0
  75 0048 C0F20004 		movt	r4, #:upper16:threads
  76              		.loc 1 102 0
  77 004c 40F20001 		movw	r1, #:lower16:.LC1
  78 0050 0393     		str	r3, [sp, #12]
  79 0052 C0F20001 		movt	r1, #:upper16:.LC1
  80 0056 40F20003 		movw	r3, #:lower16:thread1
  81              		.loc 1 101 0
  82 005a 2060     		str	r0, [r4]
  83              		.loc 1 102 0
  84 005c B21C     		adds	r2, r6, #2
  85 005e 0091     		str	r1, [sp]
  86 0060 C0F20003 		movt	r3, #:upper16:thread1
  87 0064 4FF49871 		mov	r1, #304
  88 0068 0398     		ldr	r0, [sp, #12]
  89 006a FFF7FEFF 		bl	chThdCreateStatic
  90              	.LVL3:
  91              		.loc 1 103 0
  92 006e AB68     		ldr	r3, [r5, #8]
  93              		.loc 1 102 0
  94 0070 6060     		str	r0, [r4, #4]
  95              		.loc 1 103 0
  96 0072 40F20001 		movw	r1, #:lower16:.LC2
  97 0076 0393     		str	r3, [sp, #12]
  98 0078 C0F20001 		movt	r1, #:upper16:.LC2
  99 007c 40F20003 		movw	r3, #:lower16:thread1
 100 0080 F21C     		adds	r2, r6, #3
 101 0082 0091     		str	r1, [sp]
 102 0084 C0F20003 		movt	r3, #:upper16:thread1
 103 0088 4FF49871 		mov	r1, #304
 104 008c 0398     		ldr	r0, [sp, #12]
 105 008e FFF7FEFF 		bl	chThdCreateStatic
 106              	.LVL4:
 107              		.loc 1 104 0
 108 0092 EB68     		ldr	r3, [r5, #12]
 109              		.loc 1 103 0
 110 0094 A060     		str	r0, [r4, #8]
 111              		.loc 1 104 0
 112 0096 40F20001 		movw	r1, #:lower16:.LC3
 113 009a 0393     		str	r3, [sp, #12]
 114 009c C0F20001 		movt	r1, #:upper16:.LC3
ARM GAS  /tmp/cclOFUKU.s 			page 3


 115 00a0 40F20003 		movw	r3, #:lower16:thread1
 116 00a4 321D     		adds	r2, r6, #4
 117 00a6 0091     		str	r1, [sp]
 118 00a8 C0F20003 		movt	r3, #:upper16:thread1
 119 00ac 4FF49871 		mov	r1, #304
 120 00b0 0398     		ldr	r0, [sp, #12]
 121 00b2 FFF7FEFF 		bl	chThdCreateStatic
 122              	.LVL5:
 123              		.loc 1 105 0
 124 00b6 2A69     		ldr	r2, [r5, #16]
 125              		.loc 1 104 0
 126 00b8 E060     		str	r0, [r4, #12]
 127              		.loc 1 105 0
 128 00ba 40F20001 		movw	r1, #:lower16:.LC4
 129 00be C0F20001 		movt	r1, #:upper16:.LC4
 130 00c2 40F20003 		movw	r3, #:lower16:thread1
 131 00c6 C0F20003 		movt	r3, #:upper16:thread1
 132 00ca 1046     		mov	r0, r2
 133 00cc 0091     		str	r1, [sp]
 134 00ce 721D     		adds	r2, r6, #5
 135 00d0 4FF49871 		mov	r1, #304
 136 00d4 FFF7FEFF 		bl	chThdCreateStatic
 137              	.LVL6:
 138 00d8 2061     		str	r0, [r4, #16]
 139              		.loc 1 106 0
 140 00da FFF7FEFF 		bl	chMtxUnlock
 141              	.LVL7:
 142              		.loc 1 107 0
 143 00de FFF7FEFF 		bl	test_wait_threads
 144              	.LVL8:
 145              		.loc 1 108 0
 146 00e2 BB69     		ldr	r3, [r7, #24]
 147 00e4 9968     		ldr	r1, [r3, #8]
 148 00e6 8B1B     		subs	r3, r1, r6
 149 00e8 5942     		rsbs	r1, r3, #0
 150 00ea 5941     		adcs	r1, r1, r3
 151 00ec 0120     		movs	r0, #1
 152 00ee FFF7FEFF 		bl	_test_assert
 153              	.LVL9:
 154 00f2 08B1     		cbz	r0, .L4
 155              		.loc 1 110 0
 156 00f4 05B0     		add	sp, sp, #20
 157              		@ sp needed
 158 00f6 F0BD     		pop	{r4, r5, r6, r7, pc}
 159              	.LVL10:
 160              	.L4:
 161              		.loc 1 109 0
 162 00f8 40F20001 		movw	r1, #:lower16:.LC5
 163 00fc C0F20001 		movt	r1, #:upper16:.LC5
 164 0100 0220     		movs	r0, #2
 165              		.loc 1 110 0
 166 0102 05B0     		add	sp, sp, #20
 167              		@ sp needed
 168 0104 BDE8F040 		pop	{r4, r5, r6, r7, lr}
 169              	.LVL11:
 170              		.loc 1 109 0
 171 0108 FFF7FEBF 		b	_test_assert_sequence
ARM GAS  /tmp/cclOFUKU.s 			page 4


 172              	.LVL12:
 173              		.cfi_endproc
 174              	.LFE2:
 175              		.size	mtx1_execute, .-mtx1_execute
 176 010c AFF30080 		.section	.text.thread1,"ax",%progbits
 177              		.align	2
 178              		.p2align 4,,15
 179              		.thumb
 180              		.thumb_func
 181              		.type	thread1, %function
 182              	thread1:
 183              	.LFB1:
 184              		.loc 1 89 0
 185              		.cfi_startproc
 186              		@ args = 0, pretend = 0, frame = 0
 187              		@ frame_needed = 0, uses_anonymous_args = 0
 188              	.LVL13:
 189 0000 10B5     		push	{r4, lr}
 190              		.cfi_def_cfa_offset 8
 191              		.cfi_offset 4, -8
 192              		.cfi_offset 14, -4
 193              		.loc 1 89 0
 194 0002 0446     		mov	r4, r0
 195              		.loc 1 91 0
 196 0004 40F20000 		movw	r0, #:lower16:.LANCHOR0
 197              	.LVL14:
 198 0008 C0F20000 		movt	r0, #:upper16:.LANCHOR0
 199 000c FFF7FEFF 		bl	chMtxLock
 200              	.LVL15:
 201              		.loc 1 92 0
 202 0010 2078     		ldrb	r0, [r4]	@ zero_extendqisi2
 203 0012 FFF7FEFF 		bl	test_emit_token
 204              	.LVL16:
 205              		.loc 1 93 0
 206 0016 FFF7FEFF 		bl	chMtxUnlock
 207              	.LVL17:
 208              		.loc 1 95 0
 209 001a 0020     		movs	r0, #0
 210 001c 10BD     		pop	{r4, pc}
 211              		.cfi_endproc
 212              	.LFE1:
 213              		.size	thread1, .-thread1
 214 001e 00BF     		.section	.text.mtx1_setup,"ax",%progbits
 215              		.align	2
 216              		.p2align 4,,15
 217              		.thumb
 218              		.thumb_func
 219              		.type	mtx1_setup, %function
 220              	mtx1_setup:
 221              	.LFB0:
 222              		.loc 1 84 0
 223              		.cfi_startproc
 224              		@ args = 0, pretend = 0, frame = 0
 225              		@ frame_needed = 0, uses_anonymous_args = 0
 226              		@ link register save eliminated.
 227              		.loc 1 86 0
 228 0000 40F20000 		movw	r0, #:lower16:.LANCHOR0
ARM GAS  /tmp/cclOFUKU.s 			page 5


 229 0004 C0F20000 		movt	r0, #:upper16:.LANCHOR0
 230 0008 FFF7FEBF 		b	chMtxInit
 231              	.LVL18:
 232              		.cfi_endproc
 233              	.LFE0:
 234              		.size	mtx1_setup, .-mtx1_setup
 235 000c AFF30080 		.section	.text.mtx2_setup,"ax",%progbits
 236              		.align	2
 237              		.p2align 4,,15
 238              		.thumb
 239              		.thumb_func
 240              		.type	mtx2_setup, %function
 241              	mtx2_setup:
 242              	.LFB3:
 243              		.loc 1 151 0
 244              		.cfi_startproc
 245              		@ args = 0, pretend = 0, frame = 0
 246              		@ frame_needed = 0, uses_anonymous_args = 0
 247              		@ link register save eliminated.
 248              		.loc 1 153 0
 249 0000 40F20000 		movw	r0, #:lower16:.LANCHOR0
 250 0004 C0F20000 		movt	r0, #:upper16:.LANCHOR0
 251 0008 FFF7FEBF 		b	chMtxInit
 252              	.LVL19:
 253              		.cfi_endproc
 254              	.LFE3:
 255              		.size	mtx2_setup, .-mtx2_setup
 256 000c AFF30080 		.section	.text.mtx3_setup,"ax",%progbits
 257              		.align	2
 258              		.p2align 4,,15
 259              		.thumb
 260              		.thumb_func
 261              		.type	mtx3_setup, %function
 262              	mtx3_setup:
 263              	.LFB8:
 264              		.loc 1 241 0
 265              		.cfi_startproc
 266              		@ args = 0, pretend = 0, frame = 0
 267              		@ frame_needed = 0, uses_anonymous_args = 0
 268 0000 08B5     		push	{r3, lr}
 269              		.cfi_def_cfa_offset 8
 270              		.cfi_offset 3, -8
 271              		.cfi_offset 14, -4
 272              		.loc 1 243 0
 273 0002 40F20000 		movw	r0, #:lower16:.LANCHOR0
 274 0006 C0F20000 		movt	r0, #:upper16:.LANCHOR0
 275 000a FFF7FEFF 		bl	chMtxInit
 276              	.LVL20:
 277              		.loc 1 244 0
 278 000e 40F20000 		movw	r0, #:lower16:.LANCHOR1
 279 0012 C0F20000 		movt	r0, #:upper16:.LANCHOR1
 280              		.loc 1 245 0
 281 0016 BDE80840 		pop	{r3, lr}
 282              		.loc 1 244 0
 283 001a FFF7FEBF 		b	chMtxInit
 284              	.LVL21:
 285              		.cfi_endproc
ARM GAS  /tmp/cclOFUKU.s 			page 6


 286              	.LFE8:
 287              		.size	mtx3_setup, .-mtx3_setup
 288 001e 00BF     		.section	.text.mtx4_setup,"ax",%progbits
 289              		.align	2
 290              		.p2align 4,,15
 291              		.thumb
 292              		.thumb_func
 293              		.type	mtx4_setup, %function
 294              	mtx4_setup:
 295              	.LFB15:
 296              		.loc 1 341 0
 297              		.cfi_startproc
 298              		@ args = 0, pretend = 0, frame = 0
 299              		@ frame_needed = 0, uses_anonymous_args = 0
 300 0000 08B5     		push	{r3, lr}
 301              		.cfi_def_cfa_offset 8
 302              		.cfi_offset 3, -8
 303              		.cfi_offset 14, -4
 304              		.loc 1 343 0
 305 0002 40F20000 		movw	r0, #:lower16:.LANCHOR0
 306 0006 C0F20000 		movt	r0, #:upper16:.LANCHOR0
 307 000a FFF7FEFF 		bl	chMtxInit
 308              	.LVL22:
 309              		.loc 1 344 0
 310 000e 40F20000 		movw	r0, #:lower16:.LANCHOR1
 311 0012 C0F20000 		movt	r0, #:upper16:.LANCHOR1
 312              		.loc 1 345 0
 313 0016 BDE80840 		pop	{r3, lr}
 314              		.loc 1 344 0
 315 001a FFF7FEBF 		b	chMtxInit
 316              	.LVL23:
 317              		.cfi_endproc
 318              	.LFE15:
 319              		.size	mtx4_setup, .-mtx4_setup
 320 001e 00BF     		.section	.text.mtx5_setup,"ax",%progbits
 321              		.align	2
 322              		.p2align 4,,15
 323              		.thumb
 324              		.thumb_func
 325              		.type	mtx5_setup, %function
 326              	mtx5_setup:
 327              	.LFB19:
 328              		.loc 1 429 0
 329              		.cfi_startproc
 330              		@ args = 0, pretend = 0, frame = 0
 331              		@ frame_needed = 0, uses_anonymous_args = 0
 332              		@ link register save eliminated.
 333              		.loc 1 431 0
 334 0000 40F20000 		movw	r0, #:lower16:.LANCHOR0
 335 0004 C0F20000 		movt	r0, #:upper16:.LANCHOR0
 336 0008 FFF7FEBF 		b	chMtxInit
 337              	.LVL24:
 338              		.cfi_endproc
 339              	.LFE19:
 340              		.size	mtx5_setup, .-mtx5_setup
 341 000c AFF30080 		.section	.text.mtx2_execute,"ax",%progbits
 342              		.align	2
ARM GAS  /tmp/cclOFUKU.s 			page 7


 343              		.p2align 4,,15
 344              		.thumb
 345              		.thumb_func
 346              		.type	mtx2_execute, %function
 347              	mtx2_execute:
 348              	.LFB7:
 349              		.loc 1 190 0
 350              		.cfi_startproc
 351              		@ args = 0, pretend = 0, frame = 0
 352              		@ frame_needed = 0, uses_anonymous_args = 0
 353 0000 2DE9F041 		push	{r4, r5, r6, r7, r8, lr}
 354              		.cfi_def_cfa_offset 24
 355              		.cfi_offset 4, -24
 356              		.cfi_offset 5, -20
 357              		.cfi_offset 6, -16
 358              		.cfi_offset 7, -12
 359              		.cfi_offset 8, -8
 360              		.cfi_offset 14, -4
 361              		.loc 1 195 0
 362 0004 40F20006 		movw	r6, #:lower16:rlist
 363 0008 C0F20006 		movt	r6, #:upper16:rlist
 364              		.loc 1 190 0
 365 000c 82B0     		sub	sp, sp, #8
 366              		.cfi_def_cfa_offset 32
 367              		.loc 1 193 0
 368 000e FFF7FEFF 		bl	test_wait_tick
 369              	.LVL25:
 370              		.loc 1 195 0
 371 0012 B369     		ldr	r3, [r6, #24]
 372 0014 40F20005 		movw	r5, #:lower16:wa
 373 0018 9A68     		ldr	r2, [r3, #8]
 374 001a C0F20005 		movt	r5, #:upper16:wa
 375              		.loc 1 194 0
 376 001e 40F20004 		movw	r4, #:lower16:vtlist
 377              		.loc 1 195 0
 378 0022 0027     		movs	r7, #0
 379              		.loc 1 194 0
 380 0024 C0F20004 		movt	r4, #:upper16:vtlist
 381              		.loc 1 195 0
 382 0028 40F20003 		movw	r3, #:lower16:thread2H
 383 002c 013A     		subs	r2, r2, #1
 384 002e 0097     		str	r7, [sp]
 385 0030 C0F20003 		movt	r3, #:upper16:thread2H
 386 0034 4FF49871 		mov	r1, #304
 387 0038 2868     		ldr	r0, [r5]
 388              		.loc 1 194 0
 389 003a D4F80C80 		ldr	r8, [r4, #12]
 390              	.LVL26:
 391              		.loc 1 195 0
 392 003e FFF7FEFF 		bl	chThdCreateStatic
 393              	.LVL27:
 394              		.loc 1 196 0
 395 0042 B369     		ldr	r3, [r6, #24]
 396 0044 6968     		ldr	r1, [r5, #4]
 397 0046 9A68     		ldr	r2, [r3, #8]
 398 0048 0097     		str	r7, [sp]
 399              		.loc 1 195 0
ARM GAS  /tmp/cclOFUKU.s 			page 8


 400 004a 40F20004 		movw	r4, #:lower16:threads
 401 004e C0F20004 		movt	r4, #:upper16:threads
 402              		.loc 1 196 0
 403 0052 40F20003 		movw	r3, #:lower16:thread2M
 404              		.loc 1 195 0
 405 0056 2060     		str	r0, [r4]
 406              		.loc 1 196 0
 407 0058 023A     		subs	r2, r2, #2
 408 005a 0846     		mov	r0, r1
 409 005c C0F20003 		movt	r3, #:upper16:thread2M
 410 0060 4FF49871 		mov	r1, #304
 411 0064 FFF7FEFF 		bl	chThdCreateStatic
 412              	.LVL28:
 413              		.loc 1 197 0
 414 0068 B369     		ldr	r3, [r6, #24]
 415 006a A968     		ldr	r1, [r5, #8]
 416 006c 9A68     		ldr	r2, [r3, #8]
 417              		.loc 1 196 0
 418 006e 6060     		str	r0, [r4, #4]
 419              		.loc 1 197 0
 420 0070 40F20003 		movw	r3, #:lower16:thread2L
 421 0074 033A     		subs	r2, r2, #3
 422 0076 0846     		mov	r0, r1
 423 0078 C0F20003 		movt	r3, #:upper16:thread2L
 424 007c 4FF49871 		mov	r1, #304
 425 0080 0097     		str	r7, [sp]
 426 0082 FFF7FEFF 		bl	chThdCreateStatic
 427              	.LVL29:
 428 0086 A060     		str	r0, [r4, #8]
 429              		.loc 1 198 0
 430 0088 FFF7FEFF 		bl	test_wait_threads
 431              	.LVL30:
 432              		.loc 1 199 0
 433 008c 40F20001 		movw	r1, #:lower16:.LC6
 434 0090 C0F20001 		movt	r1, #:upper16:.LC6
 435 0094 0120     		movs	r0, #1
 436 0096 FFF7FEFF 		bl	_test_assert_sequence
 437              	.LVL31:
 438 009a 10B1     		cbz	r0, .L13
 439              		.loc 1 201 0
 440 009c 02B0     		add	sp, sp, #8
 441              		@ sp needed
 442 009e BDE8F081 		pop	{r4, r5, r6, r7, r8, pc}
 443              	.LVL32:
 444              	.L13:
 445              		.loc 1 200 0
 446 00a2 0220     		movs	r0, #2
 447 00a4 08F16401 		add	r1, r8, #100
 448 00a8 08F16902 		add	r2, r8, #105
 449              		.loc 1 201 0
 450 00ac 02B0     		add	sp, sp, #8
 451              		@ sp needed
 452 00ae BDE8F041 		pop	{r4, r5, r6, r7, r8, lr}
 453              	.LVL33:
 454              		.loc 1 200 0
 455 00b2 FFF7FEBF 		b	_test_assert_time_window
 456              	.LVL34:
ARM GAS  /tmp/cclOFUKU.s 			page 9


 457              		.cfi_endproc
 458              	.LFE7:
 459              		.size	mtx2_execute, .-mtx2_execute
 460 00b6 00BFAFF3 		.section	.text.mtx3_execute,"ax",%progbits
 460      0080AFF3 
 460      0080
 461              		.align	2
 462              		.p2align 4,,15
 463              		.thumb
 464              		.thumb_func
 465              		.type	mtx3_execute, %function
 466              	mtx3_execute:
 467              	.LFB14:
 468              		.loc 1 308 0
 469              		.cfi_startproc
 470              		@ args = 0, pretend = 0, frame = 0
 471              		@ frame_needed = 0, uses_anonymous_args = 0
 472 0000 2DE9F041 		push	{r4, r5, r6, r7, r8, lr}
 473              		.cfi_def_cfa_offset 24
 474              		.cfi_offset 4, -24
 475              		.cfi_offset 5, -20
 476              		.cfi_offset 6, -16
 477              		.cfi_offset 7, -12
 478              		.cfi_offset 8, -8
 479              		.cfi_offset 14, -4
 480              		.loc 1 313 0
 481 0004 40F20006 		movw	r6, #:lower16:rlist
 482 0008 C0F20006 		movt	r6, #:upper16:rlist
 483              		.loc 1 308 0
 484 000c 82B0     		sub	sp, sp, #8
 485              		.cfi_def_cfa_offset 32
 486              		.loc 1 311 0
 487 000e FFF7FEFF 		bl	test_wait_tick
 488              	.LVL35:
 489              		.loc 1 313 0
 490 0012 B369     		ldr	r3, [r6, #24]
 491 0014 40F20005 		movw	r5, #:lower16:wa
 492 0018 C0F20005 		movt	r5, #:upper16:wa
 493 001c 9A68     		ldr	r2, [r3, #8]
 494 001e 2868     		ldr	r0, [r5]
 495              		.loc 1 312 0
 496 0020 40F20004 		movw	r4, #:lower16:vtlist
 497              		.loc 1 313 0
 498 0024 0027     		movs	r7, #0
 499              		.loc 1 312 0
 500 0026 C0F20004 		movt	r4, #:upper16:vtlist
 501              		.loc 1 313 0
 502 002a 40F20003 		movw	r3, #:lower16:thread3LL
 503 002e 053A     		subs	r2, r2, #5
 504 0030 0097     		str	r7, [sp]
 505 0032 C0F20003 		movt	r3, #:upper16:thread3LL
 506 0036 4FF49871 		mov	r1, #304
 507              		.loc 1 312 0
 508 003a D4F80C80 		ldr	r8, [r4, #12]
 509              	.LVL36:
 510              		.loc 1 313 0
 511 003e FFF7FEFF 		bl	chThdCreateStatic
ARM GAS  /tmp/cclOFUKU.s 			page 10


 512              	.LVL37:
 513              		.loc 1 314 0
 514 0042 B369     		ldr	r3, [r6, #24]
 515 0044 6968     		ldr	r1, [r5, #4]
 516 0046 9A68     		ldr	r2, [r3, #8]
 517 0048 0097     		str	r7, [sp]
 518              		.loc 1 313 0
 519 004a 40F20004 		movw	r4, #:lower16:threads
 520 004e C0F20004 		movt	r4, #:upper16:threads
 521              		.loc 1 314 0
 522 0052 40F20003 		movw	r3, #:lower16:thread3L
 523              		.loc 1 313 0
 524 0056 2060     		str	r0, [r4]
 525              		.loc 1 314 0
 526 0058 043A     		subs	r2, r2, #4
 527 005a 0846     		mov	r0, r1
 528 005c C0F20003 		movt	r3, #:upper16:thread3L
 529 0060 4FF49871 		mov	r1, #304
 530 0064 FFF7FEFF 		bl	chThdCreateStatic
 531              	.LVL38:
 532              		.loc 1 315 0
 533 0068 B369     		ldr	r3, [r6, #24]
 534 006a A968     		ldr	r1, [r5, #8]
 535 006c 9A68     		ldr	r2, [r3, #8]
 536              		.loc 1 314 0
 537 006e 6060     		str	r0, [r4, #4]
 538              		.loc 1 315 0
 539 0070 40F20003 		movw	r3, #:lower16:thread3M
 540 0074 033A     		subs	r2, r2, #3
 541 0076 0846     		mov	r0, r1
 542 0078 C0F20003 		movt	r3, #:upper16:thread3M
 543 007c 4FF49871 		mov	r1, #304
 544 0080 0097     		str	r7, [sp]
 545 0082 FFF7FEFF 		bl	chThdCreateStatic
 546              	.LVL39:
 547              		.loc 1 316 0
 548 0086 B369     		ldr	r3, [r6, #24]
 549 0088 E968     		ldr	r1, [r5, #12]
 550 008a 9A68     		ldr	r2, [r3, #8]
 551              		.loc 1 315 0
 552 008c A060     		str	r0, [r4, #8]
 553              		.loc 1 316 0
 554 008e 40F20003 		movw	r3, #:lower16:thread3H
 555 0092 023A     		subs	r2, r2, #2
 556 0094 0846     		mov	r0, r1
 557 0096 C0F20003 		movt	r3, #:upper16:thread3H
 558 009a 4FF49871 		mov	r1, #304
 559 009e 0097     		str	r7, [sp]
 560 00a0 FFF7FEFF 		bl	chThdCreateStatic
 561              	.LVL40:
 562              		.loc 1 317 0
 563 00a4 B369     		ldr	r3, [r6, #24]
 564 00a6 2969     		ldr	r1, [r5, #16]
 565 00a8 9A68     		ldr	r2, [r3, #8]
 566              		.loc 1 316 0
 567 00aa E060     		str	r0, [r4, #12]
 568              		.loc 1 317 0
ARM GAS  /tmp/cclOFUKU.s 			page 11


 569 00ac 40F20003 		movw	r3, #:lower16:thread3HH
 570 00b0 013A     		subs	r2, r2, #1
 571 00b2 0846     		mov	r0, r1
 572 00b4 C0F20003 		movt	r3, #:upper16:thread3HH
 573 00b8 4FF49871 		mov	r1, #304
 574 00bc 0097     		str	r7, [sp]
 575 00be FFF7FEFF 		bl	chThdCreateStatic
 576              	.LVL41:
 577 00c2 2061     		str	r0, [r4, #16]
 578              		.loc 1 318 0
 579 00c4 FFF7FEFF 		bl	test_wait_threads
 580              	.LVL42:
 581              		.loc 1 319 0
 582 00c8 40F20001 		movw	r1, #:lower16:.LC5
 583 00cc C0F20001 		movt	r1, #:upper16:.LC5
 584 00d0 0120     		movs	r0, #1
 585 00d2 FFF7FEFF 		bl	_test_assert_sequence
 586              	.LVL43:
 587 00d6 10B1     		cbz	r0, .L16
 588              		.loc 1 321 0
 589 00d8 02B0     		add	sp, sp, #8
 590              		@ sp needed
 591 00da BDE8F081 		pop	{r4, r5, r6, r7, r8, pc}
 592              	.LVL44:
 593              	.L16:
 594              		.loc 1 320 0
 595 00de 0220     		movs	r0, #2
 596 00e0 08F16E01 		add	r1, r8, #110
 597 00e4 08F17302 		add	r2, r8, #115
 598              		.loc 1 321 0
 599 00e8 02B0     		add	sp, sp, #8
 600              		@ sp needed
 601 00ea BDE8F041 		pop	{r4, r5, r6, r7, r8, lr}
 602              	.LVL45:
 603              		.loc 1 320 0
 604 00ee FFF7FEBF 		b	_test_assert_time_window
 605              	.LVL46:
 606              		.cfi_endproc
 607              	.LFE14:
 608              		.size	mtx3_execute, .-mtx3_execute
 609 00f2 00BFAFF3 		.section	.text.thread2L,"ax",%progbits
 609      0080AFF3 
 609      0080AFF3 
 609      0080
 610              		.align	2
 611              		.p2align 4,,15
 612              		.thumb
 613              		.thumb_func
 614              		.type	thread2L, %function
 615              	thread2L:
 616              	.LFB4:
 617              		.loc 1 157 0
 618              		.cfi_startproc
 619              		@ args = 0, pretend = 0, frame = 0
 620              		@ frame_needed = 0, uses_anonymous_args = 0
 621              	.LVL47:
 622 0000 08B5     		push	{r3, lr}
ARM GAS  /tmp/cclOFUKU.s 			page 12


 623              		.cfi_def_cfa_offset 8
 624              		.cfi_offset 3, -8
 625              		.cfi_offset 14, -4
 626              		.loc 1 160 0
 627 0002 40F20000 		movw	r0, #:lower16:.LANCHOR0
 628              	.LVL48:
 629 0006 C0F20000 		movt	r0, #:upper16:.LANCHOR0
 630 000a FFF7FEFF 		bl	chMtxLock
 631              	.LVL49:
 632              		.loc 1 161 0
 633 000e 2820     		movs	r0, #40
 634 0010 FFF7FEFF 		bl	test_cpu_pulse
 635              	.LVL50:
 636              		.loc 1 162 0
 637 0014 FFF7FEFF 		bl	chMtxUnlock
 638              	.LVL51:
 639              		.loc 1 163 0
 640 0018 0A20     		movs	r0, #10
 641 001a FFF7FEFF 		bl	test_cpu_pulse
 642              	.LVL52:
 643              		.loc 1 164 0
 644 001e 4320     		movs	r0, #67
 645 0020 FFF7FEFF 		bl	test_emit_token
 646              	.LVL53:
 647              		.loc 1 166 0
 648 0024 0020     		movs	r0, #0
 649 0026 08BD     		pop	{r3, pc}
 650              		.cfi_endproc
 651              	.LFE4:
 652              		.size	thread2L, .-thread2L
 653 0028 AFF30080 		.section	.text.thread3LL,"ax",%progbits
 653      AFF30080 
 654              		.align	2
 655              		.p2align 4,,15
 656              		.thumb
 657              		.thumb_func
 658              		.type	thread3LL, %function
 659              	thread3LL:
 660              	.LFB9:
 661              		.loc 1 248 0
 662              		.cfi_startproc
 663              		@ args = 0, pretend = 0, frame = 0
 664              		@ frame_needed = 0, uses_anonymous_args = 0
 665              	.LVL54:
 666 0000 08B5     		push	{r3, lr}
 667              		.cfi_def_cfa_offset 8
 668              		.cfi_offset 3, -8
 669              		.cfi_offset 14, -4
 670              		.loc 1 251 0
 671 0002 40F20000 		movw	r0, #:lower16:.LANCHOR0
 672              	.LVL55:
 673 0006 C0F20000 		movt	r0, #:upper16:.LANCHOR0
 674 000a FFF7FEFF 		bl	chMtxLock
 675              	.LVL56:
 676              		.loc 1 252 0
 677 000e 1E20     		movs	r0, #30
 678 0010 FFF7FEFF 		bl	test_cpu_pulse
ARM GAS  /tmp/cclOFUKU.s 			page 13


 679              	.LVL57:
 680              		.loc 1 253 0
 681 0014 FFF7FEFF 		bl	chMtxUnlock
 682              	.LVL58:
 683              		.loc 1 254 0
 684 0018 4520     		movs	r0, #69
 685 001a FFF7FEFF 		bl	test_emit_token
 686              	.LVL59:
 687              		.loc 1 256 0
 688 001e 0020     		movs	r0, #0
 689 0020 08BD     		pop	{r3, pc}
 690              		.cfi_endproc
 691              	.LFE9:
 692              		.size	thread3LL, .-thread3LL
 693 0022 00BFAFF3 		.section	.text.thread2M,"ax",%progbits
 693      0080AFF3 
 693      0080AFF3 
 693      0080
 694              		.align	2
 695              		.p2align 4,,15
 696              		.thumb
 697              		.thumb_func
 698              		.type	thread2M, %function
 699              	thread2M:
 700              	.LFB5:
 701              		.loc 1 169 0
 702              		.cfi_startproc
 703              		@ args = 0, pretend = 0, frame = 0
 704              		@ frame_needed = 0, uses_anonymous_args = 0
 705              	.LVL60:
 706 0000 08B5     		push	{r3, lr}
 707              		.cfi_def_cfa_offset 8
 708              		.cfi_offset 3, -8
 709              		.cfi_offset 14, -4
 710              		.loc 1 172 0
 711 0002 1420     		movs	r0, #20
 712              	.LVL61:
 713 0004 FFF7FEFF 		bl	chThdSleep
 714              	.LVL62:
 715              		.loc 1 173 0
 716 0008 2820     		movs	r0, #40
 717 000a FFF7FEFF 		bl	test_cpu_pulse
 718              	.LVL63:
 719              		.loc 1 174 0
 720 000e 4220     		movs	r0, #66
 721 0010 FFF7FEFF 		bl	test_emit_token
 722              	.LVL64:
 723              		.loc 1 176 0
 724 0014 0020     		movs	r0, #0
 725 0016 08BD     		pop	{r3, pc}
 726              		.cfi_endproc
 727              	.LFE5:
 728              		.size	thread2M, .-thread2M
 729 0018 AFF30080 		.section	.text.thread2H,"ax",%progbits
 729      AFF30080 
 730              		.align	2
 731              		.p2align 4,,15
ARM GAS  /tmp/cclOFUKU.s 			page 14


 732              		.thumb
 733              		.thumb_func
 734              		.type	thread2H, %function
 735              	thread2H:
 736              	.LFB6:
 737              		.loc 1 179 0
 738              		.cfi_startproc
 739              		@ args = 0, pretend = 0, frame = 0
 740              		@ frame_needed = 0, uses_anonymous_args = 0
 741              	.LVL65:
 742 0000 08B5     		push	{r3, lr}
 743              		.cfi_def_cfa_offset 8
 744              		.cfi_offset 3, -8
 745              		.cfi_offset 14, -4
 746              		.loc 1 182 0
 747 0002 2820     		movs	r0, #40
 748              	.LVL66:
 749 0004 FFF7FEFF 		bl	chThdSleep
 750              	.LVL67:
 751              		.loc 1 183 0
 752 0008 40F20000 		movw	r0, #:lower16:.LANCHOR0
 753 000c C0F20000 		movt	r0, #:upper16:.LANCHOR0
 754 0010 FFF7FEFF 		bl	chMtxLock
 755              	.LVL68:
 756              		.loc 1 184 0
 757 0014 0A20     		movs	r0, #10
 758 0016 FFF7FEFF 		bl	test_cpu_pulse
 759              	.LVL69:
 760              		.loc 1 185 0
 761 001a FFF7FEFF 		bl	chMtxUnlock
 762              	.LVL70:
 763              		.loc 1 186 0
 764 001e 4120     		movs	r0, #65
 765 0020 FFF7FEFF 		bl	test_emit_token
 766              	.LVL71:
 767              		.loc 1 188 0
 768 0024 0020     		movs	r0, #0
 769 0026 08BD     		pop	{r3, pc}
 770              		.cfi_endproc
 771              	.LFE6:
 772              		.size	thread2H, .-thread2H
 773 0028 AFF30080 		.section	.text.thread3HH,"ax",%progbits
 773      AFF30080 
 774              		.align	2
 775              		.p2align 4,,15
 776              		.thumb
 777              		.thumb_func
 778              		.type	thread3HH, %function
 779              	thread3HH:
 780              	.LFB13:
 781              		.loc 1 297 0
 782              		.cfi_startproc
 783              		@ args = 0, pretend = 0, frame = 0
 784              		@ frame_needed = 0, uses_anonymous_args = 0
 785              	.LVL72:
 786 0000 08B5     		push	{r3, lr}
 787              		.cfi_def_cfa_offset 8
ARM GAS  /tmp/cclOFUKU.s 			page 15


 788              		.cfi_offset 3, -8
 789              		.cfi_offset 14, -4
 790              		.loc 1 300 0
 791 0002 3220     		movs	r0, #50
 792              	.LVL73:
 793 0004 FFF7FEFF 		bl	chThdSleep
 794              	.LVL74:
 795              		.loc 1 301 0
 796 0008 40F20000 		movw	r0, #:lower16:.LANCHOR1
 797 000c C0F20000 		movt	r0, #:upper16:.LANCHOR1
 798 0010 FFF7FEFF 		bl	chMtxLock
 799              	.LVL75:
 800              		.loc 1 302 0
 801 0014 0A20     		movs	r0, #10
 802 0016 FFF7FEFF 		bl	test_cpu_pulse
 803              	.LVL76:
 804              		.loc 1 303 0
 805 001a FFF7FEFF 		bl	chMtxUnlock
 806              	.LVL77:
 807              		.loc 1 304 0
 808 001e 4120     		movs	r0, #65
 809 0020 FFF7FEFF 		bl	test_emit_token
 810              	.LVL78:
 811              		.loc 1 306 0
 812 0024 0020     		movs	r0, #0
 813 0026 08BD     		pop	{r3, pc}
 814              		.cfi_endproc
 815              	.LFE13:
 816              		.size	thread3HH, .-thread3HH
 817 0028 AFF30080 		.section	.text.thread3H,"ax",%progbits
 817      AFF30080 
 818              		.align	2
 819              		.p2align 4,,15
 820              		.thumb
 821              		.thumb_func
 822              		.type	thread3H, %function
 823              	thread3H:
 824              	.LFB12:
 825              		.loc 1 287 0
 826              		.cfi_startproc
 827              		@ args = 0, pretend = 0, frame = 0
 828              		@ frame_needed = 0, uses_anonymous_args = 0
 829              	.LVL79:
 830 0000 08B5     		push	{r3, lr}
 831              		.cfi_def_cfa_offset 8
 832              		.cfi_offset 3, -8
 833              		.cfi_offset 14, -4
 834              		.loc 1 290 0
 835 0002 2820     		movs	r0, #40
 836              	.LVL80:
 837 0004 FFF7FEFF 		bl	chThdSleep
 838              	.LVL81:
 839              		.loc 1 291 0
 840 0008 1420     		movs	r0, #20
 841 000a FFF7FEFF 		bl	test_cpu_pulse
 842              	.LVL82:
 843              		.loc 1 292 0
ARM GAS  /tmp/cclOFUKU.s 			page 16


 844 000e 4220     		movs	r0, #66
 845 0010 FFF7FEFF 		bl	test_emit_token
 846              	.LVL83:
 847              		.loc 1 294 0
 848 0014 0020     		movs	r0, #0
 849 0016 08BD     		pop	{r3, pc}
 850              		.cfi_endproc
 851              	.LFE12:
 852              		.size	thread3H, .-thread3H
 853 0018 AFF30080 		.section	.text.thread3M,"ax",%progbits
 853      AFF30080 
 854              		.align	2
 855              		.p2align 4,,15
 856              		.thumb
 857              		.thumb_func
 858              		.type	thread3M, %function
 859              	thread3M:
 860              	.LFB11:
 861              		.loc 1 275 0
 862              		.cfi_startproc
 863              		@ args = 0, pretend = 0, frame = 0
 864              		@ frame_needed = 0, uses_anonymous_args = 0
 865              	.LVL84:
 866 0000 08B5     		push	{r3, lr}
 867              		.cfi_def_cfa_offset 8
 868              		.cfi_offset 3, -8
 869              		.cfi_offset 14, -4
 870              		.loc 1 278 0
 871 0002 1420     		movs	r0, #20
 872              	.LVL85:
 873 0004 FFF7FEFF 		bl	chThdSleep
 874              	.LVL86:
 875              		.loc 1 279 0
 876 0008 40F20000 		movw	r0, #:lower16:.LANCHOR1
 877 000c C0F20000 		movt	r0, #:upper16:.LANCHOR1
 878 0010 FFF7FEFF 		bl	chMtxLock
 879              	.LVL87:
 880              		.loc 1 280 0
 881 0014 0A20     		movs	r0, #10
 882 0016 FFF7FEFF 		bl	test_cpu_pulse
 883              	.LVL88:
 884              		.loc 1 281 0
 885 001a FFF7FEFF 		bl	chMtxUnlock
 886              	.LVL89:
 887              		.loc 1 282 0
 888 001e 4320     		movs	r0, #67
 889 0020 FFF7FEFF 		bl	test_emit_token
 890              	.LVL90:
 891              		.loc 1 284 0
 892 0024 0020     		movs	r0, #0
 893 0026 08BD     		pop	{r3, pc}
 894              		.cfi_endproc
 895              	.LFE11:
 896              		.size	thread3M, .-thread3M
 897 0028 AFF30080 		.section	.text.thread3L,"ax",%progbits
 897      AFF30080 
 898              		.align	2
ARM GAS  /tmp/cclOFUKU.s 			page 17


 899              		.p2align 4,,15
 900              		.thumb
 901              		.thumb_func
 902              		.type	thread3L, %function
 903              	thread3L:
 904              	.LFB10:
 905              		.loc 1 259 0
 906              		.cfi_startproc
 907              		@ args = 0, pretend = 0, frame = 0
 908              		@ frame_needed = 0, uses_anonymous_args = 0
 909              	.LVL91:
 910 0000 08B5     		push	{r3, lr}
 911              		.cfi_def_cfa_offset 8
 912              		.cfi_offset 3, -8
 913              		.cfi_offset 14, -4
 914              		.loc 1 262 0
 915 0002 0A20     		movs	r0, #10
 916              	.LVL92:
 917 0004 FFF7FEFF 		bl	chThdSleep
 918              	.LVL93:
 919              		.loc 1 263 0
 920 0008 40F20000 		movw	r0, #:lower16:.LANCHOR1
 921 000c C0F20000 		movt	r0, #:upper16:.LANCHOR1
 922 0010 FFF7FEFF 		bl	chMtxLock
 923              	.LVL94:
 924              		.loc 1 264 0
 925 0014 1420     		movs	r0, #20
 926 0016 FFF7FEFF 		bl	test_cpu_pulse
 927              	.LVL95:
 928              		.loc 1 265 0
 929 001a 40F20000 		movw	r0, #:lower16:.LANCHOR0
 930 001e C0F20000 		movt	r0, #:upper16:.LANCHOR0
 931 0022 FFF7FEFF 		bl	chMtxLock
 932              	.LVL96:
 933              		.loc 1 266 0
 934 0026 0A20     		movs	r0, #10
 935 0028 FFF7FEFF 		bl	test_cpu_pulse
 936              	.LVL97:
 937              		.loc 1 267 0
 938 002c FFF7FEFF 		bl	chMtxUnlock
 939              	.LVL98:
 940              		.loc 1 268 0
 941 0030 0A20     		movs	r0, #10
 942 0032 FFF7FEFF 		bl	test_cpu_pulse
 943              	.LVL99:
 944              		.loc 1 269 0
 945 0036 FFF7FEFF 		bl	chMtxUnlock
 946              	.LVL100:
 947              		.loc 1 270 0
 948 003a 4420     		movs	r0, #68
 949 003c FFF7FEFF 		bl	test_emit_token
 950              	.LVL101:
 951              		.loc 1 272 0
 952 0040 0020     		movs	r0, #0
 953 0042 08BD     		pop	{r3, pc}
 954              		.cfi_endproc
 955              	.LFE10:
ARM GAS  /tmp/cclOFUKU.s 			page 18


 956              		.size	thread3L, .-thread3L
 957 0044 AFF30080 		.section	.text.thread4b,"ax",%progbits
 957      AFF30080 
 957      AFF30080 
 958              		.align	2
 959              		.p2align 4,,15
 960              		.thumb
 961              		.thumb_func
 962              		.type	thread4b, %function
 963              	thread4b:
 964              	.LFB17:
 965              		.loc 1 356 0
 966              		.cfi_startproc
 967              		@ args = 0, pretend = 0, frame = 0
 968              		@ frame_needed = 0, uses_anonymous_args = 0
 969              	.LVL102:
 970 0000 08B5     		push	{r3, lr}
 971              		.cfi_def_cfa_offset 8
 972              		.cfi_offset 3, -8
 973              		.cfi_offset 14, -4
 974              		.loc 1 359 0
 975 0002 9620     		movs	r0, #150
 976              	.LVL103:
 977 0004 FFF7FEFF 		bl	chThdSleep
 978              	.LVL104:
 979              		.loc 1 360 0
 980 0008 40F20000 		movw	r0, #:lower16:.LANCHOR0
 981 000c C0F20000 		movt	r0, #:upper16:.LANCHOR0
 982 0010 FFF7FEFF 		bl	chMtxLock
 983              	.LVL105:
 984              		.loc 1 361 0
 985 0014 FFF7FEFF 		bl	chMtxUnlock
 986              	.LVL106:
 987              		.loc 1 363 0
 988 0018 0020     		movs	r0, #0
 989 001a 08BD     		pop	{r3, pc}
 990              		.cfi_endproc
 991              	.LFE17:
 992              		.size	thread4b, .-thread4b
 993 001c AFF30080 		.section	.text.thread4a,"ax",%progbits
 994              		.align	2
 995              		.p2align 4,,15
 996              		.thumb
 997              		.thumb_func
 998              		.type	thread4a, %function
 999              	thread4a:
 1000              	.LFB16:
 1001              		.loc 1 347 0
 1002              		.cfi_startproc
 1003              		@ args = 0, pretend = 0, frame = 0
 1004              		@ frame_needed = 0, uses_anonymous_args = 0
 1005              	.LVL107:
 1006 0000 08B5     		push	{r3, lr}
 1007              		.cfi_def_cfa_offset 8
 1008              		.cfi_offset 3, -8
 1009              		.cfi_offset 14, -4
 1010              		.loc 1 350 0
ARM GAS  /tmp/cclOFUKU.s 			page 19


 1011 0002 3220     		movs	r0, #50
 1012              	.LVL108:
 1013 0004 FFF7FEFF 		bl	chThdSleep
 1014              	.LVL109:
 1015              		.loc 1 351 0
 1016 0008 40F20000 		movw	r0, #:lower16:.LANCHOR1
 1017 000c C0F20000 		movt	r0, #:upper16:.LANCHOR1
 1018 0010 FFF7FEFF 		bl	chMtxLock
 1019              	.LVL110:
 1020              		.loc 1 352 0
 1021 0014 FFF7FEFF 		bl	chMtxUnlock
 1022              	.LVL111:
 1023              		.loc 1 354 0
 1024 0018 0020     		movs	r0, #0
 1025 001a 08BD     		pop	{r3, pc}
 1026              		.cfi_endproc
 1027              	.LFE16:
 1028              		.size	thread4a, .-thread4a
 1029 001c AFF30080 		.section	.text.mtx4_execute,"ax",%progbits
 1030              		.align	2
 1031              		.p2align 4,,15
 1032              		.thumb
 1033              		.thumb_func
 1034              		.type	mtx4_execute, %function
 1035              	mtx4_execute:
 1036              	.LFB18:
 1037              		.loc 1 365 0
 1038              		.cfi_startproc
 1039              		@ args = 0, pretend = 0, frame = 8
 1040              		@ frame_needed = 0, uses_anonymous_args = 0
 1041 0000 2DE9F046 		push	{r4, r5, r6, r7, r9, r10, lr}
 1042              		.cfi_def_cfa_offset 28
 1043              		.cfi_offset 4, -28
 1044              		.cfi_offset 5, -24
 1045              		.cfi_offset 6, -20
 1046              		.cfi_offset 7, -16
 1047              		.cfi_offset 9, -12
 1048              		.cfi_offset 10, -8
 1049              		.cfi_offset 14, -4
 1050              		.loc 1 368 0
 1051 0004 40F20004 		movw	r4, #:lower16:rlist
 1052 0008 C0F20004 		movt	r4, #:upper16:rlist
 1053              		.loc 1 371 0
 1054 000c 40F20006 		movw	r6, #:lower16:wa
 1055              		.loc 1 368 0
 1056 0010 A369     		ldr	r3, [r4, #24]
 1057              		.loc 1 371 0
 1058 0012 C0F20006 		movt	r6, #:upper16:wa
 1059              		.loc 1 365 0
 1060 0016 85B0     		sub	sp, sp, #20
 1061              		.cfi_def_cfa_offset 48
 1062              		.loc 1 368 0
 1063 0018 9F68     		ldr	r7, [r3, #8]
 1064              	.LVL112:
 1065              		.loc 1 371 0
 1066 001a 3368     		ldr	r3, [r6]
 1067 001c 40F20001 		movw	r1, #:lower16:.LC3
ARM GAS  /tmp/cclOFUKU.s 			page 20


 1068 0020 0393     		str	r3, [sp, #12]
 1069 0022 C0F20001 		movt	r1, #:upper16:.LC3
 1070              		.loc 1 369 0
 1071 0026 07F10109 		add	r9, r7, #1
 1072              	.LVL113:
 1073              		.loc 1 371 0
 1074 002a 40F20003 		movw	r3, #:lower16:thread4a
 1075 002e 4A46     		mov	r2, r9
 1076 0030 0091     		str	r1, [sp]
 1077 0032 C0F20003 		movt	r3, #:upper16:thread4a
 1078 0036 4FF49871 		mov	r1, #304
 1079 003a 0398     		ldr	r0, [sp, #12]
 1080 003c FFF7FEFF 		bl	chThdCreateStatic
 1081              	.LVL114:
 1082 0040 40F20005 		movw	r5, #:lower16:threads
 1083              		.loc 1 372 0
 1084 0044 7668     		ldr	r6, [r6, #4]
 1085              		.loc 1 371 0
 1086 0046 C0F20005 		movt	r5, #:upper16:threads
 1087              		.loc 1 372 0
 1088 004a 40F20001 		movw	r1, #:lower16:.LC4
 1089 004e C0F20001 		movt	r1, #:upper16:.LC4
 1090              		.loc 1 370 0
 1091 0052 07F1020A 		add	r10, r7, #2
 1092              	.LVL115:
 1093              		.loc 1 372 0
 1094 0056 40F20003 		movw	r3, #:lower16:thread4b
 1095              		.loc 1 371 0
 1096 005a 2860     		str	r0, [r5]
 1097              		.loc 1 372 0
 1098 005c C0F20003 		movt	r3, #:upper16:thread4b
 1099 0060 5246     		mov	r2, r10
 1100 0062 0091     		str	r1, [sp]
 1101 0064 3046     		mov	r0, r6
 1102 0066 4FF49871 		mov	r1, #304
 1103 006a FFF7FEFF 		bl	chThdCreateStatic
 1104              	.LVL116:
 1105 006e 6860     		str	r0, [r5, #4]
 1106              		.loc 1 373 0
 1107 0070 40F20000 		movw	r0, #:lower16:.LANCHOR1
 1108 0074 C0F20000 		movt	r0, #:upper16:.LANCHOR1
 1109 0078 FFF7FEFF 		bl	chMtxLock
 1110              	.LVL117:
 1111              		.loc 1 374 0
 1112 007c A369     		ldr	r3, [r4, #24]
 1113 007e 9968     		ldr	r1, [r3, #8]
 1114 0080 CB1B     		subs	r3, r1, r7
 1115 0082 5942     		rsbs	r1, r3, #0
 1116 0084 5941     		adcs	r1, r1, r3
 1117 0086 0120     		movs	r0, #1
 1118 0088 FFF7FEFF 		bl	_test_assert
 1119              	.LVL118:
 1120 008c 10B1     		cbz	r0, .L31
 1121              	.L27:
 1122              		.loc 1 410 0
 1123 008e 05B0     		add	sp, sp, #20
 1124              		@ sp needed
ARM GAS  /tmp/cclOFUKU.s 			page 21


 1125 0090 BDE8F086 		pop	{r4, r5, r6, r7, r9, r10, pc}
 1126              	.LVL119:
 1127              	.L31:
 1128              		.loc 1 375 0
 1129 0094 6420     		movs	r0, #100
 1130 0096 FFF7FEFF 		bl	chThdSleep
 1131              	.LVL120:
 1132              		.loc 1 376 0
 1133 009a A369     		ldr	r3, [r4, #24]
 1134 009c 9968     		ldr	r1, [r3, #8]
 1135 009e B1EB090C 		subs	ip, r1, r9
 1136 00a2 DCF10001 		rsbs	r1, ip, #0
 1137 00a6 51EB0C01 		adcs	r1, r1, ip
 1138 00aa 0220     		movs	r0, #2
 1139 00ac FFF7FEFF 		bl	_test_assert
 1140              	.LVL121:
 1141 00b0 0028     		cmp	r0, #0
 1142 00b2 ECD1     		bne	.L27
 1143              		.loc 1 377 0
 1144 00b4 40F20000 		movw	r0, #:lower16:.LANCHOR0
 1145 00b8 C0F20000 		movt	r0, #:upper16:.LANCHOR0
 1146 00bc FFF7FEFF 		bl	chMtxLock
 1147              	.LVL122:
 1148              		.loc 1 378 0
 1149 00c0 A369     		ldr	r3, [r4, #24]
 1150 00c2 9968     		ldr	r1, [r3, #8]
 1151 00c4 B1EB090E 		subs	lr, r1, r9
 1152 00c8 DEF10001 		rsbs	r1, lr, #0
 1153 00cc 51EB0E01 		adcs	r1, r1, lr
 1154 00d0 0320     		movs	r0, #3
 1155 00d2 FFF7FEFF 		bl	_test_assert
 1156              	.LVL123:
 1157 00d6 0028     		cmp	r0, #0
 1158 00d8 D9D1     		bne	.L27
 1159              		.loc 1 379 0
 1160 00da 6420     		movs	r0, #100
 1161 00dc FFF7FEFF 		bl	chThdSleep
 1162              	.LVL124:
 1163              		.loc 1 380 0
 1164 00e0 A369     		ldr	r3, [r4, #24]
 1165 00e2 9968     		ldr	r1, [r3, #8]
 1166 00e4 B1EB0A02 		subs	r2, r1, r10
 1167 00e8 5142     		rsbs	r1, r2, #0
 1168 00ea 5141     		adcs	r1, r1, r2
 1169 00ec 0420     		movs	r0, #4
 1170 00ee FFF7FEFF 		bl	_test_assert
 1171              	.LVL125:
 1172 00f2 0028     		cmp	r0, #0
 1173 00f4 CBD1     		bne	.L27
 1174              		.loc 1 381 0
 1175 00f6 FFF7FEFF 		bl	chMtxUnlock
 1176              	.LVL126:
 1177              		.loc 1 382 0
 1178 00fa A369     		ldr	r3, [r4, #24]
 1179 00fc 9968     		ldr	r1, [r3, #8]
 1180 00fe B1EB0903 		subs	r3, r1, r9
 1181 0102 5942     		rsbs	r1, r3, #0
ARM GAS  /tmp/cclOFUKU.s 			page 22


 1182 0104 5941     		adcs	r1, r1, r3
 1183 0106 0520     		movs	r0, #5
 1184 0108 FFF7FEFF 		bl	_test_assert
 1185              	.LVL127:
 1186 010c 0028     		cmp	r0, #0
 1187 010e BED1     		bne	.L27
 1188              		.loc 1 383 0
 1189 0110 6420     		movs	r0, #100
 1190 0112 FFF7FEFF 		bl	chThdSleep
 1191              	.LVL128:
 1192              		.loc 1 384 0
 1193 0116 A369     		ldr	r3, [r4, #24]
 1194 0118 9968     		ldr	r1, [r3, #8]
 1195 011a B1EB090C 		subs	ip, r1, r9
 1196 011e DCF10001 		rsbs	r1, ip, #0
 1197 0122 51EB0C01 		adcs	r1, r1, ip
 1198 0126 0620     		movs	r0, #6
 1199 0128 FFF7FEFF 		bl	_test_assert
 1200              	.LVL129:
 1201 012c 0028     		cmp	r0, #0
 1202 012e AED1     		bne	.L27
 1203              		.loc 1 385 0
 1204 0130 FFF7FEFF 		bl	chMtxUnlockAll
 1205              	.LVL130:
 1206              		.loc 1 386 0
 1207 0134 A369     		ldr	r3, [r4, #24]
 1208 0136 9968     		ldr	r1, [r3, #8]
 1209 0138 B1EB070E 		subs	lr, r1, r7
 1210 013c DEF10001 		rsbs	r1, lr, #0
 1211 0140 51EB0E01 		adcs	r1, r1, lr
 1212 0144 0720     		movs	r0, #7
 1213 0146 FFF7FEFF 		bl	_test_assert
 1214              	.LVL131:
 1215 014a 0028     		cmp	r0, #0
 1216 014c 9FD1     		bne	.L27
 1217              		.loc 1 387 0
 1218 014e FFF7FEFF 		bl	test_wait_threads
 1219              	.LVL132:
 1220              		.loc 1 390 0
 1221 0152 40F20002 		movw	r2, #:lower16:.LC1
 1222 0156 C0F20002 		movt	r2, #:upper16:.LC1
 1223 015a 40F20003 		movw	r3, #:lower16:thread4a
 1224 015e 0092     		str	r2, [sp]
 1225 0160 C0F20003 		movt	r3, #:upper16:thread4a
 1226 0164 4FF49871 		mov	r1, #304
 1227 0168 4A46     		mov	r2, r9
 1228 016a 0398     		ldr	r0, [sp, #12]
 1229 016c FFF7FEFF 		bl	chThdCreateStatic
 1230              	.LVL133:
 1231              		.loc 1 391 0
 1232 0170 40F20002 		movw	r2, #:lower16:.LC2
 1233 0174 C0F20002 		movt	r2, #:upper16:.LC2
 1234 0178 40F20003 		movw	r3, #:lower16:thread4b
 1235              		.loc 1 390 0
 1236 017c 2860     		str	r0, [r5]
 1237              		.loc 1 391 0
 1238 017e C0F20003 		movt	r3, #:upper16:thread4b
ARM GAS  /tmp/cclOFUKU.s 			page 23


 1239 0182 4FF49871 		mov	r1, #304
 1240 0186 0092     		str	r2, [sp]
 1241 0188 3046     		mov	r0, r6
 1242 018a 5246     		mov	r2, r10
 1243 018c FFF7FEFF 		bl	chThdCreateStatic
 1244              	.LVL134:
 1245 0190 6860     		str	r0, [r5, #4]
 1246              		.loc 1 392 0
 1247 0192 40F20000 		movw	r0, #:lower16:.LANCHOR1
 1248 0196 C0F20000 		movt	r0, #:upper16:.LANCHOR1
 1249 019a FFF7FEFF 		bl	chMtxLock
 1250              	.LVL135:
 1251              		.loc 1 393 0
 1252 019e A369     		ldr	r3, [r4, #24]
 1253 01a0 9968     		ldr	r1, [r3, #8]
 1254 01a2 CA1B     		subs	r2, r1, r7
 1255 01a4 5142     		rsbs	r1, r2, #0
 1256 01a6 5141     		adcs	r1, r1, r2
 1257 01a8 0820     		movs	r0, #8
 1258 01aa FFF7FEFF 		bl	_test_assert
 1259              	.LVL136:
 1260 01ae 0028     		cmp	r0, #0
 1261 01b0 7FF46DAF 		bne	.L27
 1262              		.loc 1 394 0
 1263 01b4 6420     		movs	r0, #100
 1264 01b6 FFF7FEFF 		bl	chThdSleep
 1265              	.LVL137:
 1266              		.loc 1 395 0
 1267 01ba A369     		ldr	r3, [r4, #24]
 1268 01bc 9968     		ldr	r1, [r3, #8]
 1269 01be B1EB0903 		subs	r3, r1, r9
 1270 01c2 5942     		rsbs	r1, r3, #0
 1271 01c4 5941     		adcs	r1, r1, r3
 1272 01c6 0920     		movs	r0, #9
 1273 01c8 FFF7FEFF 		bl	_test_assert
 1274              	.LVL138:
 1275 01cc 0028     		cmp	r0, #0
 1276 01ce 7FF45EAF 		bne	.L27
 1277              		.loc 1 396 0
 1278 01d2 40F20000 		movw	r0, #:lower16:.LANCHOR0
 1279 01d6 C0F20000 		movt	r0, #:upper16:.LANCHOR0
 1280 01da FFF7FEFF 		bl	chMtxLock
 1281              	.LVL139:
 1282              		.loc 1 397 0
 1283 01de A369     		ldr	r3, [r4, #24]
 1284 01e0 9968     		ldr	r1, [r3, #8]
 1285 01e2 B1EB090C 		subs	ip, r1, r9
 1286 01e6 DCF10001 		rsbs	r1, ip, #0
 1287 01ea 51EB0C01 		adcs	r1, r1, ip
 1288 01ee 0A20     		movs	r0, #10
 1289 01f0 FFF7FEFF 		bl	_test_assert
 1290              	.LVL140:
 1291 01f4 0028     		cmp	r0, #0
 1292 01f6 7FF44AAF 		bne	.L27
 1293              		.loc 1 398 0
 1294 01fa 6420     		movs	r0, #100
 1295 01fc FFF7FEFF 		bl	chThdSleep
ARM GAS  /tmp/cclOFUKU.s 			page 24


 1296              	.LVL141:
 1297              		.loc 1 399 0
 1298 0200 A369     		ldr	r3, [r4, #24]
 1299 0202 9968     		ldr	r1, [r3, #8]
 1300 0204 B1EB0A0E 		subs	lr, r1, r10
 1301 0208 DEF10001 		rsbs	r1, lr, #0
 1302 020c 51EB0E01 		adcs	r1, r1, lr
 1303 0210 0B20     		movs	r0, #11
 1304 0212 FFF7FEFF 		bl	_test_assert
 1305              	.LVL142:
 1306 0216 0028     		cmp	r0, #0
 1307 0218 7FF439AF 		bne	.L27
 1308              		.loc 1 400 0
 1309              	@ 400 "../../../test/testmtx.c" 1
 1310 021c FFF7FEFF 		bl      _port_lock
 1311              	@ 0 "" 2
 1312              		.thumb
 1313 0220 FFF7FEFF 		bl	dbg_check_lock
 1314              	.LVL143:
 1315              		.loc 1 401 0
 1316 0224 FFF7FEFF 		bl	chMtxUnlockS
 1317              	.LVL144:
 1318              		.loc 1 402 0
 1319 0228 FFF7FEFF 		bl	chSchRescheduleS
 1320              	.LVL145:
 1321              		.loc 1 403 0
 1322 022c FFF7FEFF 		bl	dbg_check_unlock
 1323              	.LVL146:
 1324              	@ 403 "../../../test/testmtx.c" 1
 1325 0230 FFF7FEFF 		bl      _port_unlock
 1326              	@ 0 "" 2
 1327              		.loc 1 404 0
 1328              		.thumb
 1329 0234 A369     		ldr	r3, [r4, #24]
 1330 0236 9968     		ldr	r1, [r3, #8]
 1331 0238 B1EB0906 		subs	r6, r1, r9
 1332 023c 7142     		rsbs	r1, r6, #0
 1333 023e 40F20004 		movw	r4, #:lower16:rlist
 1334 0242 7141     		adcs	r1, r1, r6
 1335 0244 0C20     		movs	r0, #12
 1336 0246 C0F20004 		movt	r4, #:upper16:rlist
 1337 024a FFF7FEFF 		bl	_test_assert
 1338              	.LVL147:
 1339 024e 0028     		cmp	r0, #0
 1340 0250 7FF41DAF 		bne	.L27
 1341              		.loc 1 405 0
 1342 0254 6420     		movs	r0, #100
 1343 0256 FFF7FEFF 		bl	chThdSleep
 1344              	.LVL148:
 1345              		.loc 1 406 0
 1346 025a A369     		ldr	r3, [r4, #24]
 1347 025c 9968     		ldr	r1, [r3, #8]
 1348 025e B1EB0905 		subs	r5, r1, r9
 1349 0262 6942     		rsbs	r1, r5, #0
 1350 0264 6941     		adcs	r1, r1, r5
 1351 0266 0D20     		movs	r0, #13
 1352 0268 FFF7FEFF 		bl	_test_assert
ARM GAS  /tmp/cclOFUKU.s 			page 25


 1353              	.LVL149:
 1354 026c 0028     		cmp	r0, #0
 1355 026e 7FF40EAF 		bne	.L27
 1356              		.loc 1 407 0
 1357 0272 FFF7FEFF 		bl	chMtxUnlockAll
 1358              	.LVL150:
 1359              		.loc 1 408 0
 1360 0276 A369     		ldr	r3, [r4, #24]
 1361 0278 9968     		ldr	r1, [r3, #8]
 1362 027a CA1B     		subs	r2, r1, r7
 1363 027c 5142     		rsbs	r1, r2, #0
 1364 027e 5141     		adcs	r1, r1, r2
 1365 0280 0E20     		movs	r0, #14
 1366 0282 FFF7FEFF 		bl	_test_assert
 1367              	.LVL151:
 1368 0286 0028     		cmp	r0, #0
 1369 0288 7FF401AF 		bne	.L27
 1370              		.loc 1 410 0
 1371 028c 05B0     		add	sp, sp, #20
 1372              		@ sp needed
 1373 028e BDE8F046 		pop	{r4, r5, r6, r7, r9, r10, lr}
 1374              	.LVL152:
 1375              		.loc 1 409 0
 1376 0292 FFF7FEBF 		b	test_wait_threads
 1377              	.LVL153:
 1378              		.cfi_endproc
 1379              	.LFE18:
 1380              		.size	mtx4_execute, .-mtx4_execute
 1381 0296 00BFAFF3 		.section	.text.mtx5_execute,"ax",%progbits
 1381      0080AFF3 
 1381      0080
 1382              		.align	2
 1383              		.p2align 4,,15
 1384              		.thumb
 1385              		.thumb_func
 1386              		.type	mtx5_execute, %function
 1387              	mtx5_execute:
 1388              	.LFB20:
 1389              		.loc 1 434 0
 1390              		.cfi_startproc
 1391              		@ args = 0, pretend = 0, frame = 0
 1392              		@ frame_needed = 0, uses_anonymous_args = 0
 1393 0000 F8B5     		push	{r3, r4, r5, r6, r7, lr}
 1394              		.cfi_def_cfa_offset 24
 1395              		.cfi_offset 3, -24
 1396              		.cfi_offset 4, -20
 1397              		.cfi_offset 5, -16
 1398              		.cfi_offset 6, -12
 1399              		.cfi_offset 7, -8
 1400              		.cfi_offset 14, -4
 1401              		.loc 1 438 0
 1402 0002 40F20005 		movw	r5, #:lower16:rlist
 1403 0006 C0F20005 		movt	r5, #:upper16:rlist
 1404              		.loc 1 440 0
 1405 000a 40F20004 		movw	r4, #:lower16:.LANCHOR0
 1406              		.loc 1 438 0
 1407 000e AB69     		ldr	r3, [r5, #24]
ARM GAS  /tmp/cclOFUKU.s 			page 26


 1408              		.loc 1 440 0
 1409 0010 C0F20004 		movt	r4, #:upper16:.LANCHOR0
 1410 0014 2046     		mov	r0, r4
 1411              		.loc 1 438 0
 1412 0016 9E68     		ldr	r6, [r3, #8]
 1413              	.LVL154:
 1414              		.loc 1 440 0
 1415 0018 FFF7FEFF 		bl	chMtxTryLock
 1416              	.LVL155:
 1417              		.loc 1 441 0
 1418 001c 0146     		mov	r1, r0
 1419 001e 0120     		movs	r0, #1
 1420              	.LVL156:
 1421 0020 FFF7FEFF 		bl	_test_assert
 1422              	.LVL157:
 1423 0024 00B1     		cbz	r0, .L36
 1424              	.L32:
 1425 0026 F8BD     		pop	{r3, r4, r5, r6, r7, pc}
 1426              	.LVL158:
 1427              	.L36:
 1428              		.loc 1 443 0
 1429 0028 2046     		mov	r0, r4
 1430 002a FFF7FEFF 		bl	chMtxTryLock
 1431              	.LVL159:
 1432              		.loc 1 444 0
 1433 002e 80F00101 		eor	r1, r0, #1
 1434 0032 C9B2     		uxtb	r1, r1
 1435 0034 0220     		movs	r0, #2
 1436              	.LVL160:
 1437 0036 FFF7FEFF 		bl	_test_assert
 1438              	.LVL161:
 1439 003a 0028     		cmp	r0, #0
 1440 003c F3D1     		bne	.L32
 1441              		.loc 1 446 0
 1442              	@ 446 "../../../test/testmtx.c" 1
 1443 003e FFF7FEFF 		bl      _port_lock
 1444              	@ 0 "" 2
 1445              		.thumb
 1446 0042 FFF7FEFF 		bl	dbg_check_lock
 1447              	.LVL162:
 1448              		.loc 1 447 0
 1449 0046 FFF7FEFF 		bl	chMtxUnlockS
 1450              	.LVL163:
 1451              		.loc 1 448 0
 1452 004a FFF7FEFF 		bl	dbg_check_unlock
 1453              	.LVL164:
 1454              	@ 448 "../../../test/testmtx.c" 1
 1455 004e FFF7FEFF 		bl      _port_unlock
 1456              	@ 0 "" 2
 1457              		.loc 1 450 0
 1458              		.thumb
 1459 0052 2168     		ldr	r1, [r4]
 1460 0054 B1EB040E 		subs	lr, r1, r4
 1461 0058 DEF10001 		rsbs	r1, lr, #0
 1462 005c 40F20007 		movw	r7, #:lower16:.LANCHOR0
 1463 0060 51EB0E01 		adcs	r1, r1, lr
 1464 0064 0320     		movs	r0, #3
ARM GAS  /tmp/cclOFUKU.s 			page 27


 1465 0066 C0F20007 		movt	r7, #:upper16:.LANCHOR0
 1466 006a FFF7FEFF 		bl	_test_assert
 1467              	.LVL165:
 1468 006e 0028     		cmp	r0, #0
 1469 0070 D9D1     		bne	.L32
 1470              		.loc 1 451 0
 1471 0072 B968     		ldr	r1, [r7, #8]
 1472 0074 D1F10101 		rsbs	r1, r1, #1
 1473 0078 38BF     		it	cc
 1474 007a 0021     		movcc	r1, #0
 1475 007c 0420     		movs	r0, #4
 1476 007e FFF7FEFF 		bl	_test_assert
 1477              	.LVL166:
 1478 0082 0028     		cmp	r0, #0
 1479 0084 CFD1     		bne	.L32
 1480              		.loc 1 452 0
 1481 0086 AB69     		ldr	r3, [r5, #24]
 1482 0088 9968     		ldr	r1, [r3, #8]
 1483 008a 8C1B     		subs	r4, r1, r6
 1484 008c 6142     		rsbs	r1, r4, #0
 1485 008e 6141     		adcs	r1, r1, r4
 1486 0090 0520     		movs	r0, #5
 1487 0092 FFF7FEFF 		bl	_test_assert
 1488              	.LVL167:
 1489 0096 0028     		cmp	r0, #0
 1490 0098 C5D1     		bne	.L32
 1491              		.loc 1 454 0
 1492 009a 3846     		mov	r0, r7
 1493 009c FFF7FEFF 		bl	chMtxLock
 1494              	.LVL168:
 1495              		.loc 1 455 0
 1496 00a0 FFF7FEFF 		bl	chMtxUnlockAll
 1497              	.LVL169:
 1498              		.loc 1 456 0
 1499 00a4 3968     		ldr	r1, [r7]
 1500 00a6 CA1B     		subs	r2, r1, r7
 1501 00a8 5142     		rsbs	r1, r2, #0
 1502 00aa 5141     		adcs	r1, r1, r2
 1503 00ac 0620     		movs	r0, #6
 1504 00ae FFF7FEFF 		bl	_test_assert
 1505              	.LVL170:
 1506 00b2 0028     		cmp	r0, #0
 1507 00b4 B7D1     		bne	.L32
 1508              		.loc 1 457 0
 1509 00b6 B968     		ldr	r1, [r7, #8]
 1510 00b8 D1F10101 		rsbs	r1, r1, #1
 1511 00bc 4FF00700 		mov	r0, #7
 1512 00c0 38BF     		it	cc
 1513 00c2 0021     		movcc	r1, #0
 1514              		.loc 1 458 0
 1515 00c4 BDE8F840 		pop	{r3, r4, r5, r6, r7, lr}
 1516              	.LVL171:
 1517              		.loc 1 457 0
 1518 00c8 FFF7FEBF 		b	_test_assert
 1519              	.LVL172:
 1520              		.cfi_endproc
 1521              	.LFE20:
ARM GAS  /tmp/cclOFUKU.s 			page 28


 1522              		.size	mtx5_execute, .-mtx5_execute
 1523              		.global	patternmtx
 1524              		.global	testmtx5
 1525              		.global	testmtx4
 1526              		.global	testmtx3
 1527              		.global	testmtx2
 1528              		.global	testmtx1
 1529 00cc AFF30080 		.section	.rodata.testmtx5,"a",%progbits
 1530              		.align	2
 1531              		.type	testmtx5, %object
 1532              		.size	testmtx5, 16
 1533              	testmtx5:
 1534 0000 20000000 		.word	.LC7
 1535 0004 00000000 		.word	mtx5_setup
 1536 0008 00000000 		.word	0
 1537 000c 00000000 		.word	mtx5_execute
 1538              		.section	.data.m1,"aw",%progbits
 1539              		.align	2
 1540              		.set	.LANCHOR0,. + 0
 1541              		.type	m1, %object
 1542              		.size	m1, 16
 1543              	m1:
 1544 0000 00000000 		.word	m1
 1545 0004 00000000 		.word	m1
 1546 0008 00000000 		.word	0
 1547 000c 00000000 		.word	0
 1548              		.section	.data.m2,"aw",%progbits
 1549              		.align	2
 1550              		.set	.LANCHOR1,. + 0
 1551              		.type	m2, %object
 1552              		.size	m2, 16
 1553              	m2:
 1554 0000 00000000 		.word	m2
 1555 0004 00000000 		.word	m2
 1556 0008 00000000 		.word	0
 1557 000c 00000000 		.word	0
 1558              		.section	.rodata.str1.4,"aMS",%progbits,1
 1559              		.align	2
 1560              	.LC0:
 1561 0000 4500     		.ascii	"E\000"
 1562 0002 0000     		.space	2
 1563              	.LC1:
 1564 0004 4400     		.ascii	"D\000"
 1565 0006 0000     		.space	2
 1566              	.LC2:
 1567 0008 4300     		.ascii	"C\000"
 1568 000a 0000     		.space	2
 1569              	.LC3:
 1570 000c 4200     		.ascii	"B\000"
 1571 000e 0000     		.space	2
 1572              	.LC4:
 1573 0010 4100     		.ascii	"A\000"
 1574 0012 0000     		.space	2
 1575              	.LC5:
 1576 0014 41424344 		.ascii	"ABCDE\000"
 1576      4500
 1577 001a 0000     		.space	2
ARM GAS  /tmp/cclOFUKU.s 			page 29


 1578              	.LC6:
 1579 001c 41424300 		.ascii	"ABC\000"
 1580              	.LC7:
 1581 0020 4D757465 		.ascii	"Mutexes, status\000"
 1581      7865732C 
 1581      20737461 
 1581      74757300 
 1582              	.LC8:
 1583 0030 4D757465 		.ascii	"Mutexes, priority return\000"
 1583      7865732C 
 1583      20707269 
 1583      6F726974 
 1583      79207265 
 1584 0049 000000   		.space	3
 1585              	.LC9:
 1586 004c 4D757465 		.ascii	"Mutexes, priority inheritance, complex case\000"
 1586      7865732C 
 1586      20707269 
 1586      6F726974 
 1586      7920696E 
 1587              	.LC10:
 1588 0078 4D757465 		.ascii	"Mutexes, priority inheritance, simple case\000"
 1588      7865732C 
 1588      20707269 
 1588      6F726974 
 1588      7920696E 
 1589 00a3 00       		.space	1
 1590              	.LC11:
 1591 00a4 4D757465 		.ascii	"Mutexes, priority enqueuing test\000"
 1591      7865732C 
 1591      20707269 
 1591      6F726974 
 1591      7920656E 
 1592 00c5 000000   		.section	.rodata.patternmtx,"a",%progbits
 1593              		.align	2
 1594              		.type	patternmtx, %object
 1595              		.size	patternmtx, 24
 1596              	patternmtx:
 1597 0000 00000000 		.word	testmtx1
 1598 0004 00000000 		.word	testmtx2
 1599 0008 00000000 		.word	testmtx3
 1600 000c 00000000 		.word	testmtx4
 1601 0010 00000000 		.word	testmtx5
 1602 0014 00000000 		.word	0
 1603              		.section	.rodata.testmtx1,"a",%progbits
 1604              		.align	2
 1605              		.type	testmtx1, %object
 1606              		.size	testmtx1, 16
 1607              	testmtx1:
 1608 0000 A4000000 		.word	.LC11
 1609 0004 00000000 		.word	mtx1_setup
 1610 0008 00000000 		.word	0
 1611 000c 00000000 		.word	mtx1_execute
 1612              		.section	.rodata.testmtx2,"a",%progbits
 1613              		.align	2
 1614              		.type	testmtx2, %object
 1615              		.size	testmtx2, 16
ARM GAS  /tmp/cclOFUKU.s 			page 30


 1616              	testmtx2:
 1617 0000 78000000 		.word	.LC10
 1618 0004 00000000 		.word	mtx2_setup
 1619 0008 00000000 		.word	0
 1620 000c 00000000 		.word	mtx2_execute
 1621              		.section	.rodata.testmtx3,"a",%progbits
 1622              		.align	2
 1623              		.type	testmtx3, %object
 1624              		.size	testmtx3, 16
 1625              	testmtx3:
 1626 0000 4C000000 		.word	.LC9
 1627 0004 00000000 		.word	mtx3_setup
 1628 0008 00000000 		.word	0
 1629 000c 00000000 		.word	mtx3_execute
 1630              		.section	.rodata.testmtx4,"a",%progbits
 1631              		.align	2
 1632              		.type	testmtx4, %object
 1633              		.size	testmtx4, 16
 1634              	testmtx4:
 1635 0000 30000000 		.word	.LC8
 1636 0004 00000000 		.word	mtx4_setup
 1637 0008 00000000 		.word	0
 1638 000c 00000000 		.word	mtx4_execute
 1639              		.text
 1640              	.Letext0:
 1641              		.file 2 "/usr/lib/gcc/arm-none-eabi/4.8.2/include/stddef.h"
 1642              		.file 3 "/usr/arm-none-eabi/include/machine/_default_types.h"
 1643              		.file 4 "/usr/arm-none-eabi/include/stdint.h"
 1644              		.file 5 "../../../os/ports/GCC/ARMCMx/chtypes.h"
 1645              		.file 6 "../../../os/kernel/include/chlists.h"
 1646              		.file 7 "../../../os/kernel/include/chthreads.h"
 1647              		.file 8 "../../../os/ports/GCC/ARMCMx/chcore_v7m.h"
 1648              		.file 9 "../../../os/kernel/include/chvt.h"
 1649              		.file 10 "../../../os/kernel/include/chschd.h"
 1650              		.file 11 "../../../os/kernel/include/chmtx.h"
 1651              		.file 12 "../../../test/test.h"
 1652              		.file 13 "../../../os/kernel/include/chdebug.h"