ARM GAS  /tmp/ccZvnD1b.s 			page 1


   1              		.syntax unified
   2              		.cpu cortex-m4
   3              		.fpu softvfp
   4              		.eabi_attribute 20, 1
   5              		.eabi_attribute 21, 1
   6              		.eabi_attribute 23, 3
   7              		.eabi_attribute 24, 1
   8              		.eabi_attribute 25, 1
   9              		.eabi_attribute 26, 1
  10              		.eabi_attribute 30, 2
  11              		.eabi_attribute 34, 1
  12              		.eabi_attribute 18, 4
  13              		.thumb
  14              		.file	"testmbox.c"
  15              		.text
  16              	.Ltext0:
  17              		.cfi_sections	.debug_frame
  18              		.section	.text.mbox1_execute,"ax",%progbits
  19              		.align	2
  20              		.p2align 4,,15
  21              		.thumb
  22              		.thumb_func
  23              		.type	mbox1_execute, %function
  24              	mbox1_execute:
  25              	.LFB1:
  26              		.file 1 "../../../test/testmbox.c"
  27              		.loc 1 76 0
  28              		.cfi_startproc
  29              		@ args = 0, pretend = 0, frame = 8
  30              		@ frame_needed = 0, uses_anonymous_args = 0
  31 0000 70B5     		push	{r4, r5, r6, lr}
  32              		.cfi_def_cfa_offset 16
  33              		.cfi_offset 4, -16
  34              		.cfi_offset 5, -12
  35              		.cfi_offset 6, -8
  36              		.cfi_offset 14, -4
  37              		.loc 1 83 0
  38 0002 40F20005 		movw	r5, #:lower16:.LANCHOR0
  39 0006 C0F20005 		movt	r5, #:upper16:.LANCHOR0
  40              		.loc 1 76 0
  41 000a 82B0     		sub	sp, sp, #8
  42              		.cfi_def_cfa_offset 24
  43              		.loc 1 83 0
  44 000c 696A     		ldr	r1, [r5, #36]
  45 000e B1F1050E 		subs	lr, r1, #5
  46 0012 DEF10001 		rsbs	r1, lr, #0
  47 0016 51EB0E01 		adcs	r1, r1, lr
  48 001a 0120     		movs	r0, #1
  49 001c FFF7FEFF 		bl	_test_assert
  50              	.LVL0:
  51 0020 28BB     		cbnz	r0, .L1
  52 0022 4224     		movs	r4, #66
  53              	.L4:
  54              	.LVL1:
  55              		.loc 1 89 0
  56 0024 40F20000 		movw	r0, #:lower16:.LANCHOR0
  57 0028 2146     		mov	r1, r4
ARM GAS  /tmp/ccZvnD1b.s 			page 2


  58 002a C0F20000 		movt	r0, #:upper16:.LANCHOR0
  59 002e 4FF0FF32 		mov	r2, #-1
  60 0032 FFF7FEFF 		bl	chMBPost
  61              	.LVL2:
  62              		.loc 1 90 0
  63 0036 D0F10101 		rsbs	r1, r0, #1
  64 003a 38BF     		it	cc
  65 003c 0021     		movcc	r1, #0
  66 003e 0220     		movs	r0, #2
  67              	.LVL3:
  68 0040 0134     		adds	r4, r4, #1
  69              	.LVL4:
  70 0042 FFF7FEFF 		bl	_test_assert
  71              	.LVL5:
  72 0046 90B9     		cbnz	r0, .L1
  73              		.loc 1 88 0
  74 0048 462C     		cmp	r4, #70
  75 004a EBD1     		bne	.L4
  76              		.loc 1 92 0
  77 004c 40F20000 		movw	r0, #:lower16:.LANCHOR0
  78 0050 4121     		movs	r1, #65
  79 0052 C0F20000 		movt	r0, #:upper16:.LANCHOR0
  80 0056 4FF0FF32 		mov	r2, #-1
  81 005a FFF7FEFF 		bl	chMBPostAhead
  82              	.LVL6:
  83              		.loc 1 93 0
  84 005e D0F10101 		rsbs	r1, r0, #1
  85 0062 38BF     		it	cc
  86 0064 0021     		movcc	r1, #0
  87 0066 0320     		movs	r0, #3
  88              	.LVL7:
  89 0068 FFF7FEFF 		bl	_test_assert
  90              	.LVL8:
  91 006c 08B1     		cbz	r0, .L28
  92              	.L1:
  93              		.loc 1 220 0
  94 006e 02B0     		add	sp, sp, #8
  95              		@ sp needed
  96 0070 70BD     		pop	{r4, r5, r6, pc}
  97              	.L28:
  98              		.loc 1 98 0
  99 0072 40F20000 		movw	r0, #:lower16:.LANCHOR0
 100 0076 5821     		movs	r1, #88
 101 0078 C0F20000 		movt	r0, #:upper16:.LANCHOR0
 102 007c 0122     		movs	r2, #1
 103 007e FFF7FEFF 		bl	chMBPost
 104              	.LVL9:
 105              		.loc 1 99 0
 106 0082 B0F1FF36 		subs	r6, r0, #-1
 107 0086 7142     		rsbs	r1, r6, #0
 108 0088 7141     		adcs	r1, r1, r6
 109 008a 0420     		movs	r0, #4
 110              	.LVL10:
 111 008c FFF7FEFF 		bl	_test_assert
 112              	.LVL11:
 113 0090 0028     		cmp	r0, #0
 114 0092 ECD1     		bne	.L1
ARM GAS  /tmp/ccZvnD1b.s 			page 3


 115              		.loc 1 100 0
 116              	@ 100 "../../../test/testmbox.c" 1
 117 0094 FFF7FEFF 		bl      _port_lock
 118              	@ 0 "" 2
 119              		.thumb
 120 0098 FFF7FEFF 		bl	dbg_check_lock
 121              	.LVL12:
 122              		.loc 1 101 0
 123 009c 40F20000 		movw	r0, #:lower16:.LANCHOR0
 124 00a0 5821     		movs	r1, #88
 125 00a2 C0F20000 		movt	r0, #:upper16:.LANCHOR0
 126 00a6 FFF7FEFF 		bl	chMBPostI
 127              	.LVL13:
 128 00aa 0446     		mov	r4, r0
 129              	.LVL14:
 130              		.loc 1 102 0
 131 00ac FFF7FEFF 		bl	dbg_check_unlock
 132              	.LVL15:
 133              	@ 102 "../../../test/testmbox.c" 1
 134 00b0 FFF7FEFF 		bl      _port_unlock
 135              	@ 0 "" 2
 136              		.loc 1 103 0
 137              		.thumb
 138 00b4 B4F1FF34 		subs	r4, r4, #-1
 139              	.LVL16:
 140 00b8 6142     		rsbs	r1, r4, #0
 141 00ba 6141     		adcs	r1, r1, r4
 142 00bc 0520     		movs	r0, #5
 143 00be FFF7FEFF 		bl	_test_assert
 144              	.LVL17:
 145 00c2 0028     		cmp	r0, #0
 146 00c4 D3D1     		bne	.L1
 147              		.loc 1 104 0
 148 00c6 40F20000 		movw	r0, #:lower16:.LANCHOR0
 149 00ca 5821     		movs	r1, #88
 150 00cc 0122     		movs	r2, #1
 151 00ce C0F20000 		movt	r0, #:upper16:.LANCHOR0
 152 00d2 FFF7FEFF 		bl	chMBPostAhead
 153              	.LVL18:
 154              		.loc 1 105 0
 155 00d6 B0F1FF32 		subs	r2, r0, #-1
 156 00da 5142     		rsbs	r1, r2, #0
 157 00dc 5141     		adcs	r1, r1, r2
 158 00de 0620     		movs	r0, #6
 159              	.LVL19:
 160 00e0 FFF7FEFF 		bl	_test_assert
 161              	.LVL20:
 162 00e4 0028     		cmp	r0, #0
 163 00e6 C2D1     		bne	.L1
 164              		.loc 1 106 0
 165              	@ 106 "../../../test/testmbox.c" 1
 166 00e8 FFF7FEFF 		bl      _port_lock
 167              	@ 0 "" 2
 168              		.thumb
 169 00ec FFF7FEFF 		bl	dbg_check_lock
 170              	.LVL21:
 171              		.loc 1 107 0
ARM GAS  /tmp/ccZvnD1b.s 			page 4


 172 00f0 40F20000 		movw	r0, #:lower16:.LANCHOR0
 173 00f4 5821     		movs	r1, #88
 174 00f6 C0F20000 		movt	r0, #:upper16:.LANCHOR0
 175 00fa FFF7FEFF 		bl	chMBPostAheadI
 176              	.LVL22:
 177 00fe 0446     		mov	r4, r0
 178              	.LVL23:
 179              		.loc 1 108 0
 180 0100 FFF7FEFF 		bl	dbg_check_unlock
 181              	.LVL24:
 182              	@ 108 "../../../test/testmbox.c" 1
 183 0104 FFF7FEFF 		bl      _port_unlock
 184              	@ 0 "" 2
 185              		.loc 1 109 0
 186              		.thumb
 187 0108 B4F1FF33 		subs	r3, r4, #-1
 188 010c 5942     		rsbs	r1, r3, #0
 189 010e 5941     		adcs	r1, r1, r3
 190 0110 0720     		movs	r0, #7
 191 0112 FFF7FEFF 		bl	_test_assert
 192              	.LVL25:
 193 0116 0028     		cmp	r0, #0
 194 0118 A9D1     		bne	.L1
 195              		.loc 1 114 0
 196              	@ 114 "../../../test/testmbox.c" 1
 197 011a FFF7FEFF 		bl      _port_lock
 198              	@ 0 "" 2
 199              		.thumb
 200 011e FFF7FEFF 		bl	dbg_check_lock
 201              	.LVL26:
 202 0122 696A     		ldr	r1, [r5, #36]
 203 0124 D1F10101 		rsbs	r1, r1, #1
 204 0128 38BF     		it	cc
 205 012a 0021     		movcc	r1, #0
 206 012c 0820     		movs	r0, #8
 207 012e FFF7FEFF 		bl	_test_assert
 208              	.LVL27:
 209 0132 0028     		cmp	r0, #0
 210 0134 40F0C182 		bne	.L25
 211              		.loc 1 114 0 is_stmt 0 discriminator 2
 212 0138 FFF7FEFF 		bl	dbg_check_unlock
 213              	.LVL28:
 214              	@ 114 "../../../test/testmbox.c" 1
 215 013c FFF7FEFF 		bl      _port_unlock
 216              	@ 0 "" 2
 217              		.loc 1 115 0 is_stmt 1 discriminator 2
 218              	@ 115 "../../../test/testmbox.c" 1
 219 0140 FFF7FEFF 		bl      _port_lock
 220              	@ 0 "" 2
 221              		.thumb
 222 0144 FFF7FEFF 		bl	dbg_check_lock
 223              	.LVL29:
 224 0148 A969     		ldr	r1, [r5, #24]
 225 014a B1F1050C 		subs	ip, r1, #5
 226 014e DCF10001 		rsbs	r1, ip, #0
 227 0152 51EB0C01 		adcs	r1, r1, ip
 228 0156 0920     		movs	r0, #9
ARM GAS  /tmp/ccZvnD1b.s 			page 5


 229 0158 FFF7FEFF 		bl	_test_assert
 230              	.LVL30:
 231 015c 0028     		cmp	r0, #0
 232 015e 40F0AC82 		bne	.L25
 233 0162 FFF7FEFF 		bl	dbg_check_unlock
 234              	.LVL31:
 235              	@ 115 "../../../test/testmbox.c" 1
 236 0166 FFF7FEFF 		bl      _port_unlock
 237              	@ 0 "" 2
 238              		.loc 1 116 0 discriminator 2
 239              	@ 116 "../../../test/testmbox.c" 1
 240 016a FFF7FEFF 		bl      _port_lock
 241              	@ 0 "" 2
 242              		.thumb
 243 016e FFF7FEFF 		bl	dbg_check_lock
 244              	.LVL32:
 245 0172 E968     		ldr	r1, [r5, #12]
 246 0174 AB68     		ldr	r3, [r5, #8]
 247 0176 B1EB030E 		subs	lr, r1, r3
 248 017a DEF10001 		rsbs	r1, lr, #0
 249 017e 51EB0E01 		adcs	r1, r1, lr
 250 0182 0A20     		movs	r0, #10
 251 0184 FFF7FEFF 		bl	_test_assert
 252              	.LVL33:
 253 0188 0028     		cmp	r0, #0
 254 018a 40F09682 		bne	.L25
 255 018e FFF7FEFF 		bl	dbg_check_unlock
 256              	.LVL34:
 257              	@ 116 "../../../test/testmbox.c" 1
 258 0192 FFF7FEFF 		bl      _port_unlock
 259              	@ 0 "" 2
 260              	.LVL35:
 261              		.thumb
 262 0196 0526     		movs	r6, #5
 263              	.LVL36:
 264              	.L10:
 265              		.loc 1 122 0
 266 0198 40F20004 		movw	r4, #:lower16:.LANCHOR0
 267 019c C0F20004 		movt	r4, #:upper16:.LANCHOR0
 268 01a0 01A9     		add	r1, sp, #4
 269 01a2 2046     		mov	r0, r4
 270 01a4 4FF0FF32 		mov	r2, #-1
 271 01a8 FFF7FEFF 		bl	chMBFetch
 272              	.LVL37:
 273              		.loc 1 123 0
 274 01ac D0F10101 		rsbs	r1, r0, #1
 275 01b0 38BF     		it	cc
 276 01b2 0021     		movcc	r1, #0
 277 01b4 0B20     		movs	r0, #11
 278              	.LVL38:
 279 01b6 FFF7FEFF 		bl	_test_assert
 280              	.LVL39:
 281 01ba 0028     		cmp	r0, #0
 282 01bc 7FF457AF 		bne	.L1
 283              		.loc 1 124 0
 284 01c0 9DF80400 		ldrb	r0, [sp, #4]	@ zero_extendqisi2
 285 01c4 FFF7FEFF 		bl	test_emit_token
ARM GAS  /tmp/ccZvnD1b.s 			page 6


 286              	.LVL40:
 287              		.loc 1 121 0
 288 01c8 013E     		subs	r6, r6, #1
 289              	.LVL41:
 290 01ca E5D1     		bne	.L10
 291              		.loc 1 126 0
 292 01cc 40F20001 		movw	r1, #:lower16:.LC0
 293 01d0 C0F20001 		movt	r1, #:upper16:.LC0
 294 01d4 0C20     		movs	r0, #12
 295 01d6 FFF7FEFF 		bl	_test_assert_sequence
 296              	.LVL42:
 297 01da 0028     		cmp	r0, #0
 298 01dc 7FF447AF 		bne	.L1
 299              		.loc 1 131 0
 300 01e0 4721     		movs	r1, #71
 301 01e2 2046     		mov	r0, r4
 302 01e4 4FF0FF32 		mov	r2, #-1
 303 01e8 FFF7FEFF 		bl	chMBPost
 304              	.LVL43:
 305              		.loc 1 132 0
 306 01ec D0F10101 		rsbs	r1, r0, #1
 307 01f0 38BF     		it	cc
 308 01f2 0021     		movcc	r1, #0
 309 01f4 0D20     		movs	r0, #13
 310              	.LVL44:
 311 01f6 FFF7FEFF 		bl	_test_assert
 312              	.LVL45:
 313 01fa 0028     		cmp	r0, #0
 314 01fc 7FF437AF 		bne	.L1
 315              		.loc 1 133 0
 316 0200 01A9     		add	r1, sp, #4
 317 0202 2046     		mov	r0, r4
 318 0204 4FF0FF32 		mov	r2, #-1
 319 0208 FFF7FEFF 		bl	chMBFetch
 320              	.LVL46:
 321              		.loc 1 134 0
 322 020c D0F10101 		rsbs	r1, r0, #1
 323 0210 38BF     		it	cc
 324 0212 0021     		movcc	r1, #0
 325 0214 0E20     		movs	r0, #14
 326              	.LVL47:
 327 0216 FFF7FEFF 		bl	_test_assert
 328              	.LVL48:
 329 021a 0028     		cmp	r0, #0
 330 021c 7FF427AF 		bne	.L1
 331              		.loc 1 135 0
 332 0220 2168     		ldr	r1, [r4]
 333 0222 A368     		ldr	r3, [r4, #8]
 334 0224 CE1A     		subs	r6, r1, r3
 335              	.LVL49:
 336 0226 7142     		rsbs	r1, r6, #0
 337 0228 7141     		adcs	r1, r1, r6
 338 022a 0F20     		movs	r0, #15
 339 022c FFF7FEFF 		bl	_test_assert
 340              	.LVL50:
 341 0230 0028     		cmp	r0, #0
 342 0232 7FF41CAF 		bne	.L1
ARM GAS  /tmp/ccZvnD1b.s 			page 7


 343              		.loc 1 136 0
 344 0236 2168     		ldr	r1, [r4]
 345 0238 E368     		ldr	r3, [r4, #12]
 346 023a CA1A     		subs	r2, r1, r3
 347 023c 5142     		rsbs	r1, r2, #0
 348 023e 5141     		adcs	r1, r1, r2
 349 0240 1020     		movs	r0, #16
 350 0242 FFF7FEFF 		bl	_test_assert
 351              	.LVL51:
 352 0246 0028     		cmp	r0, #0
 353 0248 7FF411AF 		bne	.L1
 354              		.loc 1 141 0
 355 024c 01A9     		add	r1, sp, #4
 356 024e 2046     		mov	r0, r4
 357 0250 0122     		movs	r2, #1
 358 0252 FFF7FEFF 		bl	chMBFetch
 359              	.LVL52:
 360              		.loc 1 142 0
 361 0256 B0F1FF33 		subs	r3, r0, #-1
 362 025a 5942     		rsbs	r1, r3, #0
 363 025c 5941     		adcs	r1, r1, r3
 364 025e 1120     		movs	r0, #17
 365              	.LVL53:
 366 0260 FFF7FEFF 		bl	_test_assert
 367              	.LVL54:
 368 0264 0028     		cmp	r0, #0
 369 0266 7FF402AF 		bne	.L1
 370              		.loc 1 143 0
 371              	@ 143 "../../../test/testmbox.c" 1
 372 026a FFF7FEFF 		bl      _port_lock
 373              	@ 0 "" 2
 374              		.thumb
 375 026e FFF7FEFF 		bl	dbg_check_lock
 376              	.LVL55:
 377              		.loc 1 144 0
 378 0272 40F20000 		movw	r0, #:lower16:.LANCHOR0
 379 0276 01A9     		add	r1, sp, #4
 380 0278 C0F20000 		movt	r0, #:upper16:.LANCHOR0
 381 027c FFF7FEFF 		bl	chMBFetchI
 382              	.LVL56:
 383 0280 0446     		mov	r4, r0
 384              	.LVL57:
 385              		.loc 1 145 0
 386 0282 FFF7FEFF 		bl	dbg_check_unlock
 387              	.LVL58:
 388              	@ 145 "../../../test/testmbox.c" 1
 389 0286 FFF7FEFF 		bl      _port_unlock
 390              	@ 0 "" 2
 391              		.loc 1 146 0
 392              		.thumb
 393 028a B4F1FF3C 		subs	ip, r4, #-1
 394 028e DCF10001 		rsbs	r1, ip, #0
 395 0292 51EB0C01 		adcs	r1, r1, ip
 396 0296 1220     		movs	r0, #18
 397 0298 FFF7FEFF 		bl	_test_assert
 398              	.LVL59:
 399 029c 0028     		cmp	r0, #0
ARM GAS  /tmp/ccZvnD1b.s 			page 8


 400 029e 7FF4E6AE 		bne	.L1
 401              		.loc 1 151 0
 402              	@ 151 "../../../test/testmbox.c" 1
 403 02a2 FFF7FEFF 		bl      _port_lock
 404              	@ 0 "" 2
 405              		.thumb
 406 02a6 FFF7FEFF 		bl	dbg_check_lock
 407              	.LVL60:
 408 02aa 696A     		ldr	r1, [r5, #36]
 409 02ac B1F1050E 		subs	lr, r1, #5
 410 02b0 DEF10001 		rsbs	r1, lr, #0
 411 02b4 51EB0E01 		adcs	r1, r1, lr
 412 02b8 1320     		movs	r0, #19
 413 02ba FFF7FEFF 		bl	_test_assert
 414              	.LVL61:
 415 02be 0028     		cmp	r0, #0
 416 02c0 40F0FB81 		bne	.L25
 417              		.loc 1 151 0 is_stmt 0 discriminator 2
 418 02c4 FFF7FEFF 		bl	dbg_check_unlock
 419              	.LVL62:
 420              	@ 151 "../../../test/testmbox.c" 1
 421 02c8 FFF7FEFF 		bl      _port_unlock
 422              	@ 0 "" 2
 423              		.loc 1 152 0 is_stmt 1 discriminator 2
 424              	@ 152 "../../../test/testmbox.c" 1
 425 02cc FFF7FEFF 		bl      _port_lock
 426              	@ 0 "" 2
 427              		.thumb
 428 02d0 FFF7FEFF 		bl	dbg_check_lock
 429              	.LVL63:
 430 02d4 A969     		ldr	r1, [r5, #24]
 431 02d6 D1F10101 		rsbs	r1, r1, #1
 432 02da 38BF     		it	cc
 433 02dc 0021     		movcc	r1, #0
 434 02de 1420     		movs	r0, #20
 435 02e0 FFF7FEFF 		bl	_test_assert
 436              	.LVL64:
 437 02e4 0028     		cmp	r0, #0
 438 02e6 40F0E881 		bne	.L25
 439 02ea FFF7FEFF 		bl	dbg_check_unlock
 440              	.LVL65:
 441              	@ 152 "../../../test/testmbox.c" 1
 442 02ee FFF7FEFF 		bl      _port_unlock
 443              	@ 0 "" 2
 444              		.loc 1 153 0 discriminator 2
 445              	@ 153 "../../../test/testmbox.c" 1
 446 02f2 FFF7FEFF 		bl      _port_lock
 447              	@ 0 "" 2
 448              		.thumb
 449 02f6 FFF7FEFF 		bl	dbg_check_lock
 450              	.LVL66:
 451 02fa E968     		ldr	r1, [r5, #12]
 452 02fc AB68     		ldr	r3, [r5, #8]
 453 02fe CE1A     		subs	r6, r1, r3
 454 0300 7142     		rsbs	r1, r6, #0
 455 0302 7141     		adcs	r1, r1, r6
 456 0304 1520     		movs	r0, #21
ARM GAS  /tmp/ccZvnD1b.s 			page 9


 457 0306 FFF7FEFF 		bl	_test_assert
 458              	.LVL67:
 459 030a 0028     		cmp	r0, #0
 460 030c 40F0D581 		bne	.L25
 461 0310 FFF7FEFF 		bl	dbg_check_unlock
 462              	.LVL68:
 463              	@ 153 "../../../test/testmbox.c" 1
 464 0314 FFF7FEFF 		bl      _port_unlock
 465              	@ 0 "" 2
 466              		.loc 1 158 0 discriminator 2
 467              	@ 158 "../../../test/testmbox.c" 1
 468 0318 FFF7FEFF 		bl      _port_lock
 469              	@ 0 "" 2
 470              		.thumb
 471 031c FFF7FEFF 		bl	dbg_check_lock
 472              	.LVL69:
 473              		.loc 1 159 0 discriminator 2
 474 0320 40F20000 		movw	r0, #:lower16:.LANCHOR0
 475 0324 4121     		movs	r1, #65
 476 0326 C0F20000 		movt	r0, #:upper16:.LANCHOR0
 477 032a FFF7FEFF 		bl	chMBPostI
 478              	.LVL70:
 479              		.loc 1 160 0 discriminator 2
 480 032e D0F10101 		rsbs	r1, r0, #1
 481 0332 38BF     		it	cc
 482 0334 0021     		movcc	r1, #0
 483 0336 1620     		movs	r0, #22
 484              	.LVL71:
 485 0338 FFF7FEFF 		bl	_test_assert
 486              	.LVL72:
 487 033c 0028     		cmp	r0, #0
 488 033e 7FF496AE 		bne	.L1
 489              		.loc 1 161 0
 490 0342 40F20000 		movw	r0, #:lower16:.LANCHOR0
 491 0346 4221     		movs	r1, #66
 492 0348 C0F20000 		movt	r0, #:upper16:.LANCHOR0
 493 034c FFF7FEFF 		bl	chMBPostI
 494              	.LVL73:
 495              		.loc 1 162 0
 496 0350 D0F10101 		rsbs	r1, r0, #1
 497 0354 38BF     		it	cc
 498 0356 0021     		movcc	r1, #0
 499 0358 1720     		movs	r0, #23
 500              	.LVL74:
 501 035a FFF7FEFF 		bl	_test_assert
 502              	.LVL75:
 503 035e 0028     		cmp	r0, #0
 504 0360 7FF485AE 		bne	.L1
 505              		.loc 1 163 0
 506 0364 40F20000 		movw	r0, #:lower16:.LANCHOR0
 507 0368 4321     		movs	r1, #67
 508 036a C0F20000 		movt	r0, #:upper16:.LANCHOR0
 509 036e FFF7FEFF 		bl	chMBPostI
 510              	.LVL76:
 511              		.loc 1 164 0
 512 0372 D0F10101 		rsbs	r1, r0, #1
 513 0376 38BF     		it	cc
ARM GAS  /tmp/ccZvnD1b.s 			page 10


 514 0378 0021     		movcc	r1, #0
 515 037a 1820     		movs	r0, #24
 516              	.LVL77:
 517 037c FFF7FEFF 		bl	_test_assert
 518              	.LVL78:
 519 0380 0028     		cmp	r0, #0
 520 0382 7FF474AE 		bne	.L1
 521              		.loc 1 165 0
 522 0386 40F20000 		movw	r0, #:lower16:.LANCHOR0
 523 038a 4421     		movs	r1, #68
 524 038c C0F20000 		movt	r0, #:upper16:.LANCHOR0
 525 0390 FFF7FEFF 		bl	chMBPostI
 526              	.LVL79:
 527              		.loc 1 166 0
 528 0394 D0F10101 		rsbs	r1, r0, #1
 529 0398 38BF     		it	cc
 530 039a 0021     		movcc	r1, #0
 531 039c 1920     		movs	r0, #25
 532              	.LVL80:
 533 039e FFF7FEFF 		bl	_test_assert
 534              	.LVL81:
 535 03a2 0028     		cmp	r0, #0
 536 03a4 7FF463AE 		bne	.L1
 537              		.loc 1 167 0
 538 03a8 40F20000 		movw	r0, #:lower16:.LANCHOR0
 539 03ac 4521     		movs	r1, #69
 540 03ae C0F20000 		movt	r0, #:upper16:.LANCHOR0
 541 03b2 FFF7FEFF 		bl	chMBPostI
 542              	.LVL82:
 543 03b6 0446     		mov	r4, r0
 544              	.LVL83:
 545              		.loc 1 168 0
 546 03b8 FFF7FEFF 		bl	dbg_check_unlock
 547              	.LVL84:
 548              	@ 168 "../../../test/testmbox.c" 1
 549 03bc FFF7FEFF 		bl      _port_unlock
 550              	@ 0 "" 2
 551              		.loc 1 169 0
 552              		.thumb
 553 03c0 D4F10101 		rsbs	r1, r4, #1
 554 03c4 38BF     		it	cc
 555 03c6 0021     		movcc	r1, #0
 556 03c8 1A20     		movs	r0, #26
 557 03ca FFF7FEFF 		bl	_test_assert
 558              	.LVL85:
 559 03ce 0028     		cmp	r0, #0
 560 03d0 7FF44DAE 		bne	.L1
 561              		.loc 1 170 0
 562 03d4 E968     		ldr	r1, [r5, #12]
 563 03d6 AB68     		ldr	r3, [r5, #8]
 564 03d8 CC1A     		subs	r4, r1, r3
 565              	.LVL86:
 566 03da 6142     		rsbs	r1, r4, #0
 567 03dc 6141     		adcs	r1, r1, r4
 568 03de 1B20     		movs	r0, #27
 569 03e0 FFF7FEFF 		bl	_test_assert
 570              	.LVL87:
ARM GAS  /tmp/ccZvnD1b.s 			page 11


 571 03e4 0028     		cmp	r0, #0
 572 03e6 7FF442AE 		bne	.L1
 573 03ea 0524     		movs	r4, #5
 574              	.L15:
 575              	.LVL88:
 576              		.loc 1 172 0
 577              	@ 172 "../../../test/testmbox.c" 1
 578 03ec FFF7FEFF 		bl      _port_lock
 579              	@ 0 "" 2
 580              		.thumb
 581 03f0 FFF7FEFF 		bl	dbg_check_lock
 582              	.LVL89:
 583              		.loc 1 173 0
 584 03f4 40F20000 		movw	r0, #:lower16:.LANCHOR0
 585 03f8 01A9     		add	r1, sp, #4
 586 03fa C0F20000 		movt	r0, #:upper16:.LANCHOR0
 587 03fe FFF7FEFF 		bl	chMBFetchI
 588              	.LVL90:
 589 0402 0646     		mov	r6, r0
 590              	.LVL91:
 591              		.loc 1 174 0
 592 0404 FFF7FEFF 		bl	dbg_check_unlock
 593              	.LVL92:
 594              	@ 174 "../../../test/testmbox.c" 1
 595 0408 FFF7FEFF 		bl      _port_unlock
 596              	@ 0 "" 2
 597              		.loc 1 175 0
 598              		.thumb
 599 040c D6F10101 		rsbs	r1, r6, #1
 600 0410 38BF     		it	cc
 601 0412 0021     		movcc	r1, #0
 602 0414 1C20     		movs	r0, #28
 603 0416 FFF7FEFF 		bl	_test_assert
 604              	.LVL93:
 605 041a 0028     		cmp	r0, #0
 606 041c 7FF427AE 		bne	.L1
 607              		.loc 1 176 0
 608 0420 9DF80400 		ldrb	r0, [sp, #4]	@ zero_extendqisi2
 609 0424 FFF7FEFF 		bl	test_emit_token
 610              	.LVL94:
 611              		.loc 1 171 0
 612 0428 013C     		subs	r4, r4, #1
 613              	.LVL95:
 614 042a DFD1     		bne	.L15
 615              		.loc 1 178 0
 616 042c 40F20001 		movw	r1, #:lower16:.LC0
 617 0430 C0F20001 		movt	r1, #:upper16:.LC0
 618 0434 1D20     		movs	r0, #29
 619 0436 FFF7FEFF 		bl	_test_assert_sequence
 620              	.LVL96:
 621 043a 0028     		cmp	r0, #0
 622 043c 7FF417AE 		bne	.L1
 623              		.loc 1 179 0
 624              	@ 179 "../../../test/testmbox.c" 1
 625 0440 FFF7FEFF 		bl      _port_lock
 626              	@ 0 "" 2
 627              		.thumb
ARM GAS  /tmp/ccZvnD1b.s 			page 12


 628 0444 FFF7FEFF 		bl	dbg_check_lock
 629              	.LVL97:
 630 0448 696A     		ldr	r1, [r5, #36]
 631 044a 4A1F     		subs	r2, r1, #5
 632 044c 5142     		rsbs	r1, r2, #0
 633 044e 5141     		adcs	r1, r1, r2
 634 0450 1E20     		movs	r0, #30
 635 0452 FFF7FEFF 		bl	_test_assert
 636              	.LVL98:
 637 0456 0028     		cmp	r0, #0
 638 0458 40F02F81 		bne	.L25
 639              		.loc 1 179 0 is_stmt 0 discriminator 2
 640 045c FFF7FEFF 		bl	dbg_check_unlock
 641              	.LVL99:
 642              	@ 179 "../../../test/testmbox.c" 1
 643 0460 FFF7FEFF 		bl      _port_unlock
 644              	@ 0 "" 2
 645              		.loc 1 180 0 is_stmt 1 discriminator 2
 646              	@ 180 "../../../test/testmbox.c" 1
 647 0464 FFF7FEFF 		bl      _port_lock
 648              	@ 0 "" 2
 649              		.thumb
 650 0468 FFF7FEFF 		bl	dbg_check_lock
 651              	.LVL100:
 652 046c A969     		ldr	r1, [r5, #24]
 653 046e D1F10101 		rsbs	r1, r1, #1
 654 0472 38BF     		it	cc
 655 0474 0021     		movcc	r1, #0
 656 0476 1F20     		movs	r0, #31
 657 0478 FFF7FEFF 		bl	_test_assert
 658              	.LVL101:
 659 047c 0028     		cmp	r0, #0
 660 047e 40F01C81 		bne	.L25
 661 0482 FFF7FEFF 		bl	dbg_check_unlock
 662              	.LVL102:
 663              	@ 180 "../../../test/testmbox.c" 1
 664 0486 FFF7FEFF 		bl      _port_unlock
 665              	@ 0 "" 2
 666              		.loc 1 181 0 discriminator 2
 667              		.thumb
 668 048a E968     		ldr	r1, [r5, #12]
 669 048c AB68     		ldr	r3, [r5, #8]
 670 048e CB1A     		subs	r3, r1, r3
 671 0490 5942     		rsbs	r1, r3, #0
 672 0492 5941     		adcs	r1, r1, r3
 673 0494 2020     		movs	r0, #32
 674 0496 FFF7FEFF 		bl	_test_assert
 675              	.LVL103:
 676 049a 0028     		cmp	r0, #0
 677 049c 7FF4E7AD 		bne	.L1
 678              		.loc 1 183 0
 679              	@ 183 "../../../test/testmbox.c" 1
 680 04a0 FFF7FEFF 		bl      _port_lock
 681              	@ 0 "" 2
 682              		.thumb
 683 04a4 FFF7FEFF 		bl	dbg_check_lock
 684              	.LVL104:
ARM GAS  /tmp/ccZvnD1b.s 			page 13


 685              		.loc 1 184 0
 686 04a8 40F20000 		movw	r0, #:lower16:.LANCHOR0
 687 04ac 4521     		movs	r1, #69
 688 04ae C0F20000 		movt	r0, #:upper16:.LANCHOR0
 689 04b2 FFF7FEFF 		bl	chMBPostAheadI
 690              	.LVL105:
 691              		.loc 1 185 0
 692 04b6 D0F10101 		rsbs	r1, r0, #1
 693 04ba 38BF     		it	cc
 694 04bc 0021     		movcc	r1, #0
 695 04be 2120     		movs	r0, #33
 696              	.LVL106:
 697 04c0 FFF7FEFF 		bl	_test_assert
 698              	.LVL107:
 699 04c4 0028     		cmp	r0, #0
 700 04c6 7FF4D2AD 		bne	.L1
 701              		.loc 1 186 0
 702 04ca 40F20000 		movw	r0, #:lower16:.LANCHOR0
 703 04ce 4421     		movs	r1, #68
 704 04d0 C0F20000 		movt	r0, #:upper16:.LANCHOR0
 705 04d4 FFF7FEFF 		bl	chMBPostAheadI
 706              	.LVL108:
 707              		.loc 1 187 0
 708 04d8 D0F10101 		rsbs	r1, r0, #1
 709 04dc 38BF     		it	cc
 710 04de 0021     		movcc	r1, #0
 711 04e0 2220     		movs	r0, #34
 712              	.LVL109:
 713 04e2 FFF7FEFF 		bl	_test_assert
 714              	.LVL110:
 715 04e6 0028     		cmp	r0, #0
 716 04e8 7FF4C1AD 		bne	.L1
 717              		.loc 1 188 0
 718 04ec 40F20000 		movw	r0, #:lower16:.LANCHOR0
 719 04f0 4321     		movs	r1, #67
 720 04f2 C0F20000 		movt	r0, #:upper16:.LANCHOR0
 721 04f6 FFF7FEFF 		bl	chMBPostAheadI
 722              	.LVL111:
 723              		.loc 1 189 0
 724 04fa D0F10101 		rsbs	r1, r0, #1
 725 04fe 38BF     		it	cc
 726 0500 0021     		movcc	r1, #0
 727 0502 2320     		movs	r0, #35
 728              	.LVL112:
 729 0504 FFF7FEFF 		bl	_test_assert
 730              	.LVL113:
 731 0508 0028     		cmp	r0, #0
 732 050a 7FF4B0AD 		bne	.L1
 733              		.loc 1 190 0
 734 050e 40F20000 		movw	r0, #:lower16:.LANCHOR0
 735 0512 4221     		movs	r1, #66
 736 0514 C0F20000 		movt	r0, #:upper16:.LANCHOR0
 737 0518 FFF7FEFF 		bl	chMBPostAheadI
 738              	.LVL114:
 739              		.loc 1 191 0
 740 051c D0F10101 		rsbs	r1, r0, #1
 741 0520 38BF     		it	cc
ARM GAS  /tmp/ccZvnD1b.s 			page 14


 742 0522 0021     		movcc	r1, #0
 743 0524 2420     		movs	r0, #36
 744              	.LVL115:
 745 0526 FFF7FEFF 		bl	_test_assert
 746              	.LVL116:
 747 052a 0028     		cmp	r0, #0
 748 052c 7FF49FAD 		bne	.L1
 749              		.loc 1 192 0
 750 0530 40F20000 		movw	r0, #:lower16:.LANCHOR0
 751 0534 4121     		movs	r1, #65
 752 0536 C0F20000 		movt	r0, #:upper16:.LANCHOR0
 753 053a FFF7FEFF 		bl	chMBPostAheadI
 754              	.LVL117:
 755 053e 0446     		mov	r4, r0
 756              	.LVL118:
 757              		.loc 1 193 0
 758 0540 FFF7FEFF 		bl	dbg_check_unlock
 759              	.LVL119:
 760              	@ 193 "../../../test/testmbox.c" 1
 761 0544 FFF7FEFF 		bl      _port_unlock
 762              	@ 0 "" 2
 763              		.loc 1 194 0
 764              		.thumb
 765 0548 D4F10101 		rsbs	r1, r4, #1
 766 054c 38BF     		it	cc
 767 054e 0021     		movcc	r1, #0
 768 0550 2520     		movs	r0, #37
 769 0552 FFF7FEFF 		bl	_test_assert
 770              	.LVL120:
 771 0556 0028     		cmp	r0, #0
 772 0558 7FF489AD 		bne	.L1
 773              		.loc 1 195 0
 774 055c E968     		ldr	r1, [r5, #12]
 775 055e AB68     		ldr	r3, [r5, #8]
 776 0560 B1EB030C 		subs	ip, r1, r3
 777 0564 DCF10001 		rsbs	r1, ip, #0
 778 0568 51EB0C01 		adcs	r1, r1, ip
 779 056c 2620     		movs	r0, #38
 780 056e FFF7FEFF 		bl	_test_assert
 781              	.LVL121:
 782 0572 0028     		cmp	r0, #0
 783 0574 7FF47BAD 		bne	.L1
 784 0578 0524     		movs	r4, #5
 785              	.LVL122:
 786              	.L19:
 787              		.loc 1 197 0
 788              	@ 197 "../../../test/testmbox.c" 1
 789 057a FFF7FEFF 		bl      _port_lock
 790              	@ 0 "" 2
 791              		.thumb
 792 057e FFF7FEFF 		bl	dbg_check_lock
 793              	.LVL123:
 794              		.loc 1 198 0
 795 0582 40F20000 		movw	r0, #:lower16:.LANCHOR0
 796 0586 01A9     		add	r1, sp, #4
 797 0588 C0F20000 		movt	r0, #:upper16:.LANCHOR0
 798 058c FFF7FEFF 		bl	chMBFetchI
ARM GAS  /tmp/ccZvnD1b.s 			page 15


 799              	.LVL124:
 800 0590 0646     		mov	r6, r0
 801              	.LVL125:
 802              		.loc 1 199 0
 803 0592 FFF7FEFF 		bl	dbg_check_unlock
 804              	.LVL126:
 805              	@ 199 "../../../test/testmbox.c" 1
 806 0596 FFF7FEFF 		bl      _port_unlock
 807              	@ 0 "" 2
 808              		.loc 1 200 0
 809              		.thumb
 810 059a D6F10101 		rsbs	r1, r6, #1
 811 059e 38BF     		it	cc
 812 05a0 0021     		movcc	r1, #0
 813 05a2 2720     		movs	r0, #39
 814 05a4 FFF7FEFF 		bl	_test_assert
 815              	.LVL127:
 816 05a8 0028     		cmp	r0, #0
 817 05aa 7FF460AD 		bne	.L1
 818              		.loc 1 201 0
 819 05ae 9DF80400 		ldrb	r0, [sp, #4]	@ zero_extendqisi2
 820 05b2 FFF7FEFF 		bl	test_emit_token
 821              	.LVL128:
 822              		.loc 1 196 0
 823 05b6 013C     		subs	r4, r4, #1
 824              	.LVL129:
 825 05b8 DFD1     		bne	.L19
 826              		.loc 1 203 0
 827 05ba 40F20001 		movw	r1, #:lower16:.LC0
 828 05be C0F20001 		movt	r1, #:upper16:.LC0
 829 05c2 2820     		movs	r0, #40
 830 05c4 FFF7FEFF 		bl	_test_assert_sequence
 831              	.LVL130:
 832 05c8 0028     		cmp	r0, #0
 833 05ca 7FF450AD 		bne	.L1
 834              		.loc 1 204 0
 835              	@ 204 "../../../test/testmbox.c" 1
 836 05ce FFF7FEFF 		bl      _port_lock
 837              	@ 0 "" 2
 838              		.thumb
 839 05d2 FFF7FEFF 		bl	dbg_check_lock
 840              	.LVL131:
 841 05d6 696A     		ldr	r1, [r5, #36]
 842 05d8 B1F1050E 		subs	lr, r1, #5
 843 05dc DEF10001 		rsbs	r1, lr, #0
 844 05e0 51EB0E01 		adcs	r1, r1, lr
 845 05e4 2920     		movs	r0, #41
 846 05e6 FFF7FEFF 		bl	_test_assert
 847              	.LVL132:
 848 05ea 0028     		cmp	r0, #0
 849 05ec 65D1     		bne	.L25
 850              		.loc 1 204 0 is_stmt 0 discriminator 2
 851 05ee FFF7FEFF 		bl	dbg_check_unlock
 852              	.LVL133:
 853              	@ 204 "../../../test/testmbox.c" 1
 854 05f2 FFF7FEFF 		bl      _port_unlock
 855              	@ 0 "" 2
ARM GAS  /tmp/ccZvnD1b.s 			page 16


 856              		.loc 1 205 0 is_stmt 1 discriminator 2
 857              	@ 205 "../../../test/testmbox.c" 1
 858 05f6 FFF7FEFF 		bl      _port_lock
 859              	@ 0 "" 2
 860              		.thumb
 861 05fa FFF7FEFF 		bl	dbg_check_lock
 862              	.LVL134:
 863 05fe A969     		ldr	r1, [r5, #24]
 864 0600 D1F10101 		rsbs	r1, r1, #1
 865 0604 38BF     		it	cc
 866 0606 0021     		movcc	r1, #0
 867 0608 2A20     		movs	r0, #42
 868 060a FFF7FEFF 		bl	_test_assert
 869              	.LVL135:
 870 060e 0028     		cmp	r0, #0
 871 0610 53D1     		bne	.L25
 872 0612 FFF7FEFF 		bl	dbg_check_unlock
 873              	.LVL136:
 874              	@ 205 "../../../test/testmbox.c" 1
 875 0616 FFF7FEFF 		bl      _port_unlock
 876              	@ 0 "" 2
 877              		.loc 1 206 0 discriminator 2
 878              		.thumb
 879 061a E968     		ldr	r1, [r5, #12]
 880 061c AB68     		ldr	r3, [r5, #8]
 881 061e CE1A     		subs	r6, r1, r3
 882              	.LVL137:
 883 0620 7142     		rsbs	r1, r6, #0
 884 0622 7141     		adcs	r1, r1, r6
 885 0624 2B20     		movs	r0, #43
 886 0626 FFF7FEFF 		bl	_test_assert
 887              	.LVL138:
 888 062a 0028     		cmp	r0, #0
 889 062c 7FF41FAD 		bne	.L1
 890              		.loc 1 211 0
 891 0630 40F20000 		movw	r0, #:lower16:.LANCHOR0
 892 0634 C0F20000 		movt	r0, #:upper16:.LANCHOR0
 893 0638 FFF7FEFF 		bl	chMBReset
 894              	.LVL139:
 895              		.loc 1 216 0
 896              	@ 216 "../../../test/testmbox.c" 1
 897 063c FFF7FEFF 		bl      _port_lock
 898              	@ 0 "" 2
 899              		.thumb
 900 0640 FFF7FEFF 		bl	dbg_check_lock
 901              	.LVL140:
 902 0644 696A     		ldr	r1, [r5, #36]
 903 0646 4C1F     		subs	r4, r1, #5
 904              	.LVL141:
 905 0648 6142     		rsbs	r1, r4, #0
 906 064a 6141     		adcs	r1, r1, r4
 907 064c 2C20     		movs	r0, #44
 908 064e FFF7FEFF 		bl	_test_assert
 909              	.LVL142:
 910 0652 90BB     		cbnz	r0, .L25
 911              		.loc 1 216 0 is_stmt 0 discriminator 2
 912 0654 FFF7FEFF 		bl	dbg_check_unlock
ARM GAS  /tmp/ccZvnD1b.s 			page 17


 913              	.LVL143:
 914              	@ 216 "../../../test/testmbox.c" 1
 915 0658 FFF7FEFF 		bl      _port_unlock
 916              	@ 0 "" 2
 917              		.loc 1 217 0 is_stmt 1 discriminator 2
 918              	@ 217 "../../../test/testmbox.c" 1
 919 065c FFF7FEFF 		bl      _port_lock
 920              	@ 0 "" 2
 921              		.thumb
 922 0660 FFF7FEFF 		bl	dbg_check_lock
 923              	.LVL144:
 924 0664 A969     		ldr	r1, [r5, #24]
 925 0666 D1F10101 		rsbs	r1, r1, #1
 926 066a 38BF     		it	cc
 927 066c 0021     		movcc	r1, #0
 928 066e 2D20     		movs	r0, #45
 929 0670 FFF7FEFF 		bl	_test_assert
 930              	.LVL145:
 931 0674 08BB     		cbnz	r0, .L25
 932 0676 FFF7FEFF 		bl	dbg_check_unlock
 933              	.LVL146:
 934              	@ 217 "../../../test/testmbox.c" 1
 935 067a FFF7FEFF 		bl      _port_unlock
 936              	@ 0 "" 2
 937              		.loc 1 218 0 discriminator 2
 938              	@ 218 "../../../test/testmbox.c" 1
 939 067e FFF7FEFF 		bl      _port_lock
 940              	@ 0 "" 2
 941              		.thumb
 942 0682 FFF7FEFF 		bl	dbg_check_lock
 943              	.LVL147:
 944 0686 2968     		ldr	r1, [r5]
 945 0688 AB68     		ldr	r3, [r5, #8]
 946 068a CA1A     		subs	r2, r1, r3
 947 068c 5142     		rsbs	r1, r2, #0
 948 068e 5141     		adcs	r1, r1, r2
 949 0690 2E20     		movs	r0, #46
 950 0692 FFF7FEFF 		bl	_test_assert
 951              	.LVL148:
 952 0696 80B9     		cbnz	r0, .L25
 953 0698 FFF7FEFF 		bl	dbg_check_unlock
 954              	.LVL149:
 955              	@ 218 "../../../test/testmbox.c" 1
 956 069c FFF7FEFF 		bl      _port_unlock
 957              	@ 0 "" 2
 958              		.loc 1 219 0 discriminator 2
 959              	@ 219 "../../../test/testmbox.c" 1
 960 06a0 FFF7FEFF 		bl      _port_lock
 961              	@ 0 "" 2
 962              		.thumb
 963 06a4 FFF7FEFF 		bl	dbg_check_lock
 964              	.LVL150:
 965 06a8 2968     		ldr	r1, [r5]
 966 06aa EB68     		ldr	r3, [r5, #12]
 967 06ac CB1A     		subs	r3, r1, r3
 968 06ae 5942     		rsbs	r1, r3, #0
 969 06b0 4FF02F00 		mov	r0, #47
ARM GAS  /tmp/ccZvnD1b.s 			page 18


 970 06b4 5941     		adcs	r1, r1, r3
 971 06b6 FFF7FEFF 		bl	_test_assert
 972              	.LVL151:
 973              	.L25:
 974 06ba FFF7FEFF 		bl	dbg_check_unlock
 975              	.LVL152:
 976              	@ 219 "../../../test/testmbox.c" 1
 977 06be FFF7FEFF 		bl      _port_unlock
 978              	@ 0 "" 2
 979              		.thumb
 980 06c2 D4E4     		b	.L1
 981              		.cfi_endproc
 982              	.LFE1:
 983              		.size	mbox1_execute, .-mbox1_execute
 984 06c4 AFF30080 		.section	.text.mbox1_setup,"ax",%progbits
 984      AFF30080 
 984      AFF30080 
 985              		.align	2
 986              		.p2align 4,,15
 987              		.thumb
 988              		.thumb_func
 989              		.type	mbox1_setup, %function
 990              	mbox1_setup:
 991              	.LFB0:
 992              		.loc 1 71 0
 993              		.cfi_startproc
 994              		@ args = 0, pretend = 0, frame = 0
 995              		@ frame_needed = 0, uses_anonymous_args = 0
 996              		@ link register save eliminated.
 997              		.loc 1 73 0
 998 0000 40F20000 		movw	r0, #:lower16:.LANCHOR0
 999 0004 40F20001 		movw	r1, #:lower16:test
 1000 0008 C0F20000 		movt	r0, #:upper16:.LANCHOR0
 1001 000c C0F20001 		movt	r1, #:upper16:test
 1002 0010 0522     		movs	r2, #5
 1003 0012 FFF7FEBF 		b	chMBInit
 1004              	.LVL153:
 1005              		.cfi_endproc
 1006              	.LFE0:
 1007              		.size	mbox1_setup, .-mbox1_setup
 1008              		.global	patternmbox
 1009              		.global	testmbox1
 1010              		.section	.data.mb1,"aw",%progbits
 1011              		.align	2
 1012              		.set	.LANCHOR0,. + 0
 1013              		.type	mb1, %object
 1014              		.size	mb1, 40
 1015              	mb1:
 1016 0000 00000000 		.word	test
 1017 0004 14000000 		.word	test+20
 1018 0008 00000000 		.word	test
 1019 000c 00000000 		.word	test
 1020 0010 10000000 		.word	mb1+16
 1021 0014 10000000 		.word	mb1+16
 1022 0018 00000000 		.word	0
 1023 001c 1C000000 		.word	mb1+28
 1024 0020 1C000000 		.word	mb1+28
ARM GAS  /tmp/ccZvnD1b.s 			page 19


 1025 0024 05000000 		.word	5
 1026              		.section	.rodata.patternmbox,"a",%progbits
 1027              		.align	2
 1028              		.type	patternmbox, %object
 1029              		.size	patternmbox, 8
 1030              	patternmbox:
 1031 0000 00000000 		.word	testmbox1
 1032 0004 00000000 		.word	0
 1033              		.section	.rodata.str1.4,"aMS",%progbits,1
 1034              		.align	2
 1035              	.LC0:
 1036 0000 41424344 		.ascii	"ABCDE\000"
 1036      4500
 1037 0006 0000     		.space	2
 1038              	.LC1:
 1039 0008 4D61696C 		.ascii	"Mailboxes, queuing and timeouts\000"
 1039      626F7865 
 1039      732C2071 
 1039      75657569 
 1039      6E672061 
 1040              		.section	.rodata.testmbox1,"a",%progbits
 1041              		.align	2
 1042              		.type	testmbox1, %object
 1043              		.size	testmbox1, 16
 1044              	testmbox1:
 1045 0000 08000000 		.word	.LC1
 1046 0004 00000000 		.word	mbox1_setup
 1047 0008 00000000 		.word	0
 1048 000c 00000000 		.word	mbox1_execute
 1049              		.text
 1050              	.Letext0:
 1051              		.file 2 "/usr/arm-none-eabi/include/machine/_default_types.h"
 1052              		.file 3 "/usr/arm-none-eabi/include/stdint.h"
 1053              		.file 4 "../../../os/ports/GCC/ARMCMx/chtypes.h"
 1054              		.file 5 "../../../os/kernel/include/chlists.h"
 1055              		.file 6 "../../../os/kernel/include/chthreads.h"
 1056              		.file 7 "../../../os/ports/GCC/ARMCMx/chcore_v7m.h"
 1057              		.file 8 "../../../os/kernel/include/chsem.h"
 1058              		.file 9 "../../../os/kernel/include/chmtx.h"
 1059              		.file 10 "../../../os/kernel/include/chmboxes.h"
 1060              		.file 11 "../../../test/test.h"
 1061              		.file 12 "../../../os/kernel/include/chdebug.h"
 1062              		.section	.debug_info,"",%progbits
 1063              	.Ldebug_info0:
 1064 0000 D30F0000 		.4byte	0xfd3
 1065 0004 0400     		.2byte	0x4
 1066 0006 00000000 		.4byte	.Ldebug_abbrev0
 1067 000a 04       		.byte	0x4
 1068 000b 01       		.uleb128 0x1
 1069 000c 2A000000 		.4byte	.LASF95
 1070 0010 01       		.byte	0x1
 1071 0011 31010000 		.4byte	.LASF96
 1072 0015 12020000 		.4byte	.LASF97
 1073 0019 00000000 		.4byte	.Ldebug_ranges0+0
 1074 001d 00000000 		.4byte	0
 1075 0021 00000000 		.4byte	.Ldebug_line0
 1076 0025 02       		.uleb128 0x2
ARM GAS  /tmp/ccZvnD1b.s 			page 20


 1077 0026 04       		.byte	0x4
 1078 0027 05       		.byte	0x5
 1079 0028 696E7400 		.ascii	"int\000"
 1080 002c 03       		.uleb128 0x3
 1081 002d 04       		.byte	0x4
 1082 002e 07       		.byte	0x7
 1083 002f C0010000 		.4byte	.LASF0
 1084 0033 03       		.uleb128 0x3
 1085 0034 01       		.byte	0x1
 1086 0035 06       		.byte	0x6
 1087 0036 25010000 		.4byte	.LASF1
 1088 003a 04       		.uleb128 0x4
 1089 003b 16000000 		.4byte	.LASF5
 1090 003f 02       		.byte	0x2
 1091 0040 1C       		.byte	0x1c
 1092 0041 45000000 		.4byte	0x45
 1093 0045 03       		.uleb128 0x3
 1094 0046 01       		.byte	0x1
 1095 0047 08       		.byte	0x8
 1096 0048 89030000 		.4byte	.LASF2
 1097 004c 03       		.uleb128 0x3
 1098 004d 02       		.byte	0x2
 1099 004e 05       		.byte	0x5
 1100 004f A8030000 		.4byte	.LASF3
 1101 0053 03       		.uleb128 0x3
 1102 0054 02       		.byte	0x2
 1103 0055 07       		.byte	0x7
 1104 0056 69020000 		.4byte	.LASF4
 1105 005a 04       		.uleb128 0x4
 1106 005b 15040000 		.4byte	.LASF6
 1107 005f 02       		.byte	0x2
 1108 0060 37       		.byte	0x37
 1109 0061 65000000 		.4byte	0x65
 1110 0065 03       		.uleb128 0x3
 1111 0066 04       		.byte	0x4
 1112 0067 05       		.byte	0x5
 1113 0068 72010000 		.4byte	.LASF7
 1114 006c 04       		.uleb128 0x4
 1115 006d 9B010000 		.4byte	.LASF8
 1116 0071 02       		.byte	0x2
 1117 0072 38       		.byte	0x38
 1118 0073 77000000 		.4byte	0x77
 1119 0077 03       		.uleb128 0x3
 1120 0078 04       		.byte	0x4
 1121 0079 07       		.byte	0x7
 1122 007a E0010000 		.4byte	.LASF9
 1123 007e 03       		.uleb128 0x3
 1124 007f 08       		.byte	0x8
 1125 0080 05       		.byte	0x5
 1126 0081 17010000 		.4byte	.LASF10
 1127 0085 04       		.uleb128 0x4
 1128 0086 59030000 		.4byte	.LASF11
 1129 008a 02       		.byte	0x2
 1130 008b 4E       		.byte	0x4e
 1131 008c 90000000 		.4byte	0x90
 1132 0090 03       		.uleb128 0x3
 1133 0091 08       		.byte	0x8
ARM GAS  /tmp/ccZvnD1b.s 			page 21


 1134 0092 07       		.byte	0x7
 1135 0093 D6000000 		.4byte	.LASF12
 1136 0097 04       		.uleb128 0x4
 1137 0098 72040000 		.4byte	.LASF13
 1138 009c 03       		.byte	0x3
 1139 009d 2A       		.byte	0x2a
 1140 009e 3A000000 		.4byte	0x3a
 1141 00a2 04       		.uleb128 0x4
 1142 00a3 81030000 		.4byte	.LASF14
 1143 00a7 03       		.byte	0x3
 1144 00a8 41       		.byte	0x41
 1145 00a9 5A000000 		.4byte	0x5a
 1146 00ad 04       		.uleb128 0x4
 1147 00ae EB030000 		.4byte	.LASF15
 1148 00b2 03       		.byte	0x3
 1149 00b3 42       		.byte	0x42
 1150 00b4 6C000000 		.4byte	0x6c
 1151 00b8 04       		.uleb128 0x4
 1152 00b9 0D000000 		.4byte	.LASF16
 1153 00bd 03       		.byte	0x3
 1154 00be 4E       		.byte	0x4e
 1155 00bf 85000000 		.4byte	0x85
 1156 00c3 04       		.uleb128 0x4
 1157 00c4 4A010000 		.4byte	.LASF17
 1158 00c8 04       		.byte	0x4
 1159 00c9 2B       		.byte	0x2b
 1160 00ca CE000000 		.4byte	0xce
 1161 00ce 03       		.uleb128 0x3
 1162 00cf 01       		.byte	0x1
 1163 00d0 02       		.byte	0x2
 1164 00d1 7B030000 		.4byte	.LASF18
 1165 00d5 04       		.uleb128 0x4
 1166 00d6 8D020000 		.4byte	.LASF19
 1167 00da 04       		.byte	0x4
 1168 00db 2C       		.byte	0x2c
 1169 00dc 97000000 		.4byte	0x97
 1170 00e0 04       		.uleb128 0x4
 1171 00e1 7B010000 		.4byte	.LASF20
 1172 00e5 04       		.byte	0x4
 1173 00e6 2D       		.byte	0x2d
 1174 00e7 97000000 		.4byte	0x97
 1175 00eb 04       		.uleb128 0x4
 1176 00ec 73030000 		.4byte	.LASF21
 1177 00f0 04       		.byte	0x4
 1178 00f1 30       		.byte	0x30
 1179 00f2 AD000000 		.4byte	0xad
 1180 00f6 04       		.uleb128 0x4
 1181 00f7 87020000 		.4byte	.LASF22
 1182 00fb 04       		.byte	0x4
 1183 00fc 31       		.byte	0x31
 1184 00fd A2000000 		.4byte	0xa2
 1185 0101 04       		.uleb128 0x4
 1186 0102 AD020000 		.4byte	.LASF23
 1187 0106 04       		.byte	0x4
 1188 0107 33       		.byte	0x33
 1189 0108 AD000000 		.4byte	0xad
 1190 010c 04       		.uleb128 0x4
ARM GAS  /tmp/ccZvnD1b.s 			page 22


 1191 010d 00040000 		.4byte	.LASF24
 1192 0111 04       		.byte	0x4
 1193 0112 35       		.byte	0x35
 1194 0113 AD000000 		.4byte	0xad
 1195 0117 04       		.uleb128 0x4
 1196 0118 AF010000 		.4byte	.LASF25
 1197 011c 04       		.byte	0x4
 1198 011d 36       		.byte	0x36
 1199 011e A2000000 		.4byte	0xa2
 1200 0122 04       		.uleb128 0x4
 1201 0123 D0030000 		.4byte	.LASF26
 1202 0127 05       		.byte	0x5
 1203 0128 2A       		.byte	0x2a
 1204 0129 2D010000 		.4byte	0x12d
 1205 012d 05       		.uleb128 0x5
 1206 012e D0030000 		.4byte	.LASF26
 1207 0132 48       		.byte	0x48
 1208 0133 06       		.byte	0x6
 1209 0134 5E       		.byte	0x5e
 1210 0135 12020000 		.4byte	0x212
 1211 0139 06       		.uleb128 0x6
 1212 013a C1030000 		.4byte	.LASF27
 1213 013e 06       		.byte	0x6
 1214 013f 5F       		.byte	0x5f
 1215 0140 33020000 		.4byte	0x233
 1216 0144 00       		.byte	0
 1217 0145 06       		.uleb128 0x6
 1218 0146 64030000 		.4byte	.LASF28
 1219 014a 06       		.byte	0x6
 1220 014b 61       		.byte	0x61
 1221 014c 33020000 		.4byte	0x233
 1222 0150 04       		.byte	0x4
 1223 0151 06       		.uleb128 0x6
 1224 0152 10010000 		.4byte	.LASF29
 1225 0156 06       		.byte	0x6
 1226 0157 63       		.byte	0x63
 1227 0158 EB000000 		.4byte	0xeb
 1228 015c 08       		.byte	0x8
 1229 015d 06       		.uleb128 0x6
 1230 015e A5040000 		.4byte	.LASF30
 1231 0162 06       		.byte	0x6
 1232 0163 64       		.byte	0x64
 1233 0164 F8020000 		.4byte	0x2f8
 1234 0168 0C       		.byte	0xc
 1235 0169 06       		.uleb128 0x6
 1236 016a 8B010000 		.4byte	.LASF31
 1237 016e 06       		.byte	0x6
 1238 016f 66       		.byte	0x66
 1239 0170 33020000 		.4byte	0x233
 1240 0174 10       		.byte	0x10
 1241 0175 06       		.uleb128 0x6
 1242 0176 F0020000 		.4byte	.LASF32
 1243 017a 06       		.byte	0x6
 1244 017b 67       		.byte	0x67
 1245 017c 33020000 		.4byte	0x233
 1246 0180 14       		.byte	0x14
 1247 0181 06       		.uleb128 0x6
ARM GAS  /tmp/ccZvnD1b.s 			page 23


 1248 0182 81040000 		.4byte	.LASF33
 1249 0186 06       		.byte	0x6
 1250 0187 6E       		.byte	0x6e
 1251 0188 2E040000 		.4byte	0x42e
 1252 018c 18       		.byte	0x18
 1253 018d 06       		.uleb128 0x6
 1254 018e B5010000 		.4byte	.LASF34
 1255 0192 06       		.byte	0x6
 1256 0193 74       		.byte	0x74
 1257 0194 40040000 		.4byte	0x440
 1258 0198 1C       		.byte	0x1c
 1259 0199 06       		.uleb128 0x6
 1260 019a B2030000 		.4byte	.LASF35
 1261 019e 06       		.byte	0x6
 1262 019f 79       		.byte	0x79
 1263 01a0 E0000000 		.4byte	0xe0
 1264 01a4 20       		.byte	0x20
 1265 01a5 06       		.uleb128 0x6
 1266 01a6 C8030000 		.4byte	.LASF36
 1267 01aa 06       		.byte	0x6
 1268 01ab 7D       		.byte	0x7d
 1269 01ac D5000000 		.4byte	0xd5
 1270 01b0 21       		.byte	0x21
 1271 01b1 06       		.uleb128 0x6
 1272 01b2 1F040000 		.4byte	.LASF37
 1273 01b6 06       		.byte	0x6
 1274 01b7 8F       		.byte	0x8f
 1275 01b8 20030000 		.4byte	0x320
 1276 01bc 24       		.byte	0x24
 1277 01bd 07       		.uleb128 0x7
 1278 01be 705F7500 		.ascii	"p_u\000"
 1279 01c2 06       		.byte	0x6
 1280 01c3 B4       		.byte	0xb4
 1281 01c4 F9030000 		.4byte	0x3f9
 1282 01c8 28       		.byte	0x28
 1283 01c9 06       		.uleb128 0x6
 1284 01ca AB040000 		.4byte	.LASF38
 1285 01ce 06       		.byte	0x6
 1286 01cf B9       		.byte	0xb9
 1287 01d0 59020000 		.4byte	0x259
 1288 01d4 2C       		.byte	0x2c
 1289 01d5 06       		.uleb128 0x6
 1290 01d6 3B040000 		.4byte	.LASF39
 1291 01da 06       		.byte	0x6
 1292 01db BF       		.byte	0xbf
 1293 01dc 39020000 		.4byte	0x239
 1294 01e0 30       		.byte	0x30
 1295 01e1 06       		.uleb128 0x6
 1296 01e2 00000000 		.4byte	.LASF40
 1297 01e6 06       		.byte	0x6
 1298 01e7 C3       		.byte	0xc3
 1299 01e8 F6000000 		.4byte	0xf6
 1300 01ec 38       		.byte	0x38
 1301 01ed 06       		.uleb128 0x6
 1302 01ee E0030000 		.4byte	.LASF41
 1303 01f2 06       		.byte	0x6
 1304 01f3 C9       		.byte	0xc9
ARM GAS  /tmp/ccZvnD1b.s 			page 24


 1305 01f4 01010000 		.4byte	0x101
 1306 01f8 3C       		.byte	0x3c
 1307 01f9 06       		.uleb128 0x6
 1308 01fa 9E030000 		.4byte	.LASF42
 1309 01fe 06       		.byte	0x6
 1310 01ff D0       		.byte	0xd0
 1311 0200 46040000 		.4byte	0x446
 1312 0204 40       		.byte	0x40
 1313 0205 06       		.uleb128 0x6
 1314 0206 0A040000 		.4byte	.LASF43
 1315 020a 06       		.byte	0x6
 1316 020b D4       		.byte	0xd4
 1317 020c EB000000 		.4byte	0xeb
 1318 0210 44       		.byte	0x44
 1319 0211 00       		.byte	0
 1320 0212 08       		.uleb128 0x8
 1321 0213 08       		.byte	0x8
 1322 0214 05       		.byte	0x5
 1323 0215 61       		.byte	0x61
 1324 0216 33020000 		.4byte	0x233
 1325 021a 06       		.uleb128 0x6
 1326 021b C1030000 		.4byte	.LASF27
 1327 021f 05       		.byte	0x5
 1328 0220 62       		.byte	0x62
 1329 0221 33020000 		.4byte	0x233
 1330 0225 00       		.byte	0
 1331 0226 06       		.uleb128 0x6
 1332 0227 64030000 		.4byte	.LASF28
 1333 022b 05       		.byte	0x5
 1334 022c 64       		.byte	0x64
 1335 022d 33020000 		.4byte	0x233
 1336 0231 04       		.byte	0x4
 1337 0232 00       		.byte	0
 1338 0233 09       		.uleb128 0x9
 1339 0234 04       		.byte	0x4
 1340 0235 22010000 		.4byte	0x122
 1341 0239 04       		.uleb128 0x4
 1342 023a F8020000 		.4byte	.LASF44
 1343 023e 05       		.byte	0x5
 1344 023f 66       		.byte	0x66
 1345 0240 12020000 		.4byte	0x212
 1346 0244 08       		.uleb128 0x8
 1347 0245 04       		.byte	0x4
 1348 0246 05       		.byte	0x5
 1349 0247 6B       		.byte	0x6b
 1350 0248 59020000 		.4byte	0x259
 1351 024c 06       		.uleb128 0x6
 1352 024d C1030000 		.4byte	.LASF27
 1353 0251 05       		.byte	0x5
 1354 0252 6D       		.byte	0x6d
 1355 0253 33020000 		.4byte	0x233
 1356 0257 00       		.byte	0
 1357 0258 00       		.byte	0
 1358 0259 04       		.uleb128 0x4
 1359 025a A1020000 		.4byte	.LASF45
 1360 025e 05       		.byte	0x5
 1361 025f 70       		.byte	0x70
ARM GAS  /tmp/ccZvnD1b.s 			page 25


 1362 0260 44020000 		.4byte	0x244
 1363 0264 04       		.uleb128 0x4
 1364 0265 A6010000 		.4byte	.LASF46
 1365 0269 07       		.byte	0x7
 1366 026a E5       		.byte	0xe5
 1367 026b 6F020000 		.4byte	0x26f
 1368 026f 0A       		.uleb128 0xa
 1369 0270 04       		.byte	0x4
 1370 0271 04       		.uleb128 0x4
 1371 0272 C9020000 		.4byte	.LASF47
 1372 0276 07       		.byte	0x7
 1373 0277 EB       		.byte	0xeb
 1374 0278 B8000000 		.4byte	0xb8
 1375 027c 0B       		.uleb128 0xb
 1376 027d 34040000 		.4byte	.LASF48
 1377 0281 24       		.byte	0x24
 1378 0282 07       		.byte	0x7
 1379 0283 0C01     		.2byte	0x10c
 1380 0285 F8020000 		.4byte	0x2f8
 1381 0289 0C       		.uleb128 0xc
 1382 028a 723400   		.ascii	"r4\000"
 1383 028d 07       		.byte	0x7
 1384 028e 1F01     		.2byte	0x11f
 1385 0290 64020000 		.4byte	0x264
 1386 0294 00       		.byte	0
 1387 0295 0C       		.uleb128 0xc
 1388 0296 723500   		.ascii	"r5\000"
 1389 0299 07       		.byte	0x7
 1390 029a 2001     		.2byte	0x120
 1391 029c 64020000 		.4byte	0x264
 1392 02a0 04       		.byte	0x4
 1393 02a1 0C       		.uleb128 0xc
 1394 02a2 723600   		.ascii	"r6\000"
 1395 02a5 07       		.byte	0x7
 1396 02a6 2101     		.2byte	0x121
 1397 02a8 64020000 		.4byte	0x264
 1398 02ac 08       		.byte	0x8
 1399 02ad 0C       		.uleb128 0xc
 1400 02ae 723700   		.ascii	"r7\000"
 1401 02b1 07       		.byte	0x7
 1402 02b2 2201     		.2byte	0x122
 1403 02b4 64020000 		.4byte	0x264
 1404 02b8 0C       		.byte	0xc
 1405 02b9 0C       		.uleb128 0xc
 1406 02ba 723800   		.ascii	"r8\000"
 1407 02bd 07       		.byte	0x7
 1408 02be 2301     		.2byte	0x123
 1409 02c0 64020000 		.4byte	0x264
 1410 02c4 10       		.byte	0x10
 1411 02c5 0C       		.uleb128 0xc
 1412 02c6 723900   		.ascii	"r9\000"
 1413 02c9 07       		.byte	0x7
 1414 02ca 2401     		.2byte	0x124
 1415 02cc 64020000 		.4byte	0x264
 1416 02d0 14       		.byte	0x14
 1417 02d1 0C       		.uleb128 0xc
 1418 02d2 72313000 		.ascii	"r10\000"
ARM GAS  /tmp/ccZvnD1b.s 			page 26


 1419 02d6 07       		.byte	0x7
 1420 02d7 2501     		.2byte	0x125
 1421 02d9 64020000 		.4byte	0x264
 1422 02dd 18       		.byte	0x18
 1423 02de 0C       		.uleb128 0xc
 1424 02df 72313100 		.ascii	"r11\000"
 1425 02e3 07       		.byte	0x7
 1426 02e4 2601     		.2byte	0x126
 1427 02e6 64020000 		.4byte	0x264
 1428 02ea 1C       		.byte	0x1c
 1429 02eb 0C       		.uleb128 0xc
 1430 02ec 6C7200   		.ascii	"lr\000"
 1431 02ef 07       		.byte	0x7
 1432 02f0 2701     		.2byte	0x127
 1433 02f2 64020000 		.4byte	0x264
 1434 02f6 20       		.byte	0x20
 1435 02f7 00       		.byte	0
 1436 02f8 0B       		.uleb128 0xb
 1437 02f9 61020000 		.4byte	.LASF49
 1438 02fd 04       		.byte	0x4
 1439 02fe 07       		.byte	0x7
 1440 02ff 3101     		.2byte	0x131
 1441 0301 13030000 		.4byte	0x313
 1442 0305 0C       		.uleb128 0xc
 1443 0306 72313300 		.ascii	"r13\000"
 1444 030a 07       		.byte	0x7
 1445 030b 3201     		.2byte	0x132
 1446 030d 13030000 		.4byte	0x313
 1447 0311 00       		.byte	0
 1448 0312 00       		.byte	0
 1449 0313 09       		.uleb128 0x9
 1450 0314 04       		.byte	0x4
 1451 0315 7C020000 		.4byte	0x27c
 1452 0319 03       		.uleb128 0x3
 1453 031a 04       		.byte	0x4
 1454 031b 07       		.byte	0x7
 1455 031c D4020000 		.4byte	.LASF50
 1456 0320 0D       		.uleb128 0xd
 1457 0321 0C010000 		.4byte	0x10c
 1458 0325 05       		.uleb128 0x5
 1459 0326 50040000 		.4byte	.LASF51
 1460 032a 0C       		.byte	0xc
 1461 032b 08       		.byte	0x8
 1462 032c 2C       		.byte	0x2c
 1463 032d 4A030000 		.4byte	0x34a
 1464 0331 06       		.uleb128 0x6
 1465 0332 93010000 		.4byte	.LASF52
 1466 0336 08       		.byte	0x8
 1467 0337 2D       		.byte	0x2d
 1468 0338 39020000 		.4byte	0x239
 1469 033c 00       		.byte	0
 1470 033d 06       		.uleb128 0x6
 1471 033e 0C020000 		.4byte	.LASF53
 1472 0342 08       		.byte	0x8
 1473 0343 2F       		.byte	0x2f
 1474 0344 17010000 		.4byte	0x117
 1475 0348 08       		.byte	0x8
ARM GAS  /tmp/ccZvnD1b.s 			page 27


 1476 0349 00       		.byte	0
 1477 034a 04       		.uleb128 0x4
 1478 034b 50040000 		.4byte	.LASF51
 1479 034f 08       		.byte	0x8
 1480 0350 30       		.byte	0x30
 1481 0351 25030000 		.4byte	0x325
 1482 0355 05       		.uleb128 0x5
 1483 0356 B9020000 		.4byte	.LASF54
 1484 035a 10       		.byte	0x10
 1485 035b 09       		.byte	0x9
 1486 035c 2C       		.byte	0x2c
 1487 035d 86030000 		.4byte	0x386
 1488 0361 06       		.uleb128 0x6
 1489 0362 51010000 		.4byte	.LASF55
 1490 0366 09       		.byte	0x9
 1491 0367 2D       		.byte	0x2d
 1492 0368 39020000 		.4byte	0x239
 1493 036c 00       		.byte	0
 1494 036d 06       		.uleb128 0x6
 1495 036e 9D040000 		.4byte	.LASF56
 1496 0372 09       		.byte	0x9
 1497 0373 2F       		.byte	0x2f
 1498 0374 33020000 		.4byte	0x233
 1499 0378 08       		.byte	0x8
 1500 0379 06       		.uleb128 0x6
 1501 037a F9030000 		.4byte	.LASF57
 1502 037e 09       		.byte	0x9
 1503 037f 31       		.byte	0x31
 1504 0380 86030000 		.4byte	0x386
 1505 0384 0C       		.byte	0xc
 1506 0385 00       		.byte	0
 1507 0386 09       		.uleb128 0x9
 1508 0387 04       		.byte	0x4
 1509 0388 55030000 		.4byte	0x355
 1510 038c 04       		.uleb128 0x4
 1511 038d B9020000 		.4byte	.LASF54
 1512 0391 09       		.byte	0x9
 1513 0392 33       		.byte	0x33
 1514 0393 55030000 		.4byte	0x355
 1515 0397 08       		.uleb128 0x8
 1516 0398 28       		.byte	0x28
 1517 0399 0A       		.byte	0xa
 1518 039a 33       		.byte	0x33
 1519 039b E8030000 		.4byte	0x3e8
 1520 039f 06       		.uleb128 0x6
 1521 03a0 21030000 		.4byte	.LASF58
 1522 03a4 0A       		.byte	0xa
 1523 03a5 34       		.byte	0x34
 1524 03a6 E8030000 		.4byte	0x3e8
 1525 03aa 00       		.byte	0
 1526 03ab 06       		.uleb128 0x6
 1527 03ac 97030000 		.4byte	.LASF59
 1528 03b0 0A       		.byte	0xa
 1529 03b1 36       		.byte	0x36
 1530 03b2 E8030000 		.4byte	0x3e8
 1531 03b6 04       		.byte	0x4
 1532 03b7 06       		.uleb128 0x6
ARM GAS  /tmp/ccZvnD1b.s 			page 28


 1533 03b8 07010000 		.4byte	.LASF60
 1534 03bc 0A       		.byte	0xa
 1535 03bd 38       		.byte	0x38
 1536 03be E8030000 		.4byte	0x3e8
 1537 03c2 08       		.byte	0x8
 1538 03c3 06       		.uleb128 0x6
 1539 03c4 DD020000 		.4byte	.LASF61
 1540 03c8 0A       		.byte	0xa
 1541 03c9 39       		.byte	0x39
 1542 03ca E8030000 		.4byte	0x3e8
 1543 03ce 0C       		.byte	0xc
 1544 03cf 06       		.uleb128 0x6
 1545 03d0 5A040000 		.4byte	.LASF62
 1546 03d4 0A       		.byte	0xa
 1547 03d5 3A       		.byte	0x3a
 1548 03d6 4A030000 		.4byte	0x34a
 1549 03da 10       		.byte	0x10
 1550 03db 06       		.uleb128 0x6
 1551 03dc FB010000 		.4byte	.LASF63
 1552 03e0 0A       		.byte	0xa
 1553 03e1 3C       		.byte	0x3c
 1554 03e2 4A030000 		.4byte	0x34a
 1555 03e6 1C       		.byte	0x1c
 1556 03e7 00       		.byte	0
 1557 03e8 09       		.uleb128 0x9
 1558 03e9 04       		.byte	0x4
 1559 03ea F6000000 		.4byte	0xf6
 1560 03ee 04       		.uleb128 0x4
 1561 03ef 95040000 		.4byte	.LASF64
 1562 03f3 0A       		.byte	0xa
 1563 03f4 3E       		.byte	0x3e
 1564 03f5 97030000 		.4byte	0x397
 1565 03f9 0E       		.uleb128 0xe
 1566 03fa 04       		.byte	0x4
 1567 03fb 06       		.byte	0x6
 1568 03fc 96       		.byte	0x96
 1569 03fd 2E040000 		.4byte	0x42e
 1570 0401 0F       		.uleb128 0xf
 1571 0402 06000000 		.4byte	.LASF65
 1572 0406 06       		.byte	0x6
 1573 0407 9D       		.byte	0x9d
 1574 0408 F6000000 		.4byte	0xf6
 1575 040c 0F       		.uleb128 0xf
 1576 040d F9000000 		.4byte	.LASF66
 1577 0411 06       		.byte	0x6
 1578 0412 A4       		.byte	0xa4
 1579 0413 F6000000 		.4byte	0xf6
 1580 0417 0F       		.uleb128 0xf
 1581 0418 7A040000 		.4byte	.LASF67
 1582 041c 06       		.byte	0x6
 1583 041d AB       		.byte	0xab
 1584 041e 6F020000 		.4byte	0x26f
 1585 0422 0F       		.uleb128 0xf
 1586 0423 BA030000 		.4byte	.LASF68
 1587 0427 06       		.byte	0x6
 1588 0428 B2       		.byte	0xb2
 1589 0429 01010000 		.4byte	0x101
ARM GAS  /tmp/ccZvnD1b.s 			page 29


 1590 042d 00       		.byte	0
 1591 042e 09       		.uleb128 0x9
 1592 042f 04       		.byte	0x4
 1593 0430 34040000 		.4byte	0x434
 1594 0434 10       		.uleb128 0x10
 1595 0435 39040000 		.4byte	0x439
 1596 0439 03       		.uleb128 0x3
 1597 043a 01       		.byte	0x1
 1598 043b 08       		.byte	0x8
 1599 043c F4030000 		.4byte	.LASF69
 1600 0440 09       		.uleb128 0x9
 1601 0441 04       		.byte	0x4
 1602 0442 71020000 		.4byte	0x271
 1603 0446 09       		.uleb128 0x9
 1604 0447 04       		.byte	0x4
 1605 0448 8C030000 		.4byte	0x38c
 1606 044c 05       		.uleb128 0x5
 1607 044d D7030000 		.4byte	.LASF70
 1608 0451 10       		.byte	0x10
 1609 0452 0B       		.byte	0xb
 1610 0453 3B       		.byte	0x3b
 1611 0454 89040000 		.4byte	0x489
 1612 0458 06       		.uleb128 0x6
 1613 0459 07020000 		.4byte	.LASF71
 1614 045d 0B       		.byte	0xb
 1615 045e 3C       		.byte	0x3c
 1616 045f 2E040000 		.4byte	0x42e
 1617 0463 00       		.byte	0
 1618 0464 06       		.uleb128 0x6
 1619 0465 05030000 		.4byte	.LASF72
 1620 0469 0B       		.byte	0xb
 1621 046a 3D       		.byte	0x3d
 1622 046b 8A040000 		.4byte	0x48a
 1623 046f 04       		.byte	0x4
 1624 0470 06       		.uleb128 0x6
 1625 0471 F2010000 		.4byte	.LASF73
 1626 0475 0B       		.byte	0xb
 1627 0476 3E       		.byte	0x3e
 1628 0477 8A040000 		.4byte	0x48a
 1629 047b 08       		.byte	0x8
 1630 047c 06       		.uleb128 0x6
 1631 047d 6B030000 		.4byte	.LASF74
 1632 0481 0B       		.byte	0xb
 1633 0482 3F       		.byte	0x3f
 1634 0483 8A040000 		.4byte	0x48a
 1635 0487 0C       		.byte	0xc
 1636 0488 00       		.byte	0
 1637 0489 11       		.uleb128 0x11
 1638 048a 09       		.uleb128 0x9
 1639 048b 04       		.byte	0x4
 1640 048c 89040000 		.4byte	0x489
 1641 0490 12       		.uleb128 0x12
 1642 0491 F005     		.2byte	0x5f0
 1643 0493 0B       		.byte	0xb
 1644 0494 44       		.byte	0x44
 1645 0495 D5040000 		.4byte	0x4d5
 1646 0499 07       		.uleb128 0x7
ARM GAS  /tmp/ccZvnD1b.s 			page 30


 1647 049a 543000   		.ascii	"T0\000"
 1648 049d 0B       		.byte	0xb
 1649 049e 45       		.byte	0x45
 1650 049f D5040000 		.4byte	0x4d5
 1651 04a3 00       		.byte	0
 1652 04a4 13       		.uleb128 0x13
 1653 04a5 543100   		.ascii	"T1\000"
 1654 04a8 0B       		.byte	0xb
 1655 04a9 46       		.byte	0x46
 1656 04aa D5040000 		.4byte	0x4d5
 1657 04ae 3001     		.2byte	0x130
 1658 04b0 13       		.uleb128 0x13
 1659 04b1 543200   		.ascii	"T2\000"
 1660 04b4 0B       		.byte	0xb
 1661 04b5 47       		.byte	0x47
 1662 04b6 D5040000 		.4byte	0x4d5
 1663 04ba 6002     		.2byte	0x260
 1664 04bc 13       		.uleb128 0x13
 1665 04bd 543300   		.ascii	"T3\000"
 1666 04c0 0B       		.byte	0xb
 1667 04c1 48       		.byte	0x48
 1668 04c2 D5040000 		.4byte	0x4d5
 1669 04c6 9003     		.2byte	0x390
 1670 04c8 13       		.uleb128 0x13
 1671 04c9 543400   		.ascii	"T4\000"
 1672 04cc 0B       		.byte	0xb
 1673 04cd 49       		.byte	0x49
 1674 04ce D5040000 		.4byte	0x4d5
 1675 04d2 C004     		.2byte	0x4c0
 1676 04d4 00       		.byte	0
 1677 04d5 14       		.uleb128 0x14
 1678 04d6 71020000 		.4byte	0x271
 1679 04da E5040000 		.4byte	0x4e5
 1680 04de 15       		.uleb128 0x15
 1681 04df 19030000 		.4byte	0x319
 1682 04e3 25       		.byte	0x25
 1683 04e4 00       		.byte	0
 1684 04e5 16       		.uleb128 0x16
 1685 04e6 65040000 		.4byte	.LASF98
 1686 04ea F005     		.2byte	0x5f0
 1687 04ec 0B       		.byte	0xb
 1688 04ed 43       		.byte	0x43
 1689 04ee 08050000 		.4byte	0x508
 1690 04f2 17       		.uleb128 0x17
 1691 04f3 776100   		.ascii	"wa\000"
 1692 04f6 0B       		.byte	0xb
 1693 04f7 4A       		.byte	0x4a
 1694 04f8 90040000 		.4byte	0x490
 1695 04fc 0F       		.uleb128 0xf
 1696 04fd 84010000 		.4byte	.LASF75
 1697 0501 0B       		.byte	0xb
 1698 0502 4B       		.byte	0x4b
 1699 0503 08050000 		.4byte	0x508
 1700 0507 00       		.byte	0
 1701 0508 14       		.uleb128 0x14
 1702 0509 97000000 		.4byte	0x97
 1703 050d 19050000 		.4byte	0x519
ARM GAS  /tmp/ccZvnD1b.s 			page 31


 1704 0511 18       		.uleb128 0x18
 1705 0512 19030000 		.4byte	0x319
 1706 0516 EF05     		.2byte	0x5ef
 1707 0518 00       		.byte	0
 1708 0519 19       		.uleb128 0x19
 1709 051a 2B030000 		.4byte	.LASF78
 1710 051e 01       		.byte	0x1
 1711 051f 4C       		.byte	0x4c
 1712 0520 00000000 		.4byte	.LFB1
 1713 0524 C4060000 		.4byte	.LFE1-.LFB1
 1714 0528 01       		.uleb128 0x1
 1715 0529 9C       		.byte	0x9c
 1716 052a 180E0000 		.4byte	0xe18
 1717 052e 1A       		.uleb128 0x1a
 1718 052f D6010000 		.4byte	.LASF76
 1719 0533 01       		.byte	0x1
 1720 0534 4D       		.byte	0x4d
 1721 0535 F6000000 		.4byte	0xf6
 1722 0539 00000000 		.4byte	.LLST0
 1723 053d 1B       		.uleb128 0x1b
 1724 053e DB010000 		.4byte	.LASF77
 1725 0542 01       		.byte	0x1
 1726 0543 4D       		.byte	0x4d
 1727 0544 F6000000 		.4byte	0xf6
 1728 0548 02       		.uleb128 0x2
 1729 0549 91       		.byte	0x91
 1730 054a 6C       		.sleb128 -20
 1731 054b 1C       		.uleb128 0x1c
 1732 054c 6900     		.ascii	"i\000"
 1733 054e 01       		.byte	0x1
 1734 054f 4E       		.byte	0x4e
 1735 0550 2C000000 		.4byte	0x2c
 1736 0554 86010000 		.4byte	.LLST1
 1737 0558 1D       		.uleb128 0x1d
 1738 0559 20000000 		.4byte	.LVL0
 1739 055d A40E0000 		.4byte	0xea4
 1740 0561 6B050000 		.4byte	0x56b
 1741 0565 1E       		.uleb128 0x1e
 1742 0566 01       		.uleb128 0x1
 1743 0567 50       		.byte	0x50
 1744 0568 01       		.uleb128 0x1
 1745 0569 31       		.byte	0x31
 1746 056a 00       		.byte	0
 1747 056b 1D       		.uleb128 0x1d
 1748 056c 36000000 		.4byte	.LVL2
 1749 0570 BE0E0000 		.4byte	0xebe
 1750 0574 8E050000 		.4byte	0x58e
 1751 0578 1E       		.uleb128 0x1e
 1752 0579 01       		.uleb128 0x1
 1753 057a 52       		.byte	0x52
 1754 057b 02       		.uleb128 0x2
 1755 057c 09       		.byte	0x9
 1756 057d FF       		.byte	0xff
 1757 057e 1E       		.uleb128 0x1e
 1758 057f 01       		.uleb128 0x1
 1759 0580 51       		.byte	0x51
 1760 0581 02       		.uleb128 0x2
ARM GAS  /tmp/ccZvnD1b.s 			page 32


 1761 0582 74       		.byte	0x74
 1762 0583 00       		.sleb128 0
 1763 0584 1E       		.uleb128 0x1e
 1764 0585 01       		.uleb128 0x1
 1765 0586 50       		.byte	0x50
 1766 0587 05       		.uleb128 0x5
 1767 0588 03       		.byte	0x3
 1768 0589 00000000 		.4byte	.LANCHOR0
 1769 058d 00       		.byte	0
 1770 058e 1D       		.uleb128 0x1d
 1771 058f 46000000 		.4byte	.LVL5
 1772 0593 A40E0000 		.4byte	0xea4
 1773 0597 A1050000 		.4byte	0x5a1
 1774 059b 1E       		.uleb128 0x1e
 1775 059c 01       		.uleb128 0x1
 1776 059d 50       		.byte	0x50
 1777 059e 01       		.uleb128 0x1
 1778 059f 32       		.byte	0x32
 1779 05a0 00       		.byte	0
 1780 05a1 1D       		.uleb128 0x1d
 1781 05a2 5E000000 		.4byte	.LVL6
 1782 05a6 E30E0000 		.4byte	0xee3
 1783 05aa C4050000 		.4byte	0x5c4
 1784 05ae 1E       		.uleb128 0x1e
 1785 05af 01       		.uleb128 0x1
 1786 05b0 52       		.byte	0x52
 1787 05b1 02       		.uleb128 0x2
 1788 05b2 09       		.byte	0x9
 1789 05b3 FF       		.byte	0xff
 1790 05b4 1E       		.uleb128 0x1e
 1791 05b5 01       		.uleb128 0x1
 1792 05b6 51       		.byte	0x51
 1793 05b7 02       		.uleb128 0x2
 1794 05b8 08       		.byte	0x8
 1795 05b9 41       		.byte	0x41
 1796 05ba 1E       		.uleb128 0x1e
 1797 05bb 01       		.uleb128 0x1
 1798 05bc 50       		.byte	0x50
 1799 05bd 05       		.uleb128 0x5
 1800 05be 03       		.byte	0x3
 1801 05bf 00000000 		.4byte	.LANCHOR0
 1802 05c3 00       		.byte	0
 1803 05c4 1D       		.uleb128 0x1d
 1804 05c5 6C000000 		.4byte	.LVL8
 1805 05c9 A40E0000 		.4byte	0xea4
 1806 05cd D7050000 		.4byte	0x5d7
 1807 05d1 1E       		.uleb128 0x1e
 1808 05d2 01       		.uleb128 0x1
 1809 05d3 50       		.byte	0x50
 1810 05d4 01       		.uleb128 0x1
 1811 05d5 33       		.byte	0x33
 1812 05d6 00       		.byte	0
 1813 05d7 1D       		.uleb128 0x1d
 1814 05d8 82000000 		.4byte	.LVL9
 1815 05dc BE0E0000 		.4byte	0xebe
 1816 05e0 F9050000 		.4byte	0x5f9
 1817 05e4 1E       		.uleb128 0x1e
ARM GAS  /tmp/ccZvnD1b.s 			page 33


 1818 05e5 01       		.uleb128 0x1
 1819 05e6 52       		.byte	0x52
 1820 05e7 01       		.uleb128 0x1
 1821 05e8 31       		.byte	0x31
 1822 05e9 1E       		.uleb128 0x1e
 1823 05ea 01       		.uleb128 0x1
 1824 05eb 51       		.byte	0x51
 1825 05ec 02       		.uleb128 0x2
 1826 05ed 08       		.byte	0x8
 1827 05ee 58       		.byte	0x58
 1828 05ef 1E       		.uleb128 0x1e
 1829 05f0 01       		.uleb128 0x1
 1830 05f1 50       		.byte	0x50
 1831 05f2 05       		.uleb128 0x5
 1832 05f3 03       		.byte	0x3
 1833 05f4 00000000 		.4byte	.LANCHOR0
 1834 05f8 00       		.byte	0
 1835 05f9 1D       		.uleb128 0x1d
 1836 05fa 90000000 		.4byte	.LVL11
 1837 05fe A40E0000 		.4byte	0xea4
 1838 0602 14060000 		.4byte	0x614
 1839 0606 1E       		.uleb128 0x1e
 1840 0607 01       		.uleb128 0x1
 1841 0608 51       		.byte	0x51
 1842 0609 04       		.uleb128 0x4
 1843 060a 76       		.byte	0x76
 1844 060b 00       		.sleb128 0
 1845 060c 30       		.byte	0x30
 1846 060d 29       		.byte	0x29
 1847 060e 1E       		.uleb128 0x1e
 1848 060f 01       		.uleb128 0x1
 1849 0610 50       		.byte	0x50
 1850 0611 01       		.uleb128 0x1
 1851 0612 34       		.byte	0x34
 1852 0613 00       		.byte	0
 1853 0614 1F       		.uleb128 0x1f
 1854 0615 9C000000 		.4byte	.LVL12
 1855 0619 020F0000 		.4byte	0xf02
 1856 061d 1D       		.uleb128 0x1d
 1857 061e AA000000 		.4byte	.LVL13
 1858 0622 090F0000 		.4byte	0xf09
 1859 0626 3A060000 		.4byte	0x63a
 1860 062a 1E       		.uleb128 0x1e
 1861 062b 01       		.uleb128 0x1
 1862 062c 51       		.byte	0x51
 1863 062d 02       		.uleb128 0x2
 1864 062e 08       		.byte	0x8
 1865 062f 58       		.byte	0x58
 1866 0630 1E       		.uleb128 0x1e
 1867 0631 01       		.uleb128 0x1
 1868 0632 50       		.byte	0x50
 1869 0633 05       		.uleb128 0x5
 1870 0634 03       		.byte	0x3
 1871 0635 00000000 		.4byte	.LANCHOR0
 1872 0639 00       		.byte	0
 1873 063a 1F       		.uleb128 0x1f
 1874 063b B0000000 		.4byte	.LVL15
ARM GAS  /tmp/ccZvnD1b.s 			page 34


 1875 063f 230F0000 		.4byte	0xf23
 1876 0643 1D       		.uleb128 0x1d
 1877 0644 C2000000 		.4byte	.LVL17
 1878 0648 A40E0000 		.4byte	0xea4
 1879 064c 5E060000 		.4byte	0x65e
 1880 0650 1E       		.uleb128 0x1e
 1881 0651 01       		.uleb128 0x1
 1882 0652 51       		.byte	0x51
 1883 0653 04       		.uleb128 0x4
 1884 0654 74       		.byte	0x74
 1885 0655 00       		.sleb128 0
 1886 0656 30       		.byte	0x30
 1887 0657 29       		.byte	0x29
 1888 0658 1E       		.uleb128 0x1e
 1889 0659 01       		.uleb128 0x1
 1890 065a 50       		.byte	0x50
 1891 065b 01       		.uleb128 0x1
 1892 065c 35       		.byte	0x35
 1893 065d 00       		.byte	0
 1894 065e 1D       		.uleb128 0x1d
 1895 065f D6000000 		.4byte	.LVL18
 1896 0663 E30E0000 		.4byte	0xee3
 1897 0667 80060000 		.4byte	0x680
 1898 066b 1E       		.uleb128 0x1e
 1899 066c 01       		.uleb128 0x1
 1900 066d 52       		.byte	0x52
 1901 066e 01       		.uleb128 0x1
 1902 066f 31       		.byte	0x31
 1903 0670 1E       		.uleb128 0x1e
 1904 0671 01       		.uleb128 0x1
 1905 0672 51       		.byte	0x51
 1906 0673 02       		.uleb128 0x2
 1907 0674 08       		.byte	0x8
 1908 0675 58       		.byte	0x58
 1909 0676 1E       		.uleb128 0x1e
 1910 0677 01       		.uleb128 0x1
 1911 0678 50       		.byte	0x50
 1912 0679 05       		.uleb128 0x5
 1913 067a 03       		.byte	0x3
 1914 067b 00000000 		.4byte	.LANCHOR0
 1915 067f 00       		.byte	0
 1916 0680 1D       		.uleb128 0x1d
 1917 0681 E4000000 		.4byte	.LVL20
 1918 0685 A40E0000 		.4byte	0xea4
 1919 0689 93060000 		.4byte	0x693
 1920 068d 1E       		.uleb128 0x1e
 1921 068e 01       		.uleb128 0x1
 1922 068f 50       		.byte	0x50
 1923 0690 01       		.uleb128 0x1
 1924 0691 36       		.byte	0x36
 1925 0692 00       		.byte	0
 1926 0693 1F       		.uleb128 0x1f
 1927 0694 F0000000 		.4byte	.LVL21
 1928 0698 020F0000 		.4byte	0xf02
 1929 069c 1D       		.uleb128 0x1d
 1930 069d FE000000 		.4byte	.LVL22
 1931 06a1 2A0F0000 		.4byte	0xf2a
ARM GAS  /tmp/ccZvnD1b.s 			page 35


 1932 06a5 B9060000 		.4byte	0x6b9
 1933 06a9 1E       		.uleb128 0x1e
 1934 06aa 01       		.uleb128 0x1
 1935 06ab 51       		.byte	0x51
 1936 06ac 02       		.uleb128 0x2
 1937 06ad 08       		.byte	0x8
 1938 06ae 58       		.byte	0x58
 1939 06af 1E       		.uleb128 0x1e
 1940 06b0 01       		.uleb128 0x1
 1941 06b1 50       		.byte	0x50
 1942 06b2 05       		.uleb128 0x5
 1943 06b3 03       		.byte	0x3
 1944 06b4 00000000 		.4byte	.LANCHOR0
 1945 06b8 00       		.byte	0
 1946 06b9 1F       		.uleb128 0x1f
 1947 06ba 04010000 		.4byte	.LVL24
 1948 06be 230F0000 		.4byte	0xf23
 1949 06c2 1D       		.uleb128 0x1d
 1950 06c3 16010000 		.4byte	.LVL25
 1951 06c7 A40E0000 		.4byte	0xea4
 1952 06cb DE060000 		.4byte	0x6de
 1953 06cf 1E       		.uleb128 0x1e
 1954 06d0 01       		.uleb128 0x1
 1955 06d1 51       		.byte	0x51
 1956 06d2 05       		.uleb128 0x5
 1957 06d3 74       		.byte	0x74
 1958 06d4 00       		.sleb128 0
 1959 06d5 09       		.byte	0x9
 1960 06d6 FF       		.byte	0xff
 1961 06d7 29       		.byte	0x29
 1962 06d8 1E       		.uleb128 0x1e
 1963 06d9 01       		.uleb128 0x1
 1964 06da 50       		.byte	0x50
 1965 06db 01       		.uleb128 0x1
 1966 06dc 37       		.byte	0x37
 1967 06dd 00       		.byte	0
 1968 06de 1F       		.uleb128 0x1f
 1969 06df 22010000 		.4byte	.LVL26
 1970 06e3 020F0000 		.4byte	0xf02
 1971 06e7 1D       		.uleb128 0x1d
 1972 06e8 32010000 		.4byte	.LVL27
 1973 06ec A40E0000 		.4byte	0xea4
 1974 06f0 FA060000 		.4byte	0x6fa
 1975 06f4 1E       		.uleb128 0x1e
 1976 06f5 01       		.uleb128 0x1
 1977 06f6 50       		.byte	0x50
 1978 06f7 01       		.uleb128 0x1
 1979 06f8 38       		.byte	0x38
 1980 06f9 00       		.byte	0
 1981 06fa 1F       		.uleb128 0x1f
 1982 06fb 3C010000 		.4byte	.LVL28
 1983 06ff 230F0000 		.4byte	0xf23
 1984 0703 1F       		.uleb128 0x1f
 1985 0704 48010000 		.4byte	.LVL29
 1986 0708 020F0000 		.4byte	0xf02
 1987 070c 1D       		.uleb128 0x1d
 1988 070d 5C010000 		.4byte	.LVL30
ARM GAS  /tmp/ccZvnD1b.s 			page 36


 1989 0711 A40E0000 		.4byte	0xea4
 1990 0715 1F070000 		.4byte	0x71f
 1991 0719 1E       		.uleb128 0x1e
 1992 071a 01       		.uleb128 0x1
 1993 071b 50       		.byte	0x50
 1994 071c 01       		.uleb128 0x1
 1995 071d 39       		.byte	0x39
 1996 071e 00       		.byte	0
 1997 071f 1F       		.uleb128 0x1f
 1998 0720 66010000 		.4byte	.LVL31
 1999 0724 230F0000 		.4byte	0xf23
 2000 0728 1F       		.uleb128 0x1f
 2001 0729 72010000 		.4byte	.LVL32
 2002 072d 020F0000 		.4byte	0xf02
 2003 0731 1D       		.uleb128 0x1d
 2004 0732 88010000 		.4byte	.LVL33
 2005 0736 A40E0000 		.4byte	0xea4
 2006 073a 44070000 		.4byte	0x744
 2007 073e 1E       		.uleb128 0x1e
 2008 073f 01       		.uleb128 0x1
 2009 0740 50       		.byte	0x50
 2010 0741 01       		.uleb128 0x1
 2011 0742 3A       		.byte	0x3a
 2012 0743 00       		.byte	0
 2013 0744 1F       		.uleb128 0x1f
 2014 0745 92010000 		.4byte	.LVL34
 2015 0749 230F0000 		.4byte	0xf23
 2016 074d 1D       		.uleb128 0x1d
 2017 074e AC010000 		.4byte	.LVL37
 2018 0752 440F0000 		.4byte	0xf44
 2019 0756 6D070000 		.4byte	0x76d
 2020 075a 1E       		.uleb128 0x1e
 2021 075b 01       		.uleb128 0x1
 2022 075c 52       		.byte	0x52
 2023 075d 02       		.uleb128 0x2
 2024 075e 09       		.byte	0x9
 2025 075f FF       		.byte	0xff
 2026 0760 1E       		.uleb128 0x1e
 2027 0761 01       		.uleb128 0x1
 2028 0762 51       		.byte	0x51
 2029 0763 02       		.uleb128 0x2
 2030 0764 91       		.byte	0x91
 2031 0765 6C       		.sleb128 -20
 2032 0766 1E       		.uleb128 0x1e
 2033 0767 01       		.uleb128 0x1
 2034 0768 50       		.byte	0x50
 2035 0769 02       		.uleb128 0x2
 2036 076a 74       		.byte	0x74
 2037 076b 00       		.sleb128 0
 2038 076c 00       		.byte	0
 2039 076d 1D       		.uleb128 0x1d
 2040 076e BA010000 		.4byte	.LVL39
 2041 0772 A40E0000 		.4byte	0xea4
 2042 0776 80070000 		.4byte	0x780
 2043 077a 1E       		.uleb128 0x1e
 2044 077b 01       		.uleb128 0x1
 2045 077c 50       		.byte	0x50
ARM GAS  /tmp/ccZvnD1b.s 			page 37


 2046 077d 01       		.uleb128 0x1
 2047 077e 3B       		.byte	0x3b
 2048 077f 00       		.byte	0
 2049 0780 1F       		.uleb128 0x1f
 2050 0781 C8010000 		.4byte	.LVL40
 2051 0785 630F0000 		.4byte	0xf63
 2052 0789 1D       		.uleb128 0x1d
 2053 078a DA010000 		.4byte	.LVL42
 2054 078e 740F0000 		.4byte	0xf74
 2055 0792 A5070000 		.4byte	0x7a5
 2056 0796 1E       		.uleb128 0x1e
 2057 0797 01       		.uleb128 0x1
 2058 0798 51       		.byte	0x51
 2059 0799 05       		.uleb128 0x5
 2060 079a 03       		.byte	0x3
 2061 079b 00000000 		.4byte	.LC0
 2062 079f 1E       		.uleb128 0x1e
 2063 07a0 01       		.uleb128 0x1
 2064 07a1 50       		.byte	0x50
 2065 07a2 01       		.uleb128 0x1
 2066 07a3 3C       		.byte	0x3c
 2067 07a4 00       		.byte	0
 2068 07a5 1D       		.uleb128 0x1d
 2069 07a6 EC010000 		.4byte	.LVL43
 2070 07aa BE0E0000 		.4byte	0xebe
 2071 07ae C5070000 		.4byte	0x7c5
 2072 07b2 1E       		.uleb128 0x1e
 2073 07b3 01       		.uleb128 0x1
 2074 07b4 52       		.byte	0x52
 2075 07b5 02       		.uleb128 0x2
 2076 07b6 09       		.byte	0x9
 2077 07b7 FF       		.byte	0xff
 2078 07b8 1E       		.uleb128 0x1e
 2079 07b9 01       		.uleb128 0x1
 2080 07ba 51       		.byte	0x51
 2081 07bb 02       		.uleb128 0x2
 2082 07bc 08       		.byte	0x8
 2083 07bd 47       		.byte	0x47
 2084 07be 1E       		.uleb128 0x1e
 2085 07bf 01       		.uleb128 0x1
 2086 07c0 50       		.byte	0x50
 2087 07c1 02       		.uleb128 0x2
 2088 07c2 74       		.byte	0x74
 2089 07c3 00       		.sleb128 0
 2090 07c4 00       		.byte	0
 2091 07c5 1D       		.uleb128 0x1d
 2092 07c6 FA010000 		.4byte	.LVL45
 2093 07ca A40E0000 		.4byte	0xea4
 2094 07ce D8070000 		.4byte	0x7d8
 2095 07d2 1E       		.uleb128 0x1e
 2096 07d3 01       		.uleb128 0x1
 2097 07d4 50       		.byte	0x50
 2098 07d5 01       		.uleb128 0x1
 2099 07d6 3D       		.byte	0x3d
 2100 07d7 00       		.byte	0
 2101 07d8 1D       		.uleb128 0x1d
 2102 07d9 0C020000 		.4byte	.LVL46
ARM GAS  /tmp/ccZvnD1b.s 			page 38


 2103 07dd 440F0000 		.4byte	0xf44
 2104 07e1 F8070000 		.4byte	0x7f8
 2105 07e5 1E       		.uleb128 0x1e
 2106 07e6 01       		.uleb128 0x1
 2107 07e7 52       		.byte	0x52
 2108 07e8 02       		.uleb128 0x2
 2109 07e9 09       		.byte	0x9
 2110 07ea FF       		.byte	0xff
 2111 07eb 1E       		.uleb128 0x1e
 2112 07ec 01       		.uleb128 0x1
 2113 07ed 51       		.byte	0x51
 2114 07ee 02       		.uleb128 0x2
 2115 07ef 91       		.byte	0x91
 2116 07f0 6C       		.sleb128 -20
 2117 07f1 1E       		.uleb128 0x1e
 2118 07f2 01       		.uleb128 0x1
 2119 07f3 50       		.byte	0x50
 2120 07f4 02       		.uleb128 0x2
 2121 07f5 74       		.byte	0x74
 2122 07f6 00       		.sleb128 0
 2123 07f7 00       		.byte	0
 2124 07f8 1D       		.uleb128 0x1d
 2125 07f9 1A020000 		.4byte	.LVL48
 2126 07fd A40E0000 		.4byte	0xea4
 2127 0801 0B080000 		.4byte	0x80b
 2128 0805 1E       		.uleb128 0x1e
 2129 0806 01       		.uleb128 0x1
 2130 0807 50       		.byte	0x50
 2131 0808 01       		.uleb128 0x1
 2132 0809 3E       		.byte	0x3e
 2133 080a 00       		.byte	0
 2134 080b 1D       		.uleb128 0x1d
 2135 080c 30020000 		.4byte	.LVL50
 2136 0810 A40E0000 		.4byte	0xea4
 2137 0814 26080000 		.4byte	0x826
 2138 0818 1E       		.uleb128 0x1e
 2139 0819 01       		.uleb128 0x1
 2140 081a 51       		.byte	0x51
 2141 081b 04       		.uleb128 0x4
 2142 081c 76       		.byte	0x76
 2143 081d 00       		.sleb128 0
 2144 081e 30       		.byte	0x30
 2145 081f 29       		.byte	0x29
 2146 0820 1E       		.uleb128 0x1e
 2147 0821 01       		.uleb128 0x1
 2148 0822 50       		.byte	0x50
 2149 0823 01       		.uleb128 0x1
 2150 0824 3F       		.byte	0x3f
 2151 0825 00       		.byte	0
 2152 0826 1D       		.uleb128 0x1d
 2153 0827 46020000 		.4byte	.LVL51
 2154 082b A40E0000 		.4byte	0xea4
 2155 082f 39080000 		.4byte	0x839
 2156 0833 1E       		.uleb128 0x1e
 2157 0834 01       		.uleb128 0x1
 2158 0835 50       		.byte	0x50
 2159 0836 01       		.uleb128 0x1
ARM GAS  /tmp/ccZvnD1b.s 			page 39


 2160 0837 40       		.byte	0x40
 2161 0838 00       		.byte	0
 2162 0839 1D       		.uleb128 0x1d
 2163 083a 56020000 		.4byte	.LVL52
 2164 083e 440F0000 		.4byte	0xf44
 2165 0842 58080000 		.4byte	0x858
 2166 0846 1E       		.uleb128 0x1e
 2167 0847 01       		.uleb128 0x1
 2168 0848 52       		.byte	0x52
 2169 0849 01       		.uleb128 0x1
 2170 084a 31       		.byte	0x31
 2171 084b 1E       		.uleb128 0x1e
 2172 084c 01       		.uleb128 0x1
 2173 084d 51       		.byte	0x51
 2174 084e 02       		.uleb128 0x2
 2175 084f 91       		.byte	0x91
 2176 0850 6C       		.sleb128 -20
 2177 0851 1E       		.uleb128 0x1e
 2178 0852 01       		.uleb128 0x1
 2179 0853 50       		.byte	0x50
 2180 0854 02       		.uleb128 0x2
 2181 0855 74       		.byte	0x74
 2182 0856 00       		.sleb128 0
 2183 0857 00       		.byte	0
 2184 0858 1D       		.uleb128 0x1d
 2185 0859 64020000 		.4byte	.LVL54
 2186 085d A40E0000 		.4byte	0xea4
 2187 0861 6B080000 		.4byte	0x86b
 2188 0865 1E       		.uleb128 0x1e
 2189 0866 01       		.uleb128 0x1
 2190 0867 50       		.byte	0x50
 2191 0868 01       		.uleb128 0x1
 2192 0869 41       		.byte	0x41
 2193 086a 00       		.byte	0
 2194 086b 1F       		.uleb128 0x1f
 2195 086c 72020000 		.4byte	.LVL55
 2196 0870 020F0000 		.4byte	0xf02
 2197 0874 1D       		.uleb128 0x1d
 2198 0875 80020000 		.4byte	.LVL56
 2199 0879 940F0000 		.4byte	0xf94
 2200 087d 8E080000 		.4byte	0x88e
 2201 0881 1E       		.uleb128 0x1e
 2202 0882 01       		.uleb128 0x1
 2203 0883 51       		.byte	0x51
 2204 0884 02       		.uleb128 0x2
 2205 0885 91       		.byte	0x91
 2206 0886 6C       		.sleb128 -20
 2207 0887 1E       		.uleb128 0x1e
 2208 0888 01       		.uleb128 0x1
 2209 0889 50       		.byte	0x50
 2210 088a 02       		.uleb128 0x2
 2211 088b 74       		.byte	0x74
 2212 088c 00       		.sleb128 0
 2213 088d 00       		.byte	0
 2214 088e 1F       		.uleb128 0x1f
 2215 088f 86020000 		.4byte	.LVL58
 2216 0893 230F0000 		.4byte	0xf23
ARM GAS  /tmp/ccZvnD1b.s 			page 40


 2217 0897 1D       		.uleb128 0x1d
 2218 0898 9C020000 		.4byte	.LVL59
 2219 089c A40E0000 		.4byte	0xea4
 2220 08a0 B3080000 		.4byte	0x8b3
 2221 08a4 1E       		.uleb128 0x1e
 2222 08a5 01       		.uleb128 0x1
 2223 08a6 51       		.byte	0x51
 2224 08a7 05       		.uleb128 0x5
 2225 08a8 74       		.byte	0x74
 2226 08a9 00       		.sleb128 0
 2227 08aa 09       		.byte	0x9
 2228 08ab FF       		.byte	0xff
 2229 08ac 29       		.byte	0x29
 2230 08ad 1E       		.uleb128 0x1e
 2231 08ae 01       		.uleb128 0x1
 2232 08af 50       		.byte	0x50
 2233 08b0 01       		.uleb128 0x1
 2234 08b1 42       		.byte	0x42
 2235 08b2 00       		.byte	0
 2236 08b3 1F       		.uleb128 0x1f
 2237 08b4 AA020000 		.4byte	.LVL60
 2238 08b8 020F0000 		.4byte	0xf02
 2239 08bc 1D       		.uleb128 0x1d
 2240 08bd BE020000 		.4byte	.LVL61
 2241 08c1 A40E0000 		.4byte	0xea4
 2242 08c5 CF080000 		.4byte	0x8cf
 2243 08c9 1E       		.uleb128 0x1e
 2244 08ca 01       		.uleb128 0x1
 2245 08cb 50       		.byte	0x50
 2246 08cc 01       		.uleb128 0x1
 2247 08cd 43       		.byte	0x43
 2248 08ce 00       		.byte	0
 2249 08cf 1F       		.uleb128 0x1f
 2250 08d0 C8020000 		.4byte	.LVL62
 2251 08d4 230F0000 		.4byte	0xf23
 2252 08d8 1F       		.uleb128 0x1f
 2253 08d9 D4020000 		.4byte	.LVL63
 2254 08dd 020F0000 		.4byte	0xf02
 2255 08e1 1D       		.uleb128 0x1d
 2256 08e2 E4020000 		.4byte	.LVL64
 2257 08e6 A40E0000 		.4byte	0xea4
 2258 08ea F4080000 		.4byte	0x8f4
 2259 08ee 1E       		.uleb128 0x1e
 2260 08ef 01       		.uleb128 0x1
 2261 08f0 50       		.byte	0x50
 2262 08f1 01       		.uleb128 0x1
 2263 08f2 44       		.byte	0x44
 2264 08f3 00       		.byte	0
 2265 08f4 1F       		.uleb128 0x1f
 2266 08f5 EE020000 		.4byte	.LVL65
 2267 08f9 230F0000 		.4byte	0xf23
 2268 08fd 1F       		.uleb128 0x1f
 2269 08fe FA020000 		.4byte	.LVL66
 2270 0902 020F0000 		.4byte	0xf02
 2271 0906 1D       		.uleb128 0x1d
 2272 0907 0A030000 		.4byte	.LVL67
 2273 090b A40E0000 		.4byte	0xea4
ARM GAS  /tmp/ccZvnD1b.s 			page 41


 2274 090f 21090000 		.4byte	0x921
 2275 0913 1E       		.uleb128 0x1e
 2276 0914 01       		.uleb128 0x1
 2277 0915 51       		.byte	0x51
 2278 0916 04       		.uleb128 0x4
 2279 0917 76       		.byte	0x76
 2280 0918 00       		.sleb128 0
 2281 0919 30       		.byte	0x30
 2282 091a 29       		.byte	0x29
 2283 091b 1E       		.uleb128 0x1e
 2284 091c 01       		.uleb128 0x1
 2285 091d 50       		.byte	0x50
 2286 091e 01       		.uleb128 0x1
 2287 091f 45       		.byte	0x45
 2288 0920 00       		.byte	0
 2289 0921 1F       		.uleb128 0x1f
 2290 0922 14030000 		.4byte	.LVL68
 2291 0926 230F0000 		.4byte	0xf23
 2292 092a 1F       		.uleb128 0x1f
 2293 092b 20030000 		.4byte	.LVL69
 2294 092f 020F0000 		.4byte	0xf02
 2295 0933 1D       		.uleb128 0x1d
 2296 0934 2E030000 		.4byte	.LVL70
 2297 0938 090F0000 		.4byte	0xf09
 2298 093c 50090000 		.4byte	0x950
 2299 0940 1E       		.uleb128 0x1e
 2300 0941 01       		.uleb128 0x1
 2301 0942 51       		.byte	0x51
 2302 0943 02       		.uleb128 0x2
 2303 0944 08       		.byte	0x8
 2304 0945 41       		.byte	0x41
 2305 0946 1E       		.uleb128 0x1e
 2306 0947 01       		.uleb128 0x1
 2307 0948 50       		.byte	0x50
 2308 0949 05       		.uleb128 0x5
 2309 094a 03       		.byte	0x3
 2310 094b 00000000 		.4byte	.LANCHOR0
 2311 094f 00       		.byte	0
 2312 0950 1D       		.uleb128 0x1d
 2313 0951 3C030000 		.4byte	.LVL72
 2314 0955 A40E0000 		.4byte	0xea4
 2315 0959 63090000 		.4byte	0x963
 2316 095d 1E       		.uleb128 0x1e
 2317 095e 01       		.uleb128 0x1
 2318 095f 50       		.byte	0x50
 2319 0960 01       		.uleb128 0x1
 2320 0961 46       		.byte	0x46
 2321 0962 00       		.byte	0
 2322 0963 1D       		.uleb128 0x1d
 2323 0964 50030000 		.4byte	.LVL73
 2324 0968 090F0000 		.4byte	0xf09
 2325 096c 80090000 		.4byte	0x980
 2326 0970 1E       		.uleb128 0x1e
 2327 0971 01       		.uleb128 0x1
 2328 0972 51       		.byte	0x51
 2329 0973 02       		.uleb128 0x2
 2330 0974 08       		.byte	0x8
ARM GAS  /tmp/ccZvnD1b.s 			page 42


 2331 0975 42       		.byte	0x42
 2332 0976 1E       		.uleb128 0x1e
 2333 0977 01       		.uleb128 0x1
 2334 0978 50       		.byte	0x50
 2335 0979 05       		.uleb128 0x5
 2336 097a 03       		.byte	0x3
 2337 097b 00000000 		.4byte	.LANCHOR0
 2338 097f 00       		.byte	0
 2339 0980 1D       		.uleb128 0x1d
 2340 0981 5E030000 		.4byte	.LVL75
 2341 0985 A40E0000 		.4byte	0xea4
 2342 0989 93090000 		.4byte	0x993
 2343 098d 1E       		.uleb128 0x1e
 2344 098e 01       		.uleb128 0x1
 2345 098f 50       		.byte	0x50
 2346 0990 01       		.uleb128 0x1
 2347 0991 47       		.byte	0x47
 2348 0992 00       		.byte	0
 2349 0993 1D       		.uleb128 0x1d
 2350 0994 72030000 		.4byte	.LVL76
 2351 0998 090F0000 		.4byte	0xf09
 2352 099c B0090000 		.4byte	0x9b0
 2353 09a0 1E       		.uleb128 0x1e
 2354 09a1 01       		.uleb128 0x1
 2355 09a2 51       		.byte	0x51
 2356 09a3 02       		.uleb128 0x2
 2357 09a4 08       		.byte	0x8
 2358 09a5 43       		.byte	0x43
 2359 09a6 1E       		.uleb128 0x1e
 2360 09a7 01       		.uleb128 0x1
 2361 09a8 50       		.byte	0x50
 2362 09a9 05       		.uleb128 0x5
 2363 09aa 03       		.byte	0x3
 2364 09ab 00000000 		.4byte	.LANCHOR0
 2365 09af 00       		.byte	0
 2366 09b0 1D       		.uleb128 0x1d
 2367 09b1 80030000 		.4byte	.LVL78
 2368 09b5 A40E0000 		.4byte	0xea4
 2369 09b9 C3090000 		.4byte	0x9c3
 2370 09bd 1E       		.uleb128 0x1e
 2371 09be 01       		.uleb128 0x1
 2372 09bf 50       		.byte	0x50
 2373 09c0 01       		.uleb128 0x1
 2374 09c1 48       		.byte	0x48
 2375 09c2 00       		.byte	0
 2376 09c3 1D       		.uleb128 0x1d
 2377 09c4 94030000 		.4byte	.LVL79
 2378 09c8 090F0000 		.4byte	0xf09
 2379 09cc E0090000 		.4byte	0x9e0
 2380 09d0 1E       		.uleb128 0x1e
 2381 09d1 01       		.uleb128 0x1
 2382 09d2 51       		.byte	0x51
 2383 09d3 02       		.uleb128 0x2
 2384 09d4 08       		.byte	0x8
 2385 09d5 44       		.byte	0x44
 2386 09d6 1E       		.uleb128 0x1e
 2387 09d7 01       		.uleb128 0x1
ARM GAS  /tmp/ccZvnD1b.s 			page 43


 2388 09d8 50       		.byte	0x50
 2389 09d9 05       		.uleb128 0x5
 2390 09da 03       		.byte	0x3
 2391 09db 00000000 		.4byte	.LANCHOR0
 2392 09df 00       		.byte	0
 2393 09e0 1D       		.uleb128 0x1d
 2394 09e1 A2030000 		.4byte	.LVL81
 2395 09e5 A40E0000 		.4byte	0xea4
 2396 09e9 F3090000 		.4byte	0x9f3
 2397 09ed 1E       		.uleb128 0x1e
 2398 09ee 01       		.uleb128 0x1
 2399 09ef 50       		.byte	0x50
 2400 09f0 01       		.uleb128 0x1
 2401 09f1 49       		.byte	0x49
 2402 09f2 00       		.byte	0
 2403 09f3 1D       		.uleb128 0x1d
 2404 09f4 B6030000 		.4byte	.LVL82
 2405 09f8 090F0000 		.4byte	0xf09
 2406 09fc 100A0000 		.4byte	0xa10
 2407 0a00 1E       		.uleb128 0x1e
 2408 0a01 01       		.uleb128 0x1
 2409 0a02 51       		.byte	0x51
 2410 0a03 02       		.uleb128 0x2
 2411 0a04 08       		.byte	0x8
 2412 0a05 45       		.byte	0x45
 2413 0a06 1E       		.uleb128 0x1e
 2414 0a07 01       		.uleb128 0x1
 2415 0a08 50       		.byte	0x50
 2416 0a09 05       		.uleb128 0x5
 2417 0a0a 03       		.byte	0x3
 2418 0a0b 00000000 		.4byte	.LANCHOR0
 2419 0a0f 00       		.byte	0
 2420 0a10 1F       		.uleb128 0x1f
 2421 0a11 BC030000 		.4byte	.LVL84
 2422 0a15 230F0000 		.4byte	0xf23
 2423 0a19 1D       		.uleb128 0x1d
 2424 0a1a CE030000 		.4byte	.LVL85
 2425 0a1e A40E0000 		.4byte	0xea4
 2426 0a22 460A0000 		.4byte	0xa46
 2427 0a26 1E       		.uleb128 0x1e
 2428 0a27 01       		.uleb128 0x1
 2429 0a28 51       		.byte	0x51
 2430 0a29 16       		.uleb128 0x16
 2431 0a2a 30       		.byte	0x30
 2432 0a2b 31       		.byte	0x31
 2433 0a2c 74       		.byte	0x74
 2434 0a2d 00       		.sleb128 0
 2435 0a2e 1C       		.byte	0x1c
 2436 0a2f 31       		.byte	0x31
 2437 0a30 40       		.byte	0x40
 2438 0a31 4B       		.byte	0x4b
 2439 0a32 24       		.byte	0x24
 2440 0a33 22       		.byte	0x22
 2441 0a34 74       		.byte	0x74
 2442 0a35 00       		.sleb128 0
 2443 0a36 40       		.byte	0x40
 2444 0a37 4B       		.byte	0x4b
ARM GAS  /tmp/ccZvnD1b.s 			page 44


 2445 0a38 24       		.byte	0x24
 2446 0a39 22       		.byte	0x22
 2447 0a3a 2D       		.byte	0x2d
 2448 0a3b 28       		.byte	0x28
 2449 0a3c 0100     		.2byte	0x1
 2450 0a3e 16       		.byte	0x16
 2451 0a3f 13       		.byte	0x13
 2452 0a40 1E       		.uleb128 0x1e
 2453 0a41 01       		.uleb128 0x1
 2454 0a42 50       		.byte	0x50
 2455 0a43 01       		.uleb128 0x1
 2456 0a44 4A       		.byte	0x4a
 2457 0a45 00       		.byte	0
 2458 0a46 1D       		.uleb128 0x1d
 2459 0a47 E4030000 		.4byte	.LVL87
 2460 0a4b A40E0000 		.4byte	0xea4
 2461 0a4f 610A0000 		.4byte	0xa61
 2462 0a53 1E       		.uleb128 0x1e
 2463 0a54 01       		.uleb128 0x1
 2464 0a55 51       		.byte	0x51
 2465 0a56 04       		.uleb128 0x4
 2466 0a57 74       		.byte	0x74
 2467 0a58 00       		.sleb128 0
 2468 0a59 30       		.byte	0x30
 2469 0a5a 29       		.byte	0x29
 2470 0a5b 1E       		.uleb128 0x1e
 2471 0a5c 01       		.uleb128 0x1
 2472 0a5d 50       		.byte	0x50
 2473 0a5e 01       		.uleb128 0x1
 2474 0a5f 4B       		.byte	0x4b
 2475 0a60 00       		.byte	0
 2476 0a61 1F       		.uleb128 0x1f
 2477 0a62 F4030000 		.4byte	.LVL89
 2478 0a66 020F0000 		.4byte	0xf02
 2479 0a6a 1D       		.uleb128 0x1d
 2480 0a6b 02040000 		.4byte	.LVL90
 2481 0a6f 940F0000 		.4byte	0xf94
 2482 0a73 870A0000 		.4byte	0xa87
 2483 0a77 1E       		.uleb128 0x1e
 2484 0a78 01       		.uleb128 0x1
 2485 0a79 51       		.byte	0x51
 2486 0a7a 02       		.uleb128 0x2
 2487 0a7b 91       		.byte	0x91
 2488 0a7c 6C       		.sleb128 -20
 2489 0a7d 1E       		.uleb128 0x1e
 2490 0a7e 01       		.uleb128 0x1
 2491 0a7f 50       		.byte	0x50
 2492 0a80 05       		.uleb128 0x5
 2493 0a81 03       		.byte	0x3
 2494 0a82 00000000 		.4byte	.LANCHOR0
 2495 0a86 00       		.byte	0
 2496 0a87 1F       		.uleb128 0x1f
 2497 0a88 08040000 		.4byte	.LVL92
 2498 0a8c 230F0000 		.4byte	0xf23
 2499 0a90 1D       		.uleb128 0x1d
 2500 0a91 1A040000 		.4byte	.LVL93
 2501 0a95 A40E0000 		.4byte	0xea4
ARM GAS  /tmp/ccZvnD1b.s 			page 45


 2502 0a99 BD0A0000 		.4byte	0xabd
 2503 0a9d 1E       		.uleb128 0x1e
 2504 0a9e 01       		.uleb128 0x1
 2505 0a9f 51       		.byte	0x51
 2506 0aa0 16       		.uleb128 0x16
 2507 0aa1 30       		.byte	0x30
 2508 0aa2 31       		.byte	0x31
 2509 0aa3 76       		.byte	0x76
 2510 0aa4 00       		.sleb128 0
 2511 0aa5 1C       		.byte	0x1c
 2512 0aa6 31       		.byte	0x31
 2513 0aa7 40       		.byte	0x40
 2514 0aa8 4B       		.byte	0x4b
 2515 0aa9 24       		.byte	0x24
 2516 0aaa 22       		.byte	0x22
 2517 0aab 76       		.byte	0x76
 2518 0aac 00       		.sleb128 0
 2519 0aad 40       		.byte	0x40
 2520 0aae 4B       		.byte	0x4b
 2521 0aaf 24       		.byte	0x24
 2522 0ab0 22       		.byte	0x22
 2523 0ab1 2D       		.byte	0x2d
 2524 0ab2 28       		.byte	0x28
 2525 0ab3 0100     		.2byte	0x1
 2526 0ab5 16       		.byte	0x16
 2527 0ab6 13       		.byte	0x13
 2528 0ab7 1E       		.uleb128 0x1e
 2529 0ab8 01       		.uleb128 0x1
 2530 0ab9 50       		.byte	0x50
 2531 0aba 01       		.uleb128 0x1
 2532 0abb 4C       		.byte	0x4c
 2533 0abc 00       		.byte	0
 2534 0abd 1F       		.uleb128 0x1f
 2535 0abe 28040000 		.4byte	.LVL94
 2536 0ac2 630F0000 		.4byte	0xf63
 2537 0ac6 1D       		.uleb128 0x1d
 2538 0ac7 3A040000 		.4byte	.LVL96
 2539 0acb 740F0000 		.4byte	0xf74
 2540 0acf E20A0000 		.4byte	0xae2
 2541 0ad3 1E       		.uleb128 0x1e
 2542 0ad4 01       		.uleb128 0x1
 2543 0ad5 51       		.byte	0x51
 2544 0ad6 05       		.uleb128 0x5
 2545 0ad7 03       		.byte	0x3
 2546 0ad8 00000000 		.4byte	.LC0
 2547 0adc 1E       		.uleb128 0x1e
 2548 0add 01       		.uleb128 0x1
 2549 0ade 50       		.byte	0x50
 2550 0adf 01       		.uleb128 0x1
 2551 0ae0 4D       		.byte	0x4d
 2552 0ae1 00       		.byte	0
 2553 0ae2 1F       		.uleb128 0x1f
 2554 0ae3 48040000 		.4byte	.LVL97
 2555 0ae7 020F0000 		.4byte	0xf02
 2556 0aeb 1D       		.uleb128 0x1d
 2557 0aec 56040000 		.4byte	.LVL98
 2558 0af0 A40E0000 		.4byte	0xea4
ARM GAS  /tmp/ccZvnD1b.s 			page 46


 2559 0af4 FE0A0000 		.4byte	0xafe
 2560 0af8 1E       		.uleb128 0x1e
 2561 0af9 01       		.uleb128 0x1
 2562 0afa 50       		.byte	0x50
 2563 0afb 01       		.uleb128 0x1
 2564 0afc 4E       		.byte	0x4e
 2565 0afd 00       		.byte	0
 2566 0afe 1F       		.uleb128 0x1f
 2567 0aff 60040000 		.4byte	.LVL99
 2568 0b03 230F0000 		.4byte	0xf23
 2569 0b07 1F       		.uleb128 0x1f
 2570 0b08 6C040000 		.4byte	.LVL100
 2571 0b0c 020F0000 		.4byte	0xf02
 2572 0b10 1D       		.uleb128 0x1d
 2573 0b11 7C040000 		.4byte	.LVL101
 2574 0b15 A40E0000 		.4byte	0xea4
 2575 0b19 230B0000 		.4byte	0xb23
 2576 0b1d 1E       		.uleb128 0x1e
 2577 0b1e 01       		.uleb128 0x1
 2578 0b1f 50       		.byte	0x50
 2579 0b20 01       		.uleb128 0x1
 2580 0b21 4F       		.byte	0x4f
 2581 0b22 00       		.byte	0
 2582 0b23 1F       		.uleb128 0x1f
 2583 0b24 86040000 		.4byte	.LVL102
 2584 0b28 230F0000 		.4byte	0xf23
 2585 0b2c 1D       		.uleb128 0x1d
 2586 0b2d 9A040000 		.4byte	.LVL103
 2587 0b31 A40E0000 		.4byte	0xea4
 2588 0b35 400B0000 		.4byte	0xb40
 2589 0b39 1E       		.uleb128 0x1e
 2590 0b3a 01       		.uleb128 0x1
 2591 0b3b 50       		.byte	0x50
 2592 0b3c 02       		.uleb128 0x2
 2593 0b3d 08       		.byte	0x8
 2594 0b3e 20       		.byte	0x20
 2595 0b3f 00       		.byte	0
 2596 0b40 1F       		.uleb128 0x1f
 2597 0b41 A8040000 		.4byte	.LVL104
 2598 0b45 020F0000 		.4byte	0xf02
 2599 0b49 1D       		.uleb128 0x1d
 2600 0b4a B6040000 		.4byte	.LVL105
 2601 0b4e 2A0F0000 		.4byte	0xf2a
 2602 0b52 660B0000 		.4byte	0xb66
 2603 0b56 1E       		.uleb128 0x1e
 2604 0b57 01       		.uleb128 0x1
 2605 0b58 51       		.byte	0x51
 2606 0b59 02       		.uleb128 0x2
 2607 0b5a 08       		.byte	0x8
 2608 0b5b 45       		.byte	0x45
 2609 0b5c 1E       		.uleb128 0x1e
 2610 0b5d 01       		.uleb128 0x1
 2611 0b5e 50       		.byte	0x50
 2612 0b5f 05       		.uleb128 0x5
 2613 0b60 03       		.byte	0x3
 2614 0b61 00000000 		.4byte	.LANCHOR0
 2615 0b65 00       		.byte	0
ARM GAS  /tmp/ccZvnD1b.s 			page 47


 2616 0b66 1D       		.uleb128 0x1d
 2617 0b67 C4040000 		.4byte	.LVL107
 2618 0b6b A40E0000 		.4byte	0xea4
 2619 0b6f 7A0B0000 		.4byte	0xb7a
 2620 0b73 1E       		.uleb128 0x1e
 2621 0b74 01       		.uleb128 0x1
 2622 0b75 50       		.byte	0x50
 2623 0b76 02       		.uleb128 0x2
 2624 0b77 08       		.byte	0x8
 2625 0b78 21       		.byte	0x21
 2626 0b79 00       		.byte	0
 2627 0b7a 1D       		.uleb128 0x1d
 2628 0b7b D8040000 		.4byte	.LVL108
 2629 0b7f 2A0F0000 		.4byte	0xf2a
 2630 0b83 970B0000 		.4byte	0xb97
 2631 0b87 1E       		.uleb128 0x1e
 2632 0b88 01       		.uleb128 0x1
 2633 0b89 51       		.byte	0x51
 2634 0b8a 02       		.uleb128 0x2
 2635 0b8b 08       		.byte	0x8
 2636 0b8c 44       		.byte	0x44
 2637 0b8d 1E       		.uleb128 0x1e
 2638 0b8e 01       		.uleb128 0x1
 2639 0b8f 50       		.byte	0x50
 2640 0b90 05       		.uleb128 0x5
 2641 0b91 03       		.byte	0x3
 2642 0b92 00000000 		.4byte	.LANCHOR0
 2643 0b96 00       		.byte	0
 2644 0b97 1D       		.uleb128 0x1d
 2645 0b98 E6040000 		.4byte	.LVL110
 2646 0b9c A40E0000 		.4byte	0xea4
 2647 0ba0 AB0B0000 		.4byte	0xbab
 2648 0ba4 1E       		.uleb128 0x1e
 2649 0ba5 01       		.uleb128 0x1
 2650 0ba6 50       		.byte	0x50
 2651 0ba7 02       		.uleb128 0x2
 2652 0ba8 08       		.byte	0x8
 2653 0ba9 22       		.byte	0x22
 2654 0baa 00       		.byte	0
 2655 0bab 1D       		.uleb128 0x1d
 2656 0bac FA040000 		.4byte	.LVL111
 2657 0bb0 2A0F0000 		.4byte	0xf2a
 2658 0bb4 C80B0000 		.4byte	0xbc8
 2659 0bb8 1E       		.uleb128 0x1e
 2660 0bb9 01       		.uleb128 0x1
 2661 0bba 51       		.byte	0x51
 2662 0bbb 02       		.uleb128 0x2
 2663 0bbc 08       		.byte	0x8
 2664 0bbd 43       		.byte	0x43
 2665 0bbe 1E       		.uleb128 0x1e
 2666 0bbf 01       		.uleb128 0x1
 2667 0bc0 50       		.byte	0x50
 2668 0bc1 05       		.uleb128 0x5
 2669 0bc2 03       		.byte	0x3
 2670 0bc3 00000000 		.4byte	.LANCHOR0
 2671 0bc7 00       		.byte	0
 2672 0bc8 1D       		.uleb128 0x1d
ARM GAS  /tmp/ccZvnD1b.s 			page 48


 2673 0bc9 08050000 		.4byte	.LVL113
 2674 0bcd A40E0000 		.4byte	0xea4
 2675 0bd1 DC0B0000 		.4byte	0xbdc
 2676 0bd5 1E       		.uleb128 0x1e
 2677 0bd6 01       		.uleb128 0x1
 2678 0bd7 50       		.byte	0x50
 2679 0bd8 02       		.uleb128 0x2
 2680 0bd9 08       		.byte	0x8
 2681 0bda 23       		.byte	0x23
 2682 0bdb 00       		.byte	0
 2683 0bdc 1D       		.uleb128 0x1d
 2684 0bdd 1C050000 		.4byte	.LVL114
 2685 0be1 2A0F0000 		.4byte	0xf2a
 2686 0be5 F90B0000 		.4byte	0xbf9
 2687 0be9 1E       		.uleb128 0x1e
 2688 0bea 01       		.uleb128 0x1
 2689 0beb 51       		.byte	0x51
 2690 0bec 02       		.uleb128 0x2
 2691 0bed 08       		.byte	0x8
 2692 0bee 42       		.byte	0x42
 2693 0bef 1E       		.uleb128 0x1e
 2694 0bf0 01       		.uleb128 0x1
 2695 0bf1 50       		.byte	0x50
 2696 0bf2 05       		.uleb128 0x5
 2697 0bf3 03       		.byte	0x3
 2698 0bf4 00000000 		.4byte	.LANCHOR0
 2699 0bf8 00       		.byte	0
 2700 0bf9 1D       		.uleb128 0x1d
 2701 0bfa 2A050000 		.4byte	.LVL116
 2702 0bfe A40E0000 		.4byte	0xea4
 2703 0c02 0D0C0000 		.4byte	0xc0d
 2704 0c06 1E       		.uleb128 0x1e
 2705 0c07 01       		.uleb128 0x1
 2706 0c08 50       		.byte	0x50
 2707 0c09 02       		.uleb128 0x2
 2708 0c0a 08       		.byte	0x8
 2709 0c0b 24       		.byte	0x24
 2710 0c0c 00       		.byte	0
 2711 0c0d 1D       		.uleb128 0x1d
 2712 0c0e 3E050000 		.4byte	.LVL117
 2713 0c12 2A0F0000 		.4byte	0xf2a
 2714 0c16 2A0C0000 		.4byte	0xc2a
 2715 0c1a 1E       		.uleb128 0x1e
 2716 0c1b 01       		.uleb128 0x1
 2717 0c1c 51       		.byte	0x51
 2718 0c1d 02       		.uleb128 0x2
 2719 0c1e 08       		.byte	0x8
 2720 0c1f 41       		.byte	0x41
 2721 0c20 1E       		.uleb128 0x1e
 2722 0c21 01       		.uleb128 0x1
 2723 0c22 50       		.byte	0x50
 2724 0c23 05       		.uleb128 0x5
 2725 0c24 03       		.byte	0x3
 2726 0c25 00000000 		.4byte	.LANCHOR0
 2727 0c29 00       		.byte	0
 2728 0c2a 1F       		.uleb128 0x1f
 2729 0c2b 44050000 		.4byte	.LVL119
ARM GAS  /tmp/ccZvnD1b.s 			page 49


 2730 0c2f 230F0000 		.4byte	0xf23
 2731 0c33 1D       		.uleb128 0x1d
 2732 0c34 56050000 		.4byte	.LVL120
 2733 0c38 A40E0000 		.4byte	0xea4
 2734 0c3c 610C0000 		.4byte	0xc61
 2735 0c40 1E       		.uleb128 0x1e
 2736 0c41 01       		.uleb128 0x1
 2737 0c42 51       		.byte	0x51
 2738 0c43 16       		.uleb128 0x16
 2739 0c44 30       		.byte	0x30
 2740 0c45 31       		.byte	0x31
 2741 0c46 74       		.byte	0x74
 2742 0c47 00       		.sleb128 0
 2743 0c48 1C       		.byte	0x1c
 2744 0c49 31       		.byte	0x31
 2745 0c4a 40       		.byte	0x40
 2746 0c4b 4B       		.byte	0x4b
 2747 0c4c 24       		.byte	0x24
 2748 0c4d 22       		.byte	0x22
 2749 0c4e 74       		.byte	0x74
 2750 0c4f 00       		.sleb128 0
 2751 0c50 40       		.byte	0x40
 2752 0c51 4B       		.byte	0x4b
 2753 0c52 24       		.byte	0x24
 2754 0c53 22       		.byte	0x22
 2755 0c54 2D       		.byte	0x2d
 2756 0c55 28       		.byte	0x28
 2757 0c56 0100     		.2byte	0x1
 2758 0c58 16       		.byte	0x16
 2759 0c59 13       		.byte	0x13
 2760 0c5a 1E       		.uleb128 0x1e
 2761 0c5b 01       		.uleb128 0x1
 2762 0c5c 50       		.byte	0x50
 2763 0c5d 02       		.uleb128 0x2
 2764 0c5e 08       		.byte	0x8
 2765 0c5f 25       		.byte	0x25
 2766 0c60 00       		.byte	0
 2767 0c61 1D       		.uleb128 0x1d
 2768 0c62 72050000 		.4byte	.LVL121
 2769 0c66 A40E0000 		.4byte	0xea4
 2770 0c6a 750C0000 		.4byte	0xc75
 2771 0c6e 1E       		.uleb128 0x1e
 2772 0c6f 01       		.uleb128 0x1
 2773 0c70 50       		.byte	0x50
 2774 0c71 02       		.uleb128 0x2
 2775 0c72 08       		.byte	0x8
 2776 0c73 26       		.byte	0x26
 2777 0c74 00       		.byte	0
 2778 0c75 1F       		.uleb128 0x1f
 2779 0c76 82050000 		.4byte	.LVL123
 2780 0c7a 020F0000 		.4byte	0xf02
 2781 0c7e 1D       		.uleb128 0x1d
 2782 0c7f 90050000 		.4byte	.LVL124
 2783 0c83 940F0000 		.4byte	0xf94
 2784 0c87 9B0C0000 		.4byte	0xc9b
 2785 0c8b 1E       		.uleb128 0x1e
 2786 0c8c 01       		.uleb128 0x1
ARM GAS  /tmp/ccZvnD1b.s 			page 50


 2787 0c8d 51       		.byte	0x51
 2788 0c8e 02       		.uleb128 0x2
 2789 0c8f 91       		.byte	0x91
 2790 0c90 6C       		.sleb128 -20
 2791 0c91 1E       		.uleb128 0x1e
 2792 0c92 01       		.uleb128 0x1
 2793 0c93 50       		.byte	0x50
 2794 0c94 05       		.uleb128 0x5
 2795 0c95 03       		.byte	0x3
 2796 0c96 00000000 		.4byte	.LANCHOR0
 2797 0c9a 00       		.byte	0
 2798 0c9b 1F       		.uleb128 0x1f
 2799 0c9c 96050000 		.4byte	.LVL126
 2800 0ca0 230F0000 		.4byte	0xf23
 2801 0ca4 1D       		.uleb128 0x1d
 2802 0ca5 A8050000 		.4byte	.LVL127
 2803 0ca9 A40E0000 		.4byte	0xea4
 2804 0cad D20C0000 		.4byte	0xcd2
 2805 0cb1 1E       		.uleb128 0x1e
 2806 0cb2 01       		.uleb128 0x1
 2807 0cb3 51       		.byte	0x51
 2808 0cb4 16       		.uleb128 0x16
 2809 0cb5 30       		.byte	0x30
 2810 0cb6 31       		.byte	0x31
 2811 0cb7 76       		.byte	0x76
 2812 0cb8 00       		.sleb128 0
 2813 0cb9 1C       		.byte	0x1c
 2814 0cba 31       		.byte	0x31
 2815 0cbb 40       		.byte	0x40
 2816 0cbc 4B       		.byte	0x4b
 2817 0cbd 24       		.byte	0x24
 2818 0cbe 22       		.byte	0x22
 2819 0cbf 76       		.byte	0x76
 2820 0cc0 00       		.sleb128 0
 2821 0cc1 40       		.byte	0x40
 2822 0cc2 4B       		.byte	0x4b
 2823 0cc3 24       		.byte	0x24
 2824 0cc4 22       		.byte	0x22
 2825 0cc5 2D       		.byte	0x2d
 2826 0cc6 28       		.byte	0x28
 2827 0cc7 0100     		.2byte	0x1
 2828 0cc9 16       		.byte	0x16
 2829 0cca 13       		.byte	0x13
 2830 0ccb 1E       		.uleb128 0x1e
 2831 0ccc 01       		.uleb128 0x1
 2832 0ccd 50       		.byte	0x50
 2833 0cce 02       		.uleb128 0x2
 2834 0ccf 08       		.byte	0x8
 2835 0cd0 27       		.byte	0x27
 2836 0cd1 00       		.byte	0
 2837 0cd2 1F       		.uleb128 0x1f
 2838 0cd3 B6050000 		.4byte	.LVL128
 2839 0cd7 630F0000 		.4byte	0xf63
 2840 0cdb 1D       		.uleb128 0x1d
 2841 0cdc C8050000 		.4byte	.LVL130
 2842 0ce0 740F0000 		.4byte	0xf74
 2843 0ce4 F80C0000 		.4byte	0xcf8
ARM GAS  /tmp/ccZvnD1b.s 			page 51


 2844 0ce8 1E       		.uleb128 0x1e
 2845 0ce9 01       		.uleb128 0x1
 2846 0cea 51       		.byte	0x51
 2847 0ceb 05       		.uleb128 0x5
 2848 0cec 03       		.byte	0x3
 2849 0ced 00000000 		.4byte	.LC0
 2850 0cf1 1E       		.uleb128 0x1e
 2851 0cf2 01       		.uleb128 0x1
 2852 0cf3 50       		.byte	0x50
 2853 0cf4 02       		.uleb128 0x2
 2854 0cf5 08       		.byte	0x8
 2855 0cf6 28       		.byte	0x28
 2856 0cf7 00       		.byte	0
 2857 0cf8 1F       		.uleb128 0x1f
 2858 0cf9 D6050000 		.4byte	.LVL131
 2859 0cfd 020F0000 		.4byte	0xf02
 2860 0d01 1D       		.uleb128 0x1d
 2861 0d02 EA050000 		.4byte	.LVL132
 2862 0d06 A40E0000 		.4byte	0xea4
 2863 0d0a 150D0000 		.4byte	0xd15
 2864 0d0e 1E       		.uleb128 0x1e
 2865 0d0f 01       		.uleb128 0x1
 2866 0d10 50       		.byte	0x50
 2867 0d11 02       		.uleb128 0x2
 2868 0d12 08       		.byte	0x8
 2869 0d13 29       		.byte	0x29
 2870 0d14 00       		.byte	0
 2871 0d15 1F       		.uleb128 0x1f
 2872 0d16 F2050000 		.4byte	.LVL133
 2873 0d1a 230F0000 		.4byte	0xf23
 2874 0d1e 1F       		.uleb128 0x1f
 2875 0d1f FE050000 		.4byte	.LVL134
 2876 0d23 020F0000 		.4byte	0xf02
 2877 0d27 1D       		.uleb128 0x1d
 2878 0d28 0E060000 		.4byte	.LVL135
 2879 0d2c A40E0000 		.4byte	0xea4
 2880 0d30 3B0D0000 		.4byte	0xd3b
 2881 0d34 1E       		.uleb128 0x1e
 2882 0d35 01       		.uleb128 0x1
 2883 0d36 50       		.byte	0x50
 2884 0d37 02       		.uleb128 0x2
 2885 0d38 08       		.byte	0x8
 2886 0d39 2A       		.byte	0x2a
 2887 0d3a 00       		.byte	0
 2888 0d3b 1F       		.uleb128 0x1f
 2889 0d3c 16060000 		.4byte	.LVL136
 2890 0d40 230F0000 		.4byte	0xf23
 2891 0d44 1D       		.uleb128 0x1d
 2892 0d45 2A060000 		.4byte	.LVL138
 2893 0d49 A40E0000 		.4byte	0xea4
 2894 0d4d 600D0000 		.4byte	0xd60
 2895 0d51 1E       		.uleb128 0x1e
 2896 0d52 01       		.uleb128 0x1
 2897 0d53 51       		.byte	0x51
 2898 0d54 04       		.uleb128 0x4
 2899 0d55 76       		.byte	0x76
 2900 0d56 00       		.sleb128 0
ARM GAS  /tmp/ccZvnD1b.s 			page 52


 2901 0d57 30       		.byte	0x30
 2902 0d58 29       		.byte	0x29
 2903 0d59 1E       		.uleb128 0x1e
 2904 0d5a 01       		.uleb128 0x1
 2905 0d5b 50       		.byte	0x50
 2906 0d5c 02       		.uleb128 0x2
 2907 0d5d 08       		.byte	0x8
 2908 0d5e 2B       		.byte	0x2b
 2909 0d5f 00       		.byte	0
 2910 0d60 1D       		.uleb128 0x1d
 2911 0d61 3C060000 		.4byte	.LVL139
 2912 0d65 AE0F0000 		.4byte	0xfae
 2913 0d69 770D0000 		.4byte	0xd77
 2914 0d6d 1E       		.uleb128 0x1e
 2915 0d6e 01       		.uleb128 0x1
 2916 0d6f 50       		.byte	0x50
 2917 0d70 05       		.uleb128 0x5
 2918 0d71 03       		.byte	0x3
 2919 0d72 00000000 		.4byte	.LANCHOR0
 2920 0d76 00       		.byte	0
 2921 0d77 1F       		.uleb128 0x1f
 2922 0d78 44060000 		.4byte	.LVL140
 2923 0d7c 020F0000 		.4byte	0xf02
 2924 0d80 1D       		.uleb128 0x1d
 2925 0d81 52060000 		.4byte	.LVL142
 2926 0d85 A40E0000 		.4byte	0xea4
 2927 0d89 9C0D0000 		.4byte	0xd9c
 2928 0d8d 1E       		.uleb128 0x1e
 2929 0d8e 01       		.uleb128 0x1
 2930 0d8f 51       		.byte	0x51
 2931 0d90 04       		.uleb128 0x4
 2932 0d91 74       		.byte	0x74
 2933 0d92 00       		.sleb128 0
 2934 0d93 30       		.byte	0x30
 2935 0d94 29       		.byte	0x29
 2936 0d95 1E       		.uleb128 0x1e
 2937 0d96 01       		.uleb128 0x1
 2938 0d97 50       		.byte	0x50
 2939 0d98 02       		.uleb128 0x2
 2940 0d99 08       		.byte	0x8
 2941 0d9a 2C       		.byte	0x2c
 2942 0d9b 00       		.byte	0
 2943 0d9c 1F       		.uleb128 0x1f
 2944 0d9d 58060000 		.4byte	.LVL143
 2945 0da1 230F0000 		.4byte	0xf23
 2946 0da5 1F       		.uleb128 0x1f
 2947 0da6 64060000 		.4byte	.LVL144
 2948 0daa 020F0000 		.4byte	0xf02
 2949 0dae 1D       		.uleb128 0x1d
 2950 0daf 74060000 		.4byte	.LVL145
 2951 0db3 A40E0000 		.4byte	0xea4
 2952 0db7 C20D0000 		.4byte	0xdc2
 2953 0dbb 1E       		.uleb128 0x1e
 2954 0dbc 01       		.uleb128 0x1
 2955 0dbd 50       		.byte	0x50
 2956 0dbe 02       		.uleb128 0x2
 2957 0dbf 08       		.byte	0x8
ARM GAS  /tmp/ccZvnD1b.s 			page 53


 2958 0dc0 2D       		.byte	0x2d
 2959 0dc1 00       		.byte	0
 2960 0dc2 1F       		.uleb128 0x1f
 2961 0dc3 7A060000 		.4byte	.LVL146
 2962 0dc7 230F0000 		.4byte	0xf23
 2963 0dcb 1F       		.uleb128 0x1f
 2964 0dcc 86060000 		.4byte	.LVL147
 2965 0dd0 020F0000 		.4byte	0xf02
 2966 0dd4 1D       		.uleb128 0x1d
 2967 0dd5 96060000 		.4byte	.LVL148
 2968 0dd9 A40E0000 		.4byte	0xea4
 2969 0ddd E80D0000 		.4byte	0xde8
 2970 0de1 1E       		.uleb128 0x1e
 2971 0de2 01       		.uleb128 0x1
 2972 0de3 50       		.byte	0x50
 2973 0de4 02       		.uleb128 0x2
 2974 0de5 08       		.byte	0x8
 2975 0de6 2E       		.byte	0x2e
 2976 0de7 00       		.byte	0
 2977 0de8 1F       		.uleb128 0x1f
 2978 0de9 9C060000 		.4byte	.LVL149
 2979 0ded 230F0000 		.4byte	0xf23
 2980 0df1 1F       		.uleb128 0x1f
 2981 0df2 A8060000 		.4byte	.LVL150
 2982 0df6 020F0000 		.4byte	0xf02
 2983 0dfa 1D       		.uleb128 0x1d
 2984 0dfb BA060000 		.4byte	.LVL151
 2985 0dff A40E0000 		.4byte	0xea4
 2986 0e03 0E0E0000 		.4byte	0xe0e
 2987 0e07 1E       		.uleb128 0x1e
 2988 0e08 01       		.uleb128 0x1
 2989 0e09 50       		.byte	0x50
 2990 0e0a 02       		.uleb128 0x2
 2991 0e0b 08       		.byte	0x8
 2992 0e0c 2F       		.byte	0x2f
 2993 0e0d 00       		.byte	0
 2994 0e0e 1F       		.uleb128 0x1f
 2995 0e0f BE060000 		.4byte	.LVL152
 2996 0e13 230F0000 		.4byte	0xf23
 2997 0e17 00       		.byte	0
 2998 0e18 19       		.uleb128 0x19
 2999 0e19 95020000 		.4byte	.LASF79
 3000 0e1d 01       		.byte	0x1
 3001 0e1e 47       		.byte	0x47
 3002 0e1f 00000000 		.4byte	.LFB0
 3003 0e23 16000000 		.4byte	.LFE0-.LFB0
 3004 0e27 01       		.uleb128 0x1
 3005 0e28 9C       		.byte	0x9c
 3006 0e29 460E0000 		.4byte	0xe46
 3007 0e2d 20       		.uleb128 0x20
 3008 0e2e 16000000 		.4byte	.LVL153
 3009 0e32 BF0F0000 		.4byte	0xfbf
 3010 0e36 1E       		.uleb128 0x1e
 3011 0e37 01       		.uleb128 0x1
 3012 0e38 52       		.byte	0x52
 3013 0e39 01       		.uleb128 0x1
 3014 0e3a 35       		.byte	0x35
ARM GAS  /tmp/ccZvnD1b.s 			page 54


 3015 0e3b 1E       		.uleb128 0x1e
 3016 0e3c 01       		.uleb128 0x1
 3017 0e3d 50       		.byte	0x50
 3018 0e3e 05       		.uleb128 0x5
 3019 0e3f 03       		.byte	0x3
 3020 0e40 00000000 		.4byte	.LANCHOR0
 3021 0e44 00       		.byte	0
 3022 0e45 00       		.byte	0
 3023 0e46 21       		.uleb128 0x21
 3024 0e47 6D623100 		.ascii	"mb1\000"
 3025 0e4b 01       		.byte	0x1
 3026 0e4c 3C       		.byte	0x3c
 3027 0e4d EE030000 		.4byte	0x3ee
 3028 0e51 05       		.uleb128 0x5
 3029 0e52 03       		.byte	0x3
 3030 0e53 00000000 		.4byte	mb1
 3031 0e57 22       		.uleb128 0x22
 3032 0e58 02010000 		.4byte	.LASF80
 3033 0e5c 0B       		.byte	0xb
 3034 0e5d A6       		.byte	0xa6
 3035 0e5e E5040000 		.4byte	0x4e5
 3036 0e62 23       		.uleb128 0x23
 3037 0e63 BF020000 		.4byte	.LASF81
 3038 0e67 01       		.byte	0x1
 3039 0e68 DE       		.byte	0xde
 3040 0e69 730E0000 		.4byte	0xe73
 3041 0e6d 05       		.uleb128 0x5
 3042 0e6e 03       		.byte	0x3
 3043 0e6f 00000000 		.4byte	testmbox1
 3044 0e73 10       		.uleb128 0x10
 3045 0e74 4C040000 		.4byte	0x44c
 3046 0e78 14       		.uleb128 0x14
 3047 0e79 880E0000 		.4byte	0xe88
 3048 0e7d 880E0000 		.4byte	0xe88
 3049 0e81 15       		.uleb128 0x15
 3050 0e82 19030000 		.4byte	0x319
 3051 0e86 01       		.byte	0x1
 3052 0e87 00       		.byte	0
 3053 0e88 09       		.uleb128 0x9
 3054 0e89 04       		.byte	0x4
 3055 0e8a 730E0000 		.4byte	0xe73
 3056 0e8e 23       		.uleb128 0x23
 3057 0e8f ED000000 		.4byte	.LASF82
 3058 0e93 01       		.byte	0x1
 3059 0e94 EA       		.byte	0xea
 3060 0e95 9F0E0000 		.4byte	0xe9f
 3061 0e99 05       		.uleb128 0x5
 3062 0e9a 03       		.byte	0x3
 3063 0e9b 00000000 		.4byte	patternmbox
 3064 0e9f 10       		.uleb128 0x10
 3065 0ea0 780E0000 		.4byte	0xe78
 3066 0ea4 24       		.uleb128 0x24
 3067 0ea5 88040000 		.4byte	.LASF83
 3068 0ea9 0B       		.byte	0xb
 3069 0eaa 58       		.byte	0x58
 3070 0eab C3000000 		.4byte	0xc3
 3071 0eaf BE0E0000 		.4byte	0xebe
ARM GAS  /tmp/ccZvnD1b.s 			page 55


 3072 0eb3 25       		.uleb128 0x25
 3073 0eb4 2C000000 		.4byte	0x2c
 3074 0eb8 25       		.uleb128 0x25
 3075 0eb9 C3000000 		.4byte	0xc3
 3076 0ebd 00       		.byte	0
 3077 0ebe 24       		.uleb128 0x24
 3078 0ebf 69010000 		.4byte	.LASF84
 3079 0ec3 0A       		.byte	0xa
 3080 0ec4 45       		.byte	0x45
 3081 0ec5 F6000000 		.4byte	0xf6
 3082 0ec9 DD0E0000 		.4byte	0xedd
 3083 0ecd 25       		.uleb128 0x25
 3084 0ece DD0E0000 		.4byte	0xedd
 3085 0ed2 25       		.uleb128 0x25
 3086 0ed3 F6000000 		.4byte	0xf6
 3087 0ed7 25       		.uleb128 0x25
 3088 0ed8 0C010000 		.4byte	0x10c
 3089 0edc 00       		.byte	0
 3090 0edd 09       		.uleb128 0x9
 3091 0ede 04       		.byte	0x4
 3092 0edf EE030000 		.4byte	0x3ee
 3093 0ee3 24       		.uleb128 0x24
 3094 0ee4 26040000 		.4byte	.LASF85
 3095 0ee8 0A       		.byte	0xa
 3096 0ee9 48       		.byte	0x48
 3097 0eea F6000000 		.4byte	0xf6
 3098 0eee 020F0000 		.4byte	0xf02
 3099 0ef2 25       		.uleb128 0x25
 3100 0ef3 DD0E0000 		.4byte	0xedd
 3101 0ef7 25       		.uleb128 0x25
 3102 0ef8 F6000000 		.4byte	0xf6
 3103 0efc 25       		.uleb128 0x25
 3104 0efd 0C010000 		.4byte	0x10c
 3105 0f01 00       		.byte	0
 3106 0f02 26       		.uleb128 0x26
 3107 0f03 39030000 		.4byte	.LASF87
 3108 0f07 0C       		.byte	0xc
 3109 0f08 E7       		.byte	0xe7
 3110 0f09 24       		.uleb128 0x24
 3111 0f0a 20000000 		.4byte	.LASF86
 3112 0f0e 0A       		.byte	0xa
 3113 0f0f 47       		.byte	0x47
 3114 0f10 F6000000 		.4byte	0xf6
 3115 0f14 230F0000 		.4byte	0xf23
 3116 0f18 25       		.uleb128 0x25
 3117 0f19 DD0E0000 		.4byte	0xedd
 3118 0f1d 25       		.uleb128 0x25
 3119 0f1e F6000000 		.4byte	0xf6
 3120 0f22 00       		.byte	0
 3121 0f23 26       		.uleb128 0x26
 3122 0f24 48030000 		.4byte	.LASF88
 3123 0f28 0C       		.byte	0xc
 3124 0f29 E8       		.byte	0xe8
 3125 0f2a 24       		.uleb128 0x24
 3126 0f2b C7000000 		.4byte	.LASF89
 3127 0f2f 0A       		.byte	0xa
 3128 0f30 4A       		.byte	0x4a
ARM GAS  /tmp/ccZvnD1b.s 			page 56


 3129 0f31 F6000000 		.4byte	0xf6
 3130 0f35 440F0000 		.4byte	0xf44
 3131 0f39 25       		.uleb128 0x25
 3132 0f3a DD0E0000 		.4byte	0xedd
 3133 0f3e 25       		.uleb128 0x25
 3134 0f3f F6000000 		.4byte	0xf6
 3135 0f43 00       		.byte	0
 3136 0f44 24       		.uleb128 0x24
 3137 0f45 46040000 		.4byte	.LASF90
 3138 0f49 0A       		.byte	0xa
 3139 0f4a 4B       		.byte	0x4b
 3140 0f4b F6000000 		.4byte	0xf6
 3141 0f4f 630F0000 		.4byte	0xf63
 3142 0f53 25       		.uleb128 0x25
 3143 0f54 DD0E0000 		.4byte	0xedd
 3144 0f58 25       		.uleb128 0x25
 3145 0f59 E8030000 		.4byte	0x3e8
 3146 0f5d 25       		.uleb128 0x25
 3147 0f5e 0C010000 		.4byte	0x10c
 3148 0f62 00       		.byte	0
 3149 0f63 27       		.uleb128 0x27
 3150 0f64 59010000 		.4byte	.LASF93
 3151 0f68 0B       		.byte	0xb
 3152 0f69 56       		.byte	0x56
 3153 0f6a 740F0000 		.4byte	0xf74
 3154 0f6e 25       		.uleb128 0x25
 3155 0f6f 39040000 		.4byte	0x439
 3156 0f73 00       		.byte	0
 3157 0f74 24       		.uleb128 0x24
 3158 0f75 0B030000 		.4byte	.LASF91
 3159 0f79 0B       		.byte	0xb
 3160 0f7a 59       		.byte	0x59
 3161 0f7b C3000000 		.4byte	0xc3
 3162 0f7f 8E0F0000 		.4byte	0xf8e
 3163 0f83 25       		.uleb128 0x25
 3164 0f84 2C000000 		.4byte	0x2c
 3165 0f88 25       		.uleb128 0x25
 3166 0f89 8E0F0000 		.4byte	0xf8e
 3167 0f8d 00       		.byte	0
 3168 0f8e 09       		.uleb128 0x9
 3169 0f8f 04       		.byte	0x4
 3170 0f90 39040000 		.4byte	0x439
 3171 0f94 24       		.uleb128 0x24
 3172 0f95 7C020000 		.4byte	.LASF92
 3173 0f99 0A       		.byte	0xa
 3174 0f9a 4D       		.byte	0x4d
 3175 0f9b F6000000 		.4byte	0xf6
 3176 0f9f AE0F0000 		.4byte	0xfae
 3177 0fa3 25       		.uleb128 0x25
 3178 0fa4 DD0E0000 		.4byte	0xedd
 3179 0fa8 25       		.uleb128 0x25
 3180 0fa9 E8030000 		.4byte	0x3e8
 3181 0fad 00       		.byte	0
 3182 0fae 27       		.uleb128 0x27
 3183 0faf E6020000 		.4byte	.LASF94
 3184 0fb3 0A       		.byte	0xa
 3185 0fb4 44       		.byte	0x44
ARM GAS  /tmp/ccZvnD1b.s 			page 57


 3186 0fb5 BF0F0000 		.4byte	0xfbf
 3187 0fb9 25       		.uleb128 0x25
 3188 0fba DD0E0000 		.4byte	0xedd
 3189 0fbe 00       		.byte	0
 3190 0fbf 28       		.uleb128 0x28
 3191 0fc0 CD010000 		.4byte	.LASF99
 3192 0fc4 0A       		.byte	0xa
 3193 0fc5 43       		.byte	0x43
 3194 0fc6 25       		.uleb128 0x25
 3195 0fc7 DD0E0000 		.4byte	0xedd
 3196 0fcb 25       		.uleb128 0x25
 3197 0fcc E8030000 		.4byte	0x3e8
 3198 0fd0 25       		.uleb128 0x25
 3199 0fd1 17010000 		.4byte	0x117
 3200 0fd5 00       		.byte	0
 3201 0fd6 00       		.byte	0
 3202              		.section	.debug_abbrev,"",%progbits
 3203              	.Ldebug_abbrev0:
 3204 0000 01       		.uleb128 0x1
 3205 0001 11       		.uleb128 0x11
 3206 0002 01       		.byte	0x1
 3207 0003 25       		.uleb128 0x25
 3208 0004 0E       		.uleb128 0xe
 3209 0005 13       		.uleb128 0x13
 3210 0006 0B       		.uleb128 0xb
 3211 0007 03       		.uleb128 0x3
 3212 0008 0E       		.uleb128 0xe
 3213 0009 1B       		.uleb128 0x1b
 3214 000a 0E       		.uleb128 0xe
 3215 000b 55       		.uleb128 0x55
 3216 000c 17       		.uleb128 0x17
 3217 000d 11       		.uleb128 0x11
 3218 000e 01       		.uleb128 0x1
 3219 000f 10       		.uleb128 0x10
 3220 0010 17       		.uleb128 0x17
 3221 0011 00       		.byte	0
 3222 0012 00       		.byte	0
 3223 0013 02       		.uleb128 0x2
 3224 0014 24       		.uleb128 0x24
 3225 0015 00       		.byte	0
 3226 0016 0B       		.uleb128 0xb
 3227 0017 0B       		.uleb128 0xb
 3228 0018 3E       		.uleb128 0x3e
 3229 0019 0B       		.uleb128 0xb
 3230 001a 03       		.uleb128 0x3
 3231 001b 08       		.uleb128 0x8
 3232 001c 00       		.byte	0
 3233 001d 00       		.byte	0
 3234 001e 03       		.uleb128 0x3
 3235 001f 24       		.uleb128 0x24
 3236 0020 00       		.byte	0
 3237 0021 0B       		.uleb128 0xb
 3238 0022 0B       		.uleb128 0xb
 3239 0023 3E       		.uleb128 0x3e
 3240 0024 0B       		.uleb128 0xb
 3241 0025 03       		.uleb128 0x3
 3242 0026 0E       		.uleb128 0xe
ARM GAS  /tmp/ccZvnD1b.s 			page 58


 3243 0027 00       		.byte	0
 3244 0028 00       		.byte	0
 3245 0029 04       		.uleb128 0x4
 3246 002a 16       		.uleb128 0x16
 3247 002b 00       		.byte	0
 3248 002c 03       		.uleb128 0x3
 3249 002d 0E       		.uleb128 0xe
 3250 002e 3A       		.uleb128 0x3a
 3251 002f 0B       		.uleb128 0xb
 3252 0030 3B       		.uleb128 0x3b
 3253 0031 0B       		.uleb128 0xb
 3254 0032 49       		.uleb128 0x49
 3255 0033 13       		.uleb128 0x13
 3256 0034 00       		.byte	0
 3257 0035 00       		.byte	0
 3258 0036 05       		.uleb128 0x5
 3259 0037 13       		.uleb128 0x13
 3260 0038 01       		.byte	0x1
 3261 0039 03       		.uleb128 0x3
 3262 003a 0E       		.uleb128 0xe
 3263 003b 0B       		.uleb128 0xb
 3264 003c 0B       		.uleb128 0xb
 3265 003d 3A       		.uleb128 0x3a
 3266 003e 0B       		.uleb128 0xb
 3267 003f 3B       		.uleb128 0x3b
 3268 0040 0B       		.uleb128 0xb
 3269 0041 01       		.uleb128 0x1
 3270 0042 13       		.uleb128 0x13
 3271 0043 00       		.byte	0
 3272 0044 00       		.byte	0
 3273 0045 06       		.uleb128 0x6
 3274 0046 0D       		.uleb128 0xd
 3275 0047 00       		.byte	0
 3276 0048 03       		.uleb128 0x3
 3277 0049 0E       		.uleb128 0xe
 3278 004a 3A       		.uleb128 0x3a
 3279 004b 0B       		.uleb128 0xb
 3280 004c 3B       		.uleb128 0x3b
 3281 004d 0B       		.uleb128 0xb
 3282 004e 49       		.uleb128 0x49
 3283 004f 13       		.uleb128 0x13
 3284 0050 38       		.uleb128 0x38
 3285 0051 0B       		.uleb128 0xb
 3286 0052 00       		.byte	0
 3287 0053 00       		.byte	0
 3288 0054 07       		.uleb128 0x7
 3289 0055 0D       		.uleb128 0xd
 3290 0056 00       		.byte	0
 3291 0057 03       		.uleb128 0x3
 3292 0058 08       		.uleb128 0x8
 3293 0059 3A       		.uleb128 0x3a
 3294 005a 0B       		.uleb128 0xb
 3295 005b 3B       		.uleb128 0x3b
 3296 005c 0B       		.uleb128 0xb
 3297 005d 49       		.uleb128 0x49
 3298 005e 13       		.uleb128 0x13
 3299 005f 38       		.uleb128 0x38
ARM GAS  /tmp/ccZvnD1b.s 			page 59


 3300 0060 0B       		.uleb128 0xb
 3301 0061 00       		.byte	0
 3302 0062 00       		.byte	0
 3303 0063 08       		.uleb128 0x8
 3304 0064 13       		.uleb128 0x13
 3305 0065 01       		.byte	0x1
 3306 0066 0B       		.uleb128 0xb
 3307 0067 0B       		.uleb128 0xb
 3308 0068 3A       		.uleb128 0x3a
 3309 0069 0B       		.uleb128 0xb
 3310 006a 3B       		.uleb128 0x3b
 3311 006b 0B       		.uleb128 0xb
 3312 006c 01       		.uleb128 0x1
 3313 006d 13       		.uleb128 0x13
 3314 006e 00       		.byte	0
 3315 006f 00       		.byte	0
 3316 0070 09       		.uleb128 0x9
 3317 0071 0F       		.uleb128 0xf
 3318 0072 00       		.byte	0
 3319 0073 0B       		.uleb128 0xb
 3320 0074 0B       		.uleb128 0xb
 3321 0075 49       		.uleb128 0x49
 3322 0076 13       		.uleb128 0x13
 3323 0077 00       		.byte	0
 3324 0078 00       		.byte	0
 3325 0079 0A       		.uleb128 0xa
 3326 007a 0F       		.uleb128 0xf
 3327 007b 00       		.byte	0
 3328 007c 0B       		.uleb128 0xb
 3329 007d 0B       		.uleb128 0xb
 3330 007e 00       		.byte	0
 3331 007f 00       		.byte	0
 3332 0080 0B       		.uleb128 0xb
 3333 0081 13       		.uleb128 0x13
 3334 0082 01       		.byte	0x1
 3335 0083 03       		.uleb128 0x3
 3336 0084 0E       		.uleb128 0xe
 3337 0085 0B       		.uleb128 0xb
 3338 0086 0B       		.uleb128 0xb
 3339 0087 3A       		.uleb128 0x3a
 3340 0088 0B       		.uleb128 0xb
 3341 0089 3B       		.uleb128 0x3b
 3342 008a 05       		.uleb128 0x5
 3343 008b 01       		.uleb128 0x1
 3344 008c 13       		.uleb128 0x13
 3345 008d 00       		.byte	0
 3346 008e 00       		.byte	0
 3347 008f 0C       		.uleb128 0xc
 3348 0090 0D       		.uleb128 0xd
 3349 0091 00       		.byte	0
 3350 0092 03       		.uleb128 0x3
 3351 0093 08       		.uleb128 0x8
 3352 0094 3A       		.uleb128 0x3a
 3353 0095 0B       		.uleb128 0xb
 3354 0096 3B       		.uleb128 0x3b
 3355 0097 05       		.uleb128 0x5
 3356 0098 49       		.uleb128 0x49
ARM GAS  /tmp/ccZvnD1b.s 			page 60


 3357 0099 13       		.uleb128 0x13
 3358 009a 38       		.uleb128 0x38
 3359 009b 0B       		.uleb128 0xb
 3360 009c 00       		.byte	0
 3361 009d 00       		.byte	0
 3362 009e 0D       		.uleb128 0xd
 3363 009f 35       		.uleb128 0x35
 3364 00a0 00       		.byte	0
 3365 00a1 49       		.uleb128 0x49
 3366 00a2 13       		.uleb128 0x13
 3367 00a3 00       		.byte	0
 3368 00a4 00       		.byte	0
 3369 00a5 0E       		.uleb128 0xe
 3370 00a6 17       		.uleb128 0x17
 3371 00a7 01       		.byte	0x1
 3372 00a8 0B       		.uleb128 0xb
 3373 00a9 0B       		.uleb128 0xb
 3374 00aa 3A       		.uleb128 0x3a
 3375 00ab 0B       		.uleb128 0xb
 3376 00ac 3B       		.uleb128 0x3b
 3377 00ad 0B       		.uleb128 0xb
 3378 00ae 01       		.uleb128 0x1
 3379 00af 13       		.uleb128 0x13
 3380 00b0 00       		.byte	0
 3381 00b1 00       		.byte	0
 3382 00b2 0F       		.uleb128 0xf
 3383 00b3 0D       		.uleb128 0xd
 3384 00b4 00       		.byte	0
 3385 00b5 03       		.uleb128 0x3
 3386 00b6 0E       		.uleb128 0xe
 3387 00b7 3A       		.uleb128 0x3a
 3388 00b8 0B       		.uleb128 0xb
 3389 00b9 3B       		.uleb128 0x3b
 3390 00ba 0B       		.uleb128 0xb
 3391 00bb 49       		.uleb128 0x49
 3392 00bc 13       		.uleb128 0x13
 3393 00bd 00       		.byte	0
 3394 00be 00       		.byte	0
 3395 00bf 10       		.uleb128 0x10
 3396 00c0 26       		.uleb128 0x26
 3397 00c1 00       		.byte	0
 3398 00c2 49       		.uleb128 0x49
 3399 00c3 13       		.uleb128 0x13
 3400 00c4 00       		.byte	0
 3401 00c5 00       		.byte	0
 3402 00c6 11       		.uleb128 0x11
 3403 00c7 15       		.uleb128 0x15
 3404 00c8 00       		.byte	0
 3405 00c9 27       		.uleb128 0x27
 3406 00ca 19       		.uleb128 0x19
 3407 00cb 00       		.byte	0
 3408 00cc 00       		.byte	0
 3409 00cd 12       		.uleb128 0x12
 3410 00ce 13       		.uleb128 0x13
 3411 00cf 01       		.byte	0x1
 3412 00d0 0B       		.uleb128 0xb
 3413 00d1 05       		.uleb128 0x5
ARM GAS  /tmp/ccZvnD1b.s 			page 61


 3414 00d2 3A       		.uleb128 0x3a
 3415 00d3 0B       		.uleb128 0xb
 3416 00d4 3B       		.uleb128 0x3b
 3417 00d5 0B       		.uleb128 0xb
 3418 00d6 01       		.uleb128 0x1
 3419 00d7 13       		.uleb128 0x13
 3420 00d8 00       		.byte	0
 3421 00d9 00       		.byte	0
 3422 00da 13       		.uleb128 0x13
 3423 00db 0D       		.uleb128 0xd
 3424 00dc 00       		.byte	0
 3425 00dd 03       		.uleb128 0x3
 3426 00de 08       		.uleb128 0x8
 3427 00df 3A       		.uleb128 0x3a
 3428 00e0 0B       		.uleb128 0xb
 3429 00e1 3B       		.uleb128 0x3b
 3430 00e2 0B       		.uleb128 0xb
 3431 00e3 49       		.uleb128 0x49
 3432 00e4 13       		.uleb128 0x13
 3433 00e5 38       		.uleb128 0x38
 3434 00e6 05       		.uleb128 0x5
 3435 00e7 00       		.byte	0
 3436 00e8 00       		.byte	0
 3437 00e9 14       		.uleb128 0x14
 3438 00ea 01       		.uleb128 0x1
 3439 00eb 01       		.byte	0x1
 3440 00ec 49       		.uleb128 0x49
 3441 00ed 13       		.uleb128 0x13
 3442 00ee 01       		.uleb128 0x1
 3443 00ef 13       		.uleb128 0x13
 3444 00f0 00       		.byte	0
 3445 00f1 00       		.byte	0
 3446 00f2 15       		.uleb128 0x15
 3447 00f3 21       		.uleb128 0x21
 3448 00f4 00       		.byte	0
 3449 00f5 49       		.uleb128 0x49
 3450 00f6 13       		.uleb128 0x13
 3451 00f7 2F       		.uleb128 0x2f
 3452 00f8 0B       		.uleb128 0xb
 3453 00f9 00       		.byte	0
 3454 00fa 00       		.byte	0
 3455 00fb 16       		.uleb128 0x16
 3456 00fc 17       		.uleb128 0x17
 3457 00fd 01       		.byte	0x1
 3458 00fe 03       		.uleb128 0x3
 3459 00ff 0E       		.uleb128 0xe
 3460 0100 0B       		.uleb128 0xb
 3461 0101 05       		.uleb128 0x5
 3462 0102 3A       		.uleb128 0x3a
 3463 0103 0B       		.uleb128 0xb
 3464 0104 3B       		.uleb128 0x3b
 3465 0105 0B       		.uleb128 0xb
 3466 0106 01       		.uleb128 0x1
 3467 0107 13       		.uleb128 0x13
 3468 0108 00       		.byte	0
 3469 0109 00       		.byte	0
 3470 010a 17       		.uleb128 0x17
ARM GAS  /tmp/ccZvnD1b.s 			page 62


 3471 010b 0D       		.uleb128 0xd
 3472 010c 00       		.byte	0
 3473 010d 03       		.uleb128 0x3
 3474 010e 08       		.uleb128 0x8
 3475 010f 3A       		.uleb128 0x3a
 3476 0110 0B       		.uleb128 0xb
 3477 0111 3B       		.uleb128 0x3b
 3478 0112 0B       		.uleb128 0xb
 3479 0113 49       		.uleb128 0x49
 3480 0114 13       		.uleb128 0x13
 3481 0115 00       		.byte	0
 3482 0116 00       		.byte	0
 3483 0117 18       		.uleb128 0x18
 3484 0118 21       		.uleb128 0x21
 3485 0119 00       		.byte	0
 3486 011a 49       		.uleb128 0x49
 3487 011b 13       		.uleb128 0x13
 3488 011c 2F       		.uleb128 0x2f
 3489 011d 05       		.uleb128 0x5
 3490 011e 00       		.byte	0
 3491 011f 00       		.byte	0
 3492 0120 19       		.uleb128 0x19
 3493 0121 2E       		.uleb128 0x2e
 3494 0122 01       		.byte	0x1
 3495 0123 03       		.uleb128 0x3
 3496 0124 0E       		.uleb128 0xe
 3497 0125 3A       		.uleb128 0x3a
 3498 0126 0B       		.uleb128 0xb
 3499 0127 3B       		.uleb128 0x3b
 3500 0128 0B       		.uleb128 0xb
 3501 0129 27       		.uleb128 0x27
 3502 012a 19       		.uleb128 0x19
 3503 012b 11       		.uleb128 0x11
 3504 012c 01       		.uleb128 0x1
 3505 012d 12       		.uleb128 0x12
 3506 012e 06       		.uleb128 0x6
 3507 012f 40       		.uleb128 0x40
 3508 0130 18       		.uleb128 0x18
 3509 0131 9742     		.uleb128 0x2117
 3510 0133 19       		.uleb128 0x19
 3511 0134 01       		.uleb128 0x1
 3512 0135 13       		.uleb128 0x13
 3513 0136 00       		.byte	0
 3514 0137 00       		.byte	0
 3515 0138 1A       		.uleb128 0x1a
 3516 0139 34       		.uleb128 0x34
 3517 013a 00       		.byte	0
 3518 013b 03       		.uleb128 0x3
 3519 013c 0E       		.uleb128 0xe
 3520 013d 3A       		.uleb128 0x3a
 3521 013e 0B       		.uleb128 0xb
 3522 013f 3B       		.uleb128 0x3b
 3523 0140 0B       		.uleb128 0xb
 3524 0141 49       		.uleb128 0x49
 3525 0142 13       		.uleb128 0x13
 3526 0143 02       		.uleb128 0x2
 3527 0144 17       		.uleb128 0x17
ARM GAS  /tmp/ccZvnD1b.s 			page 63


 3528 0145 00       		.byte	0
 3529 0146 00       		.byte	0
 3530 0147 1B       		.uleb128 0x1b
 3531 0148 34       		.uleb128 0x34
 3532 0149 00       		.byte	0
 3533 014a 03       		.uleb128 0x3
 3534 014b 0E       		.uleb128 0xe
 3535 014c 3A       		.uleb128 0x3a
 3536 014d 0B       		.uleb128 0xb
 3537 014e 3B       		.uleb128 0x3b
 3538 014f 0B       		.uleb128 0xb
 3539 0150 49       		.uleb128 0x49
 3540 0151 13       		.uleb128 0x13
 3541 0152 02       		.uleb128 0x2
 3542 0153 18       		.uleb128 0x18
 3543 0154 00       		.byte	0
 3544 0155 00       		.byte	0
 3545 0156 1C       		.uleb128 0x1c
 3546 0157 34       		.uleb128 0x34
 3547 0158 00       		.byte	0
 3548 0159 03       		.uleb128 0x3
 3549 015a 08       		.uleb128 0x8
 3550 015b 3A       		.uleb128 0x3a
 3551 015c 0B       		.uleb128 0xb
 3552 015d 3B       		.uleb128 0x3b
 3553 015e 0B       		.uleb128 0xb
 3554 015f 49       		.uleb128 0x49
 3555 0160 13       		.uleb128 0x13
 3556 0161 02       		.uleb128 0x2
 3557 0162 17       		.uleb128 0x17
 3558 0163 00       		.byte	0
 3559 0164 00       		.byte	0
 3560 0165 1D       		.uleb128 0x1d
 3561 0166 898201   		.uleb128 0x4109
 3562 0169 01       		.byte	0x1
 3563 016a 11       		.uleb128 0x11
 3564 016b 01       		.uleb128 0x1
 3565 016c 31       		.uleb128 0x31
 3566 016d 13       		.uleb128 0x13
 3567 016e 01       		.uleb128 0x1
 3568 016f 13       		.uleb128 0x13
 3569 0170 00       		.byte	0
 3570 0171 00       		.byte	0
 3571 0172 1E       		.uleb128 0x1e
 3572 0173 8A8201   		.uleb128 0x410a
 3573 0176 00       		.byte	0
 3574 0177 02       		.uleb128 0x2
 3575 0178 18       		.uleb128 0x18
 3576 0179 9142     		.uleb128 0x2111
 3577 017b 18       		.uleb128 0x18
 3578 017c 00       		.byte	0
 3579 017d 00       		.byte	0
 3580 017e 1F       		.uleb128 0x1f
 3581 017f 898201   		.uleb128 0x4109
 3582 0182 00       		.byte	0
 3583 0183 11       		.uleb128 0x11
 3584 0184 01       		.uleb128 0x1
ARM GAS  /tmp/ccZvnD1b.s 			page 64


 3585 0185 31       		.uleb128 0x31
 3586 0186 13       		.uleb128 0x13
 3587 0187 00       		.byte	0
 3588 0188 00       		.byte	0
 3589 0189 20       		.uleb128 0x20
 3590 018a 898201   		.uleb128 0x4109
 3591 018d 01       		.byte	0x1
 3592 018e 11       		.uleb128 0x11
 3593 018f 01       		.uleb128 0x1
 3594 0190 9542     		.uleb128 0x2115
 3595 0192 19       		.uleb128 0x19
 3596 0193 31       		.uleb128 0x31
 3597 0194 13       		.uleb128 0x13
 3598 0195 00       		.byte	0
 3599 0196 00       		.byte	0
 3600 0197 21       		.uleb128 0x21
 3601 0198 34       		.uleb128 0x34
 3602 0199 00       		.byte	0
 3603 019a 03       		.uleb128 0x3
 3604 019b 08       		.uleb128 0x8
 3605 019c 3A       		.uleb128 0x3a
 3606 019d 0B       		.uleb128 0xb
 3607 019e 3B       		.uleb128 0x3b
 3608 019f 0B       		.uleb128 0xb
 3609 01a0 49       		.uleb128 0x49
 3610 01a1 13       		.uleb128 0x13
 3611 01a2 02       		.uleb128 0x2
 3612 01a3 18       		.uleb128 0x18
 3613 01a4 00       		.byte	0
 3614 01a5 00       		.byte	0
 3615 01a6 22       		.uleb128 0x22
 3616 01a7 34       		.uleb128 0x34
 3617 01a8 00       		.byte	0
 3618 01a9 03       		.uleb128 0x3
 3619 01aa 0E       		.uleb128 0xe
 3620 01ab 3A       		.uleb128 0x3a
 3621 01ac 0B       		.uleb128 0xb
 3622 01ad 3B       		.uleb128 0x3b
 3623 01ae 0B       		.uleb128 0xb
 3624 01af 49       		.uleb128 0x49
 3625 01b0 13       		.uleb128 0x13
 3626 01b1 3F       		.uleb128 0x3f
 3627 01b2 19       		.uleb128 0x19
 3628 01b3 3C       		.uleb128 0x3c
 3629 01b4 19       		.uleb128 0x19
 3630 01b5 00       		.byte	0
 3631 01b6 00       		.byte	0
 3632 01b7 23       		.uleb128 0x23
 3633 01b8 34       		.uleb128 0x34
 3634 01b9 00       		.byte	0
 3635 01ba 03       		.uleb128 0x3
 3636 01bb 0E       		.uleb128 0xe
 3637 01bc 3A       		.uleb128 0x3a
 3638 01bd 0B       		.uleb128 0xb
 3639 01be 3B       		.uleb128 0x3b
 3640 01bf 0B       		.uleb128 0xb
 3641 01c0 49       		.uleb128 0x49
ARM GAS  /tmp/ccZvnD1b.s 			page 65


 3642 01c1 13       		.uleb128 0x13
 3643 01c2 3F       		.uleb128 0x3f
 3644 01c3 19       		.uleb128 0x19
 3645 01c4 02       		.uleb128 0x2
 3646 01c5 18       		.uleb128 0x18
 3647 01c6 00       		.byte	0
 3648 01c7 00       		.byte	0
 3649 01c8 24       		.uleb128 0x24
 3650 01c9 2E       		.uleb128 0x2e
 3651 01ca 01       		.byte	0x1
 3652 01cb 3F       		.uleb128 0x3f
 3653 01cc 19       		.uleb128 0x19
 3654 01cd 03       		.uleb128 0x3
 3655 01ce 0E       		.uleb128 0xe
 3656 01cf 3A       		.uleb128 0x3a
 3657 01d0 0B       		.uleb128 0xb
 3658 01d1 3B       		.uleb128 0x3b
 3659 01d2 0B       		.uleb128 0xb
 3660 01d3 27       		.uleb128 0x27
 3661 01d4 19       		.uleb128 0x19
 3662 01d5 49       		.uleb128 0x49
 3663 01d6 13       		.uleb128 0x13
 3664 01d7 3C       		.uleb128 0x3c
 3665 01d8 19       		.uleb128 0x19
 3666 01d9 01       		.uleb128 0x1
 3667 01da 13       		.uleb128 0x13
 3668 01db 00       		.byte	0
 3669 01dc 00       		.byte	0
 3670 01dd 25       		.uleb128 0x25
 3671 01de 05       		.uleb128 0x5
 3672 01df 00       		.byte	0
 3673 01e0 49       		.uleb128 0x49
 3674 01e1 13       		.uleb128 0x13
 3675 01e2 00       		.byte	0
 3676 01e3 00       		.byte	0
 3677 01e4 26       		.uleb128 0x26
 3678 01e5 2E       		.uleb128 0x2e
 3679 01e6 00       		.byte	0
 3680 01e7 3F       		.uleb128 0x3f
 3681 01e8 19       		.uleb128 0x19
 3682 01e9 03       		.uleb128 0x3
 3683 01ea 0E       		.uleb128 0xe
 3684 01eb 3A       		.uleb128 0x3a
 3685 01ec 0B       		.uleb128 0xb
 3686 01ed 3B       		.uleb128 0x3b
 3687 01ee 0B       		.uleb128 0xb
 3688 01ef 27       		.uleb128 0x27
 3689 01f0 19       		.uleb128 0x19
 3690 01f1 3C       		.uleb128 0x3c
 3691 01f2 19       		.uleb128 0x19
 3692 01f3 00       		.byte	0
 3693 01f4 00       		.byte	0
 3694 01f5 27       		.uleb128 0x27
 3695 01f6 2E       		.uleb128 0x2e
 3696 01f7 01       		.byte	0x1
 3697 01f8 3F       		.uleb128 0x3f
 3698 01f9 19       		.uleb128 0x19
ARM GAS  /tmp/ccZvnD1b.s 			page 66


 3699 01fa 03       		.uleb128 0x3
 3700 01fb 0E       		.uleb128 0xe
 3701 01fc 3A       		.uleb128 0x3a
 3702 01fd 0B       		.uleb128 0xb
 3703 01fe 3B       		.uleb128 0x3b
 3704 01ff 0B       		.uleb128 0xb
 3705 0200 27       		.uleb128 0x27
 3706 0201 19       		.uleb128 0x19
 3707 0202 3C       		.uleb128 0x3c
 3708 0203 19       		.uleb128 0x19
 3709 0204 01       		.uleb128 0x1
 3710 0205 13       		.uleb128 0x13
 3711 0206 00       		.byte	0
 3712 0207 00       		.byte	0
 3713 0208 28       		.uleb128 0x28
 3714 0209 2E       		.uleb128 0x2e
 3715 020a 01       		.byte	0x1
 3716 020b 3F       		.uleb128 0x3f
 3717 020c 19       		.uleb128 0x19
 3718 020d 03       		.uleb128 0x3
 3719 020e 0E       		.uleb128 0xe
 3720 020f 3A       		.uleb128 0x3a
 3721 0210 0B       		.uleb128 0xb
 3722 0211 3B       		.uleb128 0x3b
 3723 0212 0B       		.uleb128 0xb
 3724 0213 27       		.uleb128 0x27
 3725 0214 19       		.uleb128 0x19
 3726 0215 3C       		.uleb128 0x3c
 3727 0216 19       		.uleb128 0x19
 3728 0217 00       		.byte	0
 3729 0218 00       		.byte	0
 3730 0219 00       		.byte	0
 3731              		.section	.debug_loc,"",%progbits
 3732              	.Ldebug_loc0:
 3733              	.LLST0:
 3734 0000 36000000 		.4byte	.LVL2
 3735 0004 40000000 		.4byte	.LVL3
 3736 0008 0100     		.2byte	0x1
 3737 000a 50       		.byte	0x50
 3738 000b 5E000000 		.4byte	.LVL6
 3739 000f 68000000 		.4byte	.LVL7
 3740 0013 0100     		.2byte	0x1
 3741 0015 50       		.byte	0x50
 3742 0016 82000000 		.4byte	.LVL9
 3743 001a 8C000000 		.4byte	.LVL10
 3744 001e 0100     		.2byte	0x1
 3745 0020 50       		.byte	0x50
 3746 0021 8C000000 		.4byte	.LVL10
 3747 0025 AC000000 		.4byte	.LVL14
 3748 0029 0300     		.2byte	0x3
 3749 002b 76       		.byte	0x76
 3750 002c 7F       		.sleb128 -1
 3751 002d 9F       		.byte	0x9f
 3752 002e AC000000 		.4byte	.LVL14
 3753 0032 AF000000 		.4byte	.LVL15-1
 3754 0036 0100     		.2byte	0x1
 3755 0038 50       		.byte	0x50
ARM GAS  /tmp/ccZvnD1b.s 			page 67


 3756 0039 AF000000 		.4byte	.LVL15-1
 3757 003d B8000000 		.4byte	.LVL16
 3758 0041 0100     		.2byte	0x1
 3759 0043 54       		.byte	0x54
 3760 0044 B8000000 		.4byte	.LVL16
 3761 0048 D6000000 		.4byte	.LVL18
 3762 004c 0300     		.2byte	0x3
 3763 004e 74       		.byte	0x74
 3764 004f 7F       		.sleb128 -1
 3765 0050 9F       		.byte	0x9f
 3766 0051 D6000000 		.4byte	.LVL18
 3767 0055 E0000000 		.4byte	.LVL19
 3768 0059 0100     		.2byte	0x1
 3769 005b 50       		.byte	0x50
 3770 005c E0000000 		.4byte	.LVL19
 3771 0060 E3000000 		.4byte	.LVL20-1
 3772 0064 0300     		.2byte	0x3
 3773 0066 72       		.byte	0x72
 3774 0067 7F       		.sleb128 -1
 3775 0068 9F       		.byte	0x9f
 3776 0069 00010000 		.4byte	.LVL23
 3777 006d 03010000 		.4byte	.LVL24-1
 3778 0071 0100     		.2byte	0x1
 3779 0073 50       		.byte	0x50
 3780 0074 03010000 		.4byte	.LVL24-1
 3781 0078 98010000 		.4byte	.LVL36
 3782 007c 0100     		.2byte	0x1
 3783 007e 54       		.byte	0x54
 3784 007f AC010000 		.4byte	.LVL37
 3785 0083 B6010000 		.4byte	.LVL38
 3786 0087 0100     		.2byte	0x1
 3787 0089 50       		.byte	0x50
 3788 008a EC010000 		.4byte	.LVL43
 3789 008e F6010000 		.4byte	.LVL44
 3790 0092 0100     		.2byte	0x1
 3791 0094 50       		.byte	0x50
 3792 0095 0C020000 		.4byte	.LVL46
 3793 0099 16020000 		.4byte	.LVL47
 3794 009d 0100     		.2byte	0x1
 3795 009f 50       		.byte	0x50
 3796 00a0 56020000 		.4byte	.LVL52
 3797 00a4 60020000 		.4byte	.LVL53
 3798 00a8 0100     		.2byte	0x1
 3799 00aa 50       		.byte	0x50
 3800 00ab 60020000 		.4byte	.LVL53
 3801 00af 63020000 		.4byte	.LVL54-1
 3802 00b3 0300     		.2byte	0x3
 3803 00b5 73       		.byte	0x73
 3804 00b6 7F       		.sleb128 -1
 3805 00b7 9F       		.byte	0x9f
 3806 00b8 82020000 		.4byte	.LVL57
 3807 00bc 85020000 		.4byte	.LVL58-1
 3808 00c0 0100     		.2byte	0x1
 3809 00c2 50       		.byte	0x50
 3810 00c3 85020000 		.4byte	.LVL58-1
 3811 00c7 2E030000 		.4byte	.LVL70
 3812 00cb 0100     		.2byte	0x1
ARM GAS  /tmp/ccZvnD1b.s 			page 68


 3813 00cd 54       		.byte	0x54
 3814 00ce 2E030000 		.4byte	.LVL70
 3815 00d2 38030000 		.4byte	.LVL71
 3816 00d6 0100     		.2byte	0x1
 3817 00d8 50       		.byte	0x50
 3818 00d9 50030000 		.4byte	.LVL73
 3819 00dd 5A030000 		.4byte	.LVL74
 3820 00e1 0100     		.2byte	0x1
 3821 00e3 50       		.byte	0x50
 3822 00e4 72030000 		.4byte	.LVL76
 3823 00e8 7C030000 		.4byte	.LVL77
 3824 00ec 0100     		.2byte	0x1
 3825 00ee 50       		.byte	0x50
 3826 00ef 94030000 		.4byte	.LVL79
 3827 00f3 9E030000 		.4byte	.LVL80
 3828 00f7 0100     		.2byte	0x1
 3829 00f9 50       		.byte	0x50
 3830 00fa B8030000 		.4byte	.LVL83
 3831 00fe BB030000 		.4byte	.LVL84-1
 3832 0102 0100     		.2byte	0x1
 3833 0104 50       		.byte	0x50
 3834 0105 BB030000 		.4byte	.LVL84-1
 3835 0109 DA030000 		.4byte	.LVL86
 3836 010d 0100     		.2byte	0x1
 3837 010f 54       		.byte	0x54
 3838 0110 04040000 		.4byte	.LVL91
 3839 0114 07040000 		.4byte	.LVL92-1
 3840 0118 0100     		.2byte	0x1
 3841 011a 50       		.byte	0x50
 3842 011b 07040000 		.4byte	.LVL92-1
 3843 011f B6040000 		.4byte	.LVL105
 3844 0123 0100     		.2byte	0x1
 3845 0125 56       		.byte	0x56
 3846 0126 B6040000 		.4byte	.LVL105
 3847 012a C0040000 		.4byte	.LVL106
 3848 012e 0100     		.2byte	0x1
 3849 0130 50       		.byte	0x50
 3850 0131 D8040000 		.4byte	.LVL108
 3851 0135 E2040000 		.4byte	.LVL109
 3852 0139 0100     		.2byte	0x1
 3853 013b 50       		.byte	0x50
 3854 013c FA040000 		.4byte	.LVL111
 3855 0140 04050000 		.4byte	.LVL112
 3856 0144 0100     		.2byte	0x1
 3857 0146 50       		.byte	0x50
 3858 0147 1C050000 		.4byte	.LVL114
 3859 014b 26050000 		.4byte	.LVL115
 3860 014f 0100     		.2byte	0x1
 3861 0151 50       		.byte	0x50
 3862 0152 40050000 		.4byte	.LVL118
 3863 0156 43050000 		.4byte	.LVL119-1
 3864 015a 0100     		.2byte	0x1
 3865 015c 50       		.byte	0x50
 3866 015d 43050000 		.4byte	.LVL119-1
 3867 0161 7A050000 		.4byte	.LVL122
 3868 0165 0100     		.2byte	0x1
 3869 0167 54       		.byte	0x54
ARM GAS  /tmp/ccZvnD1b.s 			page 69


 3870 0168 92050000 		.4byte	.LVL125
 3871 016c 95050000 		.4byte	.LVL126-1
 3872 0170 0100     		.2byte	0x1
 3873 0172 50       		.byte	0x50
 3874 0173 95050000 		.4byte	.LVL126-1
 3875 0177 20060000 		.4byte	.LVL137
 3876 017b 0100     		.2byte	0x1
 3877 017d 56       		.byte	0x56
 3878 017e 00000000 		.4byte	0
 3879 0182 00000000 		.4byte	0
 3880              	.LLST1:
 3881 0186 24000000 		.4byte	.LVL1
 3882 018a 42000000 		.4byte	.LVL4
 3883 018e 0400     		.2byte	0x4
 3884 0190 74       		.byte	0x74
 3885 0191 BE7F     		.sleb128 -66
 3886 0193 9F       		.byte	0x9f
 3887 0194 42000000 		.4byte	.LVL4
 3888 0198 46000000 		.4byte	.LVL5
 3889 019c 0400     		.2byte	0x4
 3890 019e 74       		.byte	0x74
 3891 019f BD7F     		.sleb128 -67
 3892 01a1 9F       		.byte	0x9f
 3893 01a2 96010000 		.4byte	.LVL35
 3894 01a6 98010000 		.4byte	.LVL36
 3895 01aa 0200     		.2byte	0x2
 3896 01ac 30       		.byte	0x30
 3897 01ad 9F       		.byte	0x9f
 3898 01ae 98010000 		.4byte	.LVL36
 3899 01b2 C8010000 		.4byte	.LVL40
 3900 01b6 0500     		.2byte	0x5
 3901 01b8 35       		.byte	0x35
 3902 01b9 76       		.byte	0x76
 3903 01ba 00       		.sleb128 0
 3904 01bb 1C       		.byte	0x1c
 3905 01bc 9F       		.byte	0x9f
 3906 01bd C8010000 		.4byte	.LVL40
 3907 01c1 CA010000 		.4byte	.LVL41
 3908 01c5 0500     		.2byte	0x5
 3909 01c7 36       		.byte	0x36
 3910 01c8 76       		.byte	0x76
 3911 01c9 00       		.sleb128 0
 3912 01ca 1C       		.byte	0x1c
 3913 01cb 9F       		.byte	0x9f
 3914 01cc CA010000 		.4byte	.LVL41
 3915 01d0 26020000 		.4byte	.LVL49
 3916 01d4 0500     		.2byte	0x5
 3917 01d6 35       		.byte	0x35
 3918 01d7 76       		.byte	0x76
 3919 01d8 00       		.sleb128 0
 3920 01d9 1C       		.byte	0x1c
 3921 01da 9F       		.byte	0x9f
 3922 01db EC030000 		.4byte	.LVL88
 3923 01df 28040000 		.4byte	.LVL94
 3924 01e3 0500     		.2byte	0x5
 3925 01e5 35       		.byte	0x35
 3926 01e6 74       		.byte	0x74
ARM GAS  /tmp/ccZvnD1b.s 			page 70


 3927 01e7 00       		.sleb128 0
 3928 01e8 1C       		.byte	0x1c
 3929 01e9 9F       		.byte	0x9f
 3930 01ea 28040000 		.4byte	.LVL94
 3931 01ee 2A040000 		.4byte	.LVL95
 3932 01f2 0500     		.2byte	0x5
 3933 01f4 36       		.byte	0x36
 3934 01f5 74       		.byte	0x74
 3935 01f6 00       		.sleb128 0
 3936 01f7 1C       		.byte	0x1c
 3937 01f8 9F       		.byte	0x9f
 3938 01f9 2A040000 		.4byte	.LVL95
 3939 01fd 40050000 		.4byte	.LVL118
 3940 0201 0500     		.2byte	0x5
 3941 0203 35       		.byte	0x35
 3942 0204 74       		.byte	0x74
 3943 0205 00       		.sleb128 0
 3944 0206 1C       		.byte	0x1c
 3945 0207 9F       		.byte	0x9f
 3946 0208 7A050000 		.4byte	.LVL122
 3947 020c B6050000 		.4byte	.LVL128
 3948 0210 0500     		.2byte	0x5
 3949 0212 35       		.byte	0x35
 3950 0213 74       		.byte	0x74
 3951 0214 00       		.sleb128 0
 3952 0215 1C       		.byte	0x1c
 3953 0216 9F       		.byte	0x9f
 3954 0217 B6050000 		.4byte	.LVL128
 3955 021b B8050000 		.4byte	.LVL129
 3956 021f 0500     		.2byte	0x5
 3957 0221 36       		.byte	0x36
 3958 0222 74       		.byte	0x74
 3959 0223 00       		.sleb128 0
 3960 0224 1C       		.byte	0x1c
 3961 0225 9F       		.byte	0x9f
 3962 0226 B8050000 		.4byte	.LVL129
 3963 022a 48060000 		.4byte	.LVL141
 3964 022e 0500     		.2byte	0x5
 3965 0230 35       		.byte	0x35
 3966 0231 74       		.byte	0x74
 3967 0232 00       		.sleb128 0
 3968 0233 1C       		.byte	0x1c
 3969 0234 9F       		.byte	0x9f
 3970 0235 00000000 		.4byte	0
 3971 0239 00000000 		.4byte	0
 3972              		.section	.debug_aranges,"",%progbits
 3973 0000 24000000 		.4byte	0x24
 3974 0004 0200     		.2byte	0x2
 3975 0006 00000000 		.4byte	.Ldebug_info0
 3976 000a 04       		.byte	0x4
 3977 000b 00       		.byte	0
 3978 000c 0000     		.2byte	0
 3979 000e 0000     		.2byte	0
 3980 0010 00000000 		.4byte	.LFB1
 3981 0014 C4060000 		.4byte	.LFE1-.LFB1
 3982 0018 00000000 		.4byte	.LFB0
 3983 001c 16000000 		.4byte	.LFE0-.LFB0
ARM GAS  /tmp/ccZvnD1b.s 			page 71


 3984 0020 00000000 		.4byte	0
 3985 0024 00000000 		.4byte	0
 3986              		.section	.debug_ranges,"",%progbits
 3987              	.Ldebug_ranges0:
 3988 0000 00000000 		.4byte	.LFB1
 3989 0004 C4060000 		.4byte	.LFE1
 3990 0008 00000000 		.4byte	.LFB0
 3991 000c 16000000 		.4byte	.LFE0
 3992 0010 00000000 		.4byte	0
 3993 0014 00000000 		.4byte	0
 3994              		.section	.debug_line,"",%progbits
 3995              	.Ldebug_line0:
 3996 0000 2B020000 		.section	.debug_str,"MS",%progbits,1
 3996      02003901 
 3996      00000201 
 3996      FB0E0D00 
 3996      01010101 
 3997              	.LASF40:
 3998 0000 705F6D73 		.ascii	"p_msg\000"
 3998      6700
 3999              	.LASF65:
 4000 0006 7264796D 		.ascii	"rdymsg\000"
 4000      736700
 4001              	.LASF16:
 4002 000d 75696E74 		.ascii	"uint64_t\000"
 4002      36345F74 
 4002      00
 4003              	.LASF5:
 4004 0016 5F5F7569 		.ascii	"__uint8_t\000"
 4004      6E74385F 
 4004      7400
 4005              	.LASF86:
 4006 0020 63684D42 		.ascii	"chMBPostI\000"
 4006      506F7374 
 4006      4900
 4007              	.LASF95:
 4008 002a 474E5520 		.ascii	"GNU C 4.8.2 -mcpu=cortex-m4 -mno-thumb-interwork -m"
 4008      4320342E 
 4008      382E3220 
 4008      2D6D6370 
 4008      753D636F 
 4009 005d 7468756D 		.ascii	"thumb -ggdb -O2 -fomit-frame-pointer -falign-functi"
 4009      62202D67 
 4009      67646220 
 4009      2D4F3220 
 4009      2D666F6D 
 4010 0090 6F6E733D 		.ascii	"ons=16 -ffunction-sections -fdata-sections -fno-com"
 4010      3136202D 
 4010      6666756E 
 4010      6374696F 
 4010      6E2D7365 
 4011 00c3 6D6F6E00 		.ascii	"mon\000"
 4012              	.LASF89:
 4013 00c7 63684D42 		.ascii	"chMBPostAheadI\000"
 4013      506F7374 
 4013      41686561 
 4013      644900
ARM GAS  /tmp/ccZvnD1b.s 			page 72


 4014              	.LASF12:
 4015 00d6 6C6F6E67 		.ascii	"long long unsigned int\000"
 4015      206C6F6E 
 4015      6720756E 
 4015      7369676E 
 4015      65642069 
 4016              	.LASF82:
 4017 00ed 70617474 		.ascii	"patternmbox\000"
 4017      65726E6D 
 4017      626F7800 
 4018              	.LASF66:
 4019 00f9 65786974 		.ascii	"exitcode\000"
 4019      636F6465 
 4019      00
 4020              	.LASF80:
 4021 0102 74657374 		.ascii	"test\000"
 4021      00
 4022              	.LASF60:
 4023 0107 6D625F77 		.ascii	"mb_wrptr\000"
 4023      72707472 
 4023      00
 4024              	.LASF29:
 4025 0110 705F7072 		.ascii	"p_prio\000"
 4025      696F00
 4026              	.LASF10:
 4027 0117 6C6F6E67 		.ascii	"long long int\000"
 4027      206C6F6E 
 4027      6720696E 
 4027      7400
 4028              	.LASF1:
 4029 0125 7369676E 		.ascii	"signed char\000"
 4029      65642063 
 4029      68617200 
 4030              	.LASF96:
 4031 0131 2E2E2F2E 		.ascii	"../../../test/testmbox.c\000"
 4031      2E2F2E2E 
 4031      2F746573 
 4031      742F7465 
 4031      73746D62 
 4032              	.LASF17:
 4033 014a 626F6F6C 		.ascii	"bool_t\000"
 4033      5F7400
 4034              	.LASF55:
 4035 0151 6D5F7175 		.ascii	"m_queue\000"
 4035      65756500 
 4036              	.LASF93:
 4037 0159 74657374 		.ascii	"test_emit_token\000"
 4037      5F656D69 
 4037      745F746F 
 4037      6B656E00 
 4038              	.LASF84:
 4039 0169 63684D42 		.ascii	"chMBPost\000"
 4039      506F7374 
 4039      00
 4040              	.LASF7:
 4041 0172 6C6F6E67 		.ascii	"long int\000"
 4041      20696E74 
ARM GAS  /tmp/ccZvnD1b.s 			page 73


 4041      00
 4042              	.LASF20:
 4043 017b 74737461 		.ascii	"tstate_t\000"
 4043      74655F74 
 4043      00
 4044              	.LASF75:
 4045 0184 62756666 		.ascii	"buffer\000"
 4045      657200
 4046              	.LASF31:
 4047 018b 705F6E65 		.ascii	"p_newer\000"
 4047      77657200 
 4048              	.LASF52:
 4049 0193 735F7175 		.ascii	"s_queue\000"
 4049      65756500 
 4050              	.LASF8:
 4051 019b 5F5F7569 		.ascii	"__uint32_t\000"
 4051      6E743332 
 4051      5F7400
 4052              	.LASF46:
 4053 01a6 72656761 		.ascii	"regarm_t\000"
 4053      726D5F74 
 4053      00
 4054              	.LASF25:
 4055 01af 636E745F 		.ascii	"cnt_t\000"
 4055      7400
 4056              	.LASF34:
 4057 01b5 705F7374 		.ascii	"p_stklimit\000"
 4057      6B6C696D 
 4057      697400
 4058              	.LASF0:
 4059 01c0 756E7369 		.ascii	"unsigned int\000"
 4059      676E6564 
 4059      20696E74 
 4059      00
 4060              	.LASF99:
 4061 01cd 63684D42 		.ascii	"chMBInit\000"
 4061      496E6974 
 4061      00
 4062              	.LASF76:
 4063 01d6 6D736731 		.ascii	"msg1\000"
 4063      00
 4064              	.LASF77:
 4065 01db 6D736732 		.ascii	"msg2\000"
 4065      00
 4066              	.LASF9:
 4067 01e0 6C6F6E67 		.ascii	"long unsigned int\000"
 4067      20756E73 
 4067      69676E65 
 4067      6420696E 
 4067      7400
 4068              	.LASF73:
 4069 01f2 74656172 		.ascii	"teardown\000"
 4069      646F776E 
 4069      00
 4070              	.LASF63:
 4071 01fb 6D625F65 		.ascii	"mb_emptysem\000"
 4071      6D707479 
ARM GAS  /tmp/ccZvnD1b.s 			page 74


 4071      73656D00 
 4072              	.LASF71:
 4073 0207 6E616D65 		.ascii	"name\000"
 4073      00
 4074              	.LASF53:
 4075 020c 735F636E 		.ascii	"s_cnt\000"
 4075      7400
 4076              	.LASF97:
 4077 0212 2F686F6D 		.ascii	"/home/ece497/vbox-shared/mplayer/ChibiOS-RT-stable_"
 4077      652F6563 
 4077      65343937 
 4077      2F76626F 
 4077      782D7368 
 4078 0245 322E362E 		.ascii	"2.6.x/testhal/STM32F4xx/I2C\000"
 4078      782F7465 
 4078      73746861 
 4078      6C2F5354 
 4078      4D333246 
 4079              	.LASF49:
 4080 0261 636F6E74 		.ascii	"context\000"
 4080      65787400 
 4081              	.LASF4:
 4082 0269 73686F72 		.ascii	"short unsigned int\000"
 4082      7420756E 
 4082      7369676E 
 4082      65642069 
 4082      6E7400
 4083              	.LASF92:
 4084 027c 63684D42 		.ascii	"chMBFetchI\000"
 4084      46657463 
 4084      684900
 4085              	.LASF22:
 4086 0287 6D73675F 		.ascii	"msg_t\000"
 4086      7400
 4087              	.LASF19:
 4088 028d 746D6F64 		.ascii	"tmode_t\000"
 4088      655F7400 
 4089              	.LASF79:
 4090 0295 6D626F78 		.ascii	"mbox1_setup\000"
 4090      315F7365 
 4090      74757000 
 4091              	.LASF45:
 4092 02a1 54687265 		.ascii	"ThreadsList\000"
 4092      6164734C 
 4092      69737400 
 4093              	.LASF23:
 4094 02ad 6576656E 		.ascii	"eventmask_t\000"
 4094      746D6173 
 4094      6B5F7400 
 4095              	.LASF54:
 4096 02b9 4D757465 		.ascii	"Mutex\000"
 4096      7800
 4097              	.LASF81:
 4098 02bf 74657374 		.ascii	"testmbox1\000"
 4098      6D626F78 
 4098      3100
 4099              	.LASF47:
ARM GAS  /tmp/ccZvnD1b.s 			page 75


 4100 02c9 73746B61 		.ascii	"stkalign_t\000"
 4100      6C69676E 
 4100      5F7400
 4101              	.LASF50:
 4102 02d4 73697A65 		.ascii	"sizetype\000"
 4102      74797065 
 4102      00
 4103              	.LASF61:
 4104 02dd 6D625F72 		.ascii	"mb_rdptr\000"
 4104      64707472 
 4104      00
 4105              	.LASF94:
 4106 02e6 63684D42 		.ascii	"chMBReset\000"
 4106      52657365 
 4106      7400
 4107              	.LASF32:
 4108 02f0 705F6F6C 		.ascii	"p_older\000"
 4108      64657200 
 4109              	.LASF44:
 4110 02f8 54687265 		.ascii	"ThreadsQueue\000"
 4110      61647351 
 4110      75657565 
 4110      00
 4111              	.LASF72:
 4112 0305 73657475 		.ascii	"setup\000"
 4112      7000
 4113              	.LASF91:
 4114 030b 5F746573 		.ascii	"_test_assert_sequence\000"
 4114      745F6173 
 4114      73657274 
 4114      5F736571 
 4114      75656E63 
 4115              	.LASF58:
 4116 0321 6D625F62 		.ascii	"mb_buffer\000"
 4116      75666665 
 4116      7200
 4117              	.LASF78:
 4118 032b 6D626F78 		.ascii	"mbox1_execute\000"
 4118      315F6578 
 4118      65637574 
 4118      6500
 4119              	.LASF87:
 4120 0339 6462675F 		.ascii	"dbg_check_lock\000"
 4120      63686563 
 4120      6B5F6C6F 
 4120      636B00
 4121              	.LASF88:
 4122 0348 6462675F 		.ascii	"dbg_check_unlock\000"
 4122      63686563 
 4122      6B5F756E 
 4122      6C6F636B 
 4122      00
 4123              	.LASF11:
 4124 0359 5F5F7569 		.ascii	"__uint64_t\000"
 4124      6E743634 
 4124      5F7400
 4125              	.LASF28:
ARM GAS  /tmp/ccZvnD1b.s 			page 76


 4126 0364 705F7072 		.ascii	"p_prev\000"
 4126      657600
 4127              	.LASF74:
 4128 036b 65786563 		.ascii	"execute\000"
 4128      75746500 
 4129              	.LASF21:
 4130 0373 74707269 		.ascii	"tprio_t\000"
 4130      6F5F7400 
 4131              	.LASF18:
 4132 037b 5F426F6F 		.ascii	"_Bool\000"
 4132      6C00
 4133              	.LASF14:
 4134 0381 696E7433 		.ascii	"int32_t\000"
 4134      325F7400 
 4135              	.LASF2:
 4136 0389 756E7369 		.ascii	"unsigned char\000"
 4136      676E6564 
 4136      20636861 
 4136      7200
 4137              	.LASF59:
 4138 0397 6D625F74 		.ascii	"mb_top\000"
 4138      6F7000
 4139              	.LASF42:
 4140 039e 705F6D74 		.ascii	"p_mtxlist\000"
 4140      786C6973 
 4140      7400
 4141              	.LASF3:
 4142 03a8 73686F72 		.ascii	"short int\000"
 4142      7420696E 
 4142      7400
 4143              	.LASF35:
 4144 03b2 705F7374 		.ascii	"p_state\000"
 4144      61746500 
 4145              	.LASF68:
 4146 03ba 65776D61 		.ascii	"ewmask\000"
 4146      736B00
 4147              	.LASF27:
 4148 03c1 705F6E65 		.ascii	"p_next\000"
 4148      787400
 4149              	.LASF36:
 4150 03c8 705F666C 		.ascii	"p_flags\000"
 4150      61677300 
 4151              	.LASF26:
 4152 03d0 54687265 		.ascii	"Thread\000"
 4152      616400
 4153              	.LASF70:
 4154 03d7 74657374 		.ascii	"testcase\000"
 4154      63617365 
 4154      00
 4155              	.LASF41:
 4156 03e0 705F6570 		.ascii	"p_epending\000"
 4156      656E6469 
 4156      6E6700
 4157              	.LASF15:
 4158 03eb 75696E74 		.ascii	"uint32_t\000"
 4158      33325F74 
 4158      00
ARM GAS  /tmp/ccZvnD1b.s 			page 77


 4159              	.LASF69:
 4160 03f4 63686172 		.ascii	"char\000"
 4160      00
 4161              	.LASF57:
 4162 03f9 6D5F6E65 		.ascii	"m_next\000"
 4162      787400
 4163              	.LASF24:
 4164 0400 73797374 		.ascii	"systime_t\000"
 4164      696D655F 
 4164      7400
 4165              	.LASF43:
 4166 040a 705F7265 		.ascii	"p_realprio\000"
 4166      616C7072 
 4166      696F00
 4167              	.LASF6:
 4168 0415 5F5F696E 		.ascii	"__int32_t\000"
 4168      7433325F 
 4168      7400
 4169              	.LASF37:
 4170 041f 705F7469 		.ascii	"p_time\000"
 4170      6D6500
 4171              	.LASF85:
 4172 0426 63684D42 		.ascii	"chMBPostAhead\000"
 4172      506F7374 
 4172      41686561 
 4172      6400
 4173              	.LASF48:
 4174 0434 696E7463 		.ascii	"intctx\000"
 4174      747800
 4175              	.LASF39:
 4176 043b 705F6D73 		.ascii	"p_msgqueue\000"
 4176      67717565 
 4176      756500
 4177              	.LASF90:
 4178 0446 63684D42 		.ascii	"chMBFetch\000"
 4178      46657463 
 4178      6800
 4179              	.LASF51:
 4180 0450 53656D61 		.ascii	"Semaphore\000"
 4180      70686F72 
 4180      6500
 4181              	.LASF62:
 4182 045a 6D625F66 		.ascii	"mb_fullsem\000"
 4182      756C6C73 
 4182      656D00
 4183              	.LASF98:
 4184 0465 74657374 		.ascii	"test_buffers\000"
 4184      5F627566 
 4184      66657273 
 4184      00
 4185              	.LASF13:
 4186 0472 75696E74 		.ascii	"uint8_t\000"
 4186      385F7400 
 4187              	.LASF67:
 4188 047a 77746F62 		.ascii	"wtobjp\000"
 4188      6A7000
 4189              	.LASF33:
ARM GAS  /tmp/ccZvnD1b.s 			page 78


 4190 0481 705F6E61 		.ascii	"p_name\000"
 4190      6D6500
 4191              	.LASF83:
 4192 0488 5F746573 		.ascii	"_test_assert\000"
 4192      745F6173 
 4192      73657274 
 4192      00
 4193              	.LASF64:
 4194 0495 4D61696C 		.ascii	"Mailbox\000"
 4194      626F7800 
 4195              	.LASF56:
 4196 049d 6D5F6F77 		.ascii	"m_owner\000"
 4196      6E657200 
 4197              	.LASF30:
 4198 04a5 705F6374 		.ascii	"p_ctx\000"
 4198      7800
 4199              	.LASF38:
 4200 04ab 705F7761 		.ascii	"p_waiting\000"
 4200      6974696E 
 4200      6700
 4201              		.ident	"GCC: (Arch Repository) 4.8.2"
ARM GAS  /tmp/ccZvnD1b.s 			page 79


DEFINED SYMBOLS
                            *ABS*:0000000000000000 testmbox.c
     /tmp/ccZvnD1b.s:19     .text.mbox1_execute:0000000000000000 $t
     /tmp/ccZvnD1b.s:24     .text.mbox1_execute:0000000000000000 mbox1_execute
     /tmp/ccZvnD1b.s:1012   .data.mb1:0000000000000000 .LANCHOR0
     /tmp/ccZvnD1b.s:1035   .rodata.str1.4:0000000000000000 .LC0
     /tmp/ccZvnD1b.s:985    .text.mbox1_setup:0000000000000000 $t
     /tmp/ccZvnD1b.s:990    .text.mbox1_setup:0000000000000000 mbox1_setup
     /tmp/ccZvnD1b.s:1030   .rodata.patternmbox:0000000000000000 patternmbox
     /tmp/ccZvnD1b.s:1044   .rodata.testmbox1:0000000000000000 testmbox1
     /tmp/ccZvnD1b.s:1011   .data.mb1:0000000000000000 $d
     /tmp/ccZvnD1b.s:1015   .data.mb1:0000000000000000 mb1
     /tmp/ccZvnD1b.s:1027   .rodata.patternmbox:0000000000000000 $d
     /tmp/ccZvnD1b.s:1034   .rodata.str1.4:0000000000000000 $d
     /tmp/ccZvnD1b.s:1041   .rodata.testmbox1:0000000000000000 $d
                     .debug_frame:0000000000000010 $d

UNDEFINED SYMBOLS
_test_assert
chMBPost
chMBPostAhead
_port_lock
dbg_check_lock
chMBPostI
dbg_check_unlock
_port_unlock
chMBPostAheadI
chMBFetch
test_emit_token
_test_assert_sequence
chMBFetchI
chMBReset
test
chMBInit
