ARM GAS  /tmp/ccj3vYZK.s 			page 1


   1              		.syntax unified
   2              		.cpu cortex-m4
   3              		.fpu softvfp
   4              		.eabi_attribute 20, 1
   5              		.eabi_attribute 21, 1
   6              		.eabi_attribute 23, 3
   7              		.eabi_attribute 24, 1
   8              		.eabi_attribute 25, 1
   9              		.eabi_attribute 26, 1
  10              		.eabi_attribute 30, 2
  11              		.eabi_attribute 34, 1
  12              		.eabi_attribute 18, 4
  13              		.thumb
  14              		.file	"testsem.c"
  15              		.text
  16              	.Ltext0:
  17              		.cfi_sections	.debug_frame
  18              		.section	.text.sem1_execute,"ax",%progbits
  19              		.align	2
  20              		.p2align 4,,15
  21              		.thumb
  22              		.thumb_func
  23              		.type	sem1_execute, %function
  24              	sem1_execute:
  25              	.LFB2:
  26              		.file 1 "../../../test/testsem.c"
  27              		.loc 1 84 0
  28              		.cfi_startproc
  29              		@ args = 0, pretend = 0, frame = 8
  30              		@ frame_needed = 0, uses_anonymous_args = 0
  31 0000 2DE9F041 		push	{r4, r5, r6, r7, r8, lr}
  32              		.cfi_def_cfa_offset 24
  33              		.cfi_offset 4, -24
  34              		.cfi_offset 5, -20
  35              		.cfi_offset 6, -16
  36              		.cfi_offset 7, -12
  37              		.cfi_offset 8, -8
  38              		.cfi_offset 14, -4
  39              		.loc 1 86 0
  40 0004 40F20005 		movw	r5, #:lower16:rlist
  41 0008 C0F20005 		movt	r5, #:upper16:rlist
  42 000c 40F20006 		movw	r6, #:lower16:wa
  43 0010 C0F20006 		movt	r6, #:upper16:wa
  44 0014 AB69     		ldr	r3, [r5, #24]
  45 0016 D6F80080 		ldr	r8, [r6]
  46 001a 9A68     		ldr	r2, [r3, #8]
  47              		.loc 1 84 0
  48 001c 84B0     		sub	sp, sp, #16
  49              		.cfi_def_cfa_offset 40
  50              		.loc 1 86 0
  51 001e 40F20007 		movw	r7, #:lower16:.LC0
  52 0022 C0F20007 		movt	r7, #:upper16:.LC0
  53 0026 40F20003 		movw	r3, #:lower16:thread1
  54 002a 0532     		adds	r2, r2, #5
  55 002c C0F20003 		movt	r3, #:upper16:thread1
  56 0030 4FF49871 		mov	r1, #304
  57 0034 4046     		mov	r0, r8
ARM GAS  /tmp/ccj3vYZK.s 			page 2


  58 0036 0097     		str	r7, [sp]
  59 0038 FFF7FEFF 		bl	chThdCreateStatic
  60              	.LVL0:
  61              		.loc 1 87 0
  62 003c 7268     		ldr	r2, [r6, #4]
  63 003e AB69     		ldr	r3, [r5, #24]
  64 0040 0392     		str	r2, [sp, #12]
  65              		.loc 1 86 0
  66 0042 40F20004 		movw	r4, #:lower16:threads
  67              		.loc 1 87 0
  68 0046 9A68     		ldr	r2, [r3, #8]
  69              		.loc 1 86 0
  70 0048 C0F20004 		movt	r4, #:upper16:threads
  71              		.loc 1 87 0
  72 004c 40F20001 		movw	r1, #:lower16:.LC1
  73 0050 C0F20001 		movt	r1, #:upper16:.LC1
  74 0054 40F20003 		movw	r3, #:lower16:thread1
  75              		.loc 1 86 0
  76 0058 2060     		str	r0, [r4]
  77              		.loc 1 87 0
  78 005a 0132     		adds	r2, r2, #1
  79 005c 0091     		str	r1, [sp]
  80 005e C0F20003 		movt	r3, #:upper16:thread1
  81 0062 4FF49871 		mov	r1, #304
  82 0066 0398     		ldr	r0, [sp, #12]
  83 0068 FFF7FEFF 		bl	chThdCreateStatic
  84              	.LVL1:
  85              		.loc 1 88 0
  86 006c B268     		ldr	r2, [r6, #8]
  87 006e AB69     		ldr	r3, [r5, #24]
  88 0070 0392     		str	r2, [sp, #12]
  89 0072 40F20001 		movw	r1, #:lower16:.LC2
  90 0076 9A68     		ldr	r2, [r3, #8]
  91              		.loc 1 87 0
  92 0078 6060     		str	r0, [r4, #4]
  93              		.loc 1 88 0
  94 007a C0F20001 		movt	r1, #:upper16:.LC2
  95 007e 40F20003 		movw	r3, #:lower16:thread1
  96 0082 0332     		adds	r2, r2, #3
  97 0084 0091     		str	r1, [sp]
  98 0086 C0F20003 		movt	r3, #:upper16:thread1
  99 008a 4FF49871 		mov	r1, #304
 100 008e 0398     		ldr	r0, [sp, #12]
 101 0090 FFF7FEFF 		bl	chThdCreateStatic
 102              	.LVL2:
 103              		.loc 1 89 0
 104 0094 F268     		ldr	r2, [r6, #12]
 105 0096 AB69     		ldr	r3, [r5, #24]
 106 0098 0392     		str	r2, [sp, #12]
 107 009a 40F20001 		movw	r1, #:lower16:.LC3
 108 009e 9A68     		ldr	r2, [r3, #8]
 109              		.loc 1 88 0
 110 00a0 A060     		str	r0, [r4, #8]
 111              		.loc 1 89 0
 112 00a2 C0F20001 		movt	r1, #:upper16:.LC3
 113 00a6 40F20003 		movw	r3, #:lower16:thread1
 114 00aa 0432     		adds	r2, r2, #4
ARM GAS  /tmp/ccj3vYZK.s 			page 3


 115 00ac 0091     		str	r1, [sp]
 116 00ae C0F20003 		movt	r3, #:upper16:thread1
 117 00b2 4FF49871 		mov	r1, #304
 118 00b6 0398     		ldr	r0, [sp, #12]
 119 00b8 FFF7FEFF 		bl	chThdCreateStatic
 120              	.LVL3:
 121              		.loc 1 90 0
 122 00bc AB69     		ldr	r3, [r5, #24]
 123 00be 3669     		ldr	r6, [r6, #16]
 124 00c0 9A68     		ldr	r2, [r3, #8]
 125              		.loc 1 89 0
 126 00c2 E060     		str	r0, [r4, #12]
 127              		.loc 1 90 0
 128 00c4 40F20001 		movw	r1, #:lower16:.LC4
 129 00c8 C0F20001 		movt	r1, #:upper16:.LC4
 130 00cc 40F20003 		movw	r3, #:lower16:thread1
 131 00d0 0232     		adds	r2, r2, #2
 132 00d2 C0F20003 		movt	r3, #:upper16:thread1
 133 00d6 0091     		str	r1, [sp]
 134 00d8 3046     		mov	r0, r6
 135 00da 4FF49871 		mov	r1, #304
 136 00de FFF7FEFF 		bl	chThdCreateStatic
 137              	.LVL4:
 138 00e2 2061     		str	r0, [r4, #16]
 139              		.loc 1 91 0
 140 00e4 40F20000 		movw	r0, #:lower16:.LANCHOR0
 141 00e8 C0F20000 		movt	r0, #:upper16:.LANCHOR0
 142 00ec FFF7FEFF 		bl	chSemSignal
 143              	.LVL5:
 144              		.loc 1 92 0
 145 00f0 40F20000 		movw	r0, #:lower16:.LANCHOR0
 146 00f4 C0F20000 		movt	r0, #:upper16:.LANCHOR0
 147 00f8 FFF7FEFF 		bl	chSemSignal
 148              	.LVL6:
 149              		.loc 1 93 0
 150 00fc 40F20000 		movw	r0, #:lower16:.LANCHOR0
 151 0100 C0F20000 		movt	r0, #:upper16:.LANCHOR0
 152 0104 FFF7FEFF 		bl	chSemSignal
 153              	.LVL7:
 154              		.loc 1 94 0
 155 0108 40F20000 		movw	r0, #:lower16:.LANCHOR0
 156 010c C0F20000 		movt	r0, #:upper16:.LANCHOR0
 157 0110 FFF7FEFF 		bl	chSemSignal
 158              	.LVL8:
 159              		.loc 1 95 0
 160 0114 40F20000 		movw	r0, #:lower16:.LANCHOR0
 161 0118 C0F20000 		movt	r0, #:upper16:.LANCHOR0
 162 011c FFF7FEFF 		bl	chSemSignal
 163              	.LVL9:
 164              		.loc 1 96 0
 165 0120 FFF7FEFF 		bl	test_wait_threads
 166              	.LVL10:
 167              		.loc 1 100 0
 168 0124 40F20001 		movw	r1, #:lower16:.LC5
 169 0128 C0F20001 		movt	r1, #:upper16:.LC5
 170 012c 0120     		movs	r0, #1
 171 012e FFF7FEFF 		bl	_test_assert_sequence
ARM GAS  /tmp/ccj3vYZK.s 			page 4


 172              	.LVL11:
 173 0132 10B1     		cbz	r0, .L4
 174              		.loc 1 109 0
 175 0134 04B0     		add	sp, sp, #16
 176              		@ sp needed
 177 0136 BDE8F081 		pop	{r4, r5, r6, r7, r8, pc}
 178              	.L4:
 179              		.loc 1 102 0
 180 013a AB69     		ldr	r3, [r5, #24]
 181 013c 9A68     		ldr	r2, [r3, #8]
 182 013e 0097     		str	r7, [sp]
 183 0140 40F20003 		movw	r3, #:lower16:thread1
 184 0144 0532     		adds	r2, r2, #5
 185 0146 4046     		mov	r0, r8
 186 0148 C0F20003 		movt	r3, #:upper16:thread1
 187 014c 4FF49871 		mov	r1, #304
 188 0150 FFF7FEFF 		bl	chThdCreateStatic
 189              	.LVL12:
 190 0154 2060     		str	r0, [r4]
 191              		.loc 1 103 0
 192              	@ 103 "../../../test/testsem.c" 1
 193 0156 FFF7FEFF 		bl      _port_lock
 194              	@ 0 "" 2
 195              		.thumb
 196 015a FFF7FEFF 		bl	dbg_check_lock
 197              	.LVL13:
 198              		.loc 1 104 0
 199 015e 40F20000 		movw	r0, #:lower16:.LANCHOR0
 200 0162 C0F20000 		movt	r0, #:upper16:.LANCHOR0
 201 0166 0221     		movs	r1, #2
 202 0168 FFF7FEFF 		bl	chSemAddCounterI
 203              	.LVL14:
 204              		.loc 1 105 0
 205 016c FFF7FEFF 		bl	chSchRescheduleS
 206              	.LVL15:
 207              		.loc 1 106 0
 208 0170 FFF7FEFF 		bl	dbg_check_unlock
 209              	.LVL16:
 210              	@ 106 "../../../test/testsem.c" 1
 211 0174 FFF7FEFF 		bl      _port_unlock
 212              	@ 0 "" 2
 213              		.loc 1 107 0
 214              		.thumb
 215 0178 FFF7FEFF 		bl	test_wait_threads
 216              	.LVL17:
 217              		.loc 1 108 0
 218 017c 40F20003 		movw	r3, #:lower16:.LANCHOR0
 219 0180 C0F20003 		movt	r3, #:upper16:.LANCHOR0
 220 0184 0220     		movs	r0, #2
 221 0186 9968     		ldr	r1, [r3, #8]
 222 0188 4B1E     		subs	r3, r1, #1
 223 018a 5942     		rsbs	r1, r3, #0
 224 018c 5941     		adcs	r1, r1, r3
 225              		.loc 1 109 0
 226 018e 04B0     		add	sp, sp, #16
 227              		@ sp needed
 228 0190 BDE8F041 		pop	{r4, r5, r6, r7, r8, lr}
ARM GAS  /tmp/ccj3vYZK.s 			page 5


 229              		.loc 1 108 0
 230 0194 FFF7FEBF 		b	_test_assert
 231              	.LVL18:
 232              		.cfi_endproc
 233              	.LFE2:
 234              		.size	sem1_execute, .-sem1_execute
 235 0198 AFF30080 		.section	.text.thread3,"ax",%progbits
 235      AFF30080 
 236              		.align	2
 237              		.p2align 4,,15
 238              		.thumb
 239              		.thumb_func
 240              		.type	thread3, %function
 241              	thread3:
 242              	.LFB7:
 243              		.loc 1 210 0
 244              		.cfi_startproc
 245              		@ args = 0, pretend = 0, frame = 0
 246              		@ frame_needed = 0, uses_anonymous_args = 0
 247              	.LVL19:
 248 0000 10B5     		push	{r4, lr}
 249              		.cfi_def_cfa_offset 8
 250              		.cfi_offset 4, -8
 251              		.cfi_offset 14, -4
 252              		.loc 1 213 0
 253 0002 40F20004 		movw	r4, #:lower16:.LANCHOR0
 254 0006 C0F20004 		movt	r4, #:upper16:.LANCHOR0
 255 000a 2046     		mov	r0, r4
 256              	.LVL20:
 257 000c FFF7FEFF 		bl	chSemWait
 258              	.LVL21:
 259              		.loc 1 214 0
 260 0010 2046     		mov	r0, r4
 261 0012 FFF7FEFF 		bl	chSemSignal
 262              	.LVL22:
 263              		.loc 1 216 0
 264 0016 0020     		movs	r0, #0
 265 0018 10BD     		pop	{r4, pc}
 266              		.cfi_endproc
 267              	.LFE7:
 268              		.size	thread3, .-thread3
 269 001a 00BFAFF3 		.section	.text.thread1,"ax",%progbits
 269      0080
 270              		.align	2
 271              		.p2align 4,,15
 272              		.thumb
 273              		.thumb_func
 274              		.type	thread1, %function
 275              	thread1:
 276              	.LFB1:
 277              		.loc 1 77 0
 278              		.cfi_startproc
 279              		@ args = 0, pretend = 0, frame = 0
 280              		@ frame_needed = 0, uses_anonymous_args = 0
 281              	.LVL23:
 282 0000 10B5     		push	{r4, lr}
 283              		.cfi_def_cfa_offset 8
ARM GAS  /tmp/ccj3vYZK.s 			page 6


 284              		.cfi_offset 4, -8
 285              		.cfi_offset 14, -4
 286              		.loc 1 77 0
 287 0002 0446     		mov	r4, r0
 288              		.loc 1 79 0
 289 0004 40F20000 		movw	r0, #:lower16:.LANCHOR0
 290              	.LVL24:
 291 0008 C0F20000 		movt	r0, #:upper16:.LANCHOR0
 292 000c FFF7FEFF 		bl	chSemWait
 293              	.LVL25:
 294              		.loc 1 80 0
 295 0010 2078     		ldrb	r0, [r4]	@ zero_extendqisi2
 296 0012 FFF7FEFF 		bl	test_emit_token
 297              	.LVL26:
 298              		.loc 1 82 0
 299 0016 0020     		movs	r0, #0
 300 0018 10BD     		pop	{r4, pc}
 301              		.cfi_endproc
 302              	.LFE1:
 303              		.size	thread1, .-thread1
 304 001a 00BFAFF3 		.section	.text.sem1_setup,"ax",%progbits
 304      0080
 305              		.align	2
 306              		.p2align 4,,15
 307              		.thumb
 308              		.thumb_func
 309              		.type	sem1_setup, %function
 310              	sem1_setup:
 311              	.LFB0:
 312              		.loc 1 72 0
 313              		.cfi_startproc
 314              		@ args = 0, pretend = 0, frame = 0
 315              		@ frame_needed = 0, uses_anonymous_args = 0
 316              		@ link register save eliminated.
 317              		.loc 1 74 0
 318 0000 40F20000 		movw	r0, #:lower16:.LANCHOR0
 319 0004 C0F20000 		movt	r0, #:upper16:.LANCHOR0
 320 0008 0021     		movs	r1, #0
 321 000a FFF7FEBF 		b	chSemInit
 322              	.LVL27:
 323              		.cfi_endproc
 324              	.LFE0:
 325              		.size	sem1_setup, .-sem1_setup
 326 000e 00BF     		.section	.text.sem2_setup,"ax",%progbits
 327              		.align	2
 328              		.p2align 4,,15
 329              		.thumb
 330              		.thumb_func
 331              		.type	sem2_setup, %function
 332              	sem2_setup:
 333              	.LFB3:
 334              		.loc 1 129 0
 335              		.cfi_startproc
 336              		@ args = 0, pretend = 0, frame = 0
 337              		@ frame_needed = 0, uses_anonymous_args = 0
 338              		@ link register save eliminated.
 339              		.loc 1 131 0
ARM GAS  /tmp/ccj3vYZK.s 			page 7


 340 0000 40F20000 		movw	r0, #:lower16:.LANCHOR0
 341 0004 C0F20000 		movt	r0, #:upper16:.LANCHOR0
 342 0008 0021     		movs	r1, #0
 343 000a FFF7FEBF 		b	chSemInit
 344              	.LVL28:
 345              		.cfi_endproc
 346              	.LFE3:
 347              		.size	sem2_setup, .-sem2_setup
 348 000e 00BF     		.section	.text.sem3_setup,"ax",%progbits
 349              		.align	2
 350              		.p2align 4,,15
 351              		.thumb
 352              		.thumb_func
 353              		.type	sem3_setup, %function
 354              	sem3_setup:
 355              	.LFB6:
 356              		.loc 1 205 0
 357              		.cfi_startproc
 358              		@ args = 0, pretend = 0, frame = 0
 359              		@ frame_needed = 0, uses_anonymous_args = 0
 360              		@ link register save eliminated.
 361              		.loc 1 207 0
 362 0000 40F20000 		movw	r0, #:lower16:.LANCHOR0
 363 0004 C0F20000 		movt	r0, #:upper16:.LANCHOR0
 364 0008 0021     		movs	r1, #0
 365 000a FFF7FEBF 		b	chSemInit
 366              	.LVL29:
 367              		.cfi_endproc
 368              	.LFE6:
 369              		.size	sem3_setup, .-sem3_setup
 370 000e 00BF     		.section	.text.thread2,"ax",%progbits
 371              		.align	2
 372              		.p2align 4,,15
 373              		.thumb
 374              		.thumb_func
 375              		.type	thread2, %function
 376              	thread2:
 377              	.LFB4:
 378              		.loc 1 134 0
 379              		.cfi_startproc
 380              		@ args = 0, pretend = 0, frame = 0
 381              		@ frame_needed = 0, uses_anonymous_args = 0
 382              	.LVL30:
 383 0000 08B5     		push	{r3, lr}
 384              		.cfi_def_cfa_offset 8
 385              		.cfi_offset 3, -8
 386              		.cfi_offset 14, -4
 387              		.loc 1 137 0
 388 0002 3220     		movs	r0, #50
 389              	.LVL31:
 390 0004 FFF7FEFF 		bl	chThdSleep
 391              	.LVL32:
 392              		.loc 1 138 0
 393              	@ 138 "../../../test/testsem.c" 1
 394 0008 FFF7FEFF 		bl      _port_lock
 395              	@ 0 "" 2
 396              		.thumb
ARM GAS  /tmp/ccj3vYZK.s 			page 8


 397 000c FFF7FEFF 		bl	dbg_check_lock
 398              	.LVL33:
 399              		.loc 1 139 0
 400 0010 40F20000 		movw	r0, #:lower16:.LANCHOR0
 401 0014 C0F20000 		movt	r0, #:upper16:.LANCHOR0
 402 0018 FFF7FEFF 		bl	chSemSignalI
 403              	.LVL34:
 404              		.loc 1 140 0
 405 001c FFF7FEFF 		bl	chSchRescheduleS
 406              	.LVL35:
 407              		.loc 1 141 0
 408 0020 FFF7FEFF 		bl	dbg_check_unlock
 409              	.LVL36:
 410              	@ 141 "../../../test/testsem.c" 1
 411 0024 FFF7FEFF 		bl      _port_unlock
 412              	@ 0 "" 2
 413              		.loc 1 143 0
 414              		.thumb
 415 0028 0020     		movs	r0, #0
 416 002a 08BD     		pop	{r3, pc}
 417              		.cfi_endproc
 418              	.LFE4:
 419              		.size	thread2, .-thread2
 420 002c AFF30080 		.section	.text.thread4,"ax",%progbits
 421              		.align	2
 422              		.p2align 4,,15
 423              		.thumb
 424              		.thumb_func
 425              		.type	thread4, %function
 426              	thread4:
 427              	.LFB9:
 428              		.loc 1 246 0
 429              		.cfi_startproc
 430              		@ args = 0, pretend = 0, frame = 0
 431              		@ frame_needed = 0, uses_anonymous_args = 0
 432              	.LVL37:
 433 0000 10B5     		push	{r4, lr}
 434              		.cfi_def_cfa_offset 8
 435              		.cfi_offset 4, -8
 436              		.cfi_offset 14, -4
 437              		.loc 1 246 0
 438 0002 0446     		mov	r4, r0
 439              		.loc 1 248 0
 440              	@ 248 "../../../test/testsem.c" 1
 441 0004 FFF7FEFF 		bl      _port_lock
 442              	@ 0 "" 2
 443              		.thumb
 444 0008 FFF7FEFF 		bl	dbg_check_lock
 445              	.LVL38:
 446 000c A368     		ldr	r3, [r4, #8]
 447 000e 002B     		cmp	r3, #0
 448 0010 07DD     		ble	.L13
 449              	.L12:
 450              		.loc 1 248 0 is_stmt 0 discriminator 2
 451 0012 FFF7FEFF 		bl	chSchRescheduleS
 452              	.LVL39:
 453 0016 FFF7FEFF 		bl	dbg_check_unlock
ARM GAS  /tmp/ccj3vYZK.s 			page 9


 454              	.LVL40:
 455              	@ 248 "../../../test/testsem.c" 1
 456 001a FFF7FEFF 		bl      _port_unlock
 457              	@ 0 "" 2
 458              		.loc 1 250 0 is_stmt 1 discriminator 2
 459              		.thumb
 460 001e 0020     		movs	r0, #0
 461 0020 10BD     		pop	{r4, pc}
 462              	.LVL41:
 463              	.L13:
 464              		.loc 1 248 0 discriminator 1
 465 0022 2046     		mov	r0, r4
 466 0024 FFF7FEFF 		bl	chSemSignalI
 467              	.LVL42:
 468 0028 F3E7     		b	.L12
 469              		.cfi_endproc
 470              	.LFE9:
 471              		.size	thread4, .-thread4
 472 002a 00BFAFF3 		.section	.text.sem4_execute,"ax",%progbits
 472      0080
 473              		.align	2
 474              		.p2align 4,,15
 475              		.thumb
 476              		.thumb_func
 477              		.type	sem4_execute, %function
 478              	sem4_execute:
 479              	.LFB10:
 480              		.loc 1 252 0
 481              		.cfi_startproc
 482              		@ args = 0, pretend = 0, frame = 16
 483              		@ frame_needed = 0, uses_anonymous_args = 0
 484 0000 00B5     		push	{lr}
 485              		.cfi_def_cfa_offset 4
 486              		.cfi_offset 14, -4
 487 0002 87B0     		sub	sp, sp, #28
 488              		.cfi_def_cfa_offset 32
 489              		.loc 1 256 0
 490 0004 03A8     		add	r0, sp, #12
 491 0006 0021     		movs	r1, #0
 492 0008 FFF7FEFF 		bl	chSemInit
 493              	.LVL43:
 494              		.loc 1 257 0
 495 000c 03A8     		add	r0, sp, #12
 496 000e 0021     		movs	r1, #0
 497 0010 FFF7FEFF 		bl	chSemReset
 498              	.LVL44:
 499              		.loc 1 258 0
 500 0014 0599     		ldr	r1, [sp, #20]
 501 0016 0029     		cmp	r1, #0
 502 0018 CCBF     		ite	gt
 503 001a 0021     		movgt	r1, #0
 504 001c 0121     		movle	r1, #1
 505 001e 0120     		movs	r0, #1
 506 0020 FFF7FEFF 		bl	_test_assert
 507              	.LVL45:
 508 0024 10B1     		cbz	r0, .L19
 509              	.L14:
ARM GAS  /tmp/ccj3vYZK.s 			page 10


 510              		.loc 1 280 0
 511 0026 07B0     		add	sp, sp, #28
 512              		@ sp needed
 513 0028 5DF804FB 		ldr	pc, [sp], #4
 514              	.L19:
 515              		.loc 1 262 0
 516 002c 40F20002 		movw	r2, #:lower16:rlist
 517 0030 C0F20002 		movt	r2, #:upper16:rlist
 518              		.loc 1 261 0
 519 0034 40F20003 		movw	r3, #:lower16:wa
 520              		.loc 1 262 0
 521 0038 9269     		ldr	r2, [r2, #24]
 522              		.loc 1 261 0
 523 003a C0F20003 		movt	r3, #:upper16:wa
 524 003e 9268     		ldr	r2, [r2, #8]
 525 0040 1868     		ldr	r0, [r3]
 526 0042 03AB     		add	r3, sp, #12
 527 0044 0093     		str	r3, [sp]
 528 0046 40F20003 		movw	r3, #:lower16:thread4
 529 004a 4FF49871 		mov	r1, #304
 530 004e 013A     		subs	r2, r2, #1
 531 0050 C0F20003 		movt	r3, #:upper16:thread4
 532 0054 FFF7FEFF 		bl	chThdCreateStatic
 533              	.LVL46:
 534 0058 40F20003 		movw	r3, #:lower16:threads
 535 005c C0F20003 		movt	r3, #:upper16:threads
 536 0060 1860     		str	r0, [r3]
 537              		.loc 1 265 0
 538 0062 03A8     		add	r0, sp, #12
 539 0064 FFF7FEFF 		bl	chSemWait
 540              	.LVL47:
 541              		.loc 1 268 0
 542 0068 0599     		ldr	r1, [sp, #20]
 543 006a 0029     		cmp	r1, #0
 544 006c CCBF     		ite	gt
 545 006e 0021     		movgt	r1, #0
 546 0070 0121     		movle	r1, #1
 547 0072 0220     		movs	r0, #2
 548 0074 FFF7FEFF 		bl	_test_assert
 549              	.LVL48:
 550 0078 0028     		cmp	r0, #0
 551 007a D4D1     		bne	.L14
 552              		.loc 1 272 0
 553              	@ 272 "../../../test/testsem.c" 1
 554 007c FFF7FEFF 		bl      _port_lock
 555              	@ 0 "" 2
 556              		.thumb
 557 0080 FFF7FEFF 		bl	dbg_check_lock
 558              	.LVL49:
 559 0084 059B     		ldr	r3, [sp, #20]
 560 0086 002B     		cmp	r3, #0
 561 0088 3ADD     		ble	.L20
 562              	.L16:
 563              		.loc 1 272 0 is_stmt 0 discriminator 2
 564 008a FFF7FEFF 		bl	chSchRescheduleS
 565              	.LVL50:
 566 008e FFF7FEFF 		bl	dbg_check_unlock
ARM GAS  /tmp/ccj3vYZK.s 			page 11


 567              	.LVL51:
 568              	@ 272 "../../../test/testsem.c" 1
 569 0092 FFF7FEFF 		bl      _port_unlock
 570              	@ 0 "" 2
 571              		.loc 1 273 0 is_stmt 1 discriminator 2
 572              		.thumb
 573 0096 0599     		ldr	r1, [sp, #20]
 574 0098 0029     		cmp	r1, #0
 575 009a D4BF     		ite	le
 576 009c 0021     		movle	r1, #0
 577 009e 0121     		movgt	r1, #1
 578 00a0 0320     		movs	r0, #3
 579 00a2 FFF7FEFF 		bl	_test_assert
 580              	.LVL52:
 581 00a6 0028     		cmp	r0, #0
 582 00a8 BDD1     		bne	.L14
 583              		.loc 1 274 0
 584 00aa 0599     		ldr	r1, [sp, #20]
 585 00ac B1F1010E 		subs	lr, r1, #1
 586 00b0 DEF10001 		rsbs	r1, lr, #0
 587 00b4 51EB0E01 		adcs	r1, r1, lr
 588 00b8 0420     		movs	r0, #4
 589 00ba FFF7FEFF 		bl	_test_assert
 590              	.LVL53:
 591 00be 0028     		cmp	r0, #0
 592 00c0 B1D1     		bne	.L14
 593              		.loc 1 277 0
 594              	@ 277 "../../../test/testsem.c" 1
 595 00c2 FFF7FEFF 		bl      _port_lock
 596              	@ 0 "" 2
 597              		.thumb
 598 00c6 FFF7FEFF 		bl	dbg_check_lock
 599              	.LVL54:
 600 00ca 059B     		ldr	r3, [sp, #20]
 601 00cc 002B     		cmp	r3, #0
 602 00ce 1BDD     		ble	.L21
 603              	.L17:
 604              		.loc 1 277 0 is_stmt 0 discriminator 2
 605 00d0 FFF7FEFF 		bl	chSchRescheduleS
 606              	.LVL55:
 607 00d4 FFF7FEFF 		bl	dbg_check_unlock
 608              	.LVL56:
 609              	@ 277 "../../../test/testsem.c" 1
 610 00d8 FFF7FEFF 		bl      _port_unlock
 611              	@ 0 "" 2
 612              		.loc 1 278 0 is_stmt 1 discriminator 2
 613              		.thumb
 614 00dc 0599     		ldr	r1, [sp, #20]
 615 00de 0029     		cmp	r1, #0
 616 00e0 D4BF     		ite	le
 617 00e2 0021     		movle	r1, #0
 618 00e4 0121     		movgt	r1, #1
 619 00e6 0320     		movs	r0, #3
 620 00e8 FFF7FEFF 		bl	_test_assert
 621              	.LVL57:
 622 00ec 0028     		cmp	r0, #0
 623 00ee 9AD1     		bne	.L14
ARM GAS  /tmp/ccj3vYZK.s 			page 12


 624              		.loc 1 279 0
 625 00f0 0599     		ldr	r1, [sp, #20]
 626 00f2 4A1E     		subs	r2, r1, #1
 627 00f4 5142     		rsbs	r1, r2, #0
 628 00f6 5141     		adcs	r1, r1, r2
 629 00f8 0520     		movs	r0, #5
 630 00fa FFF7FEFF 		bl	_test_assert
 631              	.LVL58:
 632 00fe 92E7     		b	.L14
 633              	.L20:
 634              		.loc 1 272 0 discriminator 1
 635 0100 03A8     		add	r0, sp, #12
 636 0102 FFF7FEFF 		bl	chSemSignalI
 637              	.LVL59:
 638 0106 C0E7     		b	.L16
 639              	.L21:
 640              		.loc 1 277 0 discriminator 1
 641 0108 03A8     		add	r0, sp, #12
 642 010a FFF7FEFF 		bl	chSemSignalI
 643              	.LVL60:
 644 010e DFE7     		b	.L17
 645              		.cfi_endproc
 646              	.LFE10:
 647              		.size	sem4_execute, .-sem4_execute
 648              		.section	.text.sem2_execute,"ax",%progbits
 649              		.align	2
 650              		.p2align 4,,15
 651              		.thumb
 652              		.thumb_func
 653              		.type	sem2_execute, %function
 654              	sem2_execute:
 655              	.LFB5:
 656              		.loc 1 145 0
 657              		.cfi_startproc
 658              		@ args = 0, pretend = 0, frame = 0
 659              		@ frame_needed = 0, uses_anonymous_args = 0
 660 0000 70B5     		push	{r4, r5, r6, lr}
 661              		.cfi_def_cfa_offset 16
 662              		.cfi_offset 4, -16
 663              		.cfi_offset 5, -12
 664              		.cfi_offset 6, -8
 665              		.cfi_offset 14, -4
 666              		.loc 1 153 0
 667 0002 40F20004 		movw	r4, #:lower16:.LANCHOR0
 668 0006 C0F20004 		movt	r4, #:upper16:.LANCHOR0
 669              		.loc 1 145 0
 670 000a 82B0     		sub	sp, sp, #8
 671              		.cfi_def_cfa_offset 24
 672              		.loc 1 153 0
 673 000c 0021     		movs	r1, #0
 674 000e 2046     		mov	r0, r4
 675 0010 FFF7FEFF 		bl	chSemWaitTimeout
 676              	.LVL61:
 677              		.loc 1 154 0
 678 0014 B0F1FF36 		subs	r6, r0, #-1
 679 0018 7142     		rsbs	r1, r6, #0
 680 001a 7141     		adcs	r1, r1, r6
ARM GAS  /tmp/ccj3vYZK.s 			page 13


 681 001c 0120     		movs	r0, #1
 682              	.LVL62:
 683 001e FFF7FEFF 		bl	_test_assert
 684              	.LVL63:
 685 0022 08B1     		cbz	r0, .L28
 686              	.LVL64:
 687              	.L22:
 688              		.loc 1 183 0
 689 0024 02B0     		add	sp, sp, #8
 690              		@ sp needed
 691 0026 70BD     		pop	{r4, r5, r6, pc}
 692              	.LVL65:
 693              	.L28:
 694              		.loc 1 155 0
 695 0028 2168     		ldr	r1, [r4]
 696 002a 0D1B     		subs	r5, r1, r4
 697 002c 6942     		rsbs	r1, r5, #0
 698 002e 6941     		adcs	r1, r1, r5
 699 0030 0220     		movs	r0, #2
 700 0032 FFF7FEFF 		bl	_test_assert
 701              	.LVL66:
 702 0036 0028     		cmp	r0, #0
 703 0038 F4D1     		bne	.L22
 704              		.loc 1 156 0
 705 003a A168     		ldr	r1, [r4, #8]
 706 003c D1F10101 		rsbs	r1, r1, #1
 707 0040 38BF     		it	cc
 708 0042 0021     		movcc	r1, #0
 709 0044 0320     		movs	r0, #3
 710 0046 FFF7FEFF 		bl	_test_assert
 711              	.LVL67:
 712 004a 0028     		cmp	r0, #0
 713 004c EAD1     		bne	.L22
 714              	.LBB4:
 715              	.LBB5:
 716              		.loc 1 161 0
 717 004e 40F20002 		movw	r2, #:lower16:rlist
 718 0052 C0F20002 		movt	r2, #:upper16:rlist
 719 0056 40F20003 		movw	r3, #:lower16:wa
 720 005a 9269     		ldr	r2, [r2, #24]
 721 005c C0F20003 		movt	r3, #:upper16:wa
 722 0060 9268     		ldr	r2, [r2, #8]
 723 0062 1968     		ldr	r1, [r3]
 724 0064 0090     		str	r0, [sp]
 725 0066 40F20003 		movw	r3, #:lower16:thread2
 726 006a 013A     		subs	r2, r2, #1
 727 006c 0846     		mov	r0, r1
 728 006e C0F20003 		movt	r3, #:upper16:thread2
 729 0072 4FF49871 		mov	r1, #304
 730 0076 FFF7FEFF 		bl	chThdCreateStatic
 731              	.LVL68:
 732 007a 40F20003 		movw	r3, #:lower16:threads
 733 007e C0F20003 		movt	r3, #:upper16:threads
 734              		.loc 1 163 0
 735 0082 4FF4FA71 		mov	r1, #500
 736              		.loc 1 161 0
 737 0086 1860     		str	r0, [r3]
ARM GAS  /tmp/ccj3vYZK.s 			page 14


 738              		.loc 1 163 0
 739 0088 2046     		mov	r0, r4
 740 008a FFF7FEFF 		bl	chSemWaitTimeout
 741              	.LVL69:
 742 008e 0546     		mov	r5, r0
 743              	.LVL70:
 744              		.loc 1 164 0
 745 0090 FFF7FEFF 		bl	test_wait_threads
 746              	.LVL71:
 747              		.loc 1 165 0
 748 0094 D5F10101 		rsbs	r1, r5, #1
 749 0098 38BF     		it	cc
 750 009a 0021     		movcc	r1, #0
 751 009c 0420     		movs	r0, #4
 752 009e FFF7FEFF 		bl	_test_assert
 753              	.LVL72:
 754 00a2 0028     		cmp	r0, #0
 755 00a4 BED1     		bne	.L22
 756              		.loc 1 166 0
 757 00a6 2168     		ldr	r1, [r4]
 758 00a8 0A1B     		subs	r2, r1, r4
 759 00aa 5142     		rsbs	r1, r2, #0
 760 00ac 5141     		adcs	r1, r1, r2
 761 00ae 0520     		movs	r0, #5
 762 00b0 FFF7FEFF 		bl	_test_assert
 763              	.LVL73:
 764 00b4 0028     		cmp	r0, #0
 765 00b6 B5D1     		bne	.L22
 766              		.loc 1 167 0
 767 00b8 A168     		ldr	r1, [r4, #8]
 768 00ba D1F10101 		rsbs	r1, r1, #1
 769 00be 38BF     		it	cc
 770 00c0 0021     		movcc	r1, #0
 771 00c2 0620     		movs	r0, #6
 772 00c4 FFF7FEFF 		bl	_test_assert
 773              	.LVL74:
 774 00c8 0028     		cmp	r0, #0
 775 00ca ABD1     		bne	.L22
 776              		.loc 1 172 0
 777 00cc FFF7FEFF 		bl	test_wait_tick
 778              	.LVL75:
 779              		.loc 1 173 0
 780 00d0 40F20003 		movw	r3, #:lower16:vtlist
 781 00d4 C0F20003 		movt	r3, #:upper16:vtlist
 782 00d8 4125     		movs	r5, #65
 783              	.LVL76:
 784 00da DE68     		ldr	r6, [r3, #12]
 785              	.LVL77:
 786              	.L27:
 787              		.loc 1 175 0
 788 00dc 2846     		mov	r0, r5
 789 00de FFF7FEFF 		bl	test_emit_token
 790              	.LVL78:
 791              		.loc 1 176 0
 792 00e2 40F20000 		movw	r0, #:lower16:.LANCHOR0
 793 00e6 4FF4FA71 		mov	r1, #500
 794 00ea C0F20000 		movt	r0, #:upper16:.LANCHOR0
ARM GAS  /tmp/ccj3vYZK.s 			page 15


 795 00ee FFF7FEFF 		bl	chSemWaitTimeout
 796              	.LVL79:
 797              		.loc 1 177 0
 798 00f2 B0F1FF33 		subs	r3, r0, #-1
 799 00f6 5942     		rsbs	r1, r3, #0
 800 00f8 5941     		adcs	r1, r1, r3
 801 00fa 0720     		movs	r0, #7
 802              	.LVL80:
 803 00fc FFF7FEFF 		bl	_test_assert
 804              	.LVL81:
 805 0100 0028     		cmp	r0, #0
 806 0102 8FD1     		bne	.L22
 807              		.loc 1 178 0
 808 0104 2168     		ldr	r1, [r4]
 809 0106 B1EB040C 		subs	ip, r1, r4
 810 010a DCF10001 		rsbs	r1, ip, #0
 811 010e 51EB0C01 		adcs	r1, r1, ip
 812 0112 0820     		movs	r0, #8
 813 0114 FFF7FEFF 		bl	_test_assert
 814              	.LVL82:
 815 0118 0028     		cmp	r0, #0
 816 011a 83D1     		bne	.L22
 817              		.loc 1 179 0
 818 011c A168     		ldr	r1, [r4, #8]
 819 011e D1F10101 		rsbs	r1, r1, #1
 820 0122 4FF00900 		mov	r0, #9
 821 0126 38BF     		it	cc
 822 0128 0021     		movcc	r1, #0
 823 012a FFF7FEFF 		bl	_test_assert
 824              	.LVL83:
 825 012e 0135     		adds	r5, r5, #1
 826 0130 EDB2     		uxtb	r5, r5
 827 0132 0028     		cmp	r0, #0
 828 0134 7FF476AF 		bne	.L22
 829              		.loc 1 174 0
 830 0138 462D     		cmp	r5, #70
 831 013a CFD1     		bne	.L27
 832              		.loc 1 181 0
 833 013c 40F20001 		movw	r1, #:lower16:.LC5
 834 0140 C0F20001 		movt	r1, #:upper16:.LC5
 835 0144 0A20     		movs	r0, #10
 836 0146 FFF7FEFF 		bl	_test_assert_sequence
 837              	.LVL84:
 838 014a 0028     		cmp	r0, #0
 839 014c 7FF46AAF 		bne	.L22
 840              		.loc 1 182 0
 841 0150 0B20     		movs	r0, #11
 842 0152 06F6C411 		addw	r1, r6, #2500
 843 0156 06F6C912 		addw	r2, r6, #2505
 844              	.LBE5:
 845              	.LBE4:
 846              		.loc 1 183 0
 847 015a 02B0     		add	sp, sp, #8
 848              		@ sp needed
 849 015c BDE87040 		pop	{r4, r5, r6, lr}
 850              	.LVL85:
 851              	.LBB7:
ARM GAS  /tmp/ccj3vYZK.s 			page 16


 852              	.LBB6:
 853              		.loc 1 182 0
 854 0160 FFF7FEBF 		b	_test_assert_time_window
 855              	.LVL86:
 856              	.LBE6:
 857              	.LBE7:
 858              		.cfi_endproc
 859              	.LFE5:
 860              		.size	sem2_execute, .-sem2_execute
 861 0164 AFF30080 		.section	.text.sem3_execute,"ax",%progbits
 861      AFF30080 
 861      AFF30080 
 862              		.align	2
 863              		.p2align 4,,15
 864              		.thumb
 865              		.thumb_func
 866              		.type	sem3_execute, %function
 867              	sem3_execute:
 868              	.LFB8:
 869              		.loc 1 218 0
 870              		.cfi_startproc
 871              		@ args = 0, pretend = 0, frame = 0
 872              		@ frame_needed = 0, uses_anonymous_args = 0
 873 0000 10B5     		push	{r4, lr}
 874              		.cfi_def_cfa_offset 8
 875              		.cfi_offset 4, -8
 876              		.cfi_offset 14, -4
 877              		.loc 1 220 0
 878 0002 40F20002 		movw	r2, #:lower16:rlist
 879 0006 C0F20002 		movt	r2, #:upper16:rlist
 880 000a 40F20003 		movw	r3, #:lower16:wa
 881 000e 9269     		ldr	r2, [r2, #24]
 882 0010 C0F20003 		movt	r3, #:upper16:wa
 883              		.loc 1 218 0
 884 0014 82B0     		sub	sp, sp, #8
 885              		.cfi_def_cfa_offset 16
 886              		.loc 1 220 0
 887 0016 9268     		ldr	r2, [r2, #8]
 888 0018 1868     		ldr	r0, [r3]
 889 001a 0021     		movs	r1, #0
 890 001c 40F20003 		movw	r3, #:lower16:thread3
 891 0020 0132     		adds	r2, r2, #1
 892 0022 0091     		str	r1, [sp]
 893 0024 C0F20003 		movt	r3, #:upper16:thread3
 894 0028 4FF49871 		mov	r1, #304
 895 002c FFF7FEFF 		bl	chThdCreateStatic
 896              	.LVL87:
 897 0030 40F20003 		movw	r3, #:lower16:threads
 898 0034 C0F20003 		movt	r3, #:upper16:threads
 899              		.loc 1 221 0
 900 0038 40F20004 		movw	r4, #:lower16:.LANCHOR0
 901 003c C0F20004 		movt	r4, #:upper16:.LANCHOR0
 902              		.loc 1 220 0
 903 0040 1860     		str	r0, [r3]
 904              		.loc 1 221 0
 905 0042 2146     		mov	r1, r4
 906 0044 2046     		mov	r0, r4
ARM GAS  /tmp/ccj3vYZK.s 			page 17


 907 0046 FFF7FEFF 		bl	chSemSignalWait
 908              	.LVL88:
 909              		.loc 1 222 0
 910 004a 2168     		ldr	r1, [r4]
 911 004c B1EB040C 		subs	ip, r1, r4
 912 0050 DCF10001 		rsbs	r1, ip, #0
 913 0054 51EB0C01 		adcs	r1, r1, ip
 914 0058 0120     		movs	r0, #1
 915 005a FFF7FEFF 		bl	_test_assert
 916              	.LVL89:
 917 005e 08B1     		cbz	r0, .L33
 918              	.L29:
 919              		.loc 1 228 0
 920 0060 02B0     		add	sp, sp, #8
 921              		@ sp needed
 922 0062 10BD     		pop	{r4, pc}
 923              	.L33:
 924              		.loc 1 223 0
 925 0064 A168     		ldr	r1, [r4, #8]
 926 0066 D1F10101 		rsbs	r1, r1, #1
 927 006a 38BF     		it	cc
 928 006c 0021     		movcc	r1, #0
 929 006e 0220     		movs	r0, #2
 930 0070 FFF7FEFF 		bl	_test_assert
 931              	.LVL90:
 932 0074 0028     		cmp	r0, #0
 933 0076 F3D1     		bne	.L29
 934              	.LBB10:
 935              	.LBB11:
 936              		.loc 1 225 0
 937 0078 2146     		mov	r1, r4
 938 007a 2046     		mov	r0, r4
 939 007c FFF7FEFF 		bl	chSemSignalWait
 940              	.LVL91:
 941              		.loc 1 226 0
 942 0080 2168     		ldr	r1, [r4]
 943 0082 B1EB040E 		subs	lr, r1, r4
 944 0086 DEF10001 		rsbs	r1, lr, #0
 945 008a 51EB0E01 		adcs	r1, r1, lr
 946 008e 0320     		movs	r0, #3
 947 0090 FFF7FEFF 		bl	_test_assert
 948              	.LVL92:
 949 0094 0028     		cmp	r0, #0
 950 0096 E3D1     		bne	.L29
 951              		.loc 1 227 0
 952 0098 A168     		ldr	r1, [r4, #8]
 953 009a D1F10101 		rsbs	r1, r1, #1
 954 009e 4FF00400 		mov	r0, #4
 955 00a2 38BF     		it	cc
 956 00a4 0021     		movcc	r1, #0
 957              	.LBE11:
 958              	.LBE10:
 959              		.loc 1 228 0
 960 00a6 02B0     		add	sp, sp, #8
 961              		@ sp needed
 962 00a8 BDE81040 		pop	{r4, lr}
 963              	.LBB13:
ARM GAS  /tmp/ccj3vYZK.s 			page 18


 964              	.LBB12:
 965              		.loc 1 227 0
 966 00ac FFF7FEBF 		b	_test_assert
 967              	.LVL93:
 968              	.LBE12:
 969              	.LBE13:
 970              		.cfi_endproc
 971              	.LFE8:
 972              		.size	sem3_execute, .-sem3_execute
 973              		.global	patternsem
 974              		.global	testsem4
 975              		.global	testsem3
 976              		.global	testsem2
 977              		.global	testsem1
 978              		.section	.rodata.testsem1,"a",%progbits
 979              		.align	2
 980              		.type	testsem1, %object
 981              		.size	testsem1, 16
 982              	testsem1:
 983 0000 74000000 		.word	.LC9
 984 0004 00000000 		.word	sem1_setup
 985 0008 00000000 		.word	0
 986 000c 00000000 		.word	sem1_execute
 987              		.section	.rodata.testsem2,"a",%progbits
 988              		.align	2
 989              		.type	testsem2, %object
 990              		.size	testsem2, 16
 991              	testsem2:
 992 0000 60000000 		.word	.LC8
 993 0004 00000000 		.word	sem2_setup
 994 0008 00000000 		.word	0
 995 000c 00000000 		.word	sem2_execute
 996              		.section	.rodata.testsem3,"a",%progbits
 997              		.align	2
 998              		.type	testsem3, %object
 999              		.size	testsem3, 16
 1000              	testsem3:
 1001 0000 40000000 		.word	.LC7
 1002 0004 00000000 		.word	sem3_setup
 1003 0008 00000000 		.word	0
 1004 000c 00000000 		.word	sem3_execute
 1005              		.section	.rodata.testsem4,"a",%progbits
 1006              		.align	2
 1007              		.type	testsem4, %object
 1008              		.size	testsem4, 16
 1009              	testsem4:
 1010 0000 1C000000 		.word	.LC6
 1011 0004 00000000 		.word	0
 1012 0008 00000000 		.word	0
 1013 000c 00000000 		.word	sem4_execute
 1014              		.section	.data.sem1,"aw",%progbits
 1015              		.align	2
 1016              		.set	.LANCHOR0,. + 0
 1017              		.type	sem1, %object
 1018              		.size	sem1, 12
 1019              	sem1:
 1020 0000 00000000 		.word	sem1
ARM GAS  /tmp/ccj3vYZK.s 			page 19


 1021 0004 00000000 		.word	sem1
 1022 0008 00000000 		.word	0
 1023              		.section	.rodata.patternsem,"a",%progbits
 1024              		.align	2
 1025              		.type	patternsem, %object
 1026              		.size	patternsem, 20
 1027              	patternsem:
 1028 0000 00000000 		.word	testsem1
 1029 0004 00000000 		.word	testsem2
 1030 0008 00000000 		.word	testsem3
 1031 000c 00000000 		.word	testsem4
 1032 0010 00000000 		.word	0
 1033              		.section	.rodata.str1.4,"aMS",%progbits,1
 1034              		.align	2
 1035              	.LC0:
 1036 0000 4100     		.ascii	"A\000"
 1037 0002 0000     		.space	2
 1038              	.LC1:
 1039 0004 4200     		.ascii	"B\000"
 1040 0006 0000     		.space	2
 1041              	.LC2:
 1042 0008 4300     		.ascii	"C\000"
 1043 000a 0000     		.space	2
 1044              	.LC3:
 1045 000c 4400     		.ascii	"D\000"
 1046 000e 0000     		.space	2
 1047              	.LC4:
 1048 0010 4500     		.ascii	"E\000"
 1049 0012 0000     		.space	2
 1050              	.LC5:
 1051 0014 41424344 		.ascii	"ABCDE\000"
 1051      4500
 1052 001a 0000     		.space	2
 1053              	.LC6:
 1054 001c 42696E61 		.ascii	"Binary Semaphores, functionality\000"
 1054      72792053 
 1054      656D6170 
 1054      686F7265 
 1054      732C2066 
 1055 003d 000000   		.space	3
 1056              	.LC7:
 1057 0040 53656D61 		.ascii	"Semaphores, atomic signal-wait\000"
 1057      70686F72 
 1057      65732C20 
 1057      61746F6D 
 1057      69632073 
 1058 005f 00       		.space	1
 1059              	.LC8:
 1060 0060 53656D61 		.ascii	"Semaphores, timeout\000"
 1060      70686F72 
 1060      65732C20 
 1060      74696D65 
 1060      6F757400 
 1061              	.LC9:
 1062 0074 53656D61 		.ascii	"Semaphores, enqueuing\000"
 1062      70686F72 
 1062      65732C20 
ARM GAS  /tmp/ccj3vYZK.s 			page 20


 1062      656E7175 
 1062      6575696E 
 1063 008a 0000     		.text
 1064              	.Letext0:
 1065              		.file 2 "/usr/lib/gcc/arm-none-eabi/4.8.2/include/stddef.h"
 1066              		.file 3 "/usr/arm-none-eabi/include/machine/_default_types.h"
 1067              		.file 4 "/usr/arm-none-eabi/include/stdint.h"
 1068              		.file 5 "../../../os/ports/GCC/ARMCMx/chtypes.h"
 1069              		.file 6 "../../../os/kernel/include/chlists.h"
 1070              		.file 7 "../../../os/kernel/include/chthreads.h"
 1071              		.file 8 "../../../os/ports/GCC/ARMCMx/chcore_v7m.h"
 1072              		.file 9 "../../../os/kernel/include/chvt.h"
 1073              		.file 10 "../../../os/kernel/include/chschd.h"
 1074              		.file 11 "../../../os/kernel/include/chsem.h"
 1075              		.file 12 "../../../os/kernel/include/chbsem.h"
 1076              		.file 13 "../../../os/kernel/include/chmtx.h"
 1077              		.file 14 "../../../test/test.h"
 1078              		.file 15 "../../../os/kernel/include/chdebug.h"