ARM GAS  /tmp/ccqURGLh.s 			page 1


   1              		.syntax unified
   2              		.cpu cortex-m4
   3              		.fpu softvfp
   4              		.eabi_attribute 20, 1
   5              		.eabi_attribute 21, 1
   6              		.eabi_attribute 23, 3
   7              		.eabi_attribute 24, 1
   8              		.eabi_attribute 25, 1
   9              		.eabi_attribute 26, 1
  10              		.eabi_attribute 30, 2
  11              		.eabi_attribute 34, 1
  12              		.eabi_attribute 18, 4
  13              		.thumb
  14              		.file	"uart.c"
  15              		.text
  16              	.Ltext0:
  17              		.cfi_sections	.debug_frame
  18              		.section	.text.uartInit,"ax",%progbits
  19              		.align	2
  20              		.p2align 4,,15
  21              		.global	uartInit
  22              		.thumb
  23              		.thumb_func
  24              		.type	uartInit, %function
  25              	uartInit:
  26              	.LFB118:
  27              		.file 1 "../../../os/hal/src/uart.c"
  28              		.loc 1 68 0
  29              		.cfi_startproc
  30              		@ args = 0, pretend = 0, frame = 0
  31              		@ frame_needed = 0, uses_anonymous_args = 0
  32              		@ link register save eliminated.
  33              		.loc 1 70 0
  34 0000 FFF7FEBF 		b	uart_lld_init
  35              	.LVL0:
  36              		.cfi_endproc
  37              	.LFE118:
  38              		.size	uartInit, .-uartInit
  39 0004 AFF30080 		.section	.text.uartObjectInit,"ax",%progbits
  39      AFF30080 
  39      AFF30080 
  40              		.align	2
  41              		.p2align 4,,15
  42              		.global	uartObjectInit
  43              		.thumb
  44              		.thumb_func
  45              		.type	uartObjectInit, %function
  46              	uartObjectInit:
  47              	.LFB119:
  48              		.loc 1 80 0
  49              		.cfi_startproc
  50              		@ args = 0, pretend = 0, frame = 0
  51              		@ frame_needed = 0, uses_anonymous_args = 0
  52              		@ link register save eliminated.
  53              	.LVL1:
  54              		.loc 1 83 0
  55 0000 0023     		movs	r3, #0
ARM GAS  /tmp/ccqURGLh.s 			page 2


  56              		.loc 1 82 0
  57 0002 0122     		movs	r2, #1
  58 0004 0270     		strb	r2, [r0]
  59              		.loc 1 83 0
  60 0006 4370     		strb	r3, [r0, #1]
  61              		.loc 1 84 0
  62 0008 8370     		strb	r3, [r0, #2]
  63              		.loc 1 85 0
  64 000a 4360     		str	r3, [r0, #4]
  65 000c 7047     		bx	lr
  66              		.cfi_endproc
  67              	.LFE119:
  68              		.size	uartObjectInit, .-uartObjectInit
  69 000e 00BF     		.section	.text.uartStart,"ax",%progbits
  70              		.align	2
  71              		.p2align 4,,15
  72              		.global	uartStart
  73              		.thumb
  74              		.thumb_func
  75              		.type	uartStart, %function
  76              	uartStart:
  77              	.LFB120:
  78              		.loc 1 100 0
  79              		.cfi_startproc
  80              		@ args = 0, pretend = 0, frame = 0
  81              		@ frame_needed = 0, uses_anonymous_args = 0
  82              	.LVL2:
  83              		.loc 1 102 0
  84 0000 0029     		cmp	r1, #0
  85 0002 18BF     		it	ne
  86 0004 0028     		cmpne	r0, #0
  87              		.loc 1 100 0
  88 0006 38B5     		push	{r3, r4, r5, lr}
  89              		.cfi_def_cfa_offset 16
  90              		.cfi_offset 3, -16
  91              		.cfi_offset 4, -12
  92              		.cfi_offset 5, -8
  93              		.cfi_offset 14, -4
  94              		.loc 1 102 0
  95 0008 0446     		mov	r4, r0
  96 000a 0D46     		mov	r5, r1
  97 000c 1BD0     		beq	.L10
  98              	.LVL3:
  99              	.L4:
 100              	.LBB2:
 101              		.loc 1 104 0
 102 000e 2023     		movs	r3, #32
 103              	@ 104 "../../../os/hal/src/uart.c" 1
 104 0010 83F31188 		msr     BASEPRI, r3
 105              	@ 0 "" 2
 106              		.thumb
 107              	.LBE2:
 108 0014 FFF7FEFF 		bl	dbg_check_lock
 109              	.LVL4:
 110              		.loc 1 105 0
 111 0018 2378     		ldrb	r3, [r4]	@ zero_extendqisi2
 112 001a 013B     		subs	r3, r3, #1
ARM GAS  /tmp/ccqURGLh.s 			page 3


 113 001c DBB2     		uxtb	r3, r3
 114 001e 012B     		cmp	r3, #1
 115 0020 05D9     		bls	.L5
 116              		.loc 1 105 0 is_stmt 0 discriminator 1
 117 0022 40F20000 		movw	r0, #:lower16:.LC1
 118 0026 C0F20000 		movt	r0, #:upper16:.LC1
 119 002a FFF7FEFF 		bl	chDbgPanic
 120              	.LVL5:
 121              	.L5:
 122              		.loc 1 109 0 is_stmt 1
 123 002e 2046     		mov	r0, r4
 124              		.loc 1 108 0
 125 0030 6560     		str	r5, [r4, #4]
 126              		.loc 1 109 0
 127 0032 FFF7FEFF 		bl	uart_lld_start
 128              	.LVL6:
 129              		.loc 1 110 0
 130 0036 0223     		movs	r3, #2
 131 0038 2370     		strb	r3, [r4]
 132              		.loc 1 111 0
 133 003a FFF7FEFF 		bl	dbg_check_unlock
 134              	.LVL7:
 135              	.LBB3:
 136 003e 0023     		movs	r3, #0
 137              	@ 111 "../../../os/hal/src/uart.c" 1
 138 0040 83F31188 		msr     BASEPRI, r3
 139              	@ 0 "" 2
 140              		.thumb
 141 0044 38BD     		pop	{r3, r4, r5, pc}
 142              	.LVL8:
 143              	.L10:
 144              	.LBE3:
 145              		.loc 1 102 0 discriminator 1
 146 0046 40F20000 		movw	r0, #:lower16:.LC0
 147              	.LVL9:
 148 004a C0F20000 		movt	r0, #:upper16:.LC0
 149 004e FFF7FEFF 		bl	chDbgPanic
 150              	.LVL10:
 151 0052 DCE7     		b	.L4
 152              		.cfi_endproc
 153              	.LFE120:
 154              		.size	uartStart, .-uartStart
 155 0054 AFF30080 		.section	.text.uartStop,"ax",%progbits
 155      AFF30080 
 155      AFF30080 
 156              		.align	2
 157              		.p2align 4,,15
 158              		.global	uartStop
 159              		.thumb
 160              		.thumb_func
 161              		.type	uartStop, %function
 162              	uartStop:
 163              	.LFB121:
 164              		.loc 1 121 0
 165              		.cfi_startproc
 166              		@ args = 0, pretend = 0, frame = 0
 167              		@ frame_needed = 0, uses_anonymous_args = 0
ARM GAS  /tmp/ccqURGLh.s 			page 4


 168              	.LVL11:
 169 0000 38B5     		push	{r3, r4, r5, lr}
 170              		.cfi_def_cfa_offset 16
 171              		.cfi_offset 3, -16
 172              		.cfi_offset 4, -12
 173              		.cfi_offset 5, -8
 174              		.cfi_offset 14, -4
 175              		.loc 1 123 0
 176 0002 0446     		mov	r4, r0
 177 0004 E8B1     		cbz	r0, .L14
 178              	.LVL12:
 179              	.L12:
 180              	.LBB4:
 181              		.loc 1 125 0
 182 0006 2023     		movs	r3, #32
 183              	@ 125 "../../../os/hal/src/uart.c" 1
 184 0008 83F31188 		msr     BASEPRI, r3
 185              	@ 0 "" 2
 186              		.thumb
 187              	.LBE4:
 188 000c FFF7FEFF 		bl	dbg_check_lock
 189              	.LVL13:
 190              		.loc 1 126 0
 191 0010 2378     		ldrb	r3, [r4]	@ zero_extendqisi2
 192 0012 013B     		subs	r3, r3, #1
 193 0014 DBB2     		uxtb	r3, r3
 194 0016 012B     		cmp	r3, #1
 195 0018 05D9     		bls	.L13
 196              		.loc 1 126 0 is_stmt 0 discriminator 1
 197 001a 40F20000 		movw	r0, #:lower16:.LC3
 198 001e C0F20000 		movt	r0, #:upper16:.LC3
 199 0022 FFF7FEFF 		bl	chDbgPanic
 200              	.LVL14:
 201              	.L13:
 202              		.loc 1 129 0 is_stmt 1
 203 0026 2046     		mov	r0, r4
 204 0028 FFF7FEFF 		bl	uart_lld_stop
 205              	.LVL15:
 206              		.loc 1 131 0
 207 002c 0025     		movs	r5, #0
 208              		.loc 1 130 0
 209 002e 0123     		movs	r3, #1
 210 0030 2370     		strb	r3, [r4]
 211              		.loc 1 131 0
 212 0032 6570     		strb	r5, [r4, #1]
 213              		.loc 1 132 0
 214 0034 A570     		strb	r5, [r4, #2]
 215              		.loc 1 133 0
 216 0036 FFF7FEFF 		bl	dbg_check_unlock
 217              	.LVL16:
 218              	.LBB5:
 219 003a 2B46     		mov	r3, r5
 220              	@ 133 "../../../os/hal/src/uart.c" 1
 221 003c 83F31188 		msr     BASEPRI, r3
 222              	@ 0 "" 2
 223              		.thumb
 224 0040 38BD     		pop	{r3, r4, r5, pc}
ARM GAS  /tmp/ccqURGLh.s 			page 5


 225              	.LVL17:
 226              	.L14:
 227              	.LBE5:
 228              		.loc 1 123 0 discriminator 1
 229 0042 40F20000 		movw	r0, #:lower16:.LC2
 230              	.LVL18:
 231 0046 C0F20000 		movt	r0, #:upper16:.LC2
 232 004a FFF7FEFF 		bl	chDbgPanic
 233              	.LVL19:
 234 004e DAE7     		b	.L12
 235              		.cfi_endproc
 236              	.LFE121:
 237              		.size	uartStop, .-uartStop
 238              		.section	.text.uartStartSend,"ax",%progbits
 239              		.align	2
 240              		.p2align 4,,15
 241              		.global	uartStartSend
 242              		.thumb
 243              		.thumb_func
 244              		.type	uartStartSend, %function
 245              	uartStartSend:
 246              	.LFB122:
 247              		.loc 1 147 0
 248              		.cfi_startproc
 249              		@ args = 0, pretend = 0, frame = 0
 250              		@ frame_needed = 0, uses_anonymous_args = 0
 251              	.LVL20:
 252              		.loc 1 149 0
 253 0000 0029     		cmp	r1, #0
 254 0002 18BF     		it	ne
 255 0004 0028     		cmpne	r0, #0
 256              		.loc 1 147 0
 257 0006 70B5     		push	{r4, r5, r6, lr}
 258              		.cfi_def_cfa_offset 16
 259              		.cfi_offset 4, -16
 260              		.cfi_offset 5, -12
 261              		.cfi_offset 6, -8
 262              		.cfi_offset 14, -4
 263              		.loc 1 149 0
 264 0008 0446     		mov	r4, r0
 265 000a 0D46     		mov	r5, r1
 266              		.loc 1 147 0
 267 000c 1646     		mov	r6, r2
 268              		.loc 1 149 0
 269 000e 1ED0     		beq	.L16
 270              		.loc 1 149 0 is_stmt 0 discriminator 2
 271 0010 EAB1     		cbz	r2, .L16
 272              	.LVL21:
 273              	.L17:
 274              	.LBB6:
 275              		.loc 1 152 0 is_stmt 1
 276 0012 2023     		movs	r3, #32
 277              	@ 152 "../../../os/hal/src/uart.c" 1
 278 0014 83F31188 		msr     BASEPRI, r3
 279              	@ 0 "" 2
 280              		.thumb
 281              	.LBE6:
ARM GAS  /tmp/ccqURGLh.s 			page 6


 282 0018 FFF7FEFF 		bl	dbg_check_lock
 283              	.LVL22:
 284              		.loc 1 153 0
 285 001c 2378     		ldrb	r3, [r4]	@ zero_extendqisi2
 286 001e 022B     		cmp	r3, #2
 287 0020 05D0     		beq	.L18
 288              		.loc 1 153 0 is_stmt 0 discriminator 1
 289 0022 40F20000 		movw	r0, #:lower16:.LC5
 290 0026 C0F20000 		movt	r0, #:upper16:.LC5
 291 002a FFF7FEFF 		bl	chDbgPanic
 292              	.LVL23:
 293              	.L18:
 294              		.loc 1 155 0 is_stmt 1
 295 002e 6378     		ldrb	r3, [r4, #1]	@ zero_extendqisi2
 296 0030 012B     		cmp	r3, #1
 297 0032 13D0     		beq	.L23
 298              	.L19:
 299              		.loc 1 158 0
 300 0034 2946     		mov	r1, r5
 301 0036 3246     		mov	r2, r6
 302 0038 2046     		mov	r0, r4
 303 003a FFF7FEFF 		bl	uart_lld_start_send
 304              	.LVL24:
 305              		.loc 1 159 0
 306 003e 0123     		movs	r3, #1
 307 0040 6370     		strb	r3, [r4, #1]
 308              		.loc 1 160 0
 309 0042 FFF7FEFF 		bl	dbg_check_unlock
 310              	.LVL25:
 311              	.LBB7:
 312 0046 0023     		movs	r3, #0
 313              	@ 160 "../../../os/hal/src/uart.c" 1
 314 0048 83F31188 		msr     BASEPRI, r3
 315              	@ 0 "" 2
 316              		.thumb
 317 004c 70BD     		pop	{r4, r5, r6, pc}
 318              	.LVL26:
 319              	.L16:
 320              	.LBE7:
 321              		.loc 1 149 0 discriminator 1
 322 004e 40F20000 		movw	r0, #:lower16:.LC4
 323              	.LVL27:
 324 0052 C0F20000 		movt	r0, #:upper16:.LC4
 325 0056 FFF7FEFF 		bl	chDbgPanic
 326              	.LVL28:
 327 005a DAE7     		b	.L17
 328              	.L23:
 329              		.loc 1 155 0 discriminator 1
 330 005c 40F20000 		movw	r0, #:lower16:.LC6
 331 0060 C0F20000 		movt	r0, #:upper16:.LC6
 332 0064 FFF7FEFF 		bl	chDbgPanic
 333              	.LVL29:
 334 0068 E4E7     		b	.L19
 335              		.cfi_endproc
 336              	.LFE122:
 337              		.size	uartStartSend, .-uartStartSend
 338 006a 00BFAFF3 		.section	.text.uartStartSendI,"ax",%progbits
ARM GAS  /tmp/ccqURGLh.s 			page 7


 338      0080
 339              		.align	2
 340              		.p2align 4,,15
 341              		.global	uartStartSendI
 342              		.thumb
 343              		.thumb_func
 344              		.type	uartStartSendI, %function
 345              	uartStartSendI:
 346              	.LFB123:
 347              		.loc 1 175 0
 348              		.cfi_startproc
 349              		@ args = 0, pretend = 0, frame = 0
 350              		@ frame_needed = 0, uses_anonymous_args = 0
 351              	.LVL30:
 352 0000 70B5     		push	{r4, r5, r6, lr}
 353              		.cfi_def_cfa_offset 16
 354              		.cfi_offset 4, -16
 355              		.cfi_offset 5, -12
 356              		.cfi_offset 6, -8
 357              		.cfi_offset 14, -4
 358              		.loc 1 175 0
 359 0002 0446     		mov	r4, r0
 360 0004 0D46     		mov	r5, r1
 361 0006 1646     		mov	r6, r2
 362              		.loc 1 177 0
 363 0008 FFF7FEFF 		bl	chDbgCheckClassI
 364              	.LVL31:
 365              		.loc 1 178 0
 366 000c 002D     		cmp	r5, #0
 367 000e 18BF     		it	ne
 368 0010 002C     		cmpne	r4, #0
 369 0012 14D0     		beq	.L25
 370              		.loc 1 178 0 is_stmt 0 discriminator 2
 371 0014 9EB1     		cbz	r6, .L25
 372              	.L26:
 373              		.loc 1 180 0 is_stmt 1
 374 0016 2378     		ldrb	r3, [r4]	@ zero_extendqisi2
 375 0018 022B     		cmp	r3, #2
 376 001a 05D0     		beq	.L27
 377              		.loc 1 180 0 is_stmt 0 discriminator 1
 378 001c 40F20000 		movw	r0, #:lower16:.LC8
 379 0020 C0F20000 		movt	r0, #:upper16:.LC8
 380 0024 FFF7FEFF 		bl	chDbgPanic
 381              	.LVL32:
 382              	.L27:
 383              		.loc 1 182 0 is_stmt 1
 384 0028 6378     		ldrb	r3, [r4, #1]	@ zero_extendqisi2
 385 002a 012B     		cmp	r3, #1
 386 002c 0ED0     		beq	.L32
 387              	.L28:
 388              		.loc 1 185 0
 389 002e 2946     		mov	r1, r5
 390 0030 3246     		mov	r2, r6
 391 0032 2046     		mov	r0, r4
 392 0034 FFF7FEFF 		bl	uart_lld_start_send
 393              	.LVL33:
 394              		.loc 1 186 0
ARM GAS  /tmp/ccqURGLh.s 			page 8


 395 0038 0123     		movs	r3, #1
 396 003a 6370     		strb	r3, [r4, #1]
 397 003c 70BD     		pop	{r4, r5, r6, pc}
 398              	.LVL34:
 399              	.L25:
 400              		.loc 1 178 0 discriminator 1
 401 003e 40F20000 		movw	r0, #:lower16:.LC7
 402 0042 C0F20000 		movt	r0, #:upper16:.LC7
 403 0046 FFF7FEFF 		bl	chDbgPanic
 404              	.LVL35:
 405 004a E4E7     		b	.L26
 406              	.L32:
 407              		.loc 1 182 0 discriminator 1
 408 004c 40F20000 		movw	r0, #:lower16:.LC9
 409 0050 C0F20000 		movt	r0, #:upper16:.LC9
 410 0054 FFF7FEFF 		bl	chDbgPanic
 411              	.LVL36:
 412 0058 E9E7     		b	.L28
 413              		.cfi_endproc
 414              	.LFE123:
 415              		.size	uartStartSendI, .-uartStartSendI
 416 005a 00BFAFF3 		.section	.text.uartStopSend,"ax",%progbits
 416      0080
 417              		.align	2
 418              		.p2align 4,,15
 419              		.global	uartStopSend
 420              		.thumb
 421              		.thumb_func
 422              		.type	uartStopSend, %function
 423              	uartStopSend:
 424              	.LFB124:
 425              		.loc 1 201 0
 426              		.cfi_startproc
 427              		@ args = 0, pretend = 0, frame = 0
 428              		@ frame_needed = 0, uses_anonymous_args = 0
 429              	.LVL37:
 430 0000 38B5     		push	{r3, r4, r5, lr}
 431              		.cfi_def_cfa_offset 16
 432              		.cfi_offset 3, -16
 433              		.cfi_offset 4, -12
 434              		.cfi_offset 5, -8
 435              		.cfi_offset 14, -4
 436              		.loc 1 204 0
 437 0002 0446     		mov	r4, r0
 438 0004 00B3     		cbz	r0, .L41
 439              	.LVL38:
 440              	.L34:
 441              	.LBB8:
 442              		.loc 1 206 0
 443 0006 2023     		movs	r3, #32
 444              	@ 206 "../../../os/hal/src/uart.c" 1
 445 0008 83F31188 		msr     BASEPRI, r3
 446              	@ 0 "" 2
 447              		.thumb
 448              	.LBE8:
 449 000c FFF7FEFF 		bl	dbg_check_lock
 450              	.LVL39:
ARM GAS  /tmp/ccqURGLh.s 			page 9


 451              		.loc 1 207 0
 452 0010 2378     		ldrb	r3, [r4]	@ zero_extendqisi2
 453 0012 022B     		cmp	r3, #2
 454 0014 05D0     		beq	.L35
 455              		.loc 1 207 0 is_stmt 0 discriminator 1
 456 0016 40F20000 		movw	r0, #:lower16:.LC11
 457 001a C0F20000 		movt	r0, #:upper16:.LC11
 458 001e FFF7FEFF 		bl	chDbgPanic
 459              	.LVL40:
 460              	.L35:
 461              		.loc 1 209 0 is_stmt 1
 462 0022 6378     		ldrb	r3, [r4, #1]	@ zero_extendqisi2
 463 0024 012B     		cmp	r3, #1
 464              		.loc 1 214 0
 465 0026 18BF     		it	ne
 466 0028 0025     		movne	r5, #0
 467              		.loc 1 209 0
 468 002a 06D0     		beq	.L42
 469              	.L36:
 470              	.LVL41:
 471              		.loc 1 215 0
 472 002c FFF7FEFF 		bl	dbg_check_unlock
 473              	.LVL42:
 474              	.LBB9:
 475 0030 0023     		movs	r3, #0
 476              	@ 215 "../../../os/hal/src/uart.c" 1
 477 0032 83F31188 		msr     BASEPRI, r3
 478              	@ 0 "" 2
 479              		.thumb
 480              	.LBE9:
 481              		.loc 1 217 0
 482 0036 2846     		mov	r0, r5
 483 0038 38BD     		pop	{r3, r4, r5, pc}
 484              	.LVL43:
 485              	.L42:
 486              		.loc 1 210 0
 487 003a 2046     		mov	r0, r4
 488 003c FFF7FEFF 		bl	uart_lld_stop_send
 489              	.LVL44:
 490              		.loc 1 211 0
 491 0040 0023     		movs	r3, #0
 492              		.loc 1 210 0
 493 0042 0546     		mov	r5, r0
 494              	.LVL45:
 495              		.loc 1 211 0
 496 0044 6370     		strb	r3, [r4, #1]
 497 0046 F1E7     		b	.L36
 498              	.LVL46:
 499              	.L41:
 500              		.loc 1 204 0 discriminator 1
 501 0048 40F20000 		movw	r0, #:lower16:.LC10
 502              	.LVL47:
 503 004c C0F20000 		movt	r0, #:upper16:.LC10
 504 0050 FFF7FEFF 		bl	chDbgPanic
 505              	.LVL48:
 506 0054 D7E7     		b	.L34
 507              		.cfi_endproc
ARM GAS  /tmp/ccqURGLh.s 			page 10


 508              	.LFE124:
 509              		.size	uartStopSend, .-uartStopSend
 510 0056 00BFAFF3 		.section	.text.uartStopSendI,"ax",%progbits
 510      0080AFF3 
 510      0080
 511              		.align	2
 512              		.p2align 4,,15
 513              		.global	uartStopSendI
 514              		.thumb
 515              		.thumb_func
 516              		.type	uartStopSendI, %function
 517              	uartStopSendI:
 518              	.LFB125:
 519              		.loc 1 232 0
 520              		.cfi_startproc
 521              		@ args = 0, pretend = 0, frame = 0
 522              		@ frame_needed = 0, uses_anonymous_args = 0
 523              	.LVL49:
 524 0000 10B5     		push	{r4, lr}
 525              		.cfi_def_cfa_offset 8
 526              		.cfi_offset 4, -8
 527              		.cfi_offset 14, -4
 528              		.loc 1 232 0
 529 0002 0446     		mov	r4, r0
 530              		.loc 1 234 0
 531 0004 FFF7FEFF 		bl	chDbgCheckClassI
 532              	.LVL50:
 533              		.loc 1 235 0
 534 0008 9CB1     		cbz	r4, .L51
 535              	.L44:
 536              		.loc 1 236 0
 537 000a 2378     		ldrb	r3, [r4]	@ zero_extendqisi2
 538 000c 022B     		cmp	r3, #2
 539 000e 05D0     		beq	.L45
 540              		.loc 1 236 0 is_stmt 0 discriminator 1
 541 0010 40F20000 		movw	r0, #:lower16:.LC13
 542 0014 C0F20000 		movt	r0, #:upper16:.LC13
 543 0018 FFF7FEFF 		bl	chDbgPanic
 544              	.LVL51:
 545              	.L45:
 546              		.loc 1 238 0 is_stmt 1
 547 001c 6378     		ldrb	r3, [r4, #1]	@ zero_extendqisi2
 548 001e 012B     		cmp	r3, #1
 549 0020 01D0     		beq	.L52
 550              		.loc 1 243 0
 551 0022 0020     		movs	r0, #0
 552              		.loc 1 244 0
 553 0024 10BD     		pop	{r4, pc}
 554              	.LVL52:
 555              	.L52:
 556              	.LBB10:
 557              		.loc 1 239 0
 558 0026 2046     		mov	r0, r4
 559 0028 FFF7FEFF 		bl	uart_lld_stop_send
 560              	.LVL53:
 561              		.loc 1 240 0
 562 002c 0023     		movs	r3, #0
ARM GAS  /tmp/ccqURGLh.s 			page 11


 563 002e 6370     		strb	r3, [r4, #1]
 564              		.loc 1 241 0
 565 0030 10BD     		pop	{r4, pc}
 566              	.LVL54:
 567              	.L51:
 568              	.LBE10:
 569              		.loc 1 235 0 discriminator 1
 570 0032 40F20000 		movw	r0, #:lower16:.LC12
 571 0036 C0F20000 		movt	r0, #:upper16:.LC12
 572 003a FFF7FEFF 		bl	chDbgPanic
 573              	.LVL55:
 574 003e E4E7     		b	.L44
 575              		.cfi_endproc
 576              	.LFE125:
 577              		.size	uartStopSendI, .-uartStopSendI
 578              		.section	.text.uartStartReceive,"ax",%progbits
 579              		.align	2
 580              		.p2align 4,,15
 581              		.global	uartStartReceive
 582              		.thumb
 583              		.thumb_func
 584              		.type	uartStartReceive, %function
 585              	uartStartReceive:
 586              	.LFB126:
 587              		.loc 1 257 0
 588              		.cfi_startproc
 589              		@ args = 0, pretend = 0, frame = 0
 590              		@ frame_needed = 0, uses_anonymous_args = 0
 591              	.LVL56:
 592              		.loc 1 259 0
 593 0000 0029     		cmp	r1, #0
 594 0002 18BF     		it	ne
 595 0004 0028     		cmpne	r0, #0
 596              		.loc 1 257 0
 597 0006 70B5     		push	{r4, r5, r6, lr}
 598              		.cfi_def_cfa_offset 16
 599              		.cfi_offset 4, -16
 600              		.cfi_offset 5, -12
 601              		.cfi_offset 6, -8
 602              		.cfi_offset 14, -4
 603              		.loc 1 259 0
 604 0008 0446     		mov	r4, r0
 605 000a 0D46     		mov	r5, r1
 606              		.loc 1 257 0
 607 000c 1646     		mov	r6, r2
 608              		.loc 1 259 0
 609 000e 1ED0     		beq	.L54
 610              		.loc 1 259 0 is_stmt 0 discriminator 2
 611 0010 EAB1     		cbz	r2, .L54
 612              	.LVL57:
 613              	.L55:
 614              	.LBB11:
 615              		.loc 1 262 0 is_stmt 1
 616 0012 2023     		movs	r3, #32
 617              	@ 262 "../../../os/hal/src/uart.c" 1
 618 0014 83F31188 		msr     BASEPRI, r3
 619              	@ 0 "" 2
ARM GAS  /tmp/ccqURGLh.s 			page 12


 620              		.thumb
 621              	.LBE11:
 622 0018 FFF7FEFF 		bl	dbg_check_lock
 623              	.LVL58:
 624              		.loc 1 263 0
 625 001c 2378     		ldrb	r3, [r4]	@ zero_extendqisi2
 626 001e 022B     		cmp	r3, #2
 627 0020 05D0     		beq	.L56
 628              		.loc 1 263 0 is_stmt 0 discriminator 1
 629 0022 40F20000 		movw	r0, #:lower16:.LC15
 630 0026 C0F20000 		movt	r0, #:upper16:.LC15
 631 002a FFF7FEFF 		bl	chDbgPanic
 632              	.LVL59:
 633              	.L56:
 634              		.loc 1 265 0 is_stmt 1
 635 002e A378     		ldrb	r3, [r4, #2]	@ zero_extendqisi2
 636 0030 012B     		cmp	r3, #1
 637 0032 13D0     		beq	.L61
 638              	.L57:
 639              		.loc 1 268 0
 640 0034 2946     		mov	r1, r5
 641 0036 3246     		mov	r2, r6
 642 0038 2046     		mov	r0, r4
 643 003a FFF7FEFF 		bl	uart_lld_start_receive
 644              	.LVL60:
 645              		.loc 1 269 0
 646 003e 0123     		movs	r3, #1
 647 0040 A370     		strb	r3, [r4, #2]
 648              		.loc 1 270 0
 649 0042 FFF7FEFF 		bl	dbg_check_unlock
 650              	.LVL61:
 651              	.LBB12:
 652 0046 0023     		movs	r3, #0
 653              	@ 270 "../../../os/hal/src/uart.c" 1
 654 0048 83F31188 		msr     BASEPRI, r3
 655              	@ 0 "" 2
 656              		.thumb
 657 004c 70BD     		pop	{r4, r5, r6, pc}
 658              	.LVL62:
 659              	.L54:
 660              	.LBE12:
 661              		.loc 1 259 0 discriminator 1
 662 004e 40F20000 		movw	r0, #:lower16:.LC14
 663              	.LVL63:
 664 0052 C0F20000 		movt	r0, #:upper16:.LC14
 665 0056 FFF7FEFF 		bl	chDbgPanic
 666              	.LVL64:
 667 005a DAE7     		b	.L55
 668              	.L61:
 669              		.loc 1 265 0 discriminator 1
 670 005c 40F20000 		movw	r0, #:lower16:.LC16
 671 0060 C0F20000 		movt	r0, #:upper16:.LC16
 672 0064 FFF7FEFF 		bl	chDbgPanic
 673              	.LVL65:
 674 0068 E4E7     		b	.L57
 675              		.cfi_endproc
 676              	.LFE126:
ARM GAS  /tmp/ccqURGLh.s 			page 13


 677              		.size	uartStartReceive, .-uartStartReceive
 678 006a 00BFAFF3 		.section	.text.uartStartReceiveI,"ax",%progbits
 678      0080
 679              		.align	2
 680              		.p2align 4,,15
 681              		.global	uartStartReceiveI
 682              		.thumb
 683              		.thumb_func
 684              		.type	uartStartReceiveI, %function
 685              	uartStartReceiveI:
 686              	.LFB127:
 687              		.loc 1 285 0
 688              		.cfi_startproc
 689              		@ args = 0, pretend = 0, frame = 0
 690              		@ frame_needed = 0, uses_anonymous_args = 0
 691              	.LVL66:
 692 0000 70B5     		push	{r4, r5, r6, lr}
 693              		.cfi_def_cfa_offset 16
 694              		.cfi_offset 4, -16
 695              		.cfi_offset 5, -12
 696              		.cfi_offset 6, -8
 697              		.cfi_offset 14, -4
 698              		.loc 1 285 0
 699 0002 0446     		mov	r4, r0
 700 0004 0D46     		mov	r5, r1
 701 0006 1646     		mov	r6, r2
 702              		.loc 1 287 0
 703 0008 FFF7FEFF 		bl	chDbgCheckClassI
 704              	.LVL67:
 705              		.loc 1 288 0
 706 000c 002D     		cmp	r5, #0
 707 000e 18BF     		it	ne
 708 0010 002C     		cmpne	r4, #0
 709 0012 14D0     		beq	.L63
 710              		.loc 1 288 0 is_stmt 0 discriminator 2
 711 0014 9EB1     		cbz	r6, .L63
 712              	.L64:
 713              		.loc 1 290 0 is_stmt 1
 714 0016 2378     		ldrb	r3, [r4]	@ zero_extendqisi2
 715 0018 022B     		cmp	r3, #2
 716 001a 05D0     		beq	.L65
 717              		.loc 1 290 0 is_stmt 0 discriminator 1
 718 001c 40F20000 		movw	r0, #:lower16:.LC18
 719 0020 C0F20000 		movt	r0, #:upper16:.LC18
 720 0024 FFF7FEFF 		bl	chDbgPanic
 721              	.LVL68:
 722              	.L65:
 723              		.loc 1 292 0 is_stmt 1
 724 0028 A378     		ldrb	r3, [r4, #2]	@ zero_extendqisi2
 725 002a 012B     		cmp	r3, #1
 726 002c 0ED0     		beq	.L70
 727              	.L66:
 728              		.loc 1 295 0
 729 002e 2946     		mov	r1, r5
 730 0030 3246     		mov	r2, r6
 731 0032 2046     		mov	r0, r4
 732 0034 FFF7FEFF 		bl	uart_lld_start_receive
ARM GAS  /tmp/ccqURGLh.s 			page 14


 733              	.LVL69:
 734              		.loc 1 296 0
 735 0038 0123     		movs	r3, #1
 736 003a A370     		strb	r3, [r4, #2]
 737 003c 70BD     		pop	{r4, r5, r6, pc}
 738              	.LVL70:
 739              	.L63:
 740              		.loc 1 288 0 discriminator 1
 741 003e 40F20000 		movw	r0, #:lower16:.LC17
 742 0042 C0F20000 		movt	r0, #:upper16:.LC17
 743 0046 FFF7FEFF 		bl	chDbgPanic
 744              	.LVL71:
 745 004a E4E7     		b	.L64
 746              	.L70:
 747              		.loc 1 292 0 discriminator 1
 748 004c 40F20000 		movw	r0, #:lower16:.LC19
 749 0050 C0F20000 		movt	r0, #:upper16:.LC19
 750 0054 FFF7FEFF 		bl	chDbgPanic
 751              	.LVL72:
 752 0058 E9E7     		b	.L66
 753              		.cfi_endproc
 754              	.LFE127:
 755              		.size	uartStartReceiveI, .-uartStartReceiveI
 756 005a 00BFAFF3 		.section	.text.uartStopReceive,"ax",%progbits
 756      0080
 757              		.align	2
 758              		.p2align 4,,15
 759              		.global	uartStopReceive
 760              		.thumb
 761              		.thumb_func
 762              		.type	uartStopReceive, %function
 763              	uartStopReceive:
 764              	.LFB128:
 765              		.loc 1 311 0
 766              		.cfi_startproc
 767              		@ args = 0, pretend = 0, frame = 0
 768              		@ frame_needed = 0, uses_anonymous_args = 0
 769              	.LVL73:
 770 0000 38B5     		push	{r3, r4, r5, lr}
 771              		.cfi_def_cfa_offset 16
 772              		.cfi_offset 3, -16
 773              		.cfi_offset 4, -12
 774              		.cfi_offset 5, -8
 775              		.cfi_offset 14, -4
 776              		.loc 1 314 0
 777 0002 0446     		mov	r4, r0
 778 0004 00B3     		cbz	r0, .L79
 779              	.LVL74:
 780              	.L72:
 781              	.LBB13:
 782              		.loc 1 316 0
 783 0006 2023     		movs	r3, #32
 784              	@ 316 "../../../os/hal/src/uart.c" 1
 785 0008 83F31188 		msr     BASEPRI, r3
 786              	@ 0 "" 2
 787              		.thumb
 788              	.LBE13:
ARM GAS  /tmp/ccqURGLh.s 			page 15


 789 000c FFF7FEFF 		bl	dbg_check_lock
 790              	.LVL75:
 791              		.loc 1 317 0
 792 0010 2378     		ldrb	r3, [r4]	@ zero_extendqisi2
 793 0012 022B     		cmp	r3, #2
 794 0014 05D0     		beq	.L73
 795              		.loc 1 317 0 is_stmt 0 discriminator 1
 796 0016 40F20000 		movw	r0, #:lower16:.LC21
 797 001a C0F20000 		movt	r0, #:upper16:.LC21
 798 001e FFF7FEFF 		bl	chDbgPanic
 799              	.LVL76:
 800              	.L73:
 801              		.loc 1 320 0 is_stmt 1
 802 0022 A378     		ldrb	r3, [r4, #2]	@ zero_extendqisi2
 803 0024 012B     		cmp	r3, #1
 804              		.loc 1 325 0
 805 0026 18BF     		it	ne
 806 0028 0025     		movne	r5, #0
 807              		.loc 1 320 0
 808 002a 06D0     		beq	.L80
 809              	.L74:
 810              	.LVL77:
 811              		.loc 1 326 0
 812 002c FFF7FEFF 		bl	dbg_check_unlock
 813              	.LVL78:
 814              	.LBB14:
 815 0030 0023     		movs	r3, #0
 816              	@ 326 "../../../os/hal/src/uart.c" 1
 817 0032 83F31188 		msr     BASEPRI, r3
 818              	@ 0 "" 2
 819              		.thumb
 820              	.LBE14:
 821              		.loc 1 328 0
 822 0036 2846     		mov	r0, r5
 823 0038 38BD     		pop	{r3, r4, r5, pc}
 824              	.LVL79:
 825              	.L80:
 826              		.loc 1 321 0
 827 003a 2046     		mov	r0, r4
 828 003c FFF7FEFF 		bl	uart_lld_stop_receive
 829              	.LVL80:
 830              		.loc 1 322 0
 831 0040 0023     		movs	r3, #0
 832              		.loc 1 321 0
 833 0042 0546     		mov	r5, r0
 834              	.LVL81:
 835              		.loc 1 322 0
 836 0044 A370     		strb	r3, [r4, #2]
 837 0046 F1E7     		b	.L74
 838              	.LVL82:
 839              	.L79:
 840              		.loc 1 314 0 discriminator 1
 841 0048 40F20000 		movw	r0, #:lower16:.LC20
 842              	.LVL83:
 843 004c C0F20000 		movt	r0, #:upper16:.LC20
 844 0050 FFF7FEFF 		bl	chDbgPanic
 845              	.LVL84:
ARM GAS  /tmp/ccqURGLh.s 			page 16


 846 0054 D7E7     		b	.L72
 847              		.cfi_endproc
 848              	.LFE128:
 849              		.size	uartStopReceive, .-uartStopReceive
 850 0056 00BFAFF3 		.section	.text.uartStopReceiveI,"ax",%progbits
 850      0080AFF3 
 850      0080
 851              		.align	2
 852              		.p2align 4,,15
 853              		.global	uartStopReceiveI
 854              		.thumb
 855              		.thumb_func
 856              		.type	uartStopReceiveI, %function
 857              	uartStopReceiveI:
 858              	.LFB129:
 859              		.loc 1 343 0
 860              		.cfi_startproc
 861              		@ args = 0, pretend = 0, frame = 0
 862              		@ frame_needed = 0, uses_anonymous_args = 0
 863              	.LVL85:
 864 0000 10B5     		push	{r4, lr}
 865              		.cfi_def_cfa_offset 8
 866              		.cfi_offset 4, -8
 867              		.cfi_offset 14, -4
 868              		.loc 1 343 0
 869 0002 0446     		mov	r4, r0
 870              		.loc 1 345 0
 871 0004 FFF7FEFF 		bl	chDbgCheckClassI
 872              	.LVL86:
 873              		.loc 1 346 0
 874 0008 9CB1     		cbz	r4, .L89
 875              	.L82:
 876              		.loc 1 347 0
 877 000a 2378     		ldrb	r3, [r4]	@ zero_extendqisi2
 878 000c 022B     		cmp	r3, #2
 879 000e 05D0     		beq	.L83
 880              		.loc 1 347 0 is_stmt 0 discriminator 1
 881 0010 40F20000 		movw	r0, #:lower16:.LC23
 882 0014 C0F20000 		movt	r0, #:upper16:.LC23
 883 0018 FFF7FEFF 		bl	chDbgPanic
 884              	.LVL87:
 885              	.L83:
 886              		.loc 1 350 0 is_stmt 1
 887 001c A378     		ldrb	r3, [r4, #2]	@ zero_extendqisi2
 888 001e 012B     		cmp	r3, #1
 889 0020 01D0     		beq	.L90
 890              		.loc 1 355 0
 891 0022 0020     		movs	r0, #0
 892              		.loc 1 356 0
 893 0024 10BD     		pop	{r4, pc}
 894              	.LVL88:
 895              	.L90:
 896              	.LBB15:
 897              		.loc 1 351 0
 898 0026 2046     		mov	r0, r4
 899 0028 FFF7FEFF 		bl	uart_lld_stop_receive
 900              	.LVL89:
ARM GAS  /tmp/ccqURGLh.s 			page 17


 901              		.loc 1 352 0
 902 002c 0023     		movs	r3, #0
 903 002e A370     		strb	r3, [r4, #2]
 904              		.loc 1 353 0
 905 0030 10BD     		pop	{r4, pc}
 906              	.LVL90:
 907              	.L89:
 908              	.LBE15:
 909              		.loc 1 346 0 discriminator 1
 910 0032 40F20000 		movw	r0, #:lower16:.LC22
 911 0036 C0F20000 		movt	r0, #:upper16:.LC22
 912 003a FFF7FEFF 		bl	chDbgPanic
 913              	.LVL91:
 914 003e E4E7     		b	.L82
 915              		.cfi_endproc
 916              	.LFE129:
 917              		.size	uartStopReceiveI, .-uartStopReceiveI
 918              		.section	.rodata.str1.4,"aMS",%progbits,1
 919              		.align	2
 920              	.LC0:
 921 0000 22756172 		.ascii	"\"uartStart\"()\000"
 921      74537461 
 921      72742228 
 921      2900
 922 000e 0000     		.space	2
 923              	.LC1:
 924 0010 75617274 		.ascii	"uartStart(), #1\000"
 924      53746172 
 924      7428292C 
 924      20233100 
 925              	.LC2:
 926 0020 22756172 		.ascii	"\"uartStop\"()\000"
 926      7453746F 
 926      70222829 
 926      00
 927 002d 000000   		.space	3
 928              	.LC3:
 929 0030 75617274 		.ascii	"uartStop(), #1\000"
 929      53746F70 
 929      28292C20 
 929      233100
 930 003f 00       		.space	1
 931              	.LC4:
 932 0040 22756172 		.ascii	"\"uartStartSend\"()\000"
 932      74537461 
 932      72745365 
 932      6E642228 
 932      2900
 933 0052 0000     		.space	2
 934              	.LC5:
 935 0054 75617274 		.ascii	"uartStartSend(), #1\000"
 935      53746172 
 935      7453656E 
 935      6428292C 
 935      20233100 
 936              	.LC6:
 937 0068 75617274 		.ascii	"uartStartSend(), #2\000"
ARM GAS  /tmp/ccqURGLh.s 			page 18


 937      53746172 
 937      7453656E 
 937      6428292C 
 937      20233200 
 938              	.LC7:
 939 007c 22756172 		.ascii	"\"uartStartSendI\"()\000"
 939      74537461 
 939      72745365 
 939      6E644922 
 939      282900
 940 008f 00       		.space	1
 941              	.LC8:
 942 0090 75617274 		.ascii	"uartStartSendI(), #1\000"
 942      53746172 
 942      7453656E 
 942      64492829 
 942      2C202331 
 943 00a5 000000   		.space	3
 944              	.LC9:
 945 00a8 75617274 		.ascii	"uartStartSendI(), #2\000"
 945      53746172 
 945      7453656E 
 945      64492829 
 945      2C202332 
 946 00bd 000000   		.space	3
 947              	.LC10:
 948 00c0 22756172 		.ascii	"\"uartStopSend\"()\000"
 948      7453746F 
 948      7053656E 
 948      64222829 
 948      00
 949 00d1 000000   		.space	3
 950              	.LC11:
 951 00d4 75617274 		.ascii	"uartStopSend(), #1\000"
 951      53746F70 
 951      53656E64 
 951      28292C20 
 951      233100
 952 00e7 00       		.space	1
 953              	.LC12:
 954 00e8 22756172 		.ascii	"\"uartStopSendI\"()\000"
 954      7453746F 
 954      7053656E 
 954      64492228 
 954      2900
 955 00fa 0000     		.space	2
 956              	.LC13:
 957 00fc 75617274 		.ascii	"uartStopSendI(), #1\000"
 957      53746F70 
 957      53656E64 
 957      4928292C 
 957      20233100 
 958              	.LC14:
 959 0110 22756172 		.ascii	"\"uartStartReceive\"()\000"
 959      74537461 
 959      72745265 
 959      63656976 
ARM GAS  /tmp/ccqURGLh.s 			page 19


 959      65222829 
 960 0125 000000   		.space	3
 961              	.LC15:
 962 0128 75617274 		.ascii	"uartStartReceive(), #1\000"
 962      53746172 
 962      74526563 
 962      65697665 
 962      28292C20 
 963 013f 00       		.space	1
 964              	.LC16:
 965 0140 75617274 		.ascii	"uartStartReceive(), #2\000"
 965      53746172 
 965      74526563 
 965      65697665 
 965      28292C20 
 966 0157 00       		.space	1
 967              	.LC17:
 968 0158 22756172 		.ascii	"\"uartStartReceiveI\"()\000"
 968      74537461 
 968      72745265 
 968      63656976 
 968      65492228 
 969 016e 0000     		.space	2
 970              	.LC18:
 971 0170 75617274 		.ascii	"uartStartReceiveI(), #1\000"
 971      53746172 
 971      74526563 
 971      65697665 
 971      4928292C 
 972              	.LC19:
 973 0188 75617274 		.ascii	"uartStartReceiveI(), #2\000"
 973      53746172 
 973      74526563 
 973      65697665 
 973      4928292C 
 974              	.LC20:
 975 01a0 22756172 		.ascii	"\"uartStopReceive\"()\000"
 975      7453746F 
 975      70526563 
 975      65697665 
 975      22282900 
 976              	.LC21:
 977 01b4 75617274 		.ascii	"uartStopReceive(), #1\000"
 977      53746F70 
 977      52656365 
 977      69766528 
 977      292C2023 
 978 01ca 0000     		.space	2
 979              	.LC22:
 980 01cc 22756172 		.ascii	"\"uartStopReceiveI\"()\000"
 980      7453746F 
 980      70526563 
 980      65697665 
 980      49222829 
 981 01e1 000000   		.space	3
 982              	.LC23:
 983 01e4 75617274 		.ascii	"uartStopReceiveI(), #1\000"
ARM GAS  /tmp/ccqURGLh.s 			page 20


 983      53746F70 
 983      52656365 
 983      69766549 
 983      28292C20 
 984 01fb 00       		.text
 985              	.Letext0:
 986              		.file 2 "/usr/lib/gcc/arm-none-eabi/4.8.2/include/stddef.h"
 987              		.file 3 "/usr/arm-none-eabi/include/machine/_default_types.h"
 988              		.file 4 "/usr/arm-none-eabi/include/stdint.h"
 989              		.file 5 "../../../os/hal/platforms/STM32F4xx/stm32f4xx.h"
 990              		.file 6 "../../../os/hal/platforms/STM32F4xx/stm32_dma.h"
 991              		.file 7 "../../../os/hal/include/uart.h"
 992              		.file 8 "../../../os/hal/platforms/STM32/USARTv1/uart_lld.h"
 993              		.file 9 "../../../os/kernel/include/chdebug.h"
 994              		.file 10 "../../../os/ports/common/ARMCMx/CMSIS/include/core_cm4.h"
 995              		.section	.debug_info,"",%progbits
 996              	.Ldebug_info0:
 997 0000 CE0C0000 		.4byte	0xcce
 998 0004 0400     		.2byte	0x4
 999 0006 00000000 		.4byte	.Ldebug_abbrev0
 1000 000a 04       		.byte	0x4
 1001 000b 01       		.uleb128 0x1
 1002 000c DC030000 		.4byte	.LASF97
 1003 0010 01       		.byte	0x1
 1004 0011 E9040000 		.4byte	.LASF98
 1005 0015 64010000 		.4byte	.LASF99
 1006 0019 00000000 		.4byte	.Ldebug_ranges0+0
 1007 001d 00000000 		.4byte	0
 1008 0021 00000000 		.4byte	.Ldebug_line0
 1009 0025 02       		.uleb128 0x2
 1010 0026 04       		.byte	0x4
 1011 0027 05       		.byte	0x5
 1012 0028 696E7400 		.ascii	"int\000"
 1013 002c 03       		.uleb128 0x3
 1014 002d 70000000 		.4byte	.LASF2
 1015 0031 02       		.byte	0x2
 1016 0032 D4       		.byte	0xd4
 1017 0033 37000000 		.4byte	0x37
 1018 0037 04       		.uleb128 0x4
 1019 0038 04       		.byte	0x4
 1020 0039 07       		.byte	0x7
 1021 003a E9020000 		.4byte	.LASF0
 1022 003e 04       		.uleb128 0x4
 1023 003f 01       		.byte	0x1
 1024 0040 06       		.byte	0x6
 1025 0041 58010000 		.4byte	.LASF1
 1026 0045 03       		.uleb128 0x3
 1027 0046 1D020000 		.4byte	.LASF3
 1028 004a 03       		.byte	0x3
 1029 004b 1C       		.byte	0x1c
 1030 004c 50000000 		.4byte	0x50
 1031 0050 04       		.uleb128 0x4
 1032 0051 01       		.byte	0x1
 1033 0052 08       		.byte	0x8
 1034 0053 72020000 		.4byte	.LASF4
 1035 0057 04       		.uleb128 0x4
 1036 0058 02       		.byte	0x2
ARM GAS  /tmp/ccqURGLh.s 			page 21


 1037 0059 05       		.byte	0x5
 1038 005a ED000000 		.4byte	.LASF5
 1039 005e 03       		.uleb128 0x3
 1040 005f D4000000 		.4byte	.LASF6
 1041 0063 03       		.byte	0x3
 1042 0064 26       		.byte	0x26
 1043 0065 69000000 		.4byte	0x69
 1044 0069 04       		.uleb128 0x4
 1045 006a 02       		.byte	0x2
 1046 006b 07       		.byte	0x7
 1047 006c 38030000 		.4byte	.LASF7
 1048 0070 03       		.uleb128 0x3
 1049 0071 A0040000 		.4byte	.LASF8
 1050 0075 03       		.byte	0x3
 1051 0076 37       		.byte	0x37
 1052 0077 7B000000 		.4byte	0x7b
 1053 007b 04       		.uleb128 0x4
 1054 007c 04       		.byte	0x4
 1055 007d 05       		.byte	0x5
 1056 007e F6010000 		.4byte	.LASF9
 1057 0082 03       		.uleb128 0x3
 1058 0083 B2000000 		.4byte	.LASF10
 1059 0087 03       		.byte	0x3
 1060 0088 38       		.byte	0x38
 1061 0089 8D000000 		.4byte	0x8d
 1062 008d 04       		.uleb128 0x4
 1063 008e 04       		.byte	0x4
 1064 008f 07       		.byte	0x7
 1065 0090 FF020000 		.4byte	.LASF11
 1066 0094 04       		.uleb128 0x4
 1067 0095 08       		.byte	0x8
 1068 0096 05       		.byte	0x5
 1069 0097 67050000 		.4byte	.LASF12
 1070 009b 04       		.uleb128 0x4
 1071 009c 08       		.byte	0x8
 1072 009d 07       		.byte	0x7
 1073 009e B7020000 		.4byte	.LASF13
 1074 00a2 03       		.uleb128 0x3
 1075 00a3 30010000 		.4byte	.LASF14
 1076 00a7 04       		.byte	0x4
 1077 00a8 2A       		.byte	0x2a
 1078 00a9 45000000 		.4byte	0x45
 1079 00ad 03       		.uleb128 0x3
 1080 00ae F6020000 		.4byte	.LASF15
 1081 00b2 04       		.byte	0x4
 1082 00b3 36       		.byte	0x36
 1083 00b4 5E000000 		.4byte	0x5e
 1084 00b8 03       		.uleb128 0x3
 1085 00b9 65030000 		.4byte	.LASF16
 1086 00bd 04       		.byte	0x4
 1087 00be 41       		.byte	0x41
 1088 00bf 70000000 		.4byte	0x70
 1089 00c3 03       		.uleb128 0x3
 1090 00c4 D6020000 		.4byte	.LASF17
 1091 00c8 04       		.byte	0x4
 1092 00c9 42       		.byte	0x42
 1093 00ca 82000000 		.4byte	0x82
ARM GAS  /tmp/ccqURGLh.s 			page 22


 1094 00ce 04       		.uleb128 0x4
 1095 00cf 01       		.byte	0x1
 1096 00d0 02       		.byte	0x2
 1097 00d1 72030000 		.4byte	.LASF18
 1098 00d5 05       		.uleb128 0x5
 1099 00d6 04       		.byte	0x4
 1100 00d7 06       		.uleb128 0x6
 1101 00d8 C3000000 		.4byte	0xc3
 1102 00dc 04       		.uleb128 0x4
 1103 00dd 04       		.byte	0x4
 1104 00de 07       		.byte	0x7
 1105 00df 80000000 		.4byte	.LASF19
 1106 00e3 07       		.uleb128 0x7
 1107 00e4 04       		.byte	0x4
 1108 00e5 E9000000 		.4byte	0xe9
 1109 00e9 08       		.uleb128 0x8
 1110 00ea EE000000 		.4byte	0xee
 1111 00ee 04       		.uleb128 0x4
 1112 00ef 01       		.byte	0x1
 1113 00f0 08       		.byte	0x8
 1114 00f1 60030000 		.4byte	.LASF20
 1115 00f5 06       		.uleb128 0x6
 1116 00f6 AD000000 		.4byte	0xad
 1117 00fa 06       		.uleb128 0x6
 1118 00fb B8000000 		.4byte	0xb8
 1119 00ff 09       		.uleb128 0x9
 1120 0100 18       		.byte	0x18
 1121 0101 05       		.byte	0x5
 1122 0102 B102     		.2byte	0x2b1
 1123 0104 56010000 		.4byte	0x156
 1124 0108 0A       		.uleb128 0xa
 1125 0109 435200   		.ascii	"CR\000"
 1126 010c 05       		.byte	0x5
 1127 010d B302     		.2byte	0x2b3
 1128 010f D7000000 		.4byte	0xd7
 1129 0113 00       		.byte	0
 1130 0114 0B       		.uleb128 0xb
 1131 0115 79040000 		.4byte	.LASF21
 1132 0119 05       		.byte	0x5
 1133 011a B402     		.2byte	0x2b4
 1134 011c D7000000 		.4byte	0xd7
 1135 0120 04       		.byte	0x4
 1136 0121 0A       		.uleb128 0xa
 1137 0122 50415200 		.ascii	"PAR\000"
 1138 0126 05       		.byte	0x5
 1139 0127 B502     		.2byte	0x2b5
 1140 0129 D7000000 		.4byte	0xd7
 1141 012d 08       		.byte	0x8
 1142 012e 0B       		.uleb128 0xb
 1143 012f 6D030000 		.4byte	.LASF22
 1144 0133 05       		.byte	0x5
 1145 0134 B602     		.2byte	0x2b6
 1146 0136 D7000000 		.4byte	0xd7
 1147 013a 0C       		.byte	0xc
 1148 013b 0B       		.uleb128 0xb
 1149 013c 5B030000 		.4byte	.LASF23
 1150 0140 05       		.byte	0x5
ARM GAS  /tmp/ccqURGLh.s 			page 23


 1151 0141 B702     		.2byte	0x2b7
 1152 0143 D7000000 		.4byte	0xd7
 1153 0147 10       		.byte	0x10
 1154 0148 0A       		.uleb128 0xa
 1155 0149 46435200 		.ascii	"FCR\000"
 1156 014d 05       		.byte	0x5
 1157 014e B802     		.2byte	0x2b8
 1158 0150 D7000000 		.4byte	0xd7
 1159 0154 14       		.byte	0x14
 1160 0155 00       		.byte	0
 1161 0156 0C       		.uleb128 0xc
 1162 0157 49000000 		.4byte	.LASF24
 1163 015b 05       		.byte	0x5
 1164 015c B902     		.2byte	0x2b9
 1165 015e FF000000 		.4byte	0xff
 1166 0162 09       		.uleb128 0x9
 1167 0163 1C       		.byte	0x1c
 1168 0164 05       		.byte	0x5
 1169 0165 2905     		.2byte	0x529
 1170 0167 20020000 		.4byte	0x220
 1171 016b 0A       		.uleb128 0xa
 1172 016c 535200   		.ascii	"SR\000"
 1173 016f 05       		.byte	0x5
 1174 0170 2B05     		.2byte	0x52b
 1175 0172 F5000000 		.4byte	0xf5
 1176 0176 00       		.byte	0
 1177 0177 0B       		.uleb128 0xb
 1178 0178 96030000 		.4byte	.LASF25
 1179 017c 05       		.byte	0x5
 1180 017d 2C05     		.2byte	0x52c
 1181 017f AD000000 		.4byte	0xad
 1182 0183 02       		.byte	0x2
 1183 0184 0A       		.uleb128 0xa
 1184 0185 445200   		.ascii	"DR\000"
 1185 0188 05       		.byte	0x5
 1186 0189 2D05     		.2byte	0x52d
 1187 018b F5000000 		.4byte	0xf5
 1188 018f 04       		.byte	0x4
 1189 0190 0B       		.uleb128 0xb
 1190 0191 A0030000 		.4byte	.LASF26
 1191 0195 05       		.byte	0x5
 1192 0196 2E05     		.2byte	0x52e
 1193 0198 AD000000 		.4byte	0xad
 1194 019c 06       		.byte	0x6
 1195 019d 0A       		.uleb128 0xa
 1196 019e 42525200 		.ascii	"BRR\000"
 1197 01a2 05       		.byte	0x5
 1198 01a3 2F05     		.2byte	0x52f
 1199 01a5 F5000000 		.4byte	0xf5
 1200 01a9 08       		.byte	0x8
 1201 01aa 0B       		.uleb128 0xb
 1202 01ab AA030000 		.4byte	.LASF27
 1203 01af 05       		.byte	0x5
 1204 01b0 3005     		.2byte	0x530
 1205 01b2 AD000000 		.4byte	0xad
 1206 01b6 0A       		.byte	0xa
 1207 01b7 0A       		.uleb128 0xa
ARM GAS  /tmp/ccqURGLh.s 			page 24


 1208 01b8 43523100 		.ascii	"CR1\000"
 1209 01bc 05       		.byte	0x5
 1210 01bd 3105     		.2byte	0x531
 1211 01bf F5000000 		.4byte	0xf5
 1212 01c3 0C       		.byte	0xc
 1213 01c4 0B       		.uleb128 0xb
 1214 01c5 B4030000 		.4byte	.LASF28
 1215 01c9 05       		.byte	0x5
 1216 01ca 3205     		.2byte	0x532
 1217 01cc AD000000 		.4byte	0xad
 1218 01d0 0E       		.byte	0xe
 1219 01d1 0A       		.uleb128 0xa
 1220 01d2 43523200 		.ascii	"CR2\000"
 1221 01d6 05       		.byte	0x5
 1222 01d7 3305     		.2byte	0x533
 1223 01d9 F5000000 		.4byte	0xf5
 1224 01dd 10       		.byte	0x10
 1225 01de 0B       		.uleb128 0xb
 1226 01df BE030000 		.4byte	.LASF29
 1227 01e3 05       		.byte	0x5
 1228 01e4 3405     		.2byte	0x534
 1229 01e6 AD000000 		.4byte	0xad
 1230 01ea 12       		.byte	0x12
 1231 01eb 0A       		.uleb128 0xa
 1232 01ec 43523300 		.ascii	"CR3\000"
 1233 01f0 05       		.byte	0x5
 1234 01f1 3505     		.2byte	0x535
 1235 01f3 F5000000 		.4byte	0xf5
 1236 01f7 14       		.byte	0x14
 1237 01f8 0B       		.uleb128 0xb
 1238 01f9 C8030000 		.4byte	.LASF30
 1239 01fd 05       		.byte	0x5
 1240 01fe 3605     		.2byte	0x536
 1241 0200 AD000000 		.4byte	0xad
 1242 0204 16       		.byte	0x16
 1243 0205 0B       		.uleb128 0xb
 1244 0206 51020000 		.4byte	.LASF31
 1245 020a 05       		.byte	0x5
 1246 020b 3705     		.2byte	0x537
 1247 020d F5000000 		.4byte	0xf5
 1248 0211 18       		.byte	0x18
 1249 0212 0B       		.uleb128 0xb
 1250 0213 D2030000 		.4byte	.LASF32
 1251 0217 05       		.byte	0x5
 1252 0218 3805     		.2byte	0x538
 1253 021a AD000000 		.4byte	0xad
 1254 021e 1A       		.byte	0x1a
 1255 021f 00       		.byte	0
 1256 0220 0C       		.uleb128 0xc
 1257 0221 DF000000 		.4byte	.LASF33
 1258 0225 05       		.byte	0x5
 1259 0226 3905     		.2byte	0x539
 1260 0228 62010000 		.4byte	0x162
 1261 022c 0D       		.uleb128 0xd
 1262 022d 0C       		.byte	0xc
 1263 022e 06       		.byte	0x6
 1264 022f DA       		.byte	0xda
ARM GAS  /tmp/ccqURGLh.s 			page 25


 1265 0230 71020000 		.4byte	0x271
 1266 0234 0E       		.uleb128 0xe
 1267 0235 08020000 		.4byte	.LASF34
 1268 0239 06       		.byte	0x6
 1269 023a DB       		.byte	0xdb
 1270 023b 71020000 		.4byte	0x271
 1271 023f 00       		.byte	0
 1272 0240 0E       		.uleb128 0xe
 1273 0241 54050000 		.4byte	.LASF35
 1274 0245 06       		.byte	0x6
 1275 0246 DC       		.byte	0xdc
 1276 0247 77020000 		.4byte	0x277
 1277 024b 04       		.byte	0x4
 1278 024c 0E       		.uleb128 0xe
 1279 024d 25050000 		.4byte	.LASF36
 1280 0251 06       		.byte	0x6
 1281 0252 DD       		.byte	0xdd
 1282 0253 A2000000 		.4byte	0xa2
 1283 0257 08       		.byte	0x8
 1284 0258 0E       		.uleb128 0xe
 1285 0259 DF020000 		.4byte	.LASF37
 1286 025d 06       		.byte	0x6
 1287 025e DF       		.byte	0xdf
 1288 025f A2000000 		.4byte	0xa2
 1289 0263 09       		.byte	0x9
 1290 0264 0E       		.uleb128 0xe
 1291 0265 38010000 		.4byte	.LASF38
 1292 0269 06       		.byte	0x6
 1293 026a E0       		.byte	0xe0
 1294 026b A2000000 		.4byte	0xa2
 1295 026f 0A       		.byte	0xa
 1296 0270 00       		.byte	0
 1297 0271 07       		.uleb128 0x7
 1298 0272 04       		.byte	0x4
 1299 0273 56010000 		.4byte	0x156
 1300 0277 07       		.uleb128 0x7
 1301 0278 04       		.byte	0x4
 1302 0279 D7000000 		.4byte	0xd7
 1303 027d 03       		.uleb128 0x3
 1304 027e 0C010000 		.4byte	.LASF39
 1305 0282 06       		.byte	0x6
 1306 0283 E1       		.byte	0xe1
 1307 0284 2C020000 		.4byte	0x22c
 1308 0288 0F       		.uleb128 0xf
 1309 0289 01       		.byte	0x1
 1310 028a 07       		.byte	0x7
 1311 028b 48       		.byte	0x48
 1312 028c A3020000 		.4byte	0x2a3
 1313 0290 10       		.uleb128 0x10
 1314 0291 DD040000 		.4byte	.LASF40
 1315 0295 00       		.sleb128 0
 1316 0296 10       		.uleb128 0x10
 1317 0297 39050000 		.4byte	.LASF41
 1318 029b 01       		.sleb128 1
 1319 029c 10       		.uleb128 0x10
 1320 029d 95040000 		.4byte	.LASF42
 1321 02a1 02       		.sleb128 2
ARM GAS  /tmp/ccqURGLh.s 			page 26


 1322 02a2 00       		.byte	0
 1323 02a3 03       		.uleb128 0x3
 1324 02a4 2C030000 		.4byte	.LASF43
 1325 02a8 07       		.byte	0x7
 1326 02a9 4C       		.byte	0x4c
 1327 02aa 88020000 		.4byte	0x288
 1328 02ae 0F       		.uleb128 0xf
 1329 02af 01       		.byte	0x1
 1330 02b0 07       		.byte	0x7
 1331 02b1 51       		.byte	0x51
 1332 02b2 C9020000 		.4byte	0x2c9
 1333 02b6 10       		.uleb128 0x10
 1334 02b7 89030000 		.4byte	.LASF44
 1335 02bb 00       		.sleb128 0
 1336 02bc 10       		.uleb128 0x10
 1337 02bd C3010000 		.4byte	.LASF45
 1338 02c1 01       		.sleb128 1
 1339 02c2 10       		.uleb128 0x10
 1340 02c3 00000000 		.4byte	.LASF46
 1341 02c7 02       		.sleb128 2
 1342 02c8 00       		.byte	0
 1343 02c9 03       		.uleb128 0x3
 1344 02ca 56020000 		.4byte	.LASF47
 1345 02ce 07       		.byte	0x7
 1346 02cf 55       		.byte	0x55
 1347 02d0 AE020000 		.4byte	0x2ae
 1348 02d4 0F       		.uleb128 0xf
 1349 02d5 01       		.byte	0x1
 1350 02d6 07       		.byte	0x7
 1351 02d7 5A       		.byte	0x5a
 1352 02d8 EF020000 		.4byte	0x2ef
 1353 02dc 10       		.uleb128 0x10
 1354 02dd B3040000 		.4byte	.LASF48
 1355 02e1 00       		.sleb128 0
 1356 02e2 10       		.uleb128 0x10
 1357 02e3 3F010000 		.4byte	.LASF49
 1358 02e7 01       		.sleb128 1
 1359 02e8 10       		.uleb128 0x10
 1360 02e9 78030000 		.4byte	.LASF50
 1361 02ed 02       		.sleb128 2
 1362 02ee 00       		.byte	0
 1363 02ef 03       		.uleb128 0x3
 1364 02f0 0F020000 		.4byte	.LASF51
 1365 02f4 07       		.byte	0x7
 1366 02f5 5E       		.byte	0x5e
 1367 02f6 D4020000 		.4byte	0x2d4
 1368 02fa 0C       		.uleb128 0xc
 1369 02fb 17030000 		.4byte	.LASF52
 1370 02ff 08       		.byte	0x8
 1371 0300 FE01     		.2byte	0x1fe
 1372 0302 C3000000 		.4byte	0xc3
 1373 0306 0C       		.uleb128 0xc
 1374 0307 49050000 		.4byte	.LASF53
 1375 030b 08       		.byte	0x8
 1376 030c 0302     		.2byte	0x203
 1377 030e 12030000 		.4byte	0x312
 1378 0312 11       		.uleb128 0x11
ARM GAS  /tmp/ccqURGLh.s 			page 27


 1379 0313 49050000 		.4byte	.LASF53
 1380 0317 1C       		.byte	0x1c
 1381 0318 08       		.byte	0x8
 1382 0319 4B02     		.2byte	0x24b
 1383 031b 95030000 		.4byte	0x395
 1384 031f 0B       		.uleb128 0xb
 1385 0320 5C000000 		.4byte	.LASF54
 1386 0324 08       		.byte	0x8
 1387 0325 4F02     		.2byte	0x24f
 1388 0327 A3020000 		.4byte	0x2a3
 1389 032b 00       		.byte	0
 1390 032c 0B       		.uleb128 0xb
 1391 032d AA000000 		.4byte	.LASF55
 1392 0331 08       		.byte	0x8
 1393 0332 5302     		.2byte	0x253
 1394 0334 C9020000 		.4byte	0x2c9
 1395 0338 01       		.byte	0x1
 1396 0339 0B       		.uleb128 0xb
 1397 033a 41000000 		.4byte	.LASF56
 1398 033e 08       		.byte	0x8
 1399 033f 5702     		.2byte	0x257
 1400 0341 EF020000 		.4byte	0x2ef
 1401 0345 02       		.byte	0x2
 1402 0346 0B       		.uleb128 0xb
 1403 0347 F7000000 		.4byte	.LASF57
 1404 034b 08       		.byte	0x8
 1405 034c 5B02     		.2byte	0x25b
 1406 034e 87040000 		.4byte	0x487
 1407 0352 04       		.byte	0x4
 1408 0353 0B       		.uleb128 0xb
 1409 0354 2C000000 		.4byte	.LASF58
 1410 0358 08       		.byte	0x8
 1411 0359 6302     		.2byte	0x263
 1412 035b 92040000 		.4byte	0x492
 1413 035f 08       		.byte	0x8
 1414 0360 0B       		.uleb128 0xb
 1415 0361 CE020000 		.4byte	.LASF59
 1416 0365 08       		.byte	0x8
 1417 0366 6702     		.2byte	0x267
 1418 0368 C3000000 		.4byte	0xc3
 1419 036c 0C       		.byte	0xc
 1420 036d 0B       		.uleb128 0xb
 1421 036e 31020000 		.4byte	.LASF60
 1422 0372 08       		.byte	0x8
 1423 0373 6B02     		.2byte	0x26b
 1424 0375 98040000 		.4byte	0x498
 1425 0379 10       		.byte	0x10
 1426 037a 0B       		.uleb128 0xb
 1427 037b A2020000 		.4byte	.LASF61
 1428 037f 08       		.byte	0x8
 1429 0380 6F02     		.2byte	0x26f
 1430 0382 98040000 		.4byte	0x498
 1431 0386 14       		.byte	0x14
 1432 0387 0B       		.uleb128 0xb
 1433 0388 0D050000 		.4byte	.LASF62
 1434 038c 08       		.byte	0x8
 1435 038d 7302     		.2byte	0x273
ARM GAS  /tmp/ccqURGLh.s 			page 28


 1436 038f F5000000 		.4byte	0xf5
 1437 0393 18       		.byte	0x18
 1438 0394 00       		.byte	0
 1439 0395 0C       		.uleb128 0xc
 1440 0396 FF010000 		.4byte	.LASF63
 1441 039a 08       		.byte	0x8
 1442 039b 0A02     		.2byte	0x20a
 1443 039d A1030000 		.4byte	0x3a1
 1444 03a1 07       		.uleb128 0x7
 1445 03a2 04       		.byte	0x4
 1446 03a3 A7030000 		.4byte	0x3a7
 1447 03a7 12       		.uleb128 0x12
 1448 03a8 B2030000 		.4byte	0x3b2
 1449 03ac 13       		.uleb128 0x13
 1450 03ad B2030000 		.4byte	0x3b2
 1451 03b1 00       		.byte	0
 1452 03b2 07       		.uleb128 0x7
 1453 03b3 04       		.byte	0x4
 1454 03b4 06030000 		.4byte	0x306
 1455 03b8 0C       		.uleb128 0xc
 1456 03b9 4B030000 		.4byte	.LASF64
 1457 03bd 08       		.byte	0x8
 1458 03be 1202     		.2byte	0x212
 1459 03c0 C4030000 		.4byte	0x3c4
 1460 03c4 07       		.uleb128 0x7
 1461 03c5 04       		.byte	0x4
 1462 03c6 CA030000 		.4byte	0x3ca
 1463 03ca 12       		.uleb128 0x12
 1464 03cb DA030000 		.4byte	0x3da
 1465 03cf 13       		.uleb128 0x13
 1466 03d0 B2030000 		.4byte	0x3b2
 1467 03d4 13       		.uleb128 0x13
 1468 03d5 AD000000 		.4byte	0xad
 1469 03d9 00       		.byte	0
 1470 03da 0C       		.uleb128 0xc
 1471 03db 4E010000 		.4byte	.LASF65
 1472 03df 08       		.byte	0x8
 1473 03e0 1A02     		.2byte	0x21a
 1474 03e2 E6030000 		.4byte	0x3e6
 1475 03e6 07       		.uleb128 0x7
 1476 03e7 04       		.byte	0x4
 1477 03e8 EC030000 		.4byte	0x3ec
 1478 03ec 12       		.uleb128 0x12
 1479 03ed FC030000 		.4byte	0x3fc
 1480 03f1 13       		.uleb128 0x13
 1481 03f2 B2030000 		.4byte	0x3b2
 1482 03f6 13       		.uleb128 0x13
 1483 03f7 FA020000 		.4byte	0x2fa
 1484 03fb 00       		.byte	0
 1485 03fc 09       		.uleb128 0x9
 1486 03fd 20       		.byte	0x20
 1487 03fe 08       		.byte	0x8
 1488 03ff 2002     		.2byte	0x220
 1489 0401 7B040000 		.4byte	0x47b
 1490 0405 0B       		.uleb128 0xb
 1491 0406 CA000000 		.4byte	.LASF66
 1492 040a 08       		.byte	0x8
ARM GAS  /tmp/ccqURGLh.s 			page 29


 1493 040b 2402     		.2byte	0x224
 1494 040d 95030000 		.4byte	0x395
 1495 0411 00       		.byte	0
 1496 0412 0B       		.uleb128 0xb
 1497 0413 27020000 		.4byte	.LASF67
 1498 0417 08       		.byte	0x8
 1499 0418 2802     		.2byte	0x228
 1500 041a 95030000 		.4byte	0x395
 1501 041e 04       		.byte	0x4
 1502 041f 0B       		.uleb128 0xb
 1503 0420 AA040000 		.4byte	.LASF68
 1504 0424 08       		.byte	0x8
 1505 0425 2C02     		.2byte	0x22c
 1506 0427 95030000 		.4byte	0x395
 1507 042b 08       		.byte	0x8
 1508 042c 0B       		.uleb128 0xb
 1509 042d C0040000 		.4byte	.LASF69
 1510 0431 08       		.byte	0x8
 1511 0432 3002     		.2byte	0x230
 1512 0434 B8030000 		.4byte	0x3b8
 1513 0438 0C       		.byte	0xc
 1514 0439 0B       		.uleb128 0xb
 1515 043a 77000000 		.4byte	.LASF70
 1516 043e 08       		.byte	0x8
 1517 043f 3402     		.2byte	0x234
 1518 0441 DA030000 		.4byte	0x3da
 1519 0445 10       		.byte	0x10
 1520 0446 0B       		.uleb128 0xb
 1521 0447 11030000 		.4byte	.LASF71
 1522 044b 08       		.byte	0x8
 1523 044c 3902     		.2byte	0x239
 1524 044e C3000000 		.4byte	0xc3
 1525 0452 14       		.byte	0x14
 1526 0453 0A       		.uleb128 0xa
 1527 0454 63723100 		.ascii	"cr1\000"
 1528 0458 08       		.byte	0x8
 1529 0459 3D02     		.2byte	0x23d
 1530 045b AD000000 		.4byte	0xad
 1531 045f 18       		.byte	0x18
 1532 0460 0A       		.uleb128 0xa
 1533 0461 63723200 		.ascii	"cr2\000"
 1534 0465 08       		.byte	0x8
 1535 0466 4102     		.2byte	0x241
 1536 0468 AD000000 		.4byte	0xad
 1537 046c 1A       		.byte	0x1a
 1538 046d 0A       		.uleb128 0xa
 1539 046e 63723300 		.ascii	"cr3\000"
 1540 0472 08       		.byte	0x8
 1541 0473 4502     		.2byte	0x245
 1542 0475 AD000000 		.4byte	0xad
 1543 0479 1C       		.byte	0x1c
 1544 047a 00       		.byte	0
 1545 047b 0C       		.uleb128 0xc
 1546 047c 9F000000 		.4byte	.LASF72
 1547 0480 08       		.byte	0x8
 1548 0481 4602     		.2byte	0x246
 1549 0483 FC030000 		.4byte	0x3fc
ARM GAS  /tmp/ccqURGLh.s 			page 30


 1550 0487 07       		.uleb128 0x7
 1551 0488 04       		.byte	0x4
 1552 0489 8D040000 		.4byte	0x48d
 1553 048d 08       		.uleb128 0x8
 1554 048e 7B040000 		.4byte	0x47b
 1555 0492 07       		.uleb128 0x7
 1556 0493 04       		.byte	0x4
 1557 0494 20020000 		.4byte	0x220
 1558 0498 07       		.uleb128 0x7
 1559 0499 04       		.byte	0x4
 1560 049a 9E040000 		.4byte	0x49e
 1561 049e 08       		.uleb128 0x8
 1562 049f 7D020000 		.4byte	0x27d
 1563 04a3 14       		.uleb128 0x14
 1564 04a4 23030000 		.4byte	.LASF73
 1565 04a8 01       		.byte	0x1
 1566 04a9 44       		.byte	0x44
 1567 04aa 00000000 		.4byte	.LFB118
 1568 04ae 04000000 		.4byte	.LFE118-.LFB118
 1569 04b2 01       		.uleb128 0x1
 1570 04b3 9C       		.byte	0x9c
 1571 04b4 C2040000 		.4byte	0x4c2
 1572 04b8 15       		.uleb128 0x15
 1573 04b9 04000000 		.4byte	.LVL0
 1574 04bd 1F0C0000 		.4byte	0xc1f
 1575 04c1 00       		.byte	0
 1576 04c2 14       		.uleb128 0x14
 1577 04c3 B4010000 		.4byte	.LASF74
 1578 04c7 01       		.byte	0x1
 1579 04c8 50       		.byte	0x50
 1580 04c9 00000000 		.4byte	.LFB119
 1581 04cd 0E000000 		.4byte	.LFE119-.LFB119
 1582 04d1 01       		.uleb128 0x1
 1583 04d2 9C       		.byte	0x9c
 1584 04d3 E5040000 		.4byte	0x4e5
 1585 04d7 16       		.uleb128 0x16
 1586 04d8 43050000 		.4byte	.LASF76
 1587 04dc 01       		.byte	0x1
 1588 04dd 50       		.byte	0x50
 1589 04de B2030000 		.4byte	0x3b2
 1590 04e2 01       		.uleb128 0x1
 1591 04e3 50       		.byte	0x50
 1592 04e4 00       		.byte	0
 1593 04e5 14       		.uleb128 0x14
 1594 04e6 22000000 		.4byte	.LASF75
 1595 04ea 01       		.byte	0x1
 1596 04eb 64       		.byte	0x64
 1597 04ec 00000000 		.4byte	.LFB120
 1598 04f0 54000000 		.4byte	.LFE120-.LFB120
 1599 04f4 01       		.uleb128 0x1
 1600 04f5 9C       		.byte	0x9c
 1601 04f6 9F050000 		.4byte	0x59f
 1602 04fa 17       		.uleb128 0x17
 1603 04fb 43050000 		.4byte	.LASF76
 1604 04ff 01       		.byte	0x1
 1605 0500 64       		.byte	0x64
 1606 0501 B2030000 		.4byte	0x3b2
ARM GAS  /tmp/ccqURGLh.s 			page 31


 1607 0505 00000000 		.4byte	.LLST0
 1608 0509 17       		.uleb128 0x17
 1609 050a F7000000 		.4byte	.LASF57
 1610 050e 01       		.byte	0x1
 1611 050f 64       		.byte	0x64
 1612 0510 87040000 		.4byte	0x487
 1613 0514 34000000 		.4byte	.LLST1
 1614 0518 18       		.uleb128 0x18
 1615 0519 0E000000 		.4byte	.LBB2
 1616 051d 06000000 		.4byte	.LBE2-.LBB2
 1617 0521 33050000 		.4byte	0x533
 1618 0525 19       		.uleb128 0x19
 1619 0526 746D7000 		.ascii	"tmp\000"
 1620 052a 01       		.byte	0x1
 1621 052b 68       		.byte	0x68
 1622 052c C3000000 		.4byte	0xc3
 1623 0530 01       		.uleb128 0x1
 1624 0531 53       		.byte	0x53
 1625 0532 00       		.byte	0
 1626 0533 18       		.uleb128 0x18
 1627 0534 3E000000 		.4byte	.LBB3
 1628 0538 08000000 		.4byte	.LBE3-.LBB3
 1629 053c 4E050000 		.4byte	0x54e
 1630 0540 19       		.uleb128 0x19
 1631 0541 746D7000 		.ascii	"tmp\000"
 1632 0545 01       		.byte	0x1
 1633 0546 6F       		.byte	0x6f
 1634 0547 C3000000 		.4byte	0xc3
 1635 054b 01       		.uleb128 0x1
 1636 054c 53       		.byte	0x53
 1637 054d 00       		.byte	0
 1638 054e 1A       		.uleb128 0x1a
 1639 054f 18000000 		.4byte	.LVL4
 1640 0553 270C0000 		.4byte	0xc27
 1641 0557 1B       		.uleb128 0x1b
 1642 0558 2E000000 		.4byte	.LVL5
 1643 055c 2E0C0000 		.4byte	0xc2e
 1644 0560 6E050000 		.4byte	0x56e
 1645 0564 1C       		.uleb128 0x1c
 1646 0565 01       		.uleb128 0x1
 1647 0566 50       		.byte	0x50
 1648 0567 05       		.uleb128 0x5
 1649 0568 03       		.byte	0x3
 1650 0569 10000000 		.4byte	.LC1
 1651 056d 00       		.byte	0
 1652 056e 1B       		.uleb128 0x1b
 1653 056f 36000000 		.4byte	.LVL6
 1654 0573 3F0C0000 		.4byte	0xc3f
 1655 0577 82050000 		.4byte	0x582
 1656 057b 1C       		.uleb128 0x1c
 1657 057c 01       		.uleb128 0x1
 1658 057d 50       		.byte	0x50
 1659 057e 02       		.uleb128 0x2
 1660 057f 74       		.byte	0x74
 1661 0580 00       		.sleb128 0
 1662 0581 00       		.byte	0
 1663 0582 1A       		.uleb128 0x1a
ARM GAS  /tmp/ccqURGLh.s 			page 32


 1664 0583 3E000000 		.4byte	.LVL7
 1665 0587 510C0000 		.4byte	0xc51
 1666 058b 1D       		.uleb128 0x1d
 1667 058c 52000000 		.4byte	.LVL10
 1668 0590 2E0C0000 		.4byte	0xc2e
 1669 0594 1C       		.uleb128 0x1c
 1670 0595 01       		.uleb128 0x1
 1671 0596 50       		.byte	0x50
 1672 0597 05       		.uleb128 0x5
 1673 0598 03       		.byte	0x3
 1674 0599 00000000 		.4byte	.LC0
 1675 059d 00       		.byte	0
 1676 059e 00       		.byte	0
 1677 059f 14       		.uleb128 0x14
 1678 05a0 04050000 		.4byte	.LASF77
 1679 05a4 01       		.byte	0x1
 1680 05a5 79       		.byte	0x79
 1681 05a6 00000000 		.4byte	.LFB121
 1682 05aa 50000000 		.4byte	.LFE121-.LFB121
 1683 05ae 01       		.uleb128 0x1
 1684 05af 9C       		.byte	0x9c
 1685 05b0 4A060000 		.4byte	0x64a
 1686 05b4 17       		.uleb128 0x17
 1687 05b5 43050000 		.4byte	.LASF76
 1688 05b9 01       		.byte	0x1
 1689 05ba 79       		.byte	0x79
 1690 05bb B2030000 		.4byte	0x3b2
 1691 05bf 68000000 		.4byte	.LLST2
 1692 05c3 18       		.uleb128 0x18
 1693 05c4 06000000 		.4byte	.LBB4
 1694 05c8 06000000 		.4byte	.LBE4-.LBB4
 1695 05cc DE050000 		.4byte	0x5de
 1696 05d0 19       		.uleb128 0x19
 1697 05d1 746D7000 		.ascii	"tmp\000"
 1698 05d5 01       		.byte	0x1
 1699 05d6 7D       		.byte	0x7d
 1700 05d7 C3000000 		.4byte	0xc3
 1701 05db 01       		.uleb128 0x1
 1702 05dc 53       		.byte	0x53
 1703 05dd 00       		.byte	0
 1704 05de 18       		.uleb128 0x18
 1705 05df 3A000000 		.4byte	.LBB5
 1706 05e3 08000000 		.4byte	.LBE5-.LBB5
 1707 05e7 F9050000 		.4byte	0x5f9
 1708 05eb 19       		.uleb128 0x19
 1709 05ec 746D7000 		.ascii	"tmp\000"
 1710 05f0 01       		.byte	0x1
 1711 05f1 85       		.byte	0x85
 1712 05f2 C3000000 		.4byte	0xc3
 1713 05f6 01       		.uleb128 0x1
 1714 05f7 53       		.byte	0x53
 1715 05f8 00       		.byte	0
 1716 05f9 1A       		.uleb128 0x1a
 1717 05fa 10000000 		.4byte	.LVL13
 1718 05fe 270C0000 		.4byte	0xc27
 1719 0602 1B       		.uleb128 0x1b
 1720 0603 26000000 		.4byte	.LVL14
ARM GAS  /tmp/ccqURGLh.s 			page 33


 1721 0607 2E0C0000 		.4byte	0xc2e
 1722 060b 19060000 		.4byte	0x619
 1723 060f 1C       		.uleb128 0x1c
 1724 0610 01       		.uleb128 0x1
 1725 0611 50       		.byte	0x50
 1726 0612 05       		.uleb128 0x5
 1727 0613 03       		.byte	0x3
 1728 0614 30000000 		.4byte	.LC3
 1729 0618 00       		.byte	0
 1730 0619 1B       		.uleb128 0x1b
 1731 061a 2C000000 		.4byte	.LVL15
 1732 061e 580C0000 		.4byte	0xc58
 1733 0622 2D060000 		.4byte	0x62d
 1734 0626 1C       		.uleb128 0x1c
 1735 0627 01       		.uleb128 0x1
 1736 0628 50       		.byte	0x50
 1737 0629 02       		.uleb128 0x2
 1738 062a 74       		.byte	0x74
 1739 062b 00       		.sleb128 0
 1740 062c 00       		.byte	0
 1741 062d 1A       		.uleb128 0x1a
 1742 062e 3A000000 		.4byte	.LVL16
 1743 0632 510C0000 		.4byte	0xc51
 1744 0636 1D       		.uleb128 0x1d
 1745 0637 4E000000 		.4byte	.LVL19
 1746 063b 2E0C0000 		.4byte	0xc2e
 1747 063f 1C       		.uleb128 0x1c
 1748 0640 01       		.uleb128 0x1
 1749 0641 50       		.byte	0x50
 1750 0642 05       		.uleb128 0x5
 1751 0643 03       		.byte	0x3
 1752 0644 20000000 		.4byte	.LC2
 1753 0648 00       		.byte	0
 1754 0649 00       		.byte	0
 1755 064a 14       		.uleb128 0x14
 1756 064b FE000000 		.4byte	.LASF78
 1757 064f 01       		.byte	0x1
 1758 0650 93       		.byte	0x93
 1759 0651 00000000 		.4byte	.LFB122
 1760 0655 6A000000 		.4byte	.LFE122-.LFB122
 1761 0659 01       		.uleb128 0x1
 1762 065a 9C       		.byte	0x9c
 1763 065b 34070000 		.4byte	0x734
 1764 065f 17       		.uleb128 0x17
 1765 0660 43050000 		.4byte	.LASF76
 1766 0664 01       		.byte	0x1
 1767 0665 93       		.byte	0x93
 1768 0666 B2030000 		.4byte	0x3b2
 1769 066a 9C000000 		.4byte	.LLST3
 1770 066e 1E       		.uleb128 0x1e
 1771 066f 6E00     		.ascii	"n\000"
 1772 0671 01       		.byte	0x1
 1773 0672 93       		.byte	0x93
 1774 0673 2C000000 		.4byte	0x2c
 1775 0677 D0000000 		.4byte	.LLST4
 1776 067b 17       		.uleb128 0x17
 1777 067c 55030000 		.4byte	.LASF79
ARM GAS  /tmp/ccqURGLh.s 			page 34


 1778 0680 01       		.byte	0x1
 1779 0681 93       		.byte	0x93
 1780 0682 34070000 		.4byte	0x734
 1781 0686 04010000 		.4byte	.LLST5
 1782 068a 18       		.uleb128 0x18
 1783 068b 12000000 		.4byte	.LBB6
 1784 068f 06000000 		.4byte	.LBE6-.LBB6
 1785 0693 A5060000 		.4byte	0x6a5
 1786 0697 19       		.uleb128 0x19
 1787 0698 746D7000 		.ascii	"tmp\000"
 1788 069c 01       		.byte	0x1
 1789 069d 98       		.byte	0x98
 1790 069e C3000000 		.4byte	0xc3
 1791 06a2 01       		.uleb128 0x1
 1792 06a3 53       		.byte	0x53
 1793 06a4 00       		.byte	0
 1794 06a5 18       		.uleb128 0x18
 1795 06a6 46000000 		.4byte	.LBB7
 1796 06aa 08000000 		.4byte	.LBE7-.LBB7
 1797 06ae C0060000 		.4byte	0x6c0
 1798 06b2 19       		.uleb128 0x19
 1799 06b3 746D7000 		.ascii	"tmp\000"
 1800 06b7 01       		.byte	0x1
 1801 06b8 A0       		.byte	0xa0
 1802 06b9 C3000000 		.4byte	0xc3
 1803 06bd 01       		.uleb128 0x1
 1804 06be 53       		.byte	0x53
 1805 06bf 00       		.byte	0
 1806 06c0 1A       		.uleb128 0x1a
 1807 06c1 1C000000 		.4byte	.LVL22
 1808 06c5 270C0000 		.4byte	0xc27
 1809 06c9 1B       		.uleb128 0x1b
 1810 06ca 2E000000 		.4byte	.LVL23
 1811 06ce 2E0C0000 		.4byte	0xc2e
 1812 06d2 E0060000 		.4byte	0x6e0
 1813 06d6 1C       		.uleb128 0x1c
 1814 06d7 01       		.uleb128 0x1
 1815 06d8 50       		.byte	0x50
 1816 06d9 05       		.uleb128 0x5
 1817 06da 03       		.byte	0x3
 1818 06db 54000000 		.4byte	.LC5
 1819 06df 00       		.byte	0
 1820 06e0 1B       		.uleb128 0x1b
 1821 06e1 3E000000 		.4byte	.LVL24
 1822 06e5 6A0C0000 		.4byte	0xc6a
 1823 06e9 00070000 		.4byte	0x700
 1824 06ed 1C       		.uleb128 0x1c
 1825 06ee 01       		.uleb128 0x1
 1826 06ef 52       		.byte	0x52
 1827 06f0 02       		.uleb128 0x2
 1828 06f1 76       		.byte	0x76
 1829 06f2 00       		.sleb128 0
 1830 06f3 1C       		.uleb128 0x1c
 1831 06f4 01       		.uleb128 0x1
 1832 06f5 51       		.byte	0x51
 1833 06f6 02       		.uleb128 0x2
 1834 06f7 75       		.byte	0x75
ARM GAS  /tmp/ccqURGLh.s 			page 35


 1835 06f8 00       		.sleb128 0
 1836 06f9 1C       		.uleb128 0x1c
 1837 06fa 01       		.uleb128 0x1
 1838 06fb 50       		.byte	0x50
 1839 06fc 02       		.uleb128 0x2
 1840 06fd 74       		.byte	0x74
 1841 06fe 00       		.sleb128 0
 1842 06ff 00       		.byte	0
 1843 0700 1A       		.uleb128 0x1a
 1844 0701 46000000 		.4byte	.LVL25
 1845 0705 510C0000 		.4byte	0xc51
 1846 0709 1B       		.uleb128 0x1b
 1847 070a 5A000000 		.4byte	.LVL28
 1848 070e 2E0C0000 		.4byte	0xc2e
 1849 0712 20070000 		.4byte	0x720
 1850 0716 1C       		.uleb128 0x1c
 1851 0717 01       		.uleb128 0x1
 1852 0718 50       		.byte	0x50
 1853 0719 05       		.uleb128 0x5
 1854 071a 03       		.byte	0x3
 1855 071b 40000000 		.4byte	.LC4
 1856 071f 00       		.byte	0
 1857 0720 1D       		.uleb128 0x1d
 1858 0721 68000000 		.4byte	.LVL29
 1859 0725 2E0C0000 		.4byte	0xc2e
 1860 0729 1C       		.uleb128 0x1c
 1861 072a 01       		.uleb128 0x1
 1862 072b 50       		.byte	0x50
 1863 072c 05       		.uleb128 0x5
 1864 072d 03       		.byte	0x3
 1865 072e 68000000 		.4byte	.LC6
 1866 0732 00       		.byte	0
 1867 0733 00       		.byte	0
 1868 0734 07       		.uleb128 0x7
 1869 0735 04       		.byte	0x4
 1870 0736 3A070000 		.4byte	0x73a
 1871 073a 1F       		.uleb128 0x1f
 1872 073b 14       		.uleb128 0x14
 1873 073c 32000000 		.4byte	.LASF80
 1874 0740 01       		.byte	0x1
 1875 0741 AF       		.byte	0xaf
 1876 0742 00000000 		.4byte	.LFB123
 1877 0746 5A000000 		.4byte	.LFE123-.LFB123
 1878 074a 01       		.uleb128 0x1
 1879 074b 9C       		.byte	0x9c
 1880 074c E6070000 		.4byte	0x7e6
 1881 0750 17       		.uleb128 0x17
 1882 0751 43050000 		.4byte	.LASF76
 1883 0755 01       		.byte	0x1
 1884 0756 AF       		.byte	0xaf
 1885 0757 B2030000 		.4byte	0x3b2
 1886 075b 38010000 		.4byte	.LLST6
 1887 075f 1E       		.uleb128 0x1e
 1888 0760 6E00     		.ascii	"n\000"
 1889 0762 01       		.byte	0x1
 1890 0763 AF       		.byte	0xaf
 1891 0764 2C000000 		.4byte	0x2c
ARM GAS  /tmp/ccqURGLh.s 			page 36


 1892 0768 56010000 		.4byte	.LLST7
 1893 076c 17       		.uleb128 0x17
 1894 076d 55030000 		.4byte	.LASF79
 1895 0771 01       		.byte	0x1
 1896 0772 AF       		.byte	0xaf
 1897 0773 34070000 		.4byte	0x734
 1898 0777 74010000 		.4byte	.LLST8
 1899 077b 1A       		.uleb128 0x1a
 1900 077c 0C000000 		.4byte	.LVL31
 1901 0780 860C0000 		.4byte	0xc86
 1902 0784 1B       		.uleb128 0x1b
 1903 0785 28000000 		.4byte	.LVL32
 1904 0789 2E0C0000 		.4byte	0xc2e
 1905 078d 9B070000 		.4byte	0x79b
 1906 0791 1C       		.uleb128 0x1c
 1907 0792 01       		.uleb128 0x1
 1908 0793 50       		.byte	0x50
 1909 0794 05       		.uleb128 0x5
 1910 0795 03       		.byte	0x3
 1911 0796 90000000 		.4byte	.LC8
 1912 079a 00       		.byte	0
 1913 079b 1B       		.uleb128 0x1b
 1914 079c 38000000 		.4byte	.LVL33
 1915 07a0 6A0C0000 		.4byte	0xc6a
 1916 07a4 BB070000 		.4byte	0x7bb
 1917 07a8 1C       		.uleb128 0x1c
 1918 07a9 01       		.uleb128 0x1
 1919 07aa 52       		.byte	0x52
 1920 07ab 02       		.uleb128 0x2
 1921 07ac 76       		.byte	0x76
 1922 07ad 00       		.sleb128 0
 1923 07ae 1C       		.uleb128 0x1c
 1924 07af 01       		.uleb128 0x1
 1925 07b0 51       		.byte	0x51
 1926 07b1 02       		.uleb128 0x2
 1927 07b2 75       		.byte	0x75
 1928 07b3 00       		.sleb128 0
 1929 07b4 1C       		.uleb128 0x1c
 1930 07b5 01       		.uleb128 0x1
 1931 07b6 50       		.byte	0x50
 1932 07b7 02       		.uleb128 0x2
 1933 07b8 74       		.byte	0x74
 1934 07b9 00       		.sleb128 0
 1935 07ba 00       		.byte	0
 1936 07bb 1B       		.uleb128 0x1b
 1937 07bc 4A000000 		.4byte	.LVL35
 1938 07c0 2E0C0000 		.4byte	0xc2e
 1939 07c4 D2070000 		.4byte	0x7d2
 1940 07c8 1C       		.uleb128 0x1c
 1941 07c9 01       		.uleb128 0x1
 1942 07ca 50       		.byte	0x50
 1943 07cb 05       		.uleb128 0x5
 1944 07cc 03       		.byte	0x3
 1945 07cd 7C000000 		.4byte	.LC7
 1946 07d1 00       		.byte	0
 1947 07d2 1D       		.uleb128 0x1d
 1948 07d3 58000000 		.4byte	.LVL36
ARM GAS  /tmp/ccqURGLh.s 			page 37


 1949 07d7 2E0C0000 		.4byte	0xc2e
 1950 07db 1C       		.uleb128 0x1c
 1951 07dc 01       		.uleb128 0x1
 1952 07dd 50       		.byte	0x50
 1953 07de 05       		.uleb128 0x5
 1954 07df 03       		.byte	0x3
 1955 07e0 A8000000 		.4byte	.LC9
 1956 07e4 00       		.byte	0
 1957 07e5 00       		.byte	0
 1958 07e6 20       		.uleb128 0x20
 1959 07e7 BD000000 		.4byte	.LASF81
 1960 07eb 01       		.byte	0x1
 1961 07ec C9       		.byte	0xc9
 1962 07ed 2C000000 		.4byte	0x2c
 1963 07f1 00000000 		.4byte	.LFB124
 1964 07f5 56000000 		.4byte	.LFE124-.LFB124
 1965 07f9 01       		.uleb128 0x1
 1966 07fa 9C       		.byte	0x9c
 1967 07fb A2080000 		.4byte	0x8a2
 1968 07ff 17       		.uleb128 0x17
 1969 0800 43050000 		.4byte	.LASF76
 1970 0804 01       		.byte	0x1
 1971 0805 C9       		.byte	0xc9
 1972 0806 B2030000 		.4byte	0x3b2
 1973 080a 92010000 		.4byte	.LLST9
 1974 080e 21       		.uleb128 0x21
 1975 080f 6E00     		.ascii	"n\000"
 1976 0811 01       		.byte	0x1
 1977 0812 CA       		.byte	0xca
 1978 0813 2C000000 		.4byte	0x2c
 1979 0817 C6010000 		.4byte	.LLST10
 1980 081b 18       		.uleb128 0x18
 1981 081c 06000000 		.4byte	.LBB8
 1982 0820 06000000 		.4byte	.LBE8-.LBB8
 1983 0824 36080000 		.4byte	0x836
 1984 0828 19       		.uleb128 0x19
 1985 0829 746D7000 		.ascii	"tmp\000"
 1986 082d 01       		.byte	0x1
 1987 082e CE       		.byte	0xce
 1988 082f C3000000 		.4byte	0xc3
 1989 0833 01       		.uleb128 0x1
 1990 0834 53       		.byte	0x53
 1991 0835 00       		.byte	0
 1992 0836 18       		.uleb128 0x18
 1993 0837 30000000 		.4byte	.LBB9
 1994 083b 06000000 		.4byte	.LBE9-.LBB9
 1995 083f 51080000 		.4byte	0x851
 1996 0843 19       		.uleb128 0x19
 1997 0844 746D7000 		.ascii	"tmp\000"
 1998 0848 01       		.byte	0x1
 1999 0849 D7       		.byte	0xd7
 2000 084a C3000000 		.4byte	0xc3
 2001 084e 01       		.uleb128 0x1
 2002 084f 53       		.byte	0x53
 2003 0850 00       		.byte	0
 2004 0851 1A       		.uleb128 0x1a
 2005 0852 10000000 		.4byte	.LVL39
ARM GAS  /tmp/ccqURGLh.s 			page 38


 2006 0856 270C0000 		.4byte	0xc27
 2007 085a 1B       		.uleb128 0x1b
 2008 085b 22000000 		.4byte	.LVL40
 2009 085f 2E0C0000 		.4byte	0xc2e
 2010 0863 71080000 		.4byte	0x871
 2011 0867 1C       		.uleb128 0x1c
 2012 0868 01       		.uleb128 0x1
 2013 0869 50       		.byte	0x50
 2014 086a 05       		.uleb128 0x5
 2015 086b 03       		.byte	0x3
 2016 086c D4000000 		.4byte	.LC11
 2017 0870 00       		.byte	0
 2018 0871 1A       		.uleb128 0x1a
 2019 0872 30000000 		.4byte	.LVL42
 2020 0876 510C0000 		.4byte	0xc51
 2021 087a 1B       		.uleb128 0x1b
 2022 087b 40000000 		.4byte	.LVL44
 2023 087f 8D0C0000 		.4byte	0xc8d
 2024 0883 8E080000 		.4byte	0x88e
 2025 0887 1C       		.uleb128 0x1c
 2026 0888 01       		.uleb128 0x1
 2027 0889 50       		.byte	0x50
 2028 088a 02       		.uleb128 0x2
 2029 088b 74       		.byte	0x74
 2030 088c 00       		.sleb128 0
 2031 088d 00       		.byte	0
 2032 088e 1D       		.uleb128 0x1d
 2033 088f 54000000 		.4byte	.LVL48
 2034 0893 2E0C0000 		.4byte	0xc2e
 2035 0897 1C       		.uleb128 0x1c
 2036 0898 01       		.uleb128 0x1
 2037 0899 50       		.byte	0x50
 2038 089a 05       		.uleb128 0x5
 2039 089b 03       		.byte	0x3
 2040 089c C0000000 		.4byte	.LC10
 2041 08a0 00       		.byte	0
 2042 08a1 00       		.byte	0
 2043 08a2 20       		.uleb128 0x20
 2044 08a3 62000000 		.4byte	.LASF82
 2045 08a7 01       		.byte	0x1
 2046 08a8 E8       		.byte	0xe8
 2047 08a9 2C000000 		.4byte	0x2c
 2048 08ad 00000000 		.4byte	.LFB125
 2049 08b1 40000000 		.4byte	.LFE125-.LFB125
 2050 08b5 01       		.uleb128 0x1
 2051 08b6 9C       		.byte	0x9c
 2052 08b7 29090000 		.4byte	0x929
 2053 08bb 17       		.uleb128 0x17
 2054 08bc 43050000 		.4byte	.LASF76
 2055 08c0 01       		.byte	0x1
 2056 08c1 E8       		.byte	0xe8
 2057 08c2 B2030000 		.4byte	0x3b2
 2058 08c6 E4010000 		.4byte	.LLST11
 2059 08ca 18       		.uleb128 0x18
 2060 08cb 26000000 		.4byte	.LBB10
 2061 08cf 0C000000 		.4byte	.LBE10-.LBB10
 2062 08d3 F5080000 		.4byte	0x8f5
ARM GAS  /tmp/ccqURGLh.s 			page 39


 2063 08d7 21       		.uleb128 0x21
 2064 08d8 6E00     		.ascii	"n\000"
 2065 08da 01       		.byte	0x1
 2066 08db EF       		.byte	0xef
 2067 08dc 2C000000 		.4byte	0x2c
 2068 08e0 02020000 		.4byte	.LLST12
 2069 08e4 1D       		.uleb128 0x1d
 2070 08e5 2C000000 		.4byte	.LVL53
 2071 08e9 8D0C0000 		.4byte	0xc8d
 2072 08ed 1C       		.uleb128 0x1c
 2073 08ee 01       		.uleb128 0x1
 2074 08ef 50       		.byte	0x50
 2075 08f0 02       		.uleb128 0x2
 2076 08f1 74       		.byte	0x74
 2077 08f2 00       		.sleb128 0
 2078 08f3 00       		.byte	0
 2079 08f4 00       		.byte	0
 2080 08f5 1A       		.uleb128 0x1a
 2081 08f6 08000000 		.4byte	.LVL50
 2082 08fa 860C0000 		.4byte	0xc86
 2083 08fe 1B       		.uleb128 0x1b
 2084 08ff 1C000000 		.4byte	.LVL51
 2085 0903 2E0C0000 		.4byte	0xc2e
 2086 0907 15090000 		.4byte	0x915
 2087 090b 1C       		.uleb128 0x1c
 2088 090c 01       		.uleb128 0x1
 2089 090d 50       		.byte	0x50
 2090 090e 05       		.uleb128 0x5
 2091 090f 03       		.byte	0x3
 2092 0910 FC000000 		.4byte	.LC13
 2093 0914 00       		.byte	0
 2094 0915 1D       		.uleb128 0x1d
 2095 0916 3E000000 		.4byte	.LVL55
 2096 091a 2E0C0000 		.4byte	0xc2e
 2097 091e 1C       		.uleb128 0x1c
 2098 091f 01       		.uleb128 0x1
 2099 0920 50       		.byte	0x50
 2100 0921 05       		.uleb128 0x5
 2101 0922 03       		.byte	0x3
 2102 0923 E8000000 		.4byte	.LC12
 2103 0927 00       		.byte	0
 2104 0928 00       		.byte	0
 2105 0929 22       		.uleb128 0x22
 2106 092a 1F010000 		.4byte	.LASF83
 2107 092e 01       		.byte	0x1
 2108 092f 0101     		.2byte	0x101
 2109 0931 00000000 		.4byte	.LFB126
 2110 0935 6A000000 		.4byte	.LFE126-.LFB126
 2111 0939 01       		.uleb128 0x1
 2112 093a 9C       		.byte	0x9c
 2113 093b 190A0000 		.4byte	0xa19
 2114 093f 23       		.uleb128 0x23
 2115 0940 43050000 		.4byte	.LASF76
 2116 0944 01       		.byte	0x1
 2117 0945 0101     		.2byte	0x101
 2118 0947 B2030000 		.4byte	0x3b2
 2119 094b 15020000 		.4byte	.LLST13
ARM GAS  /tmp/ccqURGLh.s 			page 40


 2120 094f 24       		.uleb128 0x24
 2121 0950 6E00     		.ascii	"n\000"
 2122 0952 01       		.byte	0x1
 2123 0953 0101     		.2byte	0x101
 2124 0955 2C000000 		.4byte	0x2c
 2125 0959 49020000 		.4byte	.LLST14
 2126 095d 23       		.uleb128 0x23
 2127 095e 0D050000 		.4byte	.LASF62
 2128 0962 01       		.byte	0x1
 2129 0963 0101     		.2byte	0x101
 2130 0965 D5000000 		.4byte	0xd5
 2131 0969 7D020000 		.4byte	.LLST15
 2132 096d 18       		.uleb128 0x18
 2133 096e 12000000 		.4byte	.LBB11
 2134 0972 06000000 		.4byte	.LBE11-.LBB11
 2135 0976 89090000 		.4byte	0x989
 2136 097a 25       		.uleb128 0x25
 2137 097b 746D7000 		.ascii	"tmp\000"
 2138 097f 01       		.byte	0x1
 2139 0980 0601     		.2byte	0x106
 2140 0982 C3000000 		.4byte	0xc3
 2141 0986 01       		.uleb128 0x1
 2142 0987 53       		.byte	0x53
 2143 0988 00       		.byte	0
 2144 0989 18       		.uleb128 0x18
 2145 098a 46000000 		.4byte	.LBB12
 2146 098e 08000000 		.4byte	.LBE12-.LBB12
 2147 0992 A5090000 		.4byte	0x9a5
 2148 0996 25       		.uleb128 0x25
 2149 0997 746D7000 		.ascii	"tmp\000"
 2150 099b 01       		.byte	0x1
 2151 099c 0E01     		.2byte	0x10e
 2152 099e C3000000 		.4byte	0xc3
 2153 09a2 01       		.uleb128 0x1
 2154 09a3 53       		.byte	0x53
 2155 09a4 00       		.byte	0
 2156 09a5 1A       		.uleb128 0x1a
 2157 09a6 1C000000 		.4byte	.LVL58
 2158 09aa 270C0000 		.4byte	0xc27
 2159 09ae 1B       		.uleb128 0x1b
 2160 09af 2E000000 		.4byte	.LVL59
 2161 09b3 2E0C0000 		.4byte	0xc2e
 2162 09b7 C5090000 		.4byte	0x9c5
 2163 09bb 1C       		.uleb128 0x1c
 2164 09bc 01       		.uleb128 0x1
 2165 09bd 50       		.byte	0x50
 2166 09be 05       		.uleb128 0x5
 2167 09bf 03       		.byte	0x3
 2168 09c0 28010000 		.4byte	.LC15
 2169 09c4 00       		.byte	0
 2170 09c5 1B       		.uleb128 0x1b
 2171 09c6 3E000000 		.4byte	.LVL60
 2172 09ca A30C0000 		.4byte	0xca3
 2173 09ce E5090000 		.4byte	0x9e5
 2174 09d2 1C       		.uleb128 0x1c
 2175 09d3 01       		.uleb128 0x1
 2176 09d4 52       		.byte	0x52
ARM GAS  /tmp/ccqURGLh.s 			page 41


 2177 09d5 02       		.uleb128 0x2
 2178 09d6 76       		.byte	0x76
 2179 09d7 00       		.sleb128 0
 2180 09d8 1C       		.uleb128 0x1c
 2181 09d9 01       		.uleb128 0x1
 2182 09da 51       		.byte	0x51
 2183 09db 02       		.uleb128 0x2
 2184 09dc 75       		.byte	0x75
 2185 09dd 00       		.sleb128 0
 2186 09de 1C       		.uleb128 0x1c
 2187 09df 01       		.uleb128 0x1
 2188 09e0 50       		.byte	0x50
 2189 09e1 02       		.uleb128 0x2
 2190 09e2 74       		.byte	0x74
 2191 09e3 00       		.sleb128 0
 2192 09e4 00       		.byte	0
 2193 09e5 1A       		.uleb128 0x1a
 2194 09e6 46000000 		.4byte	.LVL61
 2195 09ea 510C0000 		.4byte	0xc51
 2196 09ee 1B       		.uleb128 0x1b
 2197 09ef 5A000000 		.4byte	.LVL64
 2198 09f3 2E0C0000 		.4byte	0xc2e
 2199 09f7 050A0000 		.4byte	0xa05
 2200 09fb 1C       		.uleb128 0x1c
 2201 09fc 01       		.uleb128 0x1
 2202 09fd 50       		.byte	0x50
 2203 09fe 05       		.uleb128 0x5
 2204 09ff 03       		.byte	0x3
 2205 0a00 10010000 		.4byte	.LC14
 2206 0a04 00       		.byte	0
 2207 0a05 1D       		.uleb128 0x1d
 2208 0a06 68000000 		.4byte	.LVL65
 2209 0a0a 2E0C0000 		.4byte	0xc2e
 2210 0a0e 1C       		.uleb128 0x1c
 2211 0a0f 01       		.uleb128 0x1
 2212 0a10 50       		.byte	0x50
 2213 0a11 05       		.uleb128 0x5
 2214 0a12 03       		.byte	0x3
 2215 0a13 40010000 		.4byte	.LC16
 2216 0a17 00       		.byte	0
 2217 0a18 00       		.byte	0
 2218 0a19 22       		.uleb128 0x22
 2219 0a1a 13050000 		.4byte	.LASF84
 2220 0a1e 01       		.byte	0x1
 2221 0a1f 1D01     		.2byte	0x11d
 2222 0a21 00000000 		.4byte	.LFB127
 2223 0a25 5A000000 		.4byte	.LFE127-.LFB127
 2224 0a29 01       		.uleb128 0x1
 2225 0a2a 9C       		.byte	0x9c
 2226 0a2b C80A0000 		.4byte	0xac8
 2227 0a2f 23       		.uleb128 0x23
 2228 0a30 43050000 		.4byte	.LASF76
 2229 0a34 01       		.byte	0x1
 2230 0a35 1D01     		.2byte	0x11d
 2231 0a37 B2030000 		.4byte	0x3b2
 2232 0a3b B1020000 		.4byte	.LLST16
 2233 0a3f 24       		.uleb128 0x24
ARM GAS  /tmp/ccqURGLh.s 			page 42


 2234 0a40 6E00     		.ascii	"n\000"
 2235 0a42 01       		.byte	0x1
 2236 0a43 1D01     		.2byte	0x11d
 2237 0a45 2C000000 		.4byte	0x2c
 2238 0a49 CF020000 		.4byte	.LLST17
 2239 0a4d 23       		.uleb128 0x23
 2240 0a4e 0D050000 		.4byte	.LASF62
 2241 0a52 01       		.byte	0x1
 2242 0a53 1D01     		.2byte	0x11d
 2243 0a55 D5000000 		.4byte	0xd5
 2244 0a59 ED020000 		.4byte	.LLST18
 2245 0a5d 1A       		.uleb128 0x1a
 2246 0a5e 0C000000 		.4byte	.LVL67
 2247 0a62 860C0000 		.4byte	0xc86
 2248 0a66 1B       		.uleb128 0x1b
 2249 0a67 28000000 		.4byte	.LVL68
 2250 0a6b 2E0C0000 		.4byte	0xc2e
 2251 0a6f 7D0A0000 		.4byte	0xa7d
 2252 0a73 1C       		.uleb128 0x1c
 2253 0a74 01       		.uleb128 0x1
 2254 0a75 50       		.byte	0x50
 2255 0a76 05       		.uleb128 0x5
 2256 0a77 03       		.byte	0x3
 2257 0a78 70010000 		.4byte	.LC18
 2258 0a7c 00       		.byte	0
 2259 0a7d 1B       		.uleb128 0x1b
 2260 0a7e 38000000 		.4byte	.LVL69
 2261 0a82 A30C0000 		.4byte	0xca3
 2262 0a86 9D0A0000 		.4byte	0xa9d
 2263 0a8a 1C       		.uleb128 0x1c
 2264 0a8b 01       		.uleb128 0x1
 2265 0a8c 52       		.byte	0x52
 2266 0a8d 02       		.uleb128 0x2
 2267 0a8e 76       		.byte	0x76
 2268 0a8f 00       		.sleb128 0
 2269 0a90 1C       		.uleb128 0x1c
 2270 0a91 01       		.uleb128 0x1
 2271 0a92 51       		.byte	0x51
 2272 0a93 02       		.uleb128 0x2
 2273 0a94 75       		.byte	0x75
 2274 0a95 00       		.sleb128 0
 2275 0a96 1C       		.uleb128 0x1c
 2276 0a97 01       		.uleb128 0x1
 2277 0a98 50       		.byte	0x50
 2278 0a99 02       		.uleb128 0x2
 2279 0a9a 74       		.byte	0x74
 2280 0a9b 00       		.sleb128 0
 2281 0a9c 00       		.byte	0
 2282 0a9d 1B       		.uleb128 0x1b
 2283 0a9e 4A000000 		.4byte	.LVL71
 2284 0aa2 2E0C0000 		.4byte	0xc2e
 2285 0aa6 B40A0000 		.4byte	0xab4
 2286 0aaa 1C       		.uleb128 0x1c
 2287 0aab 01       		.uleb128 0x1
 2288 0aac 50       		.byte	0x50
 2289 0aad 05       		.uleb128 0x5
 2290 0aae 03       		.byte	0x3
ARM GAS  /tmp/ccqURGLh.s 			page 43


 2291 0aaf 58010000 		.4byte	.LC17
 2292 0ab3 00       		.byte	0
 2293 0ab4 1D       		.uleb128 0x1d
 2294 0ab5 58000000 		.4byte	.LVL72
 2295 0ab9 2E0C0000 		.4byte	0xc2e
 2296 0abd 1C       		.uleb128 0x1c
 2297 0abe 01       		.uleb128 0x1
 2298 0abf 50       		.byte	0x50
 2299 0ac0 05       		.uleb128 0x5
 2300 0ac1 03       		.byte	0x3
 2301 0ac2 88010000 		.4byte	.LC19
 2302 0ac6 00       		.byte	0
 2303 0ac7 00       		.byte	0
 2304 0ac8 26       		.uleb128 0x26
 2305 0ac9 E6010000 		.4byte	.LASF85
 2306 0acd 01       		.byte	0x1
 2307 0ace 3701     		.2byte	0x137
 2308 0ad0 2C000000 		.4byte	0x2c
 2309 0ad4 00000000 		.4byte	.LFB128
 2310 0ad8 56000000 		.4byte	.LFE128-.LFB128
 2311 0adc 01       		.uleb128 0x1
 2312 0add 9C       		.byte	0x9c
 2313 0ade 890B0000 		.4byte	0xb89
 2314 0ae2 23       		.uleb128 0x23
 2315 0ae3 43050000 		.4byte	.LASF76
 2316 0ae7 01       		.byte	0x1
 2317 0ae8 3701     		.2byte	0x137
 2318 0aea B2030000 		.4byte	0x3b2
 2319 0aee 0B030000 		.4byte	.LLST19
 2320 0af2 27       		.uleb128 0x27
 2321 0af3 6E00     		.ascii	"n\000"
 2322 0af5 01       		.byte	0x1
 2323 0af6 3801     		.2byte	0x138
 2324 0af8 2C000000 		.4byte	0x2c
 2325 0afc 3F030000 		.4byte	.LLST20
 2326 0b00 18       		.uleb128 0x18
 2327 0b01 06000000 		.4byte	.LBB13
 2328 0b05 06000000 		.4byte	.LBE13-.LBB13
 2329 0b09 1C0B0000 		.4byte	0xb1c
 2330 0b0d 25       		.uleb128 0x25
 2331 0b0e 746D7000 		.ascii	"tmp\000"
 2332 0b12 01       		.byte	0x1
 2333 0b13 3C01     		.2byte	0x13c
 2334 0b15 C3000000 		.4byte	0xc3
 2335 0b19 01       		.uleb128 0x1
 2336 0b1a 53       		.byte	0x53
 2337 0b1b 00       		.byte	0
 2338 0b1c 18       		.uleb128 0x18
 2339 0b1d 30000000 		.4byte	.LBB14
 2340 0b21 06000000 		.4byte	.LBE14-.LBB14
 2341 0b25 380B0000 		.4byte	0xb38
 2342 0b29 25       		.uleb128 0x25
 2343 0b2a 746D7000 		.ascii	"tmp\000"
 2344 0b2e 01       		.byte	0x1
 2345 0b2f 4601     		.2byte	0x146
 2346 0b31 C3000000 		.4byte	0xc3
 2347 0b35 01       		.uleb128 0x1
ARM GAS  /tmp/ccqURGLh.s 			page 44


 2348 0b36 53       		.byte	0x53
 2349 0b37 00       		.byte	0
 2350 0b38 1A       		.uleb128 0x1a
 2351 0b39 10000000 		.4byte	.LVL75
 2352 0b3d 270C0000 		.4byte	0xc27
 2353 0b41 1B       		.uleb128 0x1b
 2354 0b42 22000000 		.4byte	.LVL76
 2355 0b46 2E0C0000 		.4byte	0xc2e
 2356 0b4a 580B0000 		.4byte	0xb58
 2357 0b4e 1C       		.uleb128 0x1c
 2358 0b4f 01       		.uleb128 0x1
 2359 0b50 50       		.byte	0x50
 2360 0b51 05       		.uleb128 0x5
 2361 0b52 03       		.byte	0x3
 2362 0b53 B4010000 		.4byte	.LC21
 2363 0b57 00       		.byte	0
 2364 0b58 1A       		.uleb128 0x1a
 2365 0b59 30000000 		.4byte	.LVL78
 2366 0b5d 510C0000 		.4byte	0xc51
 2367 0b61 1B       		.uleb128 0x1b
 2368 0b62 40000000 		.4byte	.LVL80
 2369 0b66 BF0C0000 		.4byte	0xcbf
 2370 0b6a 750B0000 		.4byte	0xb75
 2371 0b6e 1C       		.uleb128 0x1c
 2372 0b6f 01       		.uleb128 0x1
 2373 0b70 50       		.byte	0x50
 2374 0b71 02       		.uleb128 0x2
 2375 0b72 74       		.byte	0x74
 2376 0b73 00       		.sleb128 0
 2377 0b74 00       		.byte	0
 2378 0b75 1D       		.uleb128 0x1d
 2379 0b76 54000000 		.4byte	.LVL84
 2380 0b7a 2E0C0000 		.4byte	0xc2e
 2381 0b7e 1C       		.uleb128 0x1c
 2382 0b7f 01       		.uleb128 0x1
 2383 0b80 50       		.byte	0x50
 2384 0b81 05       		.uleb128 0x5
 2385 0b82 03       		.byte	0x3
 2386 0b83 A0010000 		.4byte	.LC20
 2387 0b87 00       		.byte	0
 2388 0b88 00       		.byte	0
 2389 0b89 26       		.uleb128 0x26
 2390 0b8a 80020000 		.4byte	.LASF86
 2391 0b8e 01       		.byte	0x1
 2392 0b8f 5701     		.2byte	0x157
 2393 0b91 2C000000 		.4byte	0x2c
 2394 0b95 00000000 		.4byte	.LFB129
 2395 0b99 40000000 		.4byte	.LFE129-.LFB129
 2396 0b9d 01       		.uleb128 0x1
 2397 0b9e 9C       		.byte	0x9c
 2398 0b9f 130C0000 		.4byte	0xc13
 2399 0ba3 23       		.uleb128 0x23
 2400 0ba4 43050000 		.4byte	.LASF76
 2401 0ba8 01       		.byte	0x1
 2402 0ba9 5701     		.2byte	0x157
 2403 0bab B2030000 		.4byte	0x3b2
 2404 0baf 5D030000 		.4byte	.LLST21
ARM GAS  /tmp/ccqURGLh.s 			page 45


 2405 0bb3 18       		.uleb128 0x18
 2406 0bb4 26000000 		.4byte	.LBB15
 2407 0bb8 0C000000 		.4byte	.LBE15-.LBB15
 2408 0bbc DF0B0000 		.4byte	0xbdf
 2409 0bc0 27       		.uleb128 0x27
 2410 0bc1 6E00     		.ascii	"n\000"
 2411 0bc3 01       		.byte	0x1
 2412 0bc4 5F01     		.2byte	0x15f
 2413 0bc6 2C000000 		.4byte	0x2c
 2414 0bca 7B030000 		.4byte	.LLST22
 2415 0bce 1D       		.uleb128 0x1d
 2416 0bcf 2C000000 		.4byte	.LVL89
 2417 0bd3 BF0C0000 		.4byte	0xcbf
 2418 0bd7 1C       		.uleb128 0x1c
 2419 0bd8 01       		.uleb128 0x1
 2420 0bd9 50       		.byte	0x50
 2421 0bda 02       		.uleb128 0x2
 2422 0bdb 74       		.byte	0x74
 2423 0bdc 00       		.sleb128 0
 2424 0bdd 00       		.byte	0
 2425 0bde 00       		.byte	0
 2426 0bdf 1A       		.uleb128 0x1a
 2427 0be0 08000000 		.4byte	.LVL86
 2428 0be4 860C0000 		.4byte	0xc86
 2429 0be8 1B       		.uleb128 0x1b
 2430 0be9 1C000000 		.4byte	.LVL87
 2431 0bed 2E0C0000 		.4byte	0xc2e
 2432 0bf1 FF0B0000 		.4byte	0xbff
 2433 0bf5 1C       		.uleb128 0x1c
 2434 0bf6 01       		.uleb128 0x1
 2435 0bf7 50       		.byte	0x50
 2436 0bf8 05       		.uleb128 0x5
 2437 0bf9 03       		.byte	0x3
 2438 0bfa E4010000 		.4byte	.LC23
 2439 0bfe 00       		.byte	0
 2440 0bff 1D       		.uleb128 0x1d
 2441 0c00 3E000000 		.4byte	.LVL91
 2442 0c04 2E0C0000 		.4byte	0xc2e
 2443 0c08 1C       		.uleb128 0x1c
 2444 0c09 01       		.uleb128 0x1
 2445 0c0a 50       		.byte	0x50
 2446 0c0b 05       		.uleb128 0x5
 2447 0c0c 03       		.byte	0x3
 2448 0c0d CC010000 		.4byte	.LC22
 2449 0c11 00       		.byte	0
 2450 0c12 00       		.byte	0
 2451 0c13 28       		.uleb128 0x28
 2452 0c14 2C050000 		.4byte	.LASF100
 2453 0c18 0A       		.byte	0xa
 2454 0c19 9806     		.2byte	0x698
 2455 0c1b FA000000 		.4byte	0xfa
 2456 0c1f 29       		.uleb128 0x29
 2457 0c20 64020000 		.4byte	.LASF87
 2458 0c24 08       		.byte	0x8
 2459 0c25 9902     		.2byte	0x299
 2460 0c27 2A       		.uleb128 0x2a
 2461 0c28 A8020000 		.4byte	.LASF88
ARM GAS  /tmp/ccqURGLh.s 			page 46


 2462 0c2c 09       		.byte	0x9
 2463 0c2d E7       		.byte	0xe7
 2464 0c2e 2B       		.uleb128 0x2b
 2465 0c2f 46020000 		.4byte	.LASF89
 2466 0c33 09       		.byte	0x9
 2467 0c34 F6       		.byte	0xf6
 2468 0c35 3F0C0000 		.4byte	0xc3f
 2469 0c39 13       		.uleb128 0x13
 2470 0c3a E3000000 		.4byte	0xe3
 2471 0c3e 00       		.byte	0
 2472 0c3f 2C       		.uleb128 0x2c
 2473 0c40 37020000 		.4byte	.LASF90
 2474 0c44 08       		.byte	0x8
 2475 0c45 9A02     		.2byte	0x29a
 2476 0c47 510C0000 		.4byte	0xc51
 2477 0c4b 13       		.uleb128 0x13
 2478 0c4c B2030000 		.4byte	0x3b2
 2479 0c50 00       		.byte	0
 2480 0c51 2A       		.uleb128 0x2a
 2481 0c52 91020000 		.4byte	.LASF91
 2482 0c56 09       		.byte	0x9
 2483 0c57 E8       		.byte	0xe8
 2484 0c58 2C       		.uleb128 0x2c
 2485 0c59 59050000 		.4byte	.LASF92
 2486 0c5d 08       		.byte	0x8
 2487 0c5e 9B02     		.2byte	0x29b
 2488 0c60 6A0C0000 		.4byte	0xc6a
 2489 0c64 13       		.uleb128 0x13
 2490 0c65 B2030000 		.4byte	0x3b2
 2491 0c69 00       		.byte	0
 2492 0c6a 2C       		.uleb128 0x2c
 2493 0c6b D2010000 		.4byte	.LASF93
 2494 0c6f 08       		.byte	0x8
 2495 0c70 9C02     		.2byte	0x29c
 2496 0c72 860C0000 		.4byte	0xc86
 2497 0c76 13       		.uleb128 0x13
 2498 0c77 B2030000 		.4byte	0x3b2
 2499 0c7b 13       		.uleb128 0x13
 2500 0c7c 2C000000 		.4byte	0x2c
 2501 0c80 13       		.uleb128 0x13
 2502 0c81 34070000 		.4byte	0x734
 2503 0c85 00       		.byte	0
 2504 0c86 2A       		.uleb128 0x2a
 2505 0c87 11000000 		.4byte	.LASF94
 2506 0c8b 09       		.byte	0x9
 2507 0c8c ED       		.byte	0xed
 2508 0c8d 2D       		.uleb128 0x2d
 2509 0c8e CA040000 		.4byte	.LASF101
 2510 0c92 08       		.byte	0x8
 2511 0c93 9D02     		.2byte	0x29d
 2512 0c95 2C000000 		.4byte	0x2c
 2513 0c99 A30C0000 		.4byte	0xca3
 2514 0c9d 13       		.uleb128 0x13
 2515 0c9e B2030000 		.4byte	0x3b2
 2516 0ca2 00       		.byte	0
 2517 0ca3 2C       		.uleb128 0x2c
 2518 0ca4 7E040000 		.4byte	.LASF95
ARM GAS  /tmp/ccqURGLh.s 			page 47


 2519 0ca8 08       		.byte	0x8
 2520 0ca9 9E02     		.2byte	0x29e
 2521 0cab BF0C0000 		.4byte	0xcbf
 2522 0caf 13       		.uleb128 0x13
 2523 0cb0 B2030000 		.4byte	0x3b2
 2524 0cb4 13       		.uleb128 0x13
 2525 0cb5 2C000000 		.4byte	0x2c
 2526 0cb9 13       		.uleb128 0x13
 2527 0cba D5000000 		.4byte	0xd5
 2528 0cbe 00       		.byte	0
 2529 0cbf 2E       		.uleb128 0x2e
 2530 0cc0 89000000 		.4byte	.LASF96
 2531 0cc4 08       		.byte	0x8
 2532 0cc5 9F02     		.2byte	0x29f
 2533 0cc7 2C000000 		.4byte	0x2c
 2534 0ccb 13       		.uleb128 0x13
 2535 0ccc B2030000 		.4byte	0x3b2
 2536 0cd0 00       		.byte	0
 2537 0cd1 00       		.byte	0
 2538              		.section	.debug_abbrev,"",%progbits
 2539              	.Ldebug_abbrev0:
 2540 0000 01       		.uleb128 0x1
 2541 0001 11       		.uleb128 0x11
 2542 0002 01       		.byte	0x1
 2543 0003 25       		.uleb128 0x25
 2544 0004 0E       		.uleb128 0xe
 2545 0005 13       		.uleb128 0x13
 2546 0006 0B       		.uleb128 0xb
 2547 0007 03       		.uleb128 0x3
 2548 0008 0E       		.uleb128 0xe
 2549 0009 1B       		.uleb128 0x1b
 2550 000a 0E       		.uleb128 0xe
 2551 000b 55       		.uleb128 0x55
 2552 000c 17       		.uleb128 0x17
 2553 000d 11       		.uleb128 0x11
 2554 000e 01       		.uleb128 0x1
 2555 000f 10       		.uleb128 0x10
 2556 0010 17       		.uleb128 0x17
 2557 0011 00       		.byte	0
 2558 0012 00       		.byte	0
 2559 0013 02       		.uleb128 0x2
 2560 0014 24       		.uleb128 0x24
 2561 0015 00       		.byte	0
 2562 0016 0B       		.uleb128 0xb
 2563 0017 0B       		.uleb128 0xb
 2564 0018 3E       		.uleb128 0x3e
 2565 0019 0B       		.uleb128 0xb
 2566 001a 03       		.uleb128 0x3
 2567 001b 08       		.uleb128 0x8
 2568 001c 00       		.byte	0
 2569 001d 00       		.byte	0
 2570 001e 03       		.uleb128 0x3
 2571 001f 16       		.uleb128 0x16
 2572 0020 00       		.byte	0
 2573 0021 03       		.uleb128 0x3
 2574 0022 0E       		.uleb128 0xe
 2575 0023 3A       		.uleb128 0x3a
ARM GAS  /tmp/ccqURGLh.s 			page 48


 2576 0024 0B       		.uleb128 0xb
 2577 0025 3B       		.uleb128 0x3b
 2578 0026 0B       		.uleb128 0xb
 2579 0027 49       		.uleb128 0x49
 2580 0028 13       		.uleb128 0x13
 2581 0029 00       		.byte	0
 2582 002a 00       		.byte	0
 2583 002b 04       		.uleb128 0x4
 2584 002c 24       		.uleb128 0x24
 2585 002d 00       		.byte	0
 2586 002e 0B       		.uleb128 0xb
 2587 002f 0B       		.uleb128 0xb
 2588 0030 3E       		.uleb128 0x3e
 2589 0031 0B       		.uleb128 0xb
 2590 0032 03       		.uleb128 0x3
 2591 0033 0E       		.uleb128 0xe
 2592 0034 00       		.byte	0
 2593 0035 00       		.byte	0
 2594 0036 05       		.uleb128 0x5
 2595 0037 0F       		.uleb128 0xf
 2596 0038 00       		.byte	0
 2597 0039 0B       		.uleb128 0xb
 2598 003a 0B       		.uleb128 0xb
 2599 003b 00       		.byte	0
 2600 003c 00       		.byte	0
 2601 003d 06       		.uleb128 0x6
 2602 003e 35       		.uleb128 0x35
 2603 003f 00       		.byte	0
 2604 0040 49       		.uleb128 0x49
 2605 0041 13       		.uleb128 0x13
 2606 0042 00       		.byte	0
 2607 0043 00       		.byte	0
 2608 0044 07       		.uleb128 0x7
 2609 0045 0F       		.uleb128 0xf
 2610 0046 00       		.byte	0
 2611 0047 0B       		.uleb128 0xb
 2612 0048 0B       		.uleb128 0xb
 2613 0049 49       		.uleb128 0x49
 2614 004a 13       		.uleb128 0x13
 2615 004b 00       		.byte	0
 2616 004c 00       		.byte	0
 2617 004d 08       		.uleb128 0x8
 2618 004e 26       		.uleb128 0x26
 2619 004f 00       		.byte	0
 2620 0050 49       		.uleb128 0x49
 2621 0051 13       		.uleb128 0x13
 2622 0052 00       		.byte	0
 2623 0053 00       		.byte	0
 2624 0054 09       		.uleb128 0x9
 2625 0055 13       		.uleb128 0x13
 2626 0056 01       		.byte	0x1
 2627 0057 0B       		.uleb128 0xb
 2628 0058 0B       		.uleb128 0xb
 2629 0059 3A       		.uleb128 0x3a
 2630 005a 0B       		.uleb128 0xb
 2631 005b 3B       		.uleb128 0x3b
 2632 005c 05       		.uleb128 0x5
ARM GAS  /tmp/ccqURGLh.s 			page 49


 2633 005d 01       		.uleb128 0x1
 2634 005e 13       		.uleb128 0x13
 2635 005f 00       		.byte	0
 2636 0060 00       		.byte	0
 2637 0061 0A       		.uleb128 0xa
 2638 0062 0D       		.uleb128 0xd
 2639 0063 00       		.byte	0
 2640 0064 03       		.uleb128 0x3
 2641 0065 08       		.uleb128 0x8
 2642 0066 3A       		.uleb128 0x3a
 2643 0067 0B       		.uleb128 0xb
 2644 0068 3B       		.uleb128 0x3b
 2645 0069 05       		.uleb128 0x5
 2646 006a 49       		.uleb128 0x49
 2647 006b 13       		.uleb128 0x13
 2648 006c 38       		.uleb128 0x38
 2649 006d 0B       		.uleb128 0xb
 2650 006e 00       		.byte	0
 2651 006f 00       		.byte	0
 2652 0070 0B       		.uleb128 0xb
 2653 0071 0D       		.uleb128 0xd
 2654 0072 00       		.byte	0
 2655 0073 03       		.uleb128 0x3
 2656 0074 0E       		.uleb128 0xe
 2657 0075 3A       		.uleb128 0x3a
 2658 0076 0B       		.uleb128 0xb
 2659 0077 3B       		.uleb128 0x3b
 2660 0078 05       		.uleb128 0x5
 2661 0079 49       		.uleb128 0x49
 2662 007a 13       		.uleb128 0x13
 2663 007b 38       		.uleb128 0x38
 2664 007c 0B       		.uleb128 0xb
 2665 007d 00       		.byte	0
 2666 007e 00       		.byte	0
 2667 007f 0C       		.uleb128 0xc
 2668 0080 16       		.uleb128 0x16
 2669 0081 00       		.byte	0
 2670 0082 03       		.uleb128 0x3
 2671 0083 0E       		.uleb128 0xe
 2672 0084 3A       		.uleb128 0x3a
 2673 0085 0B       		.uleb128 0xb
 2674 0086 3B       		.uleb128 0x3b
 2675 0087 05       		.uleb128 0x5
 2676 0088 49       		.uleb128 0x49
 2677 0089 13       		.uleb128 0x13
 2678 008a 00       		.byte	0
 2679 008b 00       		.byte	0
 2680 008c 0D       		.uleb128 0xd
 2681 008d 13       		.uleb128 0x13
 2682 008e 01       		.byte	0x1
 2683 008f 0B       		.uleb128 0xb
 2684 0090 0B       		.uleb128 0xb
 2685 0091 3A       		.uleb128 0x3a
 2686 0092 0B       		.uleb128 0xb
 2687 0093 3B       		.uleb128 0x3b
 2688 0094 0B       		.uleb128 0xb
 2689 0095 01       		.uleb128 0x1
ARM GAS  /tmp/ccqURGLh.s 			page 50


 2690 0096 13       		.uleb128 0x13
 2691 0097 00       		.byte	0
 2692 0098 00       		.byte	0
 2693 0099 0E       		.uleb128 0xe
 2694 009a 0D       		.uleb128 0xd
 2695 009b 00       		.byte	0
 2696 009c 03       		.uleb128 0x3
 2697 009d 0E       		.uleb128 0xe
 2698 009e 3A       		.uleb128 0x3a
 2699 009f 0B       		.uleb128 0xb
 2700 00a0 3B       		.uleb128 0x3b
 2701 00a1 0B       		.uleb128 0xb
 2702 00a2 49       		.uleb128 0x49
 2703 00a3 13       		.uleb128 0x13
 2704 00a4 38       		.uleb128 0x38
 2705 00a5 0B       		.uleb128 0xb
 2706 00a6 00       		.byte	0
 2707 00a7 00       		.byte	0
 2708 00a8 0F       		.uleb128 0xf
 2709 00a9 04       		.uleb128 0x4
 2710 00aa 01       		.byte	0x1
 2711 00ab 0B       		.uleb128 0xb
 2712 00ac 0B       		.uleb128 0xb
 2713 00ad 3A       		.uleb128 0x3a
 2714 00ae 0B       		.uleb128 0xb
 2715 00af 3B       		.uleb128 0x3b
 2716 00b0 0B       		.uleb128 0xb
 2717 00b1 01       		.uleb128 0x1
 2718 00b2 13       		.uleb128 0x13
 2719 00b3 00       		.byte	0
 2720 00b4 00       		.byte	0
 2721 00b5 10       		.uleb128 0x10
 2722 00b6 28       		.uleb128 0x28
 2723 00b7 00       		.byte	0
 2724 00b8 03       		.uleb128 0x3
 2725 00b9 0E       		.uleb128 0xe
 2726 00ba 1C       		.uleb128 0x1c
 2727 00bb 0D       		.uleb128 0xd
 2728 00bc 00       		.byte	0
 2729 00bd 00       		.byte	0
 2730 00be 11       		.uleb128 0x11
 2731 00bf 13       		.uleb128 0x13
 2732 00c0 01       		.byte	0x1
 2733 00c1 03       		.uleb128 0x3
 2734 00c2 0E       		.uleb128 0xe
 2735 00c3 0B       		.uleb128 0xb
 2736 00c4 0B       		.uleb128 0xb
 2737 00c5 3A       		.uleb128 0x3a
 2738 00c6 0B       		.uleb128 0xb
 2739 00c7 3B       		.uleb128 0x3b
 2740 00c8 05       		.uleb128 0x5
 2741 00c9 01       		.uleb128 0x1
 2742 00ca 13       		.uleb128 0x13
 2743 00cb 00       		.byte	0
 2744 00cc 00       		.byte	0
 2745 00cd 12       		.uleb128 0x12
 2746 00ce 15       		.uleb128 0x15
ARM GAS  /tmp/ccqURGLh.s 			page 51


 2747 00cf 01       		.byte	0x1
 2748 00d0 27       		.uleb128 0x27
 2749 00d1 19       		.uleb128 0x19
 2750 00d2 01       		.uleb128 0x1
 2751 00d3 13       		.uleb128 0x13
 2752 00d4 00       		.byte	0
 2753 00d5 00       		.byte	0
 2754 00d6 13       		.uleb128 0x13
 2755 00d7 05       		.uleb128 0x5
 2756 00d8 00       		.byte	0
 2757 00d9 49       		.uleb128 0x49
 2758 00da 13       		.uleb128 0x13
 2759 00db 00       		.byte	0
 2760 00dc 00       		.byte	0
 2761 00dd 14       		.uleb128 0x14
 2762 00de 2E       		.uleb128 0x2e
 2763 00df 01       		.byte	0x1
 2764 00e0 3F       		.uleb128 0x3f
 2765 00e1 19       		.uleb128 0x19
 2766 00e2 03       		.uleb128 0x3
 2767 00e3 0E       		.uleb128 0xe
 2768 00e4 3A       		.uleb128 0x3a
 2769 00e5 0B       		.uleb128 0xb
 2770 00e6 3B       		.uleb128 0x3b
 2771 00e7 0B       		.uleb128 0xb
 2772 00e8 27       		.uleb128 0x27
 2773 00e9 19       		.uleb128 0x19
 2774 00ea 11       		.uleb128 0x11
 2775 00eb 01       		.uleb128 0x1
 2776 00ec 12       		.uleb128 0x12
 2777 00ed 06       		.uleb128 0x6
 2778 00ee 40       		.uleb128 0x40
 2779 00ef 18       		.uleb128 0x18
 2780 00f0 9742     		.uleb128 0x2117
 2781 00f2 19       		.uleb128 0x19
 2782 00f3 01       		.uleb128 0x1
 2783 00f4 13       		.uleb128 0x13
 2784 00f5 00       		.byte	0
 2785 00f6 00       		.byte	0
 2786 00f7 15       		.uleb128 0x15
 2787 00f8 898201   		.uleb128 0x4109
 2788 00fb 00       		.byte	0
 2789 00fc 11       		.uleb128 0x11
 2790 00fd 01       		.uleb128 0x1
 2791 00fe 9542     		.uleb128 0x2115
 2792 0100 19       		.uleb128 0x19
 2793 0101 31       		.uleb128 0x31
 2794 0102 13       		.uleb128 0x13
 2795 0103 00       		.byte	0
 2796 0104 00       		.byte	0
 2797 0105 16       		.uleb128 0x16
 2798 0106 05       		.uleb128 0x5
 2799 0107 00       		.byte	0
 2800 0108 03       		.uleb128 0x3
 2801 0109 0E       		.uleb128 0xe
 2802 010a 3A       		.uleb128 0x3a
 2803 010b 0B       		.uleb128 0xb
ARM GAS  /tmp/ccqURGLh.s 			page 52


 2804 010c 3B       		.uleb128 0x3b
 2805 010d 0B       		.uleb128 0xb
 2806 010e 49       		.uleb128 0x49
 2807 010f 13       		.uleb128 0x13
 2808 0110 02       		.uleb128 0x2
 2809 0111 18       		.uleb128 0x18
 2810 0112 00       		.byte	0
 2811 0113 00       		.byte	0
 2812 0114 17       		.uleb128 0x17
 2813 0115 05       		.uleb128 0x5
 2814 0116 00       		.byte	0
 2815 0117 03       		.uleb128 0x3
 2816 0118 0E       		.uleb128 0xe
 2817 0119 3A       		.uleb128 0x3a
 2818 011a 0B       		.uleb128 0xb
 2819 011b 3B       		.uleb128 0x3b
 2820 011c 0B       		.uleb128 0xb
 2821 011d 49       		.uleb128 0x49
 2822 011e 13       		.uleb128 0x13
 2823 011f 02       		.uleb128 0x2
 2824 0120 17       		.uleb128 0x17
 2825 0121 00       		.byte	0
 2826 0122 00       		.byte	0
 2827 0123 18       		.uleb128 0x18
 2828 0124 0B       		.uleb128 0xb
 2829 0125 01       		.byte	0x1
 2830 0126 11       		.uleb128 0x11
 2831 0127 01       		.uleb128 0x1
 2832 0128 12       		.uleb128 0x12
 2833 0129 06       		.uleb128 0x6
 2834 012a 01       		.uleb128 0x1
 2835 012b 13       		.uleb128 0x13
 2836 012c 00       		.byte	0
 2837 012d 00       		.byte	0
 2838 012e 19       		.uleb128 0x19
 2839 012f 34       		.uleb128 0x34
 2840 0130 00       		.byte	0
 2841 0131 03       		.uleb128 0x3
 2842 0132 08       		.uleb128 0x8
 2843 0133 3A       		.uleb128 0x3a
 2844 0134 0B       		.uleb128 0xb
 2845 0135 3B       		.uleb128 0x3b
 2846 0136 0B       		.uleb128 0xb
 2847 0137 49       		.uleb128 0x49
 2848 0138 13       		.uleb128 0x13
 2849 0139 02       		.uleb128 0x2
 2850 013a 18       		.uleb128 0x18
 2851 013b 00       		.byte	0
 2852 013c 00       		.byte	0
 2853 013d 1A       		.uleb128 0x1a
 2854 013e 898201   		.uleb128 0x4109
 2855 0141 00       		.byte	0
 2856 0142 11       		.uleb128 0x11
 2857 0143 01       		.uleb128 0x1
 2858 0144 31       		.uleb128 0x31
 2859 0145 13       		.uleb128 0x13
 2860 0146 00       		.byte	0
ARM GAS  /tmp/ccqURGLh.s 			page 53


 2861 0147 00       		.byte	0
 2862 0148 1B       		.uleb128 0x1b
 2863 0149 898201   		.uleb128 0x4109
 2864 014c 01       		.byte	0x1
 2865 014d 11       		.uleb128 0x11
 2866 014e 01       		.uleb128 0x1
 2867 014f 31       		.uleb128 0x31
 2868 0150 13       		.uleb128 0x13
 2869 0151 01       		.uleb128 0x1
 2870 0152 13       		.uleb128 0x13
 2871 0153 00       		.byte	0
 2872 0154 00       		.byte	0
 2873 0155 1C       		.uleb128 0x1c
 2874 0156 8A8201   		.uleb128 0x410a
 2875 0159 00       		.byte	0
 2876 015a 02       		.uleb128 0x2
 2877 015b 18       		.uleb128 0x18
 2878 015c 9142     		.uleb128 0x2111
 2879 015e 18       		.uleb128 0x18
 2880 015f 00       		.byte	0
 2881 0160 00       		.byte	0
 2882 0161 1D       		.uleb128 0x1d
 2883 0162 898201   		.uleb128 0x4109
 2884 0165 01       		.byte	0x1
 2885 0166 11       		.uleb128 0x11
 2886 0167 01       		.uleb128 0x1
 2887 0168 31       		.uleb128 0x31
 2888 0169 13       		.uleb128 0x13
 2889 016a 00       		.byte	0
 2890 016b 00       		.byte	0
 2891 016c 1E       		.uleb128 0x1e
 2892 016d 05       		.uleb128 0x5
 2893 016e 00       		.byte	0
 2894 016f 03       		.uleb128 0x3
 2895 0170 08       		.uleb128 0x8
 2896 0171 3A       		.uleb128 0x3a
 2897 0172 0B       		.uleb128 0xb
 2898 0173 3B       		.uleb128 0x3b
 2899 0174 0B       		.uleb128 0xb
 2900 0175 49       		.uleb128 0x49
 2901 0176 13       		.uleb128 0x13
 2902 0177 02       		.uleb128 0x2
 2903 0178 17       		.uleb128 0x17
 2904 0179 00       		.byte	0
 2905 017a 00       		.byte	0
 2906 017b 1F       		.uleb128 0x1f
 2907 017c 26       		.uleb128 0x26
 2908 017d 00       		.byte	0
 2909 017e 00       		.byte	0
 2910 017f 00       		.byte	0
 2911 0180 20       		.uleb128 0x20
 2912 0181 2E       		.uleb128 0x2e
 2913 0182 01       		.byte	0x1
 2914 0183 3F       		.uleb128 0x3f
 2915 0184 19       		.uleb128 0x19
 2916 0185 03       		.uleb128 0x3
 2917 0186 0E       		.uleb128 0xe
ARM GAS  /tmp/ccqURGLh.s 			page 54


 2918 0187 3A       		.uleb128 0x3a
 2919 0188 0B       		.uleb128 0xb
 2920 0189 3B       		.uleb128 0x3b
 2921 018a 0B       		.uleb128 0xb
 2922 018b 27       		.uleb128 0x27
 2923 018c 19       		.uleb128 0x19
 2924 018d 49       		.uleb128 0x49
 2925 018e 13       		.uleb128 0x13
 2926 018f 11       		.uleb128 0x11
 2927 0190 01       		.uleb128 0x1
 2928 0191 12       		.uleb128 0x12
 2929 0192 06       		.uleb128 0x6
 2930 0193 40       		.uleb128 0x40
 2931 0194 18       		.uleb128 0x18
 2932 0195 9742     		.uleb128 0x2117
 2933 0197 19       		.uleb128 0x19
 2934 0198 01       		.uleb128 0x1
 2935 0199 13       		.uleb128 0x13
 2936 019a 00       		.byte	0
 2937 019b 00       		.byte	0
 2938 019c 21       		.uleb128 0x21
 2939 019d 34       		.uleb128 0x34
 2940 019e 00       		.byte	0
 2941 019f 03       		.uleb128 0x3
 2942 01a0 08       		.uleb128 0x8
 2943 01a1 3A       		.uleb128 0x3a
 2944 01a2 0B       		.uleb128 0xb
 2945 01a3 3B       		.uleb128 0x3b
 2946 01a4 0B       		.uleb128 0xb
 2947 01a5 49       		.uleb128 0x49
 2948 01a6 13       		.uleb128 0x13
 2949 01a7 02       		.uleb128 0x2
 2950 01a8 17       		.uleb128 0x17
 2951 01a9 00       		.byte	0
 2952 01aa 00       		.byte	0
 2953 01ab 22       		.uleb128 0x22
 2954 01ac 2E       		.uleb128 0x2e
 2955 01ad 01       		.byte	0x1
 2956 01ae 3F       		.uleb128 0x3f
 2957 01af 19       		.uleb128 0x19
 2958 01b0 03       		.uleb128 0x3
 2959 01b1 0E       		.uleb128 0xe
 2960 01b2 3A       		.uleb128 0x3a
 2961 01b3 0B       		.uleb128 0xb
 2962 01b4 3B       		.uleb128 0x3b
 2963 01b5 05       		.uleb128 0x5
 2964 01b6 27       		.uleb128 0x27
 2965 01b7 19       		.uleb128 0x19
 2966 01b8 11       		.uleb128 0x11
 2967 01b9 01       		.uleb128 0x1
 2968 01ba 12       		.uleb128 0x12
 2969 01bb 06       		.uleb128 0x6
 2970 01bc 40       		.uleb128 0x40
 2971 01bd 18       		.uleb128 0x18
 2972 01be 9742     		.uleb128 0x2117
 2973 01c0 19       		.uleb128 0x19
 2974 01c1 01       		.uleb128 0x1
ARM GAS  /tmp/ccqURGLh.s 			page 55


 2975 01c2 13       		.uleb128 0x13
 2976 01c3 00       		.byte	0
 2977 01c4 00       		.byte	0
 2978 01c5 23       		.uleb128 0x23
 2979 01c6 05       		.uleb128 0x5
 2980 01c7 00       		.byte	0
 2981 01c8 03       		.uleb128 0x3
 2982 01c9 0E       		.uleb128 0xe
 2983 01ca 3A       		.uleb128 0x3a
 2984 01cb 0B       		.uleb128 0xb
 2985 01cc 3B       		.uleb128 0x3b
 2986 01cd 05       		.uleb128 0x5
 2987 01ce 49       		.uleb128 0x49
 2988 01cf 13       		.uleb128 0x13
 2989 01d0 02       		.uleb128 0x2
 2990 01d1 17       		.uleb128 0x17
 2991 01d2 00       		.byte	0
 2992 01d3 00       		.byte	0
 2993 01d4 24       		.uleb128 0x24
 2994 01d5 05       		.uleb128 0x5
 2995 01d6 00       		.byte	0
 2996 01d7 03       		.uleb128 0x3
 2997 01d8 08       		.uleb128 0x8
 2998 01d9 3A       		.uleb128 0x3a
 2999 01da 0B       		.uleb128 0xb
 3000 01db 3B       		.uleb128 0x3b
 3001 01dc 05       		.uleb128 0x5
 3002 01dd 49       		.uleb128 0x49
 3003 01de 13       		.uleb128 0x13
 3004 01df 02       		.uleb128 0x2
 3005 01e0 17       		.uleb128 0x17
 3006 01e1 00       		.byte	0
 3007 01e2 00       		.byte	0
 3008 01e3 25       		.uleb128 0x25
 3009 01e4 34       		.uleb128 0x34
 3010 01e5 00       		.byte	0
 3011 01e6 03       		.uleb128 0x3
 3012 01e7 08       		.uleb128 0x8
 3013 01e8 3A       		.uleb128 0x3a
 3014 01e9 0B       		.uleb128 0xb
 3015 01ea 3B       		.uleb128 0x3b
 3016 01eb 05       		.uleb128 0x5
 3017 01ec 49       		.uleb128 0x49
 3018 01ed 13       		.uleb128 0x13
 3019 01ee 02       		.uleb128 0x2
 3020 01ef 18       		.uleb128 0x18
 3021 01f0 00       		.byte	0
 3022 01f1 00       		.byte	0
 3023 01f2 26       		.uleb128 0x26
 3024 01f3 2E       		.uleb128 0x2e
 3025 01f4 01       		.byte	0x1
 3026 01f5 3F       		.uleb128 0x3f
 3027 01f6 19       		.uleb128 0x19
 3028 01f7 03       		.uleb128 0x3
 3029 01f8 0E       		.uleb128 0xe
 3030 01f9 3A       		.uleb128 0x3a
 3031 01fa 0B       		.uleb128 0xb
ARM GAS  /tmp/ccqURGLh.s 			page 56


 3032 01fb 3B       		.uleb128 0x3b
 3033 01fc 05       		.uleb128 0x5
 3034 01fd 27       		.uleb128 0x27
 3035 01fe 19       		.uleb128 0x19
 3036 01ff 49       		.uleb128 0x49
 3037 0200 13       		.uleb128 0x13
 3038 0201 11       		.uleb128 0x11
 3039 0202 01       		.uleb128 0x1
 3040 0203 12       		.uleb128 0x12
 3041 0204 06       		.uleb128 0x6
 3042 0205 40       		.uleb128 0x40
 3043 0206 18       		.uleb128 0x18
 3044 0207 9742     		.uleb128 0x2117
 3045 0209 19       		.uleb128 0x19
 3046 020a 01       		.uleb128 0x1
 3047 020b 13       		.uleb128 0x13
 3048 020c 00       		.byte	0
 3049 020d 00       		.byte	0
 3050 020e 27       		.uleb128 0x27
 3051 020f 34       		.uleb128 0x34
 3052 0210 00       		.byte	0
 3053 0211 03       		.uleb128 0x3
 3054 0212 08       		.uleb128 0x8
 3055 0213 3A       		.uleb128 0x3a
 3056 0214 0B       		.uleb128 0xb
 3057 0215 3B       		.uleb128 0x3b
 3058 0216 05       		.uleb128 0x5
 3059 0217 49       		.uleb128 0x49
 3060 0218 13       		.uleb128 0x13
 3061 0219 02       		.uleb128 0x2
 3062 021a 17       		.uleb128 0x17
 3063 021b 00       		.byte	0
 3064 021c 00       		.byte	0
 3065 021d 28       		.uleb128 0x28
 3066 021e 34       		.uleb128 0x34
 3067 021f 00       		.byte	0
 3068 0220 03       		.uleb128 0x3
 3069 0221 0E       		.uleb128 0xe
 3070 0222 3A       		.uleb128 0x3a
 3071 0223 0B       		.uleb128 0xb
 3072 0224 3B       		.uleb128 0x3b
 3073 0225 05       		.uleb128 0x5
 3074 0226 49       		.uleb128 0x49
 3075 0227 13       		.uleb128 0x13
 3076 0228 3F       		.uleb128 0x3f
 3077 0229 19       		.uleb128 0x19
 3078 022a 3C       		.uleb128 0x3c
 3079 022b 19       		.uleb128 0x19
 3080 022c 00       		.byte	0
 3081 022d 00       		.byte	0
 3082 022e 29       		.uleb128 0x29
 3083 022f 2E       		.uleb128 0x2e
 3084 0230 00       		.byte	0
 3085 0231 3F       		.uleb128 0x3f
 3086 0232 19       		.uleb128 0x19
 3087 0233 03       		.uleb128 0x3
 3088 0234 0E       		.uleb128 0xe
ARM GAS  /tmp/ccqURGLh.s 			page 57


 3089 0235 3A       		.uleb128 0x3a
 3090 0236 0B       		.uleb128 0xb
 3091 0237 3B       		.uleb128 0x3b
 3092 0238 05       		.uleb128 0x5
 3093 0239 27       		.uleb128 0x27
 3094 023a 19       		.uleb128 0x19
 3095 023b 3C       		.uleb128 0x3c
 3096 023c 19       		.uleb128 0x19
 3097 023d 00       		.byte	0
 3098 023e 00       		.byte	0
 3099 023f 2A       		.uleb128 0x2a
 3100 0240 2E       		.uleb128 0x2e
 3101 0241 00       		.byte	0
 3102 0242 3F       		.uleb128 0x3f
 3103 0243 19       		.uleb128 0x19
 3104 0244 03       		.uleb128 0x3
 3105 0245 0E       		.uleb128 0xe
 3106 0246 3A       		.uleb128 0x3a
 3107 0247 0B       		.uleb128 0xb
 3108 0248 3B       		.uleb128 0x3b
 3109 0249 0B       		.uleb128 0xb
 3110 024a 27       		.uleb128 0x27
 3111 024b 19       		.uleb128 0x19
 3112 024c 3C       		.uleb128 0x3c
 3113 024d 19       		.uleb128 0x19
 3114 024e 00       		.byte	0
 3115 024f 00       		.byte	0
 3116 0250 2B       		.uleb128 0x2b
 3117 0251 2E       		.uleb128 0x2e
 3118 0252 01       		.byte	0x1
 3119 0253 3F       		.uleb128 0x3f
 3120 0254 19       		.uleb128 0x19
 3121 0255 03       		.uleb128 0x3
 3122 0256 0E       		.uleb128 0xe
 3123 0257 3A       		.uleb128 0x3a
 3124 0258 0B       		.uleb128 0xb
 3125 0259 3B       		.uleb128 0x3b
 3126 025a 0B       		.uleb128 0xb
 3127 025b 27       		.uleb128 0x27
 3128 025c 19       		.uleb128 0x19
 3129 025d 3C       		.uleb128 0x3c
 3130 025e 19       		.uleb128 0x19
 3131 025f 01       		.uleb128 0x1
 3132 0260 13       		.uleb128 0x13
 3133 0261 00       		.byte	0
 3134 0262 00       		.byte	0
 3135 0263 2C       		.uleb128 0x2c
 3136 0264 2E       		.uleb128 0x2e
 3137 0265 01       		.byte	0x1
 3138 0266 3F       		.uleb128 0x3f
 3139 0267 19       		.uleb128 0x19
 3140 0268 03       		.uleb128 0x3
 3141 0269 0E       		.uleb128 0xe
 3142 026a 3A       		.uleb128 0x3a
 3143 026b 0B       		.uleb128 0xb
 3144 026c 3B       		.uleb128 0x3b
 3145 026d 05       		.uleb128 0x5
ARM GAS  /tmp/ccqURGLh.s 			page 58


 3146 026e 27       		.uleb128 0x27
 3147 026f 19       		.uleb128 0x19
 3148 0270 3C       		.uleb128 0x3c
 3149 0271 19       		.uleb128 0x19
 3150 0272 01       		.uleb128 0x1
 3151 0273 13       		.uleb128 0x13
 3152 0274 00       		.byte	0
 3153 0275 00       		.byte	0
 3154 0276 2D       		.uleb128 0x2d
 3155 0277 2E       		.uleb128 0x2e
 3156 0278 01       		.byte	0x1
 3157 0279 3F       		.uleb128 0x3f
 3158 027a 19       		.uleb128 0x19
 3159 027b 03       		.uleb128 0x3
 3160 027c 0E       		.uleb128 0xe
 3161 027d 3A       		.uleb128 0x3a
 3162 027e 0B       		.uleb128 0xb
 3163 027f 3B       		.uleb128 0x3b
 3164 0280 05       		.uleb128 0x5
 3165 0281 27       		.uleb128 0x27
 3166 0282 19       		.uleb128 0x19
 3167 0283 49       		.uleb128 0x49
 3168 0284 13       		.uleb128 0x13
 3169 0285 3C       		.uleb128 0x3c
 3170 0286 19       		.uleb128 0x19
 3171 0287 01       		.uleb128 0x1
 3172 0288 13       		.uleb128 0x13
 3173 0289 00       		.byte	0
 3174 028a 00       		.byte	0
 3175 028b 2E       		.uleb128 0x2e
 3176 028c 2E       		.uleb128 0x2e
 3177 028d 01       		.byte	0x1
 3178 028e 3F       		.uleb128 0x3f
 3179 028f 19       		.uleb128 0x19
 3180 0290 03       		.uleb128 0x3
 3181 0291 0E       		.uleb128 0xe
 3182 0292 3A       		.uleb128 0x3a
 3183 0293 0B       		.uleb128 0xb
 3184 0294 3B       		.uleb128 0x3b
 3185 0295 05       		.uleb128 0x5
 3186 0296 27       		.uleb128 0x27
 3187 0297 19       		.uleb128 0x19
 3188 0298 49       		.uleb128 0x49
 3189 0299 13       		.uleb128 0x13
 3190 029a 3C       		.uleb128 0x3c
 3191 029b 19       		.uleb128 0x19
 3192 029c 00       		.byte	0
 3193 029d 00       		.byte	0
 3194 029e 00       		.byte	0
 3195              		.section	.debug_loc,"",%progbits
 3196              	.Ldebug_loc0:
 3197              	.LLST0:
 3198 0000 00000000 		.4byte	.LVL2
 3199 0004 0E000000 		.4byte	.LVL3
 3200 0008 0100     		.2byte	0x1
 3201 000a 50       		.byte	0x50
 3202 000b 0E000000 		.4byte	.LVL3
ARM GAS  /tmp/ccqURGLh.s 			page 59


 3203 000f 46000000 		.4byte	.LVL8
 3204 0013 0100     		.2byte	0x1
 3205 0015 54       		.byte	0x54
 3206 0016 46000000 		.4byte	.LVL8
 3207 001a 4A000000 		.4byte	.LVL9
 3208 001e 0100     		.2byte	0x1
 3209 0020 50       		.byte	0x50
 3210 0021 4A000000 		.4byte	.LVL9
 3211 0025 54000000 		.4byte	.LFE120
 3212 0029 0100     		.2byte	0x1
 3213 002b 54       		.byte	0x54
 3214 002c 00000000 		.4byte	0
 3215 0030 00000000 		.4byte	0
 3216              	.LLST1:
 3217 0034 00000000 		.4byte	.LVL2
 3218 0038 0E000000 		.4byte	.LVL3
 3219 003c 0100     		.2byte	0x1
 3220 003e 51       		.byte	0x51
 3221 003f 0E000000 		.4byte	.LVL3
 3222 0043 46000000 		.4byte	.LVL8
 3223 0047 0100     		.2byte	0x1
 3224 0049 55       		.byte	0x55
 3225 004a 46000000 		.4byte	.LVL8
 3226 004e 51000000 		.4byte	.LVL10-1
 3227 0052 0100     		.2byte	0x1
 3228 0054 51       		.byte	0x51
 3229 0055 51000000 		.4byte	.LVL10-1
 3230 0059 54000000 		.4byte	.LFE120
 3231 005d 0100     		.2byte	0x1
 3232 005f 55       		.byte	0x55
 3233 0060 00000000 		.4byte	0
 3234 0064 00000000 		.4byte	0
 3235              	.LLST2:
 3236 0068 00000000 		.4byte	.LVL11
 3237 006c 06000000 		.4byte	.LVL12
 3238 0070 0100     		.2byte	0x1
 3239 0072 50       		.byte	0x50
 3240 0073 06000000 		.4byte	.LVL12
 3241 0077 42000000 		.4byte	.LVL17
 3242 007b 0100     		.2byte	0x1
 3243 007d 54       		.byte	0x54
 3244 007e 42000000 		.4byte	.LVL17
 3245 0082 46000000 		.4byte	.LVL18
 3246 0086 0100     		.2byte	0x1
 3247 0088 50       		.byte	0x50
 3248 0089 46000000 		.4byte	.LVL18
 3249 008d 50000000 		.4byte	.LFE121
 3250 0091 0100     		.2byte	0x1
 3251 0093 54       		.byte	0x54
 3252 0094 00000000 		.4byte	0
 3253 0098 00000000 		.4byte	0
 3254              	.LLST3:
 3255 009c 00000000 		.4byte	.LVL20
 3256 00a0 12000000 		.4byte	.LVL21
 3257 00a4 0100     		.2byte	0x1
 3258 00a6 50       		.byte	0x50
 3259 00a7 12000000 		.4byte	.LVL21
ARM GAS  /tmp/ccqURGLh.s 			page 60


 3260 00ab 4E000000 		.4byte	.LVL26
 3261 00af 0100     		.2byte	0x1
 3262 00b1 54       		.byte	0x54
 3263 00b2 4E000000 		.4byte	.LVL26
 3264 00b6 52000000 		.4byte	.LVL27
 3265 00ba 0100     		.2byte	0x1
 3266 00bc 50       		.byte	0x50
 3267 00bd 52000000 		.4byte	.LVL27
 3268 00c1 6A000000 		.4byte	.LFE122
 3269 00c5 0100     		.2byte	0x1
 3270 00c7 54       		.byte	0x54
 3271 00c8 00000000 		.4byte	0
 3272 00cc 00000000 		.4byte	0
 3273              	.LLST4:
 3274 00d0 00000000 		.4byte	.LVL20
 3275 00d4 12000000 		.4byte	.LVL21
 3276 00d8 0100     		.2byte	0x1
 3277 00da 51       		.byte	0x51
 3278 00db 12000000 		.4byte	.LVL21
 3279 00df 4E000000 		.4byte	.LVL26
 3280 00e3 0100     		.2byte	0x1
 3281 00e5 55       		.byte	0x55
 3282 00e6 4E000000 		.4byte	.LVL26
 3283 00ea 59000000 		.4byte	.LVL28-1
 3284 00ee 0100     		.2byte	0x1
 3285 00f0 51       		.byte	0x51
 3286 00f1 59000000 		.4byte	.LVL28-1
 3287 00f5 6A000000 		.4byte	.LFE122
 3288 00f9 0100     		.2byte	0x1
 3289 00fb 55       		.byte	0x55
 3290 00fc 00000000 		.4byte	0
 3291 0100 00000000 		.4byte	0
 3292              	.LLST5:
 3293 0104 00000000 		.4byte	.LVL20
 3294 0108 12000000 		.4byte	.LVL21
 3295 010c 0100     		.2byte	0x1
 3296 010e 52       		.byte	0x52
 3297 010f 12000000 		.4byte	.LVL21
 3298 0113 4E000000 		.4byte	.LVL26
 3299 0117 0100     		.2byte	0x1
 3300 0119 56       		.byte	0x56
 3301 011a 4E000000 		.4byte	.LVL26
 3302 011e 59000000 		.4byte	.LVL28-1
 3303 0122 0100     		.2byte	0x1
 3304 0124 52       		.byte	0x52
 3305 0125 59000000 		.4byte	.LVL28-1
 3306 0129 6A000000 		.4byte	.LFE122
 3307 012d 0100     		.2byte	0x1
 3308 012f 56       		.byte	0x56
 3309 0130 00000000 		.4byte	0
 3310 0134 00000000 		.4byte	0
 3311              	.LLST6:
 3312 0138 00000000 		.4byte	.LVL30
 3313 013c 0B000000 		.4byte	.LVL31-1
 3314 0140 0100     		.2byte	0x1
 3315 0142 50       		.byte	0x50
 3316 0143 0B000000 		.4byte	.LVL31-1
ARM GAS  /tmp/ccqURGLh.s 			page 61


 3317 0147 5A000000 		.4byte	.LFE123
 3318 014b 0100     		.2byte	0x1
 3319 014d 54       		.byte	0x54
 3320 014e 00000000 		.4byte	0
 3321 0152 00000000 		.4byte	0
 3322              	.LLST7:
 3323 0156 00000000 		.4byte	.LVL30
 3324 015a 0B000000 		.4byte	.LVL31-1
 3325 015e 0100     		.2byte	0x1
 3326 0160 51       		.byte	0x51
 3327 0161 0B000000 		.4byte	.LVL31-1
 3328 0165 5A000000 		.4byte	.LFE123
 3329 0169 0100     		.2byte	0x1
 3330 016b 55       		.byte	0x55
 3331 016c 00000000 		.4byte	0
 3332 0170 00000000 		.4byte	0
 3333              	.LLST8:
 3334 0174 00000000 		.4byte	.LVL30
 3335 0178 0B000000 		.4byte	.LVL31-1
 3336 017c 0100     		.2byte	0x1
 3337 017e 52       		.byte	0x52
 3338 017f 0B000000 		.4byte	.LVL31-1
 3339 0183 5A000000 		.4byte	.LFE123
 3340 0187 0100     		.2byte	0x1
 3341 0189 56       		.byte	0x56
 3342 018a 00000000 		.4byte	0
 3343 018e 00000000 		.4byte	0
 3344              	.LLST9:
 3345 0192 00000000 		.4byte	.LVL37
 3346 0196 06000000 		.4byte	.LVL38
 3347 019a 0100     		.2byte	0x1
 3348 019c 50       		.byte	0x50
 3349 019d 06000000 		.4byte	.LVL38
 3350 01a1 48000000 		.4byte	.LVL46
 3351 01a5 0100     		.2byte	0x1
 3352 01a7 54       		.byte	0x54
 3353 01a8 48000000 		.4byte	.LVL46
 3354 01ac 4C000000 		.4byte	.LVL47
 3355 01b0 0100     		.2byte	0x1
 3356 01b2 50       		.byte	0x50
 3357 01b3 4C000000 		.4byte	.LVL47
 3358 01b7 56000000 		.4byte	.LFE124
 3359 01bb 0100     		.2byte	0x1
 3360 01bd 54       		.byte	0x54
 3361 01be 00000000 		.4byte	0
 3362 01c2 00000000 		.4byte	0
 3363              	.LLST10:
 3364 01c6 2C000000 		.4byte	.LVL41
 3365 01ca 3A000000 		.4byte	.LVL43
 3366 01ce 0100     		.2byte	0x1
 3367 01d0 55       		.byte	0x55
 3368 01d1 44000000 		.4byte	.LVL45
 3369 01d5 48000000 		.4byte	.LVL46
 3370 01d9 0100     		.2byte	0x1
 3371 01db 50       		.byte	0x50
 3372 01dc 00000000 		.4byte	0
 3373 01e0 00000000 		.4byte	0
ARM GAS  /tmp/ccqURGLh.s 			page 62


 3374              	.LLST11:
 3375 01e4 00000000 		.4byte	.LVL49
 3376 01e8 07000000 		.4byte	.LVL50-1
 3377 01ec 0100     		.2byte	0x1
 3378 01ee 50       		.byte	0x50
 3379 01ef 07000000 		.4byte	.LVL50-1
 3380 01f3 40000000 		.4byte	.LFE125
 3381 01f7 0100     		.2byte	0x1
 3382 01f9 54       		.byte	0x54
 3383 01fa 00000000 		.4byte	0
 3384 01fe 00000000 		.4byte	0
 3385              	.LLST12:
 3386 0202 2C000000 		.4byte	.LVL53
 3387 0206 32000000 		.4byte	.LVL54
 3388 020a 0100     		.2byte	0x1
 3389 020c 50       		.byte	0x50
 3390 020d 00000000 		.4byte	0
 3391 0211 00000000 		.4byte	0
 3392              	.LLST13:
 3393 0215 00000000 		.4byte	.LVL56
 3394 0219 12000000 		.4byte	.LVL57
 3395 021d 0100     		.2byte	0x1
 3396 021f 50       		.byte	0x50
 3397 0220 12000000 		.4byte	.LVL57
 3398 0224 4E000000 		.4byte	.LVL62
 3399 0228 0100     		.2byte	0x1
 3400 022a 54       		.byte	0x54
 3401 022b 4E000000 		.4byte	.LVL62
 3402 022f 52000000 		.4byte	.LVL63
 3403 0233 0100     		.2byte	0x1
 3404 0235 50       		.byte	0x50
 3405 0236 52000000 		.4byte	.LVL63
 3406 023a 6A000000 		.4byte	.LFE126
 3407 023e 0100     		.2byte	0x1
 3408 0240 54       		.byte	0x54
 3409 0241 00000000 		.4byte	0
 3410 0245 00000000 		.4byte	0
 3411              	.LLST14:
 3412 0249 00000000 		.4byte	.LVL56
 3413 024d 12000000 		.4byte	.LVL57
 3414 0251 0100     		.2byte	0x1
 3415 0253 51       		.byte	0x51
 3416 0254 12000000 		.4byte	.LVL57
 3417 0258 4E000000 		.4byte	.LVL62
 3418 025c 0100     		.2byte	0x1
 3419 025e 55       		.byte	0x55
 3420 025f 4E000000 		.4byte	.LVL62
 3421 0263 59000000 		.4byte	.LVL64-1
 3422 0267 0100     		.2byte	0x1
 3423 0269 51       		.byte	0x51
 3424 026a 59000000 		.4byte	.LVL64-1
 3425 026e 6A000000 		.4byte	.LFE126
 3426 0272 0100     		.2byte	0x1
 3427 0274 55       		.byte	0x55
 3428 0275 00000000 		.4byte	0
 3429 0279 00000000 		.4byte	0
 3430              	.LLST15:
ARM GAS  /tmp/ccqURGLh.s 			page 63


 3431 027d 00000000 		.4byte	.LVL56
 3432 0281 12000000 		.4byte	.LVL57
 3433 0285 0100     		.2byte	0x1
 3434 0287 52       		.byte	0x52
 3435 0288 12000000 		.4byte	.LVL57
 3436 028c 4E000000 		.4byte	.LVL62
 3437 0290 0100     		.2byte	0x1
 3438 0292 56       		.byte	0x56
 3439 0293 4E000000 		.4byte	.LVL62
 3440 0297 59000000 		.4byte	.LVL64-1
 3441 029b 0100     		.2byte	0x1
 3442 029d 52       		.byte	0x52
 3443 029e 59000000 		.4byte	.LVL64-1
 3444 02a2 6A000000 		.4byte	.LFE126
 3445 02a6 0100     		.2byte	0x1
 3446 02a8 56       		.byte	0x56
 3447 02a9 00000000 		.4byte	0
 3448 02ad 00000000 		.4byte	0
 3449              	.LLST16:
 3450 02b1 00000000 		.4byte	.LVL66
 3451 02b5 0B000000 		.4byte	.LVL67-1
 3452 02b9 0100     		.2byte	0x1
 3453 02bb 50       		.byte	0x50
 3454 02bc 0B000000 		.4byte	.LVL67-1
 3455 02c0 5A000000 		.4byte	.LFE127
 3456 02c4 0100     		.2byte	0x1
 3457 02c6 54       		.byte	0x54
 3458 02c7 00000000 		.4byte	0
 3459 02cb 00000000 		.4byte	0
 3460              	.LLST17:
 3461 02cf 00000000 		.4byte	.LVL66
 3462 02d3 0B000000 		.4byte	.LVL67-1
 3463 02d7 0100     		.2byte	0x1
 3464 02d9 51       		.byte	0x51
 3465 02da 0B000000 		.4byte	.LVL67-1
 3466 02de 5A000000 		.4byte	.LFE127
 3467 02e2 0100     		.2byte	0x1
 3468 02e4 55       		.byte	0x55
 3469 02e5 00000000 		.4byte	0
 3470 02e9 00000000 		.4byte	0
 3471              	.LLST18:
 3472 02ed 00000000 		.4byte	.LVL66
 3473 02f1 0B000000 		.4byte	.LVL67-1
 3474 02f5 0100     		.2byte	0x1
 3475 02f7 52       		.byte	0x52
 3476 02f8 0B000000 		.4byte	.LVL67-1
 3477 02fc 5A000000 		.4byte	.LFE127
 3478 0300 0100     		.2byte	0x1
 3479 0302 56       		.byte	0x56
 3480 0303 00000000 		.4byte	0
 3481 0307 00000000 		.4byte	0
 3482              	.LLST19:
 3483 030b 00000000 		.4byte	.LVL73
 3484 030f 06000000 		.4byte	.LVL74
 3485 0313 0100     		.2byte	0x1
 3486 0315 50       		.byte	0x50
 3487 0316 06000000 		.4byte	.LVL74
ARM GAS  /tmp/ccqURGLh.s 			page 64


 3488 031a 48000000 		.4byte	.LVL82
 3489 031e 0100     		.2byte	0x1
 3490 0320 54       		.byte	0x54
 3491 0321 48000000 		.4byte	.LVL82
 3492 0325 4C000000 		.4byte	.LVL83
 3493 0329 0100     		.2byte	0x1
 3494 032b 50       		.byte	0x50
 3495 032c 4C000000 		.4byte	.LVL83
 3496 0330 56000000 		.4byte	.LFE128
 3497 0334 0100     		.2byte	0x1
 3498 0336 54       		.byte	0x54
 3499 0337 00000000 		.4byte	0
 3500 033b 00000000 		.4byte	0
 3501              	.LLST20:
 3502 033f 2C000000 		.4byte	.LVL77
 3503 0343 3A000000 		.4byte	.LVL79
 3504 0347 0100     		.2byte	0x1
 3505 0349 55       		.byte	0x55
 3506 034a 44000000 		.4byte	.LVL81
 3507 034e 48000000 		.4byte	.LVL82
 3508 0352 0100     		.2byte	0x1
 3509 0354 50       		.byte	0x50
 3510 0355 00000000 		.4byte	0
 3511 0359 00000000 		.4byte	0
 3512              	.LLST21:
 3513 035d 00000000 		.4byte	.LVL85
 3514 0361 07000000 		.4byte	.LVL86-1
 3515 0365 0100     		.2byte	0x1
 3516 0367 50       		.byte	0x50
 3517 0368 07000000 		.4byte	.LVL86-1
 3518 036c 40000000 		.4byte	.LFE129
 3519 0370 0100     		.2byte	0x1
 3520 0372 54       		.byte	0x54
 3521 0373 00000000 		.4byte	0
 3522 0377 00000000 		.4byte	0
 3523              	.LLST22:
 3524 037b 2C000000 		.4byte	.LVL89
 3525 037f 32000000 		.4byte	.LVL90
 3526 0383 0100     		.2byte	0x1
 3527 0385 50       		.byte	0x50
 3528 0386 00000000 		.4byte	0
 3529 038a 00000000 		.4byte	0
 3530              		.section	.debug_aranges,"",%progbits
 3531 0000 74000000 		.4byte	0x74
 3532 0004 0200     		.2byte	0x2
 3533 0006 00000000 		.4byte	.Ldebug_info0
 3534 000a 04       		.byte	0x4
 3535 000b 00       		.byte	0
 3536 000c 0000     		.2byte	0
 3537 000e 0000     		.2byte	0
 3538 0010 00000000 		.4byte	.LFB118
 3539 0014 04000000 		.4byte	.LFE118-.LFB118
 3540 0018 00000000 		.4byte	.LFB119
 3541 001c 0E000000 		.4byte	.LFE119-.LFB119
 3542 0020 00000000 		.4byte	.LFB120
 3543 0024 54000000 		.4byte	.LFE120-.LFB120
 3544 0028 00000000 		.4byte	.LFB121
ARM GAS  /tmp/ccqURGLh.s 			page 65


 3545 002c 50000000 		.4byte	.LFE121-.LFB121
 3546 0030 00000000 		.4byte	.LFB122
 3547 0034 6A000000 		.4byte	.LFE122-.LFB122
 3548 0038 00000000 		.4byte	.LFB123
 3549 003c 5A000000 		.4byte	.LFE123-.LFB123
 3550 0040 00000000 		.4byte	.LFB124
 3551 0044 56000000 		.4byte	.LFE124-.LFB124
 3552 0048 00000000 		.4byte	.LFB125
 3553 004c 40000000 		.4byte	.LFE125-.LFB125
 3554 0050 00000000 		.4byte	.LFB126
 3555 0054 6A000000 		.4byte	.LFE126-.LFB126
 3556 0058 00000000 		.4byte	.LFB127
 3557 005c 5A000000 		.4byte	.LFE127-.LFB127
 3558 0060 00000000 		.4byte	.LFB128
 3559 0064 56000000 		.4byte	.LFE128-.LFB128
 3560 0068 00000000 		.4byte	.LFB129
 3561 006c 40000000 		.4byte	.LFE129-.LFB129
 3562 0070 00000000 		.4byte	0
 3563 0074 00000000 		.4byte	0
 3564              		.section	.debug_ranges,"",%progbits
 3565              	.Ldebug_ranges0:
 3566 0000 00000000 		.4byte	.LFB118
 3567 0004 04000000 		.4byte	.LFE118
 3568 0008 00000000 		.4byte	.LFB119
 3569 000c 0E000000 		.4byte	.LFE119
 3570 0010 00000000 		.4byte	.LFB120
 3571 0014 54000000 		.4byte	.LFE120
 3572 0018 00000000 		.4byte	.LFB121
 3573 001c 50000000 		.4byte	.LFE121
 3574 0020 00000000 		.4byte	.LFB122
 3575 0024 6A000000 		.4byte	.LFE122
 3576 0028 00000000 		.4byte	.LFB123
 3577 002c 5A000000 		.4byte	.LFE123
 3578 0030 00000000 		.4byte	.LFB124
 3579 0034 56000000 		.4byte	.LFE124
 3580 0038 00000000 		.4byte	.LFB125
 3581 003c 40000000 		.4byte	.LFE125
 3582 0040 00000000 		.4byte	.LFB126
 3583 0044 6A000000 		.4byte	.LFE126
 3584 0048 00000000 		.4byte	.LFB127
 3585 004c 5A000000 		.4byte	.LFE127
 3586 0050 00000000 		.4byte	.LFB128
 3587 0054 56000000 		.4byte	.LFE128
 3588 0058 00000000 		.4byte	.LFB129
 3589 005c 40000000 		.4byte	.LFE129
 3590 0060 00000000 		.4byte	0
 3591 0064 00000000 		.4byte	0
 3592              		.section	.debug_line,"",%progbits
 3593              	.Ldebug_line0:
 3594 0000 B1030000 		.section	.debug_str,"MS",%progbits,1
 3594      0200C201 
 3594      00000201 
 3594      FB0E0D00 
 3594      01010101 
 3595              	.LASF46:
 3596 0000 55415254 		.ascii	"UART_TX_COMPLETE\000"
 3596      5F54585F 
ARM GAS  /tmp/ccqURGLh.s 			page 66


 3596      434F4D50 
 3596      4C455445 
 3596      00
 3597              	.LASF94:
 3598 0011 63684462 		.ascii	"chDbgCheckClassI\000"
 3598      67436865 
 3598      636B436C 
 3598      61737349 
 3598      00
 3599              	.LASF75:
 3600 0022 75617274 		.ascii	"uartStart\000"
 3600      53746172 
 3600      7400
 3601              	.LASF58:
 3602 002c 75736172 		.ascii	"usart\000"
 3602      7400
 3603              	.LASF80:
 3604 0032 75617274 		.ascii	"uartStartSendI\000"
 3604      53746172 
 3604      7453656E 
 3604      644900
 3605              	.LASF56:
 3606 0041 72787374 		.ascii	"rxstate\000"
 3606      61746500 
 3607              	.LASF24:
 3608 0049 444D415F 		.ascii	"DMA_Stream_TypeDef\000"
 3608      53747265 
 3608      616D5F54 
 3608      79706544 
 3608      656600
 3609              	.LASF54:
 3610 005c 73746174 		.ascii	"state\000"
 3610      6500
 3611              	.LASF82:
 3612 0062 75617274 		.ascii	"uartStopSendI\000"
 3612      53746F70 
 3612      53656E64 
 3612      4900
 3613              	.LASF2:
 3614 0070 73697A65 		.ascii	"size_t\000"
 3614      5F7400
 3615              	.LASF70:
 3616 0077 72786572 		.ascii	"rxerr_cb\000"
 3616      725F6362 
 3616      00
 3617              	.LASF19:
 3618 0080 73697A65 		.ascii	"sizetype\000"
 3618      74797065 
 3618      00
 3619              	.LASF96:
 3620 0089 75617274 		.ascii	"uart_lld_stop_receive\000"
 3620      5F6C6C64 
 3620      5F73746F 
 3620      705F7265 
 3620      63656976 
 3621              	.LASF72:
 3622 009f 55415254 		.ascii	"UARTConfig\000"
ARM GAS  /tmp/ccqURGLh.s 			page 67


 3622      436F6E66 
 3622      696700
 3623              	.LASF55:
 3624 00aa 74787374 		.ascii	"txstate\000"
 3624      61746500 
 3625              	.LASF10:
 3626 00b2 5F5F7569 		.ascii	"__uint32_t\000"
 3626      6E743332 
 3626      5F7400
 3627              	.LASF81:
 3628 00bd 75617274 		.ascii	"uartStopSend\000"
 3628      53746F70 
 3628      53656E64 
 3628      00
 3629              	.LASF66:
 3630 00ca 7478656E 		.ascii	"txend1_cb\000"
 3630      64315F63 
 3630      6200
 3631              	.LASF6:
 3632 00d4 5F5F7569 		.ascii	"__uint16_t\000"
 3632      6E743136 
 3632      5F7400
 3633              	.LASF33:
 3634 00df 55534152 		.ascii	"USART_TypeDef\000"
 3634      545F5479 
 3634      70654465 
 3634      6600
 3635              	.LASF5:
 3636 00ed 73686F72 		.ascii	"short int\000"
 3636      7420696E 
 3636      7400
 3637              	.LASF57:
 3638 00f7 636F6E66 		.ascii	"config\000"
 3638      696700
 3639              	.LASF78:
 3640 00fe 75617274 		.ascii	"uartStartSend\000"
 3640      53746172 
 3640      7453656E 
 3640      6400
 3641              	.LASF39:
 3642 010c 73746D33 		.ascii	"stm32_dma_stream_t\000"
 3642      325F646D 
 3642      615F7374 
 3642      7265616D 
 3642      5F7400
 3643              	.LASF83:
 3644 011f 75617274 		.ascii	"uartStartReceive\000"
 3644      53746172 
 3644      74526563 
 3644      65697665 
 3644      00
 3645              	.LASF14:
 3646 0130 75696E74 		.ascii	"uint8_t\000"
 3646      385F7400 
 3647              	.LASF38:
 3648 0138 76656374 		.ascii	"vector\000"
 3648      6F7200
ARM GAS  /tmp/ccqURGLh.s 			page 68


 3649              	.LASF49:
 3650 013f 55415254 		.ascii	"UART_RX_ACTIVE\000"
 3650      5F52585F 
 3650      41435449 
 3650      564500
 3651              	.LASF65:
 3652 014e 75617274 		.ascii	"uartecb_t\000"
 3652      6563625F 
 3652      7400
 3653              	.LASF1:
 3654 0158 7369676E 		.ascii	"signed char\000"
 3654      65642063 
 3654      68617200 
 3655              	.LASF99:
 3656 0164 2F686F6D 		.ascii	"/home/ece497/vbox-shared/mplayer/ChibiOS-RT-stable_"
 3656      652F6563 
 3656      65343937 
 3656      2F76626F 
 3656      782D7368 
 3657 0197 322E362E 		.ascii	"2.6.x/testhal/STM32F4xx/UART\000"
 3657      782F7465 
 3657      73746861 
 3657      6C2F5354 
 3657      4D333246 
 3658              	.LASF74:
 3659 01b4 75617274 		.ascii	"uartObjectInit\000"
 3659      4F626A65 
 3659      6374496E 
 3659      697400
 3660              	.LASF45:
 3661 01c3 55415254 		.ascii	"UART_TX_ACTIVE\000"
 3661      5F54585F 
 3661      41435449 
 3661      564500
 3662              	.LASF93:
 3663 01d2 75617274 		.ascii	"uart_lld_start_send\000"
 3663      5F6C6C64 
 3663      5F737461 
 3663      72745F73 
 3663      656E6400 
 3664              	.LASF85:
 3665 01e6 75617274 		.ascii	"uartStopReceive\000"
 3665      53746F70 
 3665      52656365 
 3665      69766500 
 3666              	.LASF9:
 3667 01f6 6C6F6E67 		.ascii	"long int\000"
 3667      20696E74 
 3667      00
 3668              	.LASF63:
 3669 01ff 75617274 		.ascii	"uartcb_t\000"
 3669      63625F74 
 3669      00
 3670              	.LASF34:
 3671 0208 73747265 		.ascii	"stream\000"
 3671      616D00
 3672              	.LASF51:
ARM GAS  /tmp/ccqURGLh.s 			page 69


 3673 020f 75617274 		.ascii	"uartrxstate_t\000"
 3673      72787374 
 3673      6174655F 
 3673      7400
 3674              	.LASF3:
 3675 021d 5F5F7569 		.ascii	"__uint8_t\000"
 3675      6E74385F 
 3675      7400
 3676              	.LASF67:
 3677 0227 7478656E 		.ascii	"txend2_cb\000"
 3677      64325F63 
 3677      6200
 3678              	.LASF60:
 3679 0231 646D6172 		.ascii	"dmarx\000"
 3679      7800
 3680              	.LASF90:
 3681 0237 75617274 		.ascii	"uart_lld_start\000"
 3681      5F6C6C64 
 3681      5F737461 
 3681      727400
 3682              	.LASF89:
 3683 0246 63684462 		.ascii	"chDbgPanic\000"
 3683      6750616E 
 3683      696300
 3684              	.LASF31:
 3685 0251 47545052 		.ascii	"GTPR\000"
 3685      00
 3686              	.LASF47:
 3687 0256 75617274 		.ascii	"uarttxstate_t\000"
 3687      74787374 
 3687      6174655F 
 3687      7400
 3688              	.LASF87:
 3689 0264 75617274 		.ascii	"uart_lld_init\000"
 3689      5F6C6C64 
 3689      5F696E69 
 3689      7400
 3690              	.LASF4:
 3691 0272 756E7369 		.ascii	"unsigned char\000"
 3691      676E6564 
 3691      20636861 
 3691      7200
 3692              	.LASF86:
 3693 0280 75617274 		.ascii	"uartStopReceiveI\000"
 3693      53746F70 
 3693      52656365 
 3693      69766549 
 3693      00
 3694              	.LASF91:
 3695 0291 6462675F 		.ascii	"dbg_check_unlock\000"
 3695      63686563 
 3695      6B5F756E 
 3695      6C6F636B 
 3695      00
 3696              	.LASF61:
 3697 02a2 646D6174 		.ascii	"dmatx\000"
 3697      7800
ARM GAS  /tmp/ccqURGLh.s 			page 70


 3698              	.LASF88:
 3699 02a8 6462675F 		.ascii	"dbg_check_lock\000"
 3699      63686563 
 3699      6B5F6C6F 
 3699      636B00
 3700              	.LASF13:
 3701 02b7 6C6F6E67 		.ascii	"long long unsigned int\000"
 3701      206C6F6E 
 3701      6720756E 
 3701      7369676E 
 3701      65642069 
 3702              	.LASF59:
 3703 02ce 646D616D 		.ascii	"dmamode\000"
 3703      6F646500 
 3704              	.LASF17:
 3705 02d6 75696E74 		.ascii	"uint32_t\000"
 3705      33325F74 
 3705      00
 3706              	.LASF37:
 3707 02df 73656C66 		.ascii	"selfindex\000"
 3707      696E6465 
 3707      7800
 3708              	.LASF0:
 3709 02e9 756E7369 		.ascii	"unsigned int\000"
 3709      676E6564 
 3709      20696E74 
 3709      00
 3710              	.LASF15:
 3711 02f6 75696E74 		.ascii	"uint16_t\000"
 3711      31365F74 
 3711      00
 3712              	.LASF11:
 3713 02ff 6C6F6E67 		.ascii	"long unsigned int\000"
 3713      20756E73 
 3713      69676E65 
 3713      6420696E 
 3713      7400
 3714              	.LASF71:
 3715 0311 73706565 		.ascii	"speed\000"
 3715      6400
 3716              	.LASF52:
 3717 0317 75617274 		.ascii	"uartflags_t\000"
 3717      666C6167 
 3717      735F7400 
 3718              	.LASF73:
 3719 0323 75617274 		.ascii	"uartInit\000"
 3719      496E6974 
 3719      00
 3720              	.LASF43:
 3721 032c 75617274 		.ascii	"uartstate_t\000"
 3721      73746174 
 3721      655F7400 
 3722              	.LASF7:
 3723 0338 73686F72 		.ascii	"short unsigned int\000"
 3723      7420756E 
 3723      7369676E 
 3723      65642069 
ARM GAS  /tmp/ccqURGLh.s 			page 71


 3723      6E7400
 3724              	.LASF64:
 3725 034b 75617274 		.ascii	"uartccb_t\000"
 3725      6363625F 
 3725      7400
 3726              	.LASF79:
 3727 0355 74786275 		.ascii	"txbuf\000"
 3727      6600
 3728              	.LASF23:
 3729 035b 4D314152 		.ascii	"M1AR\000"
 3729      00
 3730              	.LASF20:
 3731 0360 63686172 		.ascii	"char\000"
 3731      00
 3732              	.LASF16:
 3733 0365 696E7433 		.ascii	"int32_t\000"
 3733      325F7400 
 3734              	.LASF22:
 3735 036d 4D304152 		.ascii	"M0AR\000"
 3735      00
 3736              	.LASF18:
 3737 0372 5F426F6F 		.ascii	"_Bool\000"
 3737      6C00
 3738              	.LASF50:
 3739 0378 55415254 		.ascii	"UART_RX_COMPLETE\000"
 3739      5F52585F 
 3739      434F4D50 
 3739      4C455445 
 3739      00
 3740              	.LASF44:
 3741 0389 55415254 		.ascii	"UART_TX_IDLE\000"
 3741      5F54585F 
 3741      49444C45 
 3741      00
 3742              	.LASF25:
 3743 0396 52455345 		.ascii	"RESERVED0\000"
 3743      52564544 
 3743      3000
 3744              	.LASF26:
 3745 03a0 52455345 		.ascii	"RESERVED1\000"
 3745      52564544 
 3745      3100
 3746              	.LASF27:
 3747 03aa 52455345 		.ascii	"RESERVED2\000"
 3747      52564544 
 3747      3200
 3748              	.LASF28:
 3749 03b4 52455345 		.ascii	"RESERVED3\000"
 3749      52564544 
 3749      3300
 3750              	.LASF29:
 3751 03be 52455345 		.ascii	"RESERVED4\000"
 3751      52564544 
 3751      3400
 3752              	.LASF30:
 3753 03c8 52455345 		.ascii	"RESERVED5\000"
 3753      52564544 
ARM GAS  /tmp/ccqURGLh.s 			page 72


 3753      3500
 3754              	.LASF32:
 3755 03d2 52455345 		.ascii	"RESERVED6\000"
 3755      52564544 
 3755      3600
 3756              	.LASF97:
 3757 03dc 474E5520 		.ascii	"GNU C 4.8.2 -mcpu=cortex-m4 -mno-thumb-interwork -m"
 3757      4320342E 
 3757      382E3220 
 3757      2D6D6370 
 3757      753D636F 
 3758 040f 7468756D 		.ascii	"thumb -ggdb -O2 -fomit-frame-pointer -falign-functi"
 3758      62202D67 
 3758      67646220 
 3758      2D4F3220 
 3758      2D666F6D 
 3759 0442 6F6E733D 		.ascii	"ons=16 -ffunction-sections -fdata-sections -fno-com"
 3759      3136202D 
 3759      6666756E 
 3759      6374696F 
 3759      6E2D7365 
 3760 0475 6D6F6E00 		.ascii	"mon\000"
 3761              	.LASF21:
 3762 0479 4E445452 		.ascii	"NDTR\000"
 3762      00
 3763              	.LASF95:
 3764 047e 75617274 		.ascii	"uart_lld_start_receive\000"
 3764      5F6C6C64 
 3764      5F737461 
 3764      72745F72 
 3764      65636569 
 3765              	.LASF42:
 3766 0495 55415254 		.ascii	"UART_READY\000"
 3766      5F524541 
 3766      445900
 3767              	.LASF8:
 3768 04a0 5F5F696E 		.ascii	"__int32_t\000"
 3768      7433325F 
 3768      7400
 3769              	.LASF68:
 3770 04aa 7278656E 		.ascii	"rxend_cb\000"
 3770      645F6362 
 3770      00
 3771              	.LASF48:
 3772 04b3 55415254 		.ascii	"UART_RX_IDLE\000"
 3772      5F52585F 
 3772      49444C45 
 3772      00
 3773              	.LASF69:
 3774 04c0 72786368 		.ascii	"rxchar_cb\000"
 3774      61725F63 
 3774      6200
 3775              	.LASF101:
 3776 04ca 75617274 		.ascii	"uart_lld_stop_send\000"
 3776      5F6C6C64 
 3776      5F73746F 
 3776      705F7365 
ARM GAS  /tmp/ccqURGLh.s 			page 73


 3776      6E6400
 3777              	.LASF40:
 3778 04dd 55415254 		.ascii	"UART_UNINIT\000"
 3778      5F554E49 
 3778      4E495400 
 3779              	.LASF98:
 3780 04e9 2E2E2F2E 		.ascii	"../../../os/hal/src/uart.c\000"
 3780      2E2F2E2E 
 3780      2F6F732F 
 3780      68616C2F 
 3780      7372632F 
 3781              	.LASF77:
 3782 0504 75617274 		.ascii	"uartStop\000"
 3782      53746F70 
 3782      00
 3783              	.LASF62:
 3784 050d 72786275 		.ascii	"rxbuf\000"
 3784      6600
 3785              	.LASF84:
 3786 0513 75617274 		.ascii	"uartStartReceiveI\000"
 3786      53746172 
 3786      74526563 
 3786      65697665 
 3786      4900
 3787              	.LASF36:
 3788 0525 69736869 		.ascii	"ishift\000"
 3788      667400
 3789              	.LASF100:
 3790 052c 49544D5F 		.ascii	"ITM_RxBuffer\000"
 3790      52784275 
 3790      66666572 
 3790      00
 3791              	.LASF41:
 3792 0539 55415254 		.ascii	"UART_STOP\000"
 3792      5F53544F 
 3792      5000
 3793              	.LASF76:
 3794 0543 75617274 		.ascii	"uartp\000"
 3794      7000
 3795              	.LASF53:
 3796 0549 55415254 		.ascii	"UARTDriver\000"
 3796      44726976 
 3796      657200
 3797              	.LASF35:
 3798 0554 69666372 		.ascii	"ifcr\000"
 3798      00
 3799              	.LASF92:
 3800 0559 75617274 		.ascii	"uart_lld_stop\000"
 3800      5F6C6C64 
 3800      5F73746F 
 3800      7000
 3801              	.LASF12:
 3802 0567 6C6F6E67 		.ascii	"long long int\000"
 3802      206C6F6E 
 3802      6720696E 
 3802      7400
 3803              		.ident	"GCC: (Arch Repository) 4.8.2"
ARM GAS  /tmp/ccqURGLh.s 			page 74


ARM GAS  /tmp/ccqURGLh.s 			page 75


DEFINED SYMBOLS
                            *ABS*:0000000000000000 uart.c
     /tmp/ccqURGLh.s:19     .text.uartInit:0000000000000000 $t
     /tmp/ccqURGLh.s:25     .text.uartInit:0000000000000000 uartInit
     /tmp/ccqURGLh.s:40     .text.uartObjectInit:0000000000000000 $t
     /tmp/ccqURGLh.s:46     .text.uartObjectInit:0000000000000000 uartObjectInit
     /tmp/ccqURGLh.s:70     .text.uartStart:0000000000000000 $t
     /tmp/ccqURGLh.s:76     .text.uartStart:0000000000000000 uartStart
     /tmp/ccqURGLh.s:923    .rodata.str1.4:0000000000000010 .LC1
     /tmp/ccqURGLh.s:920    .rodata.str1.4:0000000000000000 .LC0
     /tmp/ccqURGLh.s:156    .text.uartStop:0000000000000000 $t
     /tmp/ccqURGLh.s:162    .text.uartStop:0000000000000000 uartStop
     /tmp/ccqURGLh.s:928    .rodata.str1.4:0000000000000030 .LC3
     /tmp/ccqURGLh.s:925    .rodata.str1.4:0000000000000020 .LC2
     /tmp/ccqURGLh.s:239    .text.uartStartSend:0000000000000000 $t
     /tmp/ccqURGLh.s:245    .text.uartStartSend:0000000000000000 uartStartSend
     /tmp/ccqURGLh.s:934    .rodata.str1.4:0000000000000054 .LC5
     /tmp/ccqURGLh.s:931    .rodata.str1.4:0000000000000040 .LC4
     /tmp/ccqURGLh.s:936    .rodata.str1.4:0000000000000068 .LC6
     /tmp/ccqURGLh.s:339    .text.uartStartSendI:0000000000000000 $t
     /tmp/ccqURGLh.s:345    .text.uartStartSendI:0000000000000000 uartStartSendI
     /tmp/ccqURGLh.s:941    .rodata.str1.4:0000000000000090 .LC8
     /tmp/ccqURGLh.s:938    .rodata.str1.4:000000000000007c .LC7
     /tmp/ccqURGLh.s:944    .rodata.str1.4:00000000000000a8 .LC9
     /tmp/ccqURGLh.s:417    .text.uartStopSend:0000000000000000 $t
     /tmp/ccqURGLh.s:423    .text.uartStopSend:0000000000000000 uartStopSend
     /tmp/ccqURGLh.s:950    .rodata.str1.4:00000000000000d4 .LC11
     /tmp/ccqURGLh.s:947    .rodata.str1.4:00000000000000c0 .LC10
     /tmp/ccqURGLh.s:511    .text.uartStopSendI:0000000000000000 $t
     /tmp/ccqURGLh.s:517    .text.uartStopSendI:0000000000000000 uartStopSendI
     /tmp/ccqURGLh.s:956    .rodata.str1.4:00000000000000fc .LC13
     /tmp/ccqURGLh.s:953    .rodata.str1.4:00000000000000e8 .LC12
     /tmp/ccqURGLh.s:579    .text.uartStartReceive:0000000000000000 $t
     /tmp/ccqURGLh.s:585    .text.uartStartReceive:0000000000000000 uartStartReceive
     /tmp/ccqURGLh.s:961    .rodata.str1.4:0000000000000128 .LC15
     /tmp/ccqURGLh.s:958    .rodata.str1.4:0000000000000110 .LC14
     /tmp/ccqURGLh.s:964    .rodata.str1.4:0000000000000140 .LC16
     /tmp/ccqURGLh.s:679    .text.uartStartReceiveI:0000000000000000 $t
     /tmp/ccqURGLh.s:685    .text.uartStartReceiveI:0000000000000000 uartStartReceiveI
     /tmp/ccqURGLh.s:970    .rodata.str1.4:0000000000000170 .LC18
     /tmp/ccqURGLh.s:967    .rodata.str1.4:0000000000000158 .LC17
     /tmp/ccqURGLh.s:972    .rodata.str1.4:0000000000000188 .LC19
     /tmp/ccqURGLh.s:757    .text.uartStopReceive:0000000000000000 $t
     /tmp/ccqURGLh.s:763    .text.uartStopReceive:0000000000000000 uartStopReceive
     /tmp/ccqURGLh.s:976    .rodata.str1.4:00000000000001b4 .LC21
     /tmp/ccqURGLh.s:974    .rodata.str1.4:00000000000001a0 .LC20
     /tmp/ccqURGLh.s:851    .text.uartStopReceiveI:0000000000000000 $t
     /tmp/ccqURGLh.s:857    .text.uartStopReceiveI:0000000000000000 uartStopReceiveI
     /tmp/ccqURGLh.s:982    .rodata.str1.4:00000000000001e4 .LC23
     /tmp/ccqURGLh.s:979    .rodata.str1.4:00000000000001cc .LC22
     /tmp/ccqURGLh.s:919    .rodata.str1.4:0000000000000000 $d
                     .debug_frame:0000000000000010 $d

UNDEFINED SYMBOLS
uart_lld_init
dbg_check_lock
chDbgPanic
ARM GAS  /tmp/ccqURGLh.s 			page 76


uart_lld_start
dbg_check_unlock
uart_lld_stop
uart_lld_start_send
chDbgCheckClassI
uart_lld_stop_send
uart_lld_start_receive
uart_lld_stop_receive
