ARM GAS  /tmp/ccqURGLh.s 			page 1


   1              		.syntax unified
   2              		.cpu cortex-m4
   3              		.fpu softvfp
   4              		.eabi_attribute 20, 1
   5              		.eabi_attribute 21, 1
   6              		.eabi_attribute 23, 3
   7              		.eabi_attribute 24, 1
   8              		.eabi_attribute 25, 1
   9              		.eabi_attribute 26, 1
  10              		.eabi_attribute 30, 2
  11              		.eabi_attribute 34, 1
  12              		.eabi_attribute 18, 4
  13              		.thumb
  14              		.file	"uart.c"
  15              		.text
  16              	.Ltext0:
  17              		.cfi_sections	.debug_frame
  18              		.section	.text.uartInit,"ax",%progbits
  19              		.align	2
  20              		.p2align 4,,15
  21              		.global	uartInit
  22              		.thumb
  23              		.thumb_func
  24              		.type	uartInit, %function
  25              	uartInit:
  26              	.LFB118:
  27              		.file 1 "../../../os/hal/src/uart.c"
  28              		.loc 1 68 0
  29              		.cfi_startproc
  30              		@ args = 0, pretend = 0, frame = 0
  31              		@ frame_needed = 0, uses_anonymous_args = 0
  32              		@ link register save eliminated.
  33              		.loc 1 70 0
  34 0000 FFF7FEBF 		b	uart_lld_init
  35              	.LVL0:
  36              		.cfi_endproc
  37              	.LFE118:
  38              		.size	uartInit, .-uartInit
  39 0004 AFF30080 		.section	.text.uartObjectInit,"ax",%progbits
  39      AFF30080 
  39      AFF30080 
  40              		.align	2
  41              		.p2align 4,,15
  42              		.global	uartObjectInit
  43              		.thumb
  44              		.thumb_func
  45              		.type	uartObjectInit, %function
  46              	uartObjectInit:
  47              	.LFB119:
  48              		.loc 1 80 0
  49              		.cfi_startproc
  50              		@ args = 0, pretend = 0, frame = 0
  51              		@ frame_needed = 0, uses_anonymous_args = 0
  52              		@ link register save eliminated.
  53              	.LVL1:
  54              		.loc 1 83 0
  55 0000 0023     		movs	r3, #0
ARM GAS  /tmp/ccqURGLh.s 			page 2


  56              		.loc 1 82 0
  57 0002 0122     		movs	r2, #1
  58 0004 0270     		strb	r2, [r0]
  59              		.loc 1 83 0
  60 0006 4370     		strb	r3, [r0, #1]
  61              		.loc 1 84 0
  62 0008 8370     		strb	r3, [r0, #2]
  63              		.loc 1 85 0
  64 000a 4360     		str	r3, [r0, #4]
  65 000c 7047     		bx	lr
  66              		.cfi_endproc
  67              	.LFE119:
  68              		.size	uartObjectInit, .-uartObjectInit
  69 000e 00BF     		.section	.text.uartStart,"ax",%progbits
  70              		.align	2
  71              		.p2align 4,,15
  72              		.global	uartStart
  73              		.thumb
  74              		.thumb_func
  75              		.type	uartStart, %function
  76              	uartStart:
  77              	.LFB120:
  78              		.loc 1 100 0
  79              		.cfi_startproc
  80              		@ args = 0, pretend = 0, frame = 0
  81              		@ frame_needed = 0, uses_anonymous_args = 0
  82              	.LVL2:
  83              		.loc 1 102 0
  84 0000 0029     		cmp	r1, #0
  85 0002 18BF     		it	ne
  86 0004 0028     		cmpne	r0, #0
  87              		.loc 1 100 0
  88 0006 38B5     		push	{r3, r4, r5, lr}
  89              		.cfi_def_cfa_offset 16
  90              		.cfi_offset 3, -16
  91              		.cfi_offset 4, -12
  92              		.cfi_offset 5, -8
  93              		.cfi_offset 14, -4
  94              		.loc 1 102 0
  95 0008 0446     		mov	r4, r0
  96 000a 0D46     		mov	r5, r1
  97 000c 1BD0     		beq	.L10
  98              	.LVL3:
  99              	.L4:
 100              	.LBB2:
 101              		.loc 1 104 0
 102 000e 2023     		movs	r3, #32
 103              	@ 104 "../../../os/hal/src/uart.c" 1
 104 0010 83F31188 		msr     BASEPRI, r3
 105              	@ 0 "" 2
 106              		.thumb
 107              	.LBE2:
 108 0014 FFF7FEFF 		bl	dbg_check_lock
 109              	.LVL4:
 110              		.loc 1 105 0
 111 0018 2378     		ldrb	r3, [r4]	@ zero_extendqisi2
 112 001a 013B     		subs	r3, r3, #1
ARM GAS  /tmp/ccqURGLh.s 			page 3


 113 001c DBB2     		uxtb	r3, r3
 114 001e 012B     		cmp	r3, #1
 115 0020 05D9     		bls	.L5
 116              		.loc 1 105 0 is_stmt 0 discriminator 1
 117 0022 40F20000 		movw	r0, #:lower16:.LC1
 118 0026 C0F20000 		movt	r0, #:upper16:.LC1
 119 002a FFF7FEFF 		bl	chDbgPanic
 120              	.LVL5:
 121              	.L5:
 122              		.loc 1 109 0 is_stmt 1
 123 002e 2046     		mov	r0, r4
 124              		.loc 1 108 0
 125 0030 6560     		str	r5, [r4, #4]
 126              		.loc 1 109 0
 127 0032 FFF7FEFF 		bl	uart_lld_start
 128              	.LVL6:
 129              		.loc 1 110 0
 130 0036 0223     		movs	r3, #2
 131 0038 2370     		strb	r3, [r4]
 132              		.loc 1 111 0
 133 003a FFF7FEFF 		bl	dbg_check_unlock
 134              	.LVL7:
 135              	.LBB3:
 136 003e 0023     		movs	r3, #0
 137              	@ 111 "../../../os/hal/src/uart.c" 1
 138 0040 83F31188 		msr     BASEPRI, r3
 139              	@ 0 "" 2
 140              		.thumb
 141 0044 38BD     		pop	{r3, r4, r5, pc}
 142              	.LVL8:
 143              	.L10:
 144              	.LBE3:
 145              		.loc 1 102 0 discriminator 1
 146 0046 40F20000 		movw	r0, #:lower16:.LC0
 147              	.LVL9:
 148 004a C0F20000 		movt	r0, #:upper16:.LC0
 149 004e FFF7FEFF 		bl	chDbgPanic
 150              	.LVL10:
 151 0052 DCE7     		b	.L4
 152              		.cfi_endproc
 153              	.LFE120:
 154              		.size	uartStart, .-uartStart
 155 0054 AFF30080 		.section	.text.uartStop,"ax",%progbits
 155      AFF30080 
 155      AFF30080 
 156              		.align	2
 157              		.p2align 4,,15
 158              		.global	uartStop
 159              		.thumb
 160              		.thumb_func
 161              		.type	uartStop, %function
 162              	uartStop:
 163              	.LFB121:
 164              		.loc 1 121 0
 165              		.cfi_startproc
 166              		@ args = 0, pretend = 0, frame = 0
 167              		@ frame_needed = 0, uses_anonymous_args = 0
ARM GAS  /tmp/ccqURGLh.s 			page 4


 168              	.LVL11:
 169 0000 38B5     		push	{r3, r4, r5, lr}
 170              		.cfi_def_cfa_offset 16
 171              		.cfi_offset 3, -16
 172              		.cfi_offset 4, -12
 173              		.cfi_offset 5, -8
 174              		.cfi_offset 14, -4
 175              		.loc 1 123 0
 176 0002 0446     		mov	r4, r0
 177 0004 E8B1     		cbz	r0, .L14
 178              	.LVL12:
 179              	.L12:
 180              	.LBB4:
 181              		.loc 1 125 0
 182 0006 2023     		movs	r3, #32
 183              	@ 125 "../../../os/hal/src/uart.c" 1
 184 0008 83F31188 		msr     BASEPRI, r3
 185              	@ 0 "" 2
 186              		.thumb
 187              	.LBE4:
 188 000c FFF7FEFF 		bl	dbg_check_lock
 189              	.LVL13:
 190              		.loc 1 126 0
 191 0010 2378     		ldrb	r3, [r4]	@ zero_extendqisi2
 192 0012 013B     		subs	r3, r3, #1
 193 0014 DBB2     		uxtb	r3, r3
 194 0016 012B     		cmp	r3, #1
 195 0018 05D9     		bls	.L13
 196              		.loc 1 126 0 is_stmt 0 discriminator 1
 197 001a 40F20000 		movw	r0, #:lower16:.LC3
 198 001e C0F20000 		movt	r0, #:upper16:.LC3
 199 0022 FFF7FEFF 		bl	chDbgPanic
 200              	.LVL14:
 201              	.L13:
 202              		.loc 1 129 0 is_stmt 1
 203 0026 2046     		mov	r0, r4
 204 0028 FFF7FEFF 		bl	uart_lld_stop
 205              	.LVL15:
 206              		.loc 1 131 0
 207 002c 0025     		movs	r5, #0
 208              		.loc 1 130 0
 209 002e 0123     		movs	r3, #1
 210 0030 2370     		strb	r3, [r4]
 211              		.loc 1 131 0
 212 0032 6570     		strb	r5, [r4, #1]
 213              		.loc 1 132 0
 214 0034 A570     		strb	r5, [r4, #2]
 215              		.loc 1 133 0
 216 0036 FFF7FEFF 		bl	dbg_check_unlock
 217              	.LVL16:
 218              	.LBB5:
 219 003a 2B46     		mov	r3, r5
 220              	@ 133 "../../../os/hal/src/uart.c" 1
 221 003c 83F31188 		msr     BASEPRI, r3
 222              	@ 0 "" 2
 223              		.thumb
 224 0040 38BD     		pop	{r3, r4, r5, pc}
ARM GAS  /tmp/ccqURGLh.s 			page 5


 225              	.LVL17:
 226              	.L14:
 227              	.LBE5:
 228              		.loc 1 123 0 discriminator 1
 229 0042 40F20000 		movw	r0, #:lower16:.LC2
 230              	.LVL18:
 231 0046 C0F20000 		movt	r0, #:upper16:.LC2
 232 004a FFF7FEFF 		bl	chDbgPanic
 233              	.LVL19:
 234 004e DAE7     		b	.L12
 235              		.cfi_endproc
 236              	.LFE121:
 237              		.size	uartStop, .-uartStop
 238              		.section	.text.uartStartSend,"ax",%progbits
 239              		.align	2
 240              		.p2align 4,,15
 241              		.global	uartStartSend
 242              		.thumb
 243              		.thumb_func
 244              		.type	uartStartSend, %function
 245              	uartStartSend:
 246              	.LFB122:
 247              		.loc 1 147 0
 248              		.cfi_startproc
 249              		@ args = 0, pretend = 0, frame = 0
 250              		@ frame_needed = 0, uses_anonymous_args = 0
 251              	.LVL20:
 252              		.loc 1 149 0
 253 0000 0029     		cmp	r1, #0
 254 0002 18BF     		it	ne
 255 0004 0028     		cmpne	r0, #0
 256              		.loc 1 147 0
 257 0006 70B5     		push	{r4, r5, r6, lr}
 258              		.cfi_def_cfa_offset 16
 259              		.cfi_offset 4, -16
 260              		.cfi_offset 5, -12
 261              		.cfi_offset 6, -8
 262              		.cfi_offset 14, -4
 263              		.loc 1 149 0
 264 0008 0446     		mov	r4, r0
 265 000a 0D46     		mov	r5, r1
 266              		.loc 1 147 0
 267 000c 1646     		mov	r6, r2
 268              		.loc 1 149 0
 269 000e 1ED0     		beq	.L16
 270              		.loc 1 149 0 is_stmt 0 discriminator 2
 271 0010 EAB1     		cbz	r2, .L16
 272              	.LVL21:
 273              	.L17:
 274              	.LBB6:
 275              		.loc 1 152 0 is_stmt 1
 276 0012 2023     		movs	r3, #32
 277              	@ 152 "../../../os/hal/src/uart.c" 1
 278 0014 83F31188 		msr     BASEPRI, r3
 279              	@ 0 "" 2
 280              		.thumb
 281              	.LBE6:
ARM GAS  /tmp/ccqURGLh.s 			page 6


 282 0018 FFF7FEFF 		bl	dbg_check_lock
 283              	.LVL22:
 284              		.loc 1 153 0
 285 001c 2378     		ldrb	r3, [r4]	@ zero_extendqisi2
 286 001e 022B     		cmp	r3, #2
 287 0020 05D0     		beq	.L18
 288              		.loc 1 153 0 is_stmt 0 discriminator 1
 289 0022 40F20000 		movw	r0, #:lower16:.LC5
 290 0026 C0F20000 		movt	r0, #:upper16:.LC5
 291 002a FFF7FEFF 		bl	chDbgPanic
 292              	.LVL23:
 293              	.L18:
 294              		.loc 1 155 0 is_stmt 1
 295 002e 6378     		ldrb	r3, [r4, #1]	@ zero_extendqisi2
 296 0030 012B     		cmp	r3, #1
 297 0032 13D0     		beq	.L23
 298              	.L19:
 299              		.loc 1 158 0
 300 0034 2946     		mov	r1, r5
 301 0036 3246     		mov	r2, r6
 302 0038 2046     		mov	r0, r4
 303 003a FFF7FEFF 		bl	uart_lld_start_send
 304              	.LVL24:
 305              		.loc 1 159 0
 306 003e 0123     		movs	r3, #1
 307 0040 6370     		strb	r3, [r4, #1]
 308              		.loc 1 160 0
 309 0042 FFF7FEFF 		bl	dbg_check_unlock
 310              	.LVL25:
 311              	.LBB7:
 312 0046 0023     		movs	r3, #0
 313              	@ 160 "../../../os/hal/src/uart.c" 1
 314 0048 83F31188 		msr     BASEPRI, r3
 315              	@ 0 "" 2
 316              		.thumb
 317 004c 70BD     		pop	{r4, r5, r6, pc}
 318              	.LVL26:
 319              	.L16:
 320              	.LBE7:
 321              		.loc 1 149 0 discriminator 1
 322 004e 40F20000 		movw	r0, #:lower16:.LC4
 323              	.LVL27:
 324 0052 C0F20000 		movt	r0, #:upper16:.LC4
 325 0056 FFF7FEFF 		bl	chDbgPanic
 326              	.LVL28:
 327 005a DAE7     		b	.L17
 328              	.L23:
 329              		.loc 1 155 0 discriminator 1
 330 005c 40F20000 		movw	r0, #:lower16:.LC6
 331 0060 C0F20000 		movt	r0, #:upper16:.LC6
 332 0064 FFF7FEFF 		bl	chDbgPanic
 333              	.LVL29:
 334 0068 E4E7     		b	.L19
 335              		.cfi_endproc
 336              	.LFE122:
 337              		.size	uartStartSend, .-uartStartSend
 338 006a 00BFAFF3 		.section	.text.uartStartSendI,"ax",%progbits
ARM GAS  /tmp/ccqURGLh.s 			page 7


 338      0080
 339              		.align	2
 340              		.p2align 4,,15
 341              		.global	uartStartSendI
 342              		.thumb
 343              		.thumb_func
 344              		.type	uartStartSendI, %function
 345              	uartStartSendI:
 346              	.LFB123:
 347              		.loc 1 175 0
 348              		.cfi_startproc
 349              		@ args = 0, pretend = 0, frame = 0
 350              		@ frame_needed = 0, uses_anonymous_args = 0
 351              	.LVL30:
 352 0000 70B5     		push	{r4, r5, r6, lr}
 353              		.cfi_def_cfa_offset 16
 354              		.cfi_offset 4, -16
 355              		.cfi_offset 5, -12
 356              		.cfi_offset 6, -8
 357              		.cfi_offset 14, -4
 358              		.loc 1 175 0
 359 0002 0446     		mov	r4, r0
 360 0004 0D46     		mov	r5, r1
 361 0006 1646     		mov	r6, r2
 362              		.loc 1 177 0
 363 0008 FFF7FEFF 		bl	chDbgCheckClassI
 364              	.LVL31:
 365              		.loc 1 178 0
 366 000c 002D     		cmp	r5, #0
 367 000e 18BF     		it	ne
 368 0010 002C     		cmpne	r4, #0
 369 0012 14D0     		beq	.L25
 370              		.loc 1 178 0 is_stmt 0 discriminator 2
 371 0014 9EB1     		cbz	r6, .L25
 372              	.L26:
 373              		.loc 1 180 0 is_stmt 1
 374 0016 2378     		ldrb	r3, [r4]	@ zero_extendqisi2
 375 0018 022B     		cmp	r3, #2
 376 001a 05D0     		beq	.L27
 377              		.loc 1 180 0 is_stmt 0 discriminator 1
 378 001c 40F20000 		movw	r0, #:lower16:.LC8
 379 0020 C0F20000 		movt	r0, #:upper16:.LC8
 380 0024 FFF7FEFF 		bl	chDbgPanic
 381              	.LVL32:
 382              	.L27:
 383              		.loc 1 182 0 is_stmt 1
 384 0028 6378     		ldrb	r3, [r4, #1]	@ zero_extendqisi2
 385 002a 012B     		cmp	r3, #1
 386 002c 0ED0     		beq	.L32
 387              	.L28:
 388              		.loc 1 185 0
 389 002e 2946     		mov	r1, r5
 390 0030 3246     		mov	r2, r6
 391 0032 2046     		mov	r0, r4
 392 0034 FFF7FEFF 		bl	uart_lld_start_send
 393              	.LVL33:
 394              		.loc 1 186 0
ARM GAS  /tmp/ccqURGLh.s 			page 8


 395 0038 0123     		movs	r3, #1
 396 003a 6370     		strb	r3, [r4, #1]
 397 003c 70BD     		pop	{r4, r5, r6, pc}
 398              	.LVL34:
 399              	.L25:
 400              		.loc 1 178 0 discriminator 1
 401 003e 40F20000 		movw	r0, #:lower16:.LC7
 402 0042 C0F20000 		movt	r0, #:upper16:.LC7
 403 0046 FFF7FEFF 		bl	chDbgPanic
 404              	.LVL35:
 405 004a E4E7     		b	.L26
 406              	.L32:
 407              		.loc 1 182 0 discriminator 1
 408 004c 40F20000 		movw	r0, #:lower16:.LC9
 409 0050 C0F20000 		movt	r0, #:upper16:.LC9
 410 0054 FFF7FEFF 		bl	chDbgPanic
 411              	.LVL36:
 412 0058 E9E7     		b	.L28
 413              		.cfi_endproc
 414              	.LFE123:
 415              		.size	uartStartSendI, .-uartStartSendI
 416 005a 00BFAFF3 		.section	.text.uartStopSend,"ax",%progbits
 416      0080
 417              		.align	2
 418              		.p2align 4,,15
 419              		.global	uartStopSend
 420              		.thumb
 421              		.thumb_func
 422              		.type	uartStopSend, %function
 423              	uartStopSend:
 424              	.LFB124:
 425              		.loc 1 201 0
 426              		.cfi_startproc
 427              		@ args = 0, pretend = 0, frame = 0
 428              		@ frame_needed = 0, uses_anonymous_args = 0
 429              	.LVL37:
 430 0000 38B5     		push	{r3, r4, r5, lr}
 431              		.cfi_def_cfa_offset 16
 432              		.cfi_offset 3, -16
 433              		.cfi_offset 4, -12
 434              		.cfi_offset 5, -8
 435              		.cfi_offset 14, -4
 436              		.loc 1 204 0
 437 0002 0446     		mov	r4, r0
 438 0004 00B3     		cbz	r0, .L41
 439              	.LVL38:
 440              	.L34:
 441              	.LBB8:
 442              		.loc 1 206 0
 443 0006 2023     		movs	r3, #32
 444              	@ 206 "../../../os/hal/src/uart.c" 1
 445 0008 83F31188 		msr     BASEPRI, r3
 446              	@ 0 "" 2
 447              		.thumb
 448              	.LBE8:
 449 000c FFF7FEFF 		bl	dbg_check_lock
 450              	.LVL39:
ARM GAS  /tmp/ccqURGLh.s 			page 9


 451              		.loc 1 207 0
 452 0010 2378     		ldrb	r3, [r4]	@ zero_extendqisi2
 453 0012 022B     		cmp	r3, #2
 454 0014 05D0     		beq	.L35
 455              		.loc 1 207 0 is_stmt 0 discriminator 1
 456 0016 40F20000 		movw	r0, #:lower16:.LC11
 457 001a C0F20000 		movt	r0, #:upper16:.LC11
 458 001e FFF7FEFF 		bl	chDbgPanic
 459              	.LVL40:
 460              	.L35:
 461              		.loc 1 209 0 is_stmt 1
 462 0022 6378     		ldrb	r3, [r4, #1]	@ zero_extendqisi2
 463 0024 012B     		cmp	r3, #1
 464              		.loc 1 214 0
 465 0026 18BF     		it	ne
 466 0028 0025     		movne	r5, #0
 467              		.loc 1 209 0
 468 002a 06D0     		beq	.L42
 469              	.L36:
 470              	.LVL41:
 471              		.loc 1 215 0
 472 002c FFF7FEFF 		bl	dbg_check_unlock
 473              	.LVL42:
 474              	.LBB9:
 475 0030 0023     		movs	r3, #0
 476              	@ 215 "../../../os/hal/src/uart.c" 1
 477 0032 83F31188 		msr     BASEPRI, r3
 478              	@ 0 "" 2
 479              		.thumb
 480              	.LBE9:
 481              		.loc 1 217 0
 482 0036 2846     		mov	r0, r5
 483 0038 38BD     		pop	{r3, r4, r5, pc}
 484              	.LVL43:
 485              	.L42:
 486              		.loc 1 210 0
 487 003a 2046     		mov	r0, r4
 488 003c FFF7FEFF 		bl	uart_lld_stop_send
 489              	.LVL44:
 490              		.loc 1 211 0
 491 0040 0023     		movs	r3, #0
 492              		.loc 1 210 0
 493 0042 0546     		mov	r5, r0
 494              	.LVL45:
 495              		.loc 1 211 0
 496 0044 6370     		strb	r3, [r4, #1]
 497 0046 F1E7     		b	.L36
 498              	.LVL46:
 499              	.L41:
 500              		.loc 1 204 0 discriminator 1
 501 0048 40F20000 		movw	r0, #:lower16:.LC10
 502              	.LVL47:
 503 004c C0F20000 		movt	r0, #:upper16:.LC10
 504 0050 FFF7FEFF 		bl	chDbgPanic
 505              	.LVL48:
 506 0054 D7E7     		b	.L34
 507              		.cfi_endproc
ARM GAS  /tmp/ccqURGLh.s 			page 10


 508              	.LFE124:
 509              		.size	uartStopSend, .-uartStopSend
 510 0056 00BFAFF3 		.section	.text.uartStopSendI,"ax",%progbits
 510      0080AFF3 
 510      0080
 511              		.align	2
 512              		.p2align 4,,15
 513              		.global	uartStopSendI
 514              		.thumb
 515              		.thumb_func
 516              		.type	uartStopSendI, %function
 517              	uartStopSendI:
 518              	.LFB125:
 519              		.loc 1 232 0
 520              		.cfi_startproc
 521              		@ args = 0, pretend = 0, frame = 0
 522              		@ frame_needed = 0, uses_anonymous_args = 0
 523              	.LVL49:
 524 0000 10B5     		push	{r4, lr}
 525              		.cfi_def_cfa_offset 8
 526              		.cfi_offset 4, -8
 527              		.cfi_offset 14, -4
 528              		.loc 1 232 0
 529 0002 0446     		mov	r4, r0
 530              		.loc 1 234 0
 531 0004 FFF7FEFF 		bl	chDbgCheckClassI
 532              	.LVL50:
 533              		.loc 1 235 0
 534 0008 9CB1     		cbz	r4, .L51
 535              	.L44:
 536              		.loc 1 236 0
 537 000a 2378     		ldrb	r3, [r4]	@ zero_extendqisi2
 538 000c 022B     		cmp	r3, #2
 539 000e 05D0     		beq	.L45
 540              		.loc 1 236 0 is_stmt 0 discriminator 1
 541 0010 40F20000 		movw	r0, #:lower16:.LC13
 542 0014 C0F20000 		movt	r0, #:upper16:.LC13
 543 0018 FFF7FEFF 		bl	chDbgPanic
 544              	.LVL51:
 545              	.L45:
 546              		.loc 1 238 0 is_stmt 1
 547 001c 6378     		ldrb	r3, [r4, #1]	@ zero_extendqisi2
 548 001e 012B     		cmp	r3, #1
 549 0020 01D0     		beq	.L52
 550              		.loc 1 243 0
 551 0022 0020     		movs	r0, #0
 552              		.loc 1 244 0
 553 0024 10BD     		pop	{r4, pc}
 554              	.LVL52:
 555              	.L52:
 556              	.LBB10:
 557              		.loc 1 239 0
 558 0026 2046     		mov	r0, r4
 559 0028 FFF7FEFF 		bl	uart_lld_stop_send
 560              	.LVL53:
 561              		.loc 1 240 0
 562 002c 0023     		movs	r3, #0
ARM GAS  /tmp/ccqURGLh.s 			page 11


 563 002e 6370     		strb	r3, [r4, #1]
 564              		.loc 1 241 0
 565 0030 10BD     		pop	{r4, pc}
 566              	.LVL54:
 567              	.L51:
 568              	.LBE10:
 569              		.loc 1 235 0 discriminator 1
 570 0032 40F20000 		movw	r0, #:lower16:.LC12
 571 0036 C0F20000 		movt	r0, #:upper16:.LC12
 572 003a FFF7FEFF 		bl	chDbgPanic
 573              	.LVL55:
 574 003e E4E7     		b	.L44
 575              		.cfi_endproc
 576              	.LFE125:
 577              		.size	uartStopSendI, .-uartStopSendI
 578              		.section	.text.uartStartReceive,"ax",%progbits
 579              		.align	2
 580              		.p2align 4,,15
 581              		.global	uartStartReceive
 582              		.thumb
 583              		.thumb_func
 584              		.type	uartStartReceive, %function
 585              	uartStartReceive:
 586              	.LFB126:
 587              		.loc 1 257 0
 588              		.cfi_startproc
 589              		@ args = 0, pretend = 0, frame = 0
 590              		@ frame_needed = 0, uses_anonymous_args = 0
 591              	.LVL56:
 592              		.loc 1 259 0
 593 0000 0029     		cmp	r1, #0
 594 0002 18BF     		it	ne
 595 0004 0028     		cmpne	r0, #0
 596              		.loc 1 257 0
 597 0006 70B5     		push	{r4, r5, r6, lr}
 598              		.cfi_def_cfa_offset 16
 599              		.cfi_offset 4, -16
 600              		.cfi_offset 5, -12
 601              		.cfi_offset 6, -8
 602              		.cfi_offset 14, -4
 603              		.loc 1 259 0
 604 0008 0446     		mov	r4, r0
 605 000a 0D46     		mov	r5, r1
 606              		.loc 1 257 0
 607 000c 1646     		mov	r6, r2
 608              		.loc 1 259 0
 609 000e 1ED0     		beq	.L54
 610              		.loc 1 259 0 is_stmt 0 discriminator 2
 611 0010 EAB1     		cbz	r2, .L54
 612              	.LVL57:
 613              	.L55:
 614              	.LBB11:
 615              		.loc 1 262 0 is_stmt 1
 616 0012 2023     		movs	r3, #32
 617              	@ 262 "../../../os/hal/src/uart.c" 1
 618 0014 83F31188 		msr     BASEPRI, r3
 619              	@ 0 "" 2
ARM GAS  /tmp/ccqURGLh.s 			page 12


 620              		.thumb
 621              	.LBE11:
 622 0018 FFF7FEFF 		bl	dbg_check_lock
 623              	.LVL58:
 624              		.loc 1 263 0
 625 001c 2378     		ldrb	r3, [r4]	@ zero_extendqisi2
 626 001e 022B     		cmp	r3, #2
 627 0020 05D0     		beq	.L56
 628              		.loc 1 263 0 is_stmt 0 discriminator 1
 629 0022 40F20000 		movw	r0, #:lower16:.LC15
 630 0026 C0F20000 		movt	r0, #:upper16:.LC15
 631 002a FFF7FEFF 		bl	chDbgPanic
 632              	.LVL59:
 633              	.L56:
 634              		.loc 1 265 0 is_stmt 1
 635 002e A378     		ldrb	r3, [r4, #2]	@ zero_extendqisi2
 636 0030 012B     		cmp	r3, #1
 637 0032 13D0     		beq	.L61
 638              	.L57:
 639              		.loc 1 268 0
 640 0034 2946     		mov	r1, r5
 641 0036 3246     		mov	r2, r6
 642 0038 2046     		mov	r0, r4
 643 003a FFF7FEFF 		bl	uart_lld_start_receive
 644              	.LVL60:
 645              		.loc 1 269 0
 646 003e 0123     		movs	r3, #1
 647 0040 A370     		strb	r3, [r4, #2]
 648              		.loc 1 270 0
 649 0042 FFF7FEFF 		bl	dbg_check_unlock
 650              	.LVL61:
 651              	.LBB12:
 652 0046 0023     		movs	r3, #0
 653              	@ 270 "../../../os/hal/src/uart.c" 1
 654 0048 83F31188 		msr     BASEPRI, r3
 655              	@ 0 "" 2
 656              		.thumb
 657 004c 70BD     		pop	{r4, r5, r6, pc}
 658              	.LVL62:
 659              	.L54:
 660              	.LBE12:
 661              		.loc 1 259 0 discriminator 1
 662 004e 40F20000 		movw	r0, #:lower16:.LC14
 663              	.LVL63:
 664 0052 C0F20000 		movt	r0, #:upper16:.LC14
 665 0056 FFF7FEFF 		bl	chDbgPanic
 666              	.LVL64:
 667 005a DAE7     		b	.L55
 668              	.L61:
 669              		.loc 1 265 0 discriminator 1
 670 005c 40F20000 		movw	r0, #:lower16:.LC16
 671 0060 C0F20000 		movt	r0, #:upper16:.LC16
 672 0064 FFF7FEFF 		bl	chDbgPanic
 673              	.LVL65:
 674 0068 E4E7     		b	.L57
 675              		.cfi_endproc
 676              	.LFE126:
ARM GAS  /tmp/ccqURGLh.s 			page 13


 677              		.size	uartStartReceive, .-uartStartReceive
 678 006a 00BFAFF3 		.section	.text.uartStartReceiveI,"ax",%progbits
 678      0080
 679              		.align	2
 680              		.p2align 4,,15
 681              		.global	uartStartReceiveI
 682              		.thumb
 683              		.thumb_func
 684              		.type	uartStartReceiveI, %function
 685              	uartStartReceiveI:
 686              	.LFB127:
 687              		.loc 1 285 0
 688              		.cfi_startproc
 689              		@ args = 0, pretend = 0, frame = 0
 690              		@ frame_needed = 0, uses_anonymous_args = 0
 691              	.LVL66:
 692 0000 70B5     		push	{r4, r5, r6, lr}
 693              		.cfi_def_cfa_offset 16
 694              		.cfi_offset 4, -16
 695              		.cfi_offset 5, -12
 696              		.cfi_offset 6, -8
 697              		.cfi_offset 14, -4
 698              		.loc 1 285 0
 699 0002 0446     		mov	r4, r0
 700 0004 0D46     		mov	r5, r1
 701 0006 1646     		mov	r6, r2
 702              		.loc 1 287 0
 703 0008 FFF7FEFF 		bl	chDbgCheckClassI
 704              	.LVL67:
 705              		.loc 1 288 0
 706 000c 002D     		cmp	r5, #0
 707 000e 18BF     		it	ne
 708 0010 002C     		cmpne	r4, #0
 709 0012 14D0     		beq	.L63
 710              		.loc 1 288 0 is_stmt 0 discriminator 2
 711 0014 9EB1     		cbz	r6, .L63
 712              	.L64:
 713              		.loc 1 290 0 is_stmt 1
 714 0016 2378     		ldrb	r3, [r4]	@ zero_extendqisi2
 715 0018 022B     		cmp	r3, #2
 716 001a 05D0     		beq	.L65
 717              		.loc 1 290 0 is_stmt 0 discriminator 1
 718 001c 40F20000 		movw	r0, #:lower16:.LC18
 719 0020 C0F20000 		movt	r0, #:upper16:.LC18
 720 0024 FFF7FEFF 		bl	chDbgPanic
 721              	.LVL68:
 722              	.L65:
 723              		.loc 1 292 0 is_stmt 1
 724 0028 A378     		ldrb	r3, [r4, #2]	@ zero_extendqisi2
 725 002a 012B     		cmp	r3, #1
 726 002c 0ED0     		beq	.L70
 727              	.L66:
 728              		.loc 1 295 0
 729 002e 2946     		mov	r1, r5
 730 0030 3246     		mov	r2, r6
 731 0032 2046     		mov	r0, r4
 732 0034 FFF7FEFF 		bl	uart_lld_start_receive
ARM GAS  /tmp/ccqURGLh.s 			page 14


 733              	.LVL69:
 734              		.loc 1 296 0
 735 0038 0123     		movs	r3, #1
 736 003a A370     		strb	r3, [r4, #2]
 737 003c 70BD     		pop	{r4, r5, r6, pc}
 738              	.LVL70:
 739              	.L63:
 740              		.loc 1 288 0 discriminator 1
 741 003e 40F20000 		movw	r0, #:lower16:.LC17
 742 0042 C0F20000 		movt	r0, #:upper16:.LC17
 743 0046 FFF7FEFF 		bl	chDbgPanic
 744              	.LVL71:
 745 004a E4E7     		b	.L64
 746              	.L70:
 747              		.loc 1 292 0 discriminator 1
 748 004c 40F20000 		movw	r0, #:lower16:.LC19
 749 0050 C0F20000 		movt	r0, #:upper16:.LC19
 750 0054 FFF7FEFF 		bl	chDbgPanic
 751              	.LVL72:
 752 0058 E9E7     		b	.L66
 753              		.cfi_endproc
 754              	.LFE127:
 755              		.size	uartStartReceiveI, .-uartStartReceiveI
 756 005a 00BFAFF3 		.section	.text.uartStopReceive,"ax",%progbits
 756      0080
 757              		.align	2
 758              		.p2align 4,,15
 759              		.global	uartStopReceive
 760              		.thumb
 761              		.thumb_func
 762              		.type	uartStopReceive, %function
 763              	uartStopReceive:
 764              	.LFB128:
 765              		.loc 1 311 0
 766              		.cfi_startproc
 767              		@ args = 0, pretend = 0, frame = 0
 768              		@ frame_needed = 0, uses_anonymous_args = 0
 769              	.LVL73:
 770 0000 38B5     		push	{r3, r4, r5, lr}
 771              		.cfi_def_cfa_offset 16
 772              		.cfi_offset 3, -16
 773              		.cfi_offset 4, -12
 774              		.cfi_offset 5, -8
 775              		.cfi_offset 14, -4
 776              		.loc 1 314 0
 777 0002 0446     		mov	r4, r0
 778 0004 00B3     		cbz	r0, .L79
 779              	.LVL74:
 780              	.L72:
 781              	.LBB13:
 782              		.loc 1 316 0
 783 0006 2023     		movs	r3, #32
 784              	@ 316 "../../../os/hal/src/uart.c" 1
 785 0008 83F31188 		msr     BASEPRI, r3
 786              	@ 0 "" 2
 787              		.thumb
 788              	.LBE13:
ARM GAS  /tmp/ccqURGLh.s 			page 15


 789 000c FFF7FEFF 		bl	dbg_check_lock
 790              	.LVL75:
 791              		.loc 1 317 0
 792 0010 2378     		ldrb	r3, [r4]	@ zero_extendqisi2
 793 0012 022B     		cmp	r3, #2
 794 0014 05D0     		beq	.L73
 795              		.loc 1 317 0 is_stmt 0 discriminator 1
 796 0016 40F20000 		movw	r0, #:lower16:.LC21
 797 001a C0F20000 		movt	r0, #:upper16:.LC21
 798 001e FFF7FEFF 		bl	chDbgPanic
 799              	.LVL76:
 800              	.L73:
 801              		.loc 1 320 0 is_stmt 1
 802 0022 A378     		ldrb	r3, [r4, #2]	@ zero_extendqisi2
 803 0024 012B     		cmp	r3, #1
 804              		.loc 1 325 0
 805 0026 18BF     		it	ne
 806 0028 0025     		movne	r5, #0
 807              		.loc 1 320 0
 808 002a 06D0     		beq	.L80
 809              	.L74:
 810              	.LVL77:
 811              		.loc 1 326 0
 812 002c FFF7FEFF 		bl	dbg_check_unlock
 813              	.LVL78:
 814              	.LBB14:
 815 0030 0023     		movs	r3, #0
 816              	@ 326 "../../../os/hal/src/uart.c" 1
 817 0032 83F31188 		msr     BASEPRI, r3
 818              	@ 0 "" 2
 819              		.thumb
 820              	.LBE14:
 821              		.loc 1 328 0
 822 0036 2846     		mov	r0, r5
 823 0038 38BD     		pop	{r3, r4, r5, pc}
 824              	.LVL79:
 825              	.L80:
 826              		.loc 1 321 0
 827 003a 2046     		mov	r0, r4
 828 003c FFF7FEFF 		bl	uart_lld_stop_receive
 829              	.LVL80:
 830              		.loc 1 322 0
 831 0040 0023     		movs	r3, #0
 832              		.loc 1 321 0
 833 0042 0546     		mov	r5, r0
 834              	.LVL81:
 835              		.loc 1 322 0
 836 0044 A370     		strb	r3, [r4, #2]
 837 0046 F1E7     		b	.L74
 838              	.LVL82:
 839              	.L79:
 840              		.loc 1 314 0 discriminator 1
 841 0048 40F20000 		movw	r0, #:lower16:.LC20
 842              	.LVL83:
 843 004c C0F20000 		movt	r0, #:upper16:.LC20
 844 0050 FFF7FEFF 		bl	chDbgPanic
 845              	.LVL84:
ARM GAS  /tmp/ccqURGLh.s 			page 16


 846 0054 D7E7     		b	.L72
 847              		.cfi_endproc
 848              	.LFE128:
 849              		.size	uartStopReceive, .-uartStopReceive
 850 0056 00BFAFF3 		.section	.text.uartStopReceiveI,"ax",%progbits
 850      0080AFF3 
 850      0080
 851              		.align	2
 852              		.p2align 4,,15
 853              		.global	uartStopReceiveI
 854              		.thumb
 855              		.thumb_func
 856              		.type	uartStopReceiveI, %function
 857              	uartStopReceiveI:
 858              	.LFB129:
 859              		.loc 1 343 0
 860              		.cfi_startproc
 861              		@ args = 0, pretend = 0, frame = 0
 862              		@ frame_needed = 0, uses_anonymous_args = 0
 863              	.LVL85:
 864 0000 10B5     		push	{r4, lr}
 865              		.cfi_def_cfa_offset 8
 866              		.cfi_offset 4, -8
 867              		.cfi_offset 14, -4
 868              		.loc 1 343 0
 869 0002 0446     		mov	r4, r0
 870              		.loc 1 345 0
 871 0004 FFF7FEFF 		bl	chDbgCheckClassI
 872              	.LVL86:
 873              		.loc 1 346 0
 874 0008 9CB1     		cbz	r4, .L89
 875              	.L82:
 876              		.loc 1 347 0
 877 000a 2378     		ldrb	r3, [r4]	@ zero_extendqisi2
 878 000c 022B     		cmp	r3, #2
 879 000e 05D0     		beq	.L83
 880              		.loc 1 347 0 is_stmt 0 discriminator 1
 881 0010 40F20000 		movw	r0, #:lower16:.LC23
 882 0014 C0F20000 		movt	r0, #:upper16:.LC23
 883 0018 FFF7FEFF 		bl	chDbgPanic
 884              	.LVL87:
 885              	.L83:
 886              		.loc 1 350 0 is_stmt 1
 887 001c A378     		ldrb	r3, [r4, #2]	@ zero_extendqisi2
 888 001e 012B     		cmp	r3, #1
 889 0020 01D0     		beq	.L90
 890              		.loc 1 355 0
 891 0022 0020     		movs	r0, #0
 892              		.loc 1 356 0
 893 0024 10BD     		pop	{r4, pc}
 894              	.LVL88:
 895              	.L90:
 896              	.LBB15:
 897              		.loc 1 351 0
 898 0026 2046     		mov	r0, r4
 899 0028 FFF7FEFF 		bl	uart_lld_stop_receive
 900              	.LVL89:
ARM GAS  /tmp/ccqURGLh.s 			page 17


 901              		.loc 1 352 0
 902 002c 0023     		movs	r3, #0
 903 002e A370     		strb	r3, [r4, #2]
 904              		.loc 1 353 0
 905 0030 10BD     		pop	{r4, pc}
 906              	.LVL90:
 907              	.L89:
 908              	.LBE15:
 909              		.loc 1 346 0 discriminator 1
 910 0032 40F20000 		movw	r0, #:lower16:.LC22
 911 0036 C0F20000 		movt	r0, #:upper16:.LC22
 912 003a FFF7FEFF 		bl	chDbgPanic
 913              	.LVL91:
 914 003e E4E7     		b	.L82
 915              		.cfi_endproc
 916              	.LFE129:
 917              		.size	uartStopReceiveI, .-uartStopReceiveI
 918              		.section	.rodata.str1.4,"aMS",%progbits,1
 919              		.align	2
 920              	.LC0:
 921 0000 22756172 		.ascii	"\"uartStart\"()\000"
 921      74537461 
 921      72742228 
 921      2900
 922 000e 0000     		.space	2
 923              	.LC1:
 924 0010 75617274 		.ascii	"uartStart(), #1\000"
 924      53746172 
 924      7428292C 
 924      20233100 
 925              	.LC2:
 926 0020 22756172 		.ascii	"\"uartStop\"()\000"
 926      7453746F 
 926      70222829 
 926      00
 927 002d 000000   		.space	3
 928              	.LC3:
 929 0030 75617274 		.ascii	"uartStop(), #1\000"
 929      53746F70 
 929      28292C20 
 929      233100
 930 003f 00       		.space	1
 931              	.LC4:
 932 0040 22756172 		.ascii	"\"uartStartSend\"()\000"
 932      74537461 
 932      72745365 
 932      6E642228 
 932      2900
 933 0052 0000     		.space	2
 934              	.LC5:
 935 0054 75617274 		.ascii	"uartStartSend(), #1\000"
 935      53746172 
 935      7453656E 
 935      6428292C 
 935      20233100 
 936              	.LC6:
 937 0068 75617274 		.ascii	"uartStartSend(), #2\000"
ARM GAS  /tmp/ccqURGLh.s 			page 18


 937      53746172 
 937      7453656E 
 937      6428292C 
 937      20233200 
 938              	.LC7:
 939 007c 22756172 		.ascii	"\"uartStartSendI\"()\000"
 939      74537461 
 939      72745365 
 939      6E644922 
 939      282900
 940 008f 00       		.space	1
 941              	.LC8:
 942 0090 75617274 		.ascii	"uartStartSendI(), #1\000"
 942      53746172 
 942      7453656E 
 942      64492829 
 942      2C202331 
 943 00a5 000000   		.space	3
 944              	.LC9:
 945 00a8 75617274 		.ascii	"uartStartSendI(), #2\000"
 945      53746172 
 945      7453656E 
 945      64492829 
 945      2C202332 
 946 00bd 000000   		.space	3
 947              	.LC10:
 948 00c0 22756172 		.ascii	"\"uartStopSend\"()\000"
 948      7453746F 
 948      7053656E 
 948      64222829 
 948      00
 949 00d1 000000   		.space	3
 950              	.LC11:
 951 00d4 75617274 		.ascii	"uartStopSend(), #1\000"
 951      53746F70 
 951      53656E64 
 951      28292C20 
 951      233100
 952 00e7 00       		.space	1
 953              	.LC12:
 954 00e8 22756172 		.ascii	"\"uartStopSendI\"()\000"
 954      7453746F 
 954      7053656E 
 954      64492228 
 954      2900
 955 00fa 0000     		.space	2
 956              	.LC13:
 957 00fc 75617274 		.ascii	"uartStopSendI(), #1\000"
 957      53746F70 
 957      53656E64 
 957      4928292C 
 957      20233100 
 958              	.LC14:
 959 0110 22756172 		.ascii	"\"uartStartReceive\"()\000"
 959      74537461 
 959      72745265 
 959      63656976 
ARM GAS  /tmp/ccqURGLh.s 			page 19


 959      65222829 
 960 0125 000000   		.space	3
 961              	.LC15:
 962 0128 75617274 		.ascii	"uartStartReceive(), #1\000"
 962      53746172 
 962      74526563 
 962      65697665 
 962      28292C20 
 963 013f 00       		.space	1
 964              	.LC16:
 965 0140 75617274 		.ascii	"uartStartReceive(), #2\000"
 965      53746172 
 965      74526563 
 965      65697665 
 965      28292C20 
 966 0157 00       		.space	1
 967              	.LC17:
 968 0158 22756172 		.ascii	"\"uartStartReceiveI\"()\000"
 968      74537461 
 968      72745265 
 968      63656976 
 968      65492228 
 969 016e 0000     		.space	2
 970              	.LC18:
 971 0170 75617274 		.ascii	"uartStartReceiveI(), #1\000"
 971      53746172 
 971      74526563 
 971      65697665 
 971      4928292C 
 972              	.LC19:
 973 0188 75617274 		.ascii	"uartStartReceiveI(), #2\000"
 973      53746172 
 973      74526563 
 973      65697665 
 973      4928292C 
 974              	.LC20:
 975 01a0 22756172 		.ascii	"\"uartStopReceive\"()\000"
 975      7453746F 
 975      70526563 
 975      65697665 
 975      22282900 
 976              	.LC21:
 977 01b4 75617274 		.ascii	"uartStopReceive(), #1\000"
 977      53746F70 
 977      52656365 
 977      69766528 
 977      292C2023 
 978 01ca 0000     		.space	2
 979              	.LC22:
 980 01cc 22756172 		.ascii	"\"uartStopReceiveI\"()\000"
 980      7453746F 
 980      70526563 
 980      65697665 
 980      49222829 
 981 01e1 000000   		.space	3
 982              	.LC23:
 983 01e4 75617274 		.ascii	"uartStopReceiveI(), #1\000"
ARM GAS  /tmp/ccqURGLh.s 			page 20


 983      53746F70 
 983      52656365 
 983      69766549 
 983      28292C20 
 984 01fb 00       		.text
 985              	.Letext0:
 986              		.file 2 "/usr/lib/gcc/arm-none-eabi/4.8.2/include/stddef.h"
 987              		.file 3 "/usr/arm-none-eabi/include/machine/_default_types.h"
 988              		.file 4 "/usr/arm-none-eabi/include/stdint.h"
 989              		.file 5 "../../../os/hal/platforms/STM32F4xx/stm32f4xx.h"
 990              		.file 6 "../../../os/hal/platforms/STM32F4xx/stm32_dma.h"
 991              		.file 7 "../../../os/hal/include/uart.h"
 992              		.file 8 "../../../os/hal/platforms/STM32/USARTv1/uart_lld.h"
 993              		.file 9 "../../../os/kernel/include/chdebug.h"
 994              		.file 10 "../../../os/ports/common/ARMCMx/CMSIS/include/core_cm4.h"