ARM GAS  /tmp/ccIYgS30.s 			page 1


   1              		.syntax unified
   2              		.cpu cortex-m4
   3              		.fpu softvfp
   4              		.eabi_attribute 20, 1
   5              		.eabi_attribute 21, 1
   6              		.eabi_attribute 23, 3
   7              		.eabi_attribute 24, 1
   8              		.eabi_attribute 25, 1
   9              		.eabi_attribute 26, 1
  10              		.eabi_attribute 30, 2
  11              		.eabi_attribute 34, 1
  12              		.eabi_attribute 18, 4
  13              		.thumb
  14              		.file	"uart_lld.c"
  15              		.text
  16              	.Ltext0:
  17              		.cfi_sections	.debug_frame
  18              		.section	.text.usart_stop,"ax",%progbits
  19              		.align	2
  20              		.p2align 4,,15
  21              		.thumb
  22              		.thumb_func
  23              		.type	usart_stop, %function
  24              	usart_stop:
  25              	.LFB120:
  26              		.file 1 "../../../os/hal/platforms/STM32/USARTv1/uart_lld.c"
  27              		.loc 1 181 0
  28              		.cfi_startproc
  29              		@ args = 0, pretend = 0, frame = 0
  30              		@ frame_needed = 0, uses_anonymous_args = 0
  31              		@ link register save eliminated.
  32              	.LVL0:
  33 0000 30B4     		push	{r4, r5}
  34              		.cfi_def_cfa_offset 8
  35              		.cfi_offset 4, -8
  36              		.cfi_offset 5, -4
  37              		.loc 1 184 0
  38 0002 0469     		ldr	r4, [r0, #16]
  39 0004 2268     		ldr	r2, [r4]
  40 0006 1368     		ldr	r3, [r2]
  41 0008 23F01F03 		bic	r3, r3, #31
  42 000c 1360     		str	r3, [r2]
  43              	.L3:
  44              		.loc 1 184 0 is_stmt 0 discriminator 1
  45 000e 1368     		ldr	r3, [r2]
  46 0010 DB07     		lsls	r3, r3, #31
  47 0012 FCD4     		bmi	.L3
  48              		.loc 1 184 0 discriminator 2
  49 0014 257A     		ldrb	r5, [r4, #8]	@ zero_extendqisi2
  50              		.loc 1 185 0 is_stmt 1 discriminator 2
  51 0016 4169     		ldr	r1, [r0, #20]
  52              		.loc 1 184 0 discriminator 2
  53 0018 6368     		ldr	r3, [r4, #4]
  54              		.loc 1 185 0 discriminator 2
  55 001a 0A68     		ldr	r2, [r1]
  56              		.loc 1 184 0 discriminator 2
  57 001c 3D24     		movs	r4, #61
ARM GAS  /tmp/ccIYgS30.s 			page 2


  58 001e AC40     		lsls	r4, r4, r5
  59 0020 1C60     		str	r4, [r3]
  60              		.loc 1 185 0 discriminator 2
  61 0022 1368     		ldr	r3, [r2]
  62 0024 23F01F03 		bic	r3, r3, #31
  63 0028 1360     		str	r3, [r2]
  64              	.L5:
  65              		.loc 1 185 0 is_stmt 0 discriminator 1
  66 002a 1368     		ldr	r3, [r2]
  67 002c 13F00103 		ands	r3, r3, #1
  68 0030 FBD1     		bne	.L5
  69              		.loc 1 185 0 discriminator 2
  70 0032 0C7A     		ldrb	r4, [r1, #8]	@ zero_extendqisi2
  71              		.loc 1 188 0 is_stmt 1 discriminator 2
  72 0034 8268     		ldr	r2, [r0, #8]
  73              		.loc 1 185 0 discriminator 2
  74 0036 4968     		ldr	r1, [r1, #4]
  75 0038 3D20     		movs	r0, #61
  76              	.LVL1:
  77 003a A040     		lsls	r0, r0, r4
  78 003c 0860     		str	r0, [r1]
  79              		.loc 1 191 0 discriminator 2
  80 003e 30BC     		pop	{r4, r5}
  81              		.loc 1 188 0 discriminator 2
  82 0040 9381     		strh	r3, [r2, #12]	@ movhi
  83              		.loc 1 189 0 discriminator 2
  84 0042 1382     		strh	r3, [r2, #16]	@ movhi
  85              		.loc 1 190 0 discriminator 2
  86 0044 9382     		strh	r3, [r2, #20]	@ movhi
  87              		.loc 1 191 0 discriminator 2
  88 0046 7047     		bx	lr
  89              		.cfi_endproc
  90              	.LFE120:
  91              		.size	usart_stop, .-usart_stop
  92 0048 AFF30080 		.section	.text.serve_usart_irq,"ax",%progbits
  92      AFF30080 
  93              		.align	2
  94              		.p2align 4,,15
  95              		.thumb
  96              		.thumb_func
  97              		.type	serve_usart_irq, %function
  98              	serve_usart_irq:
  99              	.LFB124:
 100              		.loc 1 312 0
 101              		.cfi_startproc
 102              		@ args = 0, pretend = 0, frame = 0
 103              		@ frame_needed = 0, uses_anonymous_args = 0
 104              	.LVL2:
 105 0000 70B5     		push	{r4, r5, r6, lr}
 106              		.cfi_def_cfa_offset 16
 107              		.cfi_offset 4, -16
 108              		.cfi_offset 5, -12
 109              		.cfi_offset 6, -8
 110              		.cfi_offset 14, -4
 111              		.loc 1 314 0
 112 0002 8568     		ldr	r5, [r0, #8]
 113              	.LVL3:
ARM GAS  /tmp/ccIYgS30.s 			page 3


 114              		.loc 1 316 0
 115 0004 2C88     		ldrh	r4, [r5]
 116              		.loc 1 317 0
 117 0006 AA88     		ldrh	r2, [r5, #4]
 118              		.loc 1 318 0
 119 0008 40F20F13 		movw	r3, #271
 120              		.loc 1 316 0
 121 000c A4B2     		uxth	r4, r4
 122              	.LVL4:
 123              		.loc 1 318 0
 124 000e 2340     		ands	r3, r3, r4
 125              		.loc 1 312 0
 126 0010 0646     		mov	r6, r0
 127              		.loc 1 318 0
 128 0012 E3B1     		cbz	r3, .L9
 129              		.loc 1 321 0
 130 0014 4368     		ldr	r3, [r0, #4]
 131 0016 1B69     		ldr	r3, [r3, #16]
 132              		.loc 1 320 0
 133 0018 4FF6FF62 		movw	r2, #65279
 134 001c 2A80     		strh	r2, [r5]	@ movhi
 135              		.loc 1 321 0
 136 001e B3B1     		cbz	r3, .L9
 137              	.LVL5:
 138              	.LBB12:
 139              	.LBB13:
 140              		.loc 1 140 0
 141 0020 14F0080F 		tst	r4, #8
 142 0024 14BF     		ite	ne
 143 0026 1021     		movne	r1, #16
 144 0028 0021     		moveq	r1, #0
 145              	.LVL6:
 146              		.loc 1 144 0
 147 002a E207     		lsls	r2, r4, #31
 148              		.loc 1 145 0
 149 002c 48BF     		it	mi
 150 002e 41F00401 		orrmi	r1, r1, #4
 151              	.LVL7:
 152              		.loc 1 146 0
 153 0032 A007     		lsls	r0, r4, #30
 154              	.LVL8:
 155              		.loc 1 147 0
 156 0034 48BF     		it	mi
 157 0036 41F00801 		orrmi	r1, r1, #8
 158              	.LVL9:
 159              		.loc 1 148 0
 160 003a 6207     		lsls	r2, r4, #29
 161              		.loc 1 149 0
 162 003c 48BF     		it	mi
 163 003e 41F02001 		orrmi	r1, r1, #32
 164              	.LVL10:
 165              		.loc 1 150 0
 166 0042 E005     		lsls	r0, r4, #23
 167              		.loc 1 151 0
 168 0044 48BF     		it	mi
 169 0046 41F04001 		orrmi	r1, r1, #64
 170              	.LVL11:
ARM GAS  /tmp/ccIYgS30.s 			page 4


 171              	.LBE13:
 172              	.LBE12:
 173              		.loc 1 322 0
 174 004a 3046     		mov	r0, r6
 175 004c 9847     		blx	r3
 176              	.LVL12:
 177              	.L9:
 178              		.loc 1 324 0
 179 004e 6206     		lsls	r2, r4, #25
 180 0050 07D5     		bpl	.L7
 181              		.loc 1 328 0
 182 0052 7368     		ldr	r3, [r6, #4]
 183 0054 5B68     		ldr	r3, [r3, #4]
 184              		.loc 1 325 0
 185 0056 4FF6BF72 		movw	r2, #65471
 186 005a 2A80     		strh	r2, [r5]	@ movhi
 187              		.loc 1 328 0
 188 005c 0BB1     		cbz	r3, .L7
 189              		.loc 1 329 0
 190 005e 3046     		mov	r0, r6
 191 0060 9847     		blx	r3
 192              	.LVL13:
 193              	.L7:
 194 0062 70BD     		pop	{r4, r5, r6, pc}
 195              		.cfi_endproc
 196              	.LFE124:
 197              		.size	serve_usart_irq, .-serve_usart_irq
 198 0064 AFF30080 		.section	.text.uart_lld_serve_tx_end_irq,"ax",%progbits
 198      AFF30080 
 198      AFF30080 
 199              		.align	2
 200              		.p2align 4,,15
 201              		.thumb
 202              		.thumb_func
 203              		.type	uart_lld_serve_tx_end_irq, %function
 204              	uart_lld_serve_tx_end_irq:
 205              	.LFB123:
 206              		.loc 1 283 0
 207              		.cfi_startproc
 208              		@ args = 0, pretend = 0, frame = 0
 209              		@ frame_needed = 0, uses_anonymous_args = 0
 210              	.LVL14:
 211              		.loc 1 287 0
 212 0000 11F00C0F 		tst	r1, #12
 213              		.loc 1 283 0
 214 0004 10B5     		push	{r4, lr}
 215              		.cfi_def_cfa_offset 8
 216              		.cfi_offset 4, -8
 217              		.cfi_offset 14, -4
 218              		.loc 1 283 0
 219 0006 0446     		mov	r4, r0
 220              		.loc 1 287 0
 221 0008 1BD1     		bne	.L51
 222              	.LVL15:
 223              	.L39:
 224              		.loc 1 294 0
 225 000a 6169     		ldr	r1, [r4, #20]
ARM GAS  /tmp/ccIYgS30.s 			page 5


 226 000c 0A68     		ldr	r2, [r1]
 227 000e 1368     		ldr	r3, [r2]
 228 0010 23F01F03 		bic	r3, r3, #31
 229 0014 1360     		str	r3, [r2]
 230              	.L41:
 231              		.loc 1 294 0 is_stmt 0 discriminator 1
 232 0016 1368     		ldr	r3, [r2]
 233 0018 D807     		lsls	r0, r3, #31
 234 001a FCD4     		bmi	.L41
 235              		.loc 1 298 0 is_stmt 1 discriminator 2
 236 001c 6368     		ldr	r3, [r4, #4]
 237              		.loc 1 294 0 discriminator 2
 238 001e 0A7A     		ldrb	r2, [r1, #8]	@ zero_extendqisi2
 239              		.loc 1 298 0 discriminator 2
 240 0020 1B68     		ldr	r3, [r3]
 241              		.loc 1 294 0 discriminator 2
 242 0022 4968     		ldr	r1, [r1, #4]
 243 0024 3D20     		movs	r0, #61
 244 0026 9040     		lsls	r0, r0, r2
 245              		.loc 1 297 0 discriminator 2
 246 0028 0222     		movs	r2, #2
 247              		.loc 1 294 0 discriminator 2
 248 002a 0860     		str	r0, [r1]
 249              		.loc 1 297 0 discriminator 2
 250 002c 6270     		strb	r2, [r4, #1]
 251              		.loc 1 298 0 discriminator 2
 252 002e 2BB1     		cbz	r3, .L44
 253              		.loc 1 299 0
 254 0030 2046     		mov	r0, r4
 255 0032 9847     		blx	r3
 256              	.LVL16:
 257              		.loc 1 303 0
 258 0034 6378     		ldrb	r3, [r4, #1]	@ zero_extendqisi2
 259 0036 022B     		cmp	r3, #2
 260 0038 00D0     		beq	.L44
 261 003a 10BD     		pop	{r4, pc}
 262              	.LVL17:
 263              	.L44:
 264              		.loc 1 304 0
 265 003c 0023     		movs	r3, #0
 266 003e 6370     		strb	r3, [r4, #1]
 267 0040 10BD     		pop	{r4, pc}
 268              	.LVL18:
 269              	.L51:
 270              		.loc 1 288 0
 271 0042 FFF7FEFF 		bl	port_halt
 272              	.LVL19:
 273 0046 E0E7     		b	.L39
 274              		.cfi_endproc
 275              	.LFE123:
 276              		.size	uart_lld_serve_tx_end_irq, .-uart_lld_serve_tx_end_irq
 277 0048 AFF30080 		.section	.text.uart_lld_serve_rx_end_irq,"ax",%progbits
 277      AFF30080 
 278              		.align	2
 279              		.p2align 4,,15
 280              		.thumb
 281              		.thumb_func
ARM GAS  /tmp/ccIYgS30.s 			page 6


 282              		.type	uart_lld_serve_rx_end_irq, %function
 283              	uart_lld_serve_rx_end_irq:
 284              	.LFB122:
 285              		.loc 1 243 0
 286              		.cfi_startproc
 287              		@ args = 0, pretend = 0, frame = 0
 288              		@ frame_needed = 0, uses_anonymous_args = 0
 289              	.LVL20:
 290              		.loc 1 247 0
 291 0000 11F00C0F 		tst	r1, #12
 292              		.loc 1 243 0
 293 0004 70B5     		push	{r4, r5, r6, lr}
 294              		.cfi_def_cfa_offset 16
 295              		.cfi_offset 4, -16
 296              		.cfi_offset 5, -12
 297              		.cfi_offset 6, -8
 298              		.cfi_offset 14, -4
 299              		.loc 1 243 0
 300 0006 0446     		mov	r4, r0
 301              		.loc 1 247 0
 302 0008 3BD1     		bne	.L67
 303              	.LVL21:
 304              	.L53:
 305              		.loc 1 254 0
 306 000a A378     		ldrb	r3, [r4, #2]	@ zero_extendqisi2
 307 000c 43B9     		cbnz	r3, .L54
 308              		.loc 1 257 0
 309 000e 6368     		ldr	r3, [r4, #4]
 310 0010 DB68     		ldr	r3, [r3, #12]
 311 0012 002B     		cmp	r3, #0
 312 0014 34D0     		beq	.L52
 313              		.loc 1 258 0
 314 0016 218B     		ldrh	r1, [r4, #24]
 315 0018 2046     		mov	r0, r4
 316 001a 89B2     		uxth	r1, r1
 317 001c 9847     		blx	r3
 318              	.LVL22:
 319 001e 70BD     		pop	{r4, r5, r6, pc}
 320              	.LVL23:
 321              	.L54:
 322              	.LBB18:
 323              	.LBB19:
 324              		.loc 1 263 0
 325 0020 2169     		ldr	r1, [r4, #16]
 326 0022 0A68     		ldr	r2, [r1]
 327 0024 1368     		ldr	r3, [r2]
 328 0026 23F01F03 		bic	r3, r3, #31
 329 002a 1360     		str	r3, [r2]
 330              	.L58:
 331 002c 1368     		ldr	r3, [r2]
 332 002e DD07     		lsls	r5, r3, #31
 333 0030 FCD4     		bmi	.L58
 334              		.loc 1 265 0
 335 0032 6068     		ldr	r0, [r4, #4]
 336              		.loc 1 263 0
 337 0034 0E7A     		ldrb	r6, [r1, #8]	@ zero_extendqisi2
 338 0036 4D68     		ldr	r5, [r1, #4]
ARM GAS  /tmp/ccIYgS30.s 			page 7


 339              		.loc 1 265 0
 340 0038 8368     		ldr	r3, [r0, #8]
 341              		.loc 1 263 0
 342 003a 3D21     		movs	r1, #61
 343 003c 01FA06F6 		lsl	r6, r1, r6
 344              		.loc 1 264 0
 345 0040 0221     		movs	r1, #2
 346              		.loc 1 263 0
 347 0042 2E60     		str	r6, [r5]
 348              		.loc 1 264 0
 349 0044 A170     		strb	r1, [r4, #2]
 350              		.loc 1 265 0
 351 0046 3BB1     		cbz	r3, .L59
 352              		.loc 1 266 0
 353 0048 2046     		mov	r0, r4
 354 004a 9847     		blx	r3
 355              	.LVL24:
 356              		.loc 1 270 0
 357 004c A378     		ldrb	r3, [r4, #2]	@ zero_extendqisi2
 358 004e 022B     		cmp	r3, #2
 359 0050 16D1     		bne	.L52
 360 0052 2369     		ldr	r3, [r4, #16]
 361 0054 6068     		ldr	r0, [r4, #4]
 362 0056 1A68     		ldr	r2, [r3]
 363              	.L59:
 364              	.LBB20:
 365              	.LBB21:
 366              		.loc 1 165 0
 367 0058 C168     		ldr	r1, [r0, #12]
 368              		.loc 1 171 0
 369 005a E368     		ldr	r3, [r4, #12]
 370              		.loc 1 166 0
 371 005c 0029     		cmp	r1, #0
 372 005e 14BF     		ite	ne
 373 0060 4FF48871 		movne	r1, #272
 374 0064 4FF48071 		moveq	r1, #256
 375              		.loc 1 171 0
 376 0068 0B43     		orrs	r3, r3, r1
 377              	.LBE21:
 378              	.LBE20:
 379              		.loc 1 271 0
 380 006a 0025     		movs	r5, #0
 381              	.LBB24:
 382              	.LBB22:
 383              		.loc 1 170 0
 384 006c 0121     		movs	r1, #1
 385              		.loc 1 169 0
 386 006e 04F11800 		add	r0, r4, #24
 387              	.LBE22:
 388              	.LBE24:
 389              		.loc 1 271 0
 390 0072 A570     		strb	r5, [r4, #2]
 391              	.LVL25:
 392              	.LBB25:
 393              	.LBB23:
 394              		.loc 1 169 0
 395 0074 D060     		str	r0, [r2, #12]
ARM GAS  /tmp/ccIYgS30.s 			page 8


 396              		.loc 1 170 0
 397 0076 5160     		str	r1, [r2, #4]
 398              		.loc 1 171 0
 399 0078 1360     		str	r3, [r2]
 400              		.loc 1 172 0
 401 007a 1368     		ldr	r3, [r2]
 402 007c 0B43     		orrs	r3, r3, r1
 403 007e 1360     		str	r3, [r2]
 404              	.LVL26:
 405              	.L52:
 406 0080 70BD     		pop	{r4, r5, r6, pc}
 407              	.LVL27:
 408              	.L67:
 409              	.LBE23:
 410              	.LBE25:
 411              	.LBE19:
 412              	.LBE18:
 413              		.loc 1 248 0
 414 0082 FFF7FEFF 		bl	port_halt
 415              	.LVL28:
 416 0086 C0E7     		b	.L53
 417              		.cfi_endproc
 418              	.LFE122:
 419              		.size	uart_lld_serve_rx_end_irq, .-uart_lld_serve_rx_end_irq
 420 0088 AFF30080 		.section	.text.VectorD4,"ax",%progbits
 420      AFF30080 
 421              		.align	2
 422              		.p2align 4,,15
 423              		.global	VectorD4
 424              		.thumb
 425              		.thumb_func
 426              		.type	VectorD4, %function
 427              	VectorD4:
 428              	.LFB125:
 429              		.loc 1 346 0
 430              		.cfi_startproc
 431              		@ args = 0, pretend = 0, frame = 0
 432              		@ frame_needed = 0, uses_anonymous_args = 0
 433 0000 08B5     		push	{r3, lr}
 434              		.cfi_def_cfa_offset 8
 435              		.cfi_offset 3, -8
 436              		.cfi_offset 14, -4
 437              		.loc 1 348 0
 438 0002 FFF7FEFF 		bl	dbg_check_enter_isr
 439              	.LVL29:
 440              		.loc 1 350 0
 441 0006 40F20000 		movw	r0, #:lower16:.LANCHOR0
 442 000a C0F20000 		movt	r0, #:upper16:.LANCHOR0
 443 000e FFF7FEFF 		bl	serve_usart_irq
 444              	.LVL30:
 445              		.loc 1 352 0
 446 0012 FFF7FEFF 		bl	dbg_check_leave_isr
 447              	.LVL31:
 448              		.loc 1 353 0
 449 0016 BDE80840 		pop	{r3, lr}
 450              		.loc 1 352 0
 451 001a FFF7FEBF 		b	_port_irq_epilogue
ARM GAS  /tmp/ccIYgS30.s 			page 9


 452              	.LVL32:
 453              		.cfi_endproc
 454              	.LFE125:
 455              		.size	VectorD4, .-VectorD4
 456 001e 00BF     		.section	.text.VectorD8,"ax",%progbits
 457              		.align	2
 458              		.p2align 4,,15
 459              		.global	VectorD8
 460              		.thumb
 461              		.thumb_func
 462              		.type	VectorD8, %function
 463              	VectorD8:
 464              	.LFB126:
 465              		.loc 1 365 0
 466              		.cfi_startproc
 467              		@ args = 0, pretend = 0, frame = 0
 468              		@ frame_needed = 0, uses_anonymous_args = 0
 469 0000 08B5     		push	{r3, lr}
 470              		.cfi_def_cfa_offset 8
 471              		.cfi_offset 3, -8
 472              		.cfi_offset 14, -4
 473              		.loc 1 367 0
 474 0002 FFF7FEFF 		bl	dbg_check_enter_isr
 475              	.LVL33:
 476              		.loc 1 369 0
 477 0006 40F20000 		movw	r0, #:lower16:.LANCHOR1
 478 000a C0F20000 		movt	r0, #:upper16:.LANCHOR1
 479 000e FFF7FEFF 		bl	serve_usart_irq
 480              	.LVL34:
 481              		.loc 1 371 0
 482 0012 FFF7FEFF 		bl	dbg_check_leave_isr
 483              	.LVL35:
 484              		.loc 1 372 0
 485 0016 BDE80840 		pop	{r3, lr}
 486              		.loc 1 371 0
 487 001a FFF7FEBF 		b	_port_irq_epilogue
 488              	.LVL36:
 489              		.cfi_endproc
 490              	.LFE126:
 491              		.size	VectorD8, .-VectorD8
 492 001e 00BF     		.section	.text.uart_lld_init,"ax",%progbits
 493              		.align	2
 494              		.p2align 4,,15
 495              		.global	uart_lld_init
 496              		.thumb
 497              		.thumb_func
 498              		.type	uart_lld_init, %function
 499              	uart_lld_init:
 500              	.LFB127:
 501              		.loc 1 460 0
 502              		.cfi_startproc
 503              		@ args = 0, pretend = 0, frame = 0
 504              		@ frame_needed = 0, uses_anonymous_args = 0
 505 0000 F8B5     		push	{r3, r4, r5, r6, r7, lr}
 506              		.cfi_def_cfa_offset 24
 507              		.cfi_offset 3, -24
 508              		.cfi_offset 4, -20
ARM GAS  /tmp/ccIYgS30.s 			page 10


 509              		.cfi_offset 5, -16
 510              		.cfi_offset 6, -12
 511              		.cfi_offset 7, -8
 512              		.cfi_offset 14, -4
 513              		.loc 1 463 0
 514 0002 40F20005 		movw	r5, #:lower16:.LANCHOR0
 515 0006 C0F20005 		movt	r5, #:upper16:.LANCHOR0
 516              		.loc 1 466 0
 517 000a 114E     		ldr	r6, .L71
 518              		.loc 1 463 0
 519 000c 2846     		mov	r0, r5
 520              		.loc 1 471 0
 521 000e 40F20004 		movw	r4, #:lower16:.LANCHOR1
 522              		.loc 1 463 0
 523 0012 FFF7FEFF 		bl	uartObjectInit
 524              	.LVL37:
 525              		.loc 1 471 0
 526 0016 C0F20004 		movt	r4, #:upper16:.LANCHOR1
 527              		.loc 1 464 0
 528 001a 4FF48053 		mov	r3, #4096
 529              		.loc 1 467 0
 530 001e 06F11802 		add	r2, r6, #24
 531              		.loc 1 464 0
 532 0022 C4F20103 		movt	r3, 16385
 533              		.loc 1 465 0
 534 0026 0627     		movs	r7, #6
 535              		.loc 1 471 0
 536 0028 2046     		mov	r0, r4
 537              		.loc 1 464 0
 538 002a AB60     		str	r3, [r5, #8]
 539              		.loc 1 466 0
 540 002c 2E61     		str	r6, [r5, #16]
 541              		.loc 1 467 0
 542 002e 6A61     		str	r2, [r5, #20]
 543              		.loc 1 465 0
 544 0030 EF60     		str	r7, [r5, #12]
 545              		.loc 1 471 0
 546 0032 FFF7FEFF 		bl	uartObjectInit
 547              	.LVL38:
 548              		.loc 1 472 0
 549 0036 4FF48843 		mov	r3, #17408
 550              		.loc 1 474 0
 551 003a A6F16002 		sub	r2, r6, #96
 552              		.loc 1 472 0
 553 003e C4F20003 		movt	r3, 16384
 554              		.loc 1 475 0
 555 0042 543E     		subs	r6, r6, #84
 556              		.loc 1 473 0
 557 0044 E760     		str	r7, [r4, #12]
 558              		.loc 1 472 0
 559 0046 A360     		str	r3, [r4, #8]
 560              		.loc 1 474 0
 561 0048 2261     		str	r2, [r4, #16]
 562              		.loc 1 475 0
 563 004a 6661     		str	r6, [r4, #20]
 564 004c F8BD     		pop	{r3, r4, r5, r6, r7, pc}
 565              	.L72:
ARM GAS  /tmp/ccIYgS30.s 			page 11


 566 004e 00BF     		.align	2
 567              	.L71:
 568 0050 9C000000 		.word	_stm32_dma_streams+156
 569              		.cfi_endproc
 570              	.LFE127:
 571              		.size	uart_lld_init, .-uart_lld_init
 572 0054 AFF30080 		.section	.text.uart_lld_start,"ax",%progbits
 572      AFF30080 
 572      AFF30080 
 573              		.align	2
 574              		.p2align 4,,15
 575              		.global	uart_lld_start
 576              		.thumb
 577              		.thumb_func
 578              		.type	uart_lld_start, %function
 579              	uart_lld_start:
 580              	.LFB128:
 581              		.loc 1 517 0
 582              		.cfi_startproc
 583              		@ args = 0, pretend = 0, frame = 0
 584              		@ frame_needed = 0, uses_anonymous_args = 0
 585              	.LVL39:
 586 0000 2DE9F843 		push	{r3, r4, r5, r6, r7, r8, r9, lr}
 587              		.cfi_def_cfa_offset 32
 588              		.cfi_offset 3, -32
 589              		.cfi_offset 4, -28
 590              		.cfi_offset 5, -24
 591              		.cfi_offset 6, -20
 592              		.cfi_offset 7, -16
 593              		.cfi_offset 8, -12
 594              		.cfi_offset 9, -8
 595              		.cfi_offset 14, -4
 596              		.loc 1 519 0
 597 0004 0378     		ldrb	r3, [r0]	@ zero_extendqisi2
 598 0006 012B     		cmp	r3, #1
 599              		.loc 1 517 0
 600 0008 0446     		mov	r4, r0
 601              		.loc 1 519 0
 602 000a 59D0     		beq	.L74
 603 000c 8568     		ldr	r5, [r0, #8]
 604              	.LVL40:
 605              	.L75:
 606              		.loc 1 671 0
 607 000e 0023     		movs	r3, #0
 608 0010 A370     		strb	r3, [r4, #2]
 609              		.loc 1 672 0
 610 0012 6370     		strb	r3, [r4, #1]
 611              	.LVL41:
 612              	.LBB32:
 613              	.LBB33:
 614              		.loc 1 204 0
 615 0014 2046     		mov	r0, r4
 616 0016 FFF7FEFF 		bl	usart_stop
 617              	.LVL42:
 618              		.loc 1 208 0
 619 001a A268     		ldr	r2, [r4, #8]
 620 001c 4FF4A051 		mov	r1, #5120
ARM GAS  /tmp/ccIYgS30.s 			page 12


 621 0020 4FF48053 		mov	r3, #4096
 622 0024 C4F20101 		movt	r1, 16385
 623 0028 C4F20103 		movt	r3, 16385
 624 002c 9A42     		cmp	r2, r3
 625 002e 18BF     		it	ne
 626 0030 8A42     		cmpne	r2, r1
 627              		.loc 1 212 0
 628 0032 6368     		ldr	r3, [r4, #4]
 629 0034 06BF     		itte	eq
 630 0036 4FF43D42 		moveq	r2, #48384
 631 003a 5969     		ldreq	r1, [r3, #20]
 632              		.loc 1 214 0
 633 003c 5969     		ldrne	r1, [r3, #20]
 634              		.loc 1 226 0
 635 003e D3F80490 		ldr	r9, [r3, #4]
 636              		.loc 1 214 0
 637 0042 16BF     		itet	ne
 638 0044 4DF68062 		movwne	r2, #56960
 639              		.loc 1 212 0
 640 0048 C0F20152 		movteq	r2, 1281
 641              		.loc 1 214 0
 642 004c C0F28022 		movtne	r2, 640
 643 0050 B2FBF1F2 		udiv	r2, r2, r1
 644 0054 92B2     		uxth	r2, r2
 645              	.LBB34:
 646              	.LBB35:
 647              		.loc 1 169 0
 648 0056 2169     		ldr	r1, [r4, #16]
 649              	.LBE35:
 650              	.LBE34:
 651              		.loc 1 214 0
 652 0058 2A81     		strh	r2, [r5, #8]	@ movhi
 653              	.LBB43:
 654              	.LBB36:
 655              		.loc 1 165 0
 656 005a DA68     		ldr	r2, [r3, #12]
 657              	.LBE36:
 658              	.LBE43:
 659              		.loc 1 231 0
 660 005c B3F81880 		ldrh	r8, [r3, #24]
 661              		.loc 1 223 0
 662 0060 5F8B     		ldrh	r7, [r3, #26]
 663              		.loc 1 224 0
 664 0062 9E8B     		ldrh	r6, [r3, #28]
 665              	.LBB44:
 666              	.LBB37:
 667              		.loc 1 169 0
 668 0064 0B68     		ldr	r3, [r1]
 669              	.LBE37:
 670              	.LBE44:
 671              		.loc 1 217 0
 672 0066 2988     		ldrh	r1, [r5]
 673              		.loc 1 218 0
 674 0068 A988     		ldrh	r1, [r5, #4]
 675              		.loc 1 227 0
 676 006a 42F24C10 		movw	r0, #8524
 677 006e 42F20C11 		movw	r1, #8460
ARM GAS  /tmp/ccIYgS30.s 			page 13


 678 0072 B9F1000F 		cmp	r9, #0
 679 0076 08BF     		it	eq
 680 0078 0846     		moveq	r0, r1
 681              	.LVL43:
 682              	.LBB45:
 683              	.LBB38:
 684              		.loc 1 166 0
 685 007a 002A     		cmp	r2, #0
 686 007c 14BF     		ite	ne
 687 007e 4FF48871 		movne	r1, #272
 688 0082 4FF48071 		moveq	r1, #256
 689              		.loc 1 171 0
 690 0086 E268     		ldr	r2, [r4, #12]
 691              	.LBE38:
 692              	.LBE45:
 693              		.loc 1 223 0
 694 0088 47F04007 		orr	r7, r7, #64
 695              		.loc 1 224 0
 696 008c 46F0C106 		orr	r6, r6, #193
 697              		.loc 1 231 0
 698 0090 40EA0800 		orr	r0, r0, r8
 699              	.LVL44:
 700              		.loc 1 223 0
 701 0094 BFB2     		uxth	r7, r7
 702              	.LBB46:
 703              	.LBB39:
 704              		.loc 1 171 0
 705 0096 41EA0208 		orr	r8, r1, r2
 706              	.LBE39:
 707              	.LBE46:
 708              		.loc 1 219 0
 709 009a 4FF0000C 		mov	ip, #0
 710              	.LBB47:
 711              	.LBB40:
 712              		.loc 1 170 0
 713 009e 0121     		movs	r1, #1
 714              	.LBE40:
 715              	.LBE47:
 716              		.loc 1 224 0
 717 00a0 B6B2     		uxth	r6, r6
 718              	.LBB48:
 719              	.LBB41:
 720              		.loc 1 169 0
 721 00a2 1834     		adds	r4, r4, #24
 722              	.LVL45:
 723              	.LBE41:
 724              	.LBE48:
 725              		.loc 1 219 0
 726 00a4 A5F800C0 		strh	ip, [r5]	@ movhi
 727              		.loc 1 223 0
 728 00a8 2F82     		strh	r7, [r5, #16]	@ movhi
 729              		.loc 1 224 0
 730 00aa AE82     		strh	r6, [r5, #20]	@ movhi
 731              		.loc 1 231 0
 732 00ac A881     		strh	r0, [r5, #12]	@ movhi
 733              	.LVL46:
 734              	.LBB49:
ARM GAS  /tmp/ccIYgS30.s 			page 14


 735              	.LBB42:
 736              		.loc 1 169 0
 737 00ae DC60     		str	r4, [r3, #12]
 738              		.loc 1 170 0
 739 00b0 5960     		str	r1, [r3, #4]
 740              		.loc 1 171 0
 741 00b2 C3F80080 		str	r8, [r3]
 742              		.loc 1 172 0
 743 00b6 1A68     		ldr	r2, [r3]
 744 00b8 0A43     		orrs	r2, r2, r1
 745 00ba 1A60     		str	r2, [r3]
 746 00bc BDE8F883 		pop	{r3, r4, r5, r6, r7, r8, r9, pc}
 747              	.LVL47:
 748              	.L74:
 749              	.LBE42:
 750              	.LBE49:
 751              	.LBE33:
 752              	.LBE32:
 753              		.loc 1 521 0
 754 00c0 40F20005 		movw	r5, #:lower16:.LANCHOR0
 755 00c4 C0F20005 		movt	r5, #:upper16:.LANCHOR0
 756 00c8 A842     		cmp	r0, r5
 757 00ca 1BD0     		beq	.L102
 758              		.loc 1 542 0
 759 00cc 40F20005 		movw	r5, #:lower16:.LANCHOR1
 760 00d0 C0F20005 		movt	r5, #:upper16:.LANCHOR1
 761 00d4 A842     		cmp	r0, r5
 762 00d6 3ED0     		beq	.L103
 763              	.LVL48:
 764              	.L79:
 765              		.loc 1 664 0
 766 00d8 6368     		ldr	r3, [r4, #4]
 767              		.loc 1 666 0
 768 00da 2269     		ldr	r2, [r4, #16]
 769              		.loc 1 664 0
 770 00dc 1B8B     		ldrh	r3, [r3, #24]
 771              		.loc 1 666 0
 772 00de A568     		ldr	r5, [r4, #8]
 773 00e0 1068     		ldr	r0, [r2]
 774              		.loc 1 664 0
 775 00e2 03F4A053 		and	r3, r3, #5120
 776 00e6 B3F5805F 		cmp	r3, #4096
 777              		.loc 1 665 0
 778 00ea 02BF     		ittt	eq
 779 00ec E368     		ldreq	r3, [r4, #12]
 780 00ee 43F42053 		orreq	r3, r3, #10240
 781 00f2 E360     		streq	r3, [r4, #12]
 782              		.loc 1 667 0
 783 00f4 6369     		ldr	r3, [r4, #20]
 784 00f6 1968     		ldr	r1, [r3]
 785              		.loc 1 668 0
 786 00f8 0022     		movs	r2, #0
 787              		.loc 1 666 0
 788 00fa 2B1D     		adds	r3, r5, #4
 789 00fc 8360     		str	r3, [r0, #8]
 790              		.loc 1 667 0
 791 00fe 8B60     		str	r3, [r1, #8]
ARM GAS  /tmp/ccIYgS30.s 			page 15


 792              		.loc 1 668 0
 793 0100 2283     		strh	r2, [r4, #24]	@ movhi
 794 0102 84E7     		b	.L75
 795              	.LVL49:
 796              	.L102:
 797              	.LBB50:
 798              		.loc 1 523 0
 799 0104 40F20002 		movw	r2, #:lower16:uart_lld_serve_rx_end_irq
 800 0108 C0F20002 		movt	r2, #:upper16:uart_lld_serve_rx_end_irq
 801 010c 0069     		ldr	r0, [r0, #16]
 802              	.LVL50:
 803 010e 0C21     		movs	r1, #12
 804 0110 2346     		mov	r3, r4
 805 0112 FFF7FEFF 		bl	dmaStreamAllocate
 806              	.LVL51:
 807              		.loc 1 527 0
 808 0116 0028     		cmp	r0, #0
 809 0118 45D1     		bne	.L104
 810              	.LVL52:
 811              	.L77:
 812              		.loc 1 528 0
 813 011a 40F20002 		movw	r2, #:lower16:uart_lld_serve_tx_end_irq
 814 011e 40F20003 		movw	r3, #:lower16:.LANCHOR0
 815 0122 C0F20002 		movt	r2, #:upper16:uart_lld_serve_tx_end_irq
 816 0126 C0F20003 		movt	r3, #:upper16:.LANCHOR0
 817 012a 6869     		ldr	r0, [r5, #20]
 818 012c 0C21     		movs	r1, #12
 819 012e FFF7FEFF 		bl	dmaStreamAllocate
 820              	.LVL53:
 821              		.loc 1 532 0
 822 0132 88BB     		cbnz	r0, .L105
 823              	.LVL54:
 824              	.L78:
 825              		.loc 1 533 0
 826 0134 4FF46053 		mov	r3, #14336
 827 0138 C4F20203 		movt	r3, 16386
 828              		.loc 1 534 0
 829 013c 2520     		movs	r0, #37
 830              		.loc 1 533 0
 831 013e 5A6C     		ldr	r2, [r3, #68]
 832 0140 42F01002 		orr	r2, r2, #16
 833 0144 5A64     		str	r2, [r3, #68]
 834              	.L101:
 835              	.LBE50:
 836              	.LBB51:
 837              		.loc 1 555 0
 838 0146 C021     		movs	r1, #192
 839 0148 FFF7FEFF 		bl	nvicEnableVector
 840              	.LVL55:
 841              		.loc 1 557 0
 842 014c EB68     		ldr	r3, [r5, #12]
 843 014e 43F00063 		orr	r3, r3, #134217728
 844 0152 EB60     		str	r3, [r5, #12]
 845 0154 C0E7     		b	.L79
 846              	.LVL56:
 847              	.L103:
 848              		.loc 1 544 0
ARM GAS  /tmp/ccIYgS30.s 			page 16


 849 0156 40F20002 		movw	r2, #:lower16:uart_lld_serve_rx_end_irq
 850 015a C0F20002 		movt	r2, #:upper16:uart_lld_serve_rx_end_irq
 851 015e 0069     		ldr	r0, [r0, #16]
 852              	.LVL57:
 853 0160 0C21     		movs	r1, #12
 854 0162 2346     		mov	r3, r4
 855 0164 FFF7FEFF 		bl	dmaStreamAllocate
 856              	.LVL58:
 857              		.loc 1 548 0
 858 0168 58BB     		cbnz	r0, .L106
 859              	.LVL59:
 860              	.L80:
 861              		.loc 1 549 0
 862 016a 40F20002 		movw	r2, #:lower16:uart_lld_serve_tx_end_irq
 863 016e 40F20003 		movw	r3, #:lower16:.LANCHOR1
 864 0172 C0F20002 		movt	r2, #:upper16:uart_lld_serve_tx_end_irq
 865 0176 C0F20003 		movt	r3, #:upper16:.LANCHOR1
 866 017a 6869     		ldr	r0, [r5, #20]
 867 017c 0C21     		movs	r1, #12
 868 017e FFF7FEFF 		bl	dmaStreamAllocate
 869              	.LVL60:
 870              		.loc 1 553 0
 871 0182 B8B9     		cbnz	r0, .L107
 872              	.LVL61:
 873              	.L81:
 874              		.loc 1 554 0
 875 0184 4FF46053 		mov	r3, #14336
 876 0188 C4F20203 		movt	r3, 16386
 877              		.loc 1 555 0
 878 018c 2620     		movs	r0, #38
 879              		.loc 1 554 0
 880 018e 1A6C     		ldr	r2, [r3, #64]
 881 0190 42F40032 		orr	r2, r2, #131072
 882 0194 1A64     		str	r2, [r3, #64]
 883 0196 D6E7     		b	.L101
 884              	.LVL62:
 885              	.L105:
 886              	.LBE51:
 887              	.LBB52:
 888              		.loc 1 532 0 discriminator 1
 889 0198 40F20000 		movw	r0, #:lower16:.LC1
 890              	.LVL63:
 891 019c C0F20000 		movt	r0, #:upper16:.LC1
 892 01a0 FFF7FEFF 		bl	chDbgPanic
 893              	.LVL64:
 894 01a4 C6E7     		b	.L78
 895              	.LVL65:
 896              	.L104:
 897              		.loc 1 527 0 discriminator 1
 898 01a6 40F20000 		movw	r0, #:lower16:.LC0
 899              	.LVL66:
 900 01aa C0F20000 		movt	r0, #:upper16:.LC0
 901 01ae FFF7FEFF 		bl	chDbgPanic
 902              	.LVL67:
 903 01b2 B2E7     		b	.L77
 904              	.LVL68:
 905              	.L107:
ARM GAS  /tmp/ccIYgS30.s 			page 17


 906              	.LBE52:
 907              	.LBB53:
 908              		.loc 1 553 0 discriminator 1
 909 01b4 40F20000 		movw	r0, #:lower16:.LC3
 910              	.LVL69:
 911 01b8 C0F20000 		movt	r0, #:upper16:.LC3
 912 01bc FFF7FEFF 		bl	chDbgPanic
 913              	.LVL70:
 914 01c0 E0E7     		b	.L81
 915              	.LVL71:
 916              	.L106:
 917              		.loc 1 548 0 discriminator 1
 918 01c2 40F20000 		movw	r0, #:lower16:.LC2
 919              	.LVL72:
 920 01c6 C0F20000 		movt	r0, #:upper16:.LC2
 921 01ca FFF7FEFF 		bl	chDbgPanic
 922              	.LVL73:
 923 01ce CCE7     		b	.L80
 924              	.LBE53:
 925              		.cfi_endproc
 926              	.LFE128:
 927              		.size	uart_lld_start, .-uart_lld_start
 928              		.section	.text.uart_lld_stop,"ax",%progbits
 929              		.align	2
 930              		.p2align 4,,15
 931              		.global	uart_lld_stop
 932              		.thumb
 933              		.thumb_func
 934              		.type	uart_lld_stop, %function
 935              	uart_lld_stop:
 936              	.LFB129:
 937              		.loc 1 683 0
 938              		.cfi_startproc
 939              		@ args = 0, pretend = 0, frame = 0
 940              		@ frame_needed = 0, uses_anonymous_args = 0
 941              	.LVL74:
 942              		.loc 1 685 0
 943 0000 0378     		ldrb	r3, [r0]	@ zero_extendqisi2
 944 0002 022B     		cmp	r3, #2
 945              		.loc 1 683 0
 946 0004 10B5     		push	{r4, lr}
 947              		.cfi_def_cfa_offset 8
 948              		.cfi_offset 4, -8
 949              		.cfi_offset 14, -4
 950              		.loc 1 683 0
 951 0006 0446     		mov	r4, r0
 952              		.loc 1 685 0
 953 0008 00D0     		beq	.L113
 954              	.LVL75:
 955              	.L108:
 956 000a 10BD     		pop	{r4, pc}
 957              	.LVL76:
 958              	.L113:
 959              		.loc 1 686 0
 960 000c FFF7FEFF 		bl	usart_stop
 961              	.LVL77:
 962              		.loc 1 687 0
ARM GAS  /tmp/ccIYgS30.s 			page 18


 963 0010 2069     		ldr	r0, [r4, #16]
 964 0012 FFF7FEFF 		bl	dmaStreamRelease
 965              	.LVL78:
 966              		.loc 1 688 0
 967 0016 6069     		ldr	r0, [r4, #20]
 968 0018 FFF7FEFF 		bl	dmaStreamRelease
 969              	.LVL79:
 970              		.loc 1 691 0
 971 001c 40F20003 		movw	r3, #:lower16:.LANCHOR0
 972 0020 C0F20003 		movt	r3, #:upper16:.LANCHOR0
 973 0024 9C42     		cmp	r4, r3
 974 0026 11D0     		beq	.L114
 975              		.loc 1 699 0
 976 0028 40F20003 		movw	r3, #:lower16:.LANCHOR1
 977 002c C0F20003 		movt	r3, #:upper16:.LANCHOR1
 978 0030 9C42     		cmp	r4, r3
 979 0032 EAD1     		bne	.L108
 980              		.loc 1 700 0
 981 0034 2620     		movs	r0, #38
 982 0036 FFF7FEFF 		bl	nvicDisableVector
 983              	.LVL80:
 984              		.loc 1 701 0
 985 003a 4FF46053 		mov	r3, #14336
 986 003e C4F20203 		movt	r3, 16386
 987 0042 1A6C     		ldr	r2, [r3, #64]
 988 0044 22F40032 		bic	r2, r2, #131072
 989 0048 1A64     		str	r2, [r3, #64]
 990              		.loc 1 702 0
 991 004a DEE7     		b	.L108
 992              	.L114:
 993              		.loc 1 692 0
 994 004c 2520     		movs	r0, #37
 995 004e FFF7FEFF 		bl	nvicDisableVector
 996              	.LVL81:
 997              		.loc 1 693 0
 998 0052 4FF46053 		mov	r3, #14336
 999 0056 C4F20203 		movt	r3, 16386
 1000 005a 5A6C     		ldr	r2, [r3, #68]
 1001 005c 22F01002 		bic	r2, r2, #16
 1002 0060 5A64     		str	r2, [r3, #68]
 1003              		.loc 1 694 0
 1004 0062 10BD     		pop	{r4, pc}
 1005              		.cfi_endproc
 1006              	.LFE129:
 1007              		.size	uart_lld_stop, .-uart_lld_stop
 1008 0064 AFF30080 		.section	.text.uart_lld_start_send,"ax",%progbits
 1008      AFF30080 
 1008      AFF30080 
 1009              		.align	2
 1010              		.p2align 4,,15
 1011              		.global	uart_lld_start_send
 1012              		.thumb
 1013              		.thumb_func
 1014              		.type	uart_lld_start_send, %function
 1015              	uart_lld_start_send:
 1016              	.LFB130:
 1017              		.loc 1 751 0
ARM GAS  /tmp/ccIYgS30.s 			page 19


 1018              		.cfi_startproc
 1019              		@ args = 0, pretend = 0, frame = 0
 1020              		@ frame_needed = 0, uses_anonymous_args = 0
 1021              		@ link register save eliminated.
 1022              	.LVL82:
 1023              		.loc 1 754 0
 1024 0000 4369     		ldr	r3, [r0, #20]
 1025              		.loc 1 756 0
 1026 0002 C068     		ldr	r0, [r0, #12]
 1027              	.LVL83:
 1028              		.loc 1 754 0
 1029 0004 1B68     		ldr	r3, [r3]
 1030              		.loc 1 756 0
 1031 0006 40F48A60 		orr	r0, r0, #1104
 1032              		.loc 1 754 0
 1033 000a DA60     		str	r2, [r3, #12]
 1034              		.loc 1 755 0
 1035 000c 5960     		str	r1, [r3, #4]
 1036              		.loc 1 756 0
 1037 000e 1860     		str	r0, [r3]
 1038              		.loc 1 758 0
 1039 0010 1A68     		ldr	r2, [r3]
 1040              	.LVL84:
 1041 0012 42F00102 		orr	r2, r2, #1
 1042 0016 1A60     		str	r2, [r3]
 1043 0018 7047     		bx	lr
 1044              		.cfi_endproc
 1045              	.LFE130:
 1046              		.size	uart_lld_start_send, .-uart_lld_start_send
 1047 001a 00BFAFF3 		.section	.text.uart_lld_stop_send,"ax",%progbits
 1047      0080
 1048              		.align	2
 1049              		.p2align 4,,15
 1050              		.global	uart_lld_stop_send
 1051              		.thumb
 1052              		.thumb_func
 1053              		.type	uart_lld_stop_send, %function
 1054              	uart_lld_stop_send:
 1055              	.LFB131:
 1056              		.loc 1 772 0
 1057              		.cfi_startproc
 1058              		@ args = 0, pretend = 0, frame = 0
 1059              		@ frame_needed = 0, uses_anonymous_args = 0
 1060              		@ link register save eliminated.
 1061              	.LVL85:
 1062              		.loc 1 774 0
 1063 0000 4169     		ldr	r1, [r0, #20]
 1064 0002 0A68     		ldr	r2, [r1]
 1065 0004 1368     		ldr	r3, [r2]
 1066 0006 23F01F03 		bic	r3, r3, #31
 1067 000a 1360     		str	r3, [r2]
 1068              	.L118:
 1069              		.loc 1 774 0 is_stmt 0 discriminator 1
 1070 000c 1368     		ldr	r3, [r2]
 1071 000e DB07     		lsls	r3, r3, #31
 1072 0010 FCD4     		bmi	.L118
 1073              		.loc 1 774 0 discriminator 2
ARM GAS  /tmp/ccIYgS30.s 			page 20


 1074 0012 087A     		ldrb	r0, [r1, #8]	@ zero_extendqisi2
 1075              	.LVL86:
 1076 0014 4B68     		ldr	r3, [r1, #4]
 1077 0016 3D21     		movs	r1, #61
 1078 0018 8140     		lsls	r1, r1, r0
 1079 001a 1960     		str	r1, [r3]
 1080              		.loc 1 775 0 is_stmt 1 discriminator 2
 1081 001c 5068     		ldr	r0, [r2, #4]
 1082              		.loc 1 776 0 discriminator 2
 1083 001e 7047     		bx	lr
 1084              		.cfi_endproc
 1085              	.LFE131:
 1086              		.size	uart_lld_stop_send, .-uart_lld_stop_send
 1087              		.section	.text.uart_lld_start_receive,"ax",%progbits
 1088              		.align	2
 1089              		.p2align 4,,15
 1090              		.global	uart_lld_start_receive
 1091              		.thumb
 1092              		.thumb_func
 1093              		.type	uart_lld_start_receive, %function
 1094              	uart_lld_start_receive:
 1095              	.LFB132:
 1096              		.loc 1 789 0
 1097              		.cfi_startproc
 1098              		@ args = 0, pretend = 0, frame = 0
 1099              		@ frame_needed = 0, uses_anonymous_args = 0
 1100              		@ link register save eliminated.
 1101              	.LVL87:
 1102 0000 70B4     		push	{r4, r5, r6}
 1103              		.cfi_def_cfa_offset 12
 1104              		.cfi_offset 4, -12
 1105              		.cfi_offset 5, -8
 1106              		.cfi_offset 6, -4
 1107              		.loc 1 792 0
 1108 0002 0569     		ldr	r5, [r0, #16]
 1109 0004 2C68     		ldr	r4, [r5]
 1110 0006 2368     		ldr	r3, [r4]
 1111 0008 23F01F03 		bic	r3, r3, #31
 1112 000c 2360     		str	r3, [r4]
 1113              	.L121:
 1114              		.loc 1 792 0 is_stmt 0 discriminator 1
 1115 000e 2368     		ldr	r3, [r4]
 1116 0010 DE07     		lsls	r6, r3, #31
 1117 0012 FCD4     		bmi	.L121
 1118              		.loc 1 792 0 discriminator 2
 1119 0014 2E7A     		ldrb	r6, [r5, #8]	@ zero_extendqisi2
 1120 0016 6B68     		ldr	r3, [r5, #4]
 1121 0018 3D25     		movs	r5, #61
 1122 001a B540     		lsls	r5, r5, r6
 1123 001c 1D60     		str	r5, [r3]
 1124              		.loc 1 797 0 is_stmt 1 discriminator 2
 1125 001e C368     		ldr	r3, [r0, #12]
 1126              		.loc 1 795 0 discriminator 2
 1127 0020 E260     		str	r2, [r4, #12]
 1128              		.loc 1 797 0 discriminator 2
 1129 0022 43F48263 		orr	r3, r3, #1040
 1130              		.loc 1 796 0 discriminator 2
ARM GAS  /tmp/ccIYgS30.s 			page 21


 1131 0026 6160     		str	r1, [r4, #4]
 1132              		.loc 1 797 0 discriminator 2
 1133 0028 2360     		str	r3, [r4]
 1134              		.loc 1 799 0 discriminator 2
 1135 002a 2368     		ldr	r3, [r4]
 1136 002c 43F00103 		orr	r3, r3, #1
 1137 0030 2360     		str	r3, [r4]
 1138              		.loc 1 800 0 discriminator 2
 1139 0032 70BC     		pop	{r4, r5, r6}
 1140 0034 7047     		bx	lr
 1141              		.cfi_endproc
 1142              	.LFE132:
 1143              		.size	uart_lld_start_receive, .-uart_lld_start_receive
 1144 0036 00BFAFF3 		.section	.text.uart_lld_stop_receive,"ax",%progbits
 1144      0080AFF3 
 1144      0080
 1145              		.align	2
 1146              		.p2align 4,,15
 1147              		.global	uart_lld_stop_receive
 1148              		.thumb
 1149              		.thumb_func
 1150              		.type	uart_lld_stop_receive, %function
 1151              	uart_lld_stop_receive:
 1152              	.LFB133:
 1153              		.loc 1 813 0
 1154              		.cfi_startproc
 1155              		@ args = 0, pretend = 0, frame = 0
 1156              		@ frame_needed = 0, uses_anonymous_args = 0
 1157              		@ link register save eliminated.
 1158              	.LVL88:
 1159 0000 0146     		mov	r1, r0
 1160              		.loc 1 816 0
 1161 0002 0069     		ldr	r0, [r0, #16]
 1162              	.LVL89:
 1163 0004 0268     		ldr	r2, [r0]
 1164 0006 1368     		ldr	r3, [r2]
 1165 0008 23F01F03 		bic	r3, r3, #31
 1166              		.loc 1 813 0
 1167 000c 30B4     		push	{r4, r5}
 1168              		.cfi_def_cfa_offset 8
 1169              		.cfi_offset 4, -8
 1170              		.cfi_offset 5, -4
 1171              		.loc 1 816 0
 1172 000e 1360     		str	r3, [r2]
 1173              	.L124:
 1174              		.loc 1 816 0 is_stmt 0 discriminator 1
 1175 0010 1368     		ldr	r3, [r2]
 1176 0012 DB07     		lsls	r3, r3, #31
 1177 0014 FCD4     		bmi	.L124
 1178              		.loc 1 816 0 discriminator 2
 1179 0016 047A     		ldrb	r4, [r0, #8]	@ zero_extendqisi2
 1180              	.LBB54:
 1181              	.LBB55:
 1182              		.loc 1 165 0 is_stmt 1 discriminator 2
 1183 0018 4B68     		ldr	r3, [r1, #4]
 1184              	.LBE55:
 1185              	.LBE54:
ARM GAS  /tmp/ccIYgS30.s 			page 22


 1186              		.loc 1 816 0 discriminator 2
 1187 001a 4068     		ldr	r0, [r0, #4]
 1188 001c 3D25     		movs	r5, #61
 1189 001e 05FA04F4 		lsl	r4, r5, r4
 1190 0022 0460     		str	r4, [r0]
 1191              	.LBB58:
 1192              	.LBB56:
 1193              		.loc 1 165 0 discriminator 2
 1194 0024 DC68     		ldr	r4, [r3, #12]
 1195              		.loc 1 171 0 discriminator 2
 1196 0026 CB68     		ldr	r3, [r1, #12]
 1197              	.LBE56:
 1198              	.LBE58:
 1199              		.loc 1 817 0 discriminator 2
 1200 0028 5068     		ldr	r0, [r2, #4]
 1201              	.LVL90:
 1202              	.LBB59:
 1203              	.LBB57:
 1204              		.loc 1 166 0 discriminator 2
 1205 002a 002C     		cmp	r4, #0
 1206 002c 14BF     		ite	ne
 1207 002e 4FF48874 		movne	r4, #272
 1208 0032 4FF48074 		moveq	r4, #256
 1209              	.LVL91:
 1210              		.loc 1 171 0 discriminator 2
 1211 0036 2343     		orrs	r3, r3, r4
 1212              		.loc 1 169 0 discriminator 2
 1213 0038 1831     		adds	r1, r1, #24
 1214              	.LVL92:
 1215              		.loc 1 170 0 discriminator 2
 1216 003a 0124     		movs	r4, #1
 1217              	.LVL93:
 1218              		.loc 1 169 0 discriminator 2
 1219 003c D160     		str	r1, [r2, #12]
 1220              		.loc 1 170 0 discriminator 2
 1221 003e 5460     		str	r4, [r2, #4]
 1222              		.loc 1 171 0 discriminator 2
 1223 0040 1360     		str	r3, [r2]
 1224              		.loc 1 172 0 discriminator 2
 1225 0042 1368     		ldr	r3, [r2]
 1226 0044 2343     		orrs	r3, r3, r4
 1227 0046 1360     		str	r3, [r2]
 1228              	.LBE57:
 1229              	.LBE59:
 1230              		.loc 1 820 0 discriminator 2
 1231 0048 30BC     		pop	{r4, r5}
 1232 004a 7047     		bx	lr
 1233              		.cfi_endproc
 1234              	.LFE133:
 1235              		.size	uart_lld_stop_receive, .-uart_lld_stop_receive
 1236              		.global	UARTD2
 1237              		.global	UARTD1
 1238 004c AFF30080 		.section	.bss.UARTD1,"aw",%nobits
 1239              		.align	2
 1240              		.set	.LANCHOR0,. + 0
 1241              		.type	UARTD1, %object
 1242              		.size	UARTD1, 28
ARM GAS  /tmp/ccIYgS30.s 			page 23


 1243              	UARTD1:
 1244 0000 00000000 		.space	28
 1244      00000000 
 1244      00000000 
 1244      00000000 
 1244      00000000 
 1245              		.section	.bss.UARTD2,"aw",%nobits
 1246              		.align	2
 1247              		.set	.LANCHOR1,. + 0
 1248              		.type	UARTD2, %object
 1249              		.size	UARTD2, 28
 1250              	UARTD2:
 1251 0000 00000000 		.space	28
 1251      00000000 
 1251      00000000 
 1251      00000000 
 1251      00000000 
 1252              		.section	.rodata.str1.4,"aMS",%progbits,1
 1253              		.align	2
 1254              	.LC0:
 1255 0000 75617274 		.ascii	"uart_lld_start(), #1\000"
 1255      5F6C6C64 
 1255      5F737461 
 1255      72742829 
 1255      2C202331 
 1256 0015 000000   		.space	3
 1257              	.LC1:
 1258 0018 75617274 		.ascii	"uart_lld_start(), #2\000"
 1258      5F6C6C64 
 1258      5F737461 
 1258      72742829 
 1258      2C202332 
 1259 002d 000000   		.space	3
 1260              	.LC2:
 1261 0030 75617274 		.ascii	"uart_lld_start(), #3\000"
 1261      5F6C6C64 
 1261      5F737461 
 1261      72742829 
 1261      2C202333 
 1262 0045 000000   		.space	3
 1263              	.LC3:
 1264 0048 75617274 		.ascii	"uart_lld_start(), #4\000"
 1264      5F6C6C64 
 1264      5F737461 
 1264      72742829 
 1264      2C202334 
 1265 005d 000000   		.text
 1266              	.Letext0:
 1267              		.file 2 "/usr/lib/gcc/arm-none-eabi/4.8.2/include/stddef.h"
 1268              		.file 3 "/usr/arm-none-eabi/include/machine/_default_types.h"
 1269              		.file 4 "/usr/arm-none-eabi/include/stdint.h"
 1270              		.file 5 "../../../os/ports/GCC/ARMCMx/chtypes.h"
 1271              		.file 6 "../../../os/hal/platforms/STM32F4xx/stm32f4xx.h"
 1272              		.file 7 "../../../os/hal/platforms/STM32F4xx/stm32_dma.h"
 1273              		.file 8 "../../../os/hal/include/uart.h"
 1274              		.file 9 "../../../os/hal/platforms/STM32/USARTv1/uart_lld.h"
 1275              		.file 10 "../../../os/ports/common/ARMCMx/CMSIS/include/core_cm4.h"
ARM GAS  /tmp/ccIYgS30.s 			page 24


 1276              		.file 11 "../../../os/ports/GCC/ARMCMx/chcore_v7m.h"
 1277              		.file 12 "../../../os/kernel/include/chdebug.h"
 1278              		.file 13 "../../../os/ports/common/ARMCMx/nvic.h"