ARM GAS  /tmp/cc8rZpmq.s 			page 1


   1              		.cpu cortex-m0
   2              		.fpu softvfp
   3              		.eabi_attribute 20, 1
   4              		.eabi_attribute 21, 1
   5              		.eabi_attribute 23, 3
   6              		.eabi_attribute 24, 1
   7              		.eabi_attribute 25, 1
   8              		.eabi_attribute 26, 1
   9              		.eabi_attribute 30, 2
  10              		.eabi_attribute 34, 0
  11              		.eabi_attribute 18, 4
  12              		.code	16
  13              		.file	"chcond.c"
  14              		.text
  15              	.Ltext0:
  16              		.cfi_sections	.debug_frame
  17              		.section	.text.chCondInit,"ax",%progbits
  18              		.align	2
  19              		.p2align 4,,15
  20              		.global	chCondInit
  21              		.code	16
  22              		.thumb_func
  23              		.type	chCondInit, %function
  24              	chCondInit:
  25              	.LFB7:
  26              		.file 1 "../../os/kernel/src/chcond.c"
  27              		.loc 1 59 0
  28              		.cfi_startproc
  29              	.LVL0:
  30              		.loc 1 63 0
  31 0000 4060     		str	r0, [r0, #4]
  32 0002 0060     		str	r0, [r0]
  33              		.loc 1 64 0
  34              		@ sp needed
  35 0004 7047     		bx	lr
  36              		.cfi_endproc
  37              	.LFE7:
  38              		.size	chCondInit, .-chCondInit
  39 0006 C046C046 		.section	.text.chCondSignal,"ax",%progbits
  39      C046C046 
  39      C046
  40              		.align	2
  41              		.p2align 4,,15
  42              		.global	chCondSignal
  43              		.code	16
  44              		.thumb_func
  45              		.type	chCondSignal, %function
  46              	chCondSignal:
  47              	.LFB8:
  48              		.loc 1 73 0
  49              		.cfi_startproc
  50              	.LVL1:
  51 0000 08B5     		push	{r3, lr}
  52              		.cfi_def_cfa_offset 8
  53              		.cfi_offset 3, -8
  54              		.cfi_offset 14, -4
  55              		.loc 1 77 0
ARM GAS  /tmp/cc8rZpmq.s 			page 2


  56              	@ 77 "../../os/kernel/src/chcond.c" 1
  57 0002 72B6     		cpsid   i
  58              	@ 0 "" 2
  59              		.loc 1 78 0
  60              		.code	16
  61 0004 0368     		ldr	r3, [r0]
  62 0006 8342     		cmp	r3, r0
  63 0008 06D0     		beq	.L3
  64              	.LVL2:
  65              	.LBB12:
  66              	.LBB13:
  67              		.file 2 "../../os/kernel/include/chinline.h"
  68              		.loc 2 62 0
  69 000a 1A68     		ldr	r2, [r3]
  70              	.LBE13:
  71              	.LBE12:
  72              		.loc 1 79 0
  73 000c 0021     		mov	r1, #0
  74              	.LBB15:
  75              	.LBB14:
  76              		.loc 2 62 0
  77 000e 0260     		str	r2, [r0]
  78 0010 5060     		str	r0, [r2, #4]
  79              	.LBE14:
  80              	.LBE15:
  81              		.loc 1 79 0
  82 0012 181C     		mov	r0, r3
  83              	.LVL3:
  84 0014 FFF7FEFF 		bl	chSchWakeupS
  85              	.LVL4:
  86              	.L3:
  87              		.loc 1 80 0
  88              	@ 80 "../../os/kernel/src/chcond.c" 1
  89 0018 62B6     		cpsie   i
  90              	@ 0 "" 2
  91              		.loc 1 81 0
  92              		.code	16
  93              		@ sp needed
  94 001a 08BD     		pop	{r3, pc}
  95              		.cfi_endproc
  96              	.LFE8:
  97              		.size	chCondSignal, .-chCondSignal
  98 001c C046C046 		.section	.text.chCondSignalI,"ax",%progbits
  99              		.align	2
 100              		.p2align 4,,15
 101              		.global	chCondSignalI
 102              		.code	16
 103              		.thumb_func
 104              		.type	chCondSignalI, %function
 105              	chCondSignalI:
 106              	.LFB9:
 107              		.loc 1 94 0
 108              		.cfi_startproc
 109              	.LVL5:
 110 0000 08B5     		push	{r3, lr}
 111              		.cfi_def_cfa_offset 8
 112              		.cfi_offset 3, -8
ARM GAS  /tmp/cc8rZpmq.s 			page 3


 113              		.cfi_offset 14, -4
 114              		.loc 1 99 0
 115 0002 0368     		ldr	r3, [r0]
 116 0004 8342     		cmp	r3, r0
 117 0006 07D0     		beq	.L5
 118              	.LVL6:
 119              	.LBB16:
 120              	.LBB17:
 121              		.loc 2 62 0
 122 0008 1A68     		ldr	r2, [r3]
 123 000a 0260     		str	r2, [r0]
 124 000c 5060     		str	r0, [r2, #4]
 125              	.LBE17:
 126              	.LBE16:
 127              		.loc 1 100 0
 128 000e 181C     		mov	r0, r3
 129              	.LVL7:
 130 0010 FFF7FEFF 		bl	chSchReadyI
 131              	.LVL8:
 132 0014 0023     		mov	r3, #0
 133 0016 4362     		str	r3, [r0, #36]
 134              	.LVL9:
 135              	.L5:
 136              		.loc 1 101 0
 137              		@ sp needed
 138 0018 08BD     		pop	{r3, pc}
 139              		.cfi_endproc
 140              	.LFE9:
 141              		.size	chCondSignalI, .-chCondSignalI
 142 001a C046C046 		.section	.text.chCondBroadcastI,"ax",%progbits
 142      C046
 143              		.align	2
 144              		.p2align 4,,15
 145              		.global	chCondBroadcastI
 146              		.code	16
 147              		.thumb_func
 148              		.type	chCondBroadcastI, %function
 149              	chCondBroadcastI:
 150              	.LFB11:
 151              		.loc 1 129 0
 152              		.cfi_startproc
 153              	.LVL10:
 154 0000 38B5     		push	{r3, r4, r5, lr}
 155              		.cfi_def_cfa_offset 16
 156              		.cfi_offset 3, -16
 157              		.cfi_offset 4, -12
 158              		.cfi_offset 5, -8
 159              		.cfi_offset 14, -4
 160              		.loc 1 129 0
 161 0002 041C     		mov	r4, r0
 162              		.loc 1 137 0
 163 0004 0068     		ldr	r0, [r0]
 164              	.LVL11:
 165 0006 A042     		cmp	r0, r4
 166 0008 0AD0     		beq	.L7
 167              		.loc 1 138 0
 168 000a 0225     		mov	r5, #2
ARM GAS  /tmp/cc8rZpmq.s 			page 4


 169 000c 6D42     		neg	r5, r5
 170              	.L11:
 171              	.LVL12:
 172              	.LBB18:
 173              	.LBB19:
 174              		.loc 2 62 0
 175 000e 0368     		ldr	r3, [r0]
 176 0010 2360     		str	r3, [r4]
 177 0012 5C60     		str	r4, [r3, #4]
 178              	.LBE19:
 179              	.LBE18:
 180              		.loc 1 138 0
 181 0014 FFF7FEFF 		bl	chSchReadyI
 182              	.LVL13:
 183 0018 4562     		str	r5, [r0, #36]
 184              		.loc 1 137 0
 185 001a 2068     		ldr	r0, [r4]
 186 001c A042     		cmp	r0, r4
 187 001e F6D1     		bne	.L11
 188              	.LVL14:
 189              	.L7:
 190              		.loc 1 139 0
 191              		@ sp needed
 192              	.LVL15:
 193 0020 38BD     		pop	{r3, r4, r5, pc}
 194              		.cfi_endproc
 195              	.LFE11:
 196              		.size	chCondBroadcastI, .-chCondBroadcastI
 197 0022 C046C046 		.section	.text.chCondBroadcast,"ax",%progbits
 197      C046C046 
 197      C046C046 
 197      C046
 198              		.align	2
 199              		.p2align 4,,15
 200              		.global	chCondBroadcast
 201              		.code	16
 202              		.thumb_func
 203              		.type	chCondBroadcast, %function
 204              	chCondBroadcast:
 205              	.LFB10:
 206              		.loc 1 110 0
 207              		.cfi_startproc
 208              	.LVL16:
 209 0000 08B5     		push	{r3, lr}
 210              		.cfi_def_cfa_offset 8
 211              		.cfi_offset 3, -8
 212              		.cfi_offset 14, -4
 213              		.loc 1 112 0
 214              	@ 112 "../../os/kernel/src/chcond.c" 1
 215 0002 72B6     		cpsid   i
 216              	@ 0 "" 2
 217              		.loc 1 113 0
 218              		.code	16
 219 0004 FFF7FEFF 		bl	chCondBroadcastI
 220              	.LVL17:
 221              		.loc 1 114 0
 222 0008 FFF7FEFF 		bl	chSchRescheduleS
ARM GAS  /tmp/cc8rZpmq.s 			page 5


 223              	.LVL18:
 224              		.loc 1 115 0
 225              	@ 115 "../../os/kernel/src/chcond.c" 1
 226 000c 62B6     		cpsie   i
 227              	@ 0 "" 2
 228              		.loc 1 116 0
 229              		.code	16
 230              		@ sp needed
 231 000e 08BD     		pop	{r3, pc}
 232              		.cfi_endproc
 233              	.LFE10:
 234              		.size	chCondBroadcast, .-chCondBroadcast
 235              		.section	.text.chCondWaitS,"ax",%progbits
 236              		.align	2
 237              		.p2align 4,,15
 238              		.global	chCondWaitS
 239              		.code	16
 240              		.thumb_func
 241              		.type	chCondWaitS, %function
 242              	chCondWaitS:
 243              	.LFB13:
 244              		.loc 1 184 0
 245              		.cfi_startproc
 246              	.LVL19:
 247              		.loc 1 185 0
 248 0000 0F4B     		ldr	r3, .L19
 249              		.loc 1 184 0
 250 0002 70B5     		push	{r4, r5, r6, lr}
 251              		.cfi_def_cfa_offset 16
 252              		.cfi_offset 4, -16
 253              		.cfi_offset 5, -12
 254              		.cfi_offset 6, -8
 255              		.cfi_offset 14, -4
 256              		.loc 1 184 0
 257 0004 051C     		mov	r5, r0
 258              		.loc 1 185 0
 259 0006 9C69     		ldr	r4, [r3, #24]
 260              	.LVL20:
 261              		.loc 1 195 0
 262 0008 FFF7FEFF 		bl	chMtxUnlockS
 263              	.LVL21:
 264              		.loc 1 196 0
 265 000c 6562     		str	r5, [r4, #36]
 266              		.loc 1 195 0
 267 000e 061C     		mov	r6, r0
 268              	.LVL22:
 269              	.LBB20:
 270              	.LBB21:
 271              		.loc 2 43 0
 272 0010 2B1C     		mov	r3, r5
 273 0012 03E0     		b	.L16
 274              	.LVL23:
 275              	.L18:
 276              		.loc 2 46 0
 277 0014 9968     		ldr	r1, [r3, #8]
 278 0016 A268     		ldr	r2, [r4, #8]
 279 0018 9142     		cmp	r1, r2
ARM GAS  /tmp/cc8rZpmq.s 			page 6


 280 001a 02D3     		bcc	.L15
 281              	.L16:
 282              		.loc 2 45 0
 283 001c 1B68     		ldr	r3, [r3]
 284              	.LVL24:
 285              		.loc 2 46 0
 286 001e 9D42     		cmp	r5, r3
 287 0020 F8D1     		bne	.L18
 288              	.L15:
 289              		.loc 2 48 0
 290 0022 5A68     		ldr	r2, [r3, #4]
 291              		.loc 2 47 0
 292 0024 2360     		str	r3, [r4]
 293              		.loc 2 48 0
 294 0026 6260     		str	r2, [r4, #4]
 295              	.LBE21:
 296              	.LBE20:
 297              		.loc 1 198 0
 298 0028 0520     		mov	r0, #5
 299              	.LVL25:
 300              	.LBB23:
 301              	.LBB22:
 302              		.loc 2 49 0
 303 002a 5C60     		str	r4, [r3, #4]
 304 002c 1460     		str	r4, [r2]
 305              	.LBE22:
 306              	.LBE23:
 307              		.loc 1 198 0
 308 002e FFF7FEFF 		bl	chSchGoSleepS
 309              	.LVL26:
 310              		.loc 1 199 0
 311 0032 646A     		ldr	r4, [r4, #36]
 312              	.LVL27:
 313              		.loc 1 200 0
 314 0034 301C     		mov	r0, r6
 315 0036 FFF7FEFF 		bl	chMtxLockS
 316              	.LVL28:
 317              		.loc 1 202 0
 318              		@ sp needed
 319 003a 201C     		mov	r0, r4
 320              	.LVL29:
 321              	.LVL30:
 322              	.LVL31:
 323 003c 70BD     		pop	{r4, r5, r6, pc}
 324              	.L20:
 325 003e C046     		.align	2
 326              	.L19:
 327 0040 00000000 		.word	rlist
 328              		.cfi_endproc
 329              	.LFE13:
 330              		.size	chCondWaitS, .-chCondWaitS
 331 0044 C046C046 		.section	.text.chCondWait,"ax",%progbits
 331      C046C046 
 331      C046C046 
 332              		.align	2
 333              		.p2align 4,,15
 334              		.global	chCondWait
ARM GAS  /tmp/cc8rZpmq.s 			page 7


 335              		.code	16
 336              		.thumb_func
 337              		.type	chCondWait, %function
 338              	chCondWait:
 339              	.LFB12:
 340              		.loc 1 158 0
 341              		.cfi_startproc
 342              	.LVL32:
 343 0000 08B5     		push	{r3, lr}
 344              		.cfi_def_cfa_offset 8
 345              		.cfi_offset 3, -8
 346              		.cfi_offset 14, -4
 347              		.loc 1 161 0
 348              	@ 161 "../../os/kernel/src/chcond.c" 1
 349 0002 72B6     		cpsid   i
 350              	@ 0 "" 2
 351              		.loc 1 162 0
 352              		.code	16
 353 0004 FFF7FEFF 		bl	chCondWaitS
 354              	.LVL33:
 355              		.loc 1 163 0
 356              	@ 163 "../../os/kernel/src/chcond.c" 1
 357 0008 62B6     		cpsie   i
 358              	@ 0 "" 2
 359              		.loc 1 165 0
 360              		.code	16
 361              		@ sp needed
 362 000a 08BD     		pop	{r3, pc}
 363              		.cfi_endproc
 364              	.LFE12:
 365              		.size	chCondWait, .-chCondWait
 366 000c C046C046 		.section	.text.chCondWaitTimeoutS,"ax",%progbits
 367              		.align	2
 368              		.p2align 4,,15
 369              		.global	chCondWaitTimeoutS
 370              		.code	16
 371              		.thumb_func
 372              		.type	chCondWaitTimeoutS, %function
 373              	chCondWaitTimeoutS:
 374              	.LFB15:
 375              		.loc 1 270 0
 376              		.cfi_startproc
 377              	.LVL34:
 378 0000 70B5     		push	{r4, r5, r6, lr}
 379              		.cfi_def_cfa_offset 16
 380              		.cfi_offset 4, -16
 381              		.cfi_offset 5, -12
 382              		.cfi_offset 6, -8
 383              		.cfi_offset 14, -4
 384              		.loc 1 270 0
 385 0002 041C     		mov	r4, r0
 386 0004 0D1C     		mov	r5, r1
 387              		.loc 1 280 0
 388 0006 FFF7FEFF 		bl	chMtxUnlockS
 389              	.LVL35:
 390              		.loc 1 281 0
 391 000a 0F4B     		ldr	r3, .L28
ARM GAS  /tmp/cc8rZpmq.s 			page 8


 392              		.loc 1 280 0
 393 000c 061C     		mov	r6, r0
 394              	.LVL36:
 395              		.loc 1 281 0
 396 000e 9A69     		ldr	r2, [r3, #24]
 397              	.LBB24:
 398              	.LBB25:
 399              		.loc 2 43 0
 400 0010 231C     		mov	r3, r4
 401              	.LBE25:
 402              	.LBE24:
 403              		.loc 1 281 0
 404 0012 5462     		str	r4, [r2, #36]
 405              	.LVL37:
 406 0014 03E0     		b	.L27
 407              	.LVL38:
 408              	.L23:
 409              	.LBB29:
 410              	.LBB26:
 411              		.loc 2 46 0
 412 0016 9968     		ldr	r1, [r3, #8]
 413 0018 9068     		ldr	r0, [r2, #8]
 414 001a 8142     		cmp	r1, r0
 415 001c 02D3     		bcc	.L26
 416              	.L27:
 417              		.loc 2 45 0
 418 001e 1B68     		ldr	r3, [r3]
 419              	.LVL39:
 420              		.loc 2 46 0
 421 0020 9C42     		cmp	r4, r3
 422 0022 F8D1     		bne	.L23
 423              	.L26:
 424              		.loc 2 48 0
 425 0024 5C68     		ldr	r4, [r3, #4]
 426              	.LVL40:
 427              		.loc 2 47 0
 428 0026 1360     		str	r3, [r2]
 429              		.loc 2 48 0
 430 0028 5460     		str	r4, [r2, #4]
 431              	.LBE26:
 432              	.LBE29:
 433              		.loc 1 283 0
 434 002a 0520     		mov	r0, #5
 435              	.LBB30:
 436              	.LBB27:
 437              		.loc 2 49 0
 438 002c 5A60     		str	r2, [r3, #4]
 439              	.LBE27:
 440              	.LBE30:
 441              		.loc 1 283 0
 442 002e 291C     		mov	r1, r5
 443              	.LBB31:
 444              	.LBB28:
 445              		.loc 2 49 0
 446 0030 2260     		str	r2, [r4]
 447              	.LBE28:
 448              	.LBE31:
ARM GAS  /tmp/cc8rZpmq.s 			page 9


 449              		.loc 1 283 0
 450 0032 FFF7FEFF 		bl	chSchGoSleepTimeoutS
 451              	.LVL41:
 452 0036 041C     		mov	r4, r0
 453              	.LVL42:
 454              		.loc 1 284 0
 455 0038 601C     		add	r0, r4, #1
 456 003a 02D0     		beq	.L25
 457              	.LVL43:
 458              		.loc 1 285 0
 459 003c 301C     		mov	r0, r6
 460 003e FFF7FEFF 		bl	chMtxLockS
 461              	.LVL44:
 462              	.L25:
 463              		.loc 1 287 0
 464 0042 201C     		mov	r0, r4
 465              		@ sp needed
 466              	.LVL45:
 467              	.LVL46:
 468              	.LVL47:
 469 0044 70BD     		pop	{r4, r5, r6, pc}
 470              	.L29:
 471 0046 C046     		.align	2
 472              	.L28:
 473 0048 00000000 		.word	rlist
 474              		.cfi_endproc
 475              	.LFE15:
 476              		.size	chCondWaitTimeoutS, .-chCondWaitTimeoutS
 477 004c C046C046 		.section	.text.chCondWaitTimeout,"ax",%progbits
 478              		.align	2
 479              		.p2align 4,,15
 480              		.global	chCondWaitTimeout
 481              		.code	16
 482              		.thumb_func
 483              		.type	chCondWaitTimeout, %function
 484              	chCondWaitTimeout:
 485              	.LFB14:
 486              		.loc 1 233 0
 487              		.cfi_startproc
 488              	.LVL48:
 489 0000 08B5     		push	{r3, lr}
 490              		.cfi_def_cfa_offset 8
 491              		.cfi_offset 3, -8
 492              		.cfi_offset 14, -4
 493              		.loc 1 236 0
 494              	@ 236 "../../os/kernel/src/chcond.c" 1
 495 0002 72B6     		cpsid   i
 496              	@ 0 "" 2
 497              		.loc 1 237 0
 498              		.code	16
 499 0004 FFF7FEFF 		bl	chCondWaitTimeoutS
 500              	.LVL49:
 501              		.loc 1 238 0
 502              	@ 238 "../../os/kernel/src/chcond.c" 1
 503 0008 62B6     		cpsie   i
 504              	@ 0 "" 2
 505              		.loc 1 240 0
ARM GAS  /tmp/cc8rZpmq.s 			page 10


 506              		.code	16
 507              		@ sp needed
 508 000a 08BD     		pop	{r3, pc}
 509              		.cfi_endproc
 510              	.LFE14:
 511              		.size	chCondWaitTimeout, .-chCondWaitTimeout
 512 000c C046C046 		.text
 513              	.Letext0:
 514              		.file 3 "/usr/arm-none-eabi/include/machine/_default_types.h"
 515              		.file 4 "/usr/arm-none-eabi/include/stdint.h"
 516              		.file 5 "../../os/ports/GCC/ARMCMx/chtypes.h"
 517              		.file 6 "../../os/kernel/include/chlists.h"
 518              		.file 7 "../../os/kernel/include/chthreads.h"
 519              		.file 8 "../../os/ports/GCC/ARMCMx/chcore_v6m.h"
 520              		.file 9 "../../os/kernel/include/chschd.h"
 521              		.file 10 "../../os/kernel/include/chmtx.h"
 522              		.file 11 "../../os/kernel/include/chcond.h"
 523              		.section	.debug_info,"",%progbits
 524              	.Ldebug_info0:
 525 0000 8F080000 		.4byte	0x88f
 526 0004 0400     		.2byte	0x4
 527 0006 00000000 		.4byte	.Ldebug_abbrev0
 528 000a 04       		.byte	0x4
 529 000b 01       		.uleb128 0x1
 530 000c CC000000 		.4byte	.LASF82
 531 0010 01       		.byte	0x1
 532 0011 7D010000 		.4byte	.LASF83
 533 0015 59020000 		.4byte	.LASF84
 534 0019 58000000 		.4byte	.Ldebug_ranges0+0x58
 535 001d 00000000 		.4byte	0
 536 0021 00000000 		.4byte	.Ldebug_line0
 537 0025 02       		.uleb128 0x2
 538 0026 04       		.byte	0x4
 539 0027 05       		.byte	0x5
 540 0028 696E7400 		.ascii	"int\000"
 541 002c 03       		.uleb128 0x3
 542 002d 04       		.byte	0x4
 543 002e 07       		.byte	0x7
 544 002f B4010000 		.4byte	.LASF0
 545 0033 03       		.uleb128 0x3
 546 0034 01       		.byte	0x1
 547 0035 06       		.byte	0x6
 548 0036 68000000 		.4byte	.LASF1
 549 003a 04       		.uleb128 0x4
 550 003b 18000000 		.4byte	.LASF5
 551 003f 03       		.byte	0x3
 552 0040 1C       		.byte	0x1c
 553 0041 45000000 		.4byte	0x45
 554 0045 03       		.uleb128 0x3
 555 0046 01       		.byte	0x1
 556 0047 08       		.byte	0x8
 557 0048 0D030000 		.4byte	.LASF2
 558 004c 03       		.uleb128 0x3
 559 004d 02       		.byte	0x2
 560 004e 05       		.byte	0x5
 561 004f 25030000 		.4byte	.LASF3
 562 0053 03       		.uleb128 0x3
ARM GAS  /tmp/cc8rZpmq.s 			page 11


 563 0054 02       		.byte	0x2
 564 0055 07       		.byte	0x7
 565 0056 DB010000 		.4byte	.LASF4
 566 005a 04       		.uleb128 0x4
 567 005b DC030000 		.4byte	.LASF6
 568 005f 03       		.byte	0x3
 569 0060 37       		.byte	0x37
 570 0061 65000000 		.4byte	0x65
 571 0065 03       		.uleb128 0x3
 572 0066 04       		.byte	0x4
 573 0067 05       		.byte	0x5
 574 0068 96000000 		.4byte	.LASF7
 575 006c 04       		.uleb128 0x4
 576 006d 69010000 		.4byte	.LASF8
 577 0071 03       		.byte	0x3
 578 0072 38       		.byte	0x38
 579 0073 77000000 		.4byte	0x77
 580 0077 03       		.uleb128 0x3
 581 0078 04       		.byte	0x4
 582 0079 07       		.byte	0x7
 583 007a C1010000 		.4byte	.LASF9
 584 007e 03       		.uleb128 0x3
 585 007f 08       		.byte	0x8
 586 0080 05       		.byte	0x5
 587 0081 5A000000 		.4byte	.LASF10
 588 0085 03       		.uleb128 0x3
 589 0086 08       		.byte	0x8
 590 0087 07       		.byte	0x7
 591 0088 22000000 		.4byte	.LASF11
 592 008c 04       		.uleb128 0x4
 593 008d 3A040000 		.4byte	.LASF12
 594 0091 04       		.byte	0x4
 595 0092 2A       		.byte	0x2a
 596 0093 3A000000 		.4byte	0x3a
 597 0097 04       		.uleb128 0x4
 598 0098 05030000 		.4byte	.LASF13
 599 009c 04       		.byte	0x4
 600 009d 41       		.byte	0x41
 601 009e 5A000000 		.4byte	0x5a
 602 00a2 04       		.uleb128 0x4
 603 00a3 86030000 		.4byte	.LASF14
 604 00a7 04       		.byte	0x4
 605 00a8 42       		.byte	0x42
 606 00a9 6C000000 		.4byte	0x6c
 607 00ad 03       		.uleb128 0x3
 608 00ae 01       		.byte	0x1
 609 00af 02       		.byte	0x2
 610 00b0 FF020000 		.4byte	.LASF15
 611 00b4 04       		.uleb128 0x4
 612 00b5 FC010000 		.4byte	.LASF16
 613 00b9 05       		.byte	0x5
 614 00ba 2C       		.byte	0x2c
 615 00bb 8C000000 		.4byte	0x8c
 616 00bf 04       		.uleb128 0x4
 617 00c0 9F000000 		.4byte	.LASF17
 618 00c4 05       		.byte	0x5
 619 00c5 2D       		.byte	0x2d
ARM GAS  /tmp/cc8rZpmq.s 			page 12


 620 00c6 8C000000 		.4byte	0x8c
 621 00ca 04       		.uleb128 0x4
 622 00cb DA020000 		.4byte	.LASF18
 623 00cf 05       		.byte	0x5
 624 00d0 2E       		.byte	0x2e
 625 00d1 8C000000 		.4byte	0x8c
 626 00d5 04       		.uleb128 0x4
 627 00d6 84000000 		.4byte	.LASF19
 628 00da 05       		.byte	0x5
 629 00db 2F       		.byte	0x2f
 630 00dc 8C000000 		.4byte	0x8c
 631 00e0 04       		.uleb128 0x4
 632 00e1 E9020000 		.4byte	.LASF20
 633 00e5 05       		.byte	0x5
 634 00e6 30       		.byte	0x30
 635 00e7 A2000000 		.4byte	0xa2
 636 00eb 04       		.uleb128 0x4
 637 00ec EE010000 		.4byte	.LASF21
 638 00f0 05       		.byte	0x5
 639 00f1 31       		.byte	0x31
 640 00f2 97000000 		.4byte	0x97
 641 00f6 04       		.uleb128 0x4
 642 00f7 10020000 		.4byte	.LASF22
 643 00fb 05       		.byte	0x5
 644 00fc 33       		.byte	0x33
 645 00fd A2000000 		.4byte	0xa2
 646 0101 04       		.uleb128 0x4
 647 0102 C7030000 		.4byte	.LASF23
 648 0106 05       		.byte	0x5
 649 0107 35       		.byte	0x35
 650 0108 A2000000 		.4byte	0xa2
 651 010c 04       		.uleb128 0x4
 652 010d 5E030000 		.4byte	.LASF24
 653 0111 06       		.byte	0x6
 654 0112 2A       		.byte	0x2a
 655 0113 17010000 		.4byte	0x117
 656 0117 05       		.uleb128 0x5
 657 0118 5E030000 		.4byte	.LASF24
 658 011c 48       		.byte	0x48
 659 011d 07       		.byte	0x7
 660 011e 5E       		.byte	0x5e
 661 011f 14020000 		.4byte	0x214
 662 0123 06       		.uleb128 0x6
 663 0124 4F030000 		.4byte	.LASF25
 664 0128 07       		.byte	0x7
 665 0129 5F       		.byte	0x5f
 666 012a 35020000 		.4byte	0x235
 667 012e 00       		.byte	0
 668 012f 06       		.uleb128 0x6
 669 0130 E2020000 		.4byte	.LASF26
 670 0134 07       		.byte	0x7
 671 0135 61       		.byte	0x61
 672 0136 35020000 		.4byte	0x235
 673 013a 04       		.byte	0x4
 674 013b 06       		.uleb128 0x6
 675 013c 53000000 		.4byte	.LASF27
 676 0140 07       		.byte	0x7
ARM GAS  /tmp/cc8rZpmq.s 			page 13


 677 0141 63       		.byte	0x63
 678 0142 E0000000 		.4byte	0xe0
 679 0146 08       		.byte	0x8
 680 0147 06       		.uleb128 0x6
 681 0148 7F040000 		.4byte	.LASF28
 682 014c 07       		.byte	0x7
 683 014d 64       		.byte	0x64
 684 014e E5020000 		.4byte	0x2e5
 685 0152 0C       		.byte	0xc
 686 0153 06       		.uleb128 0x6
 687 0154 B3000000 		.4byte	.LASF29
 688 0158 07       		.byte	0x7
 689 0159 66       		.byte	0x66
 690 015a 35020000 		.4byte	0x235
 691 015e 10       		.byte	0x10
 692 015f 06       		.uleb128 0x6
 693 0160 3E020000 		.4byte	.LASF30
 694 0164 07       		.byte	0x7
 695 0165 67       		.byte	0x67
 696 0166 35020000 		.4byte	0x235
 697 016a 14       		.byte	0x14
 698 016b 06       		.uleb128 0x6
 699 016c 49040000 		.4byte	.LASF31
 700 0170 07       		.byte	0x7
 701 0171 6E       		.byte	0x6e
 702 0172 07040000 		.4byte	0x407
 703 0176 18       		.byte	0x18
 704 0177 06       		.uleb128 0x6
 705 0178 2F030000 		.4byte	.LASF32
 706 017c 07       		.byte	0x7
 707 017d 79       		.byte	0x79
 708 017e BF000000 		.4byte	0xbf
 709 0182 1C       		.byte	0x1c
 710 0183 06       		.uleb128 0x6
 711 0184 56030000 		.4byte	.LASF33
 712 0188 07       		.byte	0x7
 713 0189 7D       		.byte	0x7d
 714 018a B4000000 		.4byte	0xb4
 715 018e 1D       		.byte	0x1d
 716 018f 06       		.uleb128 0x6
 717 0190 23040000 		.4byte	.LASF34
 718 0194 07       		.byte	0x7
 719 0195 82       		.byte	0x82
 720 0196 CA000000 		.4byte	0xca
 721 019a 1E       		.byte	0x1e
 722 019b 06       		.uleb128 0x6
 723 019c 37030000 		.4byte	.LASF35
 724 01a0 07       		.byte	0x7
 725 01a1 88       		.byte	0x88
 726 01a2 D5000000 		.4byte	0xd5
 727 01a6 1F       		.byte	0x1f
 728 01a7 06       		.uleb128 0x6
 729 01a8 FD030000 		.4byte	.LASF36
 730 01ac 07       		.byte	0x7
 731 01ad 8F       		.byte	0x8f
 732 01ae 0B030000 		.4byte	0x30b
 733 01b2 20       		.byte	0x20
ARM GAS  /tmp/cc8rZpmq.s 			page 14


 734 01b3 07       		.uleb128 0x7
 735 01b4 705F7500 		.ascii	"p_u\000"
 736 01b8 07       		.byte	0x7
 737 01b9 B4       		.byte	0xb4
 738 01ba D2030000 		.4byte	0x3d2
 739 01be 24       		.byte	0x24
 740 01bf 06       		.uleb128 0x6
 741 01c0 85040000 		.4byte	.LASF37
 742 01c4 07       		.byte	0x7
 743 01c5 B9       		.byte	0xb9
 744 01c6 5B020000 		.4byte	0x25b
 745 01ca 28       		.byte	0x28
 746 01cb 06       		.uleb128 0x6
 747 01cc 0B040000 		.4byte	.LASF38
 748 01d0 07       		.byte	0x7
 749 01d1 BF       		.byte	0xbf
 750 01d2 3B020000 		.4byte	0x23b
 751 01d6 2C       		.byte	0x2c
 752 01d7 06       		.uleb128 0x6
 753 01d8 00000000 		.4byte	.LASF39
 754 01dc 07       		.byte	0x7
 755 01dd C3       		.byte	0xc3
 756 01de EB000000 		.4byte	0xeb
 757 01e2 34       		.byte	0x34
 758 01e3 06       		.uleb128 0x6
 759 01e4 7B030000 		.4byte	.LASF40
 760 01e8 07       		.byte	0x7
 761 01e9 C9       		.byte	0xc9
 762 01ea F6000000 		.4byte	0xf6
 763 01ee 38       		.byte	0x38
 764 01ef 06       		.uleb128 0x6
 765 01f0 1B030000 		.4byte	.LASF41
 766 01f4 07       		.byte	0x7
 767 01f5 D0       		.byte	0xd0
 768 01f6 19040000 		.4byte	0x419
 769 01fa 3C       		.byte	0x3c
 770 01fb 06       		.uleb128 0x6
 771 01fc D1030000 		.4byte	.LASF42
 772 0200 07       		.byte	0x7
 773 0201 D4       		.byte	0xd4
 774 0202 E0000000 		.4byte	0xe0
 775 0206 40       		.byte	0x40
 776 0207 06       		.uleb128 0x6
 777 0208 74000000 		.4byte	.LASF43
 778 020c 07       		.byte	0x7
 779 020d DA       		.byte	0xda
 780 020e 71020000 		.4byte	0x271
 781 0212 44       		.byte	0x44
 782 0213 00       		.byte	0
 783 0214 08       		.uleb128 0x8
 784 0215 08       		.byte	0x8
 785 0216 06       		.byte	0x6
 786 0217 61       		.byte	0x61
 787 0218 35020000 		.4byte	0x235
 788 021c 06       		.uleb128 0x6
 789 021d 4F030000 		.4byte	.LASF25
 790 0221 06       		.byte	0x6
ARM GAS  /tmp/cc8rZpmq.s 			page 15


 791 0222 62       		.byte	0x62
 792 0223 35020000 		.4byte	0x235
 793 0227 00       		.byte	0
 794 0228 06       		.uleb128 0x6
 795 0229 E2020000 		.4byte	.LASF26
 796 022d 06       		.byte	0x6
 797 022e 64       		.byte	0x64
 798 022f 35020000 		.4byte	0x235
 799 0233 04       		.byte	0x4
 800 0234 00       		.byte	0
 801 0235 09       		.uleb128 0x9
 802 0236 04       		.byte	0x4
 803 0237 0C010000 		.4byte	0x10c
 804 023b 04       		.uleb128 0x4
 805 023c 4C020000 		.4byte	.LASF44
 806 0240 06       		.byte	0x6
 807 0241 66       		.byte	0x66
 808 0242 14020000 		.4byte	0x214
 809 0246 08       		.uleb128 0x8
 810 0247 04       		.byte	0x4
 811 0248 06       		.byte	0x6
 812 0249 6B       		.byte	0x6b
 813 024a 5B020000 		.4byte	0x25b
 814 024e 06       		.uleb128 0x6
 815 024f 4F030000 		.4byte	.LASF25
 816 0253 06       		.byte	0x6
 817 0254 6D       		.byte	0x6d
 818 0255 35020000 		.4byte	0x235
 819 0259 00       		.byte	0
 820 025a 00       		.byte	0
 821 025b 04       		.uleb128 0x4
 822 025c 04020000 		.4byte	.LASF45
 823 0260 06       		.byte	0x6
 824 0261 70       		.byte	0x70
 825 0262 46020000 		.4byte	0x246
 826 0266 04       		.uleb128 0x4
 827 0267 74010000 		.4byte	.LASF46
 828 026b 08       		.byte	0x8
 829 026c A7       		.byte	0xa7
 830 026d 71020000 		.4byte	0x271
 831 0271 0A       		.uleb128 0xa
 832 0272 04       		.byte	0x4
 833 0273 05       		.uleb128 0x5
 834 0274 04040000 		.4byte	.LASF47
 835 0278 24       		.byte	0x24
 836 0279 08       		.byte	0x8
 837 027a BA       		.byte	0xba
 838 027b E5020000 		.4byte	0x2e5
 839 027f 07       		.uleb128 0x7
 840 0280 723800   		.ascii	"r8\000"
 841 0283 08       		.byte	0x8
 842 0284 BB       		.byte	0xbb
 843 0285 66020000 		.4byte	0x266
 844 0289 00       		.byte	0
 845 028a 07       		.uleb128 0x7
 846 028b 723900   		.ascii	"r9\000"
 847 028e 08       		.byte	0x8
ARM GAS  /tmp/cc8rZpmq.s 			page 16


 848 028f BC       		.byte	0xbc
 849 0290 66020000 		.4byte	0x266
 850 0294 04       		.byte	0x4
 851 0295 07       		.uleb128 0x7
 852 0296 72313000 		.ascii	"r10\000"
 853 029a 08       		.byte	0x8
 854 029b BD       		.byte	0xbd
 855 029c 66020000 		.4byte	0x266
 856 02a0 08       		.byte	0x8
 857 02a1 07       		.uleb128 0x7
 858 02a2 72313100 		.ascii	"r11\000"
 859 02a6 08       		.byte	0x8
 860 02a7 BE       		.byte	0xbe
 861 02a8 66020000 		.4byte	0x266
 862 02ac 0C       		.byte	0xc
 863 02ad 07       		.uleb128 0x7
 864 02ae 723400   		.ascii	"r4\000"
 865 02b1 08       		.byte	0x8
 866 02b2 BF       		.byte	0xbf
 867 02b3 66020000 		.4byte	0x266
 868 02b7 10       		.byte	0x10
 869 02b8 07       		.uleb128 0x7
 870 02b9 723500   		.ascii	"r5\000"
 871 02bc 08       		.byte	0x8
 872 02bd C0       		.byte	0xc0
 873 02be 66020000 		.4byte	0x266
 874 02c2 14       		.byte	0x14
 875 02c3 07       		.uleb128 0x7
 876 02c4 723600   		.ascii	"r6\000"
 877 02c7 08       		.byte	0x8
 878 02c8 C1       		.byte	0xc1
 879 02c9 66020000 		.4byte	0x266
 880 02cd 18       		.byte	0x18
 881 02ce 07       		.uleb128 0x7
 882 02cf 723700   		.ascii	"r7\000"
 883 02d2 08       		.byte	0x8
 884 02d3 C2       		.byte	0xc2
 885 02d4 66020000 		.4byte	0x266
 886 02d8 1C       		.byte	0x1c
 887 02d9 07       		.uleb128 0x7
 888 02da 6C7200   		.ascii	"lr\000"
 889 02dd 08       		.byte	0x8
 890 02de C3       		.byte	0xc3
 891 02df 66020000 		.4byte	0x266
 892 02e3 20       		.byte	0x20
 893 02e4 00       		.byte	0
 894 02e5 05       		.uleb128 0x5
 895 02e6 D3010000 		.4byte	.LASF48
 896 02ea 04       		.byte	0x4
 897 02eb 08       		.byte	0x8
 898 02ec CD       		.byte	0xcd
 899 02ed FE020000 		.4byte	0x2fe
 900 02f1 07       		.uleb128 0x7
 901 02f2 72313300 		.ascii	"r13\000"
 902 02f6 08       		.byte	0x8
 903 02f7 CE       		.byte	0xce
 904 02f8 FE020000 		.4byte	0x2fe
ARM GAS  /tmp/cc8rZpmq.s 			page 17


 905 02fc 00       		.byte	0
 906 02fd 00       		.byte	0
 907 02fe 09       		.uleb128 0x9
 908 02ff 04       		.byte	0x4
 909 0300 73020000 		.4byte	0x273
 910 0304 03       		.uleb128 0x3
 911 0305 04       		.byte	0x4
 912 0306 07       		.byte	0x7
 913 0307 22020000 		.4byte	.LASF49
 914 030b 0B       		.uleb128 0xb
 915 030c 01010000 		.4byte	0x101
 916 0310 08       		.uleb128 0x8
 917 0311 1C       		.byte	0x1c
 918 0312 09       		.byte	0x9
 919 0313 5E       		.byte	0x5e
 920 0314 61030000 		.4byte	0x361
 921 0318 06       		.uleb128 0x6
 922 0319 8F030000 		.4byte	.LASF50
 923 031d 09       		.byte	0x9
 924 031e 5F       		.byte	0x5f
 925 031f 3B020000 		.4byte	0x23b
 926 0323 00       		.byte	0
 927 0324 06       		.uleb128 0x6
 928 0325 41030000 		.4byte	.LASF51
 929 0329 09       		.byte	0x9
 930 032a 60       		.byte	0x60
 931 032b E0000000 		.4byte	0xe0
 932 032f 08       		.byte	0x8
 933 0330 06       		.uleb128 0x6
 934 0331 46020000 		.4byte	.LASF52
 935 0335 09       		.byte	0x9
 936 0336 62       		.byte	0x62
 937 0337 E5020000 		.4byte	0x2e5
 938 033b 0C       		.byte	0xc
 939 033c 06       		.uleb128 0x6
 940 033d F4010000 		.4byte	.LASF53
 941 0341 09       		.byte	0x9
 942 0342 65       		.byte	0x65
 943 0343 35020000 		.4byte	0x235
 944 0347 10       		.byte	0x10
 945 0348 06       		.uleb128 0x6
 946 0349 C2020000 		.4byte	.LASF54
 947 034d 09       		.byte	0x9
 948 034e 66       		.byte	0x66
 949 034f 35020000 		.4byte	0x235
 950 0353 14       		.byte	0x14
 951 0354 06       		.uleb128 0x6
 952 0355 B8020000 		.4byte	.LASF55
 953 0359 09       		.byte	0x9
 954 035a 69       		.byte	0x69
 955 035b 35020000 		.4byte	0x235
 956 035f 18       		.byte	0x18
 957 0360 00       		.byte	0
 958 0361 04       		.uleb128 0x4
 959 0362 2A040000 		.4byte	.LASF56
 960 0366 09       		.byte	0x9
 961 0367 6B       		.byte	0x6b
ARM GAS  /tmp/cc8rZpmq.s 			page 18


 962 0368 10030000 		.4byte	0x310
 963 036c 05       		.uleb128 0x5
 964 036d 1C020000 		.4byte	.LASF57
 965 0371 10       		.byte	0x10
 966 0372 0A       		.byte	0xa
 967 0373 2C       		.byte	0x2c
 968 0374 9D030000 		.4byte	0x39d
 969 0378 06       		.uleb128 0x6
 970 0379 7C000000 		.4byte	.LASF58
 971 037d 0A       		.byte	0xa
 972 037e 2D       		.byte	0x2d
 973 037f 3B020000 		.4byte	0x23b
 974 0383 00       		.byte	0
 975 0384 06       		.uleb128 0x6
 976 0385 77040000 		.4byte	.LASF59
 977 0389 0A       		.byte	0xa
 978 038a 2F       		.byte	0x2f
 979 038b 35020000 		.4byte	0x235
 980 038f 08       		.byte	0x8
 981 0390 06       		.uleb128 0x6
 982 0391 C0030000 		.4byte	.LASF60
 983 0395 0A       		.byte	0xa
 984 0396 31       		.byte	0x31
 985 0397 9D030000 		.4byte	0x39d
 986 039b 0C       		.byte	0xc
 987 039c 00       		.byte	0
 988 039d 09       		.uleb128 0x9
 989 039e 04       		.byte	0x4
 990 039f 6C030000 		.4byte	0x36c
 991 03a3 04       		.uleb128 0x4
 992 03a4 1C020000 		.4byte	.LASF57
 993 03a8 0A       		.byte	0xa
 994 03a9 33       		.byte	0x33
 995 03aa 6C030000 		.4byte	0x36c
 996 03ae 05       		.uleb128 0x5
 997 03af 8E000000 		.4byte	.LASF61
 998 03b3 08       		.byte	0x8
 999 03b4 0B       		.byte	0xb
 1000 03b5 36       		.byte	0x36
 1001 03b6 C7030000 		.4byte	0x3c7
 1002 03ba 06       		.uleb128 0x6
 1003 03bb 65030000 		.4byte	.LASF62
 1004 03bf 0B       		.byte	0xb
 1005 03c0 37       		.byte	0x37
 1006 03c1 3B020000 		.4byte	0x23b
 1007 03c5 00       		.byte	0
 1008 03c6 00       		.byte	0
 1009 03c7 04       		.uleb128 0x4
 1010 03c8 8E000000 		.4byte	.LASF61
 1011 03cc 0B       		.byte	0xb
 1012 03cd 38       		.byte	0x38
 1013 03ce AE030000 		.4byte	0x3ae
 1014 03d2 0C       		.uleb128 0xc
 1015 03d3 04       		.byte	0x4
 1016 03d4 07       		.byte	0x7
 1017 03d5 96       		.byte	0x96
 1018 03d6 07040000 		.4byte	0x407
ARM GAS  /tmp/cc8rZpmq.s 			page 19


 1019 03da 0D       		.uleb128 0xd
 1020 03db 11000000 		.4byte	.LASF63
 1021 03df 07       		.byte	0x7
 1022 03e0 9D       		.byte	0x9d
 1023 03e1 EB000000 		.4byte	0xeb
 1024 03e5 0D       		.uleb128 0xd
 1025 03e6 39000000 		.4byte	.LASF64
 1026 03ea 07       		.byte	0x7
 1027 03eb A4       		.byte	0xa4
 1028 03ec EB000000 		.4byte	0xeb
 1029 03f0 0D       		.uleb128 0xd
 1030 03f1 42040000 		.4byte	.LASF65
 1031 03f5 07       		.byte	0x7
 1032 03f6 AB       		.byte	0xab
 1033 03f7 71020000 		.4byte	0x271
 1034 03fb 0D       		.uleb128 0xd
 1035 03fc 48030000 		.4byte	.LASF66
 1036 0400 07       		.byte	0x7
 1037 0401 B2       		.byte	0xb2
 1038 0402 F6000000 		.4byte	0xf6
 1039 0406 00       		.byte	0
 1040 0407 09       		.uleb128 0x9
 1041 0408 04       		.byte	0x4
 1042 0409 0D040000 		.4byte	0x40d
 1043 040d 0E       		.uleb128 0xe
 1044 040e 12040000 		.4byte	0x412
 1045 0412 03       		.uleb128 0x3
 1046 0413 01       		.byte	0x1
 1047 0414 08       		.byte	0x8
 1048 0415 A3030000 		.4byte	.LASF67
 1049 0419 09       		.uleb128 0x9
 1050 041a 04       		.byte	0x4
 1051 041b A3030000 		.4byte	0x3a3
 1052 041f 0F       		.uleb128 0xf
 1053 0420 A8030000 		.4byte	.LASF85
 1054 0424 02       		.byte	0x2
 1055 0425 3B       		.byte	0x3b
 1056 0426 35020000 		.4byte	0x235
 1057 042a 03       		.byte	0x3
 1058 042b 45040000 		.4byte	0x445
 1059 042f 10       		.uleb128 0x10
 1060 0430 74717000 		.ascii	"tqp\000"
 1061 0434 02       		.byte	0x2
 1062 0435 3B       		.byte	0x3b
 1063 0436 45040000 		.4byte	0x445
 1064 043a 11       		.uleb128 0x11
 1065 043b 747000   		.ascii	"tp\000"
 1066 043e 02       		.byte	0x2
 1067 043f 3C       		.byte	0x3c
 1068 0440 35020000 		.4byte	0x235
 1069 0444 00       		.byte	0
 1070 0445 09       		.uleb128 0x9
 1071 0446 04       		.byte	0x4
 1072 0447 3B020000 		.4byte	0x23b
 1073 044b 12       		.uleb128 0x12
 1074 044c E6030000 		.4byte	.LASF86
 1075 0450 02       		.byte	0x2
ARM GAS  /tmp/cc8rZpmq.s 			page 20


 1076 0451 29       		.byte	0x29
 1077 0452 03       		.byte	0x3
 1078 0453 77040000 		.4byte	0x477
 1079 0457 10       		.uleb128 0x10
 1080 0458 747000   		.ascii	"tp\000"
 1081 045b 02       		.byte	0x2
 1082 045c 29       		.byte	0x29
 1083 045d 35020000 		.4byte	0x235
 1084 0461 10       		.uleb128 0x10
 1085 0462 74717000 		.ascii	"tqp\000"
 1086 0466 02       		.byte	0x2
 1087 0467 29       		.byte	0x29
 1088 0468 45040000 		.4byte	0x445
 1089 046c 11       		.uleb128 0x11
 1090 046d 637000   		.ascii	"cp\000"
 1091 0470 02       		.byte	0x2
 1092 0471 2B       		.byte	0x2b
 1093 0472 35020000 		.4byte	0x235
 1094 0476 00       		.byte	0
 1095 0477 13       		.uleb128 0x13
 1096 0478 06000000 		.4byte	.LASF68
 1097 047c 01       		.byte	0x1
 1098 047d 3B       		.byte	0x3b
 1099 047e 00000000 		.4byte	.LFB7
 1100 0482 06000000 		.4byte	.LFE7-.LFB7
 1101 0486 01       		.uleb128 0x1
 1102 0487 9C       		.byte	0x9c
 1103 0488 99040000 		.4byte	0x499
 1104 048c 14       		.uleb128 0x14
 1105 048d 637000   		.ascii	"cp\000"
 1106 0490 01       		.byte	0x1
 1107 0491 3B       		.byte	0x3b
 1108 0492 99040000 		.4byte	0x499
 1109 0496 01       		.uleb128 0x1
 1110 0497 50       		.byte	0x50
 1111 0498 00       		.byte	0
 1112 0499 09       		.uleb128 0x9
 1113 049a 04       		.byte	0x4
 1114 049b C7030000 		.4byte	0x3c7
 1115 049f 13       		.uleb128 0x13
 1116 04a0 9A010000 		.4byte	.LASF69
 1117 04a4 01       		.byte	0x1
 1118 04a5 49       		.byte	0x49
 1119 04a6 00000000 		.4byte	.LFB8
 1120 04aa 1C000000 		.4byte	.LFE8-.LFB8
 1121 04ae 01       		.uleb128 0x1
 1122 04af 9C       		.byte	0x9c
 1123 04b0 FE040000 		.4byte	0x4fe
 1124 04b4 15       		.uleb128 0x15
 1125 04b5 637000   		.ascii	"cp\000"
 1126 04b8 01       		.byte	0x1
 1127 04b9 49       		.byte	0x49
 1128 04ba 99040000 		.4byte	0x499
 1129 04be 00000000 		.4byte	.LLST0
 1130 04c2 16       		.uleb128 0x16
 1131 04c3 1F040000 		.4byte	0x41f
 1132 04c7 0A000000 		.4byte	.LBB12
ARM GAS  /tmp/cc8rZpmq.s 			page 21


 1133 04cb 00000000 		.4byte	.Ldebug_ranges0+0
 1134 04cf 01       		.byte	0x1
 1135 04d0 4F       		.byte	0x4f
 1136 04d1 EE040000 		.4byte	0x4ee
 1137 04d5 17       		.uleb128 0x17
 1138 04d6 2F040000 		.4byte	0x42f
 1139 04da 2D000000 		.4byte	.LLST1
 1140 04de 18       		.uleb128 0x18
 1141 04df 00000000 		.4byte	.Ldebug_ranges0+0
 1142 04e3 19       		.uleb128 0x19
 1143 04e4 3A040000 		.4byte	0x43a
 1144 04e8 5A000000 		.4byte	.LLST2
 1145 04ec 00       		.byte	0
 1146 04ed 00       		.byte	0
 1147 04ee 1A       		.uleb128 0x1a
 1148 04ef 18000000 		.4byte	.LVL4
 1149 04f3 1D080000 		.4byte	0x81d
 1150 04f7 1B       		.uleb128 0x1b
 1151 04f8 01       		.uleb128 0x1
 1152 04f9 51       		.byte	0x51
 1153 04fa 01       		.uleb128 0x1
 1154 04fb 30       		.byte	0x30
 1155 04fc 00       		.byte	0
 1156 04fd 00       		.byte	0
 1157 04fe 13       		.uleb128 0x13
 1158 04ff F1020000 		.4byte	.LASF70
 1159 0503 01       		.byte	0x1
 1160 0504 5E       		.byte	0x5e
 1161 0505 00000000 		.4byte	.LFB9
 1162 0509 1A000000 		.4byte	.LFE9-.LFB9
 1163 050d 01       		.uleb128 0x1
 1164 050e 9C       		.byte	0x9c
 1165 050f 5B050000 		.4byte	0x55b
 1166 0513 15       		.uleb128 0x15
 1167 0514 637000   		.ascii	"cp\000"
 1168 0517 01       		.byte	0x1
 1169 0518 5E       		.byte	0x5e
 1170 0519 99040000 		.4byte	0x499
 1171 051d 6D000000 		.4byte	.LLST3
 1172 0521 1C       		.uleb128 0x1c
 1173 0522 1F040000 		.4byte	0x41f
 1174 0526 08000000 		.4byte	.LBB16
 1175 052a 06000000 		.4byte	.LBE16-.LBB16
 1176 052e 01       		.byte	0x1
 1177 052f 64       		.byte	0x64
 1178 0530 51050000 		.4byte	0x551
 1179 0534 17       		.uleb128 0x17
 1180 0535 2F040000 		.4byte	0x42f
 1181 0539 9A000000 		.4byte	.LLST4
 1182 053d 1D       		.uleb128 0x1d
 1183 053e 08000000 		.4byte	.LBB17
 1184 0542 06000000 		.4byte	.LBE17-.LBB17
 1185 0546 19       		.uleb128 0x19
 1186 0547 3A040000 		.4byte	0x43a
 1187 054b C7000000 		.4byte	.LLST5
 1188 054f 00       		.byte	0
 1189 0550 00       		.byte	0
ARM GAS  /tmp/cc8rZpmq.s 			page 22


 1190 0551 1E       		.uleb128 0x1e
 1191 0552 14000000 		.4byte	.LVL8
 1192 0556 33080000 		.4byte	0x833
 1193 055a 00       		.byte	0
 1194 055b 13       		.uleb128 0x13
 1195 055c 42000000 		.4byte	.LASF71
 1196 0560 01       		.byte	0x1
 1197 0561 81       		.byte	0x81
 1198 0562 00000000 		.4byte	.LFB11
 1199 0566 22000000 		.4byte	.LFE11-.LFB11
 1200 056a 01       		.uleb128 0x1
 1201 056b 9C       		.byte	0x9c
 1202 056c B8050000 		.4byte	0x5b8
 1203 0570 15       		.uleb128 0x15
 1204 0571 637000   		.ascii	"cp\000"
 1205 0574 01       		.byte	0x1
 1206 0575 81       		.byte	0x81
 1207 0576 99040000 		.4byte	0x499
 1208 057a DA000000 		.4byte	.LLST6
 1209 057e 1C       		.uleb128 0x1c
 1210 057f 1F040000 		.4byte	0x41f
 1211 0583 0E000000 		.4byte	.LBB18
 1212 0587 06000000 		.4byte	.LBE18-.LBB18
 1213 058b 01       		.byte	0x1
 1214 058c 8A       		.byte	0x8a
 1215 058d AE050000 		.4byte	0x5ae
 1216 0591 17       		.uleb128 0x17
 1217 0592 2F040000 		.4byte	0x42f
 1218 0596 06010000 		.4byte	.LLST7
 1219 059a 1D       		.uleb128 0x1d
 1220 059b 0E000000 		.4byte	.LBB19
 1221 059f 06000000 		.4byte	.LBE19-.LBB19
 1222 05a3 19       		.uleb128 0x19
 1223 05a4 3A040000 		.4byte	0x43a
 1224 05a8 19010000 		.4byte	.LLST8
 1225 05ac 00       		.byte	0
 1226 05ad 00       		.byte	0
 1227 05ae 1E       		.uleb128 0x1e
 1228 05af 18000000 		.4byte	.LVL13
 1229 05b3 33080000 		.4byte	0x833
 1230 05b7 00       		.byte	0
 1231 05b8 13       		.uleb128 0x13
 1232 05b9 CA020000 		.4byte	.LASF72
 1233 05bd 01       		.byte	0x1
 1234 05be 6E       		.byte	0x6e
 1235 05bf 00000000 		.4byte	.LFB10
 1236 05c3 10000000 		.4byte	.LFE10-.LFB10
 1237 05c7 01       		.uleb128 0x1
 1238 05c8 9C       		.byte	0x9c
 1239 05c9 FA050000 		.4byte	0x5fa
 1240 05cd 15       		.uleb128 0x15
 1241 05ce 637000   		.ascii	"cp\000"
 1242 05d1 01       		.byte	0x1
 1243 05d2 6E       		.byte	0x6e
 1244 05d3 99040000 		.4byte	0x499
 1245 05d7 2C010000 		.4byte	.LLST9
 1246 05db 1F       		.uleb128 0x1f
ARM GAS  /tmp/cc8rZpmq.s 			page 23


 1247 05dc 08000000 		.4byte	.LVL17
 1248 05e0 5B050000 		.4byte	0x55b
 1249 05e4 F0050000 		.4byte	0x5f0
 1250 05e8 1B       		.uleb128 0x1b
 1251 05e9 01       		.uleb128 0x1
 1252 05ea 50       		.byte	0x50
 1253 05eb 03       		.uleb128 0x3
 1254 05ec F3       		.byte	0xf3
 1255 05ed 01       		.uleb128 0x1
 1256 05ee 50       		.byte	0x50
 1257 05ef 00       		.byte	0
 1258 05f0 1E       		.uleb128 0x1e
 1259 05f1 0C000000 		.4byte	.LVL18
 1260 05f5 48080000 		.4byte	0x848
 1261 05f9 00       		.byte	0
 1262 05fa 20       		.uleb128 0x20
 1263 05fb B4030000 		.4byte	.LASF73
 1264 05ff 01       		.byte	0x1
 1265 0600 B8       		.byte	0xb8
 1266 0601 EB000000 		.4byte	0xeb
 1267 0605 00000000 		.4byte	.LFB13
 1268 0609 44000000 		.4byte	.LFE13-.LFB13
 1269 060d 01       		.uleb128 0x1
 1270 060e 9C       		.byte	0x9c
 1271 060f AF060000 		.4byte	0x6af
 1272 0613 15       		.uleb128 0x15
 1273 0614 637000   		.ascii	"cp\000"
 1274 0617 01       		.byte	0x1
 1275 0618 B8       		.byte	0xb8
 1276 0619 99040000 		.4byte	0x499
 1277 061d 4D010000 		.4byte	.LLST10
 1278 0621 21       		.uleb128 0x21
 1279 0622 63747000 		.ascii	"ctp\000"
 1280 0626 01       		.byte	0x1
 1281 0627 B9       		.byte	0xb9
 1282 0628 35020000 		.4byte	0x235
 1283 062c 79010000 		.4byte	.LLST11
 1284 0630 21       		.uleb128 0x21
 1285 0631 6D7000   		.ascii	"mp\000"
 1286 0634 01       		.byte	0x1
 1287 0635 BA       		.byte	0xba
 1288 0636 19040000 		.4byte	0x419
 1289 063a 8C010000 		.4byte	.LLST12
 1290 063e 21       		.uleb128 0x21
 1291 063f 6D736700 		.ascii	"msg\000"
 1292 0643 01       		.byte	0x1
 1293 0644 BB       		.byte	0xbb
 1294 0645 EB000000 		.4byte	0xeb
 1295 0649 AA010000 		.4byte	.LLST13
 1296 064d 16       		.uleb128 0x16
 1297 064e 4B040000 		.4byte	0x44b
 1298 0652 10000000 		.4byte	.LBB20
 1299 0656 18000000 		.4byte	.Ldebug_ranges0+0x18
 1300 065a 01       		.byte	0x1
 1301 065b C5       		.byte	0xc5
 1302 065c 82060000 		.4byte	0x682
 1303 0660 17       		.uleb128 0x17
ARM GAS  /tmp/cc8rZpmq.s 			page 24


 1304 0661 61040000 		.4byte	0x461
 1305 0665 C8010000 		.4byte	.LLST14
 1306 0669 17       		.uleb128 0x17
 1307 066a 57040000 		.4byte	0x457
 1308 066e E9010000 		.4byte	.LLST15
 1309 0672 18       		.uleb128 0x18
 1310 0673 18000000 		.4byte	.Ldebug_ranges0+0x18
 1311 0677 19       		.uleb128 0x19
 1312 0678 6C040000 		.4byte	0x46c
 1313 067c FC010000 		.4byte	.LLST16
 1314 0680 00       		.byte	0
 1315 0681 00       		.byte	0
 1316 0682 1E       		.uleb128 0x1e
 1317 0683 0C000000 		.4byte	.LVL21
 1318 0687 4F080000 		.4byte	0x84f
 1319 068b 1F       		.uleb128 0x1f
 1320 068c 32000000 		.4byte	.LVL26
 1321 0690 5A080000 		.4byte	0x85a
 1322 0694 9E060000 		.4byte	0x69e
 1323 0698 1B       		.uleb128 0x1b
 1324 0699 01       		.uleb128 0x1
 1325 069a 50       		.byte	0x50
 1326 069b 01       		.uleb128 0x1
 1327 069c 35       		.byte	0x35
 1328 069d 00       		.byte	0
 1329 069e 1A       		.uleb128 0x1a
 1330 069f 3A000000 		.4byte	.LVL28
 1331 06a3 6B080000 		.4byte	0x86b
 1332 06a7 1B       		.uleb128 0x1b
 1333 06a8 01       		.uleb128 0x1
 1334 06a9 50       		.byte	0x50
 1335 06aa 02       		.uleb128 0x2
 1336 06ab 76       		.byte	0x76
 1337 06ac 00       		.sleb128 0
 1338 06ad 00       		.byte	0
 1339 06ae 00       		.byte	0
 1340 06af 20       		.uleb128 0x20
 1341 06b0 F2030000 		.4byte	.LASF74
 1342 06b4 01       		.byte	0x1
 1343 06b5 9E       		.byte	0x9e
 1344 06b6 EB000000 		.4byte	0xeb
 1345 06ba 00000000 		.4byte	.LFB12
 1346 06be 0C000000 		.4byte	.LFE12-.LFB12
 1347 06c2 01       		.uleb128 0x1
 1348 06c3 9C       		.byte	0x9c
 1349 06c4 F5060000 		.4byte	0x6f5
 1350 06c8 15       		.uleb128 0x15
 1351 06c9 637000   		.ascii	"cp\000"
 1352 06cc 01       		.byte	0x1
 1353 06cd 9E       		.byte	0x9e
 1354 06ce 99040000 		.4byte	0x499
 1355 06d2 1A020000 		.4byte	.LLST17
 1356 06d6 22       		.uleb128 0x22
 1357 06d7 6D736700 		.ascii	"msg\000"
 1358 06db 01       		.byte	0x1
 1359 06dc 9F       		.byte	0x9f
 1360 06dd EB000000 		.4byte	0xeb
ARM GAS  /tmp/cc8rZpmq.s 			page 25


 1361 06e1 01       		.uleb128 0x1
 1362 06e2 50       		.byte	0x50
 1363 06e3 1A       		.uleb128 0x1a
 1364 06e4 08000000 		.4byte	.LVL33
 1365 06e8 FA050000 		.4byte	0x5fa
 1366 06ec 1B       		.uleb128 0x1b
 1367 06ed 01       		.uleb128 0x1
 1368 06ee 50       		.byte	0x50
 1369 06ef 03       		.uleb128 0x3
 1370 06f0 F3       		.byte	0xf3
 1371 06f1 01       		.uleb128 0x1
 1372 06f2 50       		.byte	0x50
 1373 06f3 00       		.byte	0
 1374 06f4 00       		.byte	0
 1375 06f5 23       		.uleb128 0x23
 1376 06f6 2B020000 		.4byte	.LASF75
 1377 06fa 01       		.byte	0x1
 1378 06fb 0E01     		.2byte	0x10e
 1379 06fd EB000000 		.4byte	0xeb
 1380 0701 00000000 		.4byte	.LFB15
 1381 0705 4C000000 		.4byte	.LFE15-.LFB15
 1382 0709 01       		.uleb128 0x1
 1383 070a 9C       		.byte	0x9c
 1384 070b B6070000 		.4byte	0x7b6
 1385 070f 24       		.uleb128 0x24
 1386 0710 637000   		.ascii	"cp\000"
 1387 0713 01       		.byte	0x1
 1388 0714 0E01     		.2byte	0x10e
 1389 0716 99040000 		.4byte	0x499
 1390 071a 3B020000 		.4byte	.LLST18
 1391 071e 25       		.uleb128 0x25
 1392 071f B3020000 		.4byte	.LASF76
 1393 0723 01       		.byte	0x1
 1394 0724 0E01     		.2byte	0x10e
 1395 0726 01010000 		.4byte	0x101
 1396 072a 73020000 		.4byte	.LLST19
 1397 072e 26       		.uleb128 0x26
 1398 072f 6D7000   		.ascii	"mp\000"
 1399 0732 01       		.byte	0x1
 1400 0733 0F01     		.2byte	0x10f
 1401 0735 19040000 		.4byte	0x419
 1402 0739 9F020000 		.4byte	.LLST20
 1403 073d 26       		.uleb128 0x26
 1404 073e 6D736700 		.ascii	"msg\000"
 1405 0742 01       		.byte	0x1
 1406 0743 1001     		.2byte	0x110
 1407 0745 EB000000 		.4byte	0xeb
 1408 0749 BD020000 		.4byte	.LLST21
 1409 074d 27       		.uleb128 0x27
 1410 074e 4B040000 		.4byte	0x44b
 1411 0752 10000000 		.4byte	.LBB24
 1412 0756 30000000 		.4byte	.Ldebug_ranges0+0x30
 1413 075a 01       		.byte	0x1
 1414 075b 1A01     		.2byte	0x11a
 1415 075d 83070000 		.4byte	0x783
 1416 0761 17       		.uleb128 0x17
 1417 0762 61040000 		.4byte	0x461
ARM GAS  /tmp/cc8rZpmq.s 			page 26


 1418 0766 E6020000 		.4byte	.LLST22
 1419 076a 17       		.uleb128 0x17
 1420 076b 57040000 		.4byte	0x457
 1421 076f 13030000 		.4byte	.LLST23
 1422 0773 18       		.uleb128 0x18
 1423 0774 30000000 		.4byte	.Ldebug_ranges0+0x30
 1424 0778 19       		.uleb128 0x19
 1425 0779 6C040000 		.4byte	0x46c
 1426 077d 26030000 		.4byte	.LLST24
 1427 0781 00       		.byte	0
 1428 0782 00       		.byte	0
 1429 0783 1E       		.uleb128 0x1e
 1430 0784 0A000000 		.4byte	.LVL35
 1431 0788 4F080000 		.4byte	0x84f
 1432 078c 1F       		.uleb128 0x1f
 1433 078d 36000000 		.4byte	.LVL41
 1434 0791 7C080000 		.4byte	0x87c
 1435 0795 A5070000 		.4byte	0x7a5
 1436 0799 1B       		.uleb128 0x1b
 1437 079a 01       		.uleb128 0x1
 1438 079b 51       		.byte	0x51
 1439 079c 02       		.uleb128 0x2
 1440 079d 75       		.byte	0x75
 1441 079e 00       		.sleb128 0
 1442 079f 1B       		.uleb128 0x1b
 1443 07a0 01       		.uleb128 0x1
 1444 07a1 50       		.byte	0x50
 1445 07a2 01       		.uleb128 0x1
 1446 07a3 35       		.byte	0x35
 1447 07a4 00       		.byte	0
 1448 07a5 1A       		.uleb128 0x1a
 1449 07a6 42000000 		.4byte	.LVL44
 1450 07aa 6B080000 		.4byte	0x86b
 1451 07ae 1B       		.uleb128 0x1b
 1452 07af 01       		.uleb128 0x1
 1453 07b0 50       		.byte	0x50
 1454 07b1 02       		.uleb128 0x2
 1455 07b2 76       		.byte	0x76
 1456 07b3 00       		.sleb128 0
 1457 07b4 00       		.byte	0
 1458 07b5 00       		.byte	0
 1459 07b6 20       		.uleb128 0x20
 1460 07b7 50040000 		.4byte	.LASF77
 1461 07bb 01       		.byte	0x1
 1462 07bc E9       		.byte	0xe9
 1463 07bd EB000000 		.4byte	0xeb
 1464 07c1 00000000 		.4byte	.LFB14
 1465 07c5 0C000000 		.4byte	.LFE14-.LFB14
 1466 07c9 01       		.uleb128 0x1
 1467 07ca 9C       		.byte	0x9c
 1468 07cb 12080000 		.4byte	0x812
 1469 07cf 15       		.uleb128 0x15
 1470 07d0 637000   		.ascii	"cp\000"
 1471 07d3 01       		.byte	0x1
 1472 07d4 E9       		.byte	0xe9
 1473 07d5 99040000 		.4byte	0x499
 1474 07d9 44030000 		.4byte	.LLST25
ARM GAS  /tmp/cc8rZpmq.s 			page 27


 1475 07dd 28       		.uleb128 0x28
 1476 07de B3020000 		.4byte	.LASF76
 1477 07e2 01       		.byte	0x1
 1478 07e3 E9       		.byte	0xe9
 1479 07e4 01010000 		.4byte	0x101
 1480 07e8 65030000 		.4byte	.LLST26
 1481 07ec 22       		.uleb128 0x22
 1482 07ed 6D736700 		.ascii	"msg\000"
 1483 07f1 01       		.byte	0x1
 1484 07f2 EA       		.byte	0xea
 1485 07f3 EB000000 		.4byte	0xeb
 1486 07f7 01       		.uleb128 0x1
 1487 07f8 50       		.byte	0x50
 1488 07f9 1A       		.uleb128 0x1a
 1489 07fa 08000000 		.4byte	.LVL49
 1490 07fe F5060000 		.4byte	0x6f5
 1491 0802 1B       		.uleb128 0x1b
 1492 0803 01       		.uleb128 0x1
 1493 0804 51       		.byte	0x51
 1494 0805 03       		.uleb128 0x3
 1495 0806 F3       		.byte	0xf3
 1496 0807 01       		.uleb128 0x1
 1497 0808 51       		.byte	0x51
 1498 0809 1B       		.uleb128 0x1b
 1499 080a 01       		.uleb128 0x1
 1500 080b 50       		.byte	0x50
 1501 080c 03       		.uleb128 0x3
 1502 080d F3       		.byte	0xf3
 1503 080e 01       		.uleb128 0x1
 1504 080f 50       		.byte	0x50
 1505 0810 00       		.byte	0
 1506 0811 00       		.byte	0
 1507 0812 29       		.uleb128 0x29
 1508 0813 34040000 		.4byte	.LASF87
 1509 0817 09       		.byte	0x9
 1510 0818 6F       		.byte	0x6f
 1511 0819 61030000 		.4byte	0x361
 1512 081d 2A       		.uleb128 0x2a
 1513 081e 16040000 		.4byte	.LASF78
 1514 0822 09       		.byte	0x9
 1515 0823 99       		.byte	0x99
 1516 0824 33080000 		.4byte	0x833
 1517 0828 2B       		.uleb128 0x2b
 1518 0829 35020000 		.4byte	0x235
 1519 082d 2B       		.uleb128 0x2b
 1520 082e EB000000 		.4byte	0xeb
 1521 0832 00       		.byte	0
 1522 0833 2C       		.uleb128 0x2c
 1523 0834 97030000 		.4byte	.LASF88
 1524 0838 09       		.byte	0x9
 1525 0839 90       		.byte	0x90
 1526 083a 35020000 		.4byte	0x235
 1527 083e 48080000 		.4byte	0x848
 1528 0842 2B       		.uleb128 0x2b
 1529 0843 35020000 		.4byte	0x235
 1530 0847 00       		.byte	0
 1531 0848 2D       		.uleb128 0x2d
ARM GAS  /tmp/cc8rZpmq.s 			page 28


 1532 0849 BB000000 		.4byte	.LASF89
 1533 084d 09       		.byte	0x9
 1534 084e 9C       		.byte	0x9c
 1535 084f 2E       		.uleb128 0x2e
 1536 0850 A7010000 		.4byte	.LASF90
 1537 0854 0A       		.byte	0xa
 1538 0855 3E       		.byte	0x3e
 1539 0856 19040000 		.4byte	0x419
 1540 085a 2A       		.uleb128 0x2a
 1541 085b 6D030000 		.4byte	.LASF79
 1542 085f 09       		.byte	0x9
 1543 0860 93       		.byte	0x93
 1544 0861 6B080000 		.4byte	0x86b
 1545 0865 2B       		.uleb128 0x2b
 1546 0866 BF000000 		.4byte	0xbf
 1547 086a 00       		.byte	0
 1548 086b 2A       		.uleb128 0x2a
 1549 086c A8000000 		.4byte	.LASF80
 1550 0870 0A       		.byte	0xa
 1551 0871 3A       		.byte	0x3a
 1552 0872 7C080000 		.4byte	0x87c
 1553 0876 2B       		.uleb128 0x2b
 1554 0877 19040000 		.4byte	0x419
 1555 087b 00       		.byte	0
 1556 087c 2F       		.uleb128 0x2f
 1557 087d 62040000 		.4byte	.LASF81
 1558 0881 09       		.byte	0x9
 1559 0882 96       		.byte	0x96
 1560 0883 EB000000 		.4byte	0xeb
 1561 0887 2B       		.uleb128 0x2b
 1562 0888 BF000000 		.4byte	0xbf
 1563 088c 2B       		.uleb128 0x2b
 1564 088d 01010000 		.4byte	0x101
 1565 0891 00       		.byte	0
 1566 0892 00       		.byte	0
 1567              		.section	.debug_abbrev,"",%progbits
 1568              	.Ldebug_abbrev0:
 1569 0000 01       		.uleb128 0x1
 1570 0001 11       		.uleb128 0x11
 1571 0002 01       		.byte	0x1
 1572 0003 25       		.uleb128 0x25
 1573 0004 0E       		.uleb128 0xe
 1574 0005 13       		.uleb128 0x13
 1575 0006 0B       		.uleb128 0xb
 1576 0007 03       		.uleb128 0x3
 1577 0008 0E       		.uleb128 0xe
 1578 0009 1B       		.uleb128 0x1b
 1579 000a 0E       		.uleb128 0xe
 1580 000b 55       		.uleb128 0x55
 1581 000c 17       		.uleb128 0x17
 1582 000d 11       		.uleb128 0x11
 1583 000e 01       		.uleb128 0x1
 1584 000f 10       		.uleb128 0x10
 1585 0010 17       		.uleb128 0x17
 1586 0011 00       		.byte	0
 1587 0012 00       		.byte	0
 1588 0013 02       		.uleb128 0x2
ARM GAS  /tmp/cc8rZpmq.s 			page 29


 1589 0014 24       		.uleb128 0x24
 1590 0015 00       		.byte	0
 1591 0016 0B       		.uleb128 0xb
 1592 0017 0B       		.uleb128 0xb
 1593 0018 3E       		.uleb128 0x3e
 1594 0019 0B       		.uleb128 0xb
 1595 001a 03       		.uleb128 0x3
 1596 001b 08       		.uleb128 0x8
 1597 001c 00       		.byte	0
 1598 001d 00       		.byte	0
 1599 001e 03       		.uleb128 0x3
 1600 001f 24       		.uleb128 0x24
 1601 0020 00       		.byte	0
 1602 0021 0B       		.uleb128 0xb
 1603 0022 0B       		.uleb128 0xb
 1604 0023 3E       		.uleb128 0x3e
 1605 0024 0B       		.uleb128 0xb
 1606 0025 03       		.uleb128 0x3
 1607 0026 0E       		.uleb128 0xe
 1608 0027 00       		.byte	0
 1609 0028 00       		.byte	0
 1610 0029 04       		.uleb128 0x4
 1611 002a 16       		.uleb128 0x16
 1612 002b 00       		.byte	0
 1613 002c 03       		.uleb128 0x3
 1614 002d 0E       		.uleb128 0xe
 1615 002e 3A       		.uleb128 0x3a
 1616 002f 0B       		.uleb128 0xb
 1617 0030 3B       		.uleb128 0x3b
 1618 0031 0B       		.uleb128 0xb
 1619 0032 49       		.uleb128 0x49
 1620 0033 13       		.uleb128 0x13
 1621 0034 00       		.byte	0
 1622 0035 00       		.byte	0
 1623 0036 05       		.uleb128 0x5
 1624 0037 13       		.uleb128 0x13
 1625 0038 01       		.byte	0x1
 1626 0039 03       		.uleb128 0x3
 1627 003a 0E       		.uleb128 0xe
 1628 003b 0B       		.uleb128 0xb
 1629 003c 0B       		.uleb128 0xb
 1630 003d 3A       		.uleb128 0x3a
 1631 003e 0B       		.uleb128 0xb
 1632 003f 3B       		.uleb128 0x3b
 1633 0040 0B       		.uleb128 0xb
 1634 0041 01       		.uleb128 0x1
 1635 0042 13       		.uleb128 0x13
 1636 0043 00       		.byte	0
 1637 0044 00       		.byte	0
 1638 0045 06       		.uleb128 0x6
 1639 0046 0D       		.uleb128 0xd
 1640 0047 00       		.byte	0
 1641 0048 03       		.uleb128 0x3
 1642 0049 0E       		.uleb128 0xe
 1643 004a 3A       		.uleb128 0x3a
 1644 004b 0B       		.uleb128 0xb
 1645 004c 3B       		.uleb128 0x3b
ARM GAS  /tmp/cc8rZpmq.s 			page 30


 1646 004d 0B       		.uleb128 0xb
 1647 004e 49       		.uleb128 0x49
 1648 004f 13       		.uleb128 0x13
 1649 0050 38       		.uleb128 0x38
 1650 0051 0B       		.uleb128 0xb
 1651 0052 00       		.byte	0
 1652 0053 00       		.byte	0
 1653 0054 07       		.uleb128 0x7
 1654 0055 0D       		.uleb128 0xd
 1655 0056 00       		.byte	0
 1656 0057 03       		.uleb128 0x3
 1657 0058 08       		.uleb128 0x8
 1658 0059 3A       		.uleb128 0x3a
 1659 005a 0B       		.uleb128 0xb
 1660 005b 3B       		.uleb128 0x3b
 1661 005c 0B       		.uleb128 0xb
 1662 005d 49       		.uleb128 0x49
 1663 005e 13       		.uleb128 0x13
 1664 005f 38       		.uleb128 0x38
 1665 0060 0B       		.uleb128 0xb
 1666 0061 00       		.byte	0
 1667 0062 00       		.byte	0
 1668 0063 08       		.uleb128 0x8
 1669 0064 13       		.uleb128 0x13
 1670 0065 01       		.byte	0x1
 1671 0066 0B       		.uleb128 0xb
 1672 0067 0B       		.uleb128 0xb
 1673 0068 3A       		.uleb128 0x3a
 1674 0069 0B       		.uleb128 0xb
 1675 006a 3B       		.uleb128 0x3b
 1676 006b 0B       		.uleb128 0xb
 1677 006c 01       		.uleb128 0x1
 1678 006d 13       		.uleb128 0x13
 1679 006e 00       		.byte	0
 1680 006f 00       		.byte	0
 1681 0070 09       		.uleb128 0x9
 1682 0071 0F       		.uleb128 0xf
 1683 0072 00       		.byte	0
 1684 0073 0B       		.uleb128 0xb
 1685 0074 0B       		.uleb128 0xb
 1686 0075 49       		.uleb128 0x49
 1687 0076 13       		.uleb128 0x13
 1688 0077 00       		.byte	0
 1689 0078 00       		.byte	0
 1690 0079 0A       		.uleb128 0xa
 1691 007a 0F       		.uleb128 0xf
 1692 007b 00       		.byte	0
 1693 007c 0B       		.uleb128 0xb
 1694 007d 0B       		.uleb128 0xb
 1695 007e 00       		.byte	0
 1696 007f 00       		.byte	0
 1697 0080 0B       		.uleb128 0xb
 1698 0081 35       		.uleb128 0x35
 1699 0082 00       		.byte	0
 1700 0083 49       		.uleb128 0x49
 1701 0084 13       		.uleb128 0x13
 1702 0085 00       		.byte	0
ARM GAS  /tmp/cc8rZpmq.s 			page 31


 1703 0086 00       		.byte	0
 1704 0087 0C       		.uleb128 0xc
 1705 0088 17       		.uleb128 0x17
 1706 0089 01       		.byte	0x1
 1707 008a 0B       		.uleb128 0xb
 1708 008b 0B       		.uleb128 0xb
 1709 008c 3A       		.uleb128 0x3a
 1710 008d 0B       		.uleb128 0xb
 1711 008e 3B       		.uleb128 0x3b
 1712 008f 0B       		.uleb128 0xb
 1713 0090 01       		.uleb128 0x1
 1714 0091 13       		.uleb128 0x13
 1715 0092 00       		.byte	0
 1716 0093 00       		.byte	0
 1717 0094 0D       		.uleb128 0xd
 1718 0095 0D       		.uleb128 0xd
 1719 0096 00       		.byte	0
 1720 0097 03       		.uleb128 0x3
 1721 0098 0E       		.uleb128 0xe
 1722 0099 3A       		.uleb128 0x3a
 1723 009a 0B       		.uleb128 0xb
 1724 009b 3B       		.uleb128 0x3b
 1725 009c 0B       		.uleb128 0xb
 1726 009d 49       		.uleb128 0x49
 1727 009e 13       		.uleb128 0x13
 1728 009f 00       		.byte	0
 1729 00a0 00       		.byte	0
 1730 00a1 0E       		.uleb128 0xe
 1731 00a2 26       		.uleb128 0x26
 1732 00a3 00       		.byte	0
 1733 00a4 49       		.uleb128 0x49
 1734 00a5 13       		.uleb128 0x13
 1735 00a6 00       		.byte	0
 1736 00a7 00       		.byte	0
 1737 00a8 0F       		.uleb128 0xf
 1738 00a9 2E       		.uleb128 0x2e
 1739 00aa 01       		.byte	0x1
 1740 00ab 03       		.uleb128 0x3
 1741 00ac 0E       		.uleb128 0xe
 1742 00ad 3A       		.uleb128 0x3a
 1743 00ae 0B       		.uleb128 0xb
 1744 00af 3B       		.uleb128 0x3b
 1745 00b0 0B       		.uleb128 0xb
 1746 00b1 27       		.uleb128 0x27
 1747 00b2 19       		.uleb128 0x19
 1748 00b3 49       		.uleb128 0x49
 1749 00b4 13       		.uleb128 0x13
 1750 00b5 20       		.uleb128 0x20
 1751 00b6 0B       		.uleb128 0xb
 1752 00b7 01       		.uleb128 0x1
 1753 00b8 13       		.uleb128 0x13
 1754 00b9 00       		.byte	0
 1755 00ba 00       		.byte	0
 1756 00bb 10       		.uleb128 0x10
 1757 00bc 05       		.uleb128 0x5
 1758 00bd 00       		.byte	0
 1759 00be 03       		.uleb128 0x3
ARM GAS  /tmp/cc8rZpmq.s 			page 32


 1760 00bf 08       		.uleb128 0x8
 1761 00c0 3A       		.uleb128 0x3a
 1762 00c1 0B       		.uleb128 0xb
 1763 00c2 3B       		.uleb128 0x3b
 1764 00c3 0B       		.uleb128 0xb
 1765 00c4 49       		.uleb128 0x49
 1766 00c5 13       		.uleb128 0x13
 1767 00c6 00       		.byte	0
 1768 00c7 00       		.byte	0
 1769 00c8 11       		.uleb128 0x11
 1770 00c9 34       		.uleb128 0x34
 1771 00ca 00       		.byte	0
 1772 00cb 03       		.uleb128 0x3
 1773 00cc 08       		.uleb128 0x8
 1774 00cd 3A       		.uleb128 0x3a
 1775 00ce 0B       		.uleb128 0xb
 1776 00cf 3B       		.uleb128 0x3b
 1777 00d0 0B       		.uleb128 0xb
 1778 00d1 49       		.uleb128 0x49
 1779 00d2 13       		.uleb128 0x13
 1780 00d3 00       		.byte	0
 1781 00d4 00       		.byte	0
 1782 00d5 12       		.uleb128 0x12
 1783 00d6 2E       		.uleb128 0x2e
 1784 00d7 01       		.byte	0x1
 1785 00d8 03       		.uleb128 0x3
 1786 00d9 0E       		.uleb128 0xe
 1787 00da 3A       		.uleb128 0x3a
 1788 00db 0B       		.uleb128 0xb
 1789 00dc 3B       		.uleb128 0x3b
 1790 00dd 0B       		.uleb128 0xb
 1791 00de 27       		.uleb128 0x27
 1792 00df 19       		.uleb128 0x19
 1793 00e0 20       		.uleb128 0x20
 1794 00e1 0B       		.uleb128 0xb
 1795 00e2 01       		.uleb128 0x1
 1796 00e3 13       		.uleb128 0x13
 1797 00e4 00       		.byte	0
 1798 00e5 00       		.byte	0
 1799 00e6 13       		.uleb128 0x13
 1800 00e7 2E       		.uleb128 0x2e
 1801 00e8 01       		.byte	0x1
 1802 00e9 3F       		.uleb128 0x3f
 1803 00ea 19       		.uleb128 0x19
 1804 00eb 03       		.uleb128 0x3
 1805 00ec 0E       		.uleb128 0xe
 1806 00ed 3A       		.uleb128 0x3a
 1807 00ee 0B       		.uleb128 0xb
 1808 00ef 3B       		.uleb128 0x3b
 1809 00f0 0B       		.uleb128 0xb
 1810 00f1 27       		.uleb128 0x27
 1811 00f2 19       		.uleb128 0x19
 1812 00f3 11       		.uleb128 0x11
 1813 00f4 01       		.uleb128 0x1
 1814 00f5 12       		.uleb128 0x12
 1815 00f6 06       		.uleb128 0x6
 1816 00f7 40       		.uleb128 0x40
ARM GAS  /tmp/cc8rZpmq.s 			page 33


 1817 00f8 18       		.uleb128 0x18
 1818 00f9 9742     		.uleb128 0x2117
 1819 00fb 19       		.uleb128 0x19
 1820 00fc 01       		.uleb128 0x1
 1821 00fd 13       		.uleb128 0x13
 1822 00fe 00       		.byte	0
 1823 00ff 00       		.byte	0
 1824 0100 14       		.uleb128 0x14
 1825 0101 05       		.uleb128 0x5
 1826 0102 00       		.byte	0
 1827 0103 03       		.uleb128 0x3
 1828 0104 08       		.uleb128 0x8
 1829 0105 3A       		.uleb128 0x3a
 1830 0106 0B       		.uleb128 0xb
 1831 0107 3B       		.uleb128 0x3b
 1832 0108 0B       		.uleb128 0xb
 1833 0109 49       		.uleb128 0x49
 1834 010a 13       		.uleb128 0x13
 1835 010b 02       		.uleb128 0x2
 1836 010c 18       		.uleb128 0x18
 1837 010d 00       		.byte	0
 1838 010e 00       		.byte	0
 1839 010f 15       		.uleb128 0x15
 1840 0110 05       		.uleb128 0x5
 1841 0111 00       		.byte	0
 1842 0112 03       		.uleb128 0x3
 1843 0113 08       		.uleb128 0x8
 1844 0114 3A       		.uleb128 0x3a
 1845 0115 0B       		.uleb128 0xb
 1846 0116 3B       		.uleb128 0x3b
 1847 0117 0B       		.uleb128 0xb
 1848 0118 49       		.uleb128 0x49
 1849 0119 13       		.uleb128 0x13
 1850 011a 02       		.uleb128 0x2
 1851 011b 17       		.uleb128 0x17
 1852 011c 00       		.byte	0
 1853 011d 00       		.byte	0
 1854 011e 16       		.uleb128 0x16
 1855 011f 1D       		.uleb128 0x1d
 1856 0120 01       		.byte	0x1
 1857 0121 31       		.uleb128 0x31
 1858 0122 13       		.uleb128 0x13
 1859 0123 52       		.uleb128 0x52
 1860 0124 01       		.uleb128 0x1
 1861 0125 55       		.uleb128 0x55
 1862 0126 17       		.uleb128 0x17
 1863 0127 58       		.uleb128 0x58
 1864 0128 0B       		.uleb128 0xb
 1865 0129 59       		.uleb128 0x59
 1866 012a 0B       		.uleb128 0xb
 1867 012b 01       		.uleb128 0x1
 1868 012c 13       		.uleb128 0x13
 1869 012d 00       		.byte	0
 1870 012e 00       		.byte	0
 1871 012f 17       		.uleb128 0x17
 1872 0130 05       		.uleb128 0x5
 1873 0131 00       		.byte	0
ARM GAS  /tmp/cc8rZpmq.s 			page 34


 1874 0132 31       		.uleb128 0x31
 1875 0133 13       		.uleb128 0x13
 1876 0134 02       		.uleb128 0x2
 1877 0135 17       		.uleb128 0x17
 1878 0136 00       		.byte	0
 1879 0137 00       		.byte	0
 1880 0138 18       		.uleb128 0x18
 1881 0139 0B       		.uleb128 0xb
 1882 013a 01       		.byte	0x1
 1883 013b 55       		.uleb128 0x55
 1884 013c 17       		.uleb128 0x17
 1885 013d 00       		.byte	0
 1886 013e 00       		.byte	0
 1887 013f 19       		.uleb128 0x19
 1888 0140 34       		.uleb128 0x34
 1889 0141 00       		.byte	0
 1890 0142 31       		.uleb128 0x31
 1891 0143 13       		.uleb128 0x13
 1892 0144 02       		.uleb128 0x2
 1893 0145 17       		.uleb128 0x17
 1894 0146 00       		.byte	0
 1895 0147 00       		.byte	0
 1896 0148 1A       		.uleb128 0x1a
 1897 0149 898201   		.uleb128 0x4109
 1898 014c 01       		.byte	0x1
 1899 014d 11       		.uleb128 0x11
 1900 014e 01       		.uleb128 0x1
 1901 014f 31       		.uleb128 0x31
 1902 0150 13       		.uleb128 0x13
 1903 0151 00       		.byte	0
 1904 0152 00       		.byte	0
 1905 0153 1B       		.uleb128 0x1b
 1906 0154 8A8201   		.uleb128 0x410a
 1907 0157 00       		.byte	0
 1908 0158 02       		.uleb128 0x2
 1909 0159 18       		.uleb128 0x18
 1910 015a 9142     		.uleb128 0x2111
 1911 015c 18       		.uleb128 0x18
 1912 015d 00       		.byte	0
 1913 015e 00       		.byte	0
 1914 015f 1C       		.uleb128 0x1c
 1915 0160 1D       		.uleb128 0x1d
 1916 0161 01       		.byte	0x1
 1917 0162 31       		.uleb128 0x31
 1918 0163 13       		.uleb128 0x13
 1919 0164 11       		.uleb128 0x11
 1920 0165 01       		.uleb128 0x1
 1921 0166 12       		.uleb128 0x12
 1922 0167 06       		.uleb128 0x6
 1923 0168 58       		.uleb128 0x58
 1924 0169 0B       		.uleb128 0xb
 1925 016a 59       		.uleb128 0x59
 1926 016b 0B       		.uleb128 0xb
 1927 016c 01       		.uleb128 0x1
 1928 016d 13       		.uleb128 0x13
 1929 016e 00       		.byte	0
 1930 016f 00       		.byte	0
ARM GAS  /tmp/cc8rZpmq.s 			page 35


 1931 0170 1D       		.uleb128 0x1d
 1932 0171 0B       		.uleb128 0xb
 1933 0172 01       		.byte	0x1
 1934 0173 11       		.uleb128 0x11
 1935 0174 01       		.uleb128 0x1
 1936 0175 12       		.uleb128 0x12
 1937 0176 06       		.uleb128 0x6
 1938 0177 00       		.byte	0
 1939 0178 00       		.byte	0
 1940 0179 1E       		.uleb128 0x1e
 1941 017a 898201   		.uleb128 0x4109
 1942 017d 00       		.byte	0
 1943 017e 11       		.uleb128 0x11
 1944 017f 01       		.uleb128 0x1
 1945 0180 31       		.uleb128 0x31
 1946 0181 13       		.uleb128 0x13
 1947 0182 00       		.byte	0
 1948 0183 00       		.byte	0
 1949 0184 1F       		.uleb128 0x1f
 1950 0185 898201   		.uleb128 0x4109
 1951 0188 01       		.byte	0x1
 1952 0189 11       		.uleb128 0x11
 1953 018a 01       		.uleb128 0x1
 1954 018b 31       		.uleb128 0x31
 1955 018c 13       		.uleb128 0x13
 1956 018d 01       		.uleb128 0x1
 1957 018e 13       		.uleb128 0x13
 1958 018f 00       		.byte	0
 1959 0190 00       		.byte	0
 1960 0191 20       		.uleb128 0x20
 1961 0192 2E       		.uleb128 0x2e
 1962 0193 01       		.byte	0x1
 1963 0194 3F       		.uleb128 0x3f
 1964 0195 19       		.uleb128 0x19
 1965 0196 03       		.uleb128 0x3
 1966 0197 0E       		.uleb128 0xe
 1967 0198 3A       		.uleb128 0x3a
 1968 0199 0B       		.uleb128 0xb
 1969 019a 3B       		.uleb128 0x3b
 1970 019b 0B       		.uleb128 0xb
 1971 019c 27       		.uleb128 0x27
 1972 019d 19       		.uleb128 0x19
 1973 019e 49       		.uleb128 0x49
 1974 019f 13       		.uleb128 0x13
 1975 01a0 11       		.uleb128 0x11
 1976 01a1 01       		.uleb128 0x1
 1977 01a2 12       		.uleb128 0x12
 1978 01a3 06       		.uleb128 0x6
 1979 01a4 40       		.uleb128 0x40
 1980 01a5 18       		.uleb128 0x18
 1981 01a6 9742     		.uleb128 0x2117
 1982 01a8 19       		.uleb128 0x19
 1983 01a9 01       		.uleb128 0x1
 1984 01aa 13       		.uleb128 0x13
 1985 01ab 00       		.byte	0
 1986 01ac 00       		.byte	0
 1987 01ad 21       		.uleb128 0x21
ARM GAS  /tmp/cc8rZpmq.s 			page 36


 1988 01ae 34       		.uleb128 0x34
 1989 01af 00       		.byte	0
 1990 01b0 03       		.uleb128 0x3
 1991 01b1 08       		.uleb128 0x8
 1992 01b2 3A       		.uleb128 0x3a
 1993 01b3 0B       		.uleb128 0xb
 1994 01b4 3B       		.uleb128 0x3b
 1995 01b5 0B       		.uleb128 0xb
 1996 01b6 49       		.uleb128 0x49
 1997 01b7 13       		.uleb128 0x13
 1998 01b8 02       		.uleb128 0x2
 1999 01b9 17       		.uleb128 0x17
 2000 01ba 00       		.byte	0
 2001 01bb 00       		.byte	0
 2002 01bc 22       		.uleb128 0x22
 2003 01bd 34       		.uleb128 0x34
 2004 01be 00       		.byte	0
 2005 01bf 03       		.uleb128 0x3
 2006 01c0 08       		.uleb128 0x8
 2007 01c1 3A       		.uleb128 0x3a
 2008 01c2 0B       		.uleb128 0xb
 2009 01c3 3B       		.uleb128 0x3b
 2010 01c4 0B       		.uleb128 0xb
 2011 01c5 49       		.uleb128 0x49
 2012 01c6 13       		.uleb128 0x13
 2013 01c7 02       		.uleb128 0x2
 2014 01c8 18       		.uleb128 0x18
 2015 01c9 00       		.byte	0
 2016 01ca 00       		.byte	0
 2017 01cb 23       		.uleb128 0x23
 2018 01cc 2E       		.uleb128 0x2e
 2019 01cd 01       		.byte	0x1
 2020 01ce 3F       		.uleb128 0x3f
 2021 01cf 19       		.uleb128 0x19
 2022 01d0 03       		.uleb128 0x3
 2023 01d1 0E       		.uleb128 0xe
 2024 01d2 3A       		.uleb128 0x3a
 2025 01d3 0B       		.uleb128 0xb
 2026 01d4 3B       		.uleb128 0x3b
 2027 01d5 05       		.uleb128 0x5
 2028 01d6 27       		.uleb128 0x27
 2029 01d7 19       		.uleb128 0x19
 2030 01d8 49       		.uleb128 0x49
 2031 01d9 13       		.uleb128 0x13
 2032 01da 11       		.uleb128 0x11
 2033 01db 01       		.uleb128 0x1
 2034 01dc 12       		.uleb128 0x12
 2035 01dd 06       		.uleb128 0x6
 2036 01de 40       		.uleb128 0x40
 2037 01df 18       		.uleb128 0x18
 2038 01e0 9742     		.uleb128 0x2117
 2039 01e2 19       		.uleb128 0x19
 2040 01e3 01       		.uleb128 0x1
 2041 01e4 13       		.uleb128 0x13
 2042 01e5 00       		.byte	0
 2043 01e6 00       		.byte	0
 2044 01e7 24       		.uleb128 0x24
ARM GAS  /tmp/cc8rZpmq.s 			page 37


 2045 01e8 05       		.uleb128 0x5
 2046 01e9 00       		.byte	0
 2047 01ea 03       		.uleb128 0x3
 2048 01eb 08       		.uleb128 0x8
 2049 01ec 3A       		.uleb128 0x3a
 2050 01ed 0B       		.uleb128 0xb
 2051 01ee 3B       		.uleb128 0x3b
 2052 01ef 05       		.uleb128 0x5
 2053 01f0 49       		.uleb128 0x49
 2054 01f1 13       		.uleb128 0x13
 2055 01f2 02       		.uleb128 0x2
 2056 01f3 17       		.uleb128 0x17
 2057 01f4 00       		.byte	0
 2058 01f5 00       		.byte	0
 2059 01f6 25       		.uleb128 0x25
 2060 01f7 05       		.uleb128 0x5
 2061 01f8 00       		.byte	0
 2062 01f9 03       		.uleb128 0x3
 2063 01fa 0E       		.uleb128 0xe
 2064 01fb 3A       		.uleb128 0x3a
 2065 01fc 0B       		.uleb128 0xb
 2066 01fd 3B       		.uleb128 0x3b
 2067 01fe 05       		.uleb128 0x5
 2068 01ff 49       		.uleb128 0x49
 2069 0200 13       		.uleb128 0x13
 2070 0201 02       		.uleb128 0x2
 2071 0202 17       		.uleb128 0x17
 2072 0203 00       		.byte	0
 2073 0204 00       		.byte	0
 2074 0205 26       		.uleb128 0x26
 2075 0206 34       		.uleb128 0x34
 2076 0207 00       		.byte	0
 2077 0208 03       		.uleb128 0x3
 2078 0209 08       		.uleb128 0x8
 2079 020a 3A       		.uleb128 0x3a
 2080 020b 0B       		.uleb128 0xb
 2081 020c 3B       		.uleb128 0x3b
 2082 020d 05       		.uleb128 0x5
 2083 020e 49       		.uleb128 0x49
 2084 020f 13       		.uleb128 0x13
 2085 0210 02       		.uleb128 0x2
 2086 0211 17       		.uleb128 0x17
 2087 0212 00       		.byte	0
 2088 0213 00       		.byte	0
 2089 0214 27       		.uleb128 0x27
 2090 0215 1D       		.uleb128 0x1d
 2091 0216 01       		.byte	0x1
 2092 0217 31       		.uleb128 0x31
 2093 0218 13       		.uleb128 0x13
 2094 0219 52       		.uleb128 0x52
 2095 021a 01       		.uleb128 0x1
 2096 021b 55       		.uleb128 0x55
 2097 021c 17       		.uleb128 0x17
 2098 021d 58       		.uleb128 0x58
 2099 021e 0B       		.uleb128 0xb
 2100 021f 59       		.uleb128 0x59
 2101 0220 05       		.uleb128 0x5
ARM GAS  /tmp/cc8rZpmq.s 			page 38


 2102 0221 01       		.uleb128 0x1
 2103 0222 13       		.uleb128 0x13
 2104 0223 00       		.byte	0
 2105 0224 00       		.byte	0
 2106 0225 28       		.uleb128 0x28
 2107 0226 05       		.uleb128 0x5
 2108 0227 00       		.byte	0
 2109 0228 03       		.uleb128 0x3
 2110 0229 0E       		.uleb128 0xe
 2111 022a 3A       		.uleb128 0x3a
 2112 022b 0B       		.uleb128 0xb
 2113 022c 3B       		.uleb128 0x3b
 2114 022d 0B       		.uleb128 0xb
 2115 022e 49       		.uleb128 0x49
 2116 022f 13       		.uleb128 0x13
 2117 0230 02       		.uleb128 0x2
 2118 0231 17       		.uleb128 0x17
 2119 0232 00       		.byte	0
 2120 0233 00       		.byte	0
 2121 0234 29       		.uleb128 0x29
 2122 0235 34       		.uleb128 0x34
 2123 0236 00       		.byte	0
 2124 0237 03       		.uleb128 0x3
 2125 0238 0E       		.uleb128 0xe
 2126 0239 3A       		.uleb128 0x3a
 2127 023a 0B       		.uleb128 0xb
 2128 023b 3B       		.uleb128 0x3b
 2129 023c 0B       		.uleb128 0xb
 2130 023d 49       		.uleb128 0x49
 2131 023e 13       		.uleb128 0x13
 2132 023f 3F       		.uleb128 0x3f
 2133 0240 19       		.uleb128 0x19
 2134 0241 3C       		.uleb128 0x3c
 2135 0242 19       		.uleb128 0x19
 2136 0243 00       		.byte	0
 2137 0244 00       		.byte	0
 2138 0245 2A       		.uleb128 0x2a
 2139 0246 2E       		.uleb128 0x2e
 2140 0247 01       		.byte	0x1
 2141 0248 3F       		.uleb128 0x3f
 2142 0249 19       		.uleb128 0x19
 2143 024a 03       		.uleb128 0x3
 2144 024b 0E       		.uleb128 0xe
 2145 024c 3A       		.uleb128 0x3a
 2146 024d 0B       		.uleb128 0xb
 2147 024e 3B       		.uleb128 0x3b
 2148 024f 0B       		.uleb128 0xb
 2149 0250 27       		.uleb128 0x27
 2150 0251 19       		.uleb128 0x19
 2151 0252 3C       		.uleb128 0x3c
 2152 0253 19       		.uleb128 0x19
 2153 0254 01       		.uleb128 0x1
 2154 0255 13       		.uleb128 0x13
 2155 0256 00       		.byte	0
 2156 0257 00       		.byte	0
 2157 0258 2B       		.uleb128 0x2b
 2158 0259 05       		.uleb128 0x5
ARM GAS  /tmp/cc8rZpmq.s 			page 39


 2159 025a 00       		.byte	0
 2160 025b 49       		.uleb128 0x49
 2161 025c 13       		.uleb128 0x13
 2162 025d 00       		.byte	0
 2163 025e 00       		.byte	0
 2164 025f 2C       		.uleb128 0x2c
 2165 0260 2E       		.uleb128 0x2e
 2166 0261 01       		.byte	0x1
 2167 0262 3F       		.uleb128 0x3f
 2168 0263 19       		.uleb128 0x19
 2169 0264 03       		.uleb128 0x3
 2170 0265 0E       		.uleb128 0xe
 2171 0266 3A       		.uleb128 0x3a
 2172 0267 0B       		.uleb128 0xb
 2173 0268 3B       		.uleb128 0x3b
 2174 0269 0B       		.uleb128 0xb
 2175 026a 27       		.uleb128 0x27
 2176 026b 19       		.uleb128 0x19
 2177 026c 49       		.uleb128 0x49
 2178 026d 13       		.uleb128 0x13
 2179 026e 3C       		.uleb128 0x3c
 2180 026f 19       		.uleb128 0x19
 2181 0270 01       		.uleb128 0x1
 2182 0271 13       		.uleb128 0x13
 2183 0272 00       		.byte	0
 2184 0273 00       		.byte	0
 2185 0274 2D       		.uleb128 0x2d
 2186 0275 2E       		.uleb128 0x2e
 2187 0276 00       		.byte	0
 2188 0277 3F       		.uleb128 0x3f
 2189 0278 19       		.uleb128 0x19
 2190 0279 03       		.uleb128 0x3
 2191 027a 0E       		.uleb128 0xe
 2192 027b 3A       		.uleb128 0x3a
 2193 027c 0B       		.uleb128 0xb
 2194 027d 3B       		.uleb128 0x3b
 2195 027e 0B       		.uleb128 0xb
 2196 027f 27       		.uleb128 0x27
 2197 0280 19       		.uleb128 0x19
 2198 0281 3C       		.uleb128 0x3c
 2199 0282 19       		.uleb128 0x19
 2200 0283 00       		.byte	0
 2201 0284 00       		.byte	0
 2202 0285 2E       		.uleb128 0x2e
 2203 0286 2E       		.uleb128 0x2e
 2204 0287 00       		.byte	0
 2205 0288 3F       		.uleb128 0x3f
 2206 0289 19       		.uleb128 0x19
 2207 028a 03       		.uleb128 0x3
 2208 028b 0E       		.uleb128 0xe
 2209 028c 3A       		.uleb128 0x3a
 2210 028d 0B       		.uleb128 0xb
 2211 028e 3B       		.uleb128 0x3b
 2212 028f 0B       		.uleb128 0xb
 2213 0290 27       		.uleb128 0x27
 2214 0291 19       		.uleb128 0x19
 2215 0292 49       		.uleb128 0x49
ARM GAS  /tmp/cc8rZpmq.s 			page 40


 2216 0293 13       		.uleb128 0x13
 2217 0294 3C       		.uleb128 0x3c
 2218 0295 19       		.uleb128 0x19
 2219 0296 00       		.byte	0
 2220 0297 00       		.byte	0
 2221 0298 2F       		.uleb128 0x2f
 2222 0299 2E       		.uleb128 0x2e
 2223 029a 01       		.byte	0x1
 2224 029b 3F       		.uleb128 0x3f
 2225 029c 19       		.uleb128 0x19
 2226 029d 03       		.uleb128 0x3
 2227 029e 0E       		.uleb128 0xe
 2228 029f 3A       		.uleb128 0x3a
 2229 02a0 0B       		.uleb128 0xb
 2230 02a1 3B       		.uleb128 0x3b
 2231 02a2 0B       		.uleb128 0xb
 2232 02a3 27       		.uleb128 0x27
 2233 02a4 19       		.uleb128 0x19
 2234 02a5 49       		.uleb128 0x49
 2235 02a6 13       		.uleb128 0x13
 2236 02a7 3C       		.uleb128 0x3c
 2237 02a8 19       		.uleb128 0x19
 2238 02a9 00       		.byte	0
 2239 02aa 00       		.byte	0
 2240 02ab 00       		.byte	0
 2241              		.section	.debug_loc,"",%progbits
 2242              	.Ldebug_loc0:
 2243              	.LLST0:
 2244 0000 00000000 		.4byte	.LVL1
 2245 0004 14000000 		.4byte	.LVL3
 2246 0008 0100     		.2byte	0x1
 2247 000a 50       		.byte	0x50
 2248 000b 14000000 		.4byte	.LVL3
 2249 000f 17000000 		.4byte	.LVL4-1
 2250 0013 0200     		.2byte	0x2
 2251 0015 72       		.byte	0x72
 2252 0016 04       		.sleb128 4
 2253 0017 17000000 		.4byte	.LVL4-1
 2254 001b 1C000000 		.4byte	.LFE8
 2255 001f 0400     		.2byte	0x4
 2256 0021 F3       		.byte	0xf3
 2257 0022 01       		.uleb128 0x1
 2258 0023 50       		.byte	0x50
 2259 0024 9F       		.byte	0x9f
 2260 0025 00000000 		.4byte	0
 2261 0029 00000000 		.4byte	0
 2262              	.LLST1:
 2263 002d 0A000000 		.4byte	.LVL2
 2264 0031 14000000 		.4byte	.LVL3
 2265 0035 0100     		.2byte	0x1
 2266 0037 50       		.byte	0x50
 2267 0038 14000000 		.4byte	.LVL3
 2268 003c 17000000 		.4byte	.LVL4-1
 2269 0040 0200     		.2byte	0x2
 2270 0042 72       		.byte	0x72
 2271 0043 04       		.sleb128 4
 2272 0044 17000000 		.4byte	.LVL4-1
ARM GAS  /tmp/cc8rZpmq.s 			page 41


 2273 0048 18000000 		.4byte	.LVL4
 2274 004c 0400     		.2byte	0x4
 2275 004e F3       		.byte	0xf3
 2276 004f 01       		.uleb128 0x1
 2277 0050 50       		.byte	0x50
 2278 0051 9F       		.byte	0x9f
 2279 0052 00000000 		.4byte	0
 2280 0056 00000000 		.4byte	0
 2281              	.LLST2:
 2282 005a 0A000000 		.4byte	.LVL2
 2283 005e 17000000 		.4byte	.LVL4-1
 2284 0062 0100     		.2byte	0x1
 2285 0064 53       		.byte	0x53
 2286 0065 00000000 		.4byte	0
 2287 0069 00000000 		.4byte	0
 2288              	.LLST3:
 2289 006d 00000000 		.4byte	.LVL5
 2290 0071 10000000 		.4byte	.LVL7
 2291 0075 0100     		.2byte	0x1
 2292 0077 50       		.byte	0x50
 2293 0078 10000000 		.4byte	.LVL7
 2294 007c 13000000 		.4byte	.LVL8-1
 2295 0080 0200     		.2byte	0x2
 2296 0082 72       		.byte	0x72
 2297 0083 04       		.sleb128 4
 2298 0084 13000000 		.4byte	.LVL8-1
 2299 0088 1A000000 		.4byte	.LFE9
 2300 008c 0400     		.2byte	0x4
 2301 008e F3       		.byte	0xf3
 2302 008f 01       		.uleb128 0x1
 2303 0090 50       		.byte	0x50
 2304 0091 9F       		.byte	0x9f
 2305 0092 00000000 		.4byte	0
 2306 0096 00000000 		.4byte	0
 2307              	.LLST4:
 2308 009a 08000000 		.4byte	.LVL6
 2309 009e 10000000 		.4byte	.LVL7
 2310 00a2 0100     		.2byte	0x1
 2311 00a4 50       		.byte	0x50
 2312 00a5 10000000 		.4byte	.LVL7
 2313 00a9 13000000 		.4byte	.LVL8-1
 2314 00ad 0200     		.2byte	0x2
 2315 00af 72       		.byte	0x72
 2316 00b0 04       		.sleb128 4
 2317 00b1 13000000 		.4byte	.LVL8-1
 2318 00b5 18000000 		.4byte	.LVL9
 2319 00b9 0400     		.2byte	0x4
 2320 00bb F3       		.byte	0xf3
 2321 00bc 01       		.uleb128 0x1
 2322 00bd 50       		.byte	0x50
 2323 00be 9F       		.byte	0x9f
 2324 00bf 00000000 		.4byte	0
 2325 00c3 00000000 		.4byte	0
 2326              	.LLST5:
 2327 00c7 08000000 		.4byte	.LVL6
 2328 00cb 13000000 		.4byte	.LVL8-1
 2329 00cf 0100     		.2byte	0x1
ARM GAS  /tmp/cc8rZpmq.s 			page 42


 2330 00d1 53       		.byte	0x53
 2331 00d2 00000000 		.4byte	0
 2332 00d6 00000000 		.4byte	0
 2333              	.LLST6:
 2334 00da 00000000 		.4byte	.LVL10
 2335 00de 06000000 		.4byte	.LVL11
 2336 00e2 0100     		.2byte	0x1
 2337 00e4 50       		.byte	0x50
 2338 00e5 06000000 		.4byte	.LVL11
 2339 00e9 20000000 		.4byte	.LVL15
 2340 00ed 0100     		.2byte	0x1
 2341 00ef 54       		.byte	0x54
 2342 00f0 20000000 		.4byte	.LVL15
 2343 00f4 22000000 		.4byte	.LFE11
 2344 00f8 0400     		.2byte	0x4
 2345 00fa F3       		.byte	0xf3
 2346 00fb 01       		.uleb128 0x1
 2347 00fc 50       		.byte	0x50
 2348 00fd 9F       		.byte	0x9f
 2349 00fe 00000000 		.4byte	0
 2350 0102 00000000 		.4byte	0
 2351              	.LLST7:
 2352 0106 0E000000 		.4byte	.LVL12
 2353 010a 20000000 		.4byte	.LVL14
 2354 010e 0100     		.2byte	0x1
 2355 0110 54       		.byte	0x54
 2356 0111 00000000 		.4byte	0
 2357 0115 00000000 		.4byte	0
 2358              	.LLST8:
 2359 0119 0E000000 		.4byte	.LVL12
 2360 011d 17000000 		.4byte	.LVL13-1
 2361 0121 0100     		.2byte	0x1
 2362 0123 50       		.byte	0x50
 2363 0124 00000000 		.4byte	0
 2364 0128 00000000 		.4byte	0
 2365              	.LLST9:
 2366 012c 00000000 		.4byte	.LVL16
 2367 0130 07000000 		.4byte	.LVL17-1
 2368 0134 0100     		.2byte	0x1
 2369 0136 50       		.byte	0x50
 2370 0137 07000000 		.4byte	.LVL17-1
 2371 013b 10000000 		.4byte	.LFE10
 2372 013f 0400     		.2byte	0x4
 2373 0141 F3       		.byte	0xf3
 2374 0142 01       		.uleb128 0x1
 2375 0143 50       		.byte	0x50
 2376 0144 9F       		.byte	0x9f
 2377 0145 00000000 		.4byte	0
 2378 0149 00000000 		.4byte	0
 2379              	.LLST10:
 2380 014d 00000000 		.4byte	.LVL19
 2381 0151 0B000000 		.4byte	.LVL21-1
 2382 0155 0100     		.2byte	0x1
 2383 0157 50       		.byte	0x50
 2384 0158 0B000000 		.4byte	.LVL21-1
 2385 015c 3C000000 		.4byte	.LVL30
 2386 0160 0100     		.2byte	0x1
ARM GAS  /tmp/cc8rZpmq.s 			page 43


 2387 0162 55       		.byte	0x55
 2388 0163 3C000000 		.4byte	.LVL30
 2389 0167 44000000 		.4byte	.LFE13
 2390 016b 0400     		.2byte	0x4
 2391 016d F3       		.byte	0xf3
 2392 016e 01       		.uleb128 0x1
 2393 016f 50       		.byte	0x50
 2394 0170 9F       		.byte	0x9f
 2395 0171 00000000 		.4byte	0
 2396 0175 00000000 		.4byte	0
 2397              	.LLST11:
 2398 0179 08000000 		.4byte	.LVL20
 2399 017d 34000000 		.4byte	.LVL27
 2400 0181 0100     		.2byte	0x1
 2401 0183 54       		.byte	0x54
 2402 0184 00000000 		.4byte	0
 2403 0188 00000000 		.4byte	0
 2404              	.LLST12:
 2405 018c 10000000 		.4byte	.LVL22
 2406 0190 2A000000 		.4byte	.LVL25
 2407 0194 0100     		.2byte	0x1
 2408 0196 50       		.byte	0x50
 2409 0197 2A000000 		.4byte	.LVL25
 2410 019b 3C000000 		.4byte	.LVL31
 2411 019f 0100     		.2byte	0x1
 2412 01a1 56       		.byte	0x56
 2413 01a2 00000000 		.4byte	0
 2414 01a6 00000000 		.4byte	0
 2415              	.LLST13:
 2416 01aa 34000000 		.4byte	.LVL27
 2417 01ae 3C000000 		.4byte	.LVL29
 2418 01b2 0100     		.2byte	0x1
 2419 01b4 54       		.byte	0x54
 2420 01b5 3C000000 		.4byte	.LVL29
 2421 01b9 44000000 		.4byte	.LFE13
 2422 01bd 0100     		.2byte	0x1
 2423 01bf 50       		.byte	0x50
 2424 01c0 00000000 		.4byte	0
 2425 01c4 00000000 		.4byte	0
 2426              	.LLST14:
 2427 01c8 10000000 		.4byte	.LVL22
 2428 01cc 3C000000 		.4byte	.LVL30
 2429 01d0 0100     		.2byte	0x1
 2430 01d2 55       		.byte	0x55
 2431 01d3 3C000000 		.4byte	.LVL30
 2432 01d7 44000000 		.4byte	.LFE13
 2433 01db 0400     		.2byte	0x4
 2434 01dd F3       		.byte	0xf3
 2435 01de 01       		.uleb128 0x1
 2436 01df 50       		.byte	0x50
 2437 01e0 9F       		.byte	0x9f
 2438 01e1 00000000 		.4byte	0
 2439 01e5 00000000 		.4byte	0
 2440              	.LLST15:
 2441 01e9 10000000 		.4byte	.LVL22
 2442 01ed 34000000 		.4byte	.LVL27
 2443 01f1 0100     		.2byte	0x1
ARM GAS  /tmp/cc8rZpmq.s 			page 44


 2444 01f3 54       		.byte	0x54
 2445 01f4 00000000 		.4byte	0
 2446 01f8 00000000 		.4byte	0
 2447              	.LLST16:
 2448 01fc 10000000 		.4byte	.LVL22
 2449 0200 14000000 		.4byte	.LVL23
 2450 0204 0100     		.2byte	0x1
 2451 0206 55       		.byte	0x55
 2452 0207 14000000 		.4byte	.LVL23
 2453 020b 31000000 		.4byte	.LVL26-1
 2454 020f 0100     		.2byte	0x1
 2455 0211 53       		.byte	0x53
 2456 0212 00000000 		.4byte	0
 2457 0216 00000000 		.4byte	0
 2458              	.LLST17:
 2459 021a 00000000 		.4byte	.LVL32
 2460 021e 07000000 		.4byte	.LVL33-1
 2461 0222 0100     		.2byte	0x1
 2462 0224 50       		.byte	0x50
 2463 0225 07000000 		.4byte	.LVL33-1
 2464 0229 0C000000 		.4byte	.LFE12
 2465 022d 0400     		.2byte	0x4
 2466 022f F3       		.byte	0xf3
 2467 0230 01       		.uleb128 0x1
 2468 0231 50       		.byte	0x50
 2469 0232 9F       		.byte	0x9f
 2470 0233 00000000 		.4byte	0
 2471 0237 00000000 		.4byte	0
 2472              	.LLST18:
 2473 023b 00000000 		.4byte	.LVL34
 2474 023f 09000000 		.4byte	.LVL35-1
 2475 0243 0100     		.2byte	0x1
 2476 0245 50       		.byte	0x50
 2477 0246 09000000 		.4byte	.LVL35-1
 2478 024a 26000000 		.4byte	.LVL40
 2479 024e 0100     		.2byte	0x1
 2480 0250 54       		.byte	0x54
 2481 0251 26000000 		.4byte	.LVL40
 2482 0255 35000000 		.4byte	.LVL41-1
 2483 0259 0200     		.2byte	0x2
 2484 025b 72       		.byte	0x72
 2485 025c 24       		.sleb128 36
 2486 025d 35000000 		.4byte	.LVL41-1
 2487 0261 4C000000 		.4byte	.LFE15
 2488 0265 0400     		.2byte	0x4
 2489 0267 F3       		.byte	0xf3
 2490 0268 01       		.uleb128 0x1
 2491 0269 50       		.byte	0x50
 2492 026a 9F       		.byte	0x9f
 2493 026b 00000000 		.4byte	0
 2494 026f 00000000 		.4byte	0
 2495              	.LLST19:
 2496 0273 00000000 		.4byte	.LVL34
 2497 0277 09000000 		.4byte	.LVL35-1
 2498 027b 0100     		.2byte	0x1
 2499 027d 51       		.byte	0x51
 2500 027e 09000000 		.4byte	.LVL35-1
ARM GAS  /tmp/cc8rZpmq.s 			page 45


 2501 0282 44000000 		.4byte	.LVL46
 2502 0286 0100     		.2byte	0x1
 2503 0288 55       		.byte	0x55
 2504 0289 44000000 		.4byte	.LVL46
 2505 028d 4C000000 		.4byte	.LFE15
 2506 0291 0400     		.2byte	0x4
 2507 0293 F3       		.byte	0xf3
 2508 0294 01       		.uleb128 0x1
 2509 0295 51       		.byte	0x51
 2510 0296 9F       		.byte	0x9f
 2511 0297 00000000 		.4byte	0
 2512 029b 00000000 		.4byte	0
 2513              	.LLST20:
 2514 029f 0E000000 		.4byte	.LVL36
 2515 02a3 16000000 		.4byte	.LVL38
 2516 02a7 0100     		.2byte	0x1
 2517 02a9 50       		.byte	0x50
 2518 02aa 16000000 		.4byte	.LVL38
 2519 02ae 44000000 		.4byte	.LVL47
 2520 02b2 0100     		.2byte	0x1
 2521 02b4 56       		.byte	0x56
 2522 02b5 00000000 		.4byte	0
 2523 02b9 00000000 		.4byte	0
 2524              	.LLST21:
 2525 02bd 38000000 		.4byte	.LVL42
 2526 02c1 3C000000 		.4byte	.LVL43
 2527 02c5 0100     		.2byte	0x1
 2528 02c7 50       		.byte	0x50
 2529 02c8 3C000000 		.4byte	.LVL43
 2530 02cc 44000000 		.4byte	.LVL45
 2531 02d0 0100     		.2byte	0x1
 2532 02d2 54       		.byte	0x54
 2533 02d3 44000000 		.4byte	.LVL45
 2534 02d7 4C000000 		.4byte	.LFE15
 2535 02db 0100     		.2byte	0x1
 2536 02dd 50       		.byte	0x50
 2537 02de 00000000 		.4byte	0
 2538 02e2 00000000 		.4byte	0
 2539              	.LLST22:
 2540 02e6 14000000 		.4byte	.LVL37
 2541 02ea 26000000 		.4byte	.LVL40
 2542 02ee 0100     		.2byte	0x1
 2543 02f0 54       		.byte	0x54
 2544 02f1 26000000 		.4byte	.LVL40
 2545 02f5 35000000 		.4byte	.LVL41-1
 2546 02f9 0200     		.2byte	0x2
 2547 02fb 72       		.byte	0x72
 2548 02fc 24       		.sleb128 36
 2549 02fd 35000000 		.4byte	.LVL41-1
 2550 0301 4C000000 		.4byte	.LFE15
 2551 0305 0400     		.2byte	0x4
 2552 0307 F3       		.byte	0xf3
 2553 0308 01       		.uleb128 0x1
 2554 0309 50       		.byte	0x50
 2555 030a 9F       		.byte	0x9f
 2556 030b 00000000 		.4byte	0
 2557 030f 00000000 		.4byte	0
ARM GAS  /tmp/cc8rZpmq.s 			page 46


 2558              	.LLST23:
 2559 0313 14000000 		.4byte	.LVL37
 2560 0317 35000000 		.4byte	.LVL41-1
 2561 031b 0100     		.2byte	0x1
 2562 031d 52       		.byte	0x52
 2563 031e 00000000 		.4byte	0
 2564 0322 00000000 		.4byte	0
 2565              	.LLST24:
 2566 0326 14000000 		.4byte	.LVL37
 2567 032a 16000000 		.4byte	.LVL38
 2568 032e 0100     		.2byte	0x1
 2569 0330 54       		.byte	0x54
 2570 0331 16000000 		.4byte	.LVL38
 2571 0335 35000000 		.4byte	.LVL41-1
 2572 0339 0100     		.2byte	0x1
 2573 033b 53       		.byte	0x53
 2574 033c 00000000 		.4byte	0
 2575 0340 00000000 		.4byte	0
 2576              	.LLST25:
 2577 0344 00000000 		.4byte	.LVL48
 2578 0348 07000000 		.4byte	.LVL49-1
 2579 034c 0100     		.2byte	0x1
 2580 034e 50       		.byte	0x50
 2581 034f 07000000 		.4byte	.LVL49-1
 2582 0353 0C000000 		.4byte	.LFE14
 2583 0357 0400     		.2byte	0x4
 2584 0359 F3       		.byte	0xf3
 2585 035a 01       		.uleb128 0x1
 2586 035b 50       		.byte	0x50
 2587 035c 9F       		.byte	0x9f
 2588 035d 00000000 		.4byte	0
 2589 0361 00000000 		.4byte	0
 2590              	.LLST26:
 2591 0365 00000000 		.4byte	.LVL48
 2592 0369 07000000 		.4byte	.LVL49-1
 2593 036d 0100     		.2byte	0x1
 2594 036f 51       		.byte	0x51
 2595 0370 07000000 		.4byte	.LVL49-1
 2596 0374 0C000000 		.4byte	.LFE14
 2597 0378 0400     		.2byte	0x4
 2598 037a F3       		.byte	0xf3
 2599 037b 01       		.uleb128 0x1
 2600 037c 51       		.byte	0x51
 2601 037d 9F       		.byte	0x9f
 2602 037e 00000000 		.4byte	0
 2603 0382 00000000 		.4byte	0
 2604              		.section	.debug_aranges,"",%progbits
 2605 0000 5C000000 		.4byte	0x5c
 2606 0004 0200     		.2byte	0x2
 2607 0006 00000000 		.4byte	.Ldebug_info0
 2608 000a 04       		.byte	0x4
 2609 000b 00       		.byte	0
 2610 000c 0000     		.2byte	0
 2611 000e 0000     		.2byte	0
 2612 0010 00000000 		.4byte	.LFB7
 2613 0014 06000000 		.4byte	.LFE7-.LFB7
 2614 0018 00000000 		.4byte	.LFB8
ARM GAS  /tmp/cc8rZpmq.s 			page 47


 2615 001c 1C000000 		.4byte	.LFE8-.LFB8
 2616 0020 00000000 		.4byte	.LFB9
 2617 0024 1A000000 		.4byte	.LFE9-.LFB9
 2618 0028 00000000 		.4byte	.LFB11
 2619 002c 22000000 		.4byte	.LFE11-.LFB11
 2620 0030 00000000 		.4byte	.LFB10
 2621 0034 10000000 		.4byte	.LFE10-.LFB10
 2622 0038 00000000 		.4byte	.LFB13
 2623 003c 44000000 		.4byte	.LFE13-.LFB13
 2624 0040 00000000 		.4byte	.LFB12
 2625 0044 0C000000 		.4byte	.LFE12-.LFB12
 2626 0048 00000000 		.4byte	.LFB15
 2627 004c 4C000000 		.4byte	.LFE15-.LFB15
 2628 0050 00000000 		.4byte	.LFB14
 2629 0054 0C000000 		.4byte	.LFE14-.LFB14
 2630 0058 00000000 		.4byte	0
 2631 005c 00000000 		.4byte	0
 2632              		.section	.debug_ranges,"",%progbits
 2633              	.Ldebug_ranges0:
 2634 0000 0A000000 		.4byte	.LBB12
 2635 0004 0C000000 		.4byte	.LBE12
 2636 0008 0E000000 		.4byte	.LBB15
 2637 000c 12000000 		.4byte	.LBE15
 2638 0010 00000000 		.4byte	0
 2639 0014 00000000 		.4byte	0
 2640 0018 10000000 		.4byte	.LBB20
 2641 001c 28000000 		.4byte	.LBE20
 2642 0020 2A000000 		.4byte	.LBB23
 2643 0024 2E000000 		.4byte	.LBE23
 2644 0028 00000000 		.4byte	0
 2645 002c 00000000 		.4byte	0
 2646 0030 10000000 		.4byte	.LBB24
 2647 0034 12000000 		.4byte	.LBE24
 2648 0038 16000000 		.4byte	.LBB29
 2649 003c 2A000000 		.4byte	.LBE29
 2650 0040 2C000000 		.4byte	.LBB30
 2651 0044 2E000000 		.4byte	.LBE30
 2652 0048 30000000 		.4byte	.LBB31
 2653 004c 32000000 		.4byte	.LBE31
 2654 0050 00000000 		.4byte	0
 2655 0054 00000000 		.4byte	0
 2656 0058 00000000 		.4byte	.LFB7
 2657 005c 06000000 		.4byte	.LFE7
 2658 0060 00000000 		.4byte	.LFB8
 2659 0064 1C000000 		.4byte	.LFE8
 2660 0068 00000000 		.4byte	.LFB9
 2661 006c 1A000000 		.4byte	.LFE9
 2662 0070 00000000 		.4byte	.LFB11
 2663 0074 22000000 		.4byte	.LFE11
 2664 0078 00000000 		.4byte	.LFB10
 2665 007c 10000000 		.4byte	.LFE10
 2666 0080 00000000 		.4byte	.LFB13
 2667 0084 44000000 		.4byte	.LFE13
 2668 0088 00000000 		.4byte	.LFB12
 2669 008c 0C000000 		.4byte	.LFE12
 2670 0090 00000000 		.4byte	.LFB15
 2671 0094 4C000000 		.4byte	.LFE15
ARM GAS  /tmp/cc8rZpmq.s 			page 48


 2672 0098 00000000 		.4byte	.LFB14
 2673 009c 0C000000 		.4byte	.LFE14
 2674 00a0 00000000 		.4byte	0
 2675 00a4 00000000 		.4byte	0
 2676              		.section	.debug_line,"",%progbits
 2677              	.Ldebug_line0:
 2678 0000 6F020000 		.section	.debug_str,"MS",%progbits,1
 2678      02002D01 
 2678      00000201 
 2678      FB0E0D00 
 2678      01010101 
 2679              	.LASF39:
 2680 0000 705F6D73 		.ascii	"p_msg\000"
 2680      6700
 2681              	.LASF68:
 2682 0006 6368436F 		.ascii	"chCondInit\000"
 2682      6E64496E 
 2682      697400
 2683              	.LASF63:
 2684 0011 7264796D 		.ascii	"rdymsg\000"
 2684      736700
 2685              	.LASF5:
 2686 0018 5F5F7569 		.ascii	"__uint8_t\000"
 2686      6E74385F 
 2686      7400
 2687              	.LASF11:
 2688 0022 6C6F6E67 		.ascii	"long long unsigned int\000"
 2688      206C6F6E 
 2688      6720756E 
 2688      7369676E 
 2688      65642069 
 2689              	.LASF64:
 2690 0039 65786974 		.ascii	"exitcode\000"
 2690      636F6465 
 2690      00
 2691              	.LASF71:
 2692 0042 6368436F 		.ascii	"chCondBroadcastI\000"
 2692      6E644272 
 2692      6F616463 
 2692      61737449 
 2692      00
 2693              	.LASF27:
 2694 0053 705F7072 		.ascii	"p_prio\000"
 2694      696F00
 2695              	.LASF10:
 2696 005a 6C6F6E67 		.ascii	"long long int\000"
 2696      206C6F6E 
 2696      6720696E 
 2696      7400
 2697              	.LASF1:
 2698 0068 7369676E 		.ascii	"signed char\000"
 2698      65642063 
 2698      68617200 
 2699              	.LASF43:
 2700 0074 705F6D70 		.ascii	"p_mpool\000"
 2700      6F6F6C00 
 2701              	.LASF58:
ARM GAS  /tmp/cc8rZpmq.s 			page 49


 2702 007c 6D5F7175 		.ascii	"m_queue\000"
 2702      65756500 
 2703              	.LASF19:
 2704 0084 74736C69 		.ascii	"tslices_t\000"
 2704      6365735F 
 2704      7400
 2705              	.LASF61:
 2706 008e 436F6E64 		.ascii	"CondVar\000"
 2706      56617200 
 2707              	.LASF7:
 2708 0096 6C6F6E67 		.ascii	"long int\000"
 2708      20696E74 
 2708      00
 2709              	.LASF17:
 2710 009f 74737461 		.ascii	"tstate_t\000"
 2710      74655F74 
 2710      00
 2711              	.LASF80:
 2712 00a8 63684D74 		.ascii	"chMtxLockS\000"
 2712      784C6F63 
 2712      6B5300
 2713              	.LASF29:
 2714 00b3 705F6E65 		.ascii	"p_newer\000"
 2714      77657200 
 2715              	.LASF89:
 2716 00bb 63685363 		.ascii	"chSchRescheduleS\000"
 2716      68526573 
 2716      63686564 
 2716      756C6553 
 2716      00
 2717              	.LASF82:
 2718 00cc 474E5520 		.ascii	"GNU C 4.8.2 -mcpu=cortex-m0 -mno-thumb-interwork -m"
 2718      4320342E 
 2718      382E3220 
 2718      2D6D6370 
 2718      753D636F 
 2719 00ff 7468756D 		.ascii	"thumb -ggdb -O2 -fomit-frame-pointer -falign-functi"
 2719      62202D67 
 2719      67646220 
 2719      2D4F3220 
 2719      2D666F6D 
 2720 0132 6F6E733D 		.ascii	"ons=16 -ffunction-sections -fdata-sections -fno-com"
 2720      3136202D 
 2720      6666756E 
 2720      6374696F 
 2720      6E2D7365 
 2721 0165 6D6F6E00 		.ascii	"mon\000"
 2722              	.LASF8:
 2723 0169 5F5F7569 		.ascii	"__uint32_t\000"
 2723      6E743332 
 2723      5F7400
 2724              	.LASF46:
 2725 0174 72656761 		.ascii	"regarm_t\000"
 2725      726D5F74 
 2725      00
 2726              	.LASF83:
 2727 017d 2E2E2F2E 		.ascii	"../../os/kernel/src/chcond.c\000"
ARM GAS  /tmp/cc8rZpmq.s 			page 50


 2727      2E2F6F73 
 2727      2F6B6572 
 2727      6E656C2F 
 2727      7372632F 
 2728              	.LASF69:
 2729 019a 6368436F 		.ascii	"chCondSignal\000"
 2729      6E645369 
 2729      676E616C 
 2729      00
 2730              	.LASF90:
 2731 01a7 63684D74 		.ascii	"chMtxUnlockS\000"
 2731      78556E6C 
 2731      6F636B53 
 2731      00
 2732              	.LASF0:
 2733 01b4 756E7369 		.ascii	"unsigned int\000"
 2733      676E6564 
 2733      20696E74 
 2733      00
 2734              	.LASF9:
 2735 01c1 6C6F6E67 		.ascii	"long unsigned int\000"
 2735      20756E73 
 2735      69676E65 
 2735      6420696E 
 2735      7400
 2736              	.LASF48:
 2737 01d3 636F6E74 		.ascii	"context\000"
 2737      65787400 
 2738              	.LASF4:
 2739 01db 73686F72 		.ascii	"short unsigned int\000"
 2739      7420756E 
 2739      7369676E 
 2739      65642069 
 2739      6E7400
 2740              	.LASF21:
 2741 01ee 6D73675F 		.ascii	"msg_t\000"
 2741      7400
 2742              	.LASF53:
 2743 01f4 725F6E65 		.ascii	"r_newer\000"
 2743      77657200 
 2744              	.LASF16:
 2745 01fc 746D6F64 		.ascii	"tmode_t\000"
 2745      655F7400 
 2746              	.LASF45:
 2747 0204 54687265 		.ascii	"ThreadsList\000"
 2747      6164734C 
 2747      69737400 
 2748              	.LASF22:
 2749 0210 6576656E 		.ascii	"eventmask_t\000"
 2749      746D6173 
 2749      6B5F7400 
 2750              	.LASF57:
 2751 021c 4D757465 		.ascii	"Mutex\000"
 2751      7800
 2752              	.LASF49:
 2753 0222 73697A65 		.ascii	"sizetype\000"
 2753      74797065 
ARM GAS  /tmp/cc8rZpmq.s 			page 51


 2753      00
 2754              	.LASF75:
 2755 022b 6368436F 		.ascii	"chCondWaitTimeoutS\000"
 2755      6E645761 
 2755      69745469 
 2755      6D656F75 
 2755      745300
 2756              	.LASF30:
 2757 023e 705F6F6C 		.ascii	"p_older\000"
 2757      64657200 
 2758              	.LASF52:
 2759 0246 725F6374 		.ascii	"r_ctx\000"
 2759      7800
 2760              	.LASF44:
 2761 024c 54687265 		.ascii	"ThreadsQueue\000"
 2761      61647351 
 2761      75657565 
 2761      00
 2762              	.LASF84:
 2763 0259 2F686F6D 		.ascii	"/home/ece497/vbox-shared/mplayer/ChibiOS-RT-stable_"
 2763      652F6563 
 2763      65343937 
 2763      2F76626F 
 2763      782D7368 
 2764 028c 322E362E 		.ascii	"2.6.x/demos/ARMCM0-STM32F051-DISCOVERY\000"
 2764      782F6465 
 2764      6D6F732F 
 2764      41524D43 
 2764      4D302D53 
 2765              	.LASF76:
 2766 02b3 74696D65 		.ascii	"time\000"
 2766      00
 2767              	.LASF55:
 2768 02b8 725F6375 		.ascii	"r_current\000"
 2768      7272656E 
 2768      7400
 2769              	.LASF54:
 2770 02c2 725F6F6C 		.ascii	"r_older\000"
 2770      64657200 
 2771              	.LASF72:
 2772 02ca 6368436F 		.ascii	"chCondBroadcast\000"
 2772      6E644272 
 2772      6F616463 
 2772      61737400 
 2773              	.LASF18:
 2774 02da 74726566 		.ascii	"trefs_t\000"
 2774      735F7400 
 2775              	.LASF26:
 2776 02e2 705F7072 		.ascii	"p_prev\000"
 2776      657600
 2777              	.LASF20:
 2778 02e9 74707269 		.ascii	"tprio_t\000"
 2778      6F5F7400 
 2779              	.LASF70:
 2780 02f1 6368436F 		.ascii	"chCondSignalI\000"
 2780      6E645369 
 2780      676E616C 
ARM GAS  /tmp/cc8rZpmq.s 			page 52


 2780      4900
 2781              	.LASF15:
 2782 02ff 5F426F6F 		.ascii	"_Bool\000"
 2782      6C00
 2783              	.LASF13:
 2784 0305 696E7433 		.ascii	"int32_t\000"
 2784      325F7400 
 2785              	.LASF2:
 2786 030d 756E7369 		.ascii	"unsigned char\000"
 2786      676E6564 
 2786      20636861 
 2786      7200
 2787              	.LASF41:
 2788 031b 705F6D74 		.ascii	"p_mtxlist\000"
 2788      786C6973 
 2788      7400
 2789              	.LASF3:
 2790 0325 73686F72 		.ascii	"short int\000"
 2790      7420696E 
 2790      7400
 2791              	.LASF32:
 2792 032f 705F7374 		.ascii	"p_state\000"
 2792      61746500 
 2793              	.LASF35:
 2794 0337 705F7072 		.ascii	"p_preempt\000"
 2794      65656D70 
 2794      7400
 2795              	.LASF51:
 2796 0341 725F7072 		.ascii	"r_prio\000"
 2796      696F00
 2797              	.LASF66:
 2798 0348 65776D61 		.ascii	"ewmask\000"
 2798      736B00
 2799              	.LASF25:
 2800 034f 705F6E65 		.ascii	"p_next\000"
 2800      787400
 2801              	.LASF33:
 2802 0356 705F666C 		.ascii	"p_flags\000"
 2802      61677300 
 2803              	.LASF24:
 2804 035e 54687265 		.ascii	"Thread\000"
 2804      616400
 2805              	.LASF62:
 2806 0365 635F7175 		.ascii	"c_queue\000"
 2806      65756500 
 2807              	.LASF79:
 2808 036d 63685363 		.ascii	"chSchGoSleepS\000"
 2808      68476F53 
 2808      6C656570 
 2808      5300
 2809              	.LASF40:
 2810 037b 705F6570 		.ascii	"p_epending\000"
 2810      656E6469 
 2810      6E6700
 2811              	.LASF14:
 2812 0386 75696E74 		.ascii	"uint32_t\000"
 2812      33325F74 
ARM GAS  /tmp/cc8rZpmq.s 			page 53


 2812      00
 2813              	.LASF50:
 2814 038f 725F7175 		.ascii	"r_queue\000"
 2814      65756500 
 2815              	.LASF88:
 2816 0397 63685363 		.ascii	"chSchReadyI\000"
 2816      68526561 
 2816      64794900 
 2817              	.LASF67:
 2818 03a3 63686172 		.ascii	"char\000"
 2818      00
 2819              	.LASF85:
 2820 03a8 6669666F 		.ascii	"fifo_remove\000"
 2820      5F72656D 
 2820      6F766500 
 2821              	.LASF73:
 2822 03b4 6368436F 		.ascii	"chCondWaitS\000"
 2822      6E645761 
 2822      69745300 
 2823              	.LASF60:
 2824 03c0 6D5F6E65 		.ascii	"m_next\000"
 2824      787400
 2825              	.LASF23:
 2826 03c7 73797374 		.ascii	"systime_t\000"
 2826      696D655F 
 2826      7400
 2827              	.LASF42:
 2828 03d1 705F7265 		.ascii	"p_realprio\000"
 2828      616C7072 
 2828      696F00
 2829              	.LASF6:
 2830 03dc 5F5F696E 		.ascii	"__int32_t\000"
 2830      7433325F 
 2830      7400
 2831              	.LASF86:
 2832 03e6 7072696F 		.ascii	"prio_insert\000"
 2832      5F696E73 
 2832      65727400 
 2833              	.LASF74:
 2834 03f2 6368436F 		.ascii	"chCondWait\000"
 2834      6E645761 
 2834      697400
 2835              	.LASF36:
 2836 03fd 705F7469 		.ascii	"p_time\000"
 2836      6D6500
 2837              	.LASF47:
 2838 0404 696E7463 		.ascii	"intctx\000"
 2838      747800
 2839              	.LASF38:
 2840 040b 705F6D73 		.ascii	"p_msgqueue\000"
 2840      67717565 
 2840      756500
 2841              	.LASF78:
 2842 0416 63685363 		.ascii	"chSchWakeupS\000"
 2842      6857616B 
 2842      65757053 
 2842      00
ARM GAS  /tmp/cc8rZpmq.s 			page 54


 2843              	.LASF34:
 2844 0423 705F7265 		.ascii	"p_refs\000"
 2844      667300
 2845              	.LASF56:
 2846 042a 52656164 		.ascii	"ReadyList\000"
 2846      794C6973 
 2846      7400
 2847              	.LASF87:
 2848 0434 726C6973 		.ascii	"rlist\000"
 2848      7400
 2849              	.LASF12:
 2850 043a 75696E74 		.ascii	"uint8_t\000"
 2850      385F7400 
 2851              	.LASF65:
 2852 0442 77746F62 		.ascii	"wtobjp\000"
 2852      6A7000
 2853              	.LASF31:
 2854 0449 705F6E61 		.ascii	"p_name\000"
 2854      6D6500
 2855              	.LASF77:
 2856 0450 6368436F 		.ascii	"chCondWaitTimeout\000"
 2856      6E645761 
 2856      69745469 
 2856      6D656F75 
 2856      7400
 2857              	.LASF81:
 2858 0462 63685363 		.ascii	"chSchGoSleepTimeoutS\000"
 2858      68476F53 
 2858      6C656570 
 2858      54696D65 
 2858      6F757453 
 2859              	.LASF59:
 2860 0477 6D5F6F77 		.ascii	"m_owner\000"
 2860      6E657200 
 2861              	.LASF28:
 2862 047f 705F6374 		.ascii	"p_ctx\000"
 2862      7800
 2863              	.LASF37:
 2864 0485 705F7761 		.ascii	"p_waiting\000"
 2864      6974696E 
 2864      6700
 2865              		.ident	"GCC: (Arch Repository) 4.8.2"
ARM GAS  /tmp/cc8rZpmq.s 			page 55


DEFINED SYMBOLS
                            *ABS*:0000000000000000 chcond.c
     /tmp/cc8rZpmq.s:18     .text.chCondInit:0000000000000000 $t
     /tmp/cc8rZpmq.s:24     .text.chCondInit:0000000000000000 chCondInit
     /tmp/cc8rZpmq.s:40     .text.chCondSignal:0000000000000000 $t
     /tmp/cc8rZpmq.s:46     .text.chCondSignal:0000000000000000 chCondSignal
     /tmp/cc8rZpmq.s:99     .text.chCondSignalI:0000000000000000 $t
     /tmp/cc8rZpmq.s:105    .text.chCondSignalI:0000000000000000 chCondSignalI
     /tmp/cc8rZpmq.s:143    .text.chCondBroadcastI:0000000000000000 $t
     /tmp/cc8rZpmq.s:149    .text.chCondBroadcastI:0000000000000000 chCondBroadcastI
     /tmp/cc8rZpmq.s:198    .text.chCondBroadcast:0000000000000000 $t
     /tmp/cc8rZpmq.s:204    .text.chCondBroadcast:0000000000000000 chCondBroadcast
     /tmp/cc8rZpmq.s:236    .text.chCondWaitS:0000000000000000 $t
     /tmp/cc8rZpmq.s:242    .text.chCondWaitS:0000000000000000 chCondWaitS
     /tmp/cc8rZpmq.s:327    .text.chCondWaitS:0000000000000040 $d
     /tmp/cc8rZpmq.s:332    .text.chCondWait:0000000000000000 $t
     /tmp/cc8rZpmq.s:338    .text.chCondWait:0000000000000000 chCondWait
     /tmp/cc8rZpmq.s:367    .text.chCondWaitTimeoutS:0000000000000000 $t
     /tmp/cc8rZpmq.s:373    .text.chCondWaitTimeoutS:0000000000000000 chCondWaitTimeoutS
     /tmp/cc8rZpmq.s:473    .text.chCondWaitTimeoutS:0000000000000048 $d
     /tmp/cc8rZpmq.s:478    .text.chCondWaitTimeout:0000000000000000 $t
     /tmp/cc8rZpmq.s:484    .text.chCondWaitTimeout:0000000000000000 chCondWaitTimeout
                     .debug_frame:0000000000000010 $d
     /tmp/cc8rZpmq.s:331    .text.chCondWaitS:0000000000000044 $t
     /tmp/cc8rZpmq.s:477    .text.chCondWaitTimeoutS:000000000000004c $t

UNDEFINED SYMBOLS
chSchWakeupS
chSchReadyI
chSchRescheduleS
chMtxUnlockS
chSchGoSleepS
chMtxLockS
rlist
chSchGoSleepTimeoutS
