ARM GAS  /tmp/cc8rZpmq.s 			page 1


   1              		.cpu cortex-m0
   2              		.fpu softvfp
   3              		.eabi_attribute 20, 1
   4              		.eabi_attribute 21, 1
   5              		.eabi_attribute 23, 3
   6              		.eabi_attribute 24, 1
   7              		.eabi_attribute 25, 1
   8              		.eabi_attribute 26, 1
   9              		.eabi_attribute 30, 2
  10              		.eabi_attribute 34, 0
  11              		.eabi_attribute 18, 4
  12              		.code	16
  13              		.file	"chcond.c"
  14              		.text
  15              	.Ltext0:
  16              		.cfi_sections	.debug_frame
  17              		.section	.text.chCondInit,"ax",%progbits
  18              		.align	2
  19              		.p2align 4,,15
  20              		.global	chCondInit
  21              		.code	16
  22              		.thumb_func
  23              		.type	chCondInit, %function
  24              	chCondInit:
  25              	.LFB7:
  26              		.file 1 "../../os/kernel/src/chcond.c"
  27              		.loc 1 59 0
  28              		.cfi_startproc
  29              	.LVL0:
  30              		.loc 1 63 0
  31 0000 4060     		str	r0, [r0, #4]
  32 0002 0060     		str	r0, [r0]
  33              		.loc 1 64 0
  34              		@ sp needed
  35 0004 7047     		bx	lr
  36              		.cfi_endproc
  37              	.LFE7:
  38              		.size	chCondInit, .-chCondInit
  39 0006 C046C046 		.section	.text.chCondSignal,"ax",%progbits
  39      C046C046 
  39      C046
  40              		.align	2
  41              		.p2align 4,,15
  42              		.global	chCondSignal
  43              		.code	16
  44              		.thumb_func
  45              		.type	chCondSignal, %function
  46              	chCondSignal:
  47              	.LFB8:
  48              		.loc 1 73 0
  49              		.cfi_startproc
  50              	.LVL1:
  51 0000 08B5     		push	{r3, lr}
  52              		.cfi_def_cfa_offset 8
  53              		.cfi_offset 3, -8
  54              		.cfi_offset 14, -4
  55              		.loc 1 77 0
ARM GAS  /tmp/cc8rZpmq.s 			page 2


  56              	@ 77 "../../os/kernel/src/chcond.c" 1
  57 0002 72B6     		cpsid   i
  58              	@ 0 "" 2
  59              		.loc 1 78 0
  60              		.code	16
  61 0004 0368     		ldr	r3, [r0]
  62 0006 8342     		cmp	r3, r0
  63 0008 06D0     		beq	.L3
  64              	.LVL2:
  65              	.LBB12:
  66              	.LBB13:
  67              		.file 2 "../../os/kernel/include/chinline.h"
  68              		.loc 2 62 0
  69 000a 1A68     		ldr	r2, [r3]
  70              	.LBE13:
  71              	.LBE12:
  72              		.loc 1 79 0
  73 000c 0021     		mov	r1, #0
  74              	.LBB15:
  75              	.LBB14:
  76              		.loc 2 62 0
  77 000e 0260     		str	r2, [r0]
  78 0010 5060     		str	r0, [r2, #4]
  79              	.LBE14:
  80              	.LBE15:
  81              		.loc 1 79 0
  82 0012 181C     		mov	r0, r3
  83              	.LVL3:
  84 0014 FFF7FEFF 		bl	chSchWakeupS
  85              	.LVL4:
  86              	.L3:
  87              		.loc 1 80 0
  88              	@ 80 "../../os/kernel/src/chcond.c" 1
  89 0018 62B6     		cpsie   i
  90              	@ 0 "" 2
  91              		.loc 1 81 0
  92              		.code	16
  93              		@ sp needed
  94 001a 08BD     		pop	{r3, pc}
  95              		.cfi_endproc
  96              	.LFE8:
  97              		.size	chCondSignal, .-chCondSignal
  98 001c C046C046 		.section	.text.chCondSignalI,"ax",%progbits
  99              		.align	2
 100              		.p2align 4,,15
 101              		.global	chCondSignalI
 102              		.code	16
 103              		.thumb_func
 104              		.type	chCondSignalI, %function
 105              	chCondSignalI:
 106              	.LFB9:
 107              		.loc 1 94 0
 108              		.cfi_startproc
 109              	.LVL5:
 110 0000 08B5     		push	{r3, lr}
 111              		.cfi_def_cfa_offset 8
 112              		.cfi_offset 3, -8
ARM GAS  /tmp/cc8rZpmq.s 			page 3


 113              		.cfi_offset 14, -4
 114              		.loc 1 99 0
 115 0002 0368     		ldr	r3, [r0]
 116 0004 8342     		cmp	r3, r0
 117 0006 07D0     		beq	.L5
 118              	.LVL6:
 119              	.LBB16:
 120              	.LBB17:
 121              		.loc 2 62 0
 122 0008 1A68     		ldr	r2, [r3]
 123 000a 0260     		str	r2, [r0]
 124 000c 5060     		str	r0, [r2, #4]
 125              	.LBE17:
 126              	.LBE16:
 127              		.loc 1 100 0
 128 000e 181C     		mov	r0, r3
 129              	.LVL7:
 130 0010 FFF7FEFF 		bl	chSchReadyI
 131              	.LVL8:
 132 0014 0023     		mov	r3, #0
 133 0016 4362     		str	r3, [r0, #36]
 134              	.LVL9:
 135              	.L5:
 136              		.loc 1 101 0
 137              		@ sp needed
 138 0018 08BD     		pop	{r3, pc}
 139              		.cfi_endproc
 140              	.LFE9:
 141              		.size	chCondSignalI, .-chCondSignalI
 142 001a C046C046 		.section	.text.chCondBroadcastI,"ax",%progbits
 142      C046
 143              		.align	2
 144              		.p2align 4,,15
 145              		.global	chCondBroadcastI
 146              		.code	16
 147              		.thumb_func
 148              		.type	chCondBroadcastI, %function
 149              	chCondBroadcastI:
 150              	.LFB11:
 151              		.loc 1 129 0
 152              		.cfi_startproc
 153              	.LVL10:
 154 0000 38B5     		push	{r3, r4, r5, lr}
 155              		.cfi_def_cfa_offset 16
 156              		.cfi_offset 3, -16
 157              		.cfi_offset 4, -12
 158              		.cfi_offset 5, -8
 159              		.cfi_offset 14, -4
 160              		.loc 1 129 0
 161 0002 041C     		mov	r4, r0
 162              		.loc 1 137 0
 163 0004 0068     		ldr	r0, [r0]
 164              	.LVL11:
 165 0006 A042     		cmp	r0, r4
 166 0008 0AD0     		beq	.L7
 167              		.loc 1 138 0
 168 000a 0225     		mov	r5, #2
ARM GAS  /tmp/cc8rZpmq.s 			page 4


 169 000c 6D42     		neg	r5, r5
 170              	.L11:
 171              	.LVL12:
 172              	.LBB18:
 173              	.LBB19:
 174              		.loc 2 62 0
 175 000e 0368     		ldr	r3, [r0]
 176 0010 2360     		str	r3, [r4]
 177 0012 5C60     		str	r4, [r3, #4]
 178              	.LBE19:
 179              	.LBE18:
 180              		.loc 1 138 0
 181 0014 FFF7FEFF 		bl	chSchReadyI
 182              	.LVL13:
 183 0018 4562     		str	r5, [r0, #36]
 184              		.loc 1 137 0
 185 001a 2068     		ldr	r0, [r4]
 186 001c A042     		cmp	r0, r4
 187 001e F6D1     		bne	.L11
 188              	.LVL14:
 189              	.L7:
 190              		.loc 1 139 0
 191              		@ sp needed
 192              	.LVL15:
 193 0020 38BD     		pop	{r3, r4, r5, pc}
 194              		.cfi_endproc
 195              	.LFE11:
 196              		.size	chCondBroadcastI, .-chCondBroadcastI
 197 0022 C046C046 		.section	.text.chCondBroadcast,"ax",%progbits
 197      C046C046 
 197      C046C046 
 197      C046
 198              		.align	2
 199              		.p2align 4,,15
 200              		.global	chCondBroadcast
 201              		.code	16
 202              		.thumb_func
 203              		.type	chCondBroadcast, %function
 204              	chCondBroadcast:
 205              	.LFB10:
 206              		.loc 1 110 0
 207              		.cfi_startproc
 208              	.LVL16:
 209 0000 08B5     		push	{r3, lr}
 210              		.cfi_def_cfa_offset 8
 211              		.cfi_offset 3, -8
 212              		.cfi_offset 14, -4
 213              		.loc 1 112 0
 214              	@ 112 "../../os/kernel/src/chcond.c" 1
 215 0002 72B6     		cpsid   i
 216              	@ 0 "" 2
 217              		.loc 1 113 0
 218              		.code	16
 219 0004 FFF7FEFF 		bl	chCondBroadcastI
 220              	.LVL17:
 221              		.loc 1 114 0
 222 0008 FFF7FEFF 		bl	chSchRescheduleS
ARM GAS  /tmp/cc8rZpmq.s 			page 5


 223              	.LVL18:
 224              		.loc 1 115 0
 225              	@ 115 "../../os/kernel/src/chcond.c" 1
 226 000c 62B6     		cpsie   i
 227              	@ 0 "" 2
 228              		.loc 1 116 0
 229              		.code	16
 230              		@ sp needed
 231 000e 08BD     		pop	{r3, pc}
 232              		.cfi_endproc
 233              	.LFE10:
 234              		.size	chCondBroadcast, .-chCondBroadcast
 235              		.section	.text.chCondWaitS,"ax",%progbits
 236              		.align	2
 237              		.p2align 4,,15
 238              		.global	chCondWaitS
 239              		.code	16
 240              		.thumb_func
 241              		.type	chCondWaitS, %function
 242              	chCondWaitS:
 243              	.LFB13:
 244              		.loc 1 184 0
 245              		.cfi_startproc
 246              	.LVL19:
 247              		.loc 1 185 0
 248 0000 0F4B     		ldr	r3, .L19
 249              		.loc 1 184 0
 250 0002 70B5     		push	{r4, r5, r6, lr}
 251              		.cfi_def_cfa_offset 16
 252              		.cfi_offset 4, -16
 253              		.cfi_offset 5, -12
 254              		.cfi_offset 6, -8
 255              		.cfi_offset 14, -4
 256              		.loc 1 184 0
 257 0004 051C     		mov	r5, r0
 258              		.loc 1 185 0
 259 0006 9C69     		ldr	r4, [r3, #24]
 260              	.LVL20:
 261              		.loc 1 195 0
 262 0008 FFF7FEFF 		bl	chMtxUnlockS
 263              	.LVL21:
 264              		.loc 1 196 0
 265 000c 6562     		str	r5, [r4, #36]
 266              		.loc 1 195 0
 267 000e 061C     		mov	r6, r0
 268              	.LVL22:
 269              	.LBB20:
 270              	.LBB21:
 271              		.loc 2 43 0
 272 0010 2B1C     		mov	r3, r5
 273 0012 03E0     		b	.L16
 274              	.LVL23:
 275              	.L18:
 276              		.loc 2 46 0
 277 0014 9968     		ldr	r1, [r3, #8]
 278 0016 A268     		ldr	r2, [r4, #8]
 279 0018 9142     		cmp	r1, r2
ARM GAS  /tmp/cc8rZpmq.s 			page 6


 280 001a 02D3     		bcc	.L15
 281              	.L16:
 282              		.loc 2 45 0
 283 001c 1B68     		ldr	r3, [r3]
 284              	.LVL24:
 285              		.loc 2 46 0
 286 001e 9D42     		cmp	r5, r3
 287 0020 F8D1     		bne	.L18
 288              	.L15:
 289              		.loc 2 48 0
 290 0022 5A68     		ldr	r2, [r3, #4]
 291              		.loc 2 47 0
 292 0024 2360     		str	r3, [r4]
 293              		.loc 2 48 0
 294 0026 6260     		str	r2, [r4, #4]
 295              	.LBE21:
 296              	.LBE20:
 297              		.loc 1 198 0
 298 0028 0520     		mov	r0, #5
 299              	.LVL25:
 300              	.LBB23:
 301              	.LBB22:
 302              		.loc 2 49 0
 303 002a 5C60     		str	r4, [r3, #4]
 304 002c 1460     		str	r4, [r2]
 305              	.LBE22:
 306              	.LBE23:
 307              		.loc 1 198 0
 308 002e FFF7FEFF 		bl	chSchGoSleepS
 309              	.LVL26:
 310              		.loc 1 199 0
 311 0032 646A     		ldr	r4, [r4, #36]
 312              	.LVL27:
 313              		.loc 1 200 0
 314 0034 301C     		mov	r0, r6
 315 0036 FFF7FEFF 		bl	chMtxLockS
 316              	.LVL28:
 317              		.loc 1 202 0
 318              		@ sp needed
 319 003a 201C     		mov	r0, r4
 320              	.LVL29:
 321              	.LVL30:
 322              	.LVL31:
 323 003c 70BD     		pop	{r4, r5, r6, pc}
 324              	.L20:
 325 003e C046     		.align	2
 326              	.L19:
 327 0040 00000000 		.word	rlist
 328              		.cfi_endproc
 329              	.LFE13:
 330              		.size	chCondWaitS, .-chCondWaitS
 331 0044 C046C046 		.section	.text.chCondWait,"ax",%progbits
 331      C046C046 
 331      C046C046 
 332              		.align	2
 333              		.p2align 4,,15
 334              		.global	chCondWait
ARM GAS  /tmp/cc8rZpmq.s 			page 7


 335              		.code	16
 336              		.thumb_func
 337              		.type	chCondWait, %function
 338              	chCondWait:
 339              	.LFB12:
 340              		.loc 1 158 0
 341              		.cfi_startproc
 342              	.LVL32:
 343 0000 08B5     		push	{r3, lr}
 344              		.cfi_def_cfa_offset 8
 345              		.cfi_offset 3, -8
 346              		.cfi_offset 14, -4
 347              		.loc 1 161 0
 348              	@ 161 "../../os/kernel/src/chcond.c" 1
 349 0002 72B6     		cpsid   i
 350              	@ 0 "" 2
 351              		.loc 1 162 0
 352              		.code	16
 353 0004 FFF7FEFF 		bl	chCondWaitS
 354              	.LVL33:
 355              		.loc 1 163 0
 356              	@ 163 "../../os/kernel/src/chcond.c" 1
 357 0008 62B6     		cpsie   i
 358              	@ 0 "" 2
 359              		.loc 1 165 0
 360              		.code	16
 361              		@ sp needed
 362 000a 08BD     		pop	{r3, pc}
 363              		.cfi_endproc
 364              	.LFE12:
 365              		.size	chCondWait, .-chCondWait
 366 000c C046C046 		.section	.text.chCondWaitTimeoutS,"ax",%progbits
 367              		.align	2
 368              		.p2align 4,,15
 369              		.global	chCondWaitTimeoutS
 370              		.code	16
 371              		.thumb_func
 372              		.type	chCondWaitTimeoutS, %function
 373              	chCondWaitTimeoutS:
 374              	.LFB15:
 375              		.loc 1 270 0
 376              		.cfi_startproc
 377              	.LVL34:
 378 0000 70B5     		push	{r4, r5, r6, lr}
 379              		.cfi_def_cfa_offset 16
 380              		.cfi_offset 4, -16
 381              		.cfi_offset 5, -12
 382              		.cfi_offset 6, -8
 383              		.cfi_offset 14, -4
 384              		.loc 1 270 0
 385 0002 041C     		mov	r4, r0
 386 0004 0D1C     		mov	r5, r1
 387              		.loc 1 280 0
 388 0006 FFF7FEFF 		bl	chMtxUnlockS
 389              	.LVL35:
 390              		.loc 1 281 0
 391 000a 0F4B     		ldr	r3, .L28
ARM GAS  /tmp/cc8rZpmq.s 			page 8


 392              		.loc 1 280 0
 393 000c 061C     		mov	r6, r0
 394              	.LVL36:
 395              		.loc 1 281 0
 396 000e 9A69     		ldr	r2, [r3, #24]
 397              	.LBB24:
 398              	.LBB25:
 399              		.loc 2 43 0
 400 0010 231C     		mov	r3, r4
 401              	.LBE25:
 402              	.LBE24:
 403              		.loc 1 281 0
 404 0012 5462     		str	r4, [r2, #36]
 405              	.LVL37:
 406 0014 03E0     		b	.L27
 407              	.LVL38:
 408              	.L23:
 409              	.LBB29:
 410              	.LBB26:
 411              		.loc 2 46 0
 412 0016 9968     		ldr	r1, [r3, #8]
 413 0018 9068     		ldr	r0, [r2, #8]
 414 001a 8142     		cmp	r1, r0
 415 001c 02D3     		bcc	.L26
 416              	.L27:
 417              		.loc 2 45 0
 418 001e 1B68     		ldr	r3, [r3]
 419              	.LVL39:
 420              		.loc 2 46 0
 421 0020 9C42     		cmp	r4, r3
 422 0022 F8D1     		bne	.L23
 423              	.L26:
 424              		.loc 2 48 0
 425 0024 5C68     		ldr	r4, [r3, #4]
 426              	.LVL40:
 427              		.loc 2 47 0
 428 0026 1360     		str	r3, [r2]
 429              		.loc 2 48 0
 430 0028 5460     		str	r4, [r2, #4]
 431              	.LBE26:
 432              	.LBE29:
 433              		.loc 1 283 0
 434 002a 0520     		mov	r0, #5
 435              	.LBB30:
 436              	.LBB27:
 437              		.loc 2 49 0
 438 002c 5A60     		str	r2, [r3, #4]
 439              	.LBE27:
 440              	.LBE30:
 441              		.loc 1 283 0
 442 002e 291C     		mov	r1, r5
 443              	.LBB31:
 444              	.LBB28:
 445              		.loc 2 49 0
 446 0030 2260     		str	r2, [r4]
 447              	.LBE28:
 448              	.LBE31:
ARM GAS  /tmp/cc8rZpmq.s 			page 9


 449              		.loc 1 283 0
 450 0032 FFF7FEFF 		bl	chSchGoSleepTimeoutS
 451              	.LVL41:
 452 0036 041C     		mov	r4, r0
 453              	.LVL42:
 454              		.loc 1 284 0
 455 0038 601C     		add	r0, r4, #1
 456 003a 02D0     		beq	.L25
 457              	.LVL43:
 458              		.loc 1 285 0
 459 003c 301C     		mov	r0, r6
 460 003e FFF7FEFF 		bl	chMtxLockS
 461              	.LVL44:
 462              	.L25:
 463              		.loc 1 287 0
 464 0042 201C     		mov	r0, r4
 465              		@ sp needed
 466              	.LVL45:
 467              	.LVL46:
 468              	.LVL47:
 469 0044 70BD     		pop	{r4, r5, r6, pc}
 470              	.L29:
 471 0046 C046     		.align	2
 472              	.L28:
 473 0048 00000000 		.word	rlist
 474              		.cfi_endproc
 475              	.LFE15:
 476              		.size	chCondWaitTimeoutS, .-chCondWaitTimeoutS
 477 004c C046C046 		.section	.text.chCondWaitTimeout,"ax",%progbits
 478              		.align	2
 479              		.p2align 4,,15
 480              		.global	chCondWaitTimeout
 481              		.code	16
 482              		.thumb_func
 483              		.type	chCondWaitTimeout, %function
 484              	chCondWaitTimeout:
 485              	.LFB14:
 486              		.loc 1 233 0
 487              		.cfi_startproc
 488              	.LVL48:
 489 0000 08B5     		push	{r3, lr}
 490              		.cfi_def_cfa_offset 8
 491              		.cfi_offset 3, -8
 492              		.cfi_offset 14, -4
 493              		.loc 1 236 0
 494              	@ 236 "../../os/kernel/src/chcond.c" 1
 495 0002 72B6     		cpsid   i
 496              	@ 0 "" 2
 497              		.loc 1 237 0
 498              		.code	16
 499 0004 FFF7FEFF 		bl	chCondWaitTimeoutS
 500              	.LVL49:
 501              		.loc 1 238 0
 502              	@ 238 "../../os/kernel/src/chcond.c" 1
 503 0008 62B6     		cpsie   i
 504              	@ 0 "" 2
 505              		.loc 1 240 0
ARM GAS  /tmp/cc8rZpmq.s 			page 10


 506              		.code	16
 507              		@ sp needed
 508 000a 08BD     		pop	{r3, pc}
 509              		.cfi_endproc
 510              	.LFE14:
 511              		.size	chCondWaitTimeout, .-chCondWaitTimeout
 512 000c C046C046 		.text
 513              	.Letext0:
 514              		.file 3 "/usr/arm-none-eabi/include/machine/_default_types.h"
 515              		.file 4 "/usr/arm-none-eabi/include/stdint.h"
 516              		.file 5 "../../os/ports/GCC/ARMCMx/chtypes.h"
 517              		.file 6 "../../os/kernel/include/chlists.h"
 518              		.file 7 "../../os/kernel/include/chthreads.h"
 519              		.file 8 "../../os/ports/GCC/ARMCMx/chcore_v6m.h"
 520              		.file 9 "../../os/kernel/include/chschd.h"
 521              		.file 10 "../../os/kernel/include/chmtx.h"
 522              		.file 11 "../../os/kernel/include/chcond.h"