ARM GAS  /tmp/ccqyQdS0.s 			page 1


   1              		.cpu cortex-m0
   2              		.fpu softvfp
   3              		.eabi_attribute 20, 1
   4              		.eabi_attribute 21, 1
   5              		.eabi_attribute 23, 3
   6              		.eabi_attribute 24, 1
   7              		.eabi_attribute 25, 1
   8              		.eabi_attribute 26, 1
   9              		.eabi_attribute 30, 2
  10              		.eabi_attribute 34, 0
  11              		.eabi_attribute 18, 4
  12              		.code	16
  13              		.file	"chdynamic.c"
  14              		.text
  15              	.Ltext0:
  16              		.cfi_sections	.debug_frame
  17              		.section	.text.chThdAddRef,"ax",%progbits
  18              		.align	2
  19              		.p2align 4,,15
  20              		.global	chThdAddRef
  21              		.code	16
  22              		.thumb_func
  23              		.type	chThdAddRef, %function
  24              	chThdAddRef:
  25              	.LFB7:
  26              		.file 1 "../../os/kernel/src/chdynamic.c"
  27              		.loc 1 52 0
  28              		.cfi_startproc
  29              	.LVL0:
  30              		.loc 1 54 0
  31              	@ 54 "../../os/kernel/src/chdynamic.c" 1
  32 0000 72B6     		cpsid   i
  33              	@ 0 "" 2
  34              		.loc 1 56 0
  35              		.code	16
  36 0002 837F     		ldrb	r3, [r0, #30]
  37 0004 0133     		add	r3, r3, #1
  38 0006 8377     		strb	r3, [r0, #30]
  39              		.loc 1 57 0
  40              	@ 57 "../../os/kernel/src/chdynamic.c" 1
  41 0008 62B6     		cpsie   i
  42              	@ 0 "" 2
  43              		.loc 1 59 0
  44              		.code	16
  45              		@ sp needed
  46 000a 7047     		bx	lr
  47              		.cfi_endproc
  48              	.LFE7:
  49              		.size	chThdAddRef, .-chThdAddRef
  50 000c C046C046 		.section	.text.chThdRelease,"ax",%progbits
  51              		.align	2
  52              		.p2align 4,,15
  53              		.global	chThdRelease
  54              		.code	16
  55              		.thumb_func
  56              		.type	chThdRelease, %function
  57              	chThdRelease:
ARM GAS  /tmp/ccqyQdS0.s 			page 2


  58              	.LFB8:
  59              		.loc 1 74 0
  60              		.cfi_startproc
  61              	.LVL1:
  62 0000 08B5     		push	{r3, lr}
  63              		.cfi_def_cfa_offset 8
  64              		.cfi_offset 3, -8
  65              		.cfi_offset 14, -4
  66              		.loc 1 74 0
  67 0002 011C     		mov	r1, r0
  68              		.loc 1 77 0
  69              	@ 77 "../../os/kernel/src/chdynamic.c" 1
  70 0004 72B6     		cpsid   i
  71              	@ 0 "" 2
  72              		.loc 1 79 0
  73              		.code	16
  74 0006 837F     		ldrb	r3, [r0, #30]
  75 0008 013B     		sub	r3, r3, #1
  76 000a DBB2     		uxtb	r3, r3
  77 000c 8377     		strb	r3, [r0, #30]
  78              	.LVL2:
  79              		.loc 1 80 0
  80              	@ 80 "../../os/kernel/src/chdynamic.c" 1
  81 000e 62B6     		cpsie   i
  82              	@ 0 "" 2
  83              		.loc 1 85 0
  84              		.code	16
  85 0010 002B     		cmp	r3, #0
  86 0012 02D1     		bne	.L2
  87              		.loc 1 85 0 is_stmt 0 discriminator 1
  88 0014 037F     		ldrb	r3, [r0, #28]
  89              	.LVL3:
  90 0016 0E2B     		cmp	r3, #14
  91 0018 00D0     		beq	.L7
  92              	.LVL4:
  93              	.L2:
  94              		.loc 1 105 0 is_stmt 1
  95              		@ sp needed
  96 001a 08BD     		pop	{r3, pc}
  97              	.LVL5:
  98              	.L7:
  99              		.loc 1 86 0
 100 001c 437F     		ldrb	r3, [r0, #29]
 101 001e 0322     		mov	r2, #3
 102 0020 1340     		and	r3, r2
 103 0022 012B     		cmp	r3, #1
 104 0024 0AD0     		beq	.L4
 105 0026 022B     		cmp	r3, #2
 106 0028 F7D1     		bne	.L2
 107              		.loc 1 98 0
 108 002a 4369     		ldr	r3, [r0, #20]
 109 002c 0269     		ldr	r2, [r0, #16]
 110 002e 1A61     		str	r2, [r3, #16]
 111 0030 0269     		ldr	r2, [r0, #16]
 112              		.loc 1 100 0
 113 0032 406C     		ldr	r0, [r0, #68]
 114              	.LVL6:
ARM GAS  /tmp/ccqyQdS0.s 			page 3


 115              		.loc 1 98 0
 116 0034 5361     		str	r3, [r2, #20]
 117              		.loc 1 100 0
 118 0036 FFF7FEFF 		bl	chPoolFree
 119              	.LVL7:
 120              		.loc 1 101 0
 121 003a EEE7     		b	.L2
 122              	.LVL8:
 123              	.L4:
 124              		.loc 1 90 0
 125 003c 0269     		ldr	r2, [r0, #16]
 126 003e 4369     		ldr	r3, [r0, #20]
 127 0040 1A61     		str	r2, [r3, #16]
 128 0042 0269     		ldr	r2, [r0, #16]
 129 0044 5361     		str	r3, [r2, #20]
 130              		.loc 1 92 0
 131 0046 FFF7FEFF 		bl	chHeapFree
 132              	.LVL9:
 133              		.loc 1 93 0
 134 004a E6E7     		b	.L2
 135              		.cfi_endproc
 136              	.LFE8:
 137              		.size	chThdRelease, .-chThdRelease
 138 004c C046C046 		.section	.text.chThdCreateFromHeap,"ax",%progbits
 139              		.align	2
 140              		.p2align 4,,15
 141              		.global	chThdCreateFromHeap
 142              		.code	16
 143              		.thumb_func
 144              		.type	chThdCreateFromHeap, %function
 145              	chThdCreateFromHeap:
 146              	.LFB9:
 147              		.loc 1 131 0
 148              		.cfi_startproc
 149              	.LVL10:
 150 0000 70B5     		push	{r4, r5, r6, lr}
 151              		.cfi_def_cfa_offset 16
 152              		.cfi_offset 4, -16
 153              		.cfi_offset 5, -12
 154              		.cfi_offset 6, -8
 155              		.cfi_offset 14, -4
 156 0002 82B0     		sub	sp, sp, #8
 157              		.cfi_def_cfa_offset 24
 158              		.loc 1 131 0
 159 0004 0C1C     		mov	r4, r1
 160 0006 161C     		mov	r6, r2
 161 0008 1D1C     		mov	r5, r3
 162              		.loc 1 135 0
 163 000a FFF7FEFF 		bl	chHeapAlloc
 164              	.LVL11:
 165              		.loc 1 136 0
 166 000e 0028     		cmp	r0, #0
 167 0010 11D0     		beq	.L10
 168              		.loc 1 148 0
 169              	@ 148 "../../os/kernel/src/chdynamic.c" 1
 170 0012 72B6     		cpsid   i
 171              	@ 0 "" 2
ARM GAS  /tmp/ccqyQdS0.s 			page 4


 172              		.loc 1 149 0
 173              		.code	16
 174 0014 069B     		ldr	r3, [sp, #24]
 175 0016 211C     		mov	r1, r4
 176 0018 0093     		str	r3, [sp]
 177 001a 321C     		mov	r2, r6
 178 001c 2B1C     		mov	r3, r5
 179 001e FFF7FEFF 		bl	chThdCreateI
 180              	.LVL12:
 181              		.loc 1 150 0
 182 0022 0123     		mov	r3, #1
 183 0024 4377     		strb	r3, [r0, #29]
 184              		.loc 1 151 0
 185 0026 0021     		mov	r1, #0
 186              		.loc 1 149 0
 187 0028 041C     		mov	r4, r0
 188              	.LVL13:
 189              		.loc 1 151 0
 190 002a FFF7FEFF 		bl	chSchWakeupS
 191              	.LVL14:
 192              		.loc 1 152 0
 193              	@ 152 "../../os/kernel/src/chdynamic.c" 1
 194 002e 62B6     		cpsie   i
 195              	@ 0 "" 2
 196              		.loc 1 153 0
 197              		.code	16
 198 0030 201C     		mov	r0, r4
 199              	.LVL15:
 200              	.L9:
 201              		.loc 1 154 0
 202 0032 02B0     		add	sp, sp, #8
 203              		@ sp needed
 204              	.LVL16:
 205              	.LVL17:
 206 0034 70BD     		pop	{r4, r5, r6, pc}
 207              	.LVL18:
 208              	.L10:
 209              		.loc 1 137 0
 210 0036 0020     		mov	r0, #0
 211              	.LVL19:
 212 0038 FBE7     		b	.L9
 213              		.cfi_endproc
 214              	.LFE9:
 215              		.size	chThdCreateFromHeap, .-chThdCreateFromHeap
 216 003a C046C046 		.section	.text.chThdCreateFromMemoryPool,"ax",%progbits
 216      C046
 217              		.align	2
 218              		.p2align 4,,15
 219              		.global	chThdCreateFromMemoryPool
 220              		.code	16
 221              		.thumb_func
 222              		.type	chThdCreateFromMemoryPool, %function
 223              	chThdCreateFromMemoryPool:
 224              	.LFB10:
 225              		.loc 1 180 0
 226              		.cfi_startproc
 227              	.LVL20:
ARM GAS  /tmp/ccqyQdS0.s 			page 5


 228 0000 F0B5     		push	{r4, r5, r6, r7, lr}
 229              		.cfi_def_cfa_offset 20
 230              		.cfi_offset 4, -20
 231              		.cfi_offset 5, -16
 232              		.cfi_offset 6, -12
 233              		.cfi_offset 7, -8
 234              		.cfi_offset 14, -4
 235 0002 83B0     		sub	sp, sp, #12
 236              		.cfi_def_cfa_offset 32
 237              		.loc 1 180 0
 238 0004 051C     		mov	r5, r0
 239 0006 0E1C     		mov	r6, r1
 240 0008 141C     		mov	r4, r2
 241 000a 1F1C     		mov	r7, r3
 242              		.loc 1 186 0
 243 000c FFF7FEFF 		bl	chPoolAlloc
 244              	.LVL21:
 245              		.loc 1 187 0
 246 0010 0028     		cmp	r0, #0
 247 0012 11D0     		beq	.L13
 248              		.loc 1 199 0
 249              	@ 199 "../../os/kernel/src/chdynamic.c" 1
 250 0014 72B6     		cpsid   i
 251              	@ 0 "" 2
 252              		.loc 1 200 0
 253              		.code	16
 254 0016 6968     		ldr	r1, [r5, #4]
 255 0018 321C     		mov	r2, r6
 256 001a 231C     		mov	r3, r4
 257 001c 0097     		str	r7, [sp]
 258 001e FFF7FEFF 		bl	chThdCreateI
 259              	.LVL22:
 260              		.loc 1 201 0
 261 0022 0223     		mov	r3, #2
 262 0024 4377     		strb	r3, [r0, #29]
 263              		.loc 1 202 0
 264 0026 4564     		str	r5, [r0, #68]
 265              		.loc 1 203 0
 266 0028 0021     		mov	r1, #0
 267              		.loc 1 200 0
 268 002a 041C     		mov	r4, r0
 269              	.LVL23:
 270              		.loc 1 203 0
 271 002c FFF7FEFF 		bl	chSchWakeupS
 272              	.LVL24:
 273              		.loc 1 204 0
 274              	@ 204 "../../os/kernel/src/chdynamic.c" 1
 275 0030 62B6     		cpsie   i
 276              	@ 0 "" 2
 277              		.loc 1 205 0
 278              		.code	16
 279 0032 201C     		mov	r0, r4
 280              	.LVL25:
 281              	.L12:
 282              		.loc 1 206 0
 283 0034 03B0     		add	sp, sp, #12
 284              		@ sp needed
ARM GAS  /tmp/ccqyQdS0.s 			page 6


 285              	.LVL26:
 286              	.LVL27:
 287              	.LVL28:
 288 0036 F0BD     		pop	{r4, r5, r6, r7, pc}
 289              	.LVL29:
 290              	.L13:
 291              		.loc 1 188 0
 292 0038 0020     		mov	r0, #0
 293              	.LVL30:
 294 003a FBE7     		b	.L12
 295              		.cfi_endproc
 296              	.LFE10:
 297              		.size	chThdCreateFromMemoryPool, .-chThdCreateFromMemoryPool
 298 003c C046C046 		.text
 299              	.Letext0:
 300              		.file 2 "/usr/lib/gcc/arm-none-eabi/4.8.2/include/stddef.h"
 301              		.file 3 "/usr/arm-none-eabi/include/machine/_default_types.h"
 302              		.file 4 "/usr/arm-none-eabi/include/stdint.h"
 303              		.file 5 "../../os/ports/GCC/ARMCMx/chtypes.h"
 304              		.file 6 "../../os/kernel/include/chlists.h"
 305              		.file 7 "../../os/kernel/include/chthreads.h"
 306              		.file 8 "../../os/ports/GCC/ARMCMx/chcore_v6m.h"
 307              		.file 9 "../../os/kernel/include/chmtx.h"
 308              		.file 10 "../../os/kernel/include/chmemcore.h"
 309              		.file 11 "../../os/kernel/include/chheap.h"
 310              		.file 12 "../../os/kernel/include/chmempools.h"
 311              		.file 13 "../../os/kernel/include/chschd.h"