ARM GAS  /tmp/cc4aEB7N.s 			page 1


   1              		.cpu cortex-m0
   2              		.fpu softvfp
   3              		.eabi_attribute 20, 1
   4              		.eabi_attribute 21, 1
   5              		.eabi_attribute 23, 3
   6              		.eabi_attribute 24, 1
   7              		.eabi_attribute 25, 1
   8              		.eabi_attribute 26, 1
   9              		.eabi_attribute 30, 2
  10              		.eabi_attribute 34, 0
  11              		.eabi_attribute 18, 4
  12              		.code	16
  13              		.file	"chqueues.c"
  14              		.text
  15              	.Ltext0:
  16              		.cfi_sections	.debug_frame
  17              		.section	.text.qwait,"ax",%progbits
  18              		.align	2
  19              		.p2align 4,,15
  20              		.code	16
  21              		.thumb_func
  22              		.type	qwait, %function
  23              	qwait:
  24              	.LFB7:
  25              		.file 1 "../../os/kernel/src/chqueues.c"
  26              		.loc 1 70 0
  27              		.cfi_startproc
  28              	.LVL0:
  29 0000 08B5     		push	{r3, lr}
  30              		.cfi_def_cfa_offset 8
  31              		.cfi_offset 3, -8
  32              		.cfi_offset 14, -4
  33              		.loc 1 72 0
  34 0002 0029     		cmp	r1, #0
  35 0004 0BD0     		beq	.L3
  36              		.loc 1 74 0
  37 0006 074B     		ldr	r3, .L5
  38 0008 9B69     		ldr	r3, [r3, #24]
  39 000a 5862     		str	r0, [r3, #36]
  40              	.LVL1:
  41              	.LBB12:
  42              	.LBB13:
  43              		.file 2 "../../os/kernel/include/chinline.h"
  44              		.loc 2 55 0
  45 000c 4268     		ldr	r2, [r0, #4]
  46              		.loc 2 54 0
  47 000e 1860     		str	r0, [r3]
  48              		.loc 2 55 0
  49 0010 5A60     		str	r2, [r3, #4]
  50              		.loc 2 56 0
  51 0012 4360     		str	r3, [r0, #4]
  52 0014 1360     		str	r3, [r2]
  53              	.LBE13:
  54              	.LBE12:
  55              		.loc 1 76 0
  56 0016 0D20     		mov	r0, #13
  57              	.LVL2:
ARM GAS  /tmp/cc4aEB7N.s 			page 2


  58 0018 FFF7FEFF 		bl	chSchGoSleepTimeoutS
  59              	.LVL3:
  60              	.L2:
  61              		.loc 1 77 0
  62              		@ sp needed
  63 001c 08BD     		pop	{r3, pc}
  64              	.LVL4:
  65              	.L3:
  66              		.loc 1 73 0
  67 001e 0120     		mov	r0, #1
  68              	.LVL5:
  69 0020 4042     		neg	r0, r0
  70 0022 FBE7     		b	.L2
  71              	.L6:
  72              		.align	2
  73              	.L5:
  74 0024 00000000 		.word	rlist
  75              		.cfi_endproc
  76              	.LFE7:
  77              		.size	qwait, .-qwait
  78 0028 C046C046 		.section	.text.chIQInit,"ax",%progbits
  78      C046C046 
  79              		.align	2
  80              		.p2align 4,,15
  81              		.global	chIQInit
  82              		.code	16
  83              		.thumb_func
  84              		.type	chIQInit, %function
  85              	chIQInit:
  86              	.LFB8:
  87              		.loc 1 96 0
  88              		.cfi_startproc
  89              	.LVL6:
  90 0000 10B5     		push	{r4, lr}
  91              		.cfi_def_cfa_offset 8
  92              		.cfi_offset 4, -8
  93              		.cfi_offset 14, -4
  94              		.loc 1 102 0
  95 0002 C361     		str	r3, [r0, #28]
  96              		.loc 1 103 0
  97 0004 029B     		ldr	r3, [sp, #8]
  98              	.LVL7:
  99              		.loc 1 99 0
 100 0006 0024     		mov	r4, #0
 101              		.loc 1 100 0
 102 0008 4161     		str	r1, [r0, #20]
 103 000a 8161     		str	r1, [r0, #24]
 104 000c C160     		str	r1, [r0, #12]
 105              		.loc 1 101 0
 106 000e 8918     		add	r1, r1, r2
 107              	.LVL8:
 108              		.loc 1 98 0
 109 0010 4060     		str	r0, [r0, #4]
 110 0012 0060     		str	r0, [r0]
 111              		.loc 1 99 0
 112 0014 8460     		str	r4, [r0, #8]
 113              		.loc 1 101 0
ARM GAS  /tmp/cc4aEB7N.s 			page 3


 114 0016 0161     		str	r1, [r0, #16]
 115              		.loc 1 103 0
 116 0018 0362     		str	r3, [r0, #32]
 117              		.loc 1 104 0
 118              		@ sp needed
 119 001a 10BD     		pop	{r4, pc}
 120              		.cfi_endproc
 121              	.LFE8:
 122              		.size	chIQInit, .-chIQInit
 123 001c C046C046 		.section	.text.chIQResetI,"ax",%progbits
 124              		.align	2
 125              		.p2align 4,,15
 126              		.global	chIQResetI
 127              		.code	16
 128              		.thumb_func
 129              		.type	chIQResetI, %function
 130              	chIQResetI:
 131              	.LFB9:
 132              		.loc 1 117 0
 133              		.cfi_startproc
 134              	.LVL9:
 135 0000 38B5     		push	{r3, r4, r5, lr}
 136              		.cfi_def_cfa_offset 16
 137              		.cfi_offset 3, -16
 138              		.cfi_offset 4, -12
 139              		.cfi_offset 5, -8
 140              		.cfi_offset 14, -4
 141              		.loc 1 121 0
 142 0002 C368     		ldr	r3, [r0, #12]
 143              		.loc 1 117 0
 144 0004 041C     		mov	r4, r0
 145              		.loc 1 121 0
 146 0006 4361     		str	r3, [r0, #20]
 147 0008 8361     		str	r3, [r0, #24]
 148              		.loc 1 122 0
 149 000a 0023     		mov	r3, #0
 150 000c 8360     		str	r3, [r0, #8]
 151              		.loc 1 123 0
 152 000e 0068     		ldr	r0, [r0]
 153              	.LVL10:
 154 0010 A042     		cmp	r0, r4
 155 0012 0AD0     		beq	.L8
 156              		.loc 1 124 0
 157 0014 0225     		mov	r5, #2
 158 0016 6D42     		neg	r5, r5
 159              	.L12:
 160              	.LVL11:
 161              	.LBB14:
 162              	.LBB15:
 163              		.loc 2 62 0
 164 0018 0368     		ldr	r3, [r0]
 165 001a 2360     		str	r3, [r4]
 166 001c 5C60     		str	r4, [r3, #4]
 167              	.LBE15:
 168              	.LBE14:
 169              		.loc 1 124 0
 170 001e FFF7FEFF 		bl	chSchReadyI
ARM GAS  /tmp/cc4aEB7N.s 			page 4


 171              	.LVL12:
 172 0022 4562     		str	r5, [r0, #36]
 173              		.loc 1 123 0
 174 0024 2068     		ldr	r0, [r4]
 175 0026 A042     		cmp	r0, r4
 176 0028 F6D1     		bne	.L12
 177              	.LVL13:
 178              	.L8:
 179              		.loc 1 125 0
 180              		@ sp needed
 181              	.LVL14:
 182 002a 38BD     		pop	{r3, r4, r5, pc}
 183              		.cfi_endproc
 184              	.LFE9:
 185              		.size	chIQResetI, .-chIQResetI
 186 002c C046C046 		.section	.text.chIQPutI,"ax",%progbits
 187              		.align	2
 188              		.p2align 4,,15
 189              		.global	chIQPutI
 190              		.code	16
 191              		.thumb_func
 192              		.type	chIQPutI, %function
 193              	chIQPutI:
 194              	.LFB10:
 195              		.loc 1 140 0
 196              		.cfi_startproc
 197              	.LVL15:
 198 0000 08B5     		push	{r3, lr}
 199              		.cfi_def_cfa_offset 8
 200              		.cfi_offset 3, -8
 201              		.cfi_offset 14, -4
 202              		.loc 1 144 0
 203 0002 8269     		ldr	r2, [r0, #24]
 204 0004 4369     		ldr	r3, [r0, #20]
 205 0006 9342     		cmp	r3, r2
 206 0008 1DD0     		beq	.L22
 207 000a 8268     		ldr	r2, [r0, #8]
 208              	.L16:
 209              		.loc 1 147 0
 210 000c 0132     		add	r2, r2, #1
 211 000e 8260     		str	r2, [r0, #8]
 212              		.loc 1 148 0
 213 0010 5A1C     		add	r2, r3, #1
 214 0012 4261     		str	r2, [r0, #20]
 215 0014 1970     		strb	r1, [r3]
 216              		.loc 1 149 0
 217 0016 4269     		ldr	r2, [r0, #20]
 218 0018 0369     		ldr	r3, [r0, #16]
 219 001a 9A42     		cmp	r2, r3
 220 001c 0CD2     		bcs	.L17
 221              		.loc 1 152 0
 222 001e 0368     		ldr	r3, [r0]
 223 0020 8342     		cmp	r3, r0
 224 0022 0ED0     		beq	.L20
 225              	.L23:
 226              	.LVL16:
 227              	.LBB16:
ARM GAS  /tmp/cc4aEB7N.s 			page 5


 228              	.LBB17:
 229              		.loc 2 62 0
 230 0024 1A68     		ldr	r2, [r3]
 231 0026 0260     		str	r2, [r0]
 232 0028 5060     		str	r0, [r2, #4]
 233              	.LBE17:
 234              	.LBE16:
 235              		.loc 1 153 0
 236 002a 181C     		mov	r0, r3
 237              	.LVL17:
 238 002c FFF7FEFF 		bl	chSchReadyI
 239              	.LVL18:
 240 0030 0023     		mov	r3, #0
 241 0032 4362     		str	r3, [r0, #36]
 242              		.loc 1 155 0
 243 0034 0020     		mov	r0, #0
 244              	.LVL19:
 245              	.L21:
 246              		.loc 1 156 0
 247              		@ sp needed
 248 0036 08BD     		pop	{r3, pc}
 249              	.LVL20:
 250              	.L17:
 251              		.loc 1 150 0
 252 0038 C368     		ldr	r3, [r0, #12]
 253 003a 4361     		str	r3, [r0, #20]
 254              		.loc 1 152 0
 255 003c 0368     		ldr	r3, [r0]
 256 003e 8342     		cmp	r3, r0
 257 0040 F0D1     		bne	.L23
 258              	.L20:
 259              		.loc 1 155 0
 260 0042 0020     		mov	r0, #0
 261              	.LVL21:
 262 0044 F7E7     		b	.L21
 263              	.LVL22:
 264              	.L22:
 265              		.loc 1 144 0 discriminator 1
 266 0046 8268     		ldr	r2, [r0, #8]
 267 0048 002A     		cmp	r2, #0
 268 004a DFD0     		beq	.L16
 269              		.loc 1 145 0
 270 004c 0420     		mov	r0, #4
 271              	.LVL23:
 272 004e 4042     		neg	r0, r0
 273 0050 F1E7     		b	.L21
 274              		.cfi_endproc
 275              	.LFE10:
 276              		.size	chIQPutI, .-chIQPutI
 277 0052 C046C046 		.section	.text.chIQGetTimeout,"ax",%progbits
 277      C046C046 
 277      C046C046 
 277      C046
 278              		.align	2
 279              		.p2align 4,,15
 280              		.global	chIQGetTimeout
 281              		.code	16
ARM GAS  /tmp/cc4aEB7N.s 			page 6


 282              		.thumb_func
 283              		.type	chIQGetTimeout, %function
 284              	chIQGetTimeout:
 285              	.LFB11:
 286              		.loc 1 178 0
 287              		.cfi_startproc
 288              	.LVL24:
 289 0000 38B5     		push	{r3, r4, r5, lr}
 290              		.cfi_def_cfa_offset 16
 291              		.cfi_offset 3, -16
 292              		.cfi_offset 4, -12
 293              		.cfi_offset 5, -8
 294              		.cfi_offset 14, -4
 295              		.loc 1 178 0
 296 0002 041C     		mov	r4, r0
 297 0004 0D1C     		mov	r5, r1
 298              		.loc 1 181 0
 299              	@ 181 "../../os/kernel/src/chqueues.c" 1
 300 0006 72B6     		cpsid   i
 301              	@ 0 "" 2
 302              		.loc 1 182 0
 303              		.code	16
 304 0008 C369     		ldr	r3, [r0, #28]
 305 000a 002B     		cmp	r3, #0
 306 000c 07D0     		beq	.L27
 307              		.loc 1 183 0
 308 000e 9847     		blx	r3
 309              	.LVL25:
 310 0010 05E0     		b	.L27
 311              	.L29:
 312              	.LBB18:
 313              		.loc 1 187 0
 314 0012 201C     		mov	r0, r4
 315 0014 291C     		mov	r1, r5
 316 0016 FFF7FEFF 		bl	qwait
 317              	.LVL26:
 318 001a 0028     		cmp	r0, #0
 319 001c 0DDB     		blt	.L30
 320              	.LVL27:
 321              	.L27:
 322              	.LBE18:
 323              		.loc 1 185 0 discriminator 1
 324 001e A368     		ldr	r3, [r4, #8]
 325 0020 002B     		cmp	r3, #0
 326 0022 F6D0     		beq	.L29
 327              		.loc 1 194 0
 328 0024 A269     		ldr	r2, [r4, #24]
 329              		.loc 1 193 0
 330 0026 013B     		sub	r3, r3, #1
 331 0028 A360     		str	r3, [r4, #8]
 332              		.loc 1 194 0
 333 002a 531C     		add	r3, r2, #1
 334 002c A361     		str	r3, [r4, #24]
 335 002e 1078     		ldrb	r0, [r2]
 336              	.LVL28:
 337              		.loc 1 195 0
 338 0030 2269     		ldr	r2, [r4, #16]
ARM GAS  /tmp/cc4aEB7N.s 			page 7


 339              	.LVL29:
 340 0032 9342     		cmp	r3, r2
 341 0034 01D3     		bcc	.L30
 342              		.loc 1 196 0
 343 0036 E368     		ldr	r3, [r4, #12]
 344              	.LVL30:
 345 0038 A361     		str	r3, [r4, #24]
 346              	.LVL31:
 347              	.L30:
 348              		.loc 1 198 0
 349              	@ 198 "../../os/kernel/src/chqueues.c" 1
 350 003a 62B6     		cpsie   i
 351              	@ 0 "" 2
 352              		.loc 1 200 0
 353              		.code	16
 354              		@ sp needed
 355              	.LVL32:
 356              	.LVL33:
 357 003c 38BD     		pop	{r3, r4, r5, pc}
 358              		.cfi_endproc
 359              	.LFE11:
 360              		.size	chIQGetTimeout, .-chIQGetTimeout
 361 003e C046     		.section	.text.chIQReadTimeout,"ax",%progbits
 362              		.align	2
 363              		.p2align 4,,15
 364              		.global	chIQReadTimeout
 365              		.code	16
 366              		.thumb_func
 367              		.type	chIQReadTimeout, %function
 368              	chIQReadTimeout:
 369              	.LFB12:
 370              		.loc 1 227 0
 371              		.cfi_startproc
 372              	.LVL34:
 373 0000 F0B5     		push	{r4, r5, r6, r7, lr}
 374              		.cfi_def_cfa_offset 20
 375              		.cfi_offset 4, -20
 376              		.cfi_offset 5, -16
 377              		.cfi_offset 6, -12
 378              		.cfi_offset 7, -8
 379              		.cfi_offset 14, -4
 380 0002 4E46     		mov	r6, r9
 381 0004 9146     		mov	r9, r2
 382              		.loc 1 228 0
 383 0006 C269     		ldr	r2, [r0, #28]
 384              	.LVL35:
 385              		.loc 1 227 0
 386 0008 5746     		mov	r7, r10
 387 000a 4546     		mov	r5, r8
 388 000c E0B4     		push	{r5, r6, r7}
 389              		.cfi_def_cfa_offset 32
 390              		.cfi_offset 8, -32
 391              		.cfi_offset 9, -28
 392              		.cfi_offset 10, -24
 393              		.loc 1 227 0
 394 000e 041C     		mov	r4, r0
 395 0010 8A46     		mov	r10, r1
ARM GAS  /tmp/cc4aEB7N.s 			page 8


 396 0012 1E1C     		mov	r6, r3
 397              		.loc 1 228 0
 398 0014 9046     		mov	r8, r2
 399              	.LVL36:
 400              		.loc 1 233 0
 401              	@ 233 "../../os/kernel/src/chqueues.c" 1
 402 0016 72B6     		cpsid   i
 403              	@ 0 "" 2
 404              		.loc 1 229 0
 405              		.code	16
 406 0018 0027     		mov	r7, #0
 407              	.LVL37:
 408              	.L41:
 409              		.loc 1 235 0
 410 001a 4346     		mov	r3, r8
 411 001c 002B     		cmp	r3, #0
 412 001e 08D0     		beq	.L37
 413              	.LVL38:
 414              		.loc 1 236 0
 415 0020 201C     		mov	r0, r4
 416 0022 C047     		blx	r8
 417              	.LVL39:
 418 0024 05E0     		b	.L37
 419              	.L39:
 420              		.loc 1 239 0
 421 0026 201C     		mov	r0, r4
 422 0028 311C     		mov	r1, r6
 423 002a FFF7FEFF 		bl	qwait
 424              	.LVL40:
 425 002e 0028     		cmp	r0, #0
 426 0030 16D1     		bne	.L45
 427              	.L37:
 428              		.loc 1 238 0 discriminator 1
 429 0032 A568     		ldr	r5, [r4, #8]
 430 0034 002D     		cmp	r5, #0
 431 0036 F6D0     		beq	.L39
 432              		.loc 1 246 0
 433 0038 A369     		ldr	r3, [r4, #24]
 434              		.loc 1 245 0
 435 003a 013D     		sub	r5, r5, #1
 436              		.loc 1 246 0
 437 003c 5A1C     		add	r2, r3, #1
 438 003e A261     		str	r2, [r4, #24]
 439              		.loc 1 245 0
 440 0040 A560     		str	r5, [r4, #8]
 441              	.LVL41:
 442              		.loc 1 246 0
 443 0042 1B78     		ldrb	r3, [r3]
 444 0044 5246     		mov	r2, r10
 445 0046 D355     		strb	r3, [r2, r7]
 446              		.loc 1 247 0
 447 0048 A369     		ldr	r3, [r4, #24]
 448 004a 2269     		ldr	r2, [r4, #16]
 449 004c 9342     		cmp	r3, r2
 450 004e 01D3     		bcc	.L40
 451              		.loc 1 248 0
 452 0050 E368     		ldr	r3, [r4, #12]
ARM GAS  /tmp/cc4aEB7N.s 			page 9


 453 0052 A361     		str	r3, [r4, #24]
 454              	.L40:
 455              		.loc 1 250 0
 456              	@ 250 "../../os/kernel/src/chqueues.c" 1
 457 0054 62B6     		cpsie   i
 458              	@ 0 "" 2
 459              		.loc 1 251 0
 460              		.code	16
 461 0056 0137     		add	r7, r7, #1
 462              	.LVL42:
 463              		.loc 1 252 0
 464 0058 B945     		cmp	r9, r7
 465 005a 02D0     		beq	.L38
 466              		.loc 1 255 0
 467              	@ 255 "../../os/kernel/src/chqueues.c" 1
 468 005c 72B6     		cpsid   i
 469              	@ 0 "" 2
 470              		.loc 1 256 0
 471              		.code	16
 472 005e DCE7     		b	.L41
 473              	.L45:
 474              		.loc 1 240 0
 475              	@ 240 "../../os/kernel/src/chqueues.c" 1
 476 0060 62B6     		cpsie   i
 477              	@ 0 "" 2
 478              	.LVL43:
 479              		.code	16
 480              	.L38:
 481              		.loc 1 257 0
 482 0062 381C     		mov	r0, r7
 483              		@ sp needed
 484              	.LVL44:
 485              	.LVL45:
 486              	.LVL46:
 487              	.LVL47:
 488 0064 1CBC     		pop	{r2, r3, r4}
 489 0066 9046     		mov	r8, r2
 490 0068 9946     		mov	r9, r3
 491 006a A246     		mov	r10, r4
 492 006c F0BD     		pop	{r4, r5, r6, r7, pc}
 493              		.cfi_endproc
 494              	.LFE12:
 495              		.size	chIQReadTimeout, .-chIQReadTimeout
 496 006e C046     		.section	.text.chOQInit,"ax",%progbits
 497              		.align	2
 498              		.p2align 4,,15
 499              		.global	chOQInit
 500              		.code	16
 501              		.thumb_func
 502              		.type	chOQInit, %function
 503              	chOQInit:
 504              	.LFB13:
 505              		.loc 1 276 0
 506              		.cfi_startproc
 507              	.LVL48:
 508              		.loc 1 282 0
 509 0000 C361     		str	r3, [r0, #28]
ARM GAS  /tmp/cc4aEB7N.s 			page 10


 510              		.loc 1 283 0
 511 0002 009B     		ldr	r3, [sp]
 512              	.LVL49:
 513              		.loc 1 280 0
 514 0004 4161     		str	r1, [r0, #20]
 515 0006 8161     		str	r1, [r0, #24]
 516 0008 C160     		str	r1, [r0, #12]
 517              		.loc 1 281 0
 518 000a 8918     		add	r1, r1, r2
 519              	.LVL50:
 520              		.loc 1 278 0
 521 000c 4060     		str	r0, [r0, #4]
 522 000e 0060     		str	r0, [r0]
 523              		.loc 1 279 0
 524 0010 8260     		str	r2, [r0, #8]
 525              		.loc 1 281 0
 526 0012 0161     		str	r1, [r0, #16]
 527              		.loc 1 283 0
 528 0014 0362     		str	r3, [r0, #32]
 529              		.loc 1 284 0
 530              		@ sp needed
 531 0016 7047     		bx	lr
 532              		.cfi_endproc
 533              	.LFE13:
 534              		.size	chOQInit, .-chOQInit
 535 0018 C046C046 		.section	.text.chOQResetI,"ax",%progbits
 535      C046C046 
 536              		.align	2
 537              		.p2align 4,,15
 538              		.global	chOQResetI
 539              		.code	16
 540              		.thumb_func
 541              		.type	chOQResetI, %function
 542              	chOQResetI:
 543              	.LFB14:
 544              		.loc 1 297 0
 545              		.cfi_startproc
 546              	.LVL51:
 547 0000 38B5     		push	{r3, r4, r5, lr}
 548              		.cfi_def_cfa_offset 16
 549              		.cfi_offset 3, -16
 550              		.cfi_offset 4, -12
 551              		.cfi_offset 5, -8
 552              		.cfi_offset 14, -4
 553              		.loc 1 302 0
 554 0002 0269     		ldr	r2, [r0, #16]
 555              		.loc 1 301 0
 556 0004 C368     		ldr	r3, [r0, #12]
 557              		.loc 1 297 0
 558 0006 041C     		mov	r4, r0
 559              		.loc 1 301 0
 560 0008 4361     		str	r3, [r0, #20]
 561 000a 8361     		str	r3, [r0, #24]
 562              		.loc 1 302 0
 563 000c D31A     		sub	r3, r2, r3
 564 000e 8360     		str	r3, [r0, #8]
 565              		.loc 1 303 0
ARM GAS  /tmp/cc4aEB7N.s 			page 11


 566 0010 0068     		ldr	r0, [r0]
 567              	.LVL52:
 568 0012 A042     		cmp	r0, r4
 569 0014 0AD0     		beq	.L47
 570              		.loc 1 304 0
 571 0016 0225     		mov	r5, #2
 572 0018 6D42     		neg	r5, r5
 573              	.L51:
 574              	.LVL53:
 575              	.LBB19:
 576              	.LBB20:
 577              		.loc 2 62 0
 578 001a 0368     		ldr	r3, [r0]
 579 001c 2360     		str	r3, [r4]
 580 001e 5C60     		str	r4, [r3, #4]
 581              	.LBE20:
 582              	.LBE19:
 583              		.loc 1 304 0
 584 0020 FFF7FEFF 		bl	chSchReadyI
 585              	.LVL54:
 586 0024 4562     		str	r5, [r0, #36]
 587              		.loc 1 303 0
 588 0026 2068     		ldr	r0, [r4]
 589 0028 A042     		cmp	r0, r4
 590 002a F6D1     		bne	.L51
 591              	.LVL55:
 592              	.L47:
 593              		.loc 1 305 0
 594              		@ sp needed
 595              	.LVL56:
 596 002c 38BD     		pop	{r3, r4, r5, pc}
 597              		.cfi_endproc
 598              	.LFE14:
 599              		.size	chOQResetI, .-chOQResetI
 600 002e C046     		.section	.text.chOQPutTimeout,"ax",%progbits
 601              		.align	2
 602              		.p2align 4,,15
 603              		.global	chOQPutTimeout
 604              		.code	16
 605              		.thumb_func
 606              		.type	chOQPutTimeout, %function
 607              	chOQPutTimeout:
 608              	.LFB15:
 609              		.loc 1 329 0
 610              		.cfi_startproc
 611              	.LVL57:
 612 0000 70B5     		push	{r4, r5, r6, lr}
 613              		.cfi_def_cfa_offset 16
 614              		.cfi_offset 4, -16
 615              		.cfi_offset 5, -12
 616              		.cfi_offset 6, -8
 617              		.cfi_offset 14, -4
 618              		.loc 1 329 0
 619 0002 041C     		mov	r4, r0
 620 0004 0E1C     		mov	r6, r1
 621 0006 151C     		mov	r5, r2
 622              		.loc 1 331 0
ARM GAS  /tmp/cc4aEB7N.s 			page 12


 623              	@ 331 "../../os/kernel/src/chqueues.c" 1
 624 0008 72B6     		cpsid   i
 625              	@ 0 "" 2
 626              		.loc 1 332 0
 627              		.code	16
 628 000a 05E0     		b	.L53
 629              	.LVL58:
 630              	.L56:
 631              	.LBB21:
 632              		.loc 1 335 0
 633 000c 201C     		mov	r0, r4
 634 000e 291C     		mov	r1, r5
 635 0010 FFF7FEFF 		bl	qwait
 636              	.LVL59:
 637 0014 0028     		cmp	r0, #0
 638 0016 16DB     		blt	.L62
 639              	.LVL60:
 640              	.L53:
 641              	.LBE21:
 642              		.loc 1 332 0 discriminator 1
 643 0018 A368     		ldr	r3, [r4, #8]
 644 001a 002B     		cmp	r3, #0
 645 001c F6D0     		beq	.L56
 646              		.loc 1 341 0
 647 001e 013B     		sub	r3, r3, #1
 648 0020 A360     		str	r3, [r4, #8]
 649              		.loc 1 342 0
 650 0022 6369     		ldr	r3, [r4, #20]
 651 0024 5A1C     		add	r2, r3, #1
 652 0026 6261     		str	r2, [r4, #20]
 653 0028 1E70     		strb	r6, [r3]
 654              		.loc 1 343 0
 655 002a 6269     		ldr	r2, [r4, #20]
 656 002c 2369     		ldr	r3, [r4, #16]
 657 002e 9A42     		cmp	r2, r3
 658 0030 01D3     		bcc	.L57
 659              		.loc 1 344 0
 660 0032 E268     		ldr	r2, [r4, #12]
 661 0034 6261     		str	r2, [r4, #20]
 662              	.L57:
 663              		.loc 1 346 0
 664 0036 E369     		ldr	r3, [r4, #28]
 665 0038 002B     		cmp	r3, #0
 666 003a 01D0     		beq	.L58
 667              		.loc 1 347 0
 668 003c 201C     		mov	r0, r4
 669 003e 9847     		blx	r3
 670              	.LVL61:
 671              	.L58:
 672              		.loc 1 349 0
 673              	@ 349 "../../os/kernel/src/chqueues.c" 1
 674 0040 62B6     		cpsie   i
 675              	@ 0 "" 2
 676              		.loc 1 350 0
 677              		.code	16
 678 0042 0020     		mov	r0, #0
 679              	.L55:
ARM GAS  /tmp/cc4aEB7N.s 			page 13


 680              		.loc 1 351 0
 681              		@ sp needed
 682              	.LVL62:
 683              	.LVL63:
 684 0044 70BD     		pop	{r4, r5, r6, pc}
 685              	.LVL64:
 686              	.L62:
 687              	.LBB22:
 688              		.loc 1 336 0
 689              	@ 336 "../../os/kernel/src/chqueues.c" 1
 690 0046 62B6     		cpsie   i
 691              	@ 0 "" 2
 692              		.loc 1 337 0
 693              		.code	16
 694 0048 FCE7     		b	.L55
 695              	.LBE22:
 696              		.cfi_endproc
 697              	.LFE15:
 698              		.size	chOQPutTimeout, .-chOQPutTimeout
 699 004a C046C046 		.section	.text.chOQGetI,"ax",%progbits
 699      C046
 700              		.align	2
 701              		.p2align 4,,15
 702              		.global	chOQGetI
 703              		.code	16
 704              		.thumb_func
 705              		.type	chOQGetI, %function
 706              	chOQGetI:
 707              	.LFB16:
 708              		.loc 1 363 0
 709              		.cfi_startproc
 710              	.LVL65:
 711              		.loc 1 368 0
 712 0000 8369     		ldr	r3, [r0, #24]
 713 0002 4269     		ldr	r2, [r0, #20]
 714              		.loc 1 363 0
 715 0004 10B5     		push	{r4, lr}
 716              		.cfi_def_cfa_offset 8
 717              		.cfi_offset 4, -8
 718              		.cfi_offset 14, -4
 719              		.loc 1 368 0
 720 0006 9A42     		cmp	r2, r3
 721 0008 18D0     		beq	.L72
 722 000a 8268     		ldr	r2, [r0, #8]
 723              	.L66:
 724              		.loc 1 371 0
 725 000c 0132     		add	r2, r2, #1
 726 000e 8260     		str	r2, [r0, #8]
 727              		.loc 1 372 0
 728 0010 5A1C     		add	r2, r3, #1
 729 0012 8261     		str	r2, [r0, #24]
 730 0014 1C78     		ldrb	r4, [r3]
 731              	.LVL66:
 732              		.loc 1 373 0
 733 0016 0369     		ldr	r3, [r0, #16]
 734              	.LVL67:
 735 0018 9A42     		cmp	r2, r3
ARM GAS  /tmp/cc4aEB7N.s 			page 14


 736 001a 0CD2     		bcs	.L68
 737              	.LVL68:
 738              	.L69:
 739              		.loc 1 376 0
 740 001c 0368     		ldr	r3, [r0]
 741 001e 8342     		cmp	r3, r0
 742 0020 07D0     		beq	.L67
 743              	.LVL69:
 744              	.LBB23:
 745              	.LBB24:
 746              		.loc 2 62 0
 747 0022 1A68     		ldr	r2, [r3]
 748 0024 0260     		str	r2, [r0]
 749 0026 5060     		str	r0, [r2, #4]
 750              	.LBE24:
 751              	.LBE23:
 752              		.loc 1 377 0
 753 0028 181C     		mov	r0, r3
 754              	.LVL70:
 755 002a FFF7FEFF 		bl	chSchReadyI
 756              	.LVL71:
 757 002e 0023     		mov	r3, #0
 758 0030 4362     		str	r3, [r0, #36]
 759              	.LVL72:
 760              	.L67:
 761              		.loc 1 379 0
 762 0032 201C     		mov	r0, r4
 763              	.LVL73:
 764              	.L71:
 765              		.loc 1 380 0
 766              		@ sp needed
 767 0034 10BD     		pop	{r4, pc}
 768              	.LVL74:
 769              	.L68:
 770              		.loc 1 374 0
 771 0036 C368     		ldr	r3, [r0, #12]
 772 0038 8361     		str	r3, [r0, #24]
 773              	.LVL75:
 774 003a EFE7     		b	.L69
 775              	.LVL76:
 776              	.L72:
 777              		.loc 1 368 0 discriminator 1
 778 003c 8268     		ldr	r2, [r0, #8]
 779 003e 002A     		cmp	r2, #0
 780 0040 E4D0     		beq	.L66
 781              		.loc 1 369 0
 782 0042 0320     		mov	r0, #3
 783              	.LVL77:
 784 0044 4042     		neg	r0, r0
 785 0046 F5E7     		b	.L71
 786              		.cfi_endproc
 787              	.LFE16:
 788              		.size	chOQGetI, .-chOQGetI
 789 0048 C046C046 		.section	.text.chOQWriteTimeout,"ax",%progbits
 789      C046C046 
 790              		.align	2
 791              		.p2align 4,,15
ARM GAS  /tmp/cc4aEB7N.s 			page 15


 792              		.global	chOQWriteTimeout
 793              		.code	16
 794              		.thumb_func
 795              		.type	chOQWriteTimeout, %function
 796              	chOQWriteTimeout:
 797              	.LFB17:
 798              		.loc 1 407 0
 799              		.cfi_startproc
 800              	.LVL78:
 801 0000 F0B5     		push	{r4, r5, r6, r7, lr}
 802              		.cfi_def_cfa_offset 20
 803              		.cfi_offset 4, -20
 804              		.cfi_offset 5, -16
 805              		.cfi_offset 6, -12
 806              		.cfi_offset 7, -8
 807              		.cfi_offset 14, -4
 808 0002 5746     		mov	r7, r10
 809 0004 4E46     		mov	r6, r9
 810 0006 4546     		mov	r5, r8
 811 0008 E0B4     		push	{r5, r6, r7}
 812              		.cfi_def_cfa_offset 32
 813              		.cfi_offset 8, -32
 814              		.cfi_offset 9, -28
 815              		.cfi_offset 10, -24
 816              		.loc 1 407 0
 817 000a 161C     		mov	r6, r2
 818              		.loc 1 408 0
 819 000c C269     		ldr	r2, [r0, #28]
 820              	.LVL79:
 821              		.loc 1 407 0
 822 000e 041C     		mov	r4, r0
 823 0010 0F1C     		mov	r7, r1
 824 0012 9A46     		mov	r10, r3
 825              		.loc 1 408 0
 826 0014 9146     		mov	r9, r2
 827              	.LVL80:
 828              		.loc 1 413 0
 829              	@ 413 "../../os/kernel/src/chqueues.c" 1
 830 0016 72B6     		cpsid   i
 831              	@ 0 "" 2
 832              		.loc 1 409 0
 833              		.code	16
 834 0018 0023     		mov	r3, #0
 835              	.LVL81:
 836 001a 9846     		mov	r8, r3
 837              	.LVL82:
 838              	.L74:
 839              		.loc 1 415 0 discriminator 1
 840 001c A568     		ldr	r5, [r4, #8]
 841 001e 002D     		cmp	r5, #0
 842 0020 1DD0     		beq	.L77
 843              	.L89:
 844              		.loc 1 422 0
 845 0022 6269     		ldr	r2, [r4, #20]
 846              		.loc 1 421 0
 847 0024 013D     		sub	r5, r5, #1
 848              		.loc 1 422 0
ARM GAS  /tmp/cc4aEB7N.s 			page 16


 849 0026 531C     		add	r3, r2, #1
 850              		.loc 1 421 0
 851 0028 A560     		str	r5, [r4, #8]
 852              		.loc 1 422 0
 853 002a 6361     		str	r3, [r4, #20]
 854 002c 3B78     		ldrb	r3, [r7]
 855 002e 7D1C     		add	r5, r7, #1
 856              	.LVL83:
 857 0030 1370     		strb	r3, [r2]
 858              		.loc 1 423 0
 859 0032 6269     		ldr	r2, [r4, #20]
 860 0034 2369     		ldr	r3, [r4, #16]
 861 0036 9A42     		cmp	r2, r3
 862 0038 01D3     		bcc	.L78
 863              		.loc 1 424 0
 864 003a E268     		ldr	r2, [r4, #12]
 865 003c 6261     		str	r2, [r4, #20]
 866              	.L78:
 867              		.loc 1 426 0
 868 003e 4B46     		mov	r3, r9
 869 0040 002B     		cmp	r3, #0
 870 0042 01D0     		beq	.L79
 871              	.LVL84:
 872              		.loc 1 427 0
 873 0044 201C     		mov	r0, r4
 874 0046 C847     		blx	r9
 875              	.LVL85:
 876              	.L79:
 877              		.loc 1 429 0
 878              	@ 429 "../../os/kernel/src/chqueues.c" 1
 879 0048 62B6     		cpsie   i
 880              	@ 0 "" 2
 881              		.loc 1 430 0
 882              		.code	16
 883 004a 0122     		mov	r2, #1
 884              		.loc 1 431 0
 885 004c 013E     		sub	r6, r6, #1
 886              	.LVL86:
 887              		.loc 1 430 0
 888 004e 9044     		add	r8, r8, r2
 889              	.LVL87:
 890              		.loc 1 431 0
 891 0050 002E     		cmp	r6, #0
 892 0052 0BD0     		beq	.L76
 893              		.loc 1 433 0
 894              	@ 433 "../../os/kernel/src/chqueues.c" 1
 895 0054 72B6     		cpsid   i
 896              	@ 0 "" 2
 897              		.loc 1 422 0
 898              		.code	16
 899 0056 2F1C     		mov	r7, r5
 900              	.LVL88:
 901              		.loc 1 415 0
 902 0058 A568     		ldr	r5, [r4, #8]
 903 005a 002D     		cmp	r5, #0
 904 005c E1D1     		bne	.L89
 905              	.L77:
ARM GAS  /tmp/cc4aEB7N.s 			page 17


 906              		.loc 1 416 0
 907 005e 201C     		mov	r0, r4
 908 0060 5146     		mov	r1, r10
 909 0062 FFF7FEFF 		bl	qwait
 910              	.LVL89:
 911 0066 0028     		cmp	r0, #0
 912 0068 D8D0     		beq	.L74
 913              		.loc 1 417 0
 914              	@ 417 "../../os/kernel/src/chqueues.c" 1
 915 006a 62B6     		cpsie   i
 916              	@ 0 "" 2
 917              	.LVL90:
 918              		.code	16
 919              	.L76:
 920              		.loc 1 435 0
 921 006c 4046     		mov	r0, r8
 922              		@ sp needed
 923              	.LVL91:
 924              	.LVL92:
 925              	.LVL93:
 926              	.LVL94:
 927              	.LVL95:
 928 006e 1CBC     		pop	{r2, r3, r4}
 929 0070 9046     		mov	r8, r2
 930 0072 9946     		mov	r9, r3
 931 0074 A246     		mov	r10, r4
 932 0076 F0BD     		pop	{r4, r5, r6, r7, pc}
 933              		.cfi_endproc
 934              	.LFE17:
 935              		.size	chOQWriteTimeout, .-chOQWriteTimeout
 936 0078 C046C046 		.text
 936      C046C046 
 937              	.Letext0:
 938              		.file 3 "/usr/lib/gcc/arm-none-eabi/4.8.2/include/stddef.h"
 939              		.file 4 "/usr/arm-none-eabi/include/machine/_default_types.h"
 940              		.file 5 "/usr/arm-none-eabi/include/stdint.h"
 941              		.file 6 "../../os/ports/GCC/ARMCMx/chtypes.h"
 942              		.file 7 "../../os/kernel/include/chlists.h"
 943              		.file 8 "../../os/kernel/include/chthreads.h"
 944              		.file 9 "../../os/ports/GCC/ARMCMx/chcore_v6m.h"
 945              		.file 10 "../../os/kernel/include/chschd.h"
 946              		.file 11 "../../os/kernel/include/chmtx.h"
 947              		.file 12 "../../os/kernel/include/chqueues.h"
 948              		.section	.debug_info,"",%progbits
 949              	.Ldebug_info0:
 950 0000 6F0A0000 		.4byte	0xa6f
 951 0004 0400     		.2byte	0x4
 952 0006 00000000 		.4byte	.Ldebug_abbrev0
 953 000a 04       		.byte	0x4
 954 000b 01       		.uleb128 0x1
 955 000c 04010000 		.4byte	.LASF95
 956 0010 01       		.byte	0x1
 957 0011 2A020000 		.4byte	.LASF96
 958 0015 BE020000 		.4byte	.LASF97
 959 0019 18000000 		.4byte	.Ldebug_ranges0+0x18
 960 001d 00000000 		.4byte	0
 961 0021 00000000 		.4byte	.Ldebug_line0
ARM GAS  /tmp/cc4aEB7N.s 			page 18


 962 0025 02       		.uleb128 0x2
 963 0026 04       		.byte	0x4
 964 0027 05       		.byte	0x5
 965 0028 696E7400 		.ascii	"int\000"
 966 002c 03       		.uleb128 0x3
 967 002d 21000000 		.4byte	.LASF2
 968 0031 03       		.byte	0x3
 969 0032 D4       		.byte	0xd4
 970 0033 37000000 		.4byte	0x37
 971 0037 04       		.uleb128 0x4
 972 0038 04       		.byte	0x4
 973 0039 07       		.byte	0x7
 974 003a D2010000 		.4byte	.LASF0
 975 003e 04       		.uleb128 0x4
 976 003f 01       		.byte	0x1
 977 0040 06       		.byte	0x6
 978 0041 9D000000 		.4byte	.LASF1
 979 0045 03       		.uleb128 0x3
 980 0046 44000000 		.4byte	.LASF3
 981 004a 04       		.byte	0x4
 982 004b 1C       		.byte	0x1c
 983 004c 50000000 		.4byte	0x50
 984 0050 04       		.uleb128 0x4
 985 0051 01       		.byte	0x1
 986 0052 08       		.byte	0x8
 987 0053 66030000 		.4byte	.LASF4
 988 0057 04       		.uleb128 0x4
 989 0058 02       		.byte	0x2
 990 0059 05       		.byte	0x5
 991 005a 7E030000 		.4byte	.LASF5
 992 005e 04       		.uleb128 0x4
 993 005f 02       		.byte	0x2
 994 0060 07       		.byte	0x7
 995 0061 09020000 		.4byte	.LASF6
 996 0065 03       		.uleb128 0x3
 997 0066 1B040000 		.4byte	.LASF7
 998 006a 04       		.byte	0x4
 999 006b 37       		.byte	0x37
 1000 006c 70000000 		.4byte	0x70
 1001 0070 04       		.uleb128 0x4
 1002 0071 04       		.byte	0x4
 1003 0072 05       		.byte	0x5
 1004 0073 D0000000 		.4byte	.LASF8
 1005 0077 03       		.uleb128 0x3
 1006 0078 A1010000 		.4byte	.LASF9
 1007 007c 04       		.byte	0x4
 1008 007d 38       		.byte	0x38
 1009 007e 82000000 		.4byte	0x82
 1010 0082 04       		.uleb128 0x4
 1011 0083 04       		.byte	0x4
 1012 0084 07       		.byte	0x7
 1013 0085 EA010000 		.4byte	.LASF10
 1014 0089 04       		.uleb128 0x4
 1015 008a 08       		.byte	0x8
 1016 008b 05       		.byte	0x5
 1017 008c 8F000000 		.4byte	.LASF11
 1018 0090 04       		.uleb128 0x4
ARM GAS  /tmp/cc4aEB7N.s 			page 19


 1019 0091 08       		.byte	0x8
 1020 0092 07       		.byte	0x7
 1021 0093 5E000000 		.4byte	.LASF12
 1022 0097 03       		.uleb128 0x3
 1023 0098 74040000 		.4byte	.LASF13
 1024 009c 05       		.byte	0x5
 1025 009d 2A       		.byte	0x2a
 1026 009e 45000000 		.4byte	0x45
 1027 00a2 03       		.uleb128 0x3
 1028 00a3 5E030000 		.4byte	.LASF14
 1029 00a7 05       		.byte	0x5
 1030 00a8 41       		.byte	0x41
 1031 00a9 65000000 		.4byte	0x65
 1032 00ad 03       		.uleb128 0x3
 1033 00ae D1030000 		.4byte	.LASF15
 1034 00b2 05       		.byte	0x5
 1035 00b3 42       		.byte	0x42
 1036 00b4 77000000 		.4byte	0x77
 1037 00b8 03       		.uleb128 0x3
 1038 00b9 B1000000 		.4byte	.LASF16
 1039 00bd 06       		.byte	0x6
 1040 00be 2B       		.byte	0x2b
 1041 00bf C3000000 		.4byte	0xc3
 1042 00c3 04       		.uleb128 0x4
 1043 00c4 01       		.byte	0x1
 1044 00c5 02       		.byte	0x2
 1045 00c6 58030000 		.4byte	.LASF17
 1046 00ca 03       		.uleb128 0x3
 1047 00cb AF030000 		.4byte	.LASF18
 1048 00cf 06       		.byte	0x6
 1049 00d0 2C       		.byte	0x2c
 1050 00d1 97000000 		.4byte	0x97
 1051 00d5 03       		.uleb128 0x3
 1052 00d6 D9000000 		.4byte	.LASF19
 1053 00da 06       		.byte	0x6
 1054 00db 2D       		.byte	0x2d
 1055 00dc 97000000 		.4byte	0x97
 1056 00e0 03       		.uleb128 0x3
 1057 00e1 2F030000 		.4byte	.LASF20
 1058 00e5 06       		.byte	0x6
 1059 00e6 2E       		.byte	0x2e
 1060 00e7 97000000 		.4byte	0x97
 1061 00eb 03       		.uleb128 0x3
 1062 00ec C0000000 		.4byte	.LASF21
 1063 00f0 06       		.byte	0x6
 1064 00f1 2F       		.byte	0x2f
 1065 00f2 97000000 		.4byte	0x97
 1066 00f6 03       		.uleb128 0x3
 1067 00f7 48030000 		.4byte	.LASF22
 1068 00fb 06       		.byte	0x6
 1069 00fc 30       		.byte	0x30
 1070 00fd AD000000 		.4byte	0xad
 1071 0101 03       		.uleb128 0x3
 1072 0102 1C020000 		.4byte	.LASF23
 1073 0106 06       		.byte	0x6
 1074 0107 31       		.byte	0x31
 1075 0108 A2000000 		.4byte	0xa2
ARM GAS  /tmp/cc4aEB7N.s 			page 20


 1076 010c 03       		.uleb128 0x3
 1077 010d 55020000 		.4byte	.LASF24
 1078 0111 06       		.byte	0x6
 1079 0112 33       		.byte	0x33
 1080 0113 AD000000 		.4byte	0xad
 1081 0117 03       		.uleb128 0x3
 1082 0118 06040000 		.4byte	.LASF25
 1083 011c 06       		.byte	0x6
 1084 011d 35       		.byte	0x35
 1085 011e AD000000 		.4byte	0xad
 1086 0122 03       		.uleb128 0x3
 1087 0123 BF030000 		.4byte	.LASF26
 1088 0127 07       		.byte	0x7
 1089 0128 2A       		.byte	0x2a
 1090 0129 2D010000 		.4byte	0x12d
 1091 012d 05       		.uleb128 0x5
 1092 012e BF030000 		.4byte	.LASF26
 1093 0132 48       		.byte	0x48
 1094 0133 08       		.byte	0x8
 1095 0134 5E       		.byte	0x5e
 1096 0135 2A020000 		.4byte	0x22a
 1097 0139 06       		.uleb128 0x6
 1098 013a A8030000 		.4byte	.LASF27
 1099 013e 08       		.byte	0x8
 1100 013f 5F       		.byte	0x5f
 1101 0140 4B020000 		.4byte	0x24b
 1102 0144 00       		.byte	0
 1103 0145 06       		.uleb128 0x6
 1104 0146 41030000 		.4byte	.LASF28
 1105 014a 08       		.byte	0x8
 1106 014b 61       		.byte	0x61
 1107 014c 4B020000 		.4byte	0x24b
 1108 0150 04       		.byte	0x4
 1109 0151 06       		.uleb128 0x6
 1110 0152 7E000000 		.4byte	.LASF29
 1111 0156 08       		.byte	0x8
 1112 0157 63       		.byte	0x63
 1113 0158 F6000000 		.4byte	0xf6
 1114 015c 08       		.byte	0x8
 1115 015d 06       		.uleb128 0x6
 1116 015e AE040000 		.4byte	.LASF30
 1117 0162 08       		.byte	0x8
 1118 0163 64       		.byte	0x64
 1119 0164 FB020000 		.4byte	0x2fb
 1120 0168 0C       		.byte	0xc
 1121 0169 06       		.uleb128 0x6
 1122 016a FC000000 		.4byte	.LASF31
 1123 016e 08       		.byte	0x8
 1124 016f 66       		.byte	0x66
 1125 0170 4B020000 		.4byte	0x24b
 1126 0174 10       		.byte	0x10
 1127 0175 06       		.uleb128 0x6
 1128 0176 A3020000 		.4byte	.LASF32
 1129 017a 08       		.byte	0x8
 1130 017b 67       		.byte	0x67
 1131 017c 4B020000 		.4byte	0x24b
 1132 0180 14       		.byte	0x14
ARM GAS  /tmp/cc4aEB7N.s 			page 21


 1133 0181 06       		.uleb128 0x6
 1134 0182 83040000 		.4byte	.LASF33
 1135 0186 08       		.byte	0x8
 1136 0187 6E       		.byte	0x6e
 1137 0188 F9030000 		.4byte	0x3f9
 1138 018c 18       		.byte	0x18
 1139 018d 06       		.uleb128 0x6
 1140 018e 88030000 		.4byte	.LASF34
 1141 0192 08       		.byte	0x8
 1142 0193 79       		.byte	0x79
 1143 0194 D5000000 		.4byte	0xd5
 1144 0198 1C       		.byte	0x1c
 1145 0199 06       		.uleb128 0x6
 1146 019a B7030000 		.4byte	.LASF35
 1147 019e 08       		.byte	0x8
 1148 019f 7D       		.byte	0x7d
 1149 01a0 CA000000 		.4byte	0xca
 1150 01a4 1D       		.byte	0x1d
 1151 01a5 06       		.uleb128 0x6
 1152 01a6 54040000 		.4byte	.LASF36
 1153 01aa 08       		.byte	0x8
 1154 01ab 82       		.byte	0x82
 1155 01ac E0000000 		.4byte	0xe0
 1156 01b0 1E       		.byte	0x1e
 1157 01b1 06       		.uleb128 0x6
 1158 01b2 90030000 		.4byte	.LASF37
 1159 01b6 08       		.byte	0x8
 1160 01b7 88       		.byte	0x88
 1161 01b8 EB000000 		.4byte	0xeb
 1162 01bc 1F       		.byte	0x1f
 1163 01bd 06       		.uleb128 0x6
 1164 01be 35040000 		.4byte	.LASF38
 1165 01c2 08       		.byte	0x8
 1166 01c3 8F       		.byte	0x8f
 1167 01c4 21030000 		.4byte	0x321
 1168 01c8 20       		.byte	0x20
 1169 01c9 07       		.uleb128 0x7
 1170 01ca 705F7500 		.ascii	"p_u\000"
 1171 01ce 08       		.byte	0x8
 1172 01cf B4       		.byte	0xb4
 1173 01d0 C4030000 		.4byte	0x3c4
 1174 01d4 24       		.byte	0x24
 1175 01d5 06       		.uleb128 0x6
 1176 01d6 B4040000 		.4byte	.LASF39
 1177 01da 08       		.byte	0x8
 1178 01db B9       		.byte	0xb9
 1179 01dc 71020000 		.4byte	0x271
 1180 01e0 28       		.byte	0x28
 1181 01e1 06       		.uleb128 0x6
 1182 01e2 43040000 		.4byte	.LASF40
 1183 01e6 08       		.byte	0x8
 1184 01e7 BF       		.byte	0xbf
 1185 01e8 51020000 		.4byte	0x251
 1186 01ec 2C       		.byte	0x2c
 1187 01ed 06       		.uleb128 0x6
 1188 01ee 09000000 		.4byte	.LASF41
 1189 01f2 08       		.byte	0x8
ARM GAS  /tmp/cc4aEB7N.s 			page 22


 1190 01f3 C3       		.byte	0xc3
 1191 01f4 01010000 		.4byte	0x101
 1192 01f8 34       		.byte	0x34
 1193 01f9 06       		.uleb128 0x6
 1194 01fa C6030000 		.4byte	.LASF42
 1195 01fe 08       		.byte	0x8
 1196 01ff C9       		.byte	0xc9
 1197 0200 0C010000 		.4byte	0x10c
 1198 0204 38       		.byte	0x38
 1199 0205 06       		.uleb128 0x6
 1200 0206 74030000 		.4byte	.LASF43
 1201 020a 08       		.byte	0x8
 1202 020b D0       		.byte	0xd0
 1203 020c 0B040000 		.4byte	0x40b
 1204 0210 3C       		.byte	0x3c
 1205 0211 06       		.uleb128 0x6
 1206 0212 10040000 		.4byte	.LASF44
 1207 0216 08       		.byte	0x8
 1208 0217 D4       		.byte	0xd4
 1209 0218 F6000000 		.4byte	0xf6
 1210 021c 40       		.byte	0x40
 1211 021d 06       		.uleb128 0x6
 1212 021e A9000000 		.4byte	.LASF45
 1213 0222 08       		.byte	0x8
 1214 0223 DA       		.byte	0xda
 1215 0224 87020000 		.4byte	0x287
 1216 0228 44       		.byte	0x44
 1217 0229 00       		.byte	0
 1218 022a 08       		.uleb128 0x8
 1219 022b 08       		.byte	0x8
 1220 022c 07       		.byte	0x7
 1221 022d 61       		.byte	0x61
 1222 022e 4B020000 		.4byte	0x24b
 1223 0232 06       		.uleb128 0x6
 1224 0233 A8030000 		.4byte	.LASF27
 1225 0237 07       		.byte	0x7
 1226 0238 62       		.byte	0x62
 1227 0239 4B020000 		.4byte	0x24b
 1228 023d 00       		.byte	0
 1229 023e 06       		.uleb128 0x6
 1230 023f 41030000 		.4byte	.LASF28
 1231 0243 07       		.byte	0x7
 1232 0244 64       		.byte	0x64
 1233 0245 4B020000 		.4byte	0x24b
 1234 0249 04       		.byte	0x4
 1235 024a 00       		.byte	0
 1236 024b 09       		.uleb128 0x9
 1237 024c 04       		.byte	0x4
 1238 024d 22010000 		.4byte	0x122
 1239 0251 03       		.uleb128 0x3
 1240 0252 B1020000 		.4byte	.LASF46
 1241 0256 07       		.byte	0x7
 1242 0257 66       		.byte	0x66
 1243 0258 2A020000 		.4byte	0x22a
 1244 025c 08       		.uleb128 0x8
 1245 025d 04       		.byte	0x4
 1246 025e 07       		.byte	0x7
ARM GAS  /tmp/cc4aEB7N.s 			page 23


 1247 025f 6B       		.byte	0x6b
 1248 0260 71020000 		.4byte	0x271
 1249 0264 06       		.uleb128 0x6
 1250 0265 A8030000 		.4byte	.LASF27
 1251 0269 07       		.byte	0x7
 1252 026a 6D       		.byte	0x6d
 1253 026b 4B020000 		.4byte	0x24b
 1254 026f 00       		.byte	0
 1255 0270 00       		.byte	0
 1256 0271 03       		.uleb128 0x3
 1257 0272 49020000 		.4byte	.LASF47
 1258 0276 07       		.byte	0x7
 1259 0277 70       		.byte	0x70
 1260 0278 5C020000 		.4byte	0x25c
 1261 027c 03       		.uleb128 0x3
 1262 027d AC010000 		.4byte	.LASF48
 1263 0281 09       		.byte	0x9
 1264 0282 A7       		.byte	0xa7
 1265 0283 87020000 		.4byte	0x287
 1266 0287 0A       		.uleb128 0xa
 1267 0288 04       		.byte	0x4
 1268 0289 05       		.uleb128 0x5
 1269 028a 3C040000 		.4byte	.LASF49
 1270 028e 24       		.byte	0x24
 1271 028f 09       		.byte	0x9
 1272 0290 BA       		.byte	0xba
 1273 0291 FB020000 		.4byte	0x2fb
 1274 0295 07       		.uleb128 0x7
 1275 0296 723800   		.ascii	"r8\000"
 1276 0299 09       		.byte	0x9
 1277 029a BB       		.byte	0xbb
 1278 029b 7C020000 		.4byte	0x27c
 1279 029f 00       		.byte	0
 1280 02a0 07       		.uleb128 0x7
 1281 02a1 723900   		.ascii	"r9\000"
 1282 02a4 09       		.byte	0x9
 1283 02a5 BC       		.byte	0xbc
 1284 02a6 7C020000 		.4byte	0x27c
 1285 02aa 04       		.byte	0x4
 1286 02ab 07       		.uleb128 0x7
 1287 02ac 72313000 		.ascii	"r10\000"
 1288 02b0 09       		.byte	0x9
 1289 02b1 BD       		.byte	0xbd
 1290 02b2 7C020000 		.4byte	0x27c
 1291 02b6 08       		.byte	0x8
 1292 02b7 07       		.uleb128 0x7
 1293 02b8 72313100 		.ascii	"r11\000"
 1294 02bc 09       		.byte	0x9
 1295 02bd BE       		.byte	0xbe
 1296 02be 7C020000 		.4byte	0x27c
 1297 02c2 0C       		.byte	0xc
 1298 02c3 07       		.uleb128 0x7
 1299 02c4 723400   		.ascii	"r4\000"
 1300 02c7 09       		.byte	0x9
 1301 02c8 BF       		.byte	0xbf
 1302 02c9 7C020000 		.4byte	0x27c
 1303 02cd 10       		.byte	0x10
ARM GAS  /tmp/cc4aEB7N.s 			page 24


 1304 02ce 07       		.uleb128 0x7
 1305 02cf 723500   		.ascii	"r5\000"
 1306 02d2 09       		.byte	0x9
 1307 02d3 C0       		.byte	0xc0
 1308 02d4 7C020000 		.4byte	0x27c
 1309 02d8 14       		.byte	0x14
 1310 02d9 07       		.uleb128 0x7
 1311 02da 723600   		.ascii	"r6\000"
 1312 02dd 09       		.byte	0x9
 1313 02de C1       		.byte	0xc1
 1314 02df 7C020000 		.4byte	0x27c
 1315 02e3 18       		.byte	0x18
 1316 02e4 07       		.uleb128 0x7
 1317 02e5 723700   		.ascii	"r7\000"
 1318 02e8 09       		.byte	0x9
 1319 02e9 C2       		.byte	0xc2
 1320 02ea 7C020000 		.4byte	0x27c
 1321 02ee 1C       		.byte	0x1c
 1322 02ef 07       		.uleb128 0x7
 1323 02f0 6C7200   		.ascii	"lr\000"
 1324 02f3 09       		.byte	0x9
 1325 02f4 C3       		.byte	0xc3
 1326 02f5 7C020000 		.4byte	0x27c
 1327 02f9 20       		.byte	0x20
 1328 02fa 00       		.byte	0
 1329 02fb 05       		.uleb128 0x5
 1330 02fc FC010000 		.4byte	.LASF50
 1331 0300 04       		.byte	0x4
 1332 0301 09       		.byte	0x9
 1333 0302 CD       		.byte	0xcd
 1334 0303 14030000 		.4byte	0x314
 1335 0307 07       		.uleb128 0x7
 1336 0308 72313300 		.ascii	"r13\000"
 1337 030c 09       		.byte	0x9
 1338 030d CE       		.byte	0xce
 1339 030e 14030000 		.4byte	0x314
 1340 0312 00       		.byte	0
 1341 0313 00       		.byte	0
 1342 0314 09       		.uleb128 0x9
 1343 0315 04       		.byte	0x4
 1344 0316 89020000 		.4byte	0x289
 1345 031a 04       		.uleb128 0x4
 1346 031b 04       		.byte	0x4
 1347 031c 07       		.byte	0x7
 1348 031d 90020000 		.4byte	.LASF51
 1349 0321 0B       		.uleb128 0xb
 1350 0322 17010000 		.4byte	0x117
 1351 0326 08       		.uleb128 0x8
 1352 0327 1C       		.byte	0x1c
 1353 0328 0A       		.byte	0xa
 1354 0329 5E       		.byte	0x5e
 1355 032a 77030000 		.4byte	0x377
 1356 032e 06       		.uleb128 0x6
 1357 032f DA030000 		.4byte	.LASF52
 1358 0333 0A       		.byte	0xa
 1359 0334 5F       		.byte	0x5f
 1360 0335 51020000 		.4byte	0x251
ARM GAS  /tmp/cc4aEB7N.s 			page 25


 1361 0339 00       		.byte	0
 1362 033a 06       		.uleb128 0x6
 1363 033b 9A030000 		.4byte	.LASF53
 1364 033f 0A       		.byte	0xa
 1365 0340 60       		.byte	0x60
 1366 0341 F6000000 		.4byte	0xf6
 1367 0345 08       		.byte	0x8
 1368 0346 06       		.uleb128 0x6
 1369 0347 AB020000 		.4byte	.LASF54
 1370 034b 0A       		.byte	0xa
 1371 034c 62       		.byte	0x62
 1372 034d FB020000 		.4byte	0x2fb
 1373 0351 0C       		.byte	0xc
 1374 0352 06       		.uleb128 0x6
 1375 0353 22020000 		.4byte	.LASF55
 1376 0357 0A       		.byte	0xa
 1377 0358 65       		.byte	0x65
 1378 0359 4B020000 		.4byte	0x24b
 1379 035d 10       		.byte	0x10
 1380 035e 06       		.uleb128 0x6
 1381 035f 27030000 		.4byte	.LASF56
 1382 0363 0A       		.byte	0xa
 1383 0364 66       		.byte	0x66
 1384 0365 4B020000 		.4byte	0x24b
 1385 0369 14       		.byte	0x14
 1386 036a 06       		.uleb128 0x6
 1387 036b 1D030000 		.4byte	.LASF57
 1388 036f 0A       		.byte	0xa
 1389 0370 69       		.byte	0x69
 1390 0371 4B020000 		.4byte	0x24b
 1391 0375 18       		.byte	0x18
 1392 0376 00       		.byte	0
 1393 0377 03       		.uleb128 0x3
 1394 0378 5B040000 		.4byte	.LASF58
 1395 037c 0A       		.byte	0xa
 1396 037d 6B       		.byte	0x6b
 1397 037e 26030000 		.4byte	0x326
 1398 0382 05       		.uleb128 0x5
 1399 0383 6C020000 		.4byte	.LASF59
 1400 0387 10       		.byte	0x10
 1401 0388 0B       		.byte	0xb
 1402 0389 2C       		.byte	0x2c
 1403 038a B3030000 		.4byte	0x3b3
 1404 038e 06       		.uleb128 0x6
 1405 038f B8000000 		.4byte	.LASF60
 1406 0393 0B       		.byte	0xb
 1407 0394 2D       		.byte	0x2d
 1408 0395 51020000 		.4byte	0x251
 1409 0399 00       		.byte	0
 1410 039a 06       		.uleb128 0x6
 1411 039b A6040000 		.4byte	.LASF61
 1412 039f 0B       		.byte	0xb
 1413 03a0 2F       		.byte	0x2f
 1414 03a1 4B020000 		.4byte	0x24b
 1415 03a5 08       		.byte	0x8
 1416 03a6 06       		.uleb128 0x6
 1417 03a7 FF030000 		.4byte	.LASF62
ARM GAS  /tmp/cc4aEB7N.s 			page 26


 1418 03ab 0B       		.byte	0xb
 1419 03ac 31       		.byte	0x31
 1420 03ad B3030000 		.4byte	0x3b3
 1421 03b1 0C       		.byte	0xc
 1422 03b2 00       		.byte	0
 1423 03b3 09       		.uleb128 0x9
 1424 03b4 04       		.byte	0x4
 1425 03b5 82030000 		.4byte	0x382
 1426 03b9 03       		.uleb128 0x3
 1427 03ba 6C020000 		.4byte	.LASF59
 1428 03be 0B       		.byte	0xb
 1429 03bf 33       		.byte	0x33
 1430 03c0 82030000 		.4byte	0x382
 1431 03c4 0C       		.uleb128 0xc
 1432 03c5 04       		.byte	0x4
 1433 03c6 08       		.byte	0x8
 1434 03c7 96       		.byte	0x96
 1435 03c8 F9030000 		.4byte	0x3f9
 1436 03cc 0D       		.uleb128 0xd
 1437 03cd 28000000 		.4byte	.LASF63
 1438 03d1 08       		.byte	0x8
 1439 03d2 9D       		.byte	0x9d
 1440 03d3 01010000 		.4byte	0x101
 1441 03d7 0D       		.uleb128 0xd
 1442 03d8 75000000 		.4byte	.LASF64
 1443 03dc 08       		.byte	0x8
 1444 03dd A4       		.byte	0xa4
 1445 03de 01010000 		.4byte	0x101
 1446 03e2 0D       		.uleb128 0xd
 1447 03e3 7C040000 		.4byte	.LASF65
 1448 03e7 08       		.byte	0x8
 1449 03e8 AB       		.byte	0xab
 1450 03e9 87020000 		.4byte	0x287
 1451 03ed 0D       		.uleb128 0xd
 1452 03ee A1030000 		.4byte	.LASF66
 1453 03f2 08       		.byte	0x8
 1454 03f3 B2       		.byte	0xb2
 1455 03f4 0C010000 		.4byte	0x10c
 1456 03f8 00       		.byte	0
 1457 03f9 09       		.uleb128 0x9
 1458 03fa 04       		.byte	0x4
 1459 03fb FF030000 		.4byte	0x3ff
 1460 03ff 0E       		.uleb128 0xe
 1461 0400 04040000 		.4byte	0x404
 1462 0404 04       		.uleb128 0x4
 1463 0405 01       		.byte	0x1
 1464 0406 08       		.byte	0x8
 1465 0407 EE030000 		.4byte	.LASF67
 1466 040b 09       		.uleb128 0x9
 1467 040c 04       		.byte	0x4
 1468 040d B9030000 		.4byte	0x3b9
 1469 0411 03       		.uleb128 0x3
 1470 0412 72020000 		.4byte	.LASF68
 1471 0416 0C       		.byte	0xc
 1472 0417 37       		.byte	0x37
 1473 0418 1C040000 		.4byte	0x41c
 1474 041c 05       		.uleb128 0x5
ARM GAS  /tmp/cc4aEB7N.s 			page 27


 1475 041d 72020000 		.4byte	.LASF68
 1476 0421 24       		.byte	0x24
 1477 0422 0C       		.byte	0xc
 1478 0423 45       		.byte	0x45
 1479 0424 89040000 		.4byte	0x489
 1480 0428 06       		.uleb128 0x6
 1481 0429 85000000 		.4byte	.LASF69
 1482 042d 0C       		.byte	0xc
 1483 042e 46       		.byte	0x46
 1484 042f 51020000 		.4byte	0x251
 1485 0433 00       		.byte	0
 1486 0434 06       		.uleb128 0x6
 1487 0435 99020000 		.4byte	.LASF70
 1488 0439 0C       		.byte	0xc
 1489 043a 47       		.byte	0x47
 1490 043b 2C000000 		.4byte	0x2c
 1491 043f 08       		.byte	0x8
 1492 0440 06       		.uleb128 0x6
 1493 0441 EB000000 		.4byte	.LASF71
 1494 0445 0C       		.byte	0xc
 1495 0446 48       		.byte	0x48
 1496 0447 AB040000 		.4byte	0x4ab
 1497 044b 0C       		.byte	0xc
 1498 044c 06       		.uleb128 0x6
 1499 044d 4E040000 		.4byte	.LASF72
 1500 0451 0C       		.byte	0xc
 1501 0452 49       		.byte	0x49
 1502 0453 AB040000 		.4byte	0x4ab
 1503 0457 10       		.byte	0x10
 1504 0458 06       		.uleb128 0x6
 1505 0459 F4000000 		.4byte	.LASF73
 1506 045d 0C       		.byte	0xc
 1507 045e 4B       		.byte	0x4b
 1508 045f AB040000 		.4byte	0x4ab
 1509 0463 14       		.byte	0x14
 1510 0464 06       		.uleb128 0x6
 1511 0465 50030000 		.4byte	.LASF74
 1512 0469 0C       		.byte	0xc
 1513 046a 4C       		.byte	0x4c
 1514 046b AB040000 		.4byte	0x4ab
 1515 046f 18       		.byte	0x18
 1516 0470 06       		.uleb128 0x6
 1517 0471 65040000 		.4byte	.LASF75
 1518 0475 0C       		.byte	0xc
 1519 0476 4D       		.byte	0x4d
 1520 0477 89040000 		.4byte	0x489
 1521 047b 1C       		.byte	0x1c
 1522 047c 06       		.uleb128 0x6
 1523 047d 9F040000 		.4byte	.LASF76
 1524 0481 0C       		.byte	0xc
 1525 0482 4E       		.byte	0x4e
 1526 0483 87020000 		.4byte	0x287
 1527 0487 20       		.byte	0x20
 1528 0488 00       		.byte	0
 1529 0489 03       		.uleb128 0x3
 1530 048a 37030000 		.4byte	.LASF77
 1531 048e 0C       		.byte	0xc
ARM GAS  /tmp/cc4aEB7N.s 			page 28


 1532 048f 3A       		.byte	0x3a
 1533 0490 94040000 		.4byte	0x494
 1534 0494 09       		.uleb128 0x9
 1535 0495 04       		.byte	0x4
 1536 0496 9A040000 		.4byte	0x49a
 1537 049a 0F       		.uleb128 0xf
 1538 049b A5040000 		.4byte	0x4a5
 1539 049f 10       		.uleb128 0x10
 1540 04a0 A5040000 		.4byte	0x4a5
 1541 04a4 00       		.byte	0
 1542 04a5 09       		.uleb128 0x9
 1543 04a6 04       		.byte	0x4
 1544 04a7 11040000 		.4byte	0x411
 1545 04ab 09       		.uleb128 0x9
 1546 04ac 04       		.byte	0x4
 1547 04ad 97000000 		.4byte	0x97
 1548 04b1 03       		.uleb128 0x3
 1549 04b2 61020000 		.4byte	.LASF78
 1550 04b6 0C       		.byte	0xc
 1551 04b7 82       		.byte	0x82
 1552 04b8 11040000 		.4byte	0x411
 1553 04bc 03       		.uleb128 0x3
 1554 04bd 38000000 		.4byte	.LASF79
 1555 04c1 0C       		.byte	0xc
 1556 04c2 F5       		.byte	0xf5
 1557 04c3 11040000 		.4byte	0x411
 1558 04c7 09       		.uleb128 0x9
 1559 04c8 04       		.byte	0x4
 1560 04c9 CD040000 		.4byte	0x4cd
 1561 04cd 0E       		.uleb128 0xe
 1562 04ce 97000000 		.4byte	0x97
 1563 04d2 11       		.uleb128 0x11
 1564 04d3 0F000000 		.4byte	.LASF98
 1565 04d7 02       		.byte	0x2
 1566 04d8 34       		.byte	0x34
 1567 04d9 03       		.byte	0x3
 1568 04da F4040000 		.4byte	0x4f4
 1569 04de 12       		.uleb128 0x12
 1570 04df 747000   		.ascii	"tp\000"
 1571 04e2 02       		.byte	0x2
 1572 04e3 34       		.byte	0x34
 1573 04e4 4B020000 		.4byte	0x24b
 1574 04e8 12       		.uleb128 0x12
 1575 04e9 74717000 		.ascii	"tqp\000"
 1576 04ed 02       		.byte	0x2
 1577 04ee 34       		.byte	0x34
 1578 04ef F4040000 		.4byte	0x4f4
 1579 04f3 00       		.byte	0
 1580 04f4 09       		.uleb128 0x9
 1581 04f5 04       		.byte	0x4
 1582 04f6 51020000 		.4byte	0x251
 1583 04fa 13       		.uleb128 0x13
 1584 04fb F3030000 		.4byte	.LASF99
 1585 04ff 02       		.byte	0x2
 1586 0500 3B       		.byte	0x3b
 1587 0501 4B020000 		.4byte	0x24b
 1588 0505 03       		.byte	0x3
ARM GAS  /tmp/cc4aEB7N.s 			page 29


 1589 0506 20050000 		.4byte	0x520
 1590 050a 12       		.uleb128 0x12
 1591 050b 74717000 		.ascii	"tqp\000"
 1592 050f 02       		.byte	0x2
 1593 0510 3B       		.byte	0x3b
 1594 0511 F4040000 		.4byte	0x4f4
 1595 0515 14       		.uleb128 0x14
 1596 0516 747000   		.ascii	"tp\000"
 1597 0519 02       		.byte	0x2
 1598 051a 3C       		.byte	0x3c
 1599 051b 4B020000 		.4byte	0x24b
 1600 051f 00       		.byte	0
 1601 0520 15       		.uleb128 0x15
 1602 0521 CA000000 		.4byte	.LASF100
 1603 0525 01       		.byte	0x1
 1604 0526 46       		.byte	0x46
 1605 0527 01010000 		.4byte	0x101
 1606 052b 00000000 		.4byte	.LFB7
 1607 052f 28000000 		.4byte	.LFE7-.LFB7
 1608 0533 01       		.uleb128 0x1
 1609 0534 9C       		.byte	0x9c
 1610 0535 93050000 		.4byte	0x593
 1611 0539 16       		.uleb128 0x16
 1612 053a 717000   		.ascii	"qp\000"
 1613 053d 01       		.byte	0x1
 1614 053e 46       		.byte	0x46
 1615 053f A5040000 		.4byte	0x4a5
 1616 0543 00000000 		.4byte	.LLST0
 1617 0547 17       		.uleb128 0x17
 1618 0548 18030000 		.4byte	.LASF80
 1619 054c 01       		.byte	0x1
 1620 054d 46       		.byte	0x46
 1621 054e 17010000 		.4byte	0x117
 1622 0552 3A000000 		.4byte	.LLST1
 1623 0556 18       		.uleb128 0x18
 1624 0557 D2040000 		.4byte	0x4d2
 1625 055b 0C000000 		.4byte	.LBB12
 1626 055f 0A000000 		.4byte	.LBE12-.LBB12
 1627 0563 01       		.byte	0x1
 1628 0564 4B       		.byte	0x4b
 1629 0565 7C050000 		.4byte	0x57c
 1630 0569 19       		.uleb128 0x19
 1631 056a E8040000 		.4byte	0x4e8
 1632 056e 66000000 		.4byte	.LLST2
 1633 0572 19       		.uleb128 0x19
 1634 0573 DE040000 		.4byte	0x4de
 1635 0577 87000000 		.4byte	.LLST3
 1636 057b 00       		.byte	0
 1637 057c 1A       		.uleb128 0x1a
 1638 057d 1C000000 		.4byte	.LVL3
 1639 0581 470A0000 		.4byte	0xa47
 1640 0585 1B       		.uleb128 0x1b
 1641 0586 01       		.uleb128 0x1
 1642 0587 51       		.byte	0x51
 1643 0588 03       		.uleb128 0x3
 1644 0589 F3       		.byte	0xf3
 1645 058a 01       		.uleb128 0x1
ARM GAS  /tmp/cc4aEB7N.s 			page 30


 1646 058b 51       		.byte	0x51
 1647 058c 1B       		.uleb128 0x1b
 1648 058d 01       		.uleb128 0x1
 1649 058e 50       		.byte	0x50
 1650 058f 01       		.uleb128 0x1
 1651 0590 3D       		.byte	0x3d
 1652 0591 00       		.byte	0
 1653 0592 00       		.byte	0
 1654 0593 1C       		.uleb128 0x1c
 1655 0594 2F000000 		.4byte	.LASF84
 1656 0598 01       		.byte	0x1
 1657 0599 5F       		.byte	0x5f
 1658 059a 00000000 		.4byte	.LFB8
 1659 059e 1C000000 		.4byte	.LFE8-.LFB8
 1660 05a2 01       		.uleb128 0x1
 1661 05a3 9C       		.byte	0x9c
 1662 05a4 EE050000 		.4byte	0x5ee
 1663 05a8 1D       		.uleb128 0x1d
 1664 05a9 69717000 		.ascii	"iqp\000"
 1665 05ad 01       		.byte	0x1
 1666 05ae 5F       		.byte	0x5f
 1667 05af EE050000 		.4byte	0x5ee
 1668 05b3 01       		.uleb128 0x1
 1669 05b4 50       		.byte	0x50
 1670 05b5 16       		.uleb128 0x16
 1671 05b6 627000   		.ascii	"bp\000"
 1672 05b9 01       		.byte	0x1
 1673 05ba 5F       		.byte	0x5f
 1674 05bb AB040000 		.4byte	0x4ab
 1675 05bf 9A000000 		.4byte	.LLST4
 1676 05c3 1E       		.uleb128 0x1e
 1677 05c4 04020000 		.4byte	.LASF81
 1678 05c8 01       		.byte	0x1
 1679 05c9 5F       		.byte	0x5f
 1680 05ca 2C000000 		.4byte	0x2c
 1681 05ce 01       		.uleb128 0x1
 1682 05cf 52       		.byte	0x52
 1683 05d0 17       		.uleb128 0x17
 1684 05d1 25040000 		.4byte	.LASF82
 1685 05d5 01       		.byte	0x1
 1686 05d6 5F       		.byte	0x5f
 1687 05d7 89040000 		.4byte	0x489
 1688 05db B9000000 		.4byte	.LLST5
 1689 05df 1E       		.uleb128 0x1e
 1690 05e0 B5010000 		.4byte	.LASF83
 1691 05e4 01       		.byte	0x1
 1692 05e5 60       		.byte	0x60
 1693 05e6 87020000 		.4byte	0x287
 1694 05ea 02       		.uleb128 0x2
 1695 05eb 91       		.byte	0x91
 1696 05ec 00       		.sleb128 0
 1697 05ed 00       		.byte	0
 1698 05ee 09       		.uleb128 0x9
 1699 05ef 04       		.byte	0x4
 1700 05f0 B1040000 		.4byte	0x4b1
 1701 05f4 1C       		.uleb128 0x1c
 1702 05f5 DF010000 		.4byte	.LASF85
ARM GAS  /tmp/cc4aEB7N.s 			page 31


 1703 05f9 01       		.byte	0x1
 1704 05fa 75       		.byte	0x75
 1705 05fb 00000000 		.4byte	.LFB9
 1706 05ff 2C000000 		.4byte	.LFE9-.LFB9
 1707 0603 01       		.uleb128 0x1
 1708 0604 9C       		.byte	0x9c
 1709 0605 52060000 		.4byte	0x652
 1710 0609 16       		.uleb128 0x16
 1711 060a 69717000 		.ascii	"iqp\000"
 1712 060e 01       		.byte	0x1
 1713 060f 75       		.byte	0x75
 1714 0610 EE050000 		.4byte	0x5ee
 1715 0614 D8000000 		.4byte	.LLST6
 1716 0618 18       		.uleb128 0x18
 1717 0619 FA040000 		.4byte	0x4fa
 1718 061d 18000000 		.4byte	.LBB14
 1719 0621 06000000 		.4byte	.LBE14-.LBB14
 1720 0625 01       		.byte	0x1
 1721 0626 7C       		.byte	0x7c
 1722 0627 48060000 		.4byte	0x648
 1723 062b 19       		.uleb128 0x19
 1724 062c 0A050000 		.4byte	0x50a
 1725 0630 04010000 		.4byte	.LLST7
 1726 0634 1F       		.uleb128 0x1f
 1727 0635 18000000 		.4byte	.LBB15
 1728 0639 06000000 		.4byte	.LBE15-.LBB15
 1729 063d 20       		.uleb128 0x20
 1730 063e 15050000 		.4byte	0x515
 1731 0642 17010000 		.4byte	.LLST8
 1732 0646 00       		.byte	0
 1733 0647 00       		.byte	0
 1734 0648 21       		.uleb128 0x21
 1735 0649 22000000 		.4byte	.LVL12
 1736 064d 610A0000 		.4byte	0xa61
 1737 0651 00       		.byte	0
 1738 0652 22       		.uleb128 0x22
 1739 0653 C9010000 		.4byte	.LASF86
 1740 0657 01       		.byte	0x1
 1741 0658 8C       		.byte	0x8c
 1742 0659 01010000 		.4byte	0x101
 1743 065d 00000000 		.4byte	.LFB10
 1744 0661 52000000 		.4byte	.LFE10-.LFB10
 1745 0665 01       		.uleb128 0x1
 1746 0666 9C       		.byte	0x9c
 1747 0667 C1060000 		.4byte	0x6c1
 1748 066b 16       		.uleb128 0x16
 1749 066c 69717000 		.ascii	"iqp\000"
 1750 0670 01       		.byte	0x1
 1751 0671 8C       		.byte	0x8c
 1752 0672 EE050000 		.4byte	0x5ee
 1753 0676 2A010000 		.4byte	.LLST9
 1754 067a 16       		.uleb128 0x16
 1755 067b 6200     		.ascii	"b\000"
 1756 067d 01       		.byte	0x1
 1757 067e 8C       		.byte	0x8c
 1758 067f 97000000 		.4byte	0x97
 1759 0683 89010000 		.4byte	.LLST10
ARM GAS  /tmp/cc4aEB7N.s 			page 32


 1760 0687 18       		.uleb128 0x18
 1761 0688 FA040000 		.4byte	0x4fa
 1762 068c 24000000 		.4byte	.LBB16
 1763 0690 06000000 		.4byte	.LBE16-.LBB16
 1764 0694 01       		.byte	0x1
 1765 0695 99       		.byte	0x99
 1766 0696 B7060000 		.4byte	0x6b7
 1767 069a 19       		.uleb128 0x19
 1768 069b 0A050000 		.4byte	0x50a
 1769 069f B5010000 		.4byte	.LLST11
 1770 06a3 1F       		.uleb128 0x1f
 1771 06a4 24000000 		.4byte	.LBB17
 1772 06a8 06000000 		.4byte	.LBE17-.LBB17
 1773 06ac 20       		.uleb128 0x20
 1774 06ad 15050000 		.4byte	0x515
 1775 06b1 E2010000 		.4byte	.LLST12
 1776 06b5 00       		.byte	0
 1777 06b6 00       		.byte	0
 1778 06b7 21       		.uleb128 0x21
 1779 06b8 30000000 		.4byte	.LVL18
 1780 06bc 610A0000 		.4byte	0xa61
 1781 06c0 00       		.byte	0
 1782 06c1 22       		.uleb128 0x22
 1783 06c2 BE040000 		.4byte	.LASF87
 1784 06c6 01       		.byte	0x1
 1785 06c7 B2       		.byte	0xb2
 1786 06c8 01010000 		.4byte	0x101
 1787 06cc 00000000 		.4byte	.LFB11
 1788 06d0 3E000000 		.4byte	.LFE11-.LFB11
 1789 06d4 01       		.uleb128 0x1
 1790 06d5 9C       		.byte	0x9c
 1791 06d6 45070000 		.4byte	0x745
 1792 06da 16       		.uleb128 0x16
 1793 06db 69717000 		.ascii	"iqp\000"
 1794 06df 01       		.byte	0x1
 1795 06e0 B2       		.byte	0xb2
 1796 06e1 EE050000 		.4byte	0x5ee
 1797 06e5 F5010000 		.4byte	.LLST13
 1798 06e9 17       		.uleb128 0x17
 1799 06ea 18030000 		.4byte	.LASF80
 1800 06ee 01       		.byte	0x1
 1801 06ef B2       		.byte	0xb2
 1802 06f0 17010000 		.4byte	0x117
 1803 06f4 21020000 		.4byte	.LLST14
 1804 06f8 23       		.uleb128 0x23
 1805 06f9 6200     		.ascii	"b\000"
 1806 06fb 01       		.byte	0x1
 1807 06fc B3       		.byte	0xb3
 1808 06fd 97000000 		.4byte	0x97
 1809 0701 4D020000 		.4byte	.LLST15
 1810 0705 24       		.uleb128 0x24
 1811 0706 12000000 		.4byte	.LBB18
 1812 070a 0C000000 		.4byte	.LBE18-.LBB18
 1813 070e 38070000 		.4byte	0x738
 1814 0712 23       		.uleb128 0x23
 1815 0713 6D736700 		.ascii	"msg\000"
 1816 0717 01       		.byte	0x1
ARM GAS  /tmp/cc4aEB7N.s 			page 33


 1817 0718 BA       		.byte	0xba
 1818 0719 01010000 		.4byte	0x101
 1819 071d 7C020000 		.4byte	.LLST16
 1820 0721 1A       		.uleb128 0x1a
 1821 0722 1A000000 		.4byte	.LVL26
 1822 0726 20050000 		.4byte	0x520
 1823 072a 1B       		.uleb128 0x1b
 1824 072b 01       		.uleb128 0x1
 1825 072c 51       		.byte	0x51
 1826 072d 02       		.uleb128 0x2
 1827 072e 75       		.byte	0x75
 1828 072f 00       		.sleb128 0
 1829 0730 1B       		.uleb128 0x1b
 1830 0731 01       		.uleb128 0x1
 1831 0732 50       		.byte	0x50
 1832 0733 02       		.uleb128 0x2
 1833 0734 74       		.byte	0x74
 1834 0735 00       		.sleb128 0
 1835 0736 00       		.byte	0
 1836 0737 00       		.byte	0
 1837 0738 25       		.uleb128 0x25
 1838 0739 10000000 		.4byte	.LVL25
 1839 073d 1B       		.uleb128 0x1b
 1840 073e 01       		.uleb128 0x1
 1841 073f 50       		.byte	0x50
 1842 0740 02       		.uleb128 0x2
 1843 0741 74       		.byte	0x74
 1844 0742 00       		.sleb128 0
 1845 0743 00       		.byte	0
 1846 0744 00       		.byte	0
 1847 0745 22       		.uleb128 0x22
 1848 0746 4E000000 		.4byte	.LASF88
 1849 074a 01       		.byte	0x1
 1850 074b E2       		.byte	0xe2
 1851 074c 2C000000 		.4byte	0x2c
 1852 0750 00000000 		.4byte	.LFB12
 1853 0754 6E000000 		.4byte	.LFE12-.LFB12
 1854 0758 01       		.uleb128 0x1
 1855 0759 9C       		.byte	0x9c
 1856 075a DD070000 		.4byte	0x7dd
 1857 075e 16       		.uleb128 0x16
 1858 075f 69717000 		.ascii	"iqp\000"
 1859 0763 01       		.byte	0x1
 1860 0764 E2       		.byte	0xe2
 1861 0765 EE050000 		.4byte	0x5ee
 1862 0769 8F020000 		.4byte	.LLST17
 1863 076d 16       		.uleb128 0x16
 1864 076e 627000   		.ascii	"bp\000"
 1865 0771 01       		.byte	0x1
 1866 0772 E2       		.byte	0xe2
 1867 0773 AB040000 		.4byte	0x4ab
 1868 0777 BB020000 		.4byte	.LLST18
 1869 077b 16       		.uleb128 0x16
 1870 077c 6E00     		.ascii	"n\000"
 1871 077e 01       		.byte	0x1
 1872 077f E3       		.byte	0xe3
 1873 0780 2C000000 		.4byte	0x2c
ARM GAS  /tmp/cc4aEB7N.s 			page 34


 1874 0784 00030000 		.4byte	.LLST19
 1875 0788 17       		.uleb128 0x17
 1876 0789 18030000 		.4byte	.LASF80
 1877 078d 01       		.byte	0x1
 1878 078e E3       		.byte	0xe3
 1879 078f 17010000 		.4byte	0x117
 1880 0793 2E030000 		.4byte	.LLST20
 1881 0797 23       		.uleb128 0x23
 1882 0798 6E667900 		.ascii	"nfy\000"
 1883 079c 01       		.byte	0x1
 1884 079d E4       		.byte	0xe4
 1885 079e 89040000 		.4byte	0x489
 1886 07a2 5A030000 		.4byte	.LLST21
 1887 07a6 23       		.uleb128 0x23
 1888 07a7 7200     		.ascii	"r\000"
 1889 07a9 01       		.byte	0x1
 1890 07aa E5       		.byte	0xe5
 1891 07ab 2C000000 		.4byte	0x2c
 1892 07af 8E030000 		.4byte	.LLST22
 1893 07b3 26       		.uleb128 0x26
 1894 07b4 24000000 		.4byte	.LVL39
 1895 07b8 02       		.uleb128 0x2
 1896 07b9 78       		.byte	0x78
 1897 07ba 00       		.sleb128 0
 1898 07bb C6070000 		.4byte	0x7c6
 1899 07bf 1B       		.uleb128 0x1b
 1900 07c0 01       		.uleb128 0x1
 1901 07c1 50       		.byte	0x50
 1902 07c2 02       		.uleb128 0x2
 1903 07c3 74       		.byte	0x74
 1904 07c4 00       		.sleb128 0
 1905 07c5 00       		.byte	0
 1906 07c6 1A       		.uleb128 0x1a
 1907 07c7 2E000000 		.4byte	.LVL40
 1908 07cb 20050000 		.4byte	0x520
 1909 07cf 1B       		.uleb128 0x1b
 1910 07d0 01       		.uleb128 0x1
 1911 07d1 51       		.byte	0x51
 1912 07d2 02       		.uleb128 0x2
 1913 07d3 76       		.byte	0x76
 1914 07d4 00       		.sleb128 0
 1915 07d5 1B       		.uleb128 0x1b
 1916 07d6 01       		.uleb128 0x1
 1917 07d7 50       		.byte	0x50
 1918 07d8 02       		.uleb128 0x2
 1919 07d9 74       		.byte	0x74
 1920 07da 00       		.sleb128 0
 1921 07db 00       		.byte	0
 1922 07dc 00       		.byte	0
 1923 07dd 27       		.uleb128 0x27
 1924 07de 00000000 		.4byte	.LASF89
 1925 07e2 01       		.byte	0x1
 1926 07e3 1301     		.2byte	0x113
 1927 07e5 00000000 		.4byte	.LFB13
 1928 07e9 18000000 		.4byte	.LFE13-.LFB13
 1929 07ed 01       		.uleb128 0x1
 1930 07ee 9C       		.byte	0x9c
ARM GAS  /tmp/cc4aEB7N.s 			page 35


 1931 07ef 3E080000 		.4byte	0x83e
 1932 07f3 28       		.uleb128 0x28
 1933 07f4 6F717000 		.ascii	"oqp\000"
 1934 07f8 01       		.byte	0x1
 1935 07f9 1301     		.2byte	0x113
 1936 07fb 3E080000 		.4byte	0x83e
 1937 07ff 01       		.uleb128 0x1
 1938 0800 50       		.byte	0x50
 1939 0801 29       		.uleb128 0x29
 1940 0802 627000   		.ascii	"bp\000"
 1941 0805 01       		.byte	0x1
 1942 0806 1301     		.2byte	0x113
 1943 0808 AB040000 		.4byte	0x4ab
 1944 080c B8030000 		.4byte	.LLST23
 1945 0810 2A       		.uleb128 0x2a
 1946 0811 04020000 		.4byte	.LASF81
 1947 0815 01       		.byte	0x1
 1948 0816 1301     		.2byte	0x113
 1949 0818 2C000000 		.4byte	0x2c
 1950 081c 01       		.uleb128 0x1
 1951 081d 52       		.byte	0x52
 1952 081e 2B       		.uleb128 0x2b
 1953 081f 1C000000 		.4byte	.LASF90
 1954 0823 01       		.byte	0x1
 1955 0824 1301     		.2byte	0x113
 1956 0826 89040000 		.4byte	0x489
 1957 082a D7030000 		.4byte	.LLST24
 1958 082e 2A       		.uleb128 0x2a
 1959 082f B5010000 		.4byte	.LASF83
 1960 0833 01       		.byte	0x1
 1961 0834 1401     		.2byte	0x114
 1962 0836 87020000 		.4byte	0x287
 1963 083a 02       		.uleb128 0x2
 1964 083b 91       		.byte	0x91
 1965 083c 00       		.sleb128 0
 1966 083d 00       		.byte	0
 1967 083e 09       		.uleb128 0x9
 1968 083f 04       		.byte	0x4
 1969 0840 BC040000 		.4byte	0x4bc
 1970 0844 27       		.uleb128 0x27
 1971 0845 2A040000 		.4byte	.LASF91
 1972 0849 01       		.byte	0x1
 1973 084a 2901     		.2byte	0x129
 1974 084c 00000000 		.4byte	.LFB14
 1975 0850 2E000000 		.4byte	.LFE14-.LFB14
 1976 0854 01       		.uleb128 0x1
 1977 0855 9C       		.byte	0x9c
 1978 0856 A5080000 		.4byte	0x8a5
 1979 085a 29       		.uleb128 0x29
 1980 085b 6F717000 		.ascii	"oqp\000"
 1981 085f 01       		.byte	0x1
 1982 0860 2901     		.2byte	0x129
 1983 0862 3E080000 		.4byte	0x83e
 1984 0866 F6030000 		.4byte	.LLST25
 1985 086a 2C       		.uleb128 0x2c
 1986 086b FA040000 		.4byte	0x4fa
 1987 086f 1A000000 		.4byte	.LBB19
ARM GAS  /tmp/cc4aEB7N.s 			page 36


 1988 0873 06000000 		.4byte	.LBE19-.LBB19
 1989 0877 01       		.byte	0x1
 1990 0878 3001     		.2byte	0x130
 1991 087a 9B080000 		.4byte	0x89b
 1992 087e 19       		.uleb128 0x19
 1993 087f 0A050000 		.4byte	0x50a
 1994 0883 22040000 		.4byte	.LLST26
 1995 0887 1F       		.uleb128 0x1f
 1996 0888 1A000000 		.4byte	.LBB20
 1997 088c 06000000 		.4byte	.LBE20-.LBB20
 1998 0890 20       		.uleb128 0x20
 1999 0891 15050000 		.4byte	0x515
 2000 0895 35040000 		.4byte	.LLST27
 2001 0899 00       		.byte	0
 2002 089a 00       		.byte	0
 2003 089b 21       		.uleb128 0x21
 2004 089c 24000000 		.4byte	.LVL54
 2005 08a0 610A0000 		.4byte	0xa61
 2006 08a4 00       		.byte	0
 2007 08a5 2D       		.uleb128 0x2d
 2008 08a6 BA010000 		.4byte	.LASF92
 2009 08aa 01       		.byte	0x1
 2010 08ab 4901     		.2byte	0x149
 2011 08ad 01010000 		.4byte	0x101
 2012 08b1 00000000 		.4byte	.LFB15
 2013 08b5 4A000000 		.4byte	.LFE15-.LFB15
 2014 08b9 01       		.uleb128 0x1
 2015 08ba 9C       		.byte	0x9c
 2016 08bb 2A090000 		.4byte	0x92a
 2017 08bf 29       		.uleb128 0x29
 2018 08c0 6F717000 		.ascii	"oqp\000"
 2019 08c4 01       		.byte	0x1
 2020 08c5 4901     		.2byte	0x149
 2021 08c7 3E080000 		.4byte	0x83e
 2022 08cb 48040000 		.4byte	.LLST28
 2023 08cf 29       		.uleb128 0x29
 2024 08d0 6200     		.ascii	"b\000"
 2025 08d2 01       		.byte	0x1
 2026 08d3 4901     		.2byte	0x149
 2027 08d5 97000000 		.4byte	0x97
 2028 08d9 7F040000 		.4byte	.LLST29
 2029 08dd 2B       		.uleb128 0x2b
 2030 08de 18030000 		.4byte	.LASF80
 2031 08e2 01       		.byte	0x1
 2032 08e3 4901     		.2byte	0x149
 2033 08e5 17010000 		.4byte	0x117
 2034 08e9 A0040000 		.4byte	.LLST30
 2035 08ed 2E       		.uleb128 0x2e
 2036 08ee 00000000 		.4byte	.Ldebug_ranges0+0
 2037 08f2 1D090000 		.4byte	0x91d
 2038 08f6 2F       		.uleb128 0x2f
 2039 08f7 6D736700 		.ascii	"msg\000"
 2040 08fb 01       		.byte	0x1
 2041 08fc 4D01     		.2byte	0x14d
 2042 08fe 01010000 		.4byte	0x101
 2043 0902 D7040000 		.4byte	.LLST31
 2044 0906 1A       		.uleb128 0x1a
ARM GAS  /tmp/cc4aEB7N.s 			page 37


 2045 0907 14000000 		.4byte	.LVL59
 2046 090b 20050000 		.4byte	0x520
 2047 090f 1B       		.uleb128 0x1b
 2048 0910 01       		.uleb128 0x1
 2049 0911 51       		.byte	0x51
 2050 0912 02       		.uleb128 0x2
 2051 0913 75       		.byte	0x75
 2052 0914 00       		.sleb128 0
 2053 0915 1B       		.uleb128 0x1b
 2054 0916 01       		.uleb128 0x1
 2055 0917 50       		.byte	0x50
 2056 0918 02       		.uleb128 0x2
 2057 0919 74       		.byte	0x74
 2058 091a 00       		.sleb128 0
 2059 091b 00       		.byte	0
 2060 091c 00       		.byte	0
 2061 091d 25       		.uleb128 0x25
 2062 091e 40000000 		.4byte	.LVL61
 2063 0922 1B       		.uleb128 0x1b
 2064 0923 01       		.uleb128 0x1
 2065 0924 50       		.byte	0x50
 2066 0925 02       		.uleb128 0x2
 2067 0926 74       		.byte	0x74
 2068 0927 00       		.sleb128 0
 2069 0928 00       		.byte	0
 2070 0929 00       		.byte	0
 2071 092a 2D       		.uleb128 0x2d
 2072 092b E2000000 		.4byte	.LASF93
 2073 092f 01       		.byte	0x1
 2074 0930 6B01     		.2byte	0x16b
 2075 0932 01010000 		.4byte	0x101
 2076 0936 00000000 		.4byte	.LFB16
 2077 093a 48000000 		.4byte	.LFE16-.LFB16
 2078 093e 01       		.uleb128 0x1
 2079 093f 9C       		.byte	0x9c
 2080 0940 9D090000 		.4byte	0x99d
 2081 0944 29       		.uleb128 0x29
 2082 0945 6F717000 		.ascii	"oqp\000"
 2083 0949 01       		.byte	0x1
 2084 094a 6B01     		.2byte	0x16b
 2085 094c 3E080000 		.4byte	0x83e
 2086 0950 F5040000 		.4byte	.LLST32
 2087 0954 2F       		.uleb128 0x2f
 2088 0955 6200     		.ascii	"b\000"
 2089 0957 01       		.byte	0x1
 2090 0958 6C01     		.2byte	0x16c
 2091 095a 97000000 		.4byte	0x97
 2092 095e 3B050000 		.4byte	.LLST33
 2093 0962 2C       		.uleb128 0x2c
 2094 0963 FA040000 		.4byte	0x4fa
 2095 0967 22000000 		.4byte	.LBB23
 2096 096b 06000000 		.4byte	.LBE23-.LBB23
 2097 096f 01       		.byte	0x1
 2098 0970 7901     		.2byte	0x179
 2099 0972 93090000 		.4byte	0x993
 2100 0976 19       		.uleb128 0x19
 2101 0977 0A050000 		.4byte	0x50a
ARM GAS  /tmp/cc4aEB7N.s 			page 38


 2102 097b 7D050000 		.4byte	.LLST34
 2103 097f 1F       		.uleb128 0x1f
 2104 0980 22000000 		.4byte	.LBB24
 2105 0984 06000000 		.4byte	.LBE24-.LBB24
 2106 0988 20       		.uleb128 0x20
 2107 0989 15050000 		.4byte	0x515
 2108 098d AA050000 		.4byte	.LLST35
 2109 0991 00       		.byte	0
 2110 0992 00       		.byte	0
 2111 0993 21       		.uleb128 0x21
 2112 0994 2E000000 		.4byte	.LVL71
 2113 0998 610A0000 		.4byte	0xa61
 2114 099c 00       		.byte	0
 2115 099d 2D       		.uleb128 0x2d
 2116 099e 7F020000 		.4byte	.LASF94
 2117 09a2 01       		.byte	0x1
 2118 09a3 9601     		.2byte	0x196
 2119 09a5 2C000000 		.4byte	0x2c
 2120 09a9 00000000 		.4byte	.LFB17
 2121 09ad 78000000 		.4byte	.LFE17-.LFB17
 2122 09b1 01       		.uleb128 0x1
 2123 09b2 9C       		.byte	0x9c
 2124 09b3 3C0A0000 		.4byte	0xa3c
 2125 09b7 29       		.uleb128 0x29
 2126 09b8 6F717000 		.ascii	"oqp\000"
 2127 09bc 01       		.byte	0x1
 2128 09bd 9601     		.2byte	0x196
 2129 09bf 3E080000 		.4byte	0x83e
 2130 09c3 BD050000 		.4byte	.LLST36
 2131 09c7 29       		.uleb128 0x29
 2132 09c8 627000   		.ascii	"bp\000"
 2133 09cb 01       		.byte	0x1
 2134 09cc 9601     		.2byte	0x196
 2135 09ce C7040000 		.4byte	0x4c7
 2136 09d2 E9050000 		.4byte	.LLST37
 2137 09d6 29       		.uleb128 0x29
 2138 09d7 6E00     		.ascii	"n\000"
 2139 09d9 01       		.byte	0x1
 2140 09da 9701     		.2byte	0x197
 2141 09dc 2C000000 		.4byte	0x2c
 2142 09e0 1D060000 		.4byte	.LLST38
 2143 09e4 2B       		.uleb128 0x2b
 2144 09e5 18030000 		.4byte	.LASF80
 2145 09e9 01       		.byte	0x1
 2146 09ea 9701     		.2byte	0x197
 2147 09ec 17010000 		.4byte	0x117
 2148 09f0 53060000 		.4byte	.LLST39
 2149 09f4 2F       		.uleb128 0x2f
 2150 09f5 6E667900 		.ascii	"nfy\000"
 2151 09f9 01       		.byte	0x1
 2152 09fa 9801     		.2byte	0x198
 2153 09fc 89040000 		.4byte	0x489
 2154 0a00 7F060000 		.4byte	.LLST40
 2155 0a04 2F       		.uleb128 0x2f
 2156 0a05 7700     		.ascii	"w\000"
 2157 0a07 01       		.byte	0x1
 2158 0a08 9901     		.2byte	0x199
ARM GAS  /tmp/cc4aEB7N.s 			page 39


 2159 0a0a 2C000000 		.4byte	0x2c
 2160 0a0e B3060000 		.4byte	.LLST41
 2161 0a12 26       		.uleb128 0x26
 2162 0a13 48000000 		.4byte	.LVL85
 2163 0a17 02       		.uleb128 0x2
 2164 0a18 79       		.byte	0x79
 2165 0a19 00       		.sleb128 0
 2166 0a1a 250A0000 		.4byte	0xa25
 2167 0a1e 1B       		.uleb128 0x1b
 2168 0a1f 01       		.uleb128 0x1
 2169 0a20 50       		.byte	0x50
 2170 0a21 02       		.uleb128 0x2
 2171 0a22 74       		.byte	0x74
 2172 0a23 00       		.sleb128 0
 2173 0a24 00       		.byte	0
 2174 0a25 1A       		.uleb128 0x1a
 2175 0a26 66000000 		.4byte	.LVL89
 2176 0a2a 20050000 		.4byte	0x520
 2177 0a2e 1B       		.uleb128 0x1b
 2178 0a2f 01       		.uleb128 0x1
 2179 0a30 51       		.byte	0x51
 2180 0a31 02       		.uleb128 0x2
 2181 0a32 7A       		.byte	0x7a
 2182 0a33 00       		.sleb128 0
 2183 0a34 1B       		.uleb128 0x1b
 2184 0a35 01       		.uleb128 0x1
 2185 0a36 50       		.byte	0x50
 2186 0a37 02       		.uleb128 0x2
 2187 0a38 74       		.byte	0x74
 2188 0a39 00       		.sleb128 0
 2189 0a3a 00       		.byte	0
 2190 0a3b 00       		.byte	0
 2191 0a3c 30       		.uleb128 0x30
 2192 0a3d 6E040000 		.4byte	.LASF101
 2193 0a41 0A       		.byte	0xa
 2194 0a42 6F       		.byte	0x6f
 2195 0a43 77030000 		.4byte	0x377
 2196 0a47 31       		.uleb128 0x31
 2197 0a48 8A040000 		.4byte	.LASF102
 2198 0a4c 0A       		.byte	0xa
 2199 0a4d 96       		.byte	0x96
 2200 0a4e 01010000 		.4byte	0x101
 2201 0a52 610A0000 		.4byte	0xa61
 2202 0a56 10       		.uleb128 0x10
 2203 0a57 D5000000 		.4byte	0xd5
 2204 0a5b 10       		.uleb128 0x10
 2205 0a5c 17010000 		.4byte	0x117
 2206 0a60 00       		.byte	0
 2207 0a61 32       		.uleb128 0x32
 2208 0a62 E2030000 		.4byte	.LASF103
 2209 0a66 0A       		.byte	0xa
 2210 0a67 90       		.byte	0x90
 2211 0a68 4B020000 		.4byte	0x24b
 2212 0a6c 10       		.uleb128 0x10
 2213 0a6d 4B020000 		.4byte	0x24b
 2214 0a71 00       		.byte	0
 2215 0a72 00       		.byte	0
ARM GAS  /tmp/cc4aEB7N.s 			page 40


 2216              		.section	.debug_abbrev,"",%progbits
 2217              	.Ldebug_abbrev0:
 2218 0000 01       		.uleb128 0x1
 2219 0001 11       		.uleb128 0x11
 2220 0002 01       		.byte	0x1
 2221 0003 25       		.uleb128 0x25
 2222 0004 0E       		.uleb128 0xe
 2223 0005 13       		.uleb128 0x13
 2224 0006 0B       		.uleb128 0xb
 2225 0007 03       		.uleb128 0x3
 2226 0008 0E       		.uleb128 0xe
 2227 0009 1B       		.uleb128 0x1b
 2228 000a 0E       		.uleb128 0xe
 2229 000b 55       		.uleb128 0x55
 2230 000c 17       		.uleb128 0x17
 2231 000d 11       		.uleb128 0x11
 2232 000e 01       		.uleb128 0x1
 2233 000f 10       		.uleb128 0x10
 2234 0010 17       		.uleb128 0x17
 2235 0011 00       		.byte	0
 2236 0012 00       		.byte	0
 2237 0013 02       		.uleb128 0x2
 2238 0014 24       		.uleb128 0x24
 2239 0015 00       		.byte	0
 2240 0016 0B       		.uleb128 0xb
 2241 0017 0B       		.uleb128 0xb
 2242 0018 3E       		.uleb128 0x3e
 2243 0019 0B       		.uleb128 0xb
 2244 001a 03       		.uleb128 0x3
 2245 001b 08       		.uleb128 0x8
 2246 001c 00       		.byte	0
 2247 001d 00       		.byte	0
 2248 001e 03       		.uleb128 0x3
 2249 001f 16       		.uleb128 0x16
 2250 0020 00       		.byte	0
 2251 0021 03       		.uleb128 0x3
 2252 0022 0E       		.uleb128 0xe
 2253 0023 3A       		.uleb128 0x3a
 2254 0024 0B       		.uleb128 0xb
 2255 0025 3B       		.uleb128 0x3b
 2256 0026 0B       		.uleb128 0xb
 2257 0027 49       		.uleb128 0x49
 2258 0028 13       		.uleb128 0x13
 2259 0029 00       		.byte	0
 2260 002a 00       		.byte	0
 2261 002b 04       		.uleb128 0x4
 2262 002c 24       		.uleb128 0x24
 2263 002d 00       		.byte	0
 2264 002e 0B       		.uleb128 0xb
 2265 002f 0B       		.uleb128 0xb
 2266 0030 3E       		.uleb128 0x3e
 2267 0031 0B       		.uleb128 0xb
 2268 0032 03       		.uleb128 0x3
 2269 0033 0E       		.uleb128 0xe
 2270 0034 00       		.byte	0
 2271 0035 00       		.byte	0
 2272 0036 05       		.uleb128 0x5
ARM GAS  /tmp/cc4aEB7N.s 			page 41


 2273 0037 13       		.uleb128 0x13
 2274 0038 01       		.byte	0x1
 2275 0039 03       		.uleb128 0x3
 2276 003a 0E       		.uleb128 0xe
 2277 003b 0B       		.uleb128 0xb
 2278 003c 0B       		.uleb128 0xb
 2279 003d 3A       		.uleb128 0x3a
 2280 003e 0B       		.uleb128 0xb
 2281 003f 3B       		.uleb128 0x3b
 2282 0040 0B       		.uleb128 0xb
 2283 0041 01       		.uleb128 0x1
 2284 0042 13       		.uleb128 0x13
 2285 0043 00       		.byte	0
 2286 0044 00       		.byte	0
 2287 0045 06       		.uleb128 0x6
 2288 0046 0D       		.uleb128 0xd
 2289 0047 00       		.byte	0
 2290 0048 03       		.uleb128 0x3
 2291 0049 0E       		.uleb128 0xe
 2292 004a 3A       		.uleb128 0x3a
 2293 004b 0B       		.uleb128 0xb
 2294 004c 3B       		.uleb128 0x3b
 2295 004d 0B       		.uleb128 0xb
 2296 004e 49       		.uleb128 0x49
 2297 004f 13       		.uleb128 0x13
 2298 0050 38       		.uleb128 0x38
 2299 0051 0B       		.uleb128 0xb
 2300 0052 00       		.byte	0
 2301 0053 00       		.byte	0
 2302 0054 07       		.uleb128 0x7
 2303 0055 0D       		.uleb128 0xd
 2304 0056 00       		.byte	0
 2305 0057 03       		.uleb128 0x3
 2306 0058 08       		.uleb128 0x8
 2307 0059 3A       		.uleb128 0x3a
 2308 005a 0B       		.uleb128 0xb
 2309 005b 3B       		.uleb128 0x3b
 2310 005c 0B       		.uleb128 0xb
 2311 005d 49       		.uleb128 0x49
 2312 005e 13       		.uleb128 0x13
 2313 005f 38       		.uleb128 0x38
 2314 0060 0B       		.uleb128 0xb
 2315 0061 00       		.byte	0
 2316 0062 00       		.byte	0
 2317 0063 08       		.uleb128 0x8
 2318 0064 13       		.uleb128 0x13
 2319 0065 01       		.byte	0x1
 2320 0066 0B       		.uleb128 0xb
 2321 0067 0B       		.uleb128 0xb
 2322 0068 3A       		.uleb128 0x3a
 2323 0069 0B       		.uleb128 0xb
 2324 006a 3B       		.uleb128 0x3b
 2325 006b 0B       		.uleb128 0xb
 2326 006c 01       		.uleb128 0x1
 2327 006d 13       		.uleb128 0x13
 2328 006e 00       		.byte	0
 2329 006f 00       		.byte	0
ARM GAS  /tmp/cc4aEB7N.s 			page 42


 2330 0070 09       		.uleb128 0x9
 2331 0071 0F       		.uleb128 0xf
 2332 0072 00       		.byte	0
 2333 0073 0B       		.uleb128 0xb
 2334 0074 0B       		.uleb128 0xb
 2335 0075 49       		.uleb128 0x49
 2336 0076 13       		.uleb128 0x13
 2337 0077 00       		.byte	0
 2338 0078 00       		.byte	0
 2339 0079 0A       		.uleb128 0xa
 2340 007a 0F       		.uleb128 0xf
 2341 007b 00       		.byte	0
 2342 007c 0B       		.uleb128 0xb
 2343 007d 0B       		.uleb128 0xb
 2344 007e 00       		.byte	0
 2345 007f 00       		.byte	0
 2346 0080 0B       		.uleb128 0xb
 2347 0081 35       		.uleb128 0x35
 2348 0082 00       		.byte	0
 2349 0083 49       		.uleb128 0x49
 2350 0084 13       		.uleb128 0x13
 2351 0085 00       		.byte	0
 2352 0086 00       		.byte	0
 2353 0087 0C       		.uleb128 0xc
 2354 0088 17       		.uleb128 0x17
 2355 0089 01       		.byte	0x1
 2356 008a 0B       		.uleb128 0xb
 2357 008b 0B       		.uleb128 0xb
 2358 008c 3A       		.uleb128 0x3a
 2359 008d 0B       		.uleb128 0xb
 2360 008e 3B       		.uleb128 0x3b
 2361 008f 0B       		.uleb128 0xb
 2362 0090 01       		.uleb128 0x1
 2363 0091 13       		.uleb128 0x13
 2364 0092 00       		.byte	0
 2365 0093 00       		.byte	0
 2366 0094 0D       		.uleb128 0xd
 2367 0095 0D       		.uleb128 0xd
 2368 0096 00       		.byte	0
 2369 0097 03       		.uleb128 0x3
 2370 0098 0E       		.uleb128 0xe
 2371 0099 3A       		.uleb128 0x3a
 2372 009a 0B       		.uleb128 0xb
 2373 009b 3B       		.uleb128 0x3b
 2374 009c 0B       		.uleb128 0xb
 2375 009d 49       		.uleb128 0x49
 2376 009e 13       		.uleb128 0x13
 2377 009f 00       		.byte	0
 2378 00a0 00       		.byte	0
 2379 00a1 0E       		.uleb128 0xe
 2380 00a2 26       		.uleb128 0x26
 2381 00a3 00       		.byte	0
 2382 00a4 49       		.uleb128 0x49
 2383 00a5 13       		.uleb128 0x13
 2384 00a6 00       		.byte	0
 2385 00a7 00       		.byte	0
 2386 00a8 0F       		.uleb128 0xf
ARM GAS  /tmp/cc4aEB7N.s 			page 43


 2387 00a9 15       		.uleb128 0x15
 2388 00aa 01       		.byte	0x1
 2389 00ab 27       		.uleb128 0x27
 2390 00ac 19       		.uleb128 0x19
 2391 00ad 01       		.uleb128 0x1
 2392 00ae 13       		.uleb128 0x13
 2393 00af 00       		.byte	0
 2394 00b0 00       		.byte	0
 2395 00b1 10       		.uleb128 0x10
 2396 00b2 05       		.uleb128 0x5
 2397 00b3 00       		.byte	0
 2398 00b4 49       		.uleb128 0x49
 2399 00b5 13       		.uleb128 0x13
 2400 00b6 00       		.byte	0
 2401 00b7 00       		.byte	0
 2402 00b8 11       		.uleb128 0x11
 2403 00b9 2E       		.uleb128 0x2e
 2404 00ba 01       		.byte	0x1
 2405 00bb 03       		.uleb128 0x3
 2406 00bc 0E       		.uleb128 0xe
 2407 00bd 3A       		.uleb128 0x3a
 2408 00be 0B       		.uleb128 0xb
 2409 00bf 3B       		.uleb128 0x3b
 2410 00c0 0B       		.uleb128 0xb
 2411 00c1 27       		.uleb128 0x27
 2412 00c2 19       		.uleb128 0x19
 2413 00c3 20       		.uleb128 0x20
 2414 00c4 0B       		.uleb128 0xb
 2415 00c5 01       		.uleb128 0x1
 2416 00c6 13       		.uleb128 0x13
 2417 00c7 00       		.byte	0
 2418 00c8 00       		.byte	0
 2419 00c9 12       		.uleb128 0x12
 2420 00ca 05       		.uleb128 0x5
 2421 00cb 00       		.byte	0
 2422 00cc 03       		.uleb128 0x3
 2423 00cd 08       		.uleb128 0x8
 2424 00ce 3A       		.uleb128 0x3a
 2425 00cf 0B       		.uleb128 0xb
 2426 00d0 3B       		.uleb128 0x3b
 2427 00d1 0B       		.uleb128 0xb
 2428 00d2 49       		.uleb128 0x49
 2429 00d3 13       		.uleb128 0x13
 2430 00d4 00       		.byte	0
 2431 00d5 00       		.byte	0
 2432 00d6 13       		.uleb128 0x13
 2433 00d7 2E       		.uleb128 0x2e
 2434 00d8 01       		.byte	0x1
 2435 00d9 03       		.uleb128 0x3
 2436 00da 0E       		.uleb128 0xe
 2437 00db 3A       		.uleb128 0x3a
 2438 00dc 0B       		.uleb128 0xb
 2439 00dd 3B       		.uleb128 0x3b
 2440 00de 0B       		.uleb128 0xb
 2441 00df 27       		.uleb128 0x27
 2442 00e0 19       		.uleb128 0x19
 2443 00e1 49       		.uleb128 0x49
ARM GAS  /tmp/cc4aEB7N.s 			page 44


 2444 00e2 13       		.uleb128 0x13
 2445 00e3 20       		.uleb128 0x20
 2446 00e4 0B       		.uleb128 0xb
 2447 00e5 01       		.uleb128 0x1
 2448 00e6 13       		.uleb128 0x13
 2449 00e7 00       		.byte	0
 2450 00e8 00       		.byte	0
 2451 00e9 14       		.uleb128 0x14
 2452 00ea 34       		.uleb128 0x34
 2453 00eb 00       		.byte	0
 2454 00ec 03       		.uleb128 0x3
 2455 00ed 08       		.uleb128 0x8
 2456 00ee 3A       		.uleb128 0x3a
 2457 00ef 0B       		.uleb128 0xb
 2458 00f0 3B       		.uleb128 0x3b
 2459 00f1 0B       		.uleb128 0xb
 2460 00f2 49       		.uleb128 0x49
 2461 00f3 13       		.uleb128 0x13
 2462 00f4 00       		.byte	0
 2463 00f5 00       		.byte	0
 2464 00f6 15       		.uleb128 0x15
 2465 00f7 2E       		.uleb128 0x2e
 2466 00f8 01       		.byte	0x1
 2467 00f9 03       		.uleb128 0x3
 2468 00fa 0E       		.uleb128 0xe
 2469 00fb 3A       		.uleb128 0x3a
 2470 00fc 0B       		.uleb128 0xb
 2471 00fd 3B       		.uleb128 0x3b
 2472 00fe 0B       		.uleb128 0xb
 2473 00ff 27       		.uleb128 0x27
 2474 0100 19       		.uleb128 0x19
 2475 0101 49       		.uleb128 0x49
 2476 0102 13       		.uleb128 0x13
 2477 0103 11       		.uleb128 0x11
 2478 0104 01       		.uleb128 0x1
 2479 0105 12       		.uleb128 0x12
 2480 0106 06       		.uleb128 0x6
 2481 0107 40       		.uleb128 0x40
 2482 0108 18       		.uleb128 0x18
 2483 0109 9742     		.uleb128 0x2117
 2484 010b 19       		.uleb128 0x19
 2485 010c 01       		.uleb128 0x1
 2486 010d 13       		.uleb128 0x13
 2487 010e 00       		.byte	0
 2488 010f 00       		.byte	0
 2489 0110 16       		.uleb128 0x16
 2490 0111 05       		.uleb128 0x5
 2491 0112 00       		.byte	0
 2492 0113 03       		.uleb128 0x3
 2493 0114 08       		.uleb128 0x8
 2494 0115 3A       		.uleb128 0x3a
 2495 0116 0B       		.uleb128 0xb
 2496 0117 3B       		.uleb128 0x3b
 2497 0118 0B       		.uleb128 0xb
 2498 0119 49       		.uleb128 0x49
 2499 011a 13       		.uleb128 0x13
 2500 011b 02       		.uleb128 0x2
ARM GAS  /tmp/cc4aEB7N.s 			page 45


 2501 011c 17       		.uleb128 0x17
 2502 011d 00       		.byte	0
 2503 011e 00       		.byte	0
 2504 011f 17       		.uleb128 0x17
 2505 0120 05       		.uleb128 0x5
 2506 0121 00       		.byte	0
 2507 0122 03       		.uleb128 0x3
 2508 0123 0E       		.uleb128 0xe
 2509 0124 3A       		.uleb128 0x3a
 2510 0125 0B       		.uleb128 0xb
 2511 0126 3B       		.uleb128 0x3b
 2512 0127 0B       		.uleb128 0xb
 2513 0128 49       		.uleb128 0x49
 2514 0129 13       		.uleb128 0x13
 2515 012a 02       		.uleb128 0x2
 2516 012b 17       		.uleb128 0x17
 2517 012c 00       		.byte	0
 2518 012d 00       		.byte	0
 2519 012e 18       		.uleb128 0x18
 2520 012f 1D       		.uleb128 0x1d
 2521 0130 01       		.byte	0x1
 2522 0131 31       		.uleb128 0x31
 2523 0132 13       		.uleb128 0x13
 2524 0133 11       		.uleb128 0x11
 2525 0134 01       		.uleb128 0x1
 2526 0135 12       		.uleb128 0x12
 2527 0136 06       		.uleb128 0x6
 2528 0137 58       		.uleb128 0x58
 2529 0138 0B       		.uleb128 0xb
 2530 0139 59       		.uleb128 0x59
 2531 013a 0B       		.uleb128 0xb
 2532 013b 01       		.uleb128 0x1
 2533 013c 13       		.uleb128 0x13
 2534 013d 00       		.byte	0
 2535 013e 00       		.byte	0
 2536 013f 19       		.uleb128 0x19
 2537 0140 05       		.uleb128 0x5
 2538 0141 00       		.byte	0
 2539 0142 31       		.uleb128 0x31
 2540 0143 13       		.uleb128 0x13
 2541 0144 02       		.uleb128 0x2
 2542 0145 17       		.uleb128 0x17
 2543 0146 00       		.byte	0
 2544 0147 00       		.byte	0
 2545 0148 1A       		.uleb128 0x1a
 2546 0149 898201   		.uleb128 0x4109
 2547 014c 01       		.byte	0x1
 2548 014d 11       		.uleb128 0x11
 2549 014e 01       		.uleb128 0x1
 2550 014f 31       		.uleb128 0x31
 2551 0150 13       		.uleb128 0x13
 2552 0151 00       		.byte	0
 2553 0152 00       		.byte	0
 2554 0153 1B       		.uleb128 0x1b
 2555 0154 8A8201   		.uleb128 0x410a
 2556 0157 00       		.byte	0
 2557 0158 02       		.uleb128 0x2
ARM GAS  /tmp/cc4aEB7N.s 			page 46


 2558 0159 18       		.uleb128 0x18
 2559 015a 9142     		.uleb128 0x2111
 2560 015c 18       		.uleb128 0x18
 2561 015d 00       		.byte	0
 2562 015e 00       		.byte	0
 2563 015f 1C       		.uleb128 0x1c
 2564 0160 2E       		.uleb128 0x2e
 2565 0161 01       		.byte	0x1
 2566 0162 3F       		.uleb128 0x3f
 2567 0163 19       		.uleb128 0x19
 2568 0164 03       		.uleb128 0x3
 2569 0165 0E       		.uleb128 0xe
 2570 0166 3A       		.uleb128 0x3a
 2571 0167 0B       		.uleb128 0xb
 2572 0168 3B       		.uleb128 0x3b
 2573 0169 0B       		.uleb128 0xb
 2574 016a 27       		.uleb128 0x27
 2575 016b 19       		.uleb128 0x19
 2576 016c 11       		.uleb128 0x11
 2577 016d 01       		.uleb128 0x1
 2578 016e 12       		.uleb128 0x12
 2579 016f 06       		.uleb128 0x6
 2580 0170 40       		.uleb128 0x40
 2581 0171 18       		.uleb128 0x18
 2582 0172 9742     		.uleb128 0x2117
 2583 0174 19       		.uleb128 0x19
 2584 0175 01       		.uleb128 0x1
 2585 0176 13       		.uleb128 0x13
 2586 0177 00       		.byte	0
 2587 0178 00       		.byte	0
 2588 0179 1D       		.uleb128 0x1d
 2589 017a 05       		.uleb128 0x5
 2590 017b 00       		.byte	0
 2591 017c 03       		.uleb128 0x3
 2592 017d 08       		.uleb128 0x8
 2593 017e 3A       		.uleb128 0x3a
 2594 017f 0B       		.uleb128 0xb
 2595 0180 3B       		.uleb128 0x3b
 2596 0181 0B       		.uleb128 0xb
 2597 0182 49       		.uleb128 0x49
 2598 0183 13       		.uleb128 0x13
 2599 0184 02       		.uleb128 0x2
 2600 0185 18       		.uleb128 0x18
 2601 0186 00       		.byte	0
 2602 0187 00       		.byte	0
 2603 0188 1E       		.uleb128 0x1e
 2604 0189 05       		.uleb128 0x5
 2605 018a 00       		.byte	0
 2606 018b 03       		.uleb128 0x3
 2607 018c 0E       		.uleb128 0xe
 2608 018d 3A       		.uleb128 0x3a
 2609 018e 0B       		.uleb128 0xb
 2610 018f 3B       		.uleb128 0x3b
 2611 0190 0B       		.uleb128 0xb
 2612 0191 49       		.uleb128 0x49
 2613 0192 13       		.uleb128 0x13
 2614 0193 02       		.uleb128 0x2
ARM GAS  /tmp/cc4aEB7N.s 			page 47


 2615 0194 18       		.uleb128 0x18
 2616 0195 00       		.byte	0
 2617 0196 00       		.byte	0
 2618 0197 1F       		.uleb128 0x1f
 2619 0198 0B       		.uleb128 0xb
 2620 0199 01       		.byte	0x1
 2621 019a 11       		.uleb128 0x11
 2622 019b 01       		.uleb128 0x1
 2623 019c 12       		.uleb128 0x12
 2624 019d 06       		.uleb128 0x6
 2625 019e 00       		.byte	0
 2626 019f 00       		.byte	0
 2627 01a0 20       		.uleb128 0x20
 2628 01a1 34       		.uleb128 0x34
 2629 01a2 00       		.byte	0
 2630 01a3 31       		.uleb128 0x31
 2631 01a4 13       		.uleb128 0x13
 2632 01a5 02       		.uleb128 0x2
 2633 01a6 17       		.uleb128 0x17
 2634 01a7 00       		.byte	0
 2635 01a8 00       		.byte	0
 2636 01a9 21       		.uleb128 0x21
 2637 01aa 898201   		.uleb128 0x4109
 2638 01ad 00       		.byte	0
 2639 01ae 11       		.uleb128 0x11
 2640 01af 01       		.uleb128 0x1
 2641 01b0 31       		.uleb128 0x31
 2642 01b1 13       		.uleb128 0x13
 2643 01b2 00       		.byte	0
 2644 01b3 00       		.byte	0
 2645 01b4 22       		.uleb128 0x22
 2646 01b5 2E       		.uleb128 0x2e
 2647 01b6 01       		.byte	0x1
 2648 01b7 3F       		.uleb128 0x3f
 2649 01b8 19       		.uleb128 0x19
 2650 01b9 03       		.uleb128 0x3
 2651 01ba 0E       		.uleb128 0xe
 2652 01bb 3A       		.uleb128 0x3a
 2653 01bc 0B       		.uleb128 0xb
 2654 01bd 3B       		.uleb128 0x3b
 2655 01be 0B       		.uleb128 0xb
 2656 01bf 27       		.uleb128 0x27
 2657 01c0 19       		.uleb128 0x19
 2658 01c1 49       		.uleb128 0x49
 2659 01c2 13       		.uleb128 0x13
 2660 01c3 11       		.uleb128 0x11
 2661 01c4 01       		.uleb128 0x1
 2662 01c5 12       		.uleb128 0x12
 2663 01c6 06       		.uleb128 0x6
 2664 01c7 40       		.uleb128 0x40
 2665 01c8 18       		.uleb128 0x18
 2666 01c9 9742     		.uleb128 0x2117
 2667 01cb 19       		.uleb128 0x19
 2668 01cc 01       		.uleb128 0x1
 2669 01cd 13       		.uleb128 0x13
 2670 01ce 00       		.byte	0
 2671 01cf 00       		.byte	0
ARM GAS  /tmp/cc4aEB7N.s 			page 48


 2672 01d0 23       		.uleb128 0x23
 2673 01d1 34       		.uleb128 0x34
 2674 01d2 00       		.byte	0
 2675 01d3 03       		.uleb128 0x3
 2676 01d4 08       		.uleb128 0x8
 2677 01d5 3A       		.uleb128 0x3a
 2678 01d6 0B       		.uleb128 0xb
 2679 01d7 3B       		.uleb128 0x3b
 2680 01d8 0B       		.uleb128 0xb
 2681 01d9 49       		.uleb128 0x49
 2682 01da 13       		.uleb128 0x13
 2683 01db 02       		.uleb128 0x2
 2684 01dc 17       		.uleb128 0x17
 2685 01dd 00       		.byte	0
 2686 01de 00       		.byte	0
 2687 01df 24       		.uleb128 0x24
 2688 01e0 0B       		.uleb128 0xb
 2689 01e1 01       		.byte	0x1
 2690 01e2 11       		.uleb128 0x11
 2691 01e3 01       		.uleb128 0x1
 2692 01e4 12       		.uleb128 0x12
 2693 01e5 06       		.uleb128 0x6
 2694 01e6 01       		.uleb128 0x1
 2695 01e7 13       		.uleb128 0x13
 2696 01e8 00       		.byte	0
 2697 01e9 00       		.byte	0
 2698 01ea 25       		.uleb128 0x25
 2699 01eb 898201   		.uleb128 0x4109
 2700 01ee 01       		.byte	0x1
 2701 01ef 11       		.uleb128 0x11
 2702 01f0 01       		.uleb128 0x1
 2703 01f1 00       		.byte	0
 2704 01f2 00       		.byte	0
 2705 01f3 26       		.uleb128 0x26
 2706 01f4 898201   		.uleb128 0x4109
 2707 01f7 01       		.byte	0x1
 2708 01f8 11       		.uleb128 0x11
 2709 01f9 01       		.uleb128 0x1
 2710 01fa 9342     		.uleb128 0x2113
 2711 01fc 18       		.uleb128 0x18
 2712 01fd 01       		.uleb128 0x1
 2713 01fe 13       		.uleb128 0x13
 2714 01ff 00       		.byte	0
 2715 0200 00       		.byte	0
 2716 0201 27       		.uleb128 0x27
 2717 0202 2E       		.uleb128 0x2e
 2718 0203 01       		.byte	0x1
 2719 0204 3F       		.uleb128 0x3f
 2720 0205 19       		.uleb128 0x19
 2721 0206 03       		.uleb128 0x3
 2722 0207 0E       		.uleb128 0xe
 2723 0208 3A       		.uleb128 0x3a
 2724 0209 0B       		.uleb128 0xb
 2725 020a 3B       		.uleb128 0x3b
 2726 020b 05       		.uleb128 0x5
 2727 020c 27       		.uleb128 0x27
 2728 020d 19       		.uleb128 0x19
ARM GAS  /tmp/cc4aEB7N.s 			page 49


 2729 020e 11       		.uleb128 0x11
 2730 020f 01       		.uleb128 0x1
 2731 0210 12       		.uleb128 0x12
 2732 0211 06       		.uleb128 0x6
 2733 0212 40       		.uleb128 0x40
 2734 0213 18       		.uleb128 0x18
 2735 0214 9742     		.uleb128 0x2117
 2736 0216 19       		.uleb128 0x19
 2737 0217 01       		.uleb128 0x1
 2738 0218 13       		.uleb128 0x13
 2739 0219 00       		.byte	0
 2740 021a 00       		.byte	0
 2741 021b 28       		.uleb128 0x28
 2742 021c 05       		.uleb128 0x5
 2743 021d 00       		.byte	0
 2744 021e 03       		.uleb128 0x3
 2745 021f 08       		.uleb128 0x8
 2746 0220 3A       		.uleb128 0x3a
 2747 0221 0B       		.uleb128 0xb
 2748 0222 3B       		.uleb128 0x3b
 2749 0223 05       		.uleb128 0x5
 2750 0224 49       		.uleb128 0x49
 2751 0225 13       		.uleb128 0x13
 2752 0226 02       		.uleb128 0x2
 2753 0227 18       		.uleb128 0x18
 2754 0228 00       		.byte	0
 2755 0229 00       		.byte	0
 2756 022a 29       		.uleb128 0x29
 2757 022b 05       		.uleb128 0x5
 2758 022c 00       		.byte	0
 2759 022d 03       		.uleb128 0x3
 2760 022e 08       		.uleb128 0x8
 2761 022f 3A       		.uleb128 0x3a
 2762 0230 0B       		.uleb128 0xb
 2763 0231 3B       		.uleb128 0x3b
 2764 0232 05       		.uleb128 0x5
 2765 0233 49       		.uleb128 0x49
 2766 0234 13       		.uleb128 0x13
 2767 0235 02       		.uleb128 0x2
 2768 0236 17       		.uleb128 0x17
 2769 0237 00       		.byte	0
 2770 0238 00       		.byte	0
 2771 0239 2A       		.uleb128 0x2a
 2772 023a 05       		.uleb128 0x5
 2773 023b 00       		.byte	0
 2774 023c 03       		.uleb128 0x3
 2775 023d 0E       		.uleb128 0xe
 2776 023e 3A       		.uleb128 0x3a
 2777 023f 0B       		.uleb128 0xb
 2778 0240 3B       		.uleb128 0x3b
 2779 0241 05       		.uleb128 0x5
 2780 0242 49       		.uleb128 0x49
 2781 0243 13       		.uleb128 0x13
 2782 0244 02       		.uleb128 0x2
 2783 0245 18       		.uleb128 0x18
 2784 0246 00       		.byte	0
 2785 0247 00       		.byte	0
ARM GAS  /tmp/cc4aEB7N.s 			page 50


 2786 0248 2B       		.uleb128 0x2b
 2787 0249 05       		.uleb128 0x5
 2788 024a 00       		.byte	0
 2789 024b 03       		.uleb128 0x3
 2790 024c 0E       		.uleb128 0xe
 2791 024d 3A       		.uleb128 0x3a
 2792 024e 0B       		.uleb128 0xb
 2793 024f 3B       		.uleb128 0x3b
 2794 0250 05       		.uleb128 0x5
 2795 0251 49       		.uleb128 0x49
 2796 0252 13       		.uleb128 0x13
 2797 0253 02       		.uleb128 0x2
 2798 0254 17       		.uleb128 0x17
 2799 0255 00       		.byte	0
 2800 0256 00       		.byte	0
 2801 0257 2C       		.uleb128 0x2c
 2802 0258 1D       		.uleb128 0x1d
 2803 0259 01       		.byte	0x1
 2804 025a 31       		.uleb128 0x31
 2805 025b 13       		.uleb128 0x13
 2806 025c 11       		.uleb128 0x11
 2807 025d 01       		.uleb128 0x1
 2808 025e 12       		.uleb128 0x12
 2809 025f 06       		.uleb128 0x6
 2810 0260 58       		.uleb128 0x58
 2811 0261 0B       		.uleb128 0xb
 2812 0262 59       		.uleb128 0x59
 2813 0263 05       		.uleb128 0x5
 2814 0264 01       		.uleb128 0x1
 2815 0265 13       		.uleb128 0x13
 2816 0266 00       		.byte	0
 2817 0267 00       		.byte	0
 2818 0268 2D       		.uleb128 0x2d
 2819 0269 2E       		.uleb128 0x2e
 2820 026a 01       		.byte	0x1
 2821 026b 3F       		.uleb128 0x3f
 2822 026c 19       		.uleb128 0x19
 2823 026d 03       		.uleb128 0x3
 2824 026e 0E       		.uleb128 0xe
 2825 026f 3A       		.uleb128 0x3a
 2826 0270 0B       		.uleb128 0xb
 2827 0271 3B       		.uleb128 0x3b
 2828 0272 05       		.uleb128 0x5
 2829 0273 27       		.uleb128 0x27
 2830 0274 19       		.uleb128 0x19
 2831 0275 49       		.uleb128 0x49
 2832 0276 13       		.uleb128 0x13
 2833 0277 11       		.uleb128 0x11
 2834 0278 01       		.uleb128 0x1
 2835 0279 12       		.uleb128 0x12
 2836 027a 06       		.uleb128 0x6
 2837 027b 40       		.uleb128 0x40
 2838 027c 18       		.uleb128 0x18
 2839 027d 9742     		.uleb128 0x2117
 2840 027f 19       		.uleb128 0x19
 2841 0280 01       		.uleb128 0x1
 2842 0281 13       		.uleb128 0x13
ARM GAS  /tmp/cc4aEB7N.s 			page 51


 2843 0282 00       		.byte	0
 2844 0283 00       		.byte	0
 2845 0284 2E       		.uleb128 0x2e
 2846 0285 0B       		.uleb128 0xb
 2847 0286 01       		.byte	0x1
 2848 0287 55       		.uleb128 0x55
 2849 0288 17       		.uleb128 0x17
 2850 0289 01       		.uleb128 0x1
 2851 028a 13       		.uleb128 0x13
 2852 028b 00       		.byte	0
 2853 028c 00       		.byte	0
 2854 028d 2F       		.uleb128 0x2f
 2855 028e 34       		.uleb128 0x34
 2856 028f 00       		.byte	0
 2857 0290 03       		.uleb128 0x3
 2858 0291 08       		.uleb128 0x8
 2859 0292 3A       		.uleb128 0x3a
 2860 0293 0B       		.uleb128 0xb
 2861 0294 3B       		.uleb128 0x3b
 2862 0295 05       		.uleb128 0x5
 2863 0296 49       		.uleb128 0x49
 2864 0297 13       		.uleb128 0x13
 2865 0298 02       		.uleb128 0x2
 2866 0299 17       		.uleb128 0x17
 2867 029a 00       		.byte	0
 2868 029b 00       		.byte	0
 2869 029c 30       		.uleb128 0x30
 2870 029d 34       		.uleb128 0x34
 2871 029e 00       		.byte	0
 2872 029f 03       		.uleb128 0x3
 2873 02a0 0E       		.uleb128 0xe
 2874 02a1 3A       		.uleb128 0x3a
 2875 02a2 0B       		.uleb128 0xb
 2876 02a3 3B       		.uleb128 0x3b
 2877 02a4 0B       		.uleb128 0xb
 2878 02a5 49       		.uleb128 0x49
 2879 02a6 13       		.uleb128 0x13
 2880 02a7 3F       		.uleb128 0x3f
 2881 02a8 19       		.uleb128 0x19
 2882 02a9 3C       		.uleb128 0x3c
 2883 02aa 19       		.uleb128 0x19
 2884 02ab 00       		.byte	0
 2885 02ac 00       		.byte	0
 2886 02ad 31       		.uleb128 0x31
 2887 02ae 2E       		.uleb128 0x2e
 2888 02af 01       		.byte	0x1
 2889 02b0 3F       		.uleb128 0x3f
 2890 02b1 19       		.uleb128 0x19
 2891 02b2 03       		.uleb128 0x3
 2892 02b3 0E       		.uleb128 0xe
 2893 02b4 3A       		.uleb128 0x3a
 2894 02b5 0B       		.uleb128 0xb
 2895 02b6 3B       		.uleb128 0x3b
 2896 02b7 0B       		.uleb128 0xb
 2897 02b8 27       		.uleb128 0x27
 2898 02b9 19       		.uleb128 0x19
 2899 02ba 49       		.uleb128 0x49
ARM GAS  /tmp/cc4aEB7N.s 			page 52


 2900 02bb 13       		.uleb128 0x13
 2901 02bc 3C       		.uleb128 0x3c
 2902 02bd 19       		.uleb128 0x19
 2903 02be 01       		.uleb128 0x1
 2904 02bf 13       		.uleb128 0x13
 2905 02c0 00       		.byte	0
 2906 02c1 00       		.byte	0
 2907 02c2 32       		.uleb128 0x32
 2908 02c3 2E       		.uleb128 0x2e
 2909 02c4 01       		.byte	0x1
 2910 02c5 3F       		.uleb128 0x3f
 2911 02c6 19       		.uleb128 0x19
 2912 02c7 03       		.uleb128 0x3
 2913 02c8 0E       		.uleb128 0xe
 2914 02c9 3A       		.uleb128 0x3a
 2915 02ca 0B       		.uleb128 0xb
 2916 02cb 3B       		.uleb128 0x3b
 2917 02cc 0B       		.uleb128 0xb
 2918 02cd 27       		.uleb128 0x27
 2919 02ce 19       		.uleb128 0x19
 2920 02cf 49       		.uleb128 0x49
 2921 02d0 13       		.uleb128 0x13
 2922 02d1 3C       		.uleb128 0x3c
 2923 02d2 19       		.uleb128 0x19
 2924 02d3 00       		.byte	0
 2925 02d4 00       		.byte	0
 2926 02d5 00       		.byte	0
 2927              		.section	.debug_loc,"",%progbits
 2928              	.Ldebug_loc0:
 2929              	.LLST0:
 2930 0000 00000000 		.4byte	.LVL0
 2931 0004 18000000 		.4byte	.LVL2
 2932 0008 0100     		.2byte	0x1
 2933 000a 50       		.byte	0x50
 2934 000b 18000000 		.4byte	.LVL2
 2935 000f 1E000000 		.4byte	.LVL4
 2936 0013 0400     		.2byte	0x4
 2937 0015 F3       		.byte	0xf3
 2938 0016 01       		.uleb128 0x1
 2939 0017 50       		.byte	0x50
 2940 0018 9F       		.byte	0x9f
 2941 0019 1E000000 		.4byte	.LVL4
 2942 001d 20000000 		.4byte	.LVL5
 2943 0021 0100     		.2byte	0x1
 2944 0023 50       		.byte	0x50
 2945 0024 20000000 		.4byte	.LVL5
 2946 0028 28000000 		.4byte	.LFE7
 2947 002c 0400     		.2byte	0x4
 2948 002e F3       		.byte	0xf3
 2949 002f 01       		.uleb128 0x1
 2950 0030 50       		.byte	0x50
 2951 0031 9F       		.byte	0x9f
 2952 0032 00000000 		.4byte	0
 2953 0036 00000000 		.4byte	0
 2954              	.LLST1:
 2955 003a 00000000 		.4byte	.LVL0
 2956 003e 1B000000 		.4byte	.LVL3-1
ARM GAS  /tmp/cc4aEB7N.s 			page 53


 2957 0042 0100     		.2byte	0x1
 2958 0044 51       		.byte	0x51
 2959 0045 1B000000 		.4byte	.LVL3-1
 2960 0049 1E000000 		.4byte	.LVL4
 2961 004d 0400     		.2byte	0x4
 2962 004f F3       		.byte	0xf3
 2963 0050 01       		.uleb128 0x1
 2964 0051 51       		.byte	0x51
 2965 0052 9F       		.byte	0x9f
 2966 0053 1E000000 		.4byte	.LVL4
 2967 0057 28000000 		.4byte	.LFE7
 2968 005b 0100     		.2byte	0x1
 2969 005d 51       		.byte	0x51
 2970 005e 00000000 		.4byte	0
 2971 0062 00000000 		.4byte	0
 2972              	.LLST2:
 2973 0066 0C000000 		.4byte	.LVL1
 2974 006a 18000000 		.4byte	.LVL2
 2975 006e 0100     		.2byte	0x1
 2976 0070 50       		.byte	0x50
 2977 0071 18000000 		.4byte	.LVL2
 2978 0075 1C000000 		.4byte	.LVL3
 2979 0079 0400     		.2byte	0x4
 2980 007b F3       		.byte	0xf3
 2981 007c 01       		.uleb128 0x1
 2982 007d 50       		.byte	0x50
 2983 007e 9F       		.byte	0x9f
 2984 007f 00000000 		.4byte	0
 2985 0083 00000000 		.4byte	0
 2986              	.LLST3:
 2987 0087 0C000000 		.4byte	.LVL1
 2988 008b 1B000000 		.4byte	.LVL3-1
 2989 008f 0100     		.2byte	0x1
 2990 0091 53       		.byte	0x53
 2991 0092 00000000 		.4byte	0
 2992 0096 00000000 		.4byte	0
 2993              	.LLST4:
 2994 009a 00000000 		.4byte	.LVL6
 2995 009e 10000000 		.4byte	.LVL8
 2996 00a2 0100     		.2byte	0x1
 2997 00a4 51       		.byte	0x51
 2998 00a5 10000000 		.4byte	.LVL8
 2999 00a9 1C000000 		.4byte	.LFE8
 3000 00ad 0200     		.2byte	0x2
 3001 00af 70       		.byte	0x70
 3002 00b0 14       		.sleb128 20
 3003 00b1 00000000 		.4byte	0
 3004 00b5 00000000 		.4byte	0
 3005              	.LLST5:
 3006 00b9 00000000 		.4byte	.LVL6
 3007 00bd 06000000 		.4byte	.LVL7
 3008 00c1 0100     		.2byte	0x1
 3009 00c3 53       		.byte	0x53
 3010 00c4 06000000 		.4byte	.LVL7
 3011 00c8 1C000000 		.4byte	.LFE8
 3012 00cc 0200     		.2byte	0x2
 3013 00ce 70       		.byte	0x70
ARM GAS  /tmp/cc4aEB7N.s 			page 54


 3014 00cf 1C       		.sleb128 28
 3015 00d0 00000000 		.4byte	0
 3016 00d4 00000000 		.4byte	0
 3017              	.LLST6:
 3018 00d8 00000000 		.4byte	.LVL9
 3019 00dc 10000000 		.4byte	.LVL10
 3020 00e0 0100     		.2byte	0x1
 3021 00e2 50       		.byte	0x50
 3022 00e3 10000000 		.4byte	.LVL10
 3023 00e7 2A000000 		.4byte	.LVL14
 3024 00eb 0100     		.2byte	0x1
 3025 00ed 54       		.byte	0x54
 3026 00ee 2A000000 		.4byte	.LVL14
 3027 00f2 2C000000 		.4byte	.LFE9
 3028 00f6 0400     		.2byte	0x4
 3029 00f8 F3       		.byte	0xf3
 3030 00f9 01       		.uleb128 0x1
 3031 00fa 50       		.byte	0x50
 3032 00fb 9F       		.byte	0x9f
 3033 00fc 00000000 		.4byte	0
 3034 0100 00000000 		.4byte	0
 3035              	.LLST7:
 3036 0104 18000000 		.4byte	.LVL11
 3037 0108 2A000000 		.4byte	.LVL13
 3038 010c 0100     		.2byte	0x1
 3039 010e 54       		.byte	0x54
 3040 010f 00000000 		.4byte	0
 3041 0113 00000000 		.4byte	0
 3042              	.LLST8:
 3043 0117 18000000 		.4byte	.LVL11
 3044 011b 21000000 		.4byte	.LVL12-1
 3045 011f 0100     		.2byte	0x1
 3046 0121 50       		.byte	0x50
 3047 0122 00000000 		.4byte	0
 3048 0126 00000000 		.4byte	0
 3049              	.LLST9:
 3050 012a 00000000 		.4byte	.LVL15
 3051 012e 2C000000 		.4byte	.LVL17
 3052 0132 0100     		.2byte	0x1
 3053 0134 50       		.byte	0x50
 3054 0135 2C000000 		.4byte	.LVL17
 3055 0139 2F000000 		.4byte	.LVL18-1
 3056 013d 0200     		.2byte	0x2
 3057 013f 72       		.byte	0x72
 3058 0140 04       		.sleb128 4
 3059 0141 2F000000 		.4byte	.LVL18-1
 3060 0145 38000000 		.4byte	.LVL20
 3061 0149 0400     		.2byte	0x4
 3062 014b F3       		.byte	0xf3
 3063 014c 01       		.uleb128 0x1
 3064 014d 50       		.byte	0x50
 3065 014e 9F       		.byte	0x9f
 3066 014f 38000000 		.4byte	.LVL20
 3067 0153 44000000 		.4byte	.LVL21
 3068 0157 0100     		.2byte	0x1
 3069 0159 50       		.byte	0x50
 3070 015a 44000000 		.4byte	.LVL21
ARM GAS  /tmp/cc4aEB7N.s 			page 55


 3071 015e 46000000 		.4byte	.LVL22
 3072 0162 0400     		.2byte	0x4
 3073 0164 F3       		.byte	0xf3
 3074 0165 01       		.uleb128 0x1
 3075 0166 50       		.byte	0x50
 3076 0167 9F       		.byte	0x9f
 3077 0168 46000000 		.4byte	.LVL22
 3078 016c 4E000000 		.4byte	.LVL23
 3079 0170 0100     		.2byte	0x1
 3080 0172 50       		.byte	0x50
 3081 0173 4E000000 		.4byte	.LVL23
 3082 0177 52000000 		.4byte	.LFE10
 3083 017b 0400     		.2byte	0x4
 3084 017d F3       		.byte	0xf3
 3085 017e 01       		.uleb128 0x1
 3086 017f 50       		.byte	0x50
 3087 0180 9F       		.byte	0x9f
 3088 0181 00000000 		.4byte	0
 3089 0185 00000000 		.4byte	0
 3090              	.LLST10:
 3091 0189 00000000 		.4byte	.LVL15
 3092 018d 2F000000 		.4byte	.LVL18-1
 3093 0191 0100     		.2byte	0x1
 3094 0193 51       		.byte	0x51
 3095 0194 2F000000 		.4byte	.LVL18-1
 3096 0198 38000000 		.4byte	.LVL20
 3097 019c 0400     		.2byte	0x4
 3098 019e F3       		.byte	0xf3
 3099 019f 01       		.uleb128 0x1
 3100 01a0 51       		.byte	0x51
 3101 01a1 9F       		.byte	0x9f
 3102 01a2 38000000 		.4byte	.LVL20
 3103 01a6 52000000 		.4byte	.LFE10
 3104 01aa 0100     		.2byte	0x1
 3105 01ac 51       		.byte	0x51
 3106 01ad 00000000 		.4byte	0
 3107 01b1 00000000 		.4byte	0
 3108              	.LLST11:
 3109 01b5 24000000 		.4byte	.LVL16
 3110 01b9 2C000000 		.4byte	.LVL17
 3111 01bd 0100     		.2byte	0x1
 3112 01bf 50       		.byte	0x50
 3113 01c0 2C000000 		.4byte	.LVL17
 3114 01c4 2F000000 		.4byte	.LVL18-1
 3115 01c8 0200     		.2byte	0x2
 3116 01ca 72       		.byte	0x72
 3117 01cb 04       		.sleb128 4
 3118 01cc 2F000000 		.4byte	.LVL18-1
 3119 01d0 36000000 		.4byte	.LVL19
 3120 01d4 0400     		.2byte	0x4
 3121 01d6 F3       		.byte	0xf3
 3122 01d7 01       		.uleb128 0x1
 3123 01d8 50       		.byte	0x50
 3124 01d9 9F       		.byte	0x9f
 3125 01da 00000000 		.4byte	0
 3126 01de 00000000 		.4byte	0
 3127              	.LLST12:
ARM GAS  /tmp/cc4aEB7N.s 			page 56


 3128 01e2 24000000 		.4byte	.LVL16
 3129 01e6 2F000000 		.4byte	.LVL18-1
 3130 01ea 0100     		.2byte	0x1
 3131 01ec 53       		.byte	0x53
 3132 01ed 00000000 		.4byte	0
 3133 01f1 00000000 		.4byte	0
 3134              	.LLST13:
 3135 01f5 00000000 		.4byte	.LVL24
 3136 01f9 0F000000 		.4byte	.LVL25-1
 3137 01fd 0100     		.2byte	0x1
 3138 01ff 50       		.byte	0x50
 3139 0200 0F000000 		.4byte	.LVL25-1
 3140 0204 3C000000 		.4byte	.LVL32
 3141 0208 0100     		.2byte	0x1
 3142 020a 54       		.byte	0x54
 3143 020b 3C000000 		.4byte	.LVL32
 3144 020f 3E000000 		.4byte	.LFE11
 3145 0213 0400     		.2byte	0x4
 3146 0215 F3       		.byte	0xf3
 3147 0216 01       		.uleb128 0x1
 3148 0217 50       		.byte	0x50
 3149 0218 9F       		.byte	0x9f
 3150 0219 00000000 		.4byte	0
 3151 021d 00000000 		.4byte	0
 3152              	.LLST14:
 3153 0221 00000000 		.4byte	.LVL24
 3154 0225 0F000000 		.4byte	.LVL25-1
 3155 0229 0100     		.2byte	0x1
 3156 022b 51       		.byte	0x51
 3157 022c 0F000000 		.4byte	.LVL25-1
 3158 0230 3C000000 		.4byte	.LVL33
 3159 0234 0100     		.2byte	0x1
 3160 0236 55       		.byte	0x55
 3161 0237 3C000000 		.4byte	.LVL33
 3162 023b 3E000000 		.4byte	.LFE11
 3163 023f 0400     		.2byte	0x4
 3164 0241 F3       		.byte	0xf3
 3165 0242 01       		.uleb128 0x1
 3166 0243 51       		.byte	0x51
 3167 0244 9F       		.byte	0x9f
 3168 0245 00000000 		.4byte	0
 3169 0249 00000000 		.4byte	0
 3170              	.LLST15:
 3171 024d 30000000 		.4byte	.LVL28
 3172 0251 32000000 		.4byte	.LVL29
 3173 0255 0200     		.2byte	0x2
 3174 0257 72       		.byte	0x72
 3175 0258 00       		.sleb128 0
 3176 0259 32000000 		.4byte	.LVL29
 3177 025d 38000000 		.4byte	.LVL30
 3178 0261 0200     		.2byte	0x2
 3179 0263 73       		.byte	0x73
 3180 0264 7F       		.sleb128 -1
 3181 0265 38000000 		.4byte	.LVL30
 3182 0269 3A000000 		.4byte	.LVL31
 3183 026d 0500     		.2byte	0x5
 3184 026f 74       		.byte	0x74
ARM GAS  /tmp/cc4aEB7N.s 			page 57


 3185 0270 18       		.sleb128 24
 3186 0271 06       		.byte	0x6
 3187 0272 31       		.byte	0x31
 3188 0273 1C       		.byte	0x1c
 3189 0274 00000000 		.4byte	0
 3190 0278 00000000 		.4byte	0
 3191              	.LLST16:
 3192 027c 1A000000 		.4byte	.LVL26
 3193 0280 1E000000 		.4byte	.LVL27
 3194 0284 0100     		.2byte	0x1
 3195 0286 50       		.byte	0x50
 3196 0287 00000000 		.4byte	0
 3197 028b 00000000 		.4byte	0
 3198              	.LLST17:
 3199 028f 00000000 		.4byte	.LVL34
 3200 0293 1A000000 		.4byte	.LVL37
 3201 0297 0100     		.2byte	0x1
 3202 0299 50       		.byte	0x50
 3203 029a 1A000000 		.4byte	.LVL37
 3204 029e 64000000 		.4byte	.LVL44
 3205 02a2 0100     		.2byte	0x1
 3206 02a4 54       		.byte	0x54
 3207 02a5 64000000 		.4byte	.LVL44
 3208 02a9 6E000000 		.4byte	.LFE12
 3209 02ad 0400     		.2byte	0x4
 3210 02af F3       		.byte	0xf3
 3211 02b0 01       		.uleb128 0x1
 3212 02b1 50       		.byte	0x50
 3213 02b2 9F       		.byte	0x9f
 3214 02b3 00000000 		.4byte	0
 3215 02b7 00000000 		.4byte	0
 3216              	.LLST18:
 3217 02bb 00000000 		.4byte	.LVL34
 3218 02bf 1A000000 		.4byte	.LVL37
 3219 02c3 0100     		.2byte	0x1
 3220 02c5 51       		.byte	0x51
 3221 02c6 1A000000 		.4byte	.LVL37
 3222 02ca 42000000 		.4byte	.LVL41
 3223 02ce 0600     		.2byte	0x6
 3224 02d0 7A       		.byte	0x7a
 3225 02d1 00       		.sleb128 0
 3226 02d2 77       		.byte	0x77
 3227 02d3 00       		.sleb128 0
 3228 02d4 22       		.byte	0x22
 3229 02d5 9F       		.byte	0x9f
 3230 02d6 42000000 		.4byte	.LVL41
 3231 02da 58000000 		.4byte	.LVL42
 3232 02de 0800     		.2byte	0x8
 3233 02e0 7A       		.byte	0x7a
 3234 02e1 00       		.sleb128 0
 3235 02e2 77       		.byte	0x77
 3236 02e3 00       		.sleb128 0
 3237 02e4 22       		.byte	0x22
 3238 02e5 23       		.byte	0x23
 3239 02e6 01       		.uleb128 0x1
 3240 02e7 9F       		.byte	0x9f
 3241 02e8 58000000 		.4byte	.LVL42
ARM GAS  /tmp/cc4aEB7N.s 			page 58


 3242 02ec 62000000 		.4byte	.LVL43
 3243 02f0 0600     		.2byte	0x6
 3244 02f2 7A       		.byte	0x7a
 3245 02f3 00       		.sleb128 0
 3246 02f4 77       		.byte	0x77
 3247 02f5 00       		.sleb128 0
 3248 02f6 22       		.byte	0x22
 3249 02f7 9F       		.byte	0x9f
 3250 02f8 00000000 		.4byte	0
 3251 02fc 00000000 		.4byte	0
 3252              	.LLST19:
 3253 0300 00000000 		.4byte	.LVL34
 3254 0304 08000000 		.4byte	.LVL35
 3255 0308 0100     		.2byte	0x1
 3256 030a 52       		.byte	0x52
 3257 030b 08000000 		.4byte	.LVL35
 3258 030f 1A000000 		.4byte	.LVL37
 3259 0313 0100     		.2byte	0x1
 3260 0315 59       		.byte	0x59
 3261 0316 1A000000 		.4byte	.LVL37
 3262 031a 62000000 		.4byte	.LVL43
 3263 031e 0600     		.2byte	0x6
 3264 0320 79       		.byte	0x79
 3265 0321 00       		.sleb128 0
 3266 0322 77       		.byte	0x77
 3267 0323 00       		.sleb128 0
 3268 0324 1C       		.byte	0x1c
 3269 0325 9F       		.byte	0x9f
 3270 0326 00000000 		.4byte	0
 3271 032a 00000000 		.4byte	0
 3272              	.LLST20:
 3273 032e 00000000 		.4byte	.LVL34
 3274 0332 1A000000 		.4byte	.LVL37
 3275 0336 0100     		.2byte	0x1
 3276 0338 53       		.byte	0x53
 3277 0339 1A000000 		.4byte	.LVL37
 3278 033d 64000000 		.4byte	.LVL45
 3279 0341 0100     		.2byte	0x1
 3280 0343 56       		.byte	0x56
 3281 0344 64000000 		.4byte	.LVL45
 3282 0348 6E000000 		.4byte	.LFE12
 3283 034c 0400     		.2byte	0x4
 3284 034e F3       		.byte	0xf3
 3285 034f 01       		.uleb128 0x1
 3286 0350 53       		.byte	0x53
 3287 0351 9F       		.byte	0x9f
 3288 0352 00000000 		.4byte	0
 3289 0356 00000000 		.4byte	0
 3290              	.LLST21:
 3291 035a 16000000 		.4byte	.LVL36
 3292 035e 1A000000 		.4byte	.LVL37
 3293 0362 0100     		.2byte	0x1
 3294 0364 52       		.byte	0x52
 3295 0365 1A000000 		.4byte	.LVL37
 3296 0369 20000000 		.4byte	.LVL38
 3297 036d 0100     		.2byte	0x1
 3298 036f 58       		.byte	0x58
ARM GAS  /tmp/cc4aEB7N.s 			page 59


 3299 0370 20000000 		.4byte	.LVL38
 3300 0374 23000000 		.4byte	.LVL39-1
 3301 0378 0100     		.2byte	0x1
 3302 037a 53       		.byte	0x53
 3303 037b 23000000 		.4byte	.LVL39-1
 3304 037f 64000000 		.4byte	.LVL47
 3305 0383 0100     		.2byte	0x1
 3306 0385 58       		.byte	0x58
 3307 0386 00000000 		.4byte	0
 3308 038a 00000000 		.4byte	0
 3309              	.LLST22:
 3310 038e 16000000 		.4byte	.LVL36
 3311 0392 1A000000 		.4byte	.LVL37
 3312 0396 0200     		.2byte	0x2
 3313 0398 30       		.byte	0x30
 3314 0399 9F       		.byte	0x9f
 3315 039a 1A000000 		.4byte	.LVL37
 3316 039e 64000000 		.4byte	.LVL46
 3317 03a2 0100     		.2byte	0x1
 3318 03a4 57       		.byte	0x57
 3319 03a5 64000000 		.4byte	.LVL46
 3320 03a9 6E000000 		.4byte	.LFE12
 3321 03ad 0100     		.2byte	0x1
 3322 03af 50       		.byte	0x50
 3323 03b0 00000000 		.4byte	0
 3324 03b4 00000000 		.4byte	0
 3325              	.LLST23:
 3326 03b8 00000000 		.4byte	.LVL48
 3327 03bc 0C000000 		.4byte	.LVL50
 3328 03c0 0100     		.2byte	0x1
 3329 03c2 51       		.byte	0x51
 3330 03c3 0C000000 		.4byte	.LVL50
 3331 03c7 18000000 		.4byte	.LFE13
 3332 03cb 0200     		.2byte	0x2
 3333 03cd 70       		.byte	0x70
 3334 03ce 14       		.sleb128 20
 3335 03cf 00000000 		.4byte	0
 3336 03d3 00000000 		.4byte	0
 3337              	.LLST24:
 3338 03d7 00000000 		.4byte	.LVL48
 3339 03db 04000000 		.4byte	.LVL49
 3340 03df 0100     		.2byte	0x1
 3341 03e1 53       		.byte	0x53
 3342 03e2 04000000 		.4byte	.LVL49
 3343 03e6 18000000 		.4byte	.LFE13
 3344 03ea 0200     		.2byte	0x2
 3345 03ec 70       		.byte	0x70
 3346 03ed 1C       		.sleb128 28
 3347 03ee 00000000 		.4byte	0
 3348 03f2 00000000 		.4byte	0
 3349              	.LLST25:
 3350 03f6 00000000 		.4byte	.LVL51
 3351 03fa 12000000 		.4byte	.LVL52
 3352 03fe 0100     		.2byte	0x1
 3353 0400 50       		.byte	0x50
 3354 0401 12000000 		.4byte	.LVL52
 3355 0405 2C000000 		.4byte	.LVL56
ARM GAS  /tmp/cc4aEB7N.s 			page 60


 3356 0409 0100     		.2byte	0x1
 3357 040b 54       		.byte	0x54
 3358 040c 2C000000 		.4byte	.LVL56
 3359 0410 2E000000 		.4byte	.LFE14
 3360 0414 0400     		.2byte	0x4
 3361 0416 F3       		.byte	0xf3
 3362 0417 01       		.uleb128 0x1
 3363 0418 50       		.byte	0x50
 3364 0419 9F       		.byte	0x9f
 3365 041a 00000000 		.4byte	0
 3366 041e 00000000 		.4byte	0
 3367              	.LLST26:
 3368 0422 1A000000 		.4byte	.LVL53
 3369 0426 2C000000 		.4byte	.LVL55
 3370 042a 0100     		.2byte	0x1
 3371 042c 54       		.byte	0x54
 3372 042d 00000000 		.4byte	0
 3373 0431 00000000 		.4byte	0
 3374              	.LLST27:
 3375 0435 1A000000 		.4byte	.LVL53
 3376 0439 23000000 		.4byte	.LVL54-1
 3377 043d 0100     		.2byte	0x1
 3378 043f 50       		.byte	0x50
 3379 0440 00000000 		.4byte	0
 3380 0444 00000000 		.4byte	0
 3381              	.LLST28:
 3382 0448 00000000 		.4byte	.LVL57
 3383 044c 0C000000 		.4byte	.LVL58
 3384 0450 0100     		.2byte	0x1
 3385 0452 50       		.byte	0x50
 3386 0453 0C000000 		.4byte	.LVL58
 3387 0457 44000000 		.4byte	.LVL62
 3388 045b 0100     		.2byte	0x1
 3389 045d 54       		.byte	0x54
 3390 045e 44000000 		.4byte	.LVL62
 3391 0462 46000000 		.4byte	.LVL64
 3392 0466 0400     		.2byte	0x4
 3393 0468 F3       		.byte	0xf3
 3394 0469 01       		.uleb128 0x1
 3395 046a 50       		.byte	0x50
 3396 046b 9F       		.byte	0x9f
 3397 046c 46000000 		.4byte	.LVL64
 3398 0470 4A000000 		.4byte	.LFE15
 3399 0474 0100     		.2byte	0x1
 3400 0476 54       		.byte	0x54
 3401 0477 00000000 		.4byte	0
 3402 047b 00000000 		.4byte	0
 3403              	.LLST29:
 3404 047f 00000000 		.4byte	.LVL57
 3405 0483 0C000000 		.4byte	.LVL58
 3406 0487 0100     		.2byte	0x1
 3407 0489 51       		.byte	0x51
 3408 048a 0C000000 		.4byte	.LVL58
 3409 048e 4A000000 		.4byte	.LFE15
 3410 0492 0400     		.2byte	0x4
 3411 0494 F3       		.byte	0xf3
 3412 0495 01       		.uleb128 0x1
ARM GAS  /tmp/cc4aEB7N.s 			page 61


 3413 0496 51       		.byte	0x51
 3414 0497 9F       		.byte	0x9f
 3415 0498 00000000 		.4byte	0
 3416 049c 00000000 		.4byte	0
 3417              	.LLST30:
 3418 04a0 00000000 		.4byte	.LVL57
 3419 04a4 0C000000 		.4byte	.LVL58
 3420 04a8 0100     		.2byte	0x1
 3421 04aa 52       		.byte	0x52
 3422 04ab 0C000000 		.4byte	.LVL58
 3423 04af 44000000 		.4byte	.LVL63
 3424 04b3 0100     		.2byte	0x1
 3425 04b5 55       		.byte	0x55
 3426 04b6 44000000 		.4byte	.LVL63
 3427 04ba 46000000 		.4byte	.LVL64
 3428 04be 0400     		.2byte	0x4
 3429 04c0 F3       		.byte	0xf3
 3430 04c1 01       		.uleb128 0x1
 3431 04c2 52       		.byte	0x52
 3432 04c3 9F       		.byte	0x9f
 3433 04c4 46000000 		.4byte	.LVL64
 3434 04c8 4A000000 		.4byte	.LFE15
 3435 04cc 0100     		.2byte	0x1
 3436 04ce 55       		.byte	0x55
 3437 04cf 00000000 		.4byte	0
 3438 04d3 00000000 		.4byte	0
 3439              	.LLST31:
 3440 04d7 14000000 		.4byte	.LVL59
 3441 04db 18000000 		.4byte	.LVL60
 3442 04df 0100     		.2byte	0x1
 3443 04e1 50       		.byte	0x50
 3444 04e2 46000000 		.4byte	.LVL64
 3445 04e6 4A000000 		.4byte	.LFE15
 3446 04ea 0100     		.2byte	0x1
 3447 04ec 50       		.byte	0x50
 3448 04ed 00000000 		.4byte	0
 3449 04f1 00000000 		.4byte	0
 3450              	.LLST32:
 3451 04f5 00000000 		.4byte	.LVL65
 3452 04f9 2A000000 		.4byte	.LVL70
 3453 04fd 0100     		.2byte	0x1
 3454 04ff 50       		.byte	0x50
 3455 0500 2A000000 		.4byte	.LVL70
 3456 0504 2D000000 		.4byte	.LVL71-1
 3457 0508 0200     		.2byte	0x2
 3458 050a 72       		.byte	0x72
 3459 050b 04       		.sleb128 4
 3460 050c 2D000000 		.4byte	.LVL71-1
 3461 0510 36000000 		.4byte	.LVL74
 3462 0514 0400     		.2byte	0x4
 3463 0516 F3       		.byte	0xf3
 3464 0517 01       		.uleb128 0x1
 3465 0518 50       		.byte	0x50
 3466 0519 9F       		.byte	0x9f
 3467 051a 36000000 		.4byte	.LVL74
 3468 051e 44000000 		.4byte	.LVL77
 3469 0522 0100     		.2byte	0x1
ARM GAS  /tmp/cc4aEB7N.s 			page 62


 3470 0524 50       		.byte	0x50
 3471 0525 44000000 		.4byte	.LVL77
 3472 0529 48000000 		.4byte	.LFE16
 3473 052d 0400     		.2byte	0x4
 3474 052f F3       		.byte	0xf3
 3475 0530 01       		.uleb128 0x1
 3476 0531 50       		.byte	0x50
 3477 0532 9F       		.byte	0x9f
 3478 0533 00000000 		.4byte	0
 3479 0537 00000000 		.4byte	0
 3480              	.LLST33:
 3481 053b 16000000 		.4byte	.LVL66
 3482 053f 18000000 		.4byte	.LVL67
 3483 0543 0200     		.2byte	0x2
 3484 0545 73       		.byte	0x73
 3485 0546 00       		.sleb128 0
 3486 0547 18000000 		.4byte	.LVL67
 3487 054b 1C000000 		.4byte	.LVL68
 3488 054f 0200     		.2byte	0x2
 3489 0551 72       		.byte	0x72
 3490 0552 7F       		.sleb128 -1
 3491 0553 1C000000 		.4byte	.LVL68
 3492 0557 34000000 		.4byte	.LVL73
 3493 055b 0100     		.2byte	0x1
 3494 055d 54       		.byte	0x54
 3495 055e 36000000 		.4byte	.LVL74
 3496 0562 3A000000 		.4byte	.LVL75
 3497 0566 0200     		.2byte	0x2
 3498 0568 72       		.byte	0x72
 3499 0569 7F       		.sleb128 -1
 3500 056a 3A000000 		.4byte	.LVL75
 3501 056e 3C000000 		.4byte	.LVL76
 3502 0572 0100     		.2byte	0x1
 3503 0574 54       		.byte	0x54
 3504 0575 00000000 		.4byte	0
 3505 0579 00000000 		.4byte	0
 3506              	.LLST34:
 3507 057d 22000000 		.4byte	.LVL69
 3508 0581 2A000000 		.4byte	.LVL70
 3509 0585 0100     		.2byte	0x1
 3510 0587 50       		.byte	0x50
 3511 0588 2A000000 		.4byte	.LVL70
 3512 058c 2D000000 		.4byte	.LVL71-1
 3513 0590 0200     		.2byte	0x2
 3514 0592 72       		.byte	0x72
 3515 0593 04       		.sleb128 4
 3516 0594 2D000000 		.4byte	.LVL71-1
 3517 0598 32000000 		.4byte	.LVL72
 3518 059c 0400     		.2byte	0x4
 3519 059e F3       		.byte	0xf3
 3520 059f 01       		.uleb128 0x1
 3521 05a0 50       		.byte	0x50
 3522 05a1 9F       		.byte	0x9f
 3523 05a2 00000000 		.4byte	0
 3524 05a6 00000000 		.4byte	0
 3525              	.LLST35:
 3526 05aa 22000000 		.4byte	.LVL69
ARM GAS  /tmp/cc4aEB7N.s 			page 63


 3527 05ae 2D000000 		.4byte	.LVL71-1
 3528 05b2 0100     		.2byte	0x1
 3529 05b4 53       		.byte	0x53
 3530 05b5 00000000 		.4byte	0
 3531 05b9 00000000 		.4byte	0
 3532              	.LLST36:
 3533 05bd 00000000 		.4byte	.LVL78
 3534 05c1 1C000000 		.4byte	.LVL82
 3535 05c5 0100     		.2byte	0x1
 3536 05c7 50       		.byte	0x50
 3537 05c8 1C000000 		.4byte	.LVL82
 3538 05cc 6E000000 		.4byte	.LVL91
 3539 05d0 0100     		.2byte	0x1
 3540 05d2 54       		.byte	0x54
 3541 05d3 6E000000 		.4byte	.LVL91
 3542 05d7 78000000 		.4byte	.LFE17
 3543 05db 0400     		.2byte	0x4
 3544 05dd F3       		.byte	0xf3
 3545 05de 01       		.uleb128 0x1
 3546 05df 50       		.byte	0x50
 3547 05e0 9F       		.byte	0x9f
 3548 05e1 00000000 		.4byte	0
 3549 05e5 00000000 		.4byte	0
 3550              	.LLST37:
 3551 05e9 00000000 		.4byte	.LVL78
 3552 05ed 1C000000 		.4byte	.LVL82
 3553 05f1 0100     		.2byte	0x1
 3554 05f3 51       		.byte	0x51
 3555 05f4 1C000000 		.4byte	.LVL82
 3556 05f8 30000000 		.4byte	.LVL83
 3557 05fc 0100     		.2byte	0x1
 3558 05fe 57       		.byte	0x57
 3559 05ff 30000000 		.4byte	.LVL83
 3560 0603 58000000 		.4byte	.LVL88
 3561 0607 0100     		.2byte	0x1
 3562 0609 55       		.byte	0x55
 3563 060a 58000000 		.4byte	.LVL88
 3564 060e 6C000000 		.4byte	.LVL90
 3565 0612 0100     		.2byte	0x1
 3566 0614 57       		.byte	0x57
 3567 0615 00000000 		.4byte	0
 3568 0619 00000000 		.4byte	0
 3569              	.LLST38:
 3570 061d 00000000 		.4byte	.LVL78
 3571 0621 0E000000 		.4byte	.LVL79
 3572 0625 0100     		.2byte	0x1
 3573 0627 52       		.byte	0x52
 3574 0628 0E000000 		.4byte	.LVL79
 3575 062c 4E000000 		.4byte	.LVL86
 3576 0630 0100     		.2byte	0x1
 3577 0632 56       		.byte	0x56
 3578 0633 4E000000 		.4byte	.LVL86
 3579 0637 50000000 		.4byte	.LVL87
 3580 063b 0300     		.2byte	0x3
 3581 063d 76       		.byte	0x76
 3582 063e 01       		.sleb128 1
 3583 063f 9F       		.byte	0x9f
ARM GAS  /tmp/cc4aEB7N.s 			page 64


 3584 0640 50000000 		.4byte	.LVL87
 3585 0644 6E000000 		.4byte	.LVL92
 3586 0648 0100     		.2byte	0x1
 3587 064a 56       		.byte	0x56
 3588 064b 00000000 		.4byte	0
 3589 064f 00000000 		.4byte	0
 3590              	.LLST39:
 3591 0653 00000000 		.4byte	.LVL78
 3592 0657 1A000000 		.4byte	.LVL81
 3593 065b 0100     		.2byte	0x1
 3594 065d 53       		.byte	0x53
 3595 065e 1A000000 		.4byte	.LVL81
 3596 0662 6E000000 		.4byte	.LVL95
 3597 0666 0100     		.2byte	0x1
 3598 0668 5A       		.byte	0x5a
 3599 0669 6E000000 		.4byte	.LVL95
 3600 066d 78000000 		.4byte	.LFE17
 3601 0671 0400     		.2byte	0x4
 3602 0673 F3       		.byte	0xf3
 3603 0674 01       		.uleb128 0x1
 3604 0675 53       		.byte	0x53
 3605 0676 9F       		.byte	0x9f
 3606 0677 00000000 		.4byte	0
 3607 067b 00000000 		.4byte	0
 3608              	.LLST40:
 3609 067f 16000000 		.4byte	.LVL80
 3610 0683 1C000000 		.4byte	.LVL82
 3611 0687 0100     		.2byte	0x1
 3612 0689 52       		.byte	0x52
 3613 068a 1C000000 		.4byte	.LVL82
 3614 068e 44000000 		.4byte	.LVL84
 3615 0692 0100     		.2byte	0x1
 3616 0694 59       		.byte	0x59
 3617 0695 44000000 		.4byte	.LVL84
 3618 0699 47000000 		.4byte	.LVL85-1
 3619 069d 0100     		.2byte	0x1
 3620 069f 53       		.byte	0x53
 3621 06a0 47000000 		.4byte	.LVL85-1
 3622 06a4 6E000000 		.4byte	.LVL94
 3623 06a8 0100     		.2byte	0x1
 3624 06aa 59       		.byte	0x59
 3625 06ab 00000000 		.4byte	0
 3626 06af 00000000 		.4byte	0
 3627              	.LLST41:
 3628 06b3 16000000 		.4byte	.LVL80
 3629 06b7 1C000000 		.4byte	.LVL82
 3630 06bb 0200     		.2byte	0x2
 3631 06bd 30       		.byte	0x30
 3632 06be 9F       		.byte	0x9f
 3633 06bf 1C000000 		.4byte	.LVL82
 3634 06c3 6E000000 		.4byte	.LVL93
 3635 06c7 0100     		.2byte	0x1
 3636 06c9 58       		.byte	0x58
 3637 06ca 6E000000 		.4byte	.LVL93
 3638 06ce 78000000 		.4byte	.LFE17
 3639 06d2 0100     		.2byte	0x1
 3640 06d4 50       		.byte	0x50
ARM GAS  /tmp/cc4aEB7N.s 			page 65


 3641 06d5 00000000 		.4byte	0
 3642 06d9 00000000 		.4byte	0
 3643              		.section	.debug_aranges,"",%progbits
 3644 0000 6C000000 		.4byte	0x6c
 3645 0004 0200     		.2byte	0x2
 3646 0006 00000000 		.4byte	.Ldebug_info0
 3647 000a 04       		.byte	0x4
 3648 000b 00       		.byte	0
 3649 000c 0000     		.2byte	0
 3650 000e 0000     		.2byte	0
 3651 0010 00000000 		.4byte	.LFB7
 3652 0014 28000000 		.4byte	.LFE7-.LFB7
 3653 0018 00000000 		.4byte	.LFB8
 3654 001c 1C000000 		.4byte	.LFE8-.LFB8
 3655 0020 00000000 		.4byte	.LFB9
 3656 0024 2C000000 		.4byte	.LFE9-.LFB9
 3657 0028 00000000 		.4byte	.LFB10
 3658 002c 52000000 		.4byte	.LFE10-.LFB10
 3659 0030 00000000 		.4byte	.LFB11
 3660 0034 3E000000 		.4byte	.LFE11-.LFB11
 3661 0038 00000000 		.4byte	.LFB12
 3662 003c 6E000000 		.4byte	.LFE12-.LFB12
 3663 0040 00000000 		.4byte	.LFB13
 3664 0044 18000000 		.4byte	.LFE13-.LFB13
 3665 0048 00000000 		.4byte	.LFB14
 3666 004c 2E000000 		.4byte	.LFE14-.LFB14
 3667 0050 00000000 		.4byte	.LFB15
 3668 0054 4A000000 		.4byte	.LFE15-.LFB15
 3669 0058 00000000 		.4byte	.LFB16
 3670 005c 48000000 		.4byte	.LFE16-.LFB16
 3671 0060 00000000 		.4byte	.LFB17
 3672 0064 78000000 		.4byte	.LFE17-.LFB17
 3673 0068 00000000 		.4byte	0
 3674 006c 00000000 		.4byte	0
 3675              		.section	.debug_ranges,"",%progbits
 3676              	.Ldebug_ranges0:
 3677 0000 0C000000 		.4byte	.LBB21
 3678 0004 18000000 		.4byte	.LBE21
 3679 0008 46000000 		.4byte	.LBB22
 3680 000c 4A000000 		.4byte	.LBE22
 3681 0010 00000000 		.4byte	0
 3682 0014 00000000 		.4byte	0
 3683 0018 00000000 		.4byte	.LFB7
 3684 001c 28000000 		.4byte	.LFE7
 3685 0020 00000000 		.4byte	.LFB8
 3686 0024 1C000000 		.4byte	.LFE8
 3687 0028 00000000 		.4byte	.LFB9
 3688 002c 2C000000 		.4byte	.LFE9
 3689 0030 00000000 		.4byte	.LFB10
 3690 0034 52000000 		.4byte	.LFE10
 3691 0038 00000000 		.4byte	.LFB11
 3692 003c 3E000000 		.4byte	.LFE11
 3693 0040 00000000 		.4byte	.LFB12
 3694 0044 6E000000 		.4byte	.LFE12
 3695 0048 00000000 		.4byte	.LFB13
 3696 004c 18000000 		.4byte	.LFE13
 3697 0050 00000000 		.4byte	.LFB14
ARM GAS  /tmp/cc4aEB7N.s 			page 66


 3698 0054 2E000000 		.4byte	.LFE14
 3699 0058 00000000 		.4byte	.LFB15
 3700 005c 4A000000 		.4byte	.LFE15
 3701 0060 00000000 		.4byte	.LFB16
 3702 0064 48000000 		.4byte	.LFE16
 3703 0068 00000000 		.4byte	.LFB17
 3704 006c 78000000 		.4byte	.LFE17
 3705 0070 00000000 		.4byte	0
 3706 0074 00000000 		.4byte	0
 3707              		.section	.debug_line,"",%progbits
 3708              	.Ldebug_line0:
 3709 0000 17030000 		.section	.debug_str,"MS",%progbits,1
 3709      02006601 
 3709      00000201 
 3709      FB0E0D00 
 3709      01010101 
 3710              	.LASF89:
 3711 0000 63684F51 		.ascii	"chOQInit\000"
 3711      496E6974 
 3711      00
 3712              	.LASF41:
 3713 0009 705F6D73 		.ascii	"p_msg\000"
 3713      6700
 3714              	.LASF98:
 3715 000f 71756575 		.ascii	"queue_insert\000"
 3715      655F696E 
 3715      73657274 
 3715      00
 3716              	.LASF90:
 3717 001c 6F6E6679 		.ascii	"onfy\000"
 3717      00
 3718              	.LASF2:
 3719 0021 73697A65 		.ascii	"size_t\000"
 3719      5F7400
 3720              	.LASF63:
 3721 0028 7264796D 		.ascii	"rdymsg\000"
 3721      736700
 3722              	.LASF84:
 3723 002f 63684951 		.ascii	"chIQInit\000"
 3723      496E6974 
 3723      00
 3724              	.LASF79:
 3725 0038 4F757470 		.ascii	"OutputQueue\000"
 3725      75745175 
 3725      65756500 
 3726              	.LASF3:
 3727 0044 5F5F7569 		.ascii	"__uint8_t\000"
 3727      6E74385F 
 3727      7400
 3728              	.LASF88:
 3729 004e 63684951 		.ascii	"chIQReadTimeout\000"
 3729      52656164 
 3729      54696D65 
 3729      6F757400 
 3730              	.LASF12:
 3731 005e 6C6F6E67 		.ascii	"long long unsigned int\000"
 3731      206C6F6E 
ARM GAS  /tmp/cc4aEB7N.s 			page 67


 3731      6720756E 
 3731      7369676E 
 3731      65642069 
 3732              	.LASF64:
 3733 0075 65786974 		.ascii	"exitcode\000"
 3733      636F6465 
 3733      00
 3734              	.LASF29:
 3735 007e 705F7072 		.ascii	"p_prio\000"
 3735      696F00
 3736              	.LASF69:
 3737 0085 715F7761 		.ascii	"q_waiting\000"
 3737      6974696E 
 3737      6700
 3738              	.LASF11:
 3739 008f 6C6F6E67 		.ascii	"long long int\000"
 3739      206C6F6E 
 3739      6720696E 
 3739      7400
 3740              	.LASF1:
 3741 009d 7369676E 		.ascii	"signed char\000"
 3741      65642063 
 3741      68617200 
 3742              	.LASF45:
 3743 00a9 705F6D70 		.ascii	"p_mpool\000"
 3743      6F6F6C00 
 3744              	.LASF16:
 3745 00b1 626F6F6C 		.ascii	"bool_t\000"
 3745      5F7400
 3746              	.LASF60:
 3747 00b8 6D5F7175 		.ascii	"m_queue\000"
 3747      65756500 
 3748              	.LASF21:
 3749 00c0 74736C69 		.ascii	"tslices_t\000"
 3749      6365735F 
 3749      7400
 3750              	.LASF100:
 3751 00ca 71776169 		.ascii	"qwait\000"
 3751      7400
 3752              	.LASF8:
 3753 00d0 6C6F6E67 		.ascii	"long int\000"
 3753      20696E74 
 3753      00
 3754              	.LASF19:
 3755 00d9 74737461 		.ascii	"tstate_t\000"
 3755      74655F74 
 3755      00
 3756              	.LASF93:
 3757 00e2 63684F51 		.ascii	"chOQGetI\000"
 3757      47657449 
 3757      00
 3758              	.LASF71:
 3759 00eb 715F6275 		.ascii	"q_buffer\000"
 3759      66666572 
 3759      00
 3760              	.LASF73:
 3761 00f4 715F7772 		.ascii	"q_wrptr\000"
ARM GAS  /tmp/cc4aEB7N.s 			page 68


 3761      70747200 
 3762              	.LASF31:
 3763 00fc 705F6E65 		.ascii	"p_newer\000"
 3763      77657200 
 3764              	.LASF95:
 3765 0104 474E5520 		.ascii	"GNU C 4.8.2 -mcpu=cortex-m0 -mno-thumb-interwork -m"
 3765      4320342E 
 3765      382E3220 
 3765      2D6D6370 
 3765      753D636F 
 3766 0137 7468756D 		.ascii	"thumb -ggdb -O2 -fomit-frame-pointer -falign-functi"
 3766      62202D67 
 3766      67646220 
 3766      2D4F3220 
 3766      2D666F6D 
 3767 016a 6F6E733D 		.ascii	"ons=16 -ffunction-sections -fdata-sections -fno-com"
 3767      3136202D 
 3767      6666756E 
 3767      6374696F 
 3767      6E2D7365 
 3768 019d 6D6F6E00 		.ascii	"mon\000"
 3769              	.LASF9:
 3770 01a1 5F5F7569 		.ascii	"__uint32_t\000"
 3770      6E743332 
 3770      5F7400
 3771              	.LASF48:
 3772 01ac 72656761 		.ascii	"regarm_t\000"
 3772      726D5F74 
 3772      00
 3773              	.LASF83:
 3774 01b5 6C696E6B 		.ascii	"link\000"
 3774      00
 3775              	.LASF92:
 3776 01ba 63684F51 		.ascii	"chOQPutTimeout\000"
 3776      50757454 
 3776      696D656F 
 3776      757400
 3777              	.LASF86:
 3778 01c9 63684951 		.ascii	"chIQPutI\000"
 3778      50757449 
 3778      00
 3779              	.LASF0:
 3780 01d2 756E7369 		.ascii	"unsigned int\000"
 3780      676E6564 
 3780      20696E74 
 3780      00
 3781              	.LASF85:
 3782 01df 63684951 		.ascii	"chIQResetI\000"
 3782      52657365 
 3782      744900
 3783              	.LASF10:
 3784 01ea 6C6F6E67 		.ascii	"long unsigned int\000"
 3784      20756E73 
 3784      69676E65 
 3784      6420696E 
 3784      7400
 3785              	.LASF50:
ARM GAS  /tmp/cc4aEB7N.s 			page 69


 3786 01fc 636F6E74 		.ascii	"context\000"
 3786      65787400 
 3787              	.LASF81:
 3788 0204 73697A65 		.ascii	"size\000"
 3788      00
 3789              	.LASF6:
 3790 0209 73686F72 		.ascii	"short unsigned int\000"
 3790      7420756E 
 3790      7369676E 
 3790      65642069 
 3790      6E7400
 3791              	.LASF23:
 3792 021c 6D73675F 		.ascii	"msg_t\000"
 3792      7400
 3793              	.LASF55:
 3794 0222 725F6E65 		.ascii	"r_newer\000"
 3794      77657200 
 3795              	.LASF96:
 3796 022a 2E2E2F2E 		.ascii	"../../os/kernel/src/chqueues.c\000"
 3796      2E2F6F73 
 3796      2F6B6572 
 3796      6E656C2F 
 3796      7372632F 
 3797              	.LASF47:
 3798 0249 54687265 		.ascii	"ThreadsList\000"
 3798      6164734C 
 3798      69737400 
 3799              	.LASF24:
 3800 0255 6576656E 		.ascii	"eventmask_t\000"
 3800      746D6173 
 3800      6B5F7400 
 3801              	.LASF78:
 3802 0261 496E7075 		.ascii	"InputQueue\000"
 3802      74517565 
 3802      756500
 3803              	.LASF59:
 3804 026c 4D757465 		.ascii	"Mutex\000"
 3804      7800
 3805              	.LASF68:
 3806 0272 47656E65 		.ascii	"GenericQueue\000"
 3806      72696351 
 3806      75657565 
 3806      00
 3807              	.LASF94:
 3808 027f 63684F51 		.ascii	"chOQWriteTimeout\000"
 3808      57726974 
 3808      6554696D 
 3808      656F7574 
 3808      00
 3809              	.LASF51:
 3810 0290 73697A65 		.ascii	"sizetype\000"
 3810      74797065 
 3810      00
 3811              	.LASF70:
 3812 0299 715F636F 		.ascii	"q_counter\000"
 3812      756E7465 
 3812      7200
ARM GAS  /tmp/cc4aEB7N.s 			page 70


 3813              	.LASF32:
 3814 02a3 705F6F6C 		.ascii	"p_older\000"
 3814      64657200 
 3815              	.LASF54:
 3816 02ab 725F6374 		.ascii	"r_ctx\000"
 3816      7800
 3817              	.LASF46:
 3818 02b1 54687265 		.ascii	"ThreadsQueue\000"
 3818      61647351 
 3818      75657565 
 3818      00
 3819              	.LASF97:
 3820 02be 2F686F6D 		.ascii	"/home/ece497/vbox-shared/mplayer/ChibiOS-RT-stable_"
 3820      652F6563 
 3820      65343937 
 3820      2F76626F 
 3820      782D7368 
 3821 02f1 322E362E 		.ascii	"2.6.x/demos/ARMCM0-STM32F051-DISCOVERY\000"
 3821      782F6465 
 3821      6D6F732F 
 3821      41524D43 
 3821      4D302D53 
 3822              	.LASF80:
 3823 0318 74696D65 		.ascii	"time\000"
 3823      00
 3824              	.LASF57:
 3825 031d 725F6375 		.ascii	"r_current\000"
 3825      7272656E 
 3825      7400
 3826              	.LASF56:
 3827 0327 725F6F6C 		.ascii	"r_older\000"
 3827      64657200 
 3828              	.LASF20:
 3829 032f 74726566 		.ascii	"trefs_t\000"
 3829      735F7400 
 3830              	.LASF77:
 3831 0337 716E6F74 		.ascii	"qnotify_t\000"
 3831      6966795F 
 3831      7400
 3832              	.LASF28:
 3833 0341 705F7072 		.ascii	"p_prev\000"
 3833      657600
 3834              	.LASF22:
 3835 0348 74707269 		.ascii	"tprio_t\000"
 3835      6F5F7400 
 3836              	.LASF74:
 3837 0350 715F7264 		.ascii	"q_rdptr\000"
 3837      70747200 
 3838              	.LASF17:
 3839 0358 5F426F6F 		.ascii	"_Bool\000"
 3839      6C00
 3840              	.LASF14:
 3841 035e 696E7433 		.ascii	"int32_t\000"
 3841      325F7400 
 3842              	.LASF4:
 3843 0366 756E7369 		.ascii	"unsigned char\000"
 3843      676E6564 
ARM GAS  /tmp/cc4aEB7N.s 			page 71


 3843      20636861 
 3843      7200
 3844              	.LASF43:
 3845 0374 705F6D74 		.ascii	"p_mtxlist\000"
 3845      786C6973 
 3845      7400
 3846              	.LASF5:
 3847 037e 73686F72 		.ascii	"short int\000"
 3847      7420696E 
 3847      7400
 3848              	.LASF34:
 3849 0388 705F7374 		.ascii	"p_state\000"
 3849      61746500 
 3850              	.LASF37:
 3851 0390 705F7072 		.ascii	"p_preempt\000"
 3851      65656D70 
 3851      7400
 3852              	.LASF53:
 3853 039a 725F7072 		.ascii	"r_prio\000"
 3853      696F00
 3854              	.LASF66:
 3855 03a1 65776D61 		.ascii	"ewmask\000"
 3855      736B00
 3856              	.LASF27:
 3857 03a8 705F6E65 		.ascii	"p_next\000"
 3857      787400
 3858              	.LASF18:
 3859 03af 746D6F64 		.ascii	"tmode_t\000"
 3859      655F7400 
 3860              	.LASF35:
 3861 03b7 705F666C 		.ascii	"p_flags\000"
 3861      61677300 
 3862              	.LASF26:
 3863 03bf 54687265 		.ascii	"Thread\000"
 3863      616400
 3864              	.LASF42:
 3865 03c6 705F6570 		.ascii	"p_epending\000"
 3865      656E6469 
 3865      6E6700
 3866              	.LASF15:
 3867 03d1 75696E74 		.ascii	"uint32_t\000"
 3867      33325F74 
 3867      00
 3868              	.LASF52:
 3869 03da 725F7175 		.ascii	"r_queue\000"
 3869      65756500 
 3870              	.LASF103:
 3871 03e2 63685363 		.ascii	"chSchReadyI\000"
 3871      68526561 
 3871      64794900 
 3872              	.LASF67:
 3873 03ee 63686172 		.ascii	"char\000"
 3873      00
 3874              	.LASF99:
 3875 03f3 6669666F 		.ascii	"fifo_remove\000"
 3875      5F72656D 
 3875      6F766500 
ARM GAS  /tmp/cc4aEB7N.s 			page 72


 3876              	.LASF62:
 3877 03ff 6D5F6E65 		.ascii	"m_next\000"
 3877      787400
 3878              	.LASF25:
 3879 0406 73797374 		.ascii	"systime_t\000"
 3879      696D655F 
 3879      7400
 3880              	.LASF44:
 3881 0410 705F7265 		.ascii	"p_realprio\000"
 3881      616C7072 
 3881      696F00
 3882              	.LASF7:
 3883 041b 5F5F696E 		.ascii	"__int32_t\000"
 3883      7433325F 
 3883      7400
 3884              	.LASF82:
 3885 0425 696E6679 		.ascii	"infy\000"
 3885      00
 3886              	.LASF91:
 3887 042a 63684F51 		.ascii	"chOQResetI\000"
 3887      52657365 
 3887      744900
 3888              	.LASF38:
 3889 0435 705F7469 		.ascii	"p_time\000"
 3889      6D6500
 3890              	.LASF49:
 3891 043c 696E7463 		.ascii	"intctx\000"
 3891      747800
 3892              	.LASF40:
 3893 0443 705F6D73 		.ascii	"p_msgqueue\000"
 3893      67717565 
 3893      756500
 3894              	.LASF72:
 3895 044e 715F746F 		.ascii	"q_top\000"
 3895      7000
 3896              	.LASF36:
 3897 0454 705F7265 		.ascii	"p_refs\000"
 3897      667300
 3898              	.LASF58:
 3899 045b 52656164 		.ascii	"ReadyList\000"
 3899      794C6973 
 3899      7400
 3900              	.LASF75:
 3901 0465 715F6E6F 		.ascii	"q_notify\000"
 3901      74696679 
 3901      00
 3902              	.LASF101:
 3903 046e 726C6973 		.ascii	"rlist\000"
 3903      7400
 3904              	.LASF13:
 3905 0474 75696E74 		.ascii	"uint8_t\000"
 3905      385F7400 
 3906              	.LASF65:
 3907 047c 77746F62 		.ascii	"wtobjp\000"
 3907      6A7000
 3908              	.LASF33:
 3909 0483 705F6E61 		.ascii	"p_name\000"
ARM GAS  /tmp/cc4aEB7N.s 			page 73


 3909      6D6500
 3910              	.LASF102:
 3911 048a 63685363 		.ascii	"chSchGoSleepTimeoutS\000"
 3911      68476F53 
 3911      6C656570 
 3911      54696D65 
 3911      6F757453 
 3912              	.LASF76:
 3913 049f 715F6C69 		.ascii	"q_link\000"
 3913      6E6B00
 3914              	.LASF61:
 3915 04a6 6D5F6F77 		.ascii	"m_owner\000"
 3915      6E657200 
 3916              	.LASF30:
 3917 04ae 705F6374 		.ascii	"p_ctx\000"
 3917      7800
 3918              	.LASF39:
 3919 04b4 705F7761 		.ascii	"p_waiting\000"
 3919      6974696E 
 3919      6700
 3920              	.LASF87:
 3921 04be 63684951 		.ascii	"chIQGetTimeout\000"
 3921      47657454 
 3921      696D656F 
 3921      757400
 3922              		.ident	"GCC: (Arch Repository) 4.8.2"
ARM GAS  /tmp/cc4aEB7N.s 			page 74


DEFINED SYMBOLS
                            *ABS*:0000000000000000 chqueues.c
     /tmp/cc4aEB7N.s:18     .text.qwait:0000000000000000 $t
     /tmp/cc4aEB7N.s:23     .text.qwait:0000000000000000 qwait
     /tmp/cc4aEB7N.s:74     .text.qwait:0000000000000024 $d
     /tmp/cc4aEB7N.s:79     .text.chIQInit:0000000000000000 $t
     /tmp/cc4aEB7N.s:85     .text.chIQInit:0000000000000000 chIQInit
     /tmp/cc4aEB7N.s:124    .text.chIQResetI:0000000000000000 $t
     /tmp/cc4aEB7N.s:130    .text.chIQResetI:0000000000000000 chIQResetI
     /tmp/cc4aEB7N.s:187    .text.chIQPutI:0000000000000000 $t
     /tmp/cc4aEB7N.s:193    .text.chIQPutI:0000000000000000 chIQPutI
     /tmp/cc4aEB7N.s:278    .text.chIQGetTimeout:0000000000000000 $t
     /tmp/cc4aEB7N.s:284    .text.chIQGetTimeout:0000000000000000 chIQGetTimeout
     /tmp/cc4aEB7N.s:362    .text.chIQReadTimeout:0000000000000000 $t
     /tmp/cc4aEB7N.s:368    .text.chIQReadTimeout:0000000000000000 chIQReadTimeout
     /tmp/cc4aEB7N.s:497    .text.chOQInit:0000000000000000 $t
     /tmp/cc4aEB7N.s:503    .text.chOQInit:0000000000000000 chOQInit
     /tmp/cc4aEB7N.s:536    .text.chOQResetI:0000000000000000 $t
     /tmp/cc4aEB7N.s:542    .text.chOQResetI:0000000000000000 chOQResetI
     /tmp/cc4aEB7N.s:601    .text.chOQPutTimeout:0000000000000000 $t
     /tmp/cc4aEB7N.s:607    .text.chOQPutTimeout:0000000000000000 chOQPutTimeout
     /tmp/cc4aEB7N.s:700    .text.chOQGetI:0000000000000000 $t
     /tmp/cc4aEB7N.s:706    .text.chOQGetI:0000000000000000 chOQGetI
     /tmp/cc4aEB7N.s:790    .text.chOQWriteTimeout:0000000000000000 $t
     /tmp/cc4aEB7N.s:796    .text.chOQWriteTimeout:0000000000000000 chOQWriteTimeout
                     .debug_frame:0000000000000010 $d
     /tmp/cc4aEB7N.s:78     .text.qwait:0000000000000028 $t

UNDEFINED SYMBOLS
chSchGoSleepTimeoutS
rlist
chSchReadyI
