ARM GAS  /tmp/cc4aEB7N.s 			page 1


   1              		.cpu cortex-m0
   2              		.fpu softvfp
   3              		.eabi_attribute 20, 1
   4              		.eabi_attribute 21, 1
   5              		.eabi_attribute 23, 3
   6              		.eabi_attribute 24, 1
   7              		.eabi_attribute 25, 1
   8              		.eabi_attribute 26, 1
   9              		.eabi_attribute 30, 2
  10              		.eabi_attribute 34, 0
  11              		.eabi_attribute 18, 4
  12              		.code	16
  13              		.file	"chqueues.c"
  14              		.text
  15              	.Ltext0:
  16              		.cfi_sections	.debug_frame
  17              		.section	.text.qwait,"ax",%progbits
  18              		.align	2
  19              		.p2align 4,,15
  20              		.code	16
  21              		.thumb_func
  22              		.type	qwait, %function
  23              	qwait:
  24              	.LFB7:
  25              		.file 1 "../../os/kernel/src/chqueues.c"
  26              		.loc 1 70 0
  27              		.cfi_startproc
  28              	.LVL0:
  29 0000 08B5     		push	{r3, lr}
  30              		.cfi_def_cfa_offset 8
  31              		.cfi_offset 3, -8
  32              		.cfi_offset 14, -4
  33              		.loc 1 72 0
  34 0002 0029     		cmp	r1, #0
  35 0004 0BD0     		beq	.L3
  36              		.loc 1 74 0
  37 0006 074B     		ldr	r3, .L5
  38 0008 9B69     		ldr	r3, [r3, #24]
  39 000a 5862     		str	r0, [r3, #36]
  40              	.LVL1:
  41              	.LBB12:
  42              	.LBB13:
  43              		.file 2 "../../os/kernel/include/chinline.h"
  44              		.loc 2 55 0
  45 000c 4268     		ldr	r2, [r0, #4]
  46              		.loc 2 54 0
  47 000e 1860     		str	r0, [r3]
  48              		.loc 2 55 0
  49 0010 5A60     		str	r2, [r3, #4]
  50              		.loc 2 56 0
  51 0012 4360     		str	r3, [r0, #4]
  52 0014 1360     		str	r3, [r2]
  53              	.LBE13:
  54              	.LBE12:
  55              		.loc 1 76 0
  56 0016 0D20     		mov	r0, #13
  57              	.LVL2:
ARM GAS  /tmp/cc4aEB7N.s 			page 2


  58 0018 FFF7FEFF 		bl	chSchGoSleepTimeoutS
  59              	.LVL3:
  60              	.L2:
  61              		.loc 1 77 0
  62              		@ sp needed
  63 001c 08BD     		pop	{r3, pc}
  64              	.LVL4:
  65              	.L3:
  66              		.loc 1 73 0
  67 001e 0120     		mov	r0, #1
  68              	.LVL5:
  69 0020 4042     		neg	r0, r0
  70 0022 FBE7     		b	.L2
  71              	.L6:
  72              		.align	2
  73              	.L5:
  74 0024 00000000 		.word	rlist
  75              		.cfi_endproc
  76              	.LFE7:
  77              		.size	qwait, .-qwait
  78 0028 C046C046 		.section	.text.chIQInit,"ax",%progbits
  78      C046C046 
  79              		.align	2
  80              		.p2align 4,,15
  81              		.global	chIQInit
  82              		.code	16
  83              		.thumb_func
  84              		.type	chIQInit, %function
  85              	chIQInit:
  86              	.LFB8:
  87              		.loc 1 96 0
  88              		.cfi_startproc
  89              	.LVL6:
  90 0000 10B5     		push	{r4, lr}
  91              		.cfi_def_cfa_offset 8
  92              		.cfi_offset 4, -8
  93              		.cfi_offset 14, -4
  94              		.loc 1 102 0
  95 0002 C361     		str	r3, [r0, #28]
  96              		.loc 1 103 0
  97 0004 029B     		ldr	r3, [sp, #8]
  98              	.LVL7:
  99              		.loc 1 99 0
 100 0006 0024     		mov	r4, #0
 101              		.loc 1 100 0
 102 0008 4161     		str	r1, [r0, #20]
 103 000a 8161     		str	r1, [r0, #24]
 104 000c C160     		str	r1, [r0, #12]
 105              		.loc 1 101 0
 106 000e 8918     		add	r1, r1, r2
 107              	.LVL8:
 108              		.loc 1 98 0
 109 0010 4060     		str	r0, [r0, #4]
 110 0012 0060     		str	r0, [r0]
 111              		.loc 1 99 0
 112 0014 8460     		str	r4, [r0, #8]
 113              		.loc 1 101 0
ARM GAS  /tmp/cc4aEB7N.s 			page 3


 114 0016 0161     		str	r1, [r0, #16]
 115              		.loc 1 103 0
 116 0018 0362     		str	r3, [r0, #32]
 117              		.loc 1 104 0
 118              		@ sp needed
 119 001a 10BD     		pop	{r4, pc}
 120              		.cfi_endproc
 121              	.LFE8:
 122              		.size	chIQInit, .-chIQInit
 123 001c C046C046 		.section	.text.chIQResetI,"ax",%progbits
 124              		.align	2
 125              		.p2align 4,,15
 126              		.global	chIQResetI
 127              		.code	16
 128              		.thumb_func
 129              		.type	chIQResetI, %function
 130              	chIQResetI:
 131              	.LFB9:
 132              		.loc 1 117 0
 133              		.cfi_startproc
 134              	.LVL9:
 135 0000 38B5     		push	{r3, r4, r5, lr}
 136              		.cfi_def_cfa_offset 16
 137              		.cfi_offset 3, -16
 138              		.cfi_offset 4, -12
 139              		.cfi_offset 5, -8
 140              		.cfi_offset 14, -4
 141              		.loc 1 121 0
 142 0002 C368     		ldr	r3, [r0, #12]
 143              		.loc 1 117 0
 144 0004 041C     		mov	r4, r0
 145              		.loc 1 121 0
 146 0006 4361     		str	r3, [r0, #20]
 147 0008 8361     		str	r3, [r0, #24]
 148              		.loc 1 122 0
 149 000a 0023     		mov	r3, #0
 150 000c 8360     		str	r3, [r0, #8]
 151              		.loc 1 123 0
 152 000e 0068     		ldr	r0, [r0]
 153              	.LVL10:
 154 0010 A042     		cmp	r0, r4
 155 0012 0AD0     		beq	.L8
 156              		.loc 1 124 0
 157 0014 0225     		mov	r5, #2
 158 0016 6D42     		neg	r5, r5
 159              	.L12:
 160              	.LVL11:
 161              	.LBB14:
 162              	.LBB15:
 163              		.loc 2 62 0
 164 0018 0368     		ldr	r3, [r0]
 165 001a 2360     		str	r3, [r4]
 166 001c 5C60     		str	r4, [r3, #4]
 167              	.LBE15:
 168              	.LBE14:
 169              		.loc 1 124 0
 170 001e FFF7FEFF 		bl	chSchReadyI
ARM GAS  /tmp/cc4aEB7N.s 			page 4


 171              	.LVL12:
 172 0022 4562     		str	r5, [r0, #36]
 173              		.loc 1 123 0
 174 0024 2068     		ldr	r0, [r4]
 175 0026 A042     		cmp	r0, r4
 176 0028 F6D1     		bne	.L12
 177              	.LVL13:
 178              	.L8:
 179              		.loc 1 125 0
 180              		@ sp needed
 181              	.LVL14:
 182 002a 38BD     		pop	{r3, r4, r5, pc}
 183              		.cfi_endproc
 184              	.LFE9:
 185              		.size	chIQResetI, .-chIQResetI
 186 002c C046C046 		.section	.text.chIQPutI,"ax",%progbits
 187              		.align	2
 188              		.p2align 4,,15
 189              		.global	chIQPutI
 190              		.code	16
 191              		.thumb_func
 192              		.type	chIQPutI, %function
 193              	chIQPutI:
 194              	.LFB10:
 195              		.loc 1 140 0
 196              		.cfi_startproc
 197              	.LVL15:
 198 0000 08B5     		push	{r3, lr}
 199              		.cfi_def_cfa_offset 8
 200              		.cfi_offset 3, -8
 201              		.cfi_offset 14, -4
 202              		.loc 1 144 0
 203 0002 8269     		ldr	r2, [r0, #24]
 204 0004 4369     		ldr	r3, [r0, #20]
 205 0006 9342     		cmp	r3, r2
 206 0008 1DD0     		beq	.L22
 207 000a 8268     		ldr	r2, [r0, #8]
 208              	.L16:
 209              		.loc 1 147 0
 210 000c 0132     		add	r2, r2, #1
 211 000e 8260     		str	r2, [r0, #8]
 212              		.loc 1 148 0
 213 0010 5A1C     		add	r2, r3, #1
 214 0012 4261     		str	r2, [r0, #20]
 215 0014 1970     		strb	r1, [r3]
 216              		.loc 1 149 0
 217 0016 4269     		ldr	r2, [r0, #20]
 218 0018 0369     		ldr	r3, [r0, #16]
 219 001a 9A42     		cmp	r2, r3
 220 001c 0CD2     		bcs	.L17
 221              		.loc 1 152 0
 222 001e 0368     		ldr	r3, [r0]
 223 0020 8342     		cmp	r3, r0
 224 0022 0ED0     		beq	.L20
 225              	.L23:
 226              	.LVL16:
 227              	.LBB16:
ARM GAS  /tmp/cc4aEB7N.s 			page 5


 228              	.LBB17:
 229              		.loc 2 62 0
 230 0024 1A68     		ldr	r2, [r3]
 231 0026 0260     		str	r2, [r0]
 232 0028 5060     		str	r0, [r2, #4]
 233              	.LBE17:
 234              	.LBE16:
 235              		.loc 1 153 0
 236 002a 181C     		mov	r0, r3
 237              	.LVL17:
 238 002c FFF7FEFF 		bl	chSchReadyI
 239              	.LVL18:
 240 0030 0023     		mov	r3, #0
 241 0032 4362     		str	r3, [r0, #36]
 242              		.loc 1 155 0
 243 0034 0020     		mov	r0, #0
 244              	.LVL19:
 245              	.L21:
 246              		.loc 1 156 0
 247              		@ sp needed
 248 0036 08BD     		pop	{r3, pc}
 249              	.LVL20:
 250              	.L17:
 251              		.loc 1 150 0
 252 0038 C368     		ldr	r3, [r0, #12]
 253 003a 4361     		str	r3, [r0, #20]
 254              		.loc 1 152 0
 255 003c 0368     		ldr	r3, [r0]
 256 003e 8342     		cmp	r3, r0
 257 0040 F0D1     		bne	.L23
 258              	.L20:
 259              		.loc 1 155 0
 260 0042 0020     		mov	r0, #0
 261              	.LVL21:
 262 0044 F7E7     		b	.L21
 263              	.LVL22:
 264              	.L22:
 265              		.loc 1 144 0 discriminator 1
 266 0046 8268     		ldr	r2, [r0, #8]
 267 0048 002A     		cmp	r2, #0
 268 004a DFD0     		beq	.L16
 269              		.loc 1 145 0
 270 004c 0420     		mov	r0, #4
 271              	.LVL23:
 272 004e 4042     		neg	r0, r0
 273 0050 F1E7     		b	.L21
 274              		.cfi_endproc
 275              	.LFE10:
 276              		.size	chIQPutI, .-chIQPutI
 277 0052 C046C046 		.section	.text.chIQGetTimeout,"ax",%progbits
 277      C046C046 
 277      C046C046 
 277      C046
 278              		.align	2
 279              		.p2align 4,,15
 280              		.global	chIQGetTimeout
 281              		.code	16
ARM GAS  /tmp/cc4aEB7N.s 			page 6


 282              		.thumb_func
 283              		.type	chIQGetTimeout, %function
 284              	chIQGetTimeout:
 285              	.LFB11:
 286              		.loc 1 178 0
 287              		.cfi_startproc
 288              	.LVL24:
 289 0000 38B5     		push	{r3, r4, r5, lr}
 290              		.cfi_def_cfa_offset 16
 291              		.cfi_offset 3, -16
 292              		.cfi_offset 4, -12
 293              		.cfi_offset 5, -8
 294              		.cfi_offset 14, -4
 295              		.loc 1 178 0
 296 0002 041C     		mov	r4, r0
 297 0004 0D1C     		mov	r5, r1
 298              		.loc 1 181 0
 299              	@ 181 "../../os/kernel/src/chqueues.c" 1
 300 0006 72B6     		cpsid   i
 301              	@ 0 "" 2
 302              		.loc 1 182 0
 303              		.code	16
 304 0008 C369     		ldr	r3, [r0, #28]
 305 000a 002B     		cmp	r3, #0
 306 000c 07D0     		beq	.L27
 307              		.loc 1 183 0
 308 000e 9847     		blx	r3
 309              	.LVL25:
 310 0010 05E0     		b	.L27
 311              	.L29:
 312              	.LBB18:
 313              		.loc 1 187 0
 314 0012 201C     		mov	r0, r4
 315 0014 291C     		mov	r1, r5
 316 0016 FFF7FEFF 		bl	qwait
 317              	.LVL26:
 318 001a 0028     		cmp	r0, #0
 319 001c 0DDB     		blt	.L30
 320              	.LVL27:
 321              	.L27:
 322              	.LBE18:
 323              		.loc 1 185 0 discriminator 1
 324 001e A368     		ldr	r3, [r4, #8]
 325 0020 002B     		cmp	r3, #0
 326 0022 F6D0     		beq	.L29
 327              		.loc 1 194 0
 328 0024 A269     		ldr	r2, [r4, #24]
 329              		.loc 1 193 0
 330 0026 013B     		sub	r3, r3, #1
 331 0028 A360     		str	r3, [r4, #8]
 332              		.loc 1 194 0
 333 002a 531C     		add	r3, r2, #1
 334 002c A361     		str	r3, [r4, #24]
 335 002e 1078     		ldrb	r0, [r2]
 336              	.LVL28:
 337              		.loc 1 195 0
 338 0030 2269     		ldr	r2, [r4, #16]
ARM GAS  /tmp/cc4aEB7N.s 			page 7


 339              	.LVL29:
 340 0032 9342     		cmp	r3, r2
 341 0034 01D3     		bcc	.L30
 342              		.loc 1 196 0
 343 0036 E368     		ldr	r3, [r4, #12]
 344              	.LVL30:
 345 0038 A361     		str	r3, [r4, #24]
 346              	.LVL31:
 347              	.L30:
 348              		.loc 1 198 0
 349              	@ 198 "../../os/kernel/src/chqueues.c" 1
 350 003a 62B6     		cpsie   i
 351              	@ 0 "" 2
 352              		.loc 1 200 0
 353              		.code	16
 354              		@ sp needed
 355              	.LVL32:
 356              	.LVL33:
 357 003c 38BD     		pop	{r3, r4, r5, pc}
 358              		.cfi_endproc
 359              	.LFE11:
 360              		.size	chIQGetTimeout, .-chIQGetTimeout
 361 003e C046     		.section	.text.chIQReadTimeout,"ax",%progbits
 362              		.align	2
 363              		.p2align 4,,15
 364              		.global	chIQReadTimeout
 365              		.code	16
 366              		.thumb_func
 367              		.type	chIQReadTimeout, %function
 368              	chIQReadTimeout:
 369              	.LFB12:
 370              		.loc 1 227 0
 371              		.cfi_startproc
 372              	.LVL34:
 373 0000 F0B5     		push	{r4, r5, r6, r7, lr}
 374              		.cfi_def_cfa_offset 20
 375              		.cfi_offset 4, -20
 376              		.cfi_offset 5, -16
 377              		.cfi_offset 6, -12
 378              		.cfi_offset 7, -8
 379              		.cfi_offset 14, -4
 380 0002 4E46     		mov	r6, r9
 381 0004 9146     		mov	r9, r2
 382              		.loc 1 228 0
 383 0006 C269     		ldr	r2, [r0, #28]
 384              	.LVL35:
 385              		.loc 1 227 0
 386 0008 5746     		mov	r7, r10
 387 000a 4546     		mov	r5, r8
 388 000c E0B4     		push	{r5, r6, r7}
 389              		.cfi_def_cfa_offset 32
 390              		.cfi_offset 8, -32
 391              		.cfi_offset 9, -28
 392              		.cfi_offset 10, -24
 393              		.loc 1 227 0
 394 000e 041C     		mov	r4, r0
 395 0010 8A46     		mov	r10, r1
ARM GAS  /tmp/cc4aEB7N.s 			page 8


 396 0012 1E1C     		mov	r6, r3
 397              		.loc 1 228 0
 398 0014 9046     		mov	r8, r2
 399              	.LVL36:
 400              		.loc 1 233 0
 401              	@ 233 "../../os/kernel/src/chqueues.c" 1
 402 0016 72B6     		cpsid   i
 403              	@ 0 "" 2
 404              		.loc 1 229 0
 405              		.code	16
 406 0018 0027     		mov	r7, #0
 407              	.LVL37:
 408              	.L41:
 409              		.loc 1 235 0
 410 001a 4346     		mov	r3, r8
 411 001c 002B     		cmp	r3, #0
 412 001e 08D0     		beq	.L37
 413              	.LVL38:
 414              		.loc 1 236 0
 415 0020 201C     		mov	r0, r4
 416 0022 C047     		blx	r8
 417              	.LVL39:
 418 0024 05E0     		b	.L37
 419              	.L39:
 420              		.loc 1 239 0
 421 0026 201C     		mov	r0, r4
 422 0028 311C     		mov	r1, r6
 423 002a FFF7FEFF 		bl	qwait
 424              	.LVL40:
 425 002e 0028     		cmp	r0, #0
 426 0030 16D1     		bne	.L45
 427              	.L37:
 428              		.loc 1 238 0 discriminator 1
 429 0032 A568     		ldr	r5, [r4, #8]
 430 0034 002D     		cmp	r5, #0
 431 0036 F6D0     		beq	.L39
 432              		.loc 1 246 0
 433 0038 A369     		ldr	r3, [r4, #24]
 434              		.loc 1 245 0
 435 003a 013D     		sub	r5, r5, #1
 436              		.loc 1 246 0
 437 003c 5A1C     		add	r2, r3, #1
 438 003e A261     		str	r2, [r4, #24]
 439              		.loc 1 245 0
 440 0040 A560     		str	r5, [r4, #8]
 441              	.LVL41:
 442              		.loc 1 246 0
 443 0042 1B78     		ldrb	r3, [r3]
 444 0044 5246     		mov	r2, r10
 445 0046 D355     		strb	r3, [r2, r7]
 446              		.loc 1 247 0
 447 0048 A369     		ldr	r3, [r4, #24]
 448 004a 2269     		ldr	r2, [r4, #16]
 449 004c 9342     		cmp	r3, r2
 450 004e 01D3     		bcc	.L40
 451              		.loc 1 248 0
 452 0050 E368     		ldr	r3, [r4, #12]
ARM GAS  /tmp/cc4aEB7N.s 			page 9


 453 0052 A361     		str	r3, [r4, #24]
 454              	.L40:
 455              		.loc 1 250 0
 456              	@ 250 "../../os/kernel/src/chqueues.c" 1
 457 0054 62B6     		cpsie   i
 458              	@ 0 "" 2
 459              		.loc 1 251 0
 460              		.code	16
 461 0056 0137     		add	r7, r7, #1
 462              	.LVL42:
 463              		.loc 1 252 0
 464 0058 B945     		cmp	r9, r7
 465 005a 02D0     		beq	.L38
 466              		.loc 1 255 0
 467              	@ 255 "../../os/kernel/src/chqueues.c" 1
 468 005c 72B6     		cpsid   i
 469              	@ 0 "" 2
 470              		.loc 1 256 0
 471              		.code	16
 472 005e DCE7     		b	.L41
 473              	.L45:
 474              		.loc 1 240 0
 475              	@ 240 "../../os/kernel/src/chqueues.c" 1
 476 0060 62B6     		cpsie   i
 477              	@ 0 "" 2
 478              	.LVL43:
 479              		.code	16
 480              	.L38:
 481              		.loc 1 257 0
 482 0062 381C     		mov	r0, r7
 483              		@ sp needed
 484              	.LVL44:
 485              	.LVL45:
 486              	.LVL46:
 487              	.LVL47:
 488 0064 1CBC     		pop	{r2, r3, r4}
 489 0066 9046     		mov	r8, r2
 490 0068 9946     		mov	r9, r3
 491 006a A246     		mov	r10, r4
 492 006c F0BD     		pop	{r4, r5, r6, r7, pc}
 493              		.cfi_endproc
 494              	.LFE12:
 495              		.size	chIQReadTimeout, .-chIQReadTimeout
 496 006e C046     		.section	.text.chOQInit,"ax",%progbits
 497              		.align	2
 498              		.p2align 4,,15
 499              		.global	chOQInit
 500              		.code	16
 501              		.thumb_func
 502              		.type	chOQInit, %function
 503              	chOQInit:
 504              	.LFB13:
 505              		.loc 1 276 0
 506              		.cfi_startproc
 507              	.LVL48:
 508              		.loc 1 282 0
 509 0000 C361     		str	r3, [r0, #28]
ARM GAS  /tmp/cc4aEB7N.s 			page 10


 510              		.loc 1 283 0
 511 0002 009B     		ldr	r3, [sp]
 512              	.LVL49:
 513              		.loc 1 280 0
 514 0004 4161     		str	r1, [r0, #20]
 515 0006 8161     		str	r1, [r0, #24]
 516 0008 C160     		str	r1, [r0, #12]
 517              		.loc 1 281 0
 518 000a 8918     		add	r1, r1, r2
 519              	.LVL50:
 520              		.loc 1 278 0
 521 000c 4060     		str	r0, [r0, #4]
 522 000e 0060     		str	r0, [r0]
 523              		.loc 1 279 0
 524 0010 8260     		str	r2, [r0, #8]
 525              		.loc 1 281 0
 526 0012 0161     		str	r1, [r0, #16]
 527              		.loc 1 283 0
 528 0014 0362     		str	r3, [r0, #32]
 529              		.loc 1 284 0
 530              		@ sp needed
 531 0016 7047     		bx	lr
 532              		.cfi_endproc
 533              	.LFE13:
 534              		.size	chOQInit, .-chOQInit
 535 0018 C046C046 		.section	.text.chOQResetI,"ax",%progbits
 535      C046C046 
 536              		.align	2
 537              		.p2align 4,,15
 538              		.global	chOQResetI
 539              		.code	16
 540              		.thumb_func
 541              		.type	chOQResetI, %function
 542              	chOQResetI:
 543              	.LFB14:
 544              		.loc 1 297 0
 545              		.cfi_startproc
 546              	.LVL51:
 547 0000 38B5     		push	{r3, r4, r5, lr}
 548              		.cfi_def_cfa_offset 16
 549              		.cfi_offset 3, -16
 550              		.cfi_offset 4, -12
 551              		.cfi_offset 5, -8
 552              		.cfi_offset 14, -4
 553              		.loc 1 302 0
 554 0002 0269     		ldr	r2, [r0, #16]
 555              		.loc 1 301 0
 556 0004 C368     		ldr	r3, [r0, #12]
 557              		.loc 1 297 0
 558 0006 041C     		mov	r4, r0
 559              		.loc 1 301 0
 560 0008 4361     		str	r3, [r0, #20]
 561 000a 8361     		str	r3, [r0, #24]
 562              		.loc 1 302 0
 563 000c D31A     		sub	r3, r2, r3
 564 000e 8360     		str	r3, [r0, #8]
 565              		.loc 1 303 0
ARM GAS  /tmp/cc4aEB7N.s 			page 11


 566 0010 0068     		ldr	r0, [r0]
 567              	.LVL52:
 568 0012 A042     		cmp	r0, r4
 569 0014 0AD0     		beq	.L47
 570              		.loc 1 304 0
 571 0016 0225     		mov	r5, #2
 572 0018 6D42     		neg	r5, r5
 573              	.L51:
 574              	.LVL53:
 575              	.LBB19:
 576              	.LBB20:
 577              		.loc 2 62 0
 578 001a 0368     		ldr	r3, [r0]
 579 001c 2360     		str	r3, [r4]
 580 001e 5C60     		str	r4, [r3, #4]
 581              	.LBE20:
 582              	.LBE19:
 583              		.loc 1 304 0
 584 0020 FFF7FEFF 		bl	chSchReadyI
 585              	.LVL54:
 586 0024 4562     		str	r5, [r0, #36]
 587              		.loc 1 303 0
 588 0026 2068     		ldr	r0, [r4]
 589 0028 A042     		cmp	r0, r4
 590 002a F6D1     		bne	.L51
 591              	.LVL55:
 592              	.L47:
 593              		.loc 1 305 0
 594              		@ sp needed
 595              	.LVL56:
 596 002c 38BD     		pop	{r3, r4, r5, pc}
 597              		.cfi_endproc
 598              	.LFE14:
 599              		.size	chOQResetI, .-chOQResetI
 600 002e C046     		.section	.text.chOQPutTimeout,"ax",%progbits
 601              		.align	2
 602              		.p2align 4,,15
 603              		.global	chOQPutTimeout
 604              		.code	16
 605              		.thumb_func
 606              		.type	chOQPutTimeout, %function
 607              	chOQPutTimeout:
 608              	.LFB15:
 609              		.loc 1 329 0
 610              		.cfi_startproc
 611              	.LVL57:
 612 0000 70B5     		push	{r4, r5, r6, lr}
 613              		.cfi_def_cfa_offset 16
 614              		.cfi_offset 4, -16
 615              		.cfi_offset 5, -12
 616              		.cfi_offset 6, -8
 617              		.cfi_offset 14, -4
 618              		.loc 1 329 0
 619 0002 041C     		mov	r4, r0
 620 0004 0E1C     		mov	r6, r1
 621 0006 151C     		mov	r5, r2
 622              		.loc 1 331 0
ARM GAS  /tmp/cc4aEB7N.s 			page 12


 623              	@ 331 "../../os/kernel/src/chqueues.c" 1
 624 0008 72B6     		cpsid   i
 625              	@ 0 "" 2
 626              		.loc 1 332 0
 627              		.code	16
 628 000a 05E0     		b	.L53
 629              	.LVL58:
 630              	.L56:
 631              	.LBB21:
 632              		.loc 1 335 0
 633 000c 201C     		mov	r0, r4
 634 000e 291C     		mov	r1, r5
 635 0010 FFF7FEFF 		bl	qwait
 636              	.LVL59:
 637 0014 0028     		cmp	r0, #0
 638 0016 16DB     		blt	.L62
 639              	.LVL60:
 640              	.L53:
 641              	.LBE21:
 642              		.loc 1 332 0 discriminator 1
 643 0018 A368     		ldr	r3, [r4, #8]
 644 001a 002B     		cmp	r3, #0
 645 001c F6D0     		beq	.L56
 646              		.loc 1 341 0
 647 001e 013B     		sub	r3, r3, #1
 648 0020 A360     		str	r3, [r4, #8]
 649              		.loc 1 342 0
 650 0022 6369     		ldr	r3, [r4, #20]
 651 0024 5A1C     		add	r2, r3, #1
 652 0026 6261     		str	r2, [r4, #20]
 653 0028 1E70     		strb	r6, [r3]
 654              		.loc 1 343 0
 655 002a 6269     		ldr	r2, [r4, #20]
 656 002c 2369     		ldr	r3, [r4, #16]
 657 002e 9A42     		cmp	r2, r3
 658 0030 01D3     		bcc	.L57
 659              		.loc 1 344 0
 660 0032 E268     		ldr	r2, [r4, #12]
 661 0034 6261     		str	r2, [r4, #20]
 662              	.L57:
 663              		.loc 1 346 0
 664 0036 E369     		ldr	r3, [r4, #28]
 665 0038 002B     		cmp	r3, #0
 666 003a 01D0     		beq	.L58
 667              		.loc 1 347 0
 668 003c 201C     		mov	r0, r4
 669 003e 9847     		blx	r3
 670              	.LVL61:
 671              	.L58:
 672              		.loc 1 349 0
 673              	@ 349 "../../os/kernel/src/chqueues.c" 1
 674 0040 62B6     		cpsie   i
 675              	@ 0 "" 2
 676              		.loc 1 350 0
 677              		.code	16
 678 0042 0020     		mov	r0, #0
 679              	.L55:
ARM GAS  /tmp/cc4aEB7N.s 			page 13


 680              		.loc 1 351 0
 681              		@ sp needed
 682              	.LVL62:
 683              	.LVL63:
 684 0044 70BD     		pop	{r4, r5, r6, pc}
 685              	.LVL64:
 686              	.L62:
 687              	.LBB22:
 688              		.loc 1 336 0
 689              	@ 336 "../../os/kernel/src/chqueues.c" 1
 690 0046 62B6     		cpsie   i
 691              	@ 0 "" 2
 692              		.loc 1 337 0
 693              		.code	16
 694 0048 FCE7     		b	.L55
 695              	.LBE22:
 696              		.cfi_endproc
 697              	.LFE15:
 698              		.size	chOQPutTimeout, .-chOQPutTimeout
 699 004a C046C046 		.section	.text.chOQGetI,"ax",%progbits
 699      C046
 700              		.align	2
 701              		.p2align 4,,15
 702              		.global	chOQGetI
 703              		.code	16
 704              		.thumb_func
 705              		.type	chOQGetI, %function
 706              	chOQGetI:
 707              	.LFB16:
 708              		.loc 1 363 0
 709              		.cfi_startproc
 710              	.LVL65:
 711              		.loc 1 368 0
 712 0000 8369     		ldr	r3, [r0, #24]
 713 0002 4269     		ldr	r2, [r0, #20]
 714              		.loc 1 363 0
 715 0004 10B5     		push	{r4, lr}
 716              		.cfi_def_cfa_offset 8
 717              		.cfi_offset 4, -8
 718              		.cfi_offset 14, -4
 719              		.loc 1 368 0
 720 0006 9A42     		cmp	r2, r3
 721 0008 18D0     		beq	.L72
 722 000a 8268     		ldr	r2, [r0, #8]
 723              	.L66:
 724              		.loc 1 371 0
 725 000c 0132     		add	r2, r2, #1
 726 000e 8260     		str	r2, [r0, #8]
 727              		.loc 1 372 0
 728 0010 5A1C     		add	r2, r3, #1
 729 0012 8261     		str	r2, [r0, #24]
 730 0014 1C78     		ldrb	r4, [r3]
 731              	.LVL66:
 732              		.loc 1 373 0
 733 0016 0369     		ldr	r3, [r0, #16]
 734              	.LVL67:
 735 0018 9A42     		cmp	r2, r3
ARM GAS  /tmp/cc4aEB7N.s 			page 14


 736 001a 0CD2     		bcs	.L68
 737              	.LVL68:
 738              	.L69:
 739              		.loc 1 376 0
 740 001c 0368     		ldr	r3, [r0]
 741 001e 8342     		cmp	r3, r0
 742 0020 07D0     		beq	.L67
 743              	.LVL69:
 744              	.LBB23:
 745              	.LBB24:
 746              		.loc 2 62 0
 747 0022 1A68     		ldr	r2, [r3]
 748 0024 0260     		str	r2, [r0]
 749 0026 5060     		str	r0, [r2, #4]
 750              	.LBE24:
 751              	.LBE23:
 752              		.loc 1 377 0
 753 0028 181C     		mov	r0, r3
 754              	.LVL70:
 755 002a FFF7FEFF 		bl	chSchReadyI
 756              	.LVL71:
 757 002e 0023     		mov	r3, #0
 758 0030 4362     		str	r3, [r0, #36]
 759              	.LVL72:
 760              	.L67:
 761              		.loc 1 379 0
 762 0032 201C     		mov	r0, r4
 763              	.LVL73:
 764              	.L71:
 765              		.loc 1 380 0
 766              		@ sp needed
 767 0034 10BD     		pop	{r4, pc}
 768              	.LVL74:
 769              	.L68:
 770              		.loc 1 374 0
 771 0036 C368     		ldr	r3, [r0, #12]
 772 0038 8361     		str	r3, [r0, #24]
 773              	.LVL75:
 774 003a EFE7     		b	.L69
 775              	.LVL76:
 776              	.L72:
 777              		.loc 1 368 0 discriminator 1
 778 003c 8268     		ldr	r2, [r0, #8]
 779 003e 002A     		cmp	r2, #0
 780 0040 E4D0     		beq	.L66
 781              		.loc 1 369 0
 782 0042 0320     		mov	r0, #3
 783              	.LVL77:
 784 0044 4042     		neg	r0, r0
 785 0046 F5E7     		b	.L71
 786              		.cfi_endproc
 787              	.LFE16:
 788              		.size	chOQGetI, .-chOQGetI
 789 0048 C046C046 		.section	.text.chOQWriteTimeout,"ax",%progbits
 789      C046C046 
 790              		.align	2
 791              		.p2align 4,,15
ARM GAS  /tmp/cc4aEB7N.s 			page 15


 792              		.global	chOQWriteTimeout
 793              		.code	16
 794              		.thumb_func
 795              		.type	chOQWriteTimeout, %function
 796              	chOQWriteTimeout:
 797              	.LFB17:
 798              		.loc 1 407 0
 799              		.cfi_startproc
 800              	.LVL78:
 801 0000 F0B5     		push	{r4, r5, r6, r7, lr}
 802              		.cfi_def_cfa_offset 20
 803              		.cfi_offset 4, -20
 804              		.cfi_offset 5, -16
 805              		.cfi_offset 6, -12
 806              		.cfi_offset 7, -8
 807              		.cfi_offset 14, -4
 808 0002 5746     		mov	r7, r10
 809 0004 4E46     		mov	r6, r9
 810 0006 4546     		mov	r5, r8
 811 0008 E0B4     		push	{r5, r6, r7}
 812              		.cfi_def_cfa_offset 32
 813              		.cfi_offset 8, -32
 814              		.cfi_offset 9, -28
 815              		.cfi_offset 10, -24
 816              		.loc 1 407 0
 817 000a 161C     		mov	r6, r2
 818              		.loc 1 408 0
 819 000c C269     		ldr	r2, [r0, #28]
 820              	.LVL79:
 821              		.loc 1 407 0
 822 000e 041C     		mov	r4, r0
 823 0010 0F1C     		mov	r7, r1
 824 0012 9A46     		mov	r10, r3
 825              		.loc 1 408 0
 826 0014 9146     		mov	r9, r2
 827              	.LVL80:
 828              		.loc 1 413 0
 829              	@ 413 "../../os/kernel/src/chqueues.c" 1
 830 0016 72B6     		cpsid   i
 831              	@ 0 "" 2
 832              		.loc 1 409 0
 833              		.code	16
 834 0018 0023     		mov	r3, #0
 835              	.LVL81:
 836 001a 9846     		mov	r8, r3
 837              	.LVL82:
 838              	.L74:
 839              		.loc 1 415 0 discriminator 1
 840 001c A568     		ldr	r5, [r4, #8]
 841 001e 002D     		cmp	r5, #0
 842 0020 1DD0     		beq	.L77
 843              	.L89:
 844              		.loc 1 422 0
 845 0022 6269     		ldr	r2, [r4, #20]
 846              		.loc 1 421 0
 847 0024 013D     		sub	r5, r5, #1
 848              		.loc 1 422 0
ARM GAS  /tmp/cc4aEB7N.s 			page 16


 849 0026 531C     		add	r3, r2, #1
 850              		.loc 1 421 0
 851 0028 A560     		str	r5, [r4, #8]
 852              		.loc 1 422 0
 853 002a 6361     		str	r3, [r4, #20]
 854 002c 3B78     		ldrb	r3, [r7]
 855 002e 7D1C     		add	r5, r7, #1
 856              	.LVL83:
 857 0030 1370     		strb	r3, [r2]
 858              		.loc 1 423 0
 859 0032 6269     		ldr	r2, [r4, #20]
 860 0034 2369     		ldr	r3, [r4, #16]
 861 0036 9A42     		cmp	r2, r3
 862 0038 01D3     		bcc	.L78
 863              		.loc 1 424 0
 864 003a E268     		ldr	r2, [r4, #12]
 865 003c 6261     		str	r2, [r4, #20]
 866              	.L78:
 867              		.loc 1 426 0
 868 003e 4B46     		mov	r3, r9
 869 0040 002B     		cmp	r3, #0
 870 0042 01D0     		beq	.L79
 871              	.LVL84:
 872              		.loc 1 427 0
 873 0044 201C     		mov	r0, r4
 874 0046 C847     		blx	r9
 875              	.LVL85:
 876              	.L79:
 877              		.loc 1 429 0
 878              	@ 429 "../../os/kernel/src/chqueues.c" 1
 879 0048 62B6     		cpsie   i
 880              	@ 0 "" 2
 881              		.loc 1 430 0
 882              		.code	16
 883 004a 0122     		mov	r2, #1
 884              		.loc 1 431 0
 885 004c 013E     		sub	r6, r6, #1
 886              	.LVL86:
 887              		.loc 1 430 0
 888 004e 9044     		add	r8, r8, r2
 889              	.LVL87:
 890              		.loc 1 431 0
 891 0050 002E     		cmp	r6, #0
 892 0052 0BD0     		beq	.L76
 893              		.loc 1 433 0
 894              	@ 433 "../../os/kernel/src/chqueues.c" 1
 895 0054 72B6     		cpsid   i
 896              	@ 0 "" 2
 897              		.loc 1 422 0
 898              		.code	16
 899 0056 2F1C     		mov	r7, r5
 900              	.LVL88:
 901              		.loc 1 415 0
 902 0058 A568     		ldr	r5, [r4, #8]
 903 005a 002D     		cmp	r5, #0
 904 005c E1D1     		bne	.L89
 905              	.L77:
ARM GAS  /tmp/cc4aEB7N.s 			page 17


 906              		.loc 1 416 0
 907 005e 201C     		mov	r0, r4
 908 0060 5146     		mov	r1, r10
 909 0062 FFF7FEFF 		bl	qwait
 910              	.LVL89:
 911 0066 0028     		cmp	r0, #0
 912 0068 D8D0     		beq	.L74
 913              		.loc 1 417 0
 914              	@ 417 "../../os/kernel/src/chqueues.c" 1
 915 006a 62B6     		cpsie   i
 916              	@ 0 "" 2
 917              	.LVL90:
 918              		.code	16
 919              	.L76:
 920              		.loc 1 435 0
 921 006c 4046     		mov	r0, r8
 922              		@ sp needed
 923              	.LVL91:
 924              	.LVL92:
 925              	.LVL93:
 926              	.LVL94:
 927              	.LVL95:
 928 006e 1CBC     		pop	{r2, r3, r4}
 929 0070 9046     		mov	r8, r2
 930 0072 9946     		mov	r9, r3
 931 0074 A246     		mov	r10, r4
 932 0076 F0BD     		pop	{r4, r5, r6, r7, pc}
 933              		.cfi_endproc
 934              	.LFE17:
 935              		.size	chOQWriteTimeout, .-chOQWriteTimeout
 936 0078 C046C046 		.text
 936      C046C046 
 937              	.Letext0:
 938              		.file 3 "/usr/lib/gcc/arm-none-eabi/4.8.2/include/stddef.h"
 939              		.file 4 "/usr/arm-none-eabi/include/machine/_default_types.h"
 940              		.file 5 "/usr/arm-none-eabi/include/stdint.h"
 941              		.file 6 "../../os/ports/GCC/ARMCMx/chtypes.h"
 942              		.file 7 "../../os/kernel/include/chlists.h"
 943              		.file 8 "../../os/kernel/include/chthreads.h"
 944              		.file 9 "../../os/ports/GCC/ARMCMx/chcore_v6m.h"
 945              		.file 10 "../../os/kernel/include/chschd.h"
 946              		.file 11 "../../os/kernel/include/chmtx.h"
 947              		.file 12 "../../os/kernel/include/chqueues.h"