ARM GAS  /tmp/ccb5jvYY.s 			page 1


   1              		.cpu cortex-m0
   2              		.fpu softvfp
   3              		.eabi_attribute 20, 1
   4              		.eabi_attribute 21, 1
   5              		.eabi_attribute 23, 3
   6              		.eabi_attribute 24, 1
   7              		.eabi_attribute 25, 1
   8              		.eabi_attribute 26, 1
   9              		.eabi_attribute 30, 2
  10              		.eabi_attribute 34, 0
  11              		.eabi_attribute 18, 4
  12              		.code	16
  13              		.file	"chschd.c"
  14              		.text
  15              	.Ltext0:
  16              		.cfi_sections	.debug_frame
  17              		.section	.text.wakeup,"ax",%progbits
  18              		.align	2
  19              		.p2align 4,,15
  20              		.code	16
  21              		.thumb_func
  22              		.type	wakeup, %function
  23              	wakeup:
  24              	.LFB10:
  25              		.file 1 "../../os/kernel/src/chschd.c"
  26              		.loc 1 136 0
  27              		.cfi_startproc
  28              	.LVL0:
  29 0000 00B5     		push	{lr}
  30              		.cfi_def_cfa_offset 4
  31              		.cfi_offset 14, -4
  32              		.loc 1 139 0
  33              	@ 139 "../../os/kernel/src/chschd.c" 1
  34 0002 72B6     		cpsid   i
  35              	@ 0 "" 2
  36              		.loc 1 140 0
  37              		.code	16
  38 0004 037F     		ldrb	r3, [r0, #28]
  39 0006 032B     		cmp	r3, #3
  40 0008 19D0     		beq	.L3
  41 000a 14D9     		bls	.L18
  42 000c 052B     		cmp	r3, #5
  43 000e 1AD0     		beq	.L6
  44 0010 0D2B     		cmp	r3, #13
  45 0012 18D0     		beq	.L6
  46              	.L2:
  47              		.loc 1 163 0
  48 0014 0123     		mov	r3, #1
  49 0016 5B42     		neg	r3, r3
  50 0018 4362     		str	r3, [r0, #36]
  51              	.LVL1:
  52              	.LBB19:
  53              	.LBB20:
  54              		.loc 1 92 0
  55 001a 0023     		mov	r3, #0
  56 001c 0377     		strb	r3, [r0, #28]
  57              	.LVL2:
ARM GAS  /tmp/ccb5jvYY.s 			page 2


  58 001e 8268     		ldr	r2, [r0, #8]
  59              		.loc 1 93 0
  60 0020 0C4B     		ldr	r3, .L19
  61              	.LVL3:
  62              	.L9:
  63              		.loc 1 95 0
  64 0022 1B68     		ldr	r3, [r3]
  65              	.LVL4:
  66              		.loc 1 96 0
  67 0024 9968     		ldr	r1, [r3, #8]
  68 0026 9142     		cmp	r1, r2
  69 0028 FBD2     		bcs	.L9
  70              		.loc 1 99 0
  71 002a 5A68     		ldr	r2, [r3, #4]
  72              		.loc 1 98 0
  73 002c 0360     		str	r3, [r0]
  74              		.loc 1 99 0
  75 002e 4260     		str	r2, [r0, #4]
  76              		.loc 1 100 0
  77 0030 5860     		str	r0, [r3, #4]
  78 0032 1060     		str	r0, [r2]
  79 0034 01E0     		b	.L16
  80              	.LVL5:
  81              	.L18:
  82              	.LBE20:
  83              	.LBE19:
  84              		.loc 1 140 0
  85 0036 002B     		cmp	r3, #0
  86 0038 ECD1     		bne	.L2
  87              	.L16:
  88              		.loc 1 165 0
  89              	@ 165 "../../os/kernel/src/chschd.c" 1
  90 003a 62B6     		cpsie   i
  91              	@ 0 "" 2
  92              		.loc 1 166 0
  93              		.code	16
  94              		@ sp needed
  95 003c 00BD     		pop	{pc}
  96              	.L3:
  97              		.loc 1 150 0
  98 003e 436A     		ldr	r3, [r0, #36]
  99 0040 9A68     		ldr	r2, [r3, #8]
 100 0042 0132     		add	r2, r2, #1
 101 0044 9A60     		str	r2, [r3, #8]
 102              	.L6:
 103              	.LVL6:
 104              	.LBB21:
 105              	.LBB22:
 106              		.file 2 "../../os/kernel/include/chinline.h"
 107              		.loc 2 75 0
 108 0046 4368     		ldr	r3, [r0, #4]
 109 0048 0168     		ldr	r1, [r0]
 110 004a 1960     		str	r1, [r3]
 111              		.loc 2 76 0
 112 004c 0268     		ldr	r2, [r0]
 113 004e 5360     		str	r3, [r2, #4]
 114 0050 E0E7     		b	.L2
ARM GAS  /tmp/ccb5jvYY.s 			page 3


 115              	.L20:
 116 0052 C046     		.align	2
 117              	.L19:
 118 0054 00000000 		.word	.LANCHOR0
 119              	.LBE22:
 120              	.LBE21:
 121              		.cfi_endproc
 122              	.LFE10:
 123              		.size	wakeup, .-wakeup
 124 0058 C046C046 		.section	.text._scheduler_init,"ax",%progbits
 124      C046C046 
 125              		.align	2
 126              		.p2align 4,,15
 127              		.global	_scheduler_init
 128              		.code	16
 129              		.thumb_func
 130              		.type	_scheduler_init, %function
 131              	_scheduler_init:
 132              	.LFB7:
 133              		.loc 1 55 0
 134              		.cfi_startproc
 135              		.loc 1 57 0
 136 0000 034B     		ldr	r3, .L22
 137              		.loc 1 58 0
 138 0002 0022     		mov	r2, #0
 139              		.loc 1 57 0
 140 0004 5B60     		str	r3, [r3, #4]
 141 0006 1B60     		str	r3, [r3]
 142              		.loc 1 58 0
 143 0008 9A60     		str	r2, [r3, #8]
 144              		.loc 1 60 0
 145 000a 5B61     		str	r3, [r3, #20]
 146 000c 1B61     		str	r3, [r3, #16]
 147              		.loc 1 62 0
 148              		@ sp needed
 149 000e 7047     		bx	lr
 150              	.L23:
 151              		.align	2
 152              	.L22:
 153 0010 00000000 		.word	.LANCHOR0
 154              		.cfi_endproc
 155              	.LFE7:
 156              		.size	_scheduler_init, .-_scheduler_init
 157 0014 C046C046 		.section	.text.chSchReadyI,"ax",%progbits
 157      C046C046 
 157      C046C046 
 158              		.align	2
 159              		.p2align 4,,15
 160              		.global	chSchReadyI
 161              		.code	16
 162              		.thumb_func
 163              		.type	chSchReadyI, %function
 164              	chSchReadyI:
 165              	.LFB8:
 166              		.loc 1 81 0
 167              		.cfi_startproc
 168              	.LVL7:
ARM GAS  /tmp/ccb5jvYY.s 			page 4


 169 0000 00B5     		push	{lr}
 170              		.cfi_def_cfa_offset 4
 171              		.cfi_offset 14, -4
 172              		.loc 1 92 0
 173 0002 0023     		mov	r3, #0
 174 0004 0377     		strb	r3, [r0, #28]
 175              	.LVL8:
 176 0006 8268     		ldr	r2, [r0, #8]
 177              		.loc 1 93 0
 178 0008 054B     		ldr	r3, .L27
 179              	.LVL9:
 180              	.L26:
 181              		.loc 1 95 0 discriminator 1
 182 000a 1B68     		ldr	r3, [r3]
 183              	.LVL10:
 184              		.loc 1 96 0 discriminator 1
 185 000c 9968     		ldr	r1, [r3, #8]
 186 000e 9142     		cmp	r1, r2
 187 0010 FBD2     		bcs	.L26
 188              		.loc 1 99 0
 189 0012 5A68     		ldr	r2, [r3, #4]
 190              		.loc 1 98 0
 191 0014 0360     		str	r3, [r0]
 192              		.loc 1 99 0
 193 0016 4260     		str	r2, [r0, #4]
 194              		.loc 1 100 0
 195 0018 5860     		str	r0, [r3, #4]
 196              		.loc 1 102 0
 197              		@ sp needed
 198              		.loc 1 100 0
 199 001a 1060     		str	r0, [r2]
 200              		.loc 1 102 0
 201 001c 00BD     		pop	{pc}
 202              	.L28:
 203 001e C046     		.align	2
 204              	.L27:
 205 0020 00000000 		.word	.LANCHOR0
 206              		.cfi_endproc
 207              	.LFE8:
 208              		.size	chSchReadyI, .-chSchReadyI
 209 0024 C046C046 		.section	.text.chSchGoSleepS,"ax",%progbits
 209      C046C046 
 209      C046C046 
 210              		.align	2
 211              		.p2align 4,,15
 212              		.global	chSchGoSleepS
 213              		.code	16
 214              		.thumb_func
 215              		.type	chSchGoSleepS, %function
 216              	chSchGoSleepS:
 217              	.LFB9:
 218              		.loc 1 115 0
 219              		.cfi_startproc
 220              	.LVL11:
 221 0000 08B5     		push	{r3, lr}
 222              		.cfi_def_cfa_offset 8
 223              		.cfi_offset 3, -8
ARM GAS  /tmp/ccb5jvYY.s 			page 5


 224              		.cfi_offset 14, -4
 225              		.loc 1 120 0
 226 0002 074B     		ldr	r3, .L30
 227              		.loc 1 124 0
 228 0004 1422     		mov	r2, #20
 229              		.loc 1 120 0
 230 0006 9969     		ldr	r1, [r3, #24]
 231              	.LVL12:
 232              		.loc 1 129 0
 233              		@ sp needed
 234              		.loc 1 120 0
 235 0008 0877     		strb	r0, [r1, #28]
 236              	.LBB23:
 237              	.LBB24:
 238              		.loc 2 60 0
 239 000a 1868     		ldr	r0, [r3]
 240              	.LVL13:
 241              	.LBE24:
 242              	.LBE23:
 243              		.loc 1 124 0
 244 000c CA77     		strb	r2, [r1, #31]
 245              	.LVL14:
 246              	.LBB26:
 247              	.LBB25:
 248              		.loc 2 62 0
 249 000e 0268     		ldr	r2, [r0]
 250 0010 5360     		str	r3, [r2, #4]
 251 0012 1A60     		str	r2, [r3]
 252              	.LBE25:
 253              	.LBE26:
 254              		.loc 1 126 0
 255 0014 9861     		str	r0, [r3, #24]
 256              		.loc 1 127 0
 257 0016 0123     		mov	r3, #1
 258 0018 0377     		strb	r3, [r0, #28]
 259              	.LVL15:
 260              		.loc 1 128 0
 261 001a FFF7FEFF 		bl	_port_switch
 262              	.LVL16:
 263              		.loc 1 129 0
 264 001e 08BD     		pop	{r3, pc}
 265              	.L31:
 266              		.align	2
 267              	.L30:
 268 0020 00000000 		.word	.LANCHOR0
 269              		.cfi_endproc
 270              	.LFE9:
 271              		.size	chSchGoSleepS, .-chSchGoSleepS
 272 0024 C046C046 		.section	.text.chSchGoSleepTimeoutS,"ax",%progbits
 272      C046C046 
 272      C046C046 
 273              		.align	2
 274              		.p2align 4,,15
 275              		.global	chSchGoSleepTimeoutS
 276              		.code	16
 277              		.thumb_func
 278              		.type	chSchGoSleepTimeoutS, %function
ARM GAS  /tmp/ccb5jvYY.s 			page 6


 279              	chSchGoSleepTimeoutS:
 280              	.LFB11:
 281              		.loc 1 189 0
 282              		.cfi_startproc
 283              	.LVL17:
 284 0000 30B5     		push	{r4, r5, lr}
 285              		.cfi_def_cfa_offset 12
 286              		.cfi_offset 4, -12
 287              		.cfi_offset 5, -8
 288              		.cfi_offset 14, -4
 289 0002 051C     		mov	r5, r0
 290 0004 87B0     		sub	sp, sp, #28
 291              		.cfi_def_cfa_offset 40
 292              		.loc 1 193 0
 293 0006 4B1C     		add	r3, r1, #1
 294 0008 12D0     		beq	.L33
 295              	.LBB27:
 296              		.loc 1 196 0
 297 000a 0B4C     		ldr	r4, .L39
 298 000c 01A8     		add	r0, sp, #4
 299              	.LVL18:
 300 000e A369     		ldr	r3, [r4, #24]
 301 0010 0A4A     		ldr	r2, .L39+4
 302 0012 FFF7FEFF 		bl	chVTSetI
 303              	.LVL19:
 304              		.loc 1 197 0
 305 0016 281C     		mov	r0, r5
 306 0018 FFF7FEFF 		bl	chSchGoSleepS
 307              	.LVL20:
 308              		.loc 1 198 0
 309 001c 049B     		ldr	r3, [sp, #16]
 310 001e 002B     		cmp	r3, #0
 311 0020 02D0     		beq	.L35
 312              		.loc 1 199 0
 313 0022 01A8     		add	r0, sp, #4
 314 0024 FFF7FEFF 		bl	chVTResetI
 315              	.LVL21:
 316              	.L35:
 317              	.LBE27:
 318              		.loc 1 203 0
 319 0028 A369     		ldr	r3, [r4, #24]
 320 002a 586A     		ldr	r0, [r3, #36]
 321              		.loc 1 204 0
 322 002c 07B0     		add	sp, sp, #28
 323              		@ sp needed
 324 002e 30BD     		pop	{r4, r5, pc}
 325              	.LVL22:
 326              	.L33:
 327              		.loc 1 202 0
 328 0030 FFF7FEFF 		bl	chSchGoSleepS
 329              	.LVL23:
 330 0034 004C     		ldr	r4, .L39
 331 0036 F7E7     		b	.L35
 332              	.L40:
 333              		.align	2
 334              	.L39:
 335 0038 00000000 		.word	.LANCHOR0
ARM GAS  /tmp/ccb5jvYY.s 			page 7


 336 003c 00000000 		.word	wakeup
 337              		.cfi_endproc
 338              	.LFE11:
 339              		.size	chSchGoSleepTimeoutS, .-chSchGoSleepTimeoutS
 340              		.section	.text.chSchWakeupS,"ax",%progbits
 341              		.align	2
 342              		.p2align 4,,15
 343              		.global	chSchWakeupS
 344              		.code	16
 345              		.thumb_func
 346              		.type	chSchWakeupS, %function
 347              	chSchWakeupS:
 348              	.LFB12:
 349              		.loc 1 225 0
 350              		.cfi_startproc
 351              	.LVL24:
 352 0000 38B5     		push	{r3, r4, r5, lr}
 353              		.cfi_def_cfa_offset 16
 354              		.cfi_offset 3, -16
 355              		.cfi_offset 4, -12
 356              		.cfi_offset 5, -8
 357              		.cfi_offset 14, -4
 358              		.loc 1 234 0
 359 0002 124D     		ldr	r5, .L48
 360              		.loc 1 229 0
 361 0004 4162     		str	r1, [r0, #36]
 362              		.loc 1 234 0
 363 0006 A969     		ldr	r1, [r5, #24]
 364              	.LVL25:
 365 0008 8468     		ldr	r4, [r0, #8]
 366 000a 8A68     		ldr	r2, [r1, #8]
 367              	.LBB28:
 368              	.LBB29:
 369              		.loc 1 92 0
 370 000c 0023     		mov	r3, #0
 371              	.LBE29:
 372              	.LBE28:
 373              		.loc 1 234 0
 374 000e 9442     		cmp	r4, r2
 375 0010 0BD8     		bhi	.L42
 376              	.LVL26:
 377              	.LBB31:
 378              	.LBB30:
 379              		.loc 1 92 0
 380 0012 0377     		strb	r3, [r0, #28]
 381              	.LVL27:
 382              		.loc 1 93 0
 383 0014 2B1C     		mov	r3, r5
 384              	.LVL28:
 385              	.L44:
 386              		.loc 1 95 0
 387 0016 1B68     		ldr	r3, [r3]
 388              	.LVL29:
 389              		.loc 1 96 0
 390 0018 9A68     		ldr	r2, [r3, #8]
 391 001a 9442     		cmp	r4, r2
 392 001c FBD9     		bls	.L44
ARM GAS  /tmp/ccb5jvYY.s 			page 8


 393              		.loc 1 99 0
 394 001e 5A68     		ldr	r2, [r3, #4]
 395              		.loc 1 98 0
 396 0020 0360     		str	r3, [r0]
 397              		.loc 1 99 0
 398 0022 4260     		str	r2, [r0, #4]
 399              		.loc 1 100 0
 400 0024 5860     		str	r0, [r3, #4]
 401 0026 1060     		str	r0, [r2]
 402              	.LVL30:
 403              	.L41:
 404              	.LBE30:
 405              	.LBE31:
 406              		.loc 1 242 0
 407              		@ sp needed
 408 0028 38BD     		pop	{r3, r4, r5, pc}
 409              	.LVL31:
 410              	.L42:
 411              	.LBB32:
 412              	.LBB33:
 413              	.LBB34:
 414              		.loc 1 92 0
 415 002a 0B77     		strb	r3, [r1, #28]
 416              	.LVL32:
 417              		.loc 1 93 0
 418 002c 2B1C     		mov	r3, r5
 419              	.LVL33:
 420              	.L47:
 421              		.loc 1 95 0
 422 002e 1B68     		ldr	r3, [r3]
 423              	.LVL34:
 424              		.loc 1 96 0
 425 0030 9C68     		ldr	r4, [r3, #8]
 426 0032 A242     		cmp	r2, r4
 427 0034 FBD9     		bls	.L47
 428              		.loc 1 99 0
 429 0036 5A68     		ldr	r2, [r3, #4]
 430              		.loc 1 98 0
 431 0038 0B60     		str	r3, [r1]
 432              		.loc 1 99 0
 433 003a 4A60     		str	r2, [r1, #4]
 434              		.loc 1 100 0
 435 003c 5960     		str	r1, [r3, #4]
 436              	.LBE34:
 437              	.LBE33:
 438              		.loc 1 239 0
 439 003e 0123     		mov	r3, #1
 440              	.LVL35:
 441              	.LBB36:
 442              	.LBB35:
 443              		.loc 1 100 0
 444 0040 1160     		str	r1, [r2]
 445              	.LVL36:
 446              	.LBE35:
 447              	.LBE36:
 448              		.loc 1 239 0
 449 0042 0377     		strb	r3, [r0, #28]
ARM GAS  /tmp/ccb5jvYY.s 			page 9


 450              		.loc 1 238 0
 451 0044 A861     		str	r0, [r5, #24]
 452              		.loc 1 240 0
 453 0046 FFF7FEFF 		bl	_port_switch
 454              	.LVL37:
 455 004a EDE7     		b	.L41
 456              	.L49:
 457              		.align	2
 458              	.L48:
 459 004c 00000000 		.word	.LANCHOR0
 460              	.LBE32:
 461              		.cfi_endproc
 462              	.LFE12:
 463              		.size	chSchWakeupS, .-chSchWakeupS
 464              		.section	.text.chSchDoRescheduleBehind,"ax",%progbits
 465              		.align	2
 466              		.p2align 4,,15
 467              		.global	chSchDoRescheduleBehind
 468              		.code	16
 469              		.thumb_func
 470              		.type	chSchDoRescheduleBehind, %function
 471              	chSchDoRescheduleBehind:
 472              	.LFB14:
 473              		.loc 1 304 0
 474              		.cfi_startproc
 475              		.loc 1 307 0
 476 0000 0E4B     		ldr	r3, .L54
 477              		.loc 1 304 0
 478 0002 10B5     		push	{r4, lr}
 479              		.cfi_def_cfa_offset 8
 480              		.cfi_offset 4, -8
 481              		.cfi_offset 14, -4
 482              	.LBB37:
 483              	.LBB38:
 484              		.loc 2 60 0
 485 0004 1868     		ldr	r0, [r3]
 486              	.LBE38:
 487              	.LBE37:
 488              		.loc 1 307 0
 489 0006 9969     		ldr	r1, [r3, #24]
 490              	.LVL38:
 491              	.LBB40:
 492              	.LBB39:
 493              		.loc 2 62 0
 494 0008 0268     		ldr	r2, [r0]
 495 000a 5360     		str	r3, [r2, #4]
 496 000c 1A60     		str	r2, [r3]
 497              	.LBE39:
 498              	.LBE40:
 499              		.loc 1 309 0
 500 000e 9861     		str	r0, [r3, #24]
 501              		.loc 1 310 0
 502 0010 0123     		mov	r3, #1
 503 0012 0377     		strb	r3, [r0, #28]
 504              		.loc 1 312 0
 505 0014 1423     		mov	r3, #20
 506 0016 CB77     		strb	r3, [r1, #31]
ARM GAS  /tmp/ccb5jvYY.s 			page 10


 507              	.LVL39:
 508              	.LBB41:
 509              	.LBB42:
 510              		.loc 1 92 0
 511 0018 0023     		mov	r3, #0
 512 001a 0B77     		strb	r3, [r1, #28]
 513              	.LVL40:
 514 001c 8A68     		ldr	r2, [r1, #8]
 515 001e 031C     		mov	r3, r0
 516 0020 00E0     		b	.L52
 517              	.LVL41:
 518              	.L53:
 519 0022 1B68     		ldr	r3, [r3]
 520              	.LVL42:
 521              	.L52:
 522              		.loc 1 96 0
 523 0024 9C68     		ldr	r4, [r3, #8]
 524 0026 9442     		cmp	r4, r2
 525 0028 FBD2     		bcs	.L53
 526              		.loc 1 99 0
 527 002a 5A68     		ldr	r2, [r3, #4]
 528              		.loc 1 98 0
 529 002c 0B60     		str	r3, [r1]
 530              		.loc 1 99 0
 531 002e 4A60     		str	r2, [r1, #4]
 532              		.loc 1 100 0
 533 0030 5960     		str	r1, [r3, #4]
 534 0032 1160     		str	r1, [r2]
 535              	.LBE42:
 536              	.LBE41:
 537              		.loc 1 315 0
 538 0034 FFF7FEFF 		bl	_port_switch
 539              	.LVL43:
 540              		.loc 1 316 0
 541              		@ sp needed
 542 0038 10BD     		pop	{r4, pc}
 543              	.L55:
 544 003a C046     		.align	2
 545              	.L54:
 546 003c 00000000 		.word	.LANCHOR0
 547              		.cfi_endproc
 548              	.LFE14:
 549              		.size	chSchDoRescheduleBehind, .-chSchDoRescheduleBehind
 550              		.section	.text.chSchDoRescheduleAhead,"ax",%progbits
 551              		.align	2
 552              		.p2align 4,,15
 553              		.global	chSchDoRescheduleAhead
 554              		.code	16
 555              		.thumb_func
 556              		.type	chSchDoRescheduleAhead, %function
 557              	chSchDoRescheduleAhead:
 558              	.LFB15:
 559              		.loc 1 329 0
 560              		.cfi_startproc
 561              		.loc 1 332 0
 562 0000 0D4B     		ldr	r3, .L60
 563              		.loc 1 329 0
ARM GAS  /tmp/ccb5jvYY.s 			page 11


 564 0002 10B5     		push	{r4, lr}
 565              		.cfi_def_cfa_offset 8
 566              		.cfi_offset 4, -8
 567              		.cfi_offset 14, -4
 568              	.LBB43:
 569              	.LBB44:
 570              		.loc 2 60 0
 571 0004 1868     		ldr	r0, [r3]
 572              	.LBE44:
 573              	.LBE43:
 574              		.loc 1 332 0
 575 0006 9969     		ldr	r1, [r3, #24]
 576              	.LVL44:
 577              	.LBB46:
 578              	.LBB45:
 579              		.loc 2 62 0
 580 0008 0268     		ldr	r2, [r0]
 581 000a 5360     		str	r3, [r2, #4]
 582 000c 1A60     		str	r2, [r3]
 583              	.LBE45:
 584              	.LBE46:
 585              		.loc 1 334 0
 586 000e 9861     		str	r0, [r3, #24]
 587              		.loc 1 335 0
 588 0010 0123     		mov	r3, #1
 589 0012 0377     		strb	r3, [r0, #28]
 590              		.loc 1 337 0
 591 0014 0023     		mov	r3, #0
 592 0016 0B77     		strb	r3, [r1, #28]
 593              	.LVL45:
 594 0018 8A68     		ldr	r2, [r1, #8]
 595 001a 031C     		mov	r3, r0
 596 001c 00E0     		b	.L58
 597              	.LVL46:
 598              	.L59:
 599 001e 1B68     		ldr	r3, [r3]
 600              	.LVL47:
 601              	.L58:
 602              		.loc 1 341 0 discriminator 1
 603 0020 9C68     		ldr	r4, [r3, #8]
 604 0022 9442     		cmp	r4, r2
 605 0024 FBD8     		bhi	.L59
 606              		.loc 1 344 0
 607 0026 5A68     		ldr	r2, [r3, #4]
 608              		.loc 1 343 0
 609 0028 0B60     		str	r3, [r1]
 610              		.loc 1 344 0
 611 002a 4A60     		str	r2, [r1, #4]
 612              		.loc 1 345 0
 613 002c 5960     		str	r1, [r3, #4]
 614 002e 1160     		str	r1, [r2]
 615              		.loc 1 347 0
 616 0030 FFF7FEFF 		bl	_port_switch
 617              	.LVL48:
 618              		.loc 1 348 0
 619              		@ sp needed
 620 0034 10BD     		pop	{r4, pc}
ARM GAS  /tmp/ccb5jvYY.s 			page 12


 621              	.L61:
 622 0036 C046     		.align	2
 623              	.L60:
 624 0038 00000000 		.word	.LANCHOR0
 625              		.cfi_endproc
 626              	.LFE15:
 627              		.size	chSchDoRescheduleAhead, .-chSchDoRescheduleAhead
 628 003c C046C046 		.section	.text.chSchRescheduleS,"ax",%progbits
 629              		.align	2
 630              		.p2align 4,,15
 631              		.global	chSchRescheduleS
 632              		.code	16
 633              		.thumb_func
 634              		.type	chSchRescheduleS, %function
 635              	chSchRescheduleS:
 636              	.LFB13:
 637              		.loc 1 253 0
 638              		.cfi_startproc
 639 0000 08B5     		push	{r3, lr}
 640              		.cfi_def_cfa_offset 8
 641              		.cfi_offset 3, -8
 642              		.cfi_offset 14, -4
 643              		.loc 1 257 0
 644 0002 054B     		ldr	r3, .L64
 645 0004 1A68     		ldr	r2, [r3]
 646 0006 9B69     		ldr	r3, [r3, #24]
 647 0008 9268     		ldr	r2, [r2, #8]
 648 000a 9B68     		ldr	r3, [r3, #8]
 649 000c 9A42     		cmp	r2, r3
 650 000e 01D9     		bls	.L62
 651              		.loc 1 258 0
 652 0010 FFF7FEFF 		bl	chSchDoRescheduleAhead
 653              	.LVL49:
 654              	.L62:
 655              		.loc 1 259 0
 656              		@ sp needed
 657 0014 08BD     		pop	{r3, pc}
 658              	.L65:
 659 0016 C046     		.align	2
 660              	.L64:
 661 0018 00000000 		.word	.LANCHOR0
 662              		.cfi_endproc
 663              	.LFE13:
 664              		.size	chSchRescheduleS, .-chSchRescheduleS
 665 001c C046C046 		.section	.text.chSchDoReschedule,"ax",%progbits
 666              		.align	2
 667              		.p2align 4,,15
 668              		.global	chSchDoReschedule
 669              		.code	16
 670              		.thumb_func
 671              		.type	chSchDoReschedule, %function
 672              	chSchDoReschedule:
 673              	.LFB16:
 674              		.loc 1 362 0
 675              		.cfi_startproc
 676 0000 08B5     		push	{r3, lr}
 677              		.cfi_def_cfa_offset 8
ARM GAS  /tmp/ccb5jvYY.s 			page 13


 678              		.cfi_offset 3, -8
 679              		.cfi_offset 14, -4
 680              		.loc 1 367 0
 681 0002 054B     		ldr	r3, .L70
 682 0004 9B69     		ldr	r3, [r3, #24]
 683 0006 DB7F     		ldrb	r3, [r3, #31]
 684 0008 002B     		cmp	r3, #0
 685 000a 02D0     		beq	.L69
 686              		.loc 1 375 0
 687 000c FFF7FEFF 		bl	chSchDoRescheduleAhead
 688              	.LVL50:
 689              	.L66:
 690              		.loc 1 382 0
 691              		@ sp needed
 692 0010 08BD     		pop	{r3, pc}
 693              	.L69:
 694              		.loc 1 370 0
 695 0012 FFF7FEFF 		bl	chSchDoRescheduleBehind
 696              	.LVL51:
 697 0016 FBE7     		b	.L66
 698              	.L71:
 699              		.align	2
 700              	.L70:
 701 0018 00000000 		.word	.LANCHOR0
 702              		.cfi_endproc
 703              	.LFE16:
 704              		.size	chSchDoReschedule, .-chSchDoReschedule
 705              		.global	rlist
 706 001c C046C046 		.section	.bss.rlist,"aw",%nobits
 707              		.align	2
 708              		.set	.LANCHOR0,. + 0
 709              		.type	rlist, %object
 710              		.size	rlist, 28
 711              	rlist:
 712 0000 00000000 		.space	28
 712      00000000 
 712      00000000 
 712      00000000 
 712      00000000 
 713              		.text
 714              	.Letext0:
 715              		.file 3 "/usr/arm-none-eabi/include/machine/_default_types.h"
 716              		.file 4 "/usr/arm-none-eabi/include/stdint.h"
 717              		.file 5 "../../os/ports/GCC/ARMCMx/chtypes.h"
 718              		.file 6 "../../os/kernel/include/chlists.h"
 719              		.file 7 "../../os/kernel/include/chthreads.h"
 720              		.file 8 "../../os/ports/GCC/ARMCMx/chcore_v6m.h"
 721              		.file 9 "../../os/kernel/include/chvt.h"
 722              		.file 10 "../../os/kernel/include/chschd.h"
 723              		.file 11 "../../os/kernel/include/chsem.h"
 724              		.file 12 "../../os/kernel/include/chmtx.h"