ARM GAS  /tmp/ccb5jvYY.s 			page 1


   1              		.cpu cortex-m0
   2              		.fpu softvfp
   3              		.eabi_attribute 20, 1
   4              		.eabi_attribute 21, 1
   5              		.eabi_attribute 23, 3
   6              		.eabi_attribute 24, 1
   7              		.eabi_attribute 25, 1
   8              		.eabi_attribute 26, 1
   9              		.eabi_attribute 30, 2
  10              		.eabi_attribute 34, 0
  11              		.eabi_attribute 18, 4
  12              		.code	16
  13              		.file	"chschd.c"
  14              		.text
  15              	.Ltext0:
  16              		.cfi_sections	.debug_frame
  17              		.section	.text.wakeup,"ax",%progbits
  18              		.align	2
  19              		.p2align 4,,15
  20              		.code	16
  21              		.thumb_func
  22              		.type	wakeup, %function
  23              	wakeup:
  24              	.LFB10:
  25              		.file 1 "../../os/kernel/src/chschd.c"
  26              		.loc 1 136 0
  27              		.cfi_startproc
  28              	.LVL0:
  29 0000 00B5     		push	{lr}
  30              		.cfi_def_cfa_offset 4
  31              		.cfi_offset 14, -4
  32              		.loc 1 139 0
  33              	@ 139 "../../os/kernel/src/chschd.c" 1
  34 0002 72B6     		cpsid   i
  35              	@ 0 "" 2
  36              		.loc 1 140 0
  37              		.code	16
  38 0004 037F     		ldrb	r3, [r0, #28]
  39 0006 032B     		cmp	r3, #3
  40 0008 19D0     		beq	.L3
  41 000a 14D9     		bls	.L18
  42 000c 052B     		cmp	r3, #5
  43 000e 1AD0     		beq	.L6
  44 0010 0D2B     		cmp	r3, #13
  45 0012 18D0     		beq	.L6
  46              	.L2:
  47              		.loc 1 163 0
  48 0014 0123     		mov	r3, #1
  49 0016 5B42     		neg	r3, r3
  50 0018 4362     		str	r3, [r0, #36]
  51              	.LVL1:
  52              	.LBB19:
  53              	.LBB20:
  54              		.loc 1 92 0
  55 001a 0023     		mov	r3, #0
  56 001c 0377     		strb	r3, [r0, #28]
  57              	.LVL2:
ARM GAS  /tmp/ccb5jvYY.s 			page 2


  58 001e 8268     		ldr	r2, [r0, #8]
  59              		.loc 1 93 0
  60 0020 0C4B     		ldr	r3, .L19
  61              	.LVL3:
  62              	.L9:
  63              		.loc 1 95 0
  64 0022 1B68     		ldr	r3, [r3]
  65              	.LVL4:
  66              		.loc 1 96 0
  67 0024 9968     		ldr	r1, [r3, #8]
  68 0026 9142     		cmp	r1, r2
  69 0028 FBD2     		bcs	.L9
  70              		.loc 1 99 0
  71 002a 5A68     		ldr	r2, [r3, #4]
  72              		.loc 1 98 0
  73 002c 0360     		str	r3, [r0]
  74              		.loc 1 99 0
  75 002e 4260     		str	r2, [r0, #4]
  76              		.loc 1 100 0
  77 0030 5860     		str	r0, [r3, #4]
  78 0032 1060     		str	r0, [r2]
  79 0034 01E0     		b	.L16
  80              	.LVL5:
  81              	.L18:
  82              	.LBE20:
  83              	.LBE19:
  84              		.loc 1 140 0
  85 0036 002B     		cmp	r3, #0
  86 0038 ECD1     		bne	.L2
  87              	.L16:
  88              		.loc 1 165 0
  89              	@ 165 "../../os/kernel/src/chschd.c" 1
  90 003a 62B6     		cpsie   i
  91              	@ 0 "" 2
  92              		.loc 1 166 0
  93              		.code	16
  94              		@ sp needed
  95 003c 00BD     		pop	{pc}
  96              	.L3:
  97              		.loc 1 150 0
  98 003e 436A     		ldr	r3, [r0, #36]
  99 0040 9A68     		ldr	r2, [r3, #8]
 100 0042 0132     		add	r2, r2, #1
 101 0044 9A60     		str	r2, [r3, #8]
 102              	.L6:
 103              	.LVL6:
 104              	.LBB21:
 105              	.LBB22:
 106              		.file 2 "../../os/kernel/include/chinline.h"
 107              		.loc 2 75 0
 108 0046 4368     		ldr	r3, [r0, #4]
 109 0048 0168     		ldr	r1, [r0]
 110 004a 1960     		str	r1, [r3]
 111              		.loc 2 76 0
 112 004c 0268     		ldr	r2, [r0]
 113 004e 5360     		str	r3, [r2, #4]
 114 0050 E0E7     		b	.L2
ARM GAS  /tmp/ccb5jvYY.s 			page 3


 115              	.L20:
 116 0052 C046     		.align	2
 117              	.L19:
 118 0054 00000000 		.word	.LANCHOR0
 119              	.LBE22:
 120              	.LBE21:
 121              		.cfi_endproc
 122              	.LFE10:
 123              		.size	wakeup, .-wakeup
 124 0058 C046C046 		.section	.text._scheduler_init,"ax",%progbits
 124      C046C046 
 125              		.align	2
 126              		.p2align 4,,15
 127              		.global	_scheduler_init
 128              		.code	16
 129              		.thumb_func
 130              		.type	_scheduler_init, %function
 131              	_scheduler_init:
 132              	.LFB7:
 133              		.loc 1 55 0
 134              		.cfi_startproc
 135              		.loc 1 57 0
 136 0000 034B     		ldr	r3, .L22
 137              		.loc 1 58 0
 138 0002 0022     		mov	r2, #0
 139              		.loc 1 57 0
 140 0004 5B60     		str	r3, [r3, #4]
 141 0006 1B60     		str	r3, [r3]
 142              		.loc 1 58 0
 143 0008 9A60     		str	r2, [r3, #8]
 144              		.loc 1 60 0
 145 000a 5B61     		str	r3, [r3, #20]
 146 000c 1B61     		str	r3, [r3, #16]
 147              		.loc 1 62 0
 148              		@ sp needed
 149 000e 7047     		bx	lr
 150              	.L23:
 151              		.align	2
 152              	.L22:
 153 0010 00000000 		.word	.LANCHOR0
 154              		.cfi_endproc
 155              	.LFE7:
 156              		.size	_scheduler_init, .-_scheduler_init
 157 0014 C046C046 		.section	.text.chSchReadyI,"ax",%progbits
 157      C046C046 
 157      C046C046 
 158              		.align	2
 159              		.p2align 4,,15
 160              		.global	chSchReadyI
 161              		.code	16
 162              		.thumb_func
 163              		.type	chSchReadyI, %function
 164              	chSchReadyI:
 165              	.LFB8:
 166              		.loc 1 81 0
 167              		.cfi_startproc
 168              	.LVL7:
ARM GAS  /tmp/ccb5jvYY.s 			page 4


 169 0000 00B5     		push	{lr}
 170              		.cfi_def_cfa_offset 4
 171              		.cfi_offset 14, -4
 172              		.loc 1 92 0
 173 0002 0023     		mov	r3, #0
 174 0004 0377     		strb	r3, [r0, #28]
 175              	.LVL8:
 176 0006 8268     		ldr	r2, [r0, #8]
 177              		.loc 1 93 0
 178 0008 054B     		ldr	r3, .L27
 179              	.LVL9:
 180              	.L26:
 181              		.loc 1 95 0 discriminator 1
 182 000a 1B68     		ldr	r3, [r3]
 183              	.LVL10:
 184              		.loc 1 96 0 discriminator 1
 185 000c 9968     		ldr	r1, [r3, #8]
 186 000e 9142     		cmp	r1, r2
 187 0010 FBD2     		bcs	.L26
 188              		.loc 1 99 0
 189 0012 5A68     		ldr	r2, [r3, #4]
 190              		.loc 1 98 0
 191 0014 0360     		str	r3, [r0]
 192              		.loc 1 99 0
 193 0016 4260     		str	r2, [r0, #4]
 194              		.loc 1 100 0
 195 0018 5860     		str	r0, [r3, #4]
 196              		.loc 1 102 0
 197              		@ sp needed
 198              		.loc 1 100 0
 199 001a 1060     		str	r0, [r2]
 200              		.loc 1 102 0
 201 001c 00BD     		pop	{pc}
 202              	.L28:
 203 001e C046     		.align	2
 204              	.L27:
 205 0020 00000000 		.word	.LANCHOR0
 206              		.cfi_endproc
 207              	.LFE8:
 208              		.size	chSchReadyI, .-chSchReadyI
 209 0024 C046C046 		.section	.text.chSchGoSleepS,"ax",%progbits
 209      C046C046 
 209      C046C046 
 210              		.align	2
 211              		.p2align 4,,15
 212              		.global	chSchGoSleepS
 213              		.code	16
 214              		.thumb_func
 215              		.type	chSchGoSleepS, %function
 216              	chSchGoSleepS:
 217              	.LFB9:
 218              		.loc 1 115 0
 219              		.cfi_startproc
 220              	.LVL11:
 221 0000 08B5     		push	{r3, lr}
 222              		.cfi_def_cfa_offset 8
 223              		.cfi_offset 3, -8
ARM GAS  /tmp/ccb5jvYY.s 			page 5


 224              		.cfi_offset 14, -4
 225              		.loc 1 120 0
 226 0002 074B     		ldr	r3, .L30
 227              		.loc 1 124 0
 228 0004 1422     		mov	r2, #20
 229              		.loc 1 120 0
 230 0006 9969     		ldr	r1, [r3, #24]
 231              	.LVL12:
 232              		.loc 1 129 0
 233              		@ sp needed
 234              		.loc 1 120 0
 235 0008 0877     		strb	r0, [r1, #28]
 236              	.LBB23:
 237              	.LBB24:
 238              		.loc 2 60 0
 239 000a 1868     		ldr	r0, [r3]
 240              	.LVL13:
 241              	.LBE24:
 242              	.LBE23:
 243              		.loc 1 124 0
 244 000c CA77     		strb	r2, [r1, #31]
 245              	.LVL14:
 246              	.LBB26:
 247              	.LBB25:
 248              		.loc 2 62 0
 249 000e 0268     		ldr	r2, [r0]
 250 0010 5360     		str	r3, [r2, #4]
 251 0012 1A60     		str	r2, [r3]
 252              	.LBE25:
 253              	.LBE26:
 254              		.loc 1 126 0
 255 0014 9861     		str	r0, [r3, #24]
 256              		.loc 1 127 0
 257 0016 0123     		mov	r3, #1
 258 0018 0377     		strb	r3, [r0, #28]
 259              	.LVL15:
 260              		.loc 1 128 0
 261 001a FFF7FEFF 		bl	_port_switch
 262              	.LVL16:
 263              		.loc 1 129 0
 264 001e 08BD     		pop	{r3, pc}
 265              	.L31:
 266              		.align	2
 267              	.L30:
 268 0020 00000000 		.word	.LANCHOR0
 269              		.cfi_endproc
 270              	.LFE9:
 271              		.size	chSchGoSleepS, .-chSchGoSleepS
 272 0024 C046C046 		.section	.text.chSchGoSleepTimeoutS,"ax",%progbits
 272      C046C046 
 272      C046C046 
 273              		.align	2
 274              		.p2align 4,,15
 275              		.global	chSchGoSleepTimeoutS
 276              		.code	16
 277              		.thumb_func
 278              		.type	chSchGoSleepTimeoutS, %function
ARM GAS  /tmp/ccb5jvYY.s 			page 6


 279              	chSchGoSleepTimeoutS:
 280              	.LFB11:
 281              		.loc 1 189 0
 282              		.cfi_startproc
 283              	.LVL17:
 284 0000 30B5     		push	{r4, r5, lr}
 285              		.cfi_def_cfa_offset 12
 286              		.cfi_offset 4, -12
 287              		.cfi_offset 5, -8
 288              		.cfi_offset 14, -4
 289 0002 051C     		mov	r5, r0
 290 0004 87B0     		sub	sp, sp, #28
 291              		.cfi_def_cfa_offset 40
 292              		.loc 1 193 0
 293 0006 4B1C     		add	r3, r1, #1
 294 0008 12D0     		beq	.L33
 295              	.LBB27:
 296              		.loc 1 196 0
 297 000a 0B4C     		ldr	r4, .L39
 298 000c 01A8     		add	r0, sp, #4
 299              	.LVL18:
 300 000e A369     		ldr	r3, [r4, #24]
 301 0010 0A4A     		ldr	r2, .L39+4
 302 0012 FFF7FEFF 		bl	chVTSetI
 303              	.LVL19:
 304              		.loc 1 197 0
 305 0016 281C     		mov	r0, r5
 306 0018 FFF7FEFF 		bl	chSchGoSleepS
 307              	.LVL20:
 308              		.loc 1 198 0
 309 001c 049B     		ldr	r3, [sp, #16]
 310 001e 002B     		cmp	r3, #0
 311 0020 02D0     		beq	.L35
 312              		.loc 1 199 0
 313 0022 01A8     		add	r0, sp, #4
 314 0024 FFF7FEFF 		bl	chVTResetI
 315              	.LVL21:
 316              	.L35:
 317              	.LBE27:
 318              		.loc 1 203 0
 319 0028 A369     		ldr	r3, [r4, #24]
 320 002a 586A     		ldr	r0, [r3, #36]
 321              		.loc 1 204 0
 322 002c 07B0     		add	sp, sp, #28
 323              		@ sp needed
 324 002e 30BD     		pop	{r4, r5, pc}
 325              	.LVL22:
 326              	.L33:
 327              		.loc 1 202 0
 328 0030 FFF7FEFF 		bl	chSchGoSleepS
 329              	.LVL23:
 330 0034 004C     		ldr	r4, .L39
 331 0036 F7E7     		b	.L35
 332              	.L40:
 333              		.align	2
 334              	.L39:
 335 0038 00000000 		.word	.LANCHOR0
ARM GAS  /tmp/ccb5jvYY.s 			page 7


 336 003c 00000000 		.word	wakeup
 337              		.cfi_endproc
 338              	.LFE11:
 339              		.size	chSchGoSleepTimeoutS, .-chSchGoSleepTimeoutS
 340              		.section	.text.chSchWakeupS,"ax",%progbits
 341              		.align	2
 342              		.p2align 4,,15
 343              		.global	chSchWakeupS
 344              		.code	16
 345              		.thumb_func
 346              		.type	chSchWakeupS, %function
 347              	chSchWakeupS:
 348              	.LFB12:
 349              		.loc 1 225 0
 350              		.cfi_startproc
 351              	.LVL24:
 352 0000 38B5     		push	{r3, r4, r5, lr}
 353              		.cfi_def_cfa_offset 16
 354              		.cfi_offset 3, -16
 355              		.cfi_offset 4, -12
 356              		.cfi_offset 5, -8
 357              		.cfi_offset 14, -4
 358              		.loc 1 234 0
 359 0002 124D     		ldr	r5, .L48
 360              		.loc 1 229 0
 361 0004 4162     		str	r1, [r0, #36]
 362              		.loc 1 234 0
 363 0006 A969     		ldr	r1, [r5, #24]
 364              	.LVL25:
 365 0008 8468     		ldr	r4, [r0, #8]
 366 000a 8A68     		ldr	r2, [r1, #8]
 367              	.LBB28:
 368              	.LBB29:
 369              		.loc 1 92 0
 370 000c 0023     		mov	r3, #0
 371              	.LBE29:
 372              	.LBE28:
 373              		.loc 1 234 0
 374 000e 9442     		cmp	r4, r2
 375 0010 0BD8     		bhi	.L42
 376              	.LVL26:
 377              	.LBB31:
 378              	.LBB30:
 379              		.loc 1 92 0
 380 0012 0377     		strb	r3, [r0, #28]
 381              	.LVL27:
 382              		.loc 1 93 0
 383 0014 2B1C     		mov	r3, r5
 384              	.LVL28:
 385              	.L44:
 386              		.loc 1 95 0
 387 0016 1B68     		ldr	r3, [r3]
 388              	.LVL29:
 389              		.loc 1 96 0
 390 0018 9A68     		ldr	r2, [r3, #8]
 391 001a 9442     		cmp	r4, r2
 392 001c FBD9     		bls	.L44
ARM GAS  /tmp/ccb5jvYY.s 			page 8


 393              		.loc 1 99 0
 394 001e 5A68     		ldr	r2, [r3, #4]
 395              		.loc 1 98 0
 396 0020 0360     		str	r3, [r0]
 397              		.loc 1 99 0
 398 0022 4260     		str	r2, [r0, #4]
 399              		.loc 1 100 0
 400 0024 5860     		str	r0, [r3, #4]
 401 0026 1060     		str	r0, [r2]
 402              	.LVL30:
 403              	.L41:
 404              	.LBE30:
 405              	.LBE31:
 406              		.loc 1 242 0
 407              		@ sp needed
 408 0028 38BD     		pop	{r3, r4, r5, pc}
 409              	.LVL31:
 410              	.L42:
 411              	.LBB32:
 412              	.LBB33:
 413              	.LBB34:
 414              		.loc 1 92 0
 415 002a 0B77     		strb	r3, [r1, #28]
 416              	.LVL32:
 417              		.loc 1 93 0
 418 002c 2B1C     		mov	r3, r5
 419              	.LVL33:
 420              	.L47:
 421              		.loc 1 95 0
 422 002e 1B68     		ldr	r3, [r3]
 423              	.LVL34:
 424              		.loc 1 96 0
 425 0030 9C68     		ldr	r4, [r3, #8]
 426 0032 A242     		cmp	r2, r4
 427 0034 FBD9     		bls	.L47
 428              		.loc 1 99 0
 429 0036 5A68     		ldr	r2, [r3, #4]
 430              		.loc 1 98 0
 431 0038 0B60     		str	r3, [r1]
 432              		.loc 1 99 0
 433 003a 4A60     		str	r2, [r1, #4]
 434              		.loc 1 100 0
 435 003c 5960     		str	r1, [r3, #4]
 436              	.LBE34:
 437              	.LBE33:
 438              		.loc 1 239 0
 439 003e 0123     		mov	r3, #1
 440              	.LVL35:
 441              	.LBB36:
 442              	.LBB35:
 443              		.loc 1 100 0
 444 0040 1160     		str	r1, [r2]
 445              	.LVL36:
 446              	.LBE35:
 447              	.LBE36:
 448              		.loc 1 239 0
 449 0042 0377     		strb	r3, [r0, #28]
ARM GAS  /tmp/ccb5jvYY.s 			page 9


 450              		.loc 1 238 0
 451 0044 A861     		str	r0, [r5, #24]
 452              		.loc 1 240 0
 453 0046 FFF7FEFF 		bl	_port_switch
 454              	.LVL37:
 455 004a EDE7     		b	.L41
 456              	.L49:
 457              		.align	2
 458              	.L48:
 459 004c 00000000 		.word	.LANCHOR0
 460              	.LBE32:
 461              		.cfi_endproc
 462              	.LFE12:
 463              		.size	chSchWakeupS, .-chSchWakeupS
 464              		.section	.text.chSchDoRescheduleBehind,"ax",%progbits
 465              		.align	2
 466              		.p2align 4,,15
 467              		.global	chSchDoRescheduleBehind
 468              		.code	16
 469              		.thumb_func
 470              		.type	chSchDoRescheduleBehind, %function
 471              	chSchDoRescheduleBehind:
 472              	.LFB14:
 473              		.loc 1 304 0
 474              		.cfi_startproc
 475              		.loc 1 307 0
 476 0000 0E4B     		ldr	r3, .L54
 477              		.loc 1 304 0
 478 0002 10B5     		push	{r4, lr}
 479              		.cfi_def_cfa_offset 8
 480              		.cfi_offset 4, -8
 481              		.cfi_offset 14, -4
 482              	.LBB37:
 483              	.LBB38:
 484              		.loc 2 60 0
 485 0004 1868     		ldr	r0, [r3]
 486              	.LBE38:
 487              	.LBE37:
 488              		.loc 1 307 0
 489 0006 9969     		ldr	r1, [r3, #24]
 490              	.LVL38:
 491              	.LBB40:
 492              	.LBB39:
 493              		.loc 2 62 0
 494 0008 0268     		ldr	r2, [r0]
 495 000a 5360     		str	r3, [r2, #4]
 496 000c 1A60     		str	r2, [r3]
 497              	.LBE39:
 498              	.LBE40:
 499              		.loc 1 309 0
 500 000e 9861     		str	r0, [r3, #24]
 501              		.loc 1 310 0
 502 0010 0123     		mov	r3, #1
 503 0012 0377     		strb	r3, [r0, #28]
 504              		.loc 1 312 0
 505 0014 1423     		mov	r3, #20
 506 0016 CB77     		strb	r3, [r1, #31]
ARM GAS  /tmp/ccb5jvYY.s 			page 10


 507              	.LVL39:
 508              	.LBB41:
 509              	.LBB42:
 510              		.loc 1 92 0
 511 0018 0023     		mov	r3, #0
 512 001a 0B77     		strb	r3, [r1, #28]
 513              	.LVL40:
 514 001c 8A68     		ldr	r2, [r1, #8]
 515 001e 031C     		mov	r3, r0
 516 0020 00E0     		b	.L52
 517              	.LVL41:
 518              	.L53:
 519 0022 1B68     		ldr	r3, [r3]
 520              	.LVL42:
 521              	.L52:
 522              		.loc 1 96 0
 523 0024 9C68     		ldr	r4, [r3, #8]
 524 0026 9442     		cmp	r4, r2
 525 0028 FBD2     		bcs	.L53
 526              		.loc 1 99 0
 527 002a 5A68     		ldr	r2, [r3, #4]
 528              		.loc 1 98 0
 529 002c 0B60     		str	r3, [r1]
 530              		.loc 1 99 0
 531 002e 4A60     		str	r2, [r1, #4]
 532              		.loc 1 100 0
 533 0030 5960     		str	r1, [r3, #4]
 534 0032 1160     		str	r1, [r2]
 535              	.LBE42:
 536              	.LBE41:
 537              		.loc 1 315 0
 538 0034 FFF7FEFF 		bl	_port_switch
 539              	.LVL43:
 540              		.loc 1 316 0
 541              		@ sp needed
 542 0038 10BD     		pop	{r4, pc}
 543              	.L55:
 544 003a C046     		.align	2
 545              	.L54:
 546 003c 00000000 		.word	.LANCHOR0
 547              		.cfi_endproc
 548              	.LFE14:
 549              		.size	chSchDoRescheduleBehind, .-chSchDoRescheduleBehind
 550              		.section	.text.chSchDoRescheduleAhead,"ax",%progbits
 551              		.align	2
 552              		.p2align 4,,15
 553              		.global	chSchDoRescheduleAhead
 554              		.code	16
 555              		.thumb_func
 556              		.type	chSchDoRescheduleAhead, %function
 557              	chSchDoRescheduleAhead:
 558              	.LFB15:
 559              		.loc 1 329 0
 560              		.cfi_startproc
 561              		.loc 1 332 0
 562 0000 0D4B     		ldr	r3, .L60
 563              		.loc 1 329 0
ARM GAS  /tmp/ccb5jvYY.s 			page 11


 564 0002 10B5     		push	{r4, lr}
 565              		.cfi_def_cfa_offset 8
 566              		.cfi_offset 4, -8
 567              		.cfi_offset 14, -4
 568              	.LBB43:
 569              	.LBB44:
 570              		.loc 2 60 0
 571 0004 1868     		ldr	r0, [r3]
 572              	.LBE44:
 573              	.LBE43:
 574              		.loc 1 332 0
 575 0006 9969     		ldr	r1, [r3, #24]
 576              	.LVL44:
 577              	.LBB46:
 578              	.LBB45:
 579              		.loc 2 62 0
 580 0008 0268     		ldr	r2, [r0]
 581 000a 5360     		str	r3, [r2, #4]
 582 000c 1A60     		str	r2, [r3]
 583              	.LBE45:
 584              	.LBE46:
 585              		.loc 1 334 0
 586 000e 9861     		str	r0, [r3, #24]
 587              		.loc 1 335 0
 588 0010 0123     		mov	r3, #1
 589 0012 0377     		strb	r3, [r0, #28]
 590              		.loc 1 337 0
 591 0014 0023     		mov	r3, #0
 592 0016 0B77     		strb	r3, [r1, #28]
 593              	.LVL45:
 594 0018 8A68     		ldr	r2, [r1, #8]
 595 001a 031C     		mov	r3, r0
 596 001c 00E0     		b	.L58
 597              	.LVL46:
 598              	.L59:
 599 001e 1B68     		ldr	r3, [r3]
 600              	.LVL47:
 601              	.L58:
 602              		.loc 1 341 0 discriminator 1
 603 0020 9C68     		ldr	r4, [r3, #8]
 604 0022 9442     		cmp	r4, r2
 605 0024 FBD8     		bhi	.L59
 606              		.loc 1 344 0
 607 0026 5A68     		ldr	r2, [r3, #4]
 608              		.loc 1 343 0
 609 0028 0B60     		str	r3, [r1]
 610              		.loc 1 344 0
 611 002a 4A60     		str	r2, [r1, #4]
 612              		.loc 1 345 0
 613 002c 5960     		str	r1, [r3, #4]
 614 002e 1160     		str	r1, [r2]
 615              		.loc 1 347 0
 616 0030 FFF7FEFF 		bl	_port_switch
 617              	.LVL48:
 618              		.loc 1 348 0
 619              		@ sp needed
 620 0034 10BD     		pop	{r4, pc}
ARM GAS  /tmp/ccb5jvYY.s 			page 12


 621              	.L61:
 622 0036 C046     		.align	2
 623              	.L60:
 624 0038 00000000 		.word	.LANCHOR0
 625              		.cfi_endproc
 626              	.LFE15:
 627              		.size	chSchDoRescheduleAhead, .-chSchDoRescheduleAhead
 628 003c C046C046 		.section	.text.chSchRescheduleS,"ax",%progbits
 629              		.align	2
 630              		.p2align 4,,15
 631              		.global	chSchRescheduleS
 632              		.code	16
 633              		.thumb_func
 634              		.type	chSchRescheduleS, %function
 635              	chSchRescheduleS:
 636              	.LFB13:
 637              		.loc 1 253 0
 638              		.cfi_startproc
 639 0000 08B5     		push	{r3, lr}
 640              		.cfi_def_cfa_offset 8
 641              		.cfi_offset 3, -8
 642              		.cfi_offset 14, -4
 643              		.loc 1 257 0
 644 0002 054B     		ldr	r3, .L64
 645 0004 1A68     		ldr	r2, [r3]
 646 0006 9B69     		ldr	r3, [r3, #24]
 647 0008 9268     		ldr	r2, [r2, #8]
 648 000a 9B68     		ldr	r3, [r3, #8]
 649 000c 9A42     		cmp	r2, r3
 650 000e 01D9     		bls	.L62
 651              		.loc 1 258 0
 652 0010 FFF7FEFF 		bl	chSchDoRescheduleAhead
 653              	.LVL49:
 654              	.L62:
 655              		.loc 1 259 0
 656              		@ sp needed
 657 0014 08BD     		pop	{r3, pc}
 658              	.L65:
 659 0016 C046     		.align	2
 660              	.L64:
 661 0018 00000000 		.word	.LANCHOR0
 662              		.cfi_endproc
 663              	.LFE13:
 664              		.size	chSchRescheduleS, .-chSchRescheduleS
 665 001c C046C046 		.section	.text.chSchDoReschedule,"ax",%progbits
 666              		.align	2
 667              		.p2align 4,,15
 668              		.global	chSchDoReschedule
 669              		.code	16
 670              		.thumb_func
 671              		.type	chSchDoReschedule, %function
 672              	chSchDoReschedule:
 673              	.LFB16:
 674              		.loc 1 362 0
 675              		.cfi_startproc
 676 0000 08B5     		push	{r3, lr}
 677              		.cfi_def_cfa_offset 8
ARM GAS  /tmp/ccb5jvYY.s 			page 13


 678              		.cfi_offset 3, -8
 679              		.cfi_offset 14, -4
 680              		.loc 1 367 0
 681 0002 054B     		ldr	r3, .L70
 682 0004 9B69     		ldr	r3, [r3, #24]
 683 0006 DB7F     		ldrb	r3, [r3, #31]
 684 0008 002B     		cmp	r3, #0
 685 000a 02D0     		beq	.L69
 686              		.loc 1 375 0
 687 000c FFF7FEFF 		bl	chSchDoRescheduleAhead
 688              	.LVL50:
 689              	.L66:
 690              		.loc 1 382 0
 691              		@ sp needed
 692 0010 08BD     		pop	{r3, pc}
 693              	.L69:
 694              		.loc 1 370 0
 695 0012 FFF7FEFF 		bl	chSchDoRescheduleBehind
 696              	.LVL51:
 697 0016 FBE7     		b	.L66
 698              	.L71:
 699              		.align	2
 700              	.L70:
 701 0018 00000000 		.word	.LANCHOR0
 702              		.cfi_endproc
 703              	.LFE16:
 704              		.size	chSchDoReschedule, .-chSchDoReschedule
 705              		.global	rlist
 706 001c C046C046 		.section	.bss.rlist,"aw",%nobits
 707              		.align	2
 708              		.set	.LANCHOR0,. + 0
 709              		.type	rlist, %object
 710              		.size	rlist, 28
 711              	rlist:
 712 0000 00000000 		.space	28
 712      00000000 
 712      00000000 
 712      00000000 
 712      00000000 
 713              		.text
 714              	.Letext0:
 715              		.file 3 "/usr/arm-none-eabi/include/machine/_default_types.h"
 716              		.file 4 "/usr/arm-none-eabi/include/stdint.h"
 717              		.file 5 "../../os/ports/GCC/ARMCMx/chtypes.h"
 718              		.file 6 "../../os/kernel/include/chlists.h"
 719              		.file 7 "../../os/kernel/include/chthreads.h"
 720              		.file 8 "../../os/ports/GCC/ARMCMx/chcore_v6m.h"
 721              		.file 9 "../../os/kernel/include/chvt.h"
 722              		.file 10 "../../os/kernel/include/chschd.h"
 723              		.file 11 "../../os/kernel/include/chsem.h"
 724              		.file 12 "../../os/kernel/include/chmtx.h"
 725              		.section	.debug_info,"",%progbits
 726              	.Ldebug_info0:
 727 0000 1D090000 		.4byte	0x91d
 728 0004 0400     		.2byte	0x4
 729 0006 00000000 		.4byte	.Ldebug_abbrev0
 730 000a 04       		.byte	0x4
ARM GAS  /tmp/ccb5jvYY.s 			page 14


 731 000b 01       		.uleb128 0x1
 732 000c CC000000 		.4byte	.LASF89
 733 0010 01       		.byte	0x1
 734 0011 57040000 		.4byte	.LASF90
 735 0015 98020000 		.4byte	.LASF91
 736 0019 78000000 		.4byte	.Ldebug_ranges0+0x78
 737 001d 00000000 		.4byte	0
 738 0021 00000000 		.4byte	.Ldebug_line0
 739 0025 02       		.uleb128 0x2
 740 0026 04       		.byte	0x4
 741 0027 05       		.byte	0x5
 742 0028 696E7400 		.ascii	"int\000"
 743 002c 03       		.uleb128 0x3
 744 002d 04       		.byte	0x4
 745 002e 07       		.byte	0x7
 746 002f 9D010000 		.4byte	.LASF0
 747 0033 03       		.uleb128 0x3
 748 0034 01       		.byte	0x1
 749 0035 06       		.byte	0x6
 750 0036 73000000 		.4byte	.LASF1
 751 003a 04       		.uleb128 0x4
 752 003b 24000000 		.4byte	.LASF5
 753 003f 03       		.byte	0x3
 754 0040 1C       		.byte	0x1c
 755 0041 45000000 		.4byte	0x45
 756 0045 03       		.uleb128 0x3
 757 0046 01       		.byte	0x1
 758 0047 08       		.byte	0x8
 759 0048 31030000 		.4byte	.LASF2
 760 004c 03       		.uleb128 0x3
 761 004d 02       		.byte	0x2
 762 004e 05       		.byte	0x5
 763 004f 52030000 		.4byte	.LASF3
 764 0053 03       		.uleb128 0x3
 765 0054 02       		.byte	0x2
 766 0055 07       		.byte	0x7
 767 0056 EF010000 		.4byte	.LASF4
 768 005a 04       		.uleb128 0x4
 769 005b 0D040000 		.4byte	.LASF6
 770 005f 03       		.byte	0x3
 771 0060 37       		.byte	0x37
 772 0061 65000000 		.4byte	0x65
 773 0065 03       		.uleb128 0x3
 774 0066 04       		.byte	0x4
 775 0067 05       		.byte	0x5
 776 0068 99000000 		.4byte	.LASF7
 777 006c 04       		.uleb128 0x4
 778 006d 69010000 		.4byte	.LASF8
 779 0071 03       		.byte	0x3
 780 0072 38       		.byte	0x38
 781 0073 77000000 		.4byte	0x77
 782 0077 03       		.uleb128 0x3
 783 0078 04       		.byte	0x4
 784 0079 07       		.byte	0x7
 785 007a C6010000 		.4byte	.LASF9
 786 007e 03       		.uleb128 0x3
 787 007f 08       		.byte	0x8
ARM GAS  /tmp/ccb5jvYY.s 			page 15


 788 0080 05       		.byte	0x5
 789 0081 65000000 		.4byte	.LASF10
 790 0085 03       		.uleb128 0x3
 791 0086 08       		.byte	0x8
 792 0087 07       		.byte	0x7
 793 0088 2E000000 		.4byte	.LASF11
 794 008c 04       		.uleb128 0x4
 795 008d 7A040000 		.4byte	.LASF12
 796 0091 04       		.byte	0x4
 797 0092 2A       		.byte	0x2a
 798 0093 3A000000 		.4byte	0x3a
 799 0097 04       		.uleb128 0x4
 800 0098 29030000 		.4byte	.LASF13
 801 009c 04       		.byte	0x4
 802 009d 41       		.byte	0x41
 803 009e 5A000000 		.4byte	0x5a
 804 00a2 04       		.uleb128 0x4
 805 00a3 B6030000 		.4byte	.LASF14
 806 00a7 04       		.byte	0x4
 807 00a8 42       		.byte	0x42
 808 00a9 6C000000 		.4byte	0x6c
 809 00ad 03       		.uleb128 0x3
 810 00ae 01       		.byte	0x1
 811 00af 02       		.byte	0x2
 812 00b0 23030000 		.4byte	.LASF15
 813 00b4 04       		.uleb128 0x4
 814 00b5 1D020000 		.4byte	.LASF16
 815 00b9 05       		.byte	0x5
 816 00ba 2C       		.byte	0x2c
 817 00bb 8C000000 		.4byte	0x8c
 818 00bf 04       		.uleb128 0x4
 819 00c0 A2000000 		.4byte	.LASF17
 820 00c4 05       		.byte	0x5
 821 00c5 2D       		.byte	0x2d
 822 00c6 8C000000 		.4byte	0x8c
 823 00ca 04       		.uleb128 0x4
 824 00cb 0C030000 		.4byte	.LASF18
 825 00cf 05       		.byte	0x5
 826 00d0 2E       		.byte	0x2e
 827 00d1 8C000000 		.4byte	0x8c
 828 00d5 04       		.uleb128 0x4
 829 00d6 8F000000 		.4byte	.LASF19
 830 00da 05       		.byte	0x5
 831 00db 2F       		.byte	0x2f
 832 00dc 8C000000 		.4byte	0x8c
 833 00e0 04       		.uleb128 0x4
 834 00e1 1B030000 		.4byte	.LASF20
 835 00e5 05       		.byte	0x5
 836 00e6 30       		.byte	0x30
 837 00e7 A2000000 		.4byte	0xa2
 838 00eb 04       		.uleb128 0x4
 839 00ec 0F020000 		.4byte	.LASF21
 840 00f0 05       		.byte	0x5
 841 00f1 31       		.byte	0x31
 842 00f2 97000000 		.4byte	0x97
 843 00f6 04       		.uleb128 0x4
 844 00f7 31020000 		.4byte	.LASF22
ARM GAS  /tmp/ccb5jvYY.s 			page 16


 845 00fb 05       		.byte	0x5
 846 00fc 33       		.byte	0x33
 847 00fd A2000000 		.4byte	0xa2
 848 0101 04       		.uleb128 0x4
 849 0102 F8030000 		.4byte	.LASF23
 850 0106 05       		.byte	0x5
 851 0107 35       		.byte	0x35
 852 0108 A2000000 		.4byte	0xa2
 853 010c 04       		.uleb128 0x4
 854 010d 97010000 		.4byte	.LASF24
 855 0111 05       		.byte	0x5
 856 0112 36       		.byte	0x36
 857 0113 97000000 		.4byte	0x97
 858 0117 04       		.uleb128 0x4
 859 0118 8B030000 		.4byte	.LASF25
 860 011c 06       		.byte	0x6
 861 011d 2A       		.byte	0x2a
 862 011e 22010000 		.4byte	0x122
 863 0122 05       		.uleb128 0x5
 864 0123 8B030000 		.4byte	.LASF25
 865 0127 48       		.byte	0x48
 866 0128 07       		.byte	0x7
 867 0129 5E       		.byte	0x5e
 868 012a 1F020000 		.4byte	0x21f
 869 012e 06       		.uleb128 0x6
 870 012f 7C030000 		.4byte	.LASF26
 871 0133 07       		.byte	0x7
 872 0134 5F       		.byte	0x5f
 873 0135 40020000 		.4byte	0x240
 874 0139 00       		.byte	0
 875 013a 06       		.uleb128 0x6
 876 013b 14030000 		.4byte	.LASF27
 877 013f 07       		.byte	0x7
 878 0140 61       		.byte	0x61
 879 0141 40020000 		.4byte	0x240
 880 0145 04       		.byte	0x4
 881 0146 06       		.uleb128 0x6
 882 0147 4E000000 		.4byte	.LASF28
 883 014b 07       		.byte	0x7
 884 014c 63       		.byte	0x63
 885 014d E0000000 		.4byte	0xe0
 886 0151 08       		.byte	0x8
 887 0152 06       		.uleb128 0x6
 888 0153 AD040000 		.4byte	.LASF29
 889 0157 07       		.byte	0x7
 890 0158 64       		.byte	0x64
 891 0159 F0020000 		.4byte	0x2f0
 892 015d 0C       		.byte	0xc
 893 015e 06       		.uleb128 0x6
 894 015f AB000000 		.4byte	.LASF30
 895 0163 07       		.byte	0x7
 896 0164 66       		.byte	0x66
 897 0165 40020000 		.4byte	0x240
 898 0169 10       		.byte	0x10
 899 016a 06       		.uleb128 0x6
 900 016b 7D020000 		.4byte	.LASF31
 901 016f 07       		.byte	0x7
ARM GAS  /tmp/ccb5jvYY.s 			page 17


 902 0170 67       		.byte	0x67
 903 0171 40020000 		.4byte	0x240
 904 0175 14       		.byte	0x14
 905 0176 06       		.uleb128 0x6
 906 0177 89040000 		.4byte	.LASF32
 907 017b 07       		.byte	0x7
 908 017c 6E       		.byte	0x6e
 909 017d 94040000 		.4byte	0x494
 910 0181 18       		.byte	0x18
 911 0182 06       		.uleb128 0x6
 912 0183 5C030000 		.4byte	.LASF33
 913 0187 07       		.byte	0x7
 914 0188 79       		.byte	0x79
 915 0189 BF000000 		.4byte	0xbf
 916 018d 1C       		.byte	0x1c
 917 018e 06       		.uleb128 0x6
 918 018f 83030000 		.4byte	.LASF34
 919 0193 07       		.byte	0x7
 920 0194 7D       		.byte	0x7d
 921 0195 B4000000 		.4byte	0xb4
 922 0199 1D       		.byte	0x1d
 923 019a 06       		.uleb128 0x6
 924 019b 46040000 		.4byte	.LASF35
 925 019f 07       		.byte	0x7
 926 01a0 82       		.byte	0x82
 927 01a1 CA000000 		.4byte	0xca
 928 01a5 1E       		.byte	0x1e
 929 01a6 06       		.uleb128 0x6
 930 01a7 64030000 		.4byte	.LASF36
 931 01ab 07       		.byte	0x7
 932 01ac 88       		.byte	0x88
 933 01ad D5000000 		.4byte	0xd5
 934 01b1 1F       		.byte	0x1f
 935 01b2 06       		.uleb128 0x6
 936 01b3 17040000 		.4byte	.LASF37
 937 01b7 07       		.byte	0x7
 938 01b8 8F       		.byte	0x8f
 939 01b9 8C030000 		.4byte	0x38c
 940 01bd 20       		.byte	0x20
 941 01be 07       		.uleb128 0x7
 942 01bf 705F7500 		.ascii	"p_u\000"
 943 01c3 07       		.byte	0x7
 944 01c4 B4       		.byte	0xb4
 945 01c5 5F040000 		.4byte	0x45f
 946 01c9 24       		.byte	0x24
 947 01ca 06       		.uleb128 0x6
 948 01cb B3040000 		.4byte	.LASF38
 949 01cf 07       		.byte	0x7
 950 01d0 B9       		.byte	0xb9
 951 01d1 66020000 		.4byte	0x266
 952 01d5 28       		.byte	0x28
 953 01d6 06       		.uleb128 0x6
 954 01d7 25040000 		.4byte	.LASF39
 955 01db 07       		.byte	0x7
 956 01dc BF       		.byte	0xbf
 957 01dd 46020000 		.4byte	0x246
 958 01e1 2C       		.byte	0x2c
ARM GAS  /tmp/ccb5jvYY.s 			page 18


 959 01e2 06       		.uleb128 0x6
 960 01e3 00000000 		.4byte	.LASF40
 961 01e7 07       		.byte	0x7
 962 01e8 C3       		.byte	0xc3
 963 01e9 EB000000 		.4byte	0xeb
 964 01ed 34       		.byte	0x34
 965 01ee 06       		.uleb128 0x6
 966 01ef AB030000 		.4byte	.LASF41
 967 01f3 07       		.byte	0x7
 968 01f4 C9       		.byte	0xc9
 969 01f5 F6000000 		.4byte	0xf6
 970 01f9 38       		.byte	0x38
 971 01fa 06       		.uleb128 0x6
 972 01fb 48030000 		.4byte	.LASF42
 973 01ff 07       		.byte	0x7
 974 0200 D0       		.byte	0xd0
 975 0201 A6040000 		.4byte	0x4a6
 976 0205 3C       		.byte	0x3c
 977 0206 06       		.uleb128 0x6
 978 0207 02040000 		.4byte	.LASF43
 979 020b 07       		.byte	0x7
 980 020c D4       		.byte	0xd4
 981 020d E0000000 		.4byte	0xe0
 982 0211 40       		.byte	0x40
 983 0212 06       		.uleb128 0x6
 984 0213 7F000000 		.4byte	.LASF44
 985 0217 07       		.byte	0x7
 986 0218 DA       		.byte	0xda
 987 0219 7C020000 		.4byte	0x27c
 988 021d 44       		.byte	0x44
 989 021e 00       		.byte	0
 990 021f 08       		.uleb128 0x8
 991 0220 08       		.byte	0x8
 992 0221 06       		.byte	0x6
 993 0222 61       		.byte	0x61
 994 0223 40020000 		.4byte	0x240
 995 0227 06       		.uleb128 0x6
 996 0228 7C030000 		.4byte	.LASF26
 997 022c 06       		.byte	0x6
 998 022d 62       		.byte	0x62
 999 022e 40020000 		.4byte	0x240
 1000 0232 00       		.byte	0
 1001 0233 06       		.uleb128 0x6
 1002 0234 14030000 		.4byte	.LASF27
 1003 0238 06       		.byte	0x6
 1004 0239 64       		.byte	0x64
 1005 023a 40020000 		.4byte	0x240
 1006 023e 04       		.byte	0x4
 1007 023f 00       		.byte	0
 1008 0240 09       		.uleb128 0x9
 1009 0241 04       		.byte	0x4
 1010 0242 17010000 		.4byte	0x117
 1011 0246 04       		.uleb128 0x4
 1012 0247 8B020000 		.4byte	.LASF45
 1013 024b 06       		.byte	0x6
 1014 024c 66       		.byte	0x66
 1015 024d 1F020000 		.4byte	0x21f
ARM GAS  /tmp/ccb5jvYY.s 			page 19


 1016 0251 08       		.uleb128 0x8
 1017 0252 04       		.byte	0x4
 1018 0253 06       		.byte	0x6
 1019 0254 6B       		.byte	0x6b
 1020 0255 66020000 		.4byte	0x266
 1021 0259 06       		.uleb128 0x6
 1022 025a 7C030000 		.4byte	.LASF26
 1023 025e 06       		.byte	0x6
 1024 025f 6D       		.byte	0x6d
 1025 0260 40020000 		.4byte	0x240
 1026 0264 00       		.byte	0
 1027 0265 00       		.byte	0
 1028 0266 04       		.uleb128 0x4
 1029 0267 25020000 		.4byte	.LASF46
 1030 026b 06       		.byte	0x6
 1031 026c 70       		.byte	0x70
 1032 026d 51020000 		.4byte	0x251
 1033 0271 04       		.uleb128 0x4
 1034 0272 74010000 		.4byte	.LASF47
 1035 0276 08       		.byte	0x8
 1036 0277 A7       		.byte	0xa7
 1037 0278 7C020000 		.4byte	0x27c
 1038 027c 0A       		.uleb128 0xa
 1039 027d 04       		.byte	0x4
 1040 027e 05       		.uleb128 0x5
 1041 027f 1E040000 		.4byte	.LASF48
 1042 0283 24       		.byte	0x24
 1043 0284 08       		.byte	0x8
 1044 0285 BA       		.byte	0xba
 1045 0286 F0020000 		.4byte	0x2f0
 1046 028a 07       		.uleb128 0x7
 1047 028b 723800   		.ascii	"r8\000"
 1048 028e 08       		.byte	0x8
 1049 028f BB       		.byte	0xbb
 1050 0290 71020000 		.4byte	0x271
 1051 0294 00       		.byte	0
 1052 0295 07       		.uleb128 0x7
 1053 0296 723900   		.ascii	"r9\000"
 1054 0299 08       		.byte	0x8
 1055 029a BC       		.byte	0xbc
 1056 029b 71020000 		.4byte	0x271
 1057 029f 04       		.byte	0x4
 1058 02a0 07       		.uleb128 0x7
 1059 02a1 72313000 		.ascii	"r10\000"
 1060 02a5 08       		.byte	0x8
 1061 02a6 BD       		.byte	0xbd
 1062 02a7 71020000 		.4byte	0x271
 1063 02ab 08       		.byte	0x8
 1064 02ac 07       		.uleb128 0x7
 1065 02ad 72313100 		.ascii	"r11\000"
 1066 02b1 08       		.byte	0x8
 1067 02b2 BE       		.byte	0xbe
 1068 02b3 71020000 		.4byte	0x271
 1069 02b7 0C       		.byte	0xc
 1070 02b8 07       		.uleb128 0x7
 1071 02b9 723400   		.ascii	"r4\000"
 1072 02bc 08       		.byte	0x8
ARM GAS  /tmp/ccb5jvYY.s 			page 20


 1073 02bd BF       		.byte	0xbf
 1074 02be 71020000 		.4byte	0x271
 1075 02c2 10       		.byte	0x10
 1076 02c3 07       		.uleb128 0x7
 1077 02c4 723500   		.ascii	"r5\000"
 1078 02c7 08       		.byte	0x8
 1079 02c8 C0       		.byte	0xc0
 1080 02c9 71020000 		.4byte	0x271
 1081 02cd 14       		.byte	0x14
 1082 02ce 07       		.uleb128 0x7
 1083 02cf 723600   		.ascii	"r6\000"
 1084 02d2 08       		.byte	0x8
 1085 02d3 C1       		.byte	0xc1
 1086 02d4 71020000 		.4byte	0x271
 1087 02d8 18       		.byte	0x18
 1088 02d9 07       		.uleb128 0x7
 1089 02da 723700   		.ascii	"r7\000"
 1090 02dd 08       		.byte	0x8
 1091 02de C2       		.byte	0xc2
 1092 02df 71020000 		.4byte	0x271
 1093 02e3 1C       		.byte	0x1c
 1094 02e4 07       		.uleb128 0x7
 1095 02e5 6C7200   		.ascii	"lr\000"
 1096 02e8 08       		.byte	0x8
 1097 02e9 C3       		.byte	0xc3
 1098 02ea 71020000 		.4byte	0x271
 1099 02ee 20       		.byte	0x20
 1100 02ef 00       		.byte	0
 1101 02f0 05       		.uleb128 0x5
 1102 02f1 E7010000 		.4byte	.LASF49
 1103 02f5 04       		.byte	0x4
 1104 02f6 08       		.byte	0x8
 1105 02f7 CD       		.byte	0xcd
 1106 02f8 09030000 		.4byte	0x309
 1107 02fc 07       		.uleb128 0x7
 1108 02fd 72313300 		.ascii	"r13\000"
 1109 0301 08       		.byte	0x8
 1110 0302 CE       		.byte	0xce
 1111 0303 09030000 		.4byte	0x309
 1112 0307 00       		.byte	0
 1113 0308 00       		.byte	0
 1114 0309 09       		.uleb128 0x9
 1115 030a 04       		.byte	0x4
 1116 030b 7E020000 		.4byte	0x27e
 1117 030f 03       		.uleb128 0x3
 1118 0310 04       		.byte	0x4
 1119 0311 07       		.byte	0x7
 1120 0312 4B020000 		.4byte	.LASF50
 1121 0316 04       		.uleb128 0x4
 1122 0317 D8010000 		.4byte	.LASF51
 1123 031b 09       		.byte	0x9
 1124 031c 58       		.byte	0x58
 1125 031d 21030000 		.4byte	0x321
 1126 0321 09       		.uleb128 0x9
 1127 0322 04       		.byte	0x4
 1128 0323 27030000 		.4byte	0x327
 1129 0327 0B       		.uleb128 0xb
ARM GAS  /tmp/ccb5jvYY.s 			page 21


 1130 0328 32030000 		.4byte	0x332
 1131 032c 0C       		.uleb128 0xc
 1132 032d 7C020000 		.4byte	0x27c
 1133 0331 00       		.byte	0
 1134 0332 04       		.uleb128 0x4
 1135 0333 C7030000 		.4byte	.LASF52
 1136 0337 09       		.byte	0x9
 1137 0338 5D       		.byte	0x5d
 1138 0339 3D030000 		.4byte	0x33d
 1139 033d 05       		.uleb128 0x5
 1140 033e C7030000 		.4byte	.LASF52
 1141 0342 14       		.byte	0x14
 1142 0343 09       		.byte	0x9
 1143 0344 64       		.byte	0x64
 1144 0345 86030000 		.4byte	0x386
 1145 0349 06       		.uleb128 0x6
 1146 034a B1010000 		.4byte	.LASF53
 1147 034e 09       		.byte	0x9
 1148 034f 65       		.byte	0x65
 1149 0350 86030000 		.4byte	0x386
 1150 0354 00       		.byte	0
 1151 0355 06       		.uleb128 0x6
 1152 0356 7D010000 		.4byte	.LASF54
 1153 035a 09       		.byte	0x9
 1154 035b 67       		.byte	0x67
 1155 035c 86030000 		.4byte	0x386
 1156 0360 04       		.byte	0x4
 1157 0361 06       		.uleb128 0x6
 1158 0362 43020000 		.4byte	.LASF55
 1159 0366 09       		.byte	0x9
 1160 0367 69       		.byte	0x69
 1161 0368 01010000 		.4byte	0x101
 1162 036c 08       		.byte	0x8
 1163 036d 06       		.uleb128 0x6
 1164 036e 54020000 		.4byte	.LASF56
 1165 0372 09       		.byte	0x9
 1166 0373 6A       		.byte	0x6a
 1167 0374 16030000 		.4byte	0x316
 1168 0378 0C       		.byte	0xc
 1169 0379 06       		.uleb128 0x6
 1170 037a 35040000 		.4byte	.LASF57
 1171 037e 09       		.byte	0x9
 1172 037f 6C       		.byte	0x6c
 1173 0380 7C020000 		.4byte	0x27c
 1174 0384 10       		.byte	0x10
 1175 0385 00       		.byte	0
 1176 0386 09       		.uleb128 0x9
 1177 0387 04       		.byte	0x4
 1178 0388 32030000 		.4byte	0x332
 1179 038c 0D       		.uleb128 0xd
 1180 038d 01010000 		.4byte	0x101
 1181 0391 08       		.uleb128 0x8
 1182 0392 1C       		.byte	0x1c
 1183 0393 0A       		.byte	0xa
 1184 0394 5E       		.byte	0x5e
 1185 0395 E2030000 		.4byte	0x3e2
 1186 0399 06       		.uleb128 0x6
ARM GAS  /tmp/ccb5jvYY.s 			page 22


 1187 039a BF030000 		.4byte	.LASF58
 1188 039e 0A       		.byte	0xa
 1189 039f 5F       		.byte	0x5f
 1190 03a0 46020000 		.4byte	0x246
 1191 03a4 00       		.byte	0
 1192 03a5 06       		.uleb128 0x6
 1193 03a6 6E030000 		.4byte	.LASF59
 1194 03aa 0A       		.byte	0xa
 1195 03ab 60       		.byte	0x60
 1196 03ac E0000000 		.4byte	0xe0
 1197 03b0 08       		.byte	0x8
 1198 03b1 06       		.uleb128 0x6
 1199 03b2 85020000 		.4byte	.LASF60
 1200 03b6 0A       		.byte	0xa
 1201 03b7 62       		.byte	0x62
 1202 03b8 F0020000 		.4byte	0x2f0
 1203 03bc 0C       		.byte	0xc
 1204 03bd 06       		.uleb128 0x6
 1205 03be 15020000 		.4byte	.LASF61
 1206 03c2 0A       		.byte	0xa
 1207 03c3 65       		.byte	0x65
 1208 03c4 40020000 		.4byte	0x240
 1209 03c8 10       		.byte	0x10
 1210 03c9 06       		.uleb128 0x6
 1211 03ca 04030000 		.4byte	.LASF62
 1212 03ce 0A       		.byte	0xa
 1213 03cf 66       		.byte	0x66
 1214 03d0 40020000 		.4byte	0x240
 1215 03d4 14       		.byte	0x14
 1216 03d5 06       		.uleb128 0x6
 1217 03d6 FA020000 		.4byte	.LASF63
 1218 03da 0A       		.byte	0xa
 1219 03db 69       		.byte	0x69
 1220 03dc 40020000 		.4byte	0x240
 1221 03e0 18       		.byte	0x18
 1222 03e1 00       		.byte	0
 1223 03e2 04       		.uleb128 0x4
 1224 03e3 4D040000 		.4byte	.LASF64
 1225 03e7 0A       		.byte	0xa
 1226 03e8 6B       		.byte	0x6b
 1227 03e9 91030000 		.4byte	0x391
 1228 03ed 05       		.uleb128 0x5
 1229 03ee 3C040000 		.4byte	.LASF65
 1230 03f2 0C       		.byte	0xc
 1231 03f3 0B       		.byte	0xb
 1232 03f4 2C       		.byte	0x2c
 1233 03f5 12040000 		.4byte	0x412
 1234 03f9 06       		.uleb128 0x6
 1235 03fa B3000000 		.4byte	.LASF66
 1236 03fe 0B       		.byte	0xb
 1237 03ff 2D       		.byte	0x2d
 1238 0400 46020000 		.4byte	0x246
 1239 0404 00       		.byte	0
 1240 0405 06       		.uleb128 0x6
 1241 0406 E1010000 		.4byte	.LASF67
 1242 040a 0B       		.byte	0xb
 1243 040b 2F       		.byte	0x2f
ARM GAS  /tmp/ccb5jvYY.s 			page 23


 1244 040c 0C010000 		.4byte	0x10c
 1245 0410 08       		.byte	0x8
 1246 0411 00       		.byte	0
 1247 0412 04       		.uleb128 0x4
 1248 0413 3C040000 		.4byte	.LASF65
 1249 0417 0B       		.byte	0xb
 1250 0418 30       		.byte	0x30
 1251 0419 ED030000 		.4byte	0x3ed
 1252 041d 05       		.uleb128 0x5
 1253 041e 3D020000 		.4byte	.LASF68
 1254 0422 10       		.byte	0x10
 1255 0423 0C       		.byte	0xc
 1256 0424 2C       		.byte	0x2c
 1257 0425 4E040000 		.4byte	0x44e
 1258 0429 06       		.uleb128 0x6
 1259 042a 87000000 		.4byte	.LASF69
 1260 042e 0C       		.byte	0xc
 1261 042f 2D       		.byte	0x2d
 1262 0430 46020000 		.4byte	0x246
 1263 0434 00       		.byte	0
 1264 0435 06       		.uleb128 0x6
 1265 0436 A5040000 		.4byte	.LASF70
 1266 043a 0C       		.byte	0xc
 1267 043b 2F       		.byte	0x2f
 1268 043c 40020000 		.4byte	0x240
 1269 0440 08       		.byte	0x8
 1270 0441 06       		.uleb128 0x6
 1271 0442 F1030000 		.4byte	.LASF71
 1272 0446 0C       		.byte	0xc
 1273 0447 31       		.byte	0x31
 1274 0448 4E040000 		.4byte	0x44e
 1275 044c 0C       		.byte	0xc
 1276 044d 00       		.byte	0
 1277 044e 09       		.uleb128 0x9
 1278 044f 04       		.byte	0x4
 1279 0450 1D040000 		.4byte	0x41d
 1280 0454 04       		.uleb128 0x4
 1281 0455 3D020000 		.4byte	.LASF68
 1282 0459 0C       		.byte	0xc
 1283 045a 33       		.byte	0x33
 1284 045b 1D040000 		.4byte	0x41d
 1285 045f 0E       		.uleb128 0xe
 1286 0460 04       		.byte	0x4
 1287 0461 07       		.byte	0x7
 1288 0462 96       		.byte	0x96
 1289 0463 94040000 		.4byte	0x494
 1290 0467 0F       		.uleb128 0xf
 1291 0468 06000000 		.4byte	.LASF72
 1292 046c 07       		.byte	0x7
 1293 046d 9D       		.byte	0x9d
 1294 046e EB000000 		.4byte	0xeb
 1295 0472 0F       		.uleb128 0xf
 1296 0473 45000000 		.4byte	.LASF73
 1297 0477 07       		.byte	0x7
 1298 0478 A4       		.byte	0xa4
 1299 0479 EB000000 		.4byte	0xeb
 1300 047d 0F       		.uleb128 0xf
ARM GAS  /tmp/ccb5jvYY.s 			page 24


 1301 047e 82040000 		.4byte	.LASF74
 1302 0482 07       		.byte	0x7
 1303 0483 AB       		.byte	0xab
 1304 0484 7C020000 		.4byte	0x27c
 1305 0488 0F       		.uleb128 0xf
 1306 0489 75030000 		.4byte	.LASF75
 1307 048d 07       		.byte	0x7
 1308 048e B2       		.byte	0xb2
 1309 048f F6000000 		.4byte	0xf6
 1310 0493 00       		.byte	0
 1311 0494 09       		.uleb128 0x9
 1312 0495 04       		.byte	0x4
 1313 0496 9A040000 		.4byte	0x49a
 1314 049a 10       		.uleb128 0x10
 1315 049b 9F040000 		.4byte	0x49f
 1316 049f 03       		.uleb128 0x3
 1317 04a0 01       		.byte	0x1
 1318 04a1 08       		.byte	0x8
 1319 04a2 D4030000 		.4byte	.LASF76
 1320 04a6 09       		.uleb128 0x9
 1321 04a7 04       		.byte	0x4
 1322 04a8 54040000 		.4byte	0x454
 1323 04ac 11       		.uleb128 0x11
 1324 04ad F2020000 		.4byte	.LASF77
 1325 04b1 02       		.byte	0x2
 1326 04b2 49       		.byte	0x49
 1327 04b3 40020000 		.4byte	0x240
 1328 04b7 03       		.byte	0x3
 1329 04b8 C7040000 		.4byte	0x4c7
 1330 04bc 12       		.uleb128 0x12
 1331 04bd 747000   		.ascii	"tp\000"
 1332 04c0 02       		.byte	0x2
 1333 04c1 49       		.byte	0x49
 1334 04c2 40020000 		.4byte	0x240
 1335 04c6 00       		.byte	0
 1336 04c7 13       		.uleb128 0x13
 1337 04c8 E5030000 		.4byte	.LASF92
 1338 04cc 01       		.byte	0x1
 1339 04cd 51       		.byte	0x51
 1340 04ce 40020000 		.4byte	0x240
 1341 04d2 01       		.byte	0x1
 1342 04d3 EC040000 		.4byte	0x4ec
 1343 04d7 12       		.uleb128 0x12
 1344 04d8 747000   		.ascii	"tp\000"
 1345 04db 01       		.byte	0x1
 1346 04dc 51       		.byte	0x51
 1347 04dd 40020000 		.4byte	0x240
 1348 04e1 14       		.uleb128 0x14
 1349 04e2 637000   		.ascii	"cp\000"
 1350 04e5 01       		.byte	0x1
 1351 04e6 52       		.byte	0x52
 1352 04e7 40020000 		.4byte	0x240
 1353 04eb 00       		.byte	0
 1354 04ec 11       		.uleb128 0x11
 1355 04ed D9030000 		.4byte	.LASF78
 1356 04f1 02       		.byte	0x2
 1357 04f2 3B       		.byte	0x3b
ARM GAS  /tmp/ccb5jvYY.s 			page 25


 1358 04f3 40020000 		.4byte	0x240
 1359 04f7 03       		.byte	0x3
 1360 04f8 12050000 		.4byte	0x512
 1361 04fc 12       		.uleb128 0x12
 1362 04fd 74717000 		.ascii	"tqp\000"
 1363 0501 02       		.byte	0x2
 1364 0502 3B       		.byte	0x3b
 1365 0503 12050000 		.4byte	0x512
 1366 0507 14       		.uleb128 0x14
 1367 0508 747000   		.ascii	"tp\000"
 1368 050b 02       		.byte	0x2
 1369 050c 3C       		.byte	0x3c
 1370 050d 40020000 		.4byte	0x240
 1371 0511 00       		.byte	0
 1372 0512 09       		.uleb128 0x9
 1373 0513 04       		.byte	0x4
 1374 0514 46020000 		.4byte	0x246
 1375 0518 15       		.uleb128 0x15
 1376 0519 AA010000 		.4byte	.LASF93
 1377 051d 01       		.byte	0x1
 1378 051e 88       		.byte	0x88
 1379 051f 00000000 		.4byte	.LFB10
 1380 0523 58000000 		.4byte	.LFE10-.LFB10
 1381 0527 01       		.uleb128 0x1
 1382 0528 9C       		.byte	0x9c
 1383 0529 8C050000 		.4byte	0x58c
 1384 052d 16       		.uleb128 0x16
 1385 052e 7000     		.ascii	"p\000"
 1386 0530 01       		.byte	0x1
 1387 0531 88       		.byte	0x88
 1388 0532 7C020000 		.4byte	0x27c
 1389 0536 01       		.uleb128 0x1
 1390 0537 50       		.byte	0x50
 1391 0538 17       		.uleb128 0x17
 1392 0539 747000   		.ascii	"tp\000"
 1393 053c 01       		.byte	0x1
 1394 053d 89       		.byte	0x89
 1395 053e 40020000 		.4byte	0x240
 1396 0542 01       		.uleb128 0x1
 1397 0543 50       		.byte	0x50
 1398 0544 18       		.uleb128 0x18
 1399 0545 C7040000 		.4byte	0x4c7
 1400 0549 1A000000 		.4byte	.LBB19
 1401 054d 1C000000 		.4byte	.LBE19-.LBB19
 1402 0551 01       		.byte	0x1
 1403 0552 A4       		.byte	0xa4
 1404 0553 74050000 		.4byte	0x574
 1405 0557 19       		.uleb128 0x19
 1406 0558 D7040000 		.4byte	0x4d7
 1407 055c 00000000 		.4byte	.LLST0
 1408 0560 1A       		.uleb128 0x1a
 1409 0561 1A000000 		.4byte	.LBB20
 1410 0565 1C000000 		.4byte	.LBE20-.LBB20
 1411 0569 1B       		.uleb128 0x1b
 1412 056a E1040000 		.4byte	0x4e1
 1413 056e 13000000 		.4byte	.LLST1
 1414 0572 00       		.byte	0
ARM GAS  /tmp/ccb5jvYY.s 			page 26


 1415 0573 00       		.byte	0
 1416 0574 1C       		.uleb128 0x1c
 1417 0575 AC040000 		.4byte	0x4ac
 1418 0579 46000000 		.4byte	.LBB21
 1419 057d 12000000 		.4byte	.LBE21-.LBB21
 1420 0581 01       		.byte	0x1
 1421 0582 A0       		.byte	0xa0
 1422 0583 1D       		.uleb128 0x1d
 1423 0584 BC040000 		.4byte	0x4bc
 1424 0588 01       		.uleb128 0x1
 1425 0589 50       		.byte	0x50
 1426 058a 00       		.byte	0
 1427 058b 00       		.byte	0
 1428 058c 1E       		.uleb128 0x1e
 1429 058d 55000000 		.4byte	.LASF94
 1430 0591 01       		.byte	0x1
 1431 0592 37       		.byte	0x37
 1432 0593 00000000 		.4byte	.LFB7
 1433 0597 14000000 		.4byte	.LFE7-.LFB7
 1434 059b 01       		.uleb128 0x1
 1435 059c 9C       		.byte	0x9c
 1436 059d 1F       		.uleb128 0x1f
 1437 059e C7040000 		.4byte	0x4c7
 1438 05a2 00000000 		.4byte	.LFB8
 1439 05a6 24000000 		.4byte	.LFE8-.LFB8
 1440 05aa 01       		.uleb128 0x1
 1441 05ab 9C       		.byte	0x9c
 1442 05ac C1050000 		.4byte	0x5c1
 1443 05b0 1D       		.uleb128 0x1d
 1444 05b1 D7040000 		.4byte	0x4d7
 1445 05b5 01       		.uleb128 0x1
 1446 05b6 50       		.byte	0x50
 1447 05b7 1B       		.uleb128 0x1b
 1448 05b8 E1040000 		.4byte	0x4e1
 1449 05bc 36000000 		.4byte	.LLST2
 1450 05c0 00       		.byte	0
 1451 05c1 20       		.uleb128 0x20
 1452 05c2 9D030000 		.4byte	.LASF81
 1453 05c6 01       		.byte	0x1
 1454 05c7 73       		.byte	0x73
 1455 05c8 00000000 		.4byte	.LFB9
 1456 05cc 24000000 		.4byte	.LFE9-.LFB9
 1457 05d0 01       		.uleb128 0x1
 1458 05d1 9C       		.byte	0x9c
 1459 05d2 2D060000 		.4byte	0x62d
 1460 05d6 21       		.uleb128 0x21
 1461 05d7 3F030000 		.4byte	.LASF79
 1462 05db 01       		.byte	0x1
 1463 05dc 73       		.byte	0x73
 1464 05dd BF000000 		.4byte	0xbf
 1465 05e1 59000000 		.4byte	.LLST3
 1466 05e5 22       		.uleb128 0x22
 1467 05e6 6F747000 		.ascii	"otp\000"
 1468 05ea 01       		.byte	0x1
 1469 05eb 74       		.byte	0x74
 1470 05ec 40020000 		.4byte	0x240
 1471 05f0 86000000 		.4byte	.LLST4
ARM GAS  /tmp/ccb5jvYY.s 			page 27


 1472 05f4 23       		.uleb128 0x23
 1473 05f5 EC040000 		.4byte	0x4ec
 1474 05f9 0A000000 		.4byte	.LBB23
 1475 05fd 00000000 		.4byte	.Ldebug_ranges0+0
 1476 0601 01       		.byte	0x1
 1477 0602 7E       		.byte	0x7e
 1478 0603 23060000 		.4byte	0x623
 1479 0607 1D       		.uleb128 0x1d
 1480 0608 FC040000 		.4byte	0x4fc
 1481 060c 06       		.uleb128 0x6
 1482 060d 03       		.byte	0x3
 1483 060e 00000000 		.4byte	rlist
 1484 0612 9F       		.byte	0x9f
 1485 0613 24       		.uleb128 0x24
 1486 0614 00000000 		.4byte	.Ldebug_ranges0+0
 1487 0618 1B       		.uleb128 0x1b
 1488 0619 07050000 		.4byte	0x507
 1489 061d 99000000 		.4byte	.LLST5
 1490 0621 00       		.byte	0
 1491 0622 00       		.byte	0
 1492 0623 25       		.uleb128 0x25
 1493 0624 1E000000 		.4byte	.LVL16
 1494 0628 DC080000 		.4byte	0x8dc
 1495 062c 00       		.byte	0
 1496 062d 26       		.uleb128 0x26
 1497 062e 90040000 		.4byte	.LASF95
 1498 0632 01       		.byte	0x1
 1499 0633 BD       		.byte	0xbd
 1500 0634 EB000000 		.4byte	0xeb
 1501 0638 00000000 		.4byte	.LFB11
 1502 063c 40000000 		.4byte	.LFE11-.LFB11
 1503 0640 01       		.uleb128 0x1
 1504 0641 9C       		.byte	0x9c
 1505 0642 D1060000 		.4byte	0x6d1
 1506 0646 21       		.uleb128 0x21
 1507 0647 3F030000 		.4byte	.LASF79
 1508 064b 01       		.byte	0x1
 1509 064c BD       		.byte	0xbd
 1510 064d BF000000 		.4byte	0xbf
 1511 0651 AC000000 		.4byte	.LLST6
 1512 0655 21       		.uleb128 0x21
 1513 0656 30040000 		.4byte	.LASF80
 1514 065a 01       		.byte	0x1
 1515 065b BD       		.byte	0xbd
 1516 065c 01010000 		.4byte	0x101
 1517 0660 E6000000 		.4byte	.LLST7
 1518 0664 27       		.uleb128 0x27
 1519 0665 0A000000 		.4byte	.LBB27
 1520 0669 1E000000 		.4byte	.LBE27-.LBB27
 1521 066d C7060000 		.4byte	0x6c7
 1522 0671 17       		.uleb128 0x17
 1523 0672 767400   		.ascii	"vt\000"
 1524 0675 01       		.byte	0x1
 1525 0676 C2       		.byte	0xc2
 1526 0677 32030000 		.4byte	0x332
 1527 067b 02       		.uleb128 0x2
 1528 067c 91       		.byte	0x91
ARM GAS  /tmp/ccb5jvYY.s 			page 28


 1529 067d 5C       		.sleb128 -36
 1530 067e 28       		.uleb128 0x28
 1531 067f 16000000 		.4byte	.LVL19
 1532 0683 F3080000 		.4byte	0x8f3
 1533 0687 A2060000 		.4byte	0x6a2
 1534 068b 29       		.uleb128 0x29
 1535 068c 01       		.uleb128 0x1
 1536 068d 52       		.byte	0x52
 1537 068e 05       		.uleb128 0x5
 1538 068f 03       		.byte	0x3
 1539 0690 00000000 		.4byte	wakeup
 1540 0694 29       		.uleb128 0x29
 1541 0695 01       		.uleb128 0x1
 1542 0696 51       		.byte	0x51
 1543 0697 03       		.uleb128 0x3
 1544 0698 F3       		.byte	0xf3
 1545 0699 01       		.uleb128 0x1
 1546 069a 51       		.byte	0x51
 1547 069b 29       		.uleb128 0x29
 1548 069c 01       		.uleb128 0x1
 1549 069d 50       		.byte	0x50
 1550 069e 02       		.uleb128 0x2
 1551 069f 91       		.byte	0x91
 1552 06a0 5C       		.sleb128 -36
 1553 06a1 00       		.byte	0
 1554 06a2 28       		.uleb128 0x28
 1555 06a3 1C000000 		.4byte	.LVL20
 1556 06a7 C1050000 		.4byte	0x5c1
 1557 06ab B6060000 		.4byte	0x6b6
 1558 06af 29       		.uleb128 0x29
 1559 06b0 01       		.uleb128 0x1
 1560 06b1 50       		.byte	0x50
 1561 06b2 02       		.uleb128 0x2
 1562 06b3 75       		.byte	0x75
 1563 06b4 00       		.sleb128 0
 1564 06b5 00       		.byte	0
 1565 06b6 2A       		.uleb128 0x2a
 1566 06b7 28000000 		.4byte	.LVL21
 1567 06bb 13090000 		.4byte	0x913
 1568 06bf 29       		.uleb128 0x29
 1569 06c0 01       		.uleb128 0x1
 1570 06c1 50       		.byte	0x50
 1571 06c2 02       		.uleb128 0x2
 1572 06c3 91       		.byte	0x91
 1573 06c4 5C       		.sleb128 -36
 1574 06c5 00       		.byte	0
 1575 06c6 00       		.byte	0
 1576 06c7 25       		.uleb128 0x25
 1577 06c8 34000000 		.4byte	.LVL23
 1578 06cc C1050000 		.4byte	0x5c1
 1579 06d0 00       		.byte	0
 1580 06d1 20       		.uleb128 0x20
 1581 06d2 02020000 		.4byte	.LASF82
 1582 06d6 01       		.byte	0x1
 1583 06d7 E1       		.byte	0xe1
 1584 06d8 00000000 		.4byte	.LFB12
 1585 06dc 50000000 		.4byte	.LFE12-.LFB12
ARM GAS  /tmp/ccb5jvYY.s 			page 29


 1586 06e0 01       		.uleb128 0x1
 1587 06e1 9C       		.byte	0x9c
 1588 06e2 83070000 		.4byte	0x783
 1589 06e6 2B       		.uleb128 0x2b
 1590 06e7 6E747000 		.ascii	"ntp\000"
 1591 06eb 01       		.byte	0x1
 1592 06ec E1       		.byte	0xe1
 1593 06ed 40020000 		.4byte	0x240
 1594 06f1 20010000 		.4byte	.LLST8
 1595 06f5 2B       		.uleb128 0x2b
 1596 06f6 6D736700 		.ascii	"msg\000"
 1597 06fa 01       		.byte	0x1
 1598 06fb E1       		.byte	0xe1
 1599 06fc EB000000 		.4byte	0xeb
 1600 0700 5A010000 		.4byte	.LLST9
 1601 0704 23       		.uleb128 0x23
 1602 0705 C7040000 		.4byte	0x4c7
 1603 0709 0C000000 		.4byte	.LBB28
 1604 070d 18000000 		.4byte	.Ldebug_ranges0+0x18
 1605 0711 01       		.byte	0x1
 1606 0712 EB       		.byte	0xeb
 1607 0713 30070000 		.4byte	0x730
 1608 0717 19       		.uleb128 0x19
 1609 0718 D7040000 		.4byte	0x4d7
 1610 071c A1010000 		.4byte	.LLST10
 1611 0720 24       		.uleb128 0x24
 1612 0721 18000000 		.4byte	.Ldebug_ranges0+0x18
 1613 0725 1B       		.uleb128 0x1b
 1614 0726 E1040000 		.4byte	0x4e1
 1615 072a B4010000 		.4byte	.LLST11
 1616 072e 00       		.byte	0
 1617 072f 00       		.byte	0
 1618 0730 1A       		.uleb128 0x1a
 1619 0731 2A000000 		.4byte	.LBB32
 1620 0735 26000000 		.4byte	.LBE32-.LBB32
 1621 0739 14       		.uleb128 0x14
 1622 073a 6F747000 		.ascii	"otp\000"
 1623 073e 01       		.byte	0x1
 1624 073f ED       		.byte	0xed
 1625 0740 40020000 		.4byte	0x240
 1626 0744 23       		.uleb128 0x23
 1627 0745 C7040000 		.4byte	0x4c7
 1628 0749 2A000000 		.4byte	.LBB33
 1629 074d 30000000 		.4byte	.Ldebug_ranges0+0x30
 1630 0751 01       		.byte	0x1
 1631 0752 ED       		.byte	0xed
 1632 0753 70070000 		.4byte	0x770
 1633 0757 19       		.uleb128 0x19
 1634 0758 D7040000 		.4byte	0x4d7
 1635 075c D7010000 		.4byte	.LLST12
 1636 0760 24       		.uleb128 0x24
 1637 0761 30000000 		.4byte	.Ldebug_ranges0+0x30
 1638 0765 1B       		.uleb128 0x1b
 1639 0766 E1040000 		.4byte	0x4e1
 1640 076a EA010000 		.4byte	.LLST13
 1641 076e 00       		.byte	0
 1642 076f 00       		.byte	0
ARM GAS  /tmp/ccb5jvYY.s 			page 30


 1643 0770 2A       		.uleb128 0x2a
 1644 0771 4A000000 		.4byte	.LVL37
 1645 0775 DC080000 		.4byte	0x8dc
 1646 0779 29       		.uleb128 0x29
 1647 077a 01       		.uleb128 0x1
 1648 077b 50       		.byte	0x50
 1649 077c 03       		.uleb128 0x3
 1650 077d F3       		.byte	0xf3
 1651 077e 01       		.uleb128 0x1
 1652 077f 50       		.byte	0x50
 1653 0780 00       		.byte	0
 1654 0781 00       		.byte	0
 1655 0782 00       		.byte	0
 1656 0783 2C       		.uleb128 0x2c
 1657 0784 5C020000 		.4byte	.LASF83
 1658 0788 01       		.byte	0x1
 1659 0789 3001     		.2byte	0x130
 1660 078b 00000000 		.4byte	.LFB14
 1661 078f 40000000 		.4byte	.LFE14-.LFB14
 1662 0793 01       		.uleb128 0x1
 1663 0794 9C       		.byte	0x9c
 1664 0795 14080000 		.4byte	0x814
 1665 0799 2D       		.uleb128 0x2d
 1666 079a 6F747000 		.ascii	"otp\000"
 1667 079e 01       		.byte	0x1
 1668 079f 3101     		.2byte	0x131
 1669 07a1 40020000 		.4byte	0x240
 1670 07a5 19020000 		.4byte	.LLST14
 1671 07a9 2E       		.uleb128 0x2e
 1672 07aa EC040000 		.4byte	0x4ec
 1673 07ae 04000000 		.4byte	.LBB37
 1674 07b2 48000000 		.4byte	.Ldebug_ranges0+0x48
 1675 07b6 01       		.byte	0x1
 1676 07b7 3501     		.2byte	0x135
 1677 07b9 D9070000 		.4byte	0x7d9
 1678 07bd 1D       		.uleb128 0x1d
 1679 07be FC040000 		.4byte	0x4fc
 1680 07c2 06       		.uleb128 0x6
 1681 07c3 03       		.byte	0x3
 1682 07c4 00000000 		.4byte	rlist
 1683 07c8 9F       		.byte	0x9f
 1684 07c9 24       		.uleb128 0x24
 1685 07ca 48000000 		.4byte	.Ldebug_ranges0+0x48
 1686 07ce 1B       		.uleb128 0x1b
 1687 07cf 07050000 		.4byte	0x507
 1688 07d3 2C020000 		.4byte	.LLST15
 1689 07d7 00       		.byte	0
 1690 07d8 00       		.byte	0
 1691 07d9 2F       		.uleb128 0x2f
 1692 07da C7040000 		.4byte	0x4c7
 1693 07de 18000000 		.4byte	.LBB41
 1694 07e2 1C000000 		.4byte	.LBE41-.LBB41
 1695 07e6 01       		.byte	0x1
 1696 07e7 3A01     		.2byte	0x13a
 1697 07e9 0A080000 		.4byte	0x80a
 1698 07ed 19       		.uleb128 0x19
 1699 07ee D7040000 		.4byte	0x4d7
ARM GAS  /tmp/ccb5jvYY.s 			page 31


 1700 07f2 3F020000 		.4byte	.LLST16
 1701 07f6 1A       		.uleb128 0x1a
 1702 07f7 18000000 		.4byte	.LBB42
 1703 07fb 1C000000 		.4byte	.LBE42-.LBB42
 1704 07ff 1B       		.uleb128 0x1b
 1705 0800 E1040000 		.4byte	0x4e1
 1706 0804 52020000 		.4byte	.LLST17
 1707 0808 00       		.byte	0
 1708 0809 00       		.byte	0
 1709 080a 25       		.uleb128 0x25
 1710 080b 38000000 		.4byte	.LVL43
 1711 080f DC080000 		.4byte	0x8dc
 1712 0813 00       		.byte	0
 1713 0814 2C       		.uleb128 0x2c
 1714 0815 0D000000 		.4byte	.LASF84
 1715 0819 01       		.byte	0x1
 1716 081a 4901     		.2byte	0x149
 1717 081c 00000000 		.4byte	.LFB15
 1718 0820 3C000000 		.4byte	.LFE15-.LFB15
 1719 0824 01       		.uleb128 0x1
 1720 0825 9C       		.byte	0x9c
 1721 0826 83080000 		.4byte	0x883
 1722 082a 2D       		.uleb128 0x2d
 1723 082b 6F747000 		.ascii	"otp\000"
 1724 082f 01       		.byte	0x1
 1725 0830 4A01     		.2byte	0x14a
 1726 0832 40020000 		.4byte	0x240
 1727 0836 75020000 		.4byte	.LLST18
 1728 083a 2D       		.uleb128 0x2d
 1729 083b 637000   		.ascii	"cp\000"
 1730 083e 01       		.byte	0x1
 1731 083f 4A01     		.2byte	0x14a
 1732 0841 40020000 		.4byte	0x240
 1733 0845 88020000 		.4byte	.LLST19
 1734 0849 2E       		.uleb128 0x2e
 1735 084a EC040000 		.4byte	0x4ec
 1736 084e 04000000 		.4byte	.LBB43
 1737 0852 60000000 		.4byte	.Ldebug_ranges0+0x60
 1738 0856 01       		.byte	0x1
 1739 0857 4E01     		.2byte	0x14e
 1740 0859 79080000 		.4byte	0x879
 1741 085d 1D       		.uleb128 0x1d
 1742 085e FC040000 		.4byte	0x4fc
 1743 0862 06       		.uleb128 0x6
 1744 0863 03       		.byte	0x3
 1745 0864 00000000 		.4byte	rlist
 1746 0868 9F       		.byte	0x9f
 1747 0869 24       		.uleb128 0x24
 1748 086a 60000000 		.4byte	.Ldebug_ranges0+0x60
 1749 086e 1B       		.uleb128 0x1b
 1750 086f 07050000 		.4byte	0x507
 1751 0873 AB020000 		.4byte	.LLST20
 1752 0877 00       		.byte	0
 1753 0878 00       		.byte	0
 1754 0879 25       		.uleb128 0x25
 1755 087a 34000000 		.4byte	.LVL48
 1756 087e DC080000 		.4byte	0x8dc
ARM GAS  /tmp/ccb5jvYY.s 			page 32


 1757 0882 00       		.byte	0
 1758 0883 20       		.uleb128 0x20
 1759 0884 BB000000 		.4byte	.LASF85
 1760 0888 01       		.byte	0x1
 1761 0889 FD       		.byte	0xfd
 1762 088a 00000000 		.4byte	.LFB13
 1763 088e 1C000000 		.4byte	.LFE13-.LFB13
 1764 0892 01       		.uleb128 0x1
 1765 0893 9C       		.byte	0x9c
 1766 0894 A2080000 		.4byte	0x8a2
 1767 0898 25       		.uleb128 0x25
 1768 0899 14000000 		.4byte	.LVL49
 1769 089d 14080000 		.4byte	0x814
 1770 08a1 00       		.byte	0
 1771 08a2 2C       		.uleb128 0x2c
 1772 08a3 85010000 		.4byte	.LASF86
 1773 08a7 01       		.byte	0x1
 1774 08a8 6A01     		.2byte	0x16a
 1775 08aa 00000000 		.4byte	.LFB16
 1776 08ae 1C000000 		.4byte	.LFE16-.LFB16
 1777 08b2 01       		.uleb128 0x1
 1778 08b3 9C       		.byte	0x9c
 1779 08b4 CB080000 		.4byte	0x8cb
 1780 08b8 25       		.uleb128 0x25
 1781 08b9 10000000 		.4byte	.LVL50
 1782 08bd 14080000 		.4byte	0x814
 1783 08c1 25       		.uleb128 0x25
 1784 08c2 16000000 		.4byte	.LVL51
 1785 08c6 83070000 		.4byte	0x783
 1786 08ca 00       		.byte	0
 1787 08cb 30       		.uleb128 0x30
 1788 08cc 74040000 		.4byte	.LASF96
 1789 08d0 01       		.byte	0x1
 1790 08d1 2F       		.byte	0x2f
 1791 08d2 E2030000 		.4byte	0x3e2
 1792 08d6 05       		.uleb128 0x5
 1793 08d7 03       		.byte	0x3
 1794 08d8 00000000 		.4byte	rlist
 1795 08dc 31       		.uleb128 0x31
 1796 08dd B9010000 		.4byte	.LASF87
 1797 08e1 08       		.byte	0x8
 1798 08e2 7501     		.2byte	0x175
 1799 08e4 F3080000 		.4byte	0x8f3
 1800 08e8 0C       		.uleb128 0xc
 1801 08e9 40020000 		.4byte	0x240
 1802 08ed 0C       		.uleb128 0xc
 1803 08ee 40020000 		.4byte	0x240
 1804 08f2 00       		.byte	0
 1805 08f3 32       		.uleb128 0x32
 1806 08f4 74020000 		.4byte	.LASF88
 1807 08f8 09       		.byte	0x9
 1808 08f9 FE       		.byte	0xfe
 1809 08fa 13090000 		.4byte	0x913
 1810 08fe 0C       		.uleb128 0xc
 1811 08ff 86030000 		.4byte	0x386
 1812 0903 0C       		.uleb128 0xc
 1813 0904 01010000 		.4byte	0x101
ARM GAS  /tmp/ccb5jvYY.s 			page 33


 1814 0908 0C       		.uleb128 0xc
 1815 0909 16030000 		.4byte	0x316
 1816 090d 0C       		.uleb128 0xc
 1817 090e 7C020000 		.4byte	0x27c
 1818 0912 00       		.byte	0
 1819 0913 33       		.uleb128 0x33
 1820 0914 92030000 		.4byte	.LASF97
 1821 0918 09       		.byte	0x9
 1822 0919 FF       		.byte	0xff
 1823 091a 0C       		.uleb128 0xc
 1824 091b 86030000 		.4byte	0x386
 1825 091f 00       		.byte	0
 1826 0920 00       		.byte	0
 1827              		.section	.debug_abbrev,"",%progbits
 1828              	.Ldebug_abbrev0:
 1829 0000 01       		.uleb128 0x1
 1830 0001 11       		.uleb128 0x11
 1831 0002 01       		.byte	0x1
 1832 0003 25       		.uleb128 0x25
 1833 0004 0E       		.uleb128 0xe
 1834 0005 13       		.uleb128 0x13
 1835 0006 0B       		.uleb128 0xb
 1836 0007 03       		.uleb128 0x3
 1837 0008 0E       		.uleb128 0xe
 1838 0009 1B       		.uleb128 0x1b
 1839 000a 0E       		.uleb128 0xe
 1840 000b 55       		.uleb128 0x55
 1841 000c 17       		.uleb128 0x17
 1842 000d 11       		.uleb128 0x11
 1843 000e 01       		.uleb128 0x1
 1844 000f 10       		.uleb128 0x10
 1845 0010 17       		.uleb128 0x17
 1846 0011 00       		.byte	0
 1847 0012 00       		.byte	0
 1848 0013 02       		.uleb128 0x2
 1849 0014 24       		.uleb128 0x24
 1850 0015 00       		.byte	0
 1851 0016 0B       		.uleb128 0xb
 1852 0017 0B       		.uleb128 0xb
 1853 0018 3E       		.uleb128 0x3e
 1854 0019 0B       		.uleb128 0xb
 1855 001a 03       		.uleb128 0x3
 1856 001b 08       		.uleb128 0x8
 1857 001c 00       		.byte	0
 1858 001d 00       		.byte	0
 1859 001e 03       		.uleb128 0x3
 1860 001f 24       		.uleb128 0x24
 1861 0020 00       		.byte	0
 1862 0021 0B       		.uleb128 0xb
 1863 0022 0B       		.uleb128 0xb
 1864 0023 3E       		.uleb128 0x3e
 1865 0024 0B       		.uleb128 0xb
 1866 0025 03       		.uleb128 0x3
 1867 0026 0E       		.uleb128 0xe
 1868 0027 00       		.byte	0
 1869 0028 00       		.byte	0
 1870 0029 04       		.uleb128 0x4
ARM GAS  /tmp/ccb5jvYY.s 			page 34


 1871 002a 16       		.uleb128 0x16
 1872 002b 00       		.byte	0
 1873 002c 03       		.uleb128 0x3
 1874 002d 0E       		.uleb128 0xe
 1875 002e 3A       		.uleb128 0x3a
 1876 002f 0B       		.uleb128 0xb
 1877 0030 3B       		.uleb128 0x3b
 1878 0031 0B       		.uleb128 0xb
 1879 0032 49       		.uleb128 0x49
 1880 0033 13       		.uleb128 0x13
 1881 0034 00       		.byte	0
 1882 0035 00       		.byte	0
 1883 0036 05       		.uleb128 0x5
 1884 0037 13       		.uleb128 0x13
 1885 0038 01       		.byte	0x1
 1886 0039 03       		.uleb128 0x3
 1887 003a 0E       		.uleb128 0xe
 1888 003b 0B       		.uleb128 0xb
 1889 003c 0B       		.uleb128 0xb
 1890 003d 3A       		.uleb128 0x3a
 1891 003e 0B       		.uleb128 0xb
 1892 003f 3B       		.uleb128 0x3b
 1893 0040 0B       		.uleb128 0xb
 1894 0041 01       		.uleb128 0x1
 1895 0042 13       		.uleb128 0x13
 1896 0043 00       		.byte	0
 1897 0044 00       		.byte	0
 1898 0045 06       		.uleb128 0x6
 1899 0046 0D       		.uleb128 0xd
 1900 0047 00       		.byte	0
 1901 0048 03       		.uleb128 0x3
 1902 0049 0E       		.uleb128 0xe
 1903 004a 3A       		.uleb128 0x3a
 1904 004b 0B       		.uleb128 0xb
 1905 004c 3B       		.uleb128 0x3b
 1906 004d 0B       		.uleb128 0xb
 1907 004e 49       		.uleb128 0x49
 1908 004f 13       		.uleb128 0x13
 1909 0050 38       		.uleb128 0x38
 1910 0051 0B       		.uleb128 0xb
 1911 0052 00       		.byte	0
 1912 0053 00       		.byte	0
 1913 0054 07       		.uleb128 0x7
 1914 0055 0D       		.uleb128 0xd
 1915 0056 00       		.byte	0
 1916 0057 03       		.uleb128 0x3
 1917 0058 08       		.uleb128 0x8
 1918 0059 3A       		.uleb128 0x3a
 1919 005a 0B       		.uleb128 0xb
 1920 005b 3B       		.uleb128 0x3b
 1921 005c 0B       		.uleb128 0xb
 1922 005d 49       		.uleb128 0x49
 1923 005e 13       		.uleb128 0x13
 1924 005f 38       		.uleb128 0x38
 1925 0060 0B       		.uleb128 0xb
 1926 0061 00       		.byte	0
 1927 0062 00       		.byte	0
ARM GAS  /tmp/ccb5jvYY.s 			page 35


 1928 0063 08       		.uleb128 0x8
 1929 0064 13       		.uleb128 0x13
 1930 0065 01       		.byte	0x1
 1931 0066 0B       		.uleb128 0xb
 1932 0067 0B       		.uleb128 0xb
 1933 0068 3A       		.uleb128 0x3a
 1934 0069 0B       		.uleb128 0xb
 1935 006a 3B       		.uleb128 0x3b
 1936 006b 0B       		.uleb128 0xb
 1937 006c 01       		.uleb128 0x1
 1938 006d 13       		.uleb128 0x13
 1939 006e 00       		.byte	0
 1940 006f 00       		.byte	0
 1941 0070 09       		.uleb128 0x9
 1942 0071 0F       		.uleb128 0xf
 1943 0072 00       		.byte	0
 1944 0073 0B       		.uleb128 0xb
 1945 0074 0B       		.uleb128 0xb
 1946 0075 49       		.uleb128 0x49
 1947 0076 13       		.uleb128 0x13
 1948 0077 00       		.byte	0
 1949 0078 00       		.byte	0
 1950 0079 0A       		.uleb128 0xa
 1951 007a 0F       		.uleb128 0xf
 1952 007b 00       		.byte	0
 1953 007c 0B       		.uleb128 0xb
 1954 007d 0B       		.uleb128 0xb
 1955 007e 00       		.byte	0
 1956 007f 00       		.byte	0
 1957 0080 0B       		.uleb128 0xb
 1958 0081 15       		.uleb128 0x15
 1959 0082 01       		.byte	0x1
 1960 0083 27       		.uleb128 0x27
 1961 0084 19       		.uleb128 0x19
 1962 0085 01       		.uleb128 0x1
 1963 0086 13       		.uleb128 0x13
 1964 0087 00       		.byte	0
 1965 0088 00       		.byte	0
 1966 0089 0C       		.uleb128 0xc
 1967 008a 05       		.uleb128 0x5
 1968 008b 00       		.byte	0
 1969 008c 49       		.uleb128 0x49
 1970 008d 13       		.uleb128 0x13
 1971 008e 00       		.byte	0
 1972 008f 00       		.byte	0
 1973 0090 0D       		.uleb128 0xd
 1974 0091 35       		.uleb128 0x35
 1975 0092 00       		.byte	0
 1976 0093 49       		.uleb128 0x49
 1977 0094 13       		.uleb128 0x13
 1978 0095 00       		.byte	0
 1979 0096 00       		.byte	0
 1980 0097 0E       		.uleb128 0xe
 1981 0098 17       		.uleb128 0x17
 1982 0099 01       		.byte	0x1
 1983 009a 0B       		.uleb128 0xb
 1984 009b 0B       		.uleb128 0xb
ARM GAS  /tmp/ccb5jvYY.s 			page 36


 1985 009c 3A       		.uleb128 0x3a
 1986 009d 0B       		.uleb128 0xb
 1987 009e 3B       		.uleb128 0x3b
 1988 009f 0B       		.uleb128 0xb
 1989 00a0 01       		.uleb128 0x1
 1990 00a1 13       		.uleb128 0x13
 1991 00a2 00       		.byte	0
 1992 00a3 00       		.byte	0
 1993 00a4 0F       		.uleb128 0xf
 1994 00a5 0D       		.uleb128 0xd
 1995 00a6 00       		.byte	0
 1996 00a7 03       		.uleb128 0x3
 1997 00a8 0E       		.uleb128 0xe
 1998 00a9 3A       		.uleb128 0x3a
 1999 00aa 0B       		.uleb128 0xb
 2000 00ab 3B       		.uleb128 0x3b
 2001 00ac 0B       		.uleb128 0xb
 2002 00ad 49       		.uleb128 0x49
 2003 00ae 13       		.uleb128 0x13
 2004 00af 00       		.byte	0
 2005 00b0 00       		.byte	0
 2006 00b1 10       		.uleb128 0x10
 2007 00b2 26       		.uleb128 0x26
 2008 00b3 00       		.byte	0
 2009 00b4 49       		.uleb128 0x49
 2010 00b5 13       		.uleb128 0x13
 2011 00b6 00       		.byte	0
 2012 00b7 00       		.byte	0
 2013 00b8 11       		.uleb128 0x11
 2014 00b9 2E       		.uleb128 0x2e
 2015 00ba 01       		.byte	0x1
 2016 00bb 03       		.uleb128 0x3
 2017 00bc 0E       		.uleb128 0xe
 2018 00bd 3A       		.uleb128 0x3a
 2019 00be 0B       		.uleb128 0xb
 2020 00bf 3B       		.uleb128 0x3b
 2021 00c0 0B       		.uleb128 0xb
 2022 00c1 27       		.uleb128 0x27
 2023 00c2 19       		.uleb128 0x19
 2024 00c3 49       		.uleb128 0x49
 2025 00c4 13       		.uleb128 0x13
 2026 00c5 20       		.uleb128 0x20
 2027 00c6 0B       		.uleb128 0xb
 2028 00c7 01       		.uleb128 0x1
 2029 00c8 13       		.uleb128 0x13
 2030 00c9 00       		.byte	0
 2031 00ca 00       		.byte	0
 2032 00cb 12       		.uleb128 0x12
 2033 00cc 05       		.uleb128 0x5
 2034 00cd 00       		.byte	0
 2035 00ce 03       		.uleb128 0x3
 2036 00cf 08       		.uleb128 0x8
 2037 00d0 3A       		.uleb128 0x3a
 2038 00d1 0B       		.uleb128 0xb
 2039 00d2 3B       		.uleb128 0x3b
 2040 00d3 0B       		.uleb128 0xb
 2041 00d4 49       		.uleb128 0x49
ARM GAS  /tmp/ccb5jvYY.s 			page 37


 2042 00d5 13       		.uleb128 0x13
 2043 00d6 00       		.byte	0
 2044 00d7 00       		.byte	0
 2045 00d8 13       		.uleb128 0x13
 2046 00d9 2E       		.uleb128 0x2e
 2047 00da 01       		.byte	0x1
 2048 00db 3F       		.uleb128 0x3f
 2049 00dc 19       		.uleb128 0x19
 2050 00dd 03       		.uleb128 0x3
 2051 00de 0E       		.uleb128 0xe
 2052 00df 3A       		.uleb128 0x3a
 2053 00e0 0B       		.uleb128 0xb
 2054 00e1 3B       		.uleb128 0x3b
 2055 00e2 0B       		.uleb128 0xb
 2056 00e3 27       		.uleb128 0x27
 2057 00e4 19       		.uleb128 0x19
 2058 00e5 49       		.uleb128 0x49
 2059 00e6 13       		.uleb128 0x13
 2060 00e7 20       		.uleb128 0x20
 2061 00e8 0B       		.uleb128 0xb
 2062 00e9 01       		.uleb128 0x1
 2063 00ea 13       		.uleb128 0x13
 2064 00eb 00       		.byte	0
 2065 00ec 00       		.byte	0
 2066 00ed 14       		.uleb128 0x14
 2067 00ee 34       		.uleb128 0x34
 2068 00ef 00       		.byte	0
 2069 00f0 03       		.uleb128 0x3
 2070 00f1 08       		.uleb128 0x8
 2071 00f2 3A       		.uleb128 0x3a
 2072 00f3 0B       		.uleb128 0xb
 2073 00f4 3B       		.uleb128 0x3b
 2074 00f5 0B       		.uleb128 0xb
 2075 00f6 49       		.uleb128 0x49
 2076 00f7 13       		.uleb128 0x13
 2077 00f8 00       		.byte	0
 2078 00f9 00       		.byte	0
 2079 00fa 15       		.uleb128 0x15
 2080 00fb 2E       		.uleb128 0x2e
 2081 00fc 01       		.byte	0x1
 2082 00fd 03       		.uleb128 0x3
 2083 00fe 0E       		.uleb128 0xe
 2084 00ff 3A       		.uleb128 0x3a
 2085 0100 0B       		.uleb128 0xb
 2086 0101 3B       		.uleb128 0x3b
 2087 0102 0B       		.uleb128 0xb
 2088 0103 27       		.uleb128 0x27
 2089 0104 19       		.uleb128 0x19
 2090 0105 11       		.uleb128 0x11
 2091 0106 01       		.uleb128 0x1
 2092 0107 12       		.uleb128 0x12
 2093 0108 06       		.uleb128 0x6
 2094 0109 40       		.uleb128 0x40
 2095 010a 18       		.uleb128 0x18
 2096 010b 9742     		.uleb128 0x2117
 2097 010d 19       		.uleb128 0x19
 2098 010e 01       		.uleb128 0x1
ARM GAS  /tmp/ccb5jvYY.s 			page 38


 2099 010f 13       		.uleb128 0x13
 2100 0110 00       		.byte	0
 2101 0111 00       		.byte	0
 2102 0112 16       		.uleb128 0x16
 2103 0113 05       		.uleb128 0x5
 2104 0114 00       		.byte	0
 2105 0115 03       		.uleb128 0x3
 2106 0116 08       		.uleb128 0x8
 2107 0117 3A       		.uleb128 0x3a
 2108 0118 0B       		.uleb128 0xb
 2109 0119 3B       		.uleb128 0x3b
 2110 011a 0B       		.uleb128 0xb
 2111 011b 49       		.uleb128 0x49
 2112 011c 13       		.uleb128 0x13
 2113 011d 02       		.uleb128 0x2
 2114 011e 18       		.uleb128 0x18
 2115 011f 00       		.byte	0
 2116 0120 00       		.byte	0
 2117 0121 17       		.uleb128 0x17
 2118 0122 34       		.uleb128 0x34
 2119 0123 00       		.byte	0
 2120 0124 03       		.uleb128 0x3
 2121 0125 08       		.uleb128 0x8
 2122 0126 3A       		.uleb128 0x3a
 2123 0127 0B       		.uleb128 0xb
 2124 0128 3B       		.uleb128 0x3b
 2125 0129 0B       		.uleb128 0xb
 2126 012a 49       		.uleb128 0x49
 2127 012b 13       		.uleb128 0x13
 2128 012c 02       		.uleb128 0x2
 2129 012d 18       		.uleb128 0x18
 2130 012e 00       		.byte	0
 2131 012f 00       		.byte	0
 2132 0130 18       		.uleb128 0x18
 2133 0131 1D       		.uleb128 0x1d
 2134 0132 01       		.byte	0x1
 2135 0133 31       		.uleb128 0x31
 2136 0134 13       		.uleb128 0x13
 2137 0135 11       		.uleb128 0x11
 2138 0136 01       		.uleb128 0x1
 2139 0137 12       		.uleb128 0x12
 2140 0138 06       		.uleb128 0x6
 2141 0139 58       		.uleb128 0x58
 2142 013a 0B       		.uleb128 0xb
 2143 013b 59       		.uleb128 0x59
 2144 013c 0B       		.uleb128 0xb
 2145 013d 01       		.uleb128 0x1
 2146 013e 13       		.uleb128 0x13
 2147 013f 00       		.byte	0
 2148 0140 00       		.byte	0
 2149 0141 19       		.uleb128 0x19
 2150 0142 05       		.uleb128 0x5
 2151 0143 00       		.byte	0
 2152 0144 31       		.uleb128 0x31
 2153 0145 13       		.uleb128 0x13
 2154 0146 02       		.uleb128 0x2
 2155 0147 17       		.uleb128 0x17
ARM GAS  /tmp/ccb5jvYY.s 			page 39


 2156 0148 00       		.byte	0
 2157 0149 00       		.byte	0
 2158 014a 1A       		.uleb128 0x1a
 2159 014b 0B       		.uleb128 0xb
 2160 014c 01       		.byte	0x1
 2161 014d 11       		.uleb128 0x11
 2162 014e 01       		.uleb128 0x1
 2163 014f 12       		.uleb128 0x12
 2164 0150 06       		.uleb128 0x6
 2165 0151 00       		.byte	0
 2166 0152 00       		.byte	0
 2167 0153 1B       		.uleb128 0x1b
 2168 0154 34       		.uleb128 0x34
 2169 0155 00       		.byte	0
 2170 0156 31       		.uleb128 0x31
 2171 0157 13       		.uleb128 0x13
 2172 0158 02       		.uleb128 0x2
 2173 0159 17       		.uleb128 0x17
 2174 015a 00       		.byte	0
 2175 015b 00       		.byte	0
 2176 015c 1C       		.uleb128 0x1c
 2177 015d 1D       		.uleb128 0x1d
 2178 015e 01       		.byte	0x1
 2179 015f 31       		.uleb128 0x31
 2180 0160 13       		.uleb128 0x13
 2181 0161 11       		.uleb128 0x11
 2182 0162 01       		.uleb128 0x1
 2183 0163 12       		.uleb128 0x12
 2184 0164 06       		.uleb128 0x6
 2185 0165 58       		.uleb128 0x58
 2186 0166 0B       		.uleb128 0xb
 2187 0167 59       		.uleb128 0x59
 2188 0168 0B       		.uleb128 0xb
 2189 0169 00       		.byte	0
 2190 016a 00       		.byte	0
 2191 016b 1D       		.uleb128 0x1d
 2192 016c 05       		.uleb128 0x5
 2193 016d 00       		.byte	0
 2194 016e 31       		.uleb128 0x31
 2195 016f 13       		.uleb128 0x13
 2196 0170 02       		.uleb128 0x2
 2197 0171 18       		.uleb128 0x18
 2198 0172 00       		.byte	0
 2199 0173 00       		.byte	0
 2200 0174 1E       		.uleb128 0x1e
 2201 0175 2E       		.uleb128 0x2e
 2202 0176 00       		.byte	0
 2203 0177 3F       		.uleb128 0x3f
 2204 0178 19       		.uleb128 0x19
 2205 0179 03       		.uleb128 0x3
 2206 017a 0E       		.uleb128 0xe
 2207 017b 3A       		.uleb128 0x3a
 2208 017c 0B       		.uleb128 0xb
 2209 017d 3B       		.uleb128 0x3b
 2210 017e 0B       		.uleb128 0xb
 2211 017f 27       		.uleb128 0x27
 2212 0180 19       		.uleb128 0x19
ARM GAS  /tmp/ccb5jvYY.s 			page 40


 2213 0181 11       		.uleb128 0x11
 2214 0182 01       		.uleb128 0x1
 2215 0183 12       		.uleb128 0x12
 2216 0184 06       		.uleb128 0x6
 2217 0185 40       		.uleb128 0x40
 2218 0186 18       		.uleb128 0x18
 2219 0187 9742     		.uleb128 0x2117
 2220 0189 19       		.uleb128 0x19
 2221 018a 00       		.byte	0
 2222 018b 00       		.byte	0
 2223 018c 1F       		.uleb128 0x1f
 2224 018d 2E       		.uleb128 0x2e
 2225 018e 01       		.byte	0x1
 2226 018f 31       		.uleb128 0x31
 2227 0190 13       		.uleb128 0x13
 2228 0191 11       		.uleb128 0x11
 2229 0192 01       		.uleb128 0x1
 2230 0193 12       		.uleb128 0x12
 2231 0194 06       		.uleb128 0x6
 2232 0195 40       		.uleb128 0x40
 2233 0196 18       		.uleb128 0x18
 2234 0197 9742     		.uleb128 0x2117
 2235 0199 19       		.uleb128 0x19
 2236 019a 01       		.uleb128 0x1
 2237 019b 13       		.uleb128 0x13
 2238 019c 00       		.byte	0
 2239 019d 00       		.byte	0
 2240 019e 20       		.uleb128 0x20
 2241 019f 2E       		.uleb128 0x2e
 2242 01a0 01       		.byte	0x1
 2243 01a1 3F       		.uleb128 0x3f
 2244 01a2 19       		.uleb128 0x19
 2245 01a3 03       		.uleb128 0x3
 2246 01a4 0E       		.uleb128 0xe
 2247 01a5 3A       		.uleb128 0x3a
 2248 01a6 0B       		.uleb128 0xb
 2249 01a7 3B       		.uleb128 0x3b
 2250 01a8 0B       		.uleb128 0xb
 2251 01a9 27       		.uleb128 0x27
 2252 01aa 19       		.uleb128 0x19
 2253 01ab 11       		.uleb128 0x11
 2254 01ac 01       		.uleb128 0x1
 2255 01ad 12       		.uleb128 0x12
 2256 01ae 06       		.uleb128 0x6
 2257 01af 40       		.uleb128 0x40
 2258 01b0 18       		.uleb128 0x18
 2259 01b1 9742     		.uleb128 0x2117
 2260 01b3 19       		.uleb128 0x19
 2261 01b4 01       		.uleb128 0x1
 2262 01b5 13       		.uleb128 0x13
 2263 01b6 00       		.byte	0
 2264 01b7 00       		.byte	0
 2265 01b8 21       		.uleb128 0x21
 2266 01b9 05       		.uleb128 0x5
 2267 01ba 00       		.byte	0
 2268 01bb 03       		.uleb128 0x3
 2269 01bc 0E       		.uleb128 0xe
ARM GAS  /tmp/ccb5jvYY.s 			page 41


 2270 01bd 3A       		.uleb128 0x3a
 2271 01be 0B       		.uleb128 0xb
 2272 01bf 3B       		.uleb128 0x3b
 2273 01c0 0B       		.uleb128 0xb
 2274 01c1 49       		.uleb128 0x49
 2275 01c2 13       		.uleb128 0x13
 2276 01c3 02       		.uleb128 0x2
 2277 01c4 17       		.uleb128 0x17
 2278 01c5 00       		.byte	0
 2279 01c6 00       		.byte	0
 2280 01c7 22       		.uleb128 0x22
 2281 01c8 34       		.uleb128 0x34
 2282 01c9 00       		.byte	0
 2283 01ca 03       		.uleb128 0x3
 2284 01cb 08       		.uleb128 0x8
 2285 01cc 3A       		.uleb128 0x3a
 2286 01cd 0B       		.uleb128 0xb
 2287 01ce 3B       		.uleb128 0x3b
 2288 01cf 0B       		.uleb128 0xb
 2289 01d0 49       		.uleb128 0x49
 2290 01d1 13       		.uleb128 0x13
 2291 01d2 02       		.uleb128 0x2
 2292 01d3 17       		.uleb128 0x17
 2293 01d4 00       		.byte	0
 2294 01d5 00       		.byte	0
 2295 01d6 23       		.uleb128 0x23
 2296 01d7 1D       		.uleb128 0x1d
 2297 01d8 01       		.byte	0x1
 2298 01d9 31       		.uleb128 0x31
 2299 01da 13       		.uleb128 0x13
 2300 01db 52       		.uleb128 0x52
 2301 01dc 01       		.uleb128 0x1
 2302 01dd 55       		.uleb128 0x55
 2303 01de 17       		.uleb128 0x17
 2304 01df 58       		.uleb128 0x58
 2305 01e0 0B       		.uleb128 0xb
 2306 01e1 59       		.uleb128 0x59
 2307 01e2 0B       		.uleb128 0xb
 2308 01e3 01       		.uleb128 0x1
 2309 01e4 13       		.uleb128 0x13
 2310 01e5 00       		.byte	0
 2311 01e6 00       		.byte	0
 2312 01e7 24       		.uleb128 0x24
 2313 01e8 0B       		.uleb128 0xb
 2314 01e9 01       		.byte	0x1
 2315 01ea 55       		.uleb128 0x55
 2316 01eb 17       		.uleb128 0x17
 2317 01ec 00       		.byte	0
 2318 01ed 00       		.byte	0
 2319 01ee 25       		.uleb128 0x25
 2320 01ef 898201   		.uleb128 0x4109
 2321 01f2 00       		.byte	0
 2322 01f3 11       		.uleb128 0x11
 2323 01f4 01       		.uleb128 0x1
 2324 01f5 31       		.uleb128 0x31
 2325 01f6 13       		.uleb128 0x13
 2326 01f7 00       		.byte	0
ARM GAS  /tmp/ccb5jvYY.s 			page 42


 2327 01f8 00       		.byte	0
 2328 01f9 26       		.uleb128 0x26
 2329 01fa 2E       		.uleb128 0x2e
 2330 01fb 01       		.byte	0x1
 2331 01fc 3F       		.uleb128 0x3f
 2332 01fd 19       		.uleb128 0x19
 2333 01fe 03       		.uleb128 0x3
 2334 01ff 0E       		.uleb128 0xe
 2335 0200 3A       		.uleb128 0x3a
 2336 0201 0B       		.uleb128 0xb
 2337 0202 3B       		.uleb128 0x3b
 2338 0203 0B       		.uleb128 0xb
 2339 0204 27       		.uleb128 0x27
 2340 0205 19       		.uleb128 0x19
 2341 0206 49       		.uleb128 0x49
 2342 0207 13       		.uleb128 0x13
 2343 0208 11       		.uleb128 0x11
 2344 0209 01       		.uleb128 0x1
 2345 020a 12       		.uleb128 0x12
 2346 020b 06       		.uleb128 0x6
 2347 020c 40       		.uleb128 0x40
 2348 020d 18       		.uleb128 0x18
 2349 020e 9742     		.uleb128 0x2117
 2350 0210 19       		.uleb128 0x19
 2351 0211 01       		.uleb128 0x1
 2352 0212 13       		.uleb128 0x13
 2353 0213 00       		.byte	0
 2354 0214 00       		.byte	0
 2355 0215 27       		.uleb128 0x27
 2356 0216 0B       		.uleb128 0xb
 2357 0217 01       		.byte	0x1
 2358 0218 11       		.uleb128 0x11
 2359 0219 01       		.uleb128 0x1
 2360 021a 12       		.uleb128 0x12
 2361 021b 06       		.uleb128 0x6
 2362 021c 01       		.uleb128 0x1
 2363 021d 13       		.uleb128 0x13
 2364 021e 00       		.byte	0
 2365 021f 00       		.byte	0
 2366 0220 28       		.uleb128 0x28
 2367 0221 898201   		.uleb128 0x4109
 2368 0224 01       		.byte	0x1
 2369 0225 11       		.uleb128 0x11
 2370 0226 01       		.uleb128 0x1
 2371 0227 31       		.uleb128 0x31
 2372 0228 13       		.uleb128 0x13
 2373 0229 01       		.uleb128 0x1
 2374 022a 13       		.uleb128 0x13
 2375 022b 00       		.byte	0
 2376 022c 00       		.byte	0
 2377 022d 29       		.uleb128 0x29
 2378 022e 8A8201   		.uleb128 0x410a
 2379 0231 00       		.byte	0
 2380 0232 02       		.uleb128 0x2
 2381 0233 18       		.uleb128 0x18
 2382 0234 9142     		.uleb128 0x2111
 2383 0236 18       		.uleb128 0x18
ARM GAS  /tmp/ccb5jvYY.s 			page 43


 2384 0237 00       		.byte	0
 2385 0238 00       		.byte	0
 2386 0239 2A       		.uleb128 0x2a
 2387 023a 898201   		.uleb128 0x4109
 2388 023d 01       		.byte	0x1
 2389 023e 11       		.uleb128 0x11
 2390 023f 01       		.uleb128 0x1
 2391 0240 31       		.uleb128 0x31
 2392 0241 13       		.uleb128 0x13
 2393 0242 00       		.byte	0
 2394 0243 00       		.byte	0
 2395 0244 2B       		.uleb128 0x2b
 2396 0245 05       		.uleb128 0x5
 2397 0246 00       		.byte	0
 2398 0247 03       		.uleb128 0x3
 2399 0248 08       		.uleb128 0x8
 2400 0249 3A       		.uleb128 0x3a
 2401 024a 0B       		.uleb128 0xb
 2402 024b 3B       		.uleb128 0x3b
 2403 024c 0B       		.uleb128 0xb
 2404 024d 49       		.uleb128 0x49
 2405 024e 13       		.uleb128 0x13
 2406 024f 02       		.uleb128 0x2
 2407 0250 17       		.uleb128 0x17
 2408 0251 00       		.byte	0
 2409 0252 00       		.byte	0
 2410 0253 2C       		.uleb128 0x2c
 2411 0254 2E       		.uleb128 0x2e
 2412 0255 01       		.byte	0x1
 2413 0256 3F       		.uleb128 0x3f
 2414 0257 19       		.uleb128 0x19
 2415 0258 03       		.uleb128 0x3
 2416 0259 0E       		.uleb128 0xe
 2417 025a 3A       		.uleb128 0x3a
 2418 025b 0B       		.uleb128 0xb
 2419 025c 3B       		.uleb128 0x3b
 2420 025d 05       		.uleb128 0x5
 2421 025e 27       		.uleb128 0x27
 2422 025f 19       		.uleb128 0x19
 2423 0260 11       		.uleb128 0x11
 2424 0261 01       		.uleb128 0x1
 2425 0262 12       		.uleb128 0x12
 2426 0263 06       		.uleb128 0x6
 2427 0264 40       		.uleb128 0x40
 2428 0265 18       		.uleb128 0x18
 2429 0266 9742     		.uleb128 0x2117
 2430 0268 19       		.uleb128 0x19
 2431 0269 01       		.uleb128 0x1
 2432 026a 13       		.uleb128 0x13
 2433 026b 00       		.byte	0
 2434 026c 00       		.byte	0
 2435 026d 2D       		.uleb128 0x2d
 2436 026e 34       		.uleb128 0x34
 2437 026f 00       		.byte	0
 2438 0270 03       		.uleb128 0x3
 2439 0271 08       		.uleb128 0x8
 2440 0272 3A       		.uleb128 0x3a
ARM GAS  /tmp/ccb5jvYY.s 			page 44


 2441 0273 0B       		.uleb128 0xb
 2442 0274 3B       		.uleb128 0x3b
 2443 0275 05       		.uleb128 0x5
 2444 0276 49       		.uleb128 0x49
 2445 0277 13       		.uleb128 0x13
 2446 0278 02       		.uleb128 0x2
 2447 0279 17       		.uleb128 0x17
 2448 027a 00       		.byte	0
 2449 027b 00       		.byte	0
 2450 027c 2E       		.uleb128 0x2e
 2451 027d 1D       		.uleb128 0x1d
 2452 027e 01       		.byte	0x1
 2453 027f 31       		.uleb128 0x31
 2454 0280 13       		.uleb128 0x13
 2455 0281 52       		.uleb128 0x52
 2456 0282 01       		.uleb128 0x1
 2457 0283 55       		.uleb128 0x55
 2458 0284 17       		.uleb128 0x17
 2459 0285 58       		.uleb128 0x58
 2460 0286 0B       		.uleb128 0xb
 2461 0287 59       		.uleb128 0x59
 2462 0288 05       		.uleb128 0x5
 2463 0289 01       		.uleb128 0x1
 2464 028a 13       		.uleb128 0x13
 2465 028b 00       		.byte	0
 2466 028c 00       		.byte	0
 2467 028d 2F       		.uleb128 0x2f
 2468 028e 1D       		.uleb128 0x1d
 2469 028f 01       		.byte	0x1
 2470 0290 31       		.uleb128 0x31
 2471 0291 13       		.uleb128 0x13
 2472 0292 11       		.uleb128 0x11
 2473 0293 01       		.uleb128 0x1
 2474 0294 12       		.uleb128 0x12
 2475 0295 06       		.uleb128 0x6
 2476 0296 58       		.uleb128 0x58
 2477 0297 0B       		.uleb128 0xb
 2478 0298 59       		.uleb128 0x59
 2479 0299 05       		.uleb128 0x5
 2480 029a 01       		.uleb128 0x1
 2481 029b 13       		.uleb128 0x13
 2482 029c 00       		.byte	0
 2483 029d 00       		.byte	0
 2484 029e 30       		.uleb128 0x30
 2485 029f 34       		.uleb128 0x34
 2486 02a0 00       		.byte	0
 2487 02a1 03       		.uleb128 0x3
 2488 02a2 0E       		.uleb128 0xe
 2489 02a3 3A       		.uleb128 0x3a
 2490 02a4 0B       		.uleb128 0xb
 2491 02a5 3B       		.uleb128 0x3b
 2492 02a6 0B       		.uleb128 0xb
 2493 02a7 49       		.uleb128 0x49
 2494 02a8 13       		.uleb128 0x13
 2495 02a9 3F       		.uleb128 0x3f
 2496 02aa 19       		.uleb128 0x19
 2497 02ab 02       		.uleb128 0x2
ARM GAS  /tmp/ccb5jvYY.s 			page 45


 2498 02ac 18       		.uleb128 0x18
 2499 02ad 00       		.byte	0
 2500 02ae 00       		.byte	0
 2501 02af 31       		.uleb128 0x31
 2502 02b0 2E       		.uleb128 0x2e
 2503 02b1 01       		.byte	0x1
 2504 02b2 3F       		.uleb128 0x3f
 2505 02b3 19       		.uleb128 0x19
 2506 02b4 03       		.uleb128 0x3
 2507 02b5 0E       		.uleb128 0xe
 2508 02b6 3A       		.uleb128 0x3a
 2509 02b7 0B       		.uleb128 0xb
 2510 02b8 3B       		.uleb128 0x3b
 2511 02b9 05       		.uleb128 0x5
 2512 02ba 27       		.uleb128 0x27
 2513 02bb 19       		.uleb128 0x19
 2514 02bc 3C       		.uleb128 0x3c
 2515 02bd 19       		.uleb128 0x19
 2516 02be 01       		.uleb128 0x1
 2517 02bf 13       		.uleb128 0x13
 2518 02c0 00       		.byte	0
 2519 02c1 00       		.byte	0
 2520 02c2 32       		.uleb128 0x32
 2521 02c3 2E       		.uleb128 0x2e
 2522 02c4 01       		.byte	0x1
 2523 02c5 3F       		.uleb128 0x3f
 2524 02c6 19       		.uleb128 0x19
 2525 02c7 03       		.uleb128 0x3
 2526 02c8 0E       		.uleb128 0xe
 2527 02c9 3A       		.uleb128 0x3a
 2528 02ca 0B       		.uleb128 0xb
 2529 02cb 3B       		.uleb128 0x3b
 2530 02cc 0B       		.uleb128 0xb
 2531 02cd 27       		.uleb128 0x27
 2532 02ce 19       		.uleb128 0x19
 2533 02cf 3C       		.uleb128 0x3c
 2534 02d0 19       		.uleb128 0x19
 2535 02d1 01       		.uleb128 0x1
 2536 02d2 13       		.uleb128 0x13
 2537 02d3 00       		.byte	0
 2538 02d4 00       		.byte	0
 2539 02d5 33       		.uleb128 0x33
 2540 02d6 2E       		.uleb128 0x2e
 2541 02d7 01       		.byte	0x1
 2542 02d8 3F       		.uleb128 0x3f
 2543 02d9 19       		.uleb128 0x19
 2544 02da 03       		.uleb128 0x3
 2545 02db 0E       		.uleb128 0xe
 2546 02dc 3A       		.uleb128 0x3a
 2547 02dd 0B       		.uleb128 0xb
 2548 02de 3B       		.uleb128 0x3b
 2549 02df 0B       		.uleb128 0xb
 2550 02e0 27       		.uleb128 0x27
 2551 02e1 19       		.uleb128 0x19
 2552 02e2 3C       		.uleb128 0x3c
 2553 02e3 19       		.uleb128 0x19
 2554 02e4 00       		.byte	0
ARM GAS  /tmp/ccb5jvYY.s 			page 46


 2555 02e5 00       		.byte	0
 2556 02e6 00       		.byte	0
 2557              		.section	.debug_loc,"",%progbits
 2558              	.Ldebug_loc0:
 2559              	.LLST0:
 2560 0000 1A000000 		.4byte	.LVL1
 2561 0004 36000000 		.4byte	.LVL5
 2562 0008 0100     		.2byte	0x1
 2563 000a 50       		.byte	0x50
 2564 000b 00000000 		.4byte	0
 2565 000f 00000000 		.4byte	0
 2566              	.LLST1:
 2567 0013 1E000000 		.4byte	.LVL2
 2568 0017 22000000 		.4byte	.LVL3
 2569 001b 0600     		.2byte	0x6
 2570 001d 03       		.byte	0x3
 2571 001e 00000000 		.4byte	rlist
 2572 0022 9F       		.byte	0x9f
 2573 0023 22000000 		.4byte	.LVL3
 2574 0027 36000000 		.4byte	.LVL5
 2575 002b 0100     		.2byte	0x1
 2576 002d 53       		.byte	0x53
 2577 002e 00000000 		.4byte	0
 2578 0032 00000000 		.4byte	0
 2579              	.LLST2:
 2580 0036 06000000 		.4byte	.LVL8
 2581 003a 0A000000 		.4byte	.LVL9
 2582 003e 0600     		.2byte	0x6
 2583 0040 03       		.byte	0x3
 2584 0041 00000000 		.4byte	rlist
 2585 0045 9F       		.byte	0x9f
 2586 0046 0A000000 		.4byte	.LVL9
 2587 004a 24000000 		.4byte	.LFE8
 2588 004e 0100     		.2byte	0x1
 2589 0050 53       		.byte	0x53
 2590 0051 00000000 		.4byte	0
 2591 0055 00000000 		.4byte	0
 2592              	.LLST3:
 2593 0059 00000000 		.4byte	.LVL11
 2594 005d 0C000000 		.4byte	.LVL13
 2595 0061 0100     		.2byte	0x1
 2596 0063 50       		.byte	0x50
 2597 0064 0C000000 		.4byte	.LVL13
 2598 0068 1A000000 		.4byte	.LVL15
 2599 006c 0200     		.2byte	0x2
 2600 006e 71       		.byte	0x71
 2601 006f 1C       		.sleb128 28
 2602 0070 1A000000 		.4byte	.LVL15
 2603 0074 24000000 		.4byte	.LFE9
 2604 0078 0400     		.2byte	0x4
 2605 007a F3       		.byte	0xf3
 2606 007b 01       		.uleb128 0x1
 2607 007c 50       		.byte	0x50
 2608 007d 9F       		.byte	0x9f
 2609 007e 00000000 		.4byte	0
 2610 0082 00000000 		.4byte	0
 2611              	.LLST4:
ARM GAS  /tmp/ccb5jvYY.s 			page 47


 2612 0086 08000000 		.4byte	.LVL12
 2613 008a 1D000000 		.4byte	.LVL16-1
 2614 008e 0100     		.2byte	0x1
 2615 0090 51       		.byte	0x51
 2616 0091 00000000 		.4byte	0
 2617 0095 00000000 		.4byte	0
 2618              	.LLST5:
 2619 0099 0E000000 		.4byte	.LVL14
 2620 009d 1D000000 		.4byte	.LVL16-1
 2621 00a1 0100     		.2byte	0x1
 2622 00a3 50       		.byte	0x50
 2623 00a4 00000000 		.4byte	0
 2624 00a8 00000000 		.4byte	0
 2625              	.LLST6:
 2626 00ac 00000000 		.4byte	.LVL17
 2627 00b0 0E000000 		.4byte	.LVL18
 2628 00b4 0100     		.2byte	0x1
 2629 00b6 50       		.byte	0x50
 2630 00b7 0E000000 		.4byte	.LVL18
 2631 00bb 30000000 		.4byte	.LVL22
 2632 00bf 0400     		.2byte	0x4
 2633 00c1 F3       		.byte	0xf3
 2634 00c2 01       		.uleb128 0x1
 2635 00c3 50       		.byte	0x50
 2636 00c4 9F       		.byte	0x9f
 2637 00c5 30000000 		.4byte	.LVL22
 2638 00c9 33000000 		.4byte	.LVL23-1
 2639 00cd 0100     		.2byte	0x1
 2640 00cf 50       		.byte	0x50
 2641 00d0 33000000 		.4byte	.LVL23-1
 2642 00d4 40000000 		.4byte	.LFE11
 2643 00d8 0400     		.2byte	0x4
 2644 00da F3       		.byte	0xf3
 2645 00db 01       		.uleb128 0x1
 2646 00dc 50       		.byte	0x50
 2647 00dd 9F       		.byte	0x9f
 2648 00de 00000000 		.4byte	0
 2649 00e2 00000000 		.4byte	0
 2650              	.LLST7:
 2651 00e6 00000000 		.4byte	.LVL17
 2652 00ea 15000000 		.4byte	.LVL19-1
 2653 00ee 0100     		.2byte	0x1
 2654 00f0 51       		.byte	0x51
 2655 00f1 15000000 		.4byte	.LVL19-1
 2656 00f5 30000000 		.4byte	.LVL22
 2657 00f9 0400     		.2byte	0x4
 2658 00fb F3       		.byte	0xf3
 2659 00fc 01       		.uleb128 0x1
 2660 00fd 51       		.byte	0x51
 2661 00fe 9F       		.byte	0x9f
 2662 00ff 30000000 		.4byte	.LVL22
 2663 0103 33000000 		.4byte	.LVL23-1
 2664 0107 0100     		.2byte	0x1
 2665 0109 51       		.byte	0x51
 2666 010a 33000000 		.4byte	.LVL23-1
 2667 010e 40000000 		.4byte	.LFE11
 2668 0112 0400     		.2byte	0x4
ARM GAS  /tmp/ccb5jvYY.s 			page 48


 2669 0114 F3       		.byte	0xf3
 2670 0115 01       		.uleb128 0x1
 2671 0116 51       		.byte	0x51
 2672 0117 9F       		.byte	0x9f
 2673 0118 00000000 		.4byte	0
 2674 011c 00000000 		.4byte	0
 2675              	.LLST8:
 2676 0120 00000000 		.4byte	.LVL24
 2677 0124 28000000 		.4byte	.LVL30
 2678 0128 0100     		.2byte	0x1
 2679 012a 50       		.byte	0x50
 2680 012b 28000000 		.4byte	.LVL30
 2681 012f 2A000000 		.4byte	.LVL31
 2682 0133 0400     		.2byte	0x4
 2683 0135 F3       		.byte	0xf3
 2684 0136 01       		.uleb128 0x1
 2685 0137 50       		.byte	0x50
 2686 0138 9F       		.byte	0x9f
 2687 0139 2A000000 		.4byte	.LVL31
 2688 013d 49000000 		.4byte	.LVL37-1
 2689 0141 0100     		.2byte	0x1
 2690 0143 50       		.byte	0x50
 2691 0144 49000000 		.4byte	.LVL37-1
 2692 0148 50000000 		.4byte	.LFE12
 2693 014c 0400     		.2byte	0x4
 2694 014e F3       		.byte	0xf3
 2695 014f 01       		.uleb128 0x1
 2696 0150 50       		.byte	0x50
 2697 0151 9F       		.byte	0x9f
 2698 0152 00000000 		.4byte	0
 2699 0156 00000000 		.4byte	0
 2700              	.LLST9:
 2701 015a 00000000 		.4byte	.LVL24
 2702 015e 08000000 		.4byte	.LVL25
 2703 0162 0100     		.2byte	0x1
 2704 0164 51       		.byte	0x51
 2705 0165 08000000 		.4byte	.LVL25
 2706 0169 28000000 		.4byte	.LVL30
 2707 016d 0200     		.2byte	0x2
 2708 016f 70       		.byte	0x70
 2709 0170 24       		.sleb128 36
 2710 0171 28000000 		.4byte	.LVL30
 2711 0175 2A000000 		.4byte	.LVL31
 2712 0179 0400     		.2byte	0x4
 2713 017b F3       		.byte	0xf3
 2714 017c 01       		.uleb128 0x1
 2715 017d 51       		.byte	0x51
 2716 017e 9F       		.byte	0x9f
 2717 017f 2A000000 		.4byte	.LVL31
 2718 0183 49000000 		.4byte	.LVL37-1
 2719 0187 0200     		.2byte	0x2
 2720 0189 70       		.byte	0x70
 2721 018a 24       		.sleb128 36
 2722 018b 49000000 		.4byte	.LVL37-1
 2723 018f 50000000 		.4byte	.LFE12
 2724 0193 0400     		.2byte	0x4
 2725 0195 F3       		.byte	0xf3
ARM GAS  /tmp/ccb5jvYY.s 			page 49


 2726 0196 01       		.uleb128 0x1
 2727 0197 51       		.byte	0x51
 2728 0198 9F       		.byte	0x9f
 2729 0199 00000000 		.4byte	0
 2730 019d 00000000 		.4byte	0
 2731              	.LLST10:
 2732 01a1 12000000 		.4byte	.LVL26
 2733 01a5 28000000 		.4byte	.LVL30
 2734 01a9 0100     		.2byte	0x1
 2735 01ab 50       		.byte	0x50
 2736 01ac 00000000 		.4byte	0
 2737 01b0 00000000 		.4byte	0
 2738              	.LLST11:
 2739 01b4 14000000 		.4byte	.LVL27
 2740 01b8 16000000 		.4byte	.LVL28
 2741 01bc 0600     		.2byte	0x6
 2742 01be 03       		.byte	0x3
 2743 01bf 00000000 		.4byte	rlist
 2744 01c3 9F       		.byte	0x9f
 2745 01c4 16000000 		.4byte	.LVL28
 2746 01c8 28000000 		.4byte	.LVL30
 2747 01cc 0100     		.2byte	0x1
 2748 01ce 53       		.byte	0x53
 2749 01cf 00000000 		.4byte	0
 2750 01d3 00000000 		.4byte	0
 2751              	.LLST12:
 2752 01d7 2A000000 		.4byte	.LVL31
 2753 01db 49000000 		.4byte	.LVL37-1
 2754 01df 0100     		.2byte	0x1
 2755 01e1 51       		.byte	0x51
 2756 01e2 00000000 		.4byte	0
 2757 01e6 00000000 		.4byte	0
 2758              	.LLST13:
 2759 01ea 2C000000 		.4byte	.LVL32
 2760 01ee 2E000000 		.4byte	.LVL33
 2761 01f2 0600     		.2byte	0x6
 2762 01f4 03       		.byte	0x3
 2763 01f5 00000000 		.4byte	rlist
 2764 01f9 9F       		.byte	0x9f
 2765 01fa 2E000000 		.4byte	.LVL33
 2766 01fe 40000000 		.4byte	.LVL35
 2767 0202 0100     		.2byte	0x1
 2768 0204 53       		.byte	0x53
 2769 0205 40000000 		.4byte	.LVL35
 2770 0209 42000000 		.4byte	.LVL36
 2771 020d 0200     		.2byte	0x2
 2772 020f 71       		.byte	0x71
 2773 0210 00       		.sleb128 0
 2774 0211 00000000 		.4byte	0
 2775 0215 00000000 		.4byte	0
 2776              	.LLST14:
 2777 0219 08000000 		.4byte	.LVL38
 2778 021d 37000000 		.4byte	.LVL43-1
 2779 0221 0100     		.2byte	0x1
 2780 0223 51       		.byte	0x51
 2781 0224 00000000 		.4byte	0
 2782 0228 00000000 		.4byte	0
ARM GAS  /tmp/ccb5jvYY.s 			page 50


 2783              	.LLST15:
 2784 022c 08000000 		.4byte	.LVL38
 2785 0230 37000000 		.4byte	.LVL43-1
 2786 0234 0100     		.2byte	0x1
 2787 0236 50       		.byte	0x50
 2788 0237 00000000 		.4byte	0
 2789 023b 00000000 		.4byte	0
 2790              	.LLST16:
 2791 023f 18000000 		.4byte	.LVL39
 2792 0243 37000000 		.4byte	.LVL43-1
 2793 0247 0100     		.2byte	0x1
 2794 0249 51       		.byte	0x51
 2795 024a 00000000 		.4byte	0
 2796 024e 00000000 		.4byte	0
 2797              	.LLST17:
 2798 0252 1C000000 		.4byte	.LVL40
 2799 0256 22000000 		.4byte	.LVL41
 2800 025a 0600     		.2byte	0x6
 2801 025c 03       		.byte	0x3
 2802 025d 00000000 		.4byte	rlist
 2803 0261 9F       		.byte	0x9f
 2804 0262 22000000 		.4byte	.LVL41
 2805 0266 37000000 		.4byte	.LVL43-1
 2806 026a 0100     		.2byte	0x1
 2807 026c 53       		.byte	0x53
 2808 026d 00000000 		.4byte	0
 2809 0271 00000000 		.4byte	0
 2810              	.LLST18:
 2811 0275 08000000 		.4byte	.LVL44
 2812 0279 33000000 		.4byte	.LVL48-1
 2813 027d 0100     		.2byte	0x1
 2814 027f 51       		.byte	0x51
 2815 0280 00000000 		.4byte	0
 2816 0284 00000000 		.4byte	0
 2817              	.LLST19:
 2818 0288 18000000 		.4byte	.LVL45
 2819 028c 1E000000 		.4byte	.LVL46
 2820 0290 0600     		.2byte	0x6
 2821 0292 03       		.byte	0x3
 2822 0293 00000000 		.4byte	rlist
 2823 0297 9F       		.byte	0x9f
 2824 0298 1E000000 		.4byte	.LVL46
 2825 029c 33000000 		.4byte	.LVL48-1
 2826 02a0 0100     		.2byte	0x1
 2827 02a2 53       		.byte	0x53
 2828 02a3 00000000 		.4byte	0
 2829 02a7 00000000 		.4byte	0
 2830              	.LLST20:
 2831 02ab 08000000 		.4byte	.LVL44
 2832 02af 33000000 		.4byte	.LVL48-1
 2833 02b3 0100     		.2byte	0x1
 2834 02b5 50       		.byte	0x50
 2835 02b6 00000000 		.4byte	0
 2836 02ba 00000000 		.4byte	0
 2837              		.section	.debug_aranges,"",%progbits
 2838 0000 64000000 		.4byte	0x64
 2839 0004 0200     		.2byte	0x2
ARM GAS  /tmp/ccb5jvYY.s 			page 51


 2840 0006 00000000 		.4byte	.Ldebug_info0
 2841 000a 04       		.byte	0x4
 2842 000b 00       		.byte	0
 2843 000c 0000     		.2byte	0
 2844 000e 0000     		.2byte	0
 2845 0010 00000000 		.4byte	.LFB10
 2846 0014 58000000 		.4byte	.LFE10-.LFB10
 2847 0018 00000000 		.4byte	.LFB7
 2848 001c 14000000 		.4byte	.LFE7-.LFB7
 2849 0020 00000000 		.4byte	.LFB8
 2850 0024 24000000 		.4byte	.LFE8-.LFB8
 2851 0028 00000000 		.4byte	.LFB9
 2852 002c 24000000 		.4byte	.LFE9-.LFB9
 2853 0030 00000000 		.4byte	.LFB11
 2854 0034 40000000 		.4byte	.LFE11-.LFB11
 2855 0038 00000000 		.4byte	.LFB12
 2856 003c 50000000 		.4byte	.LFE12-.LFB12
 2857 0040 00000000 		.4byte	.LFB14
 2858 0044 40000000 		.4byte	.LFE14-.LFB14
 2859 0048 00000000 		.4byte	.LFB15
 2860 004c 3C000000 		.4byte	.LFE15-.LFB15
 2861 0050 00000000 		.4byte	.LFB13
 2862 0054 1C000000 		.4byte	.LFE13-.LFB13
 2863 0058 00000000 		.4byte	.LFB16
 2864 005c 1C000000 		.4byte	.LFE16-.LFB16
 2865 0060 00000000 		.4byte	0
 2866 0064 00000000 		.4byte	0
 2867              		.section	.debug_ranges,"",%progbits
 2868              	.Ldebug_ranges0:
 2869 0000 0A000000 		.4byte	.LBB23
 2870 0004 0C000000 		.4byte	.LBE23
 2871 0008 0E000000 		.4byte	.LBB26
 2872 000c 14000000 		.4byte	.LBE26
 2873 0010 00000000 		.4byte	0
 2874 0014 00000000 		.4byte	0
 2875 0018 0C000000 		.4byte	.LBB28
 2876 001c 0E000000 		.4byte	.LBE28
 2877 0020 12000000 		.4byte	.LBB31
 2878 0024 28000000 		.4byte	.LBE31
 2879 0028 00000000 		.4byte	0
 2880 002c 00000000 		.4byte	0
 2881 0030 2A000000 		.4byte	.LBB33
 2882 0034 3E000000 		.4byte	.LBE33
 2883 0038 40000000 		.4byte	.LBB36
 2884 003c 42000000 		.4byte	.LBE36
 2885 0040 00000000 		.4byte	0
 2886 0044 00000000 		.4byte	0
 2887 0048 04000000 		.4byte	.LBB37
 2888 004c 06000000 		.4byte	.LBE37
 2889 0050 08000000 		.4byte	.LBB40
 2890 0054 0E000000 		.4byte	.LBE40
 2891 0058 00000000 		.4byte	0
 2892 005c 00000000 		.4byte	0
 2893 0060 04000000 		.4byte	.LBB43
 2894 0064 06000000 		.4byte	.LBE43
 2895 0068 08000000 		.4byte	.LBB46
 2896 006c 0E000000 		.4byte	.LBE46
ARM GAS  /tmp/ccb5jvYY.s 			page 52


 2897 0070 00000000 		.4byte	0
 2898 0074 00000000 		.4byte	0
 2899 0078 00000000 		.4byte	.LFB10
 2900 007c 58000000 		.4byte	.LFE10
 2901 0080 00000000 		.4byte	.LFB7
 2902 0084 14000000 		.4byte	.LFE7
 2903 0088 00000000 		.4byte	.LFB8
 2904 008c 24000000 		.4byte	.LFE8
 2905 0090 00000000 		.4byte	.LFB9
 2906 0094 24000000 		.4byte	.LFE9
 2907 0098 00000000 		.4byte	.LFB11
 2908 009c 40000000 		.4byte	.LFE11
 2909 00a0 00000000 		.4byte	.LFB12
 2910 00a4 50000000 		.4byte	.LFE12
 2911 00a8 00000000 		.4byte	.LFB14
 2912 00ac 40000000 		.4byte	.LFE14
 2913 00b0 00000000 		.4byte	.LFB15
 2914 00b4 3C000000 		.4byte	.LFE15
 2915 00b8 00000000 		.4byte	.LFB13
 2916 00bc 1C000000 		.4byte	.LFE13
 2917 00c0 00000000 		.4byte	.LFB16
 2918 00c4 1C000000 		.4byte	.LFE16
 2919 00c8 00000000 		.4byte	0
 2920 00cc 00000000 		.4byte	0
 2921              		.section	.debug_line,"",%progbits
 2922              	.Ldebug_line0:
 2923 0000 D0020000 		.section	.debug_str,"MS",%progbits,1
 2923      02003601 
 2923      00000201 
 2923      FB0E0D00 
 2923      01010101 
 2924              	.LASF40:
 2925 0000 705F6D73 		.ascii	"p_msg\000"
 2925      6700
 2926              	.LASF72:
 2927 0006 7264796D 		.ascii	"rdymsg\000"
 2927      736700
 2928              	.LASF84:
 2929 000d 63685363 		.ascii	"chSchDoRescheduleAhead\000"
 2929      68446F52 
 2929      65736368 
 2929      6564756C 
 2929      65416865 
 2930              	.LASF5:
 2931 0024 5F5F7569 		.ascii	"__uint8_t\000"
 2931      6E74385F 
 2931      7400
 2932              	.LASF11:
 2933 002e 6C6F6E67 		.ascii	"long long unsigned int\000"
 2933      206C6F6E 
 2933      6720756E 
 2933      7369676E 
 2933      65642069 
 2934              	.LASF73:
 2935 0045 65786974 		.ascii	"exitcode\000"
 2935      636F6465 
 2935      00
ARM GAS  /tmp/ccb5jvYY.s 			page 53


 2936              	.LASF28:
 2937 004e 705F7072 		.ascii	"p_prio\000"
 2937      696F00
 2938              	.LASF94:
 2939 0055 5F736368 		.ascii	"_scheduler_init\000"
 2939      6564756C 
 2939      65725F69 
 2939      6E697400 
 2940              	.LASF10:
 2941 0065 6C6F6E67 		.ascii	"long long int\000"
 2941      206C6F6E 
 2941      6720696E 
 2941      7400
 2942              	.LASF1:
 2943 0073 7369676E 		.ascii	"signed char\000"
 2943      65642063 
 2943      68617200 
 2944              	.LASF44:
 2945 007f 705F6D70 		.ascii	"p_mpool\000"
 2945      6F6F6C00 
 2946              	.LASF69:
 2947 0087 6D5F7175 		.ascii	"m_queue\000"
 2947      65756500 
 2948              	.LASF19:
 2949 008f 74736C69 		.ascii	"tslices_t\000"
 2949      6365735F 
 2949      7400
 2950              	.LASF7:
 2951 0099 6C6F6E67 		.ascii	"long int\000"
 2951      20696E74 
 2951      00
 2952              	.LASF17:
 2953 00a2 74737461 		.ascii	"tstate_t\000"
 2953      74655F74 
 2953      00
 2954              	.LASF30:
 2955 00ab 705F6E65 		.ascii	"p_newer\000"
 2955      77657200 
 2956              	.LASF66:
 2957 00b3 735F7175 		.ascii	"s_queue\000"
 2957      65756500 
 2958              	.LASF85:
 2959 00bb 63685363 		.ascii	"chSchRescheduleS\000"
 2959      68526573 
 2959      63686564 
 2959      756C6553 
 2959      00
 2960              	.LASF89:
 2961 00cc 474E5520 		.ascii	"GNU C 4.8.2 -mcpu=cortex-m0 -mno-thumb-interwork -m"
 2961      4320342E 
 2961      382E3220 
 2961      2D6D6370 
 2961      753D636F 
 2962 00ff 7468756D 		.ascii	"thumb -ggdb -O2 -fomit-frame-pointer -falign-functi"
 2962      62202D67 
 2962      67646220 
 2962      2D4F3220 
ARM GAS  /tmp/ccb5jvYY.s 			page 54


 2962      2D666F6D 
 2963 0132 6F6E733D 		.ascii	"ons=16 -ffunction-sections -fdata-sections -fno-com"
 2963      3136202D 
 2963      6666756E 
 2963      6374696F 
 2963      6E2D7365 
 2964 0165 6D6F6E00 		.ascii	"mon\000"
 2965              	.LASF8:
 2966 0169 5F5F7569 		.ascii	"__uint32_t\000"
 2966      6E743332 
 2966      5F7400
 2967              	.LASF47:
 2968 0174 72656761 		.ascii	"regarm_t\000"
 2968      726D5F74 
 2968      00
 2969              	.LASF54:
 2970 017d 76745F70 		.ascii	"vt_prev\000"
 2970      72657600 
 2971              	.LASF86:
 2972 0185 63685363 		.ascii	"chSchDoReschedule\000"
 2972      68446F52 
 2972      65736368 
 2972      6564756C 
 2972      6500
 2973              	.LASF24:
 2974 0197 636E745F 		.ascii	"cnt_t\000"
 2974      7400
 2975              	.LASF0:
 2976 019d 756E7369 		.ascii	"unsigned int\000"
 2976      676E6564 
 2976      20696E74 
 2976      00
 2977              	.LASF93:
 2978 01aa 77616B65 		.ascii	"wakeup\000"
 2978      757000
 2979              	.LASF53:
 2980 01b1 76745F6E 		.ascii	"vt_next\000"
 2980      65787400 
 2981              	.LASF87:
 2982 01b9 5F706F72 		.ascii	"_port_switch\000"
 2982      745F7377 
 2982      69746368 
 2982      00
 2983              	.LASF9:
 2984 01c6 6C6F6E67 		.ascii	"long unsigned int\000"
 2984      20756E73 
 2984      69676E65 
 2984      6420696E 
 2984      7400
 2985              	.LASF51:
 2986 01d8 76746675 		.ascii	"vtfunc_t\000"
 2986      6E635F74 
 2986      00
 2987              	.LASF67:
 2988 01e1 735F636E 		.ascii	"s_cnt\000"
 2988      7400
 2989              	.LASF49:
ARM GAS  /tmp/ccb5jvYY.s 			page 55


 2990 01e7 636F6E74 		.ascii	"context\000"
 2990      65787400 
 2991              	.LASF4:
 2992 01ef 73686F72 		.ascii	"short unsigned int\000"
 2992      7420756E 
 2992      7369676E 
 2992      65642069 
 2992      6E7400
 2993              	.LASF82:
 2994 0202 63685363 		.ascii	"chSchWakeupS\000"
 2994      6857616B 
 2994      65757053 
 2994      00
 2995              	.LASF21:
 2996 020f 6D73675F 		.ascii	"msg_t\000"
 2996      7400
 2997              	.LASF61:
 2998 0215 725F6E65 		.ascii	"r_newer\000"
 2998      77657200 
 2999              	.LASF16:
 3000 021d 746D6F64 		.ascii	"tmode_t\000"
 3000      655F7400 
 3001              	.LASF46:
 3002 0225 54687265 		.ascii	"ThreadsList\000"
 3002      6164734C 
 3002      69737400 
 3003              	.LASF22:
 3004 0231 6576656E 		.ascii	"eventmask_t\000"
 3004      746D6173 
 3004      6B5F7400 
 3005              	.LASF68:
 3006 023d 4D757465 		.ascii	"Mutex\000"
 3006      7800
 3007              	.LASF55:
 3008 0243 76745F74 		.ascii	"vt_time\000"
 3008      696D6500 
 3009              	.LASF50:
 3010 024b 73697A65 		.ascii	"sizetype\000"
 3010      74797065 
 3010      00
 3011              	.LASF56:
 3012 0254 76745F66 		.ascii	"vt_func\000"
 3012      756E6300 
 3013              	.LASF83:
 3014 025c 63685363 		.ascii	"chSchDoRescheduleBehind\000"
 3014      68446F52 
 3014      65736368 
 3014      6564756C 
 3014      65426568 
 3015              	.LASF88:
 3016 0274 63685654 		.ascii	"chVTSetI\000"
 3016      53657449 
 3016      00
 3017              	.LASF31:
 3018 027d 705F6F6C 		.ascii	"p_older\000"
 3018      64657200 
 3019              	.LASF60:
ARM GAS  /tmp/ccb5jvYY.s 			page 56


 3020 0285 725F6374 		.ascii	"r_ctx\000"
 3020      7800
 3021              	.LASF45:
 3022 028b 54687265 		.ascii	"ThreadsQueue\000"
 3022      61647351 
 3022      75657565 
 3022      00
 3023              	.LASF91:
 3024 0298 2F686F6D 		.ascii	"/home/ece497/vbox-shared/mplayer/ChibiOS-RT-stable_"
 3024      652F6563 
 3024      65343937 
 3024      2F76626F 
 3024      782D7368 
 3025 02cb 322E362E 		.ascii	"2.6.x/demos/ARMCM0-STM32F051-DISCOVERY\000"
 3025      782F6465 
 3025      6D6F732F 
 3025      41524D43 
 3025      4D302D53 
 3026              	.LASF77:
 3027 02f2 64657175 		.ascii	"dequeue\000"
 3027      65756500 
 3028              	.LASF63:
 3029 02fa 725F6375 		.ascii	"r_current\000"
 3029      7272656E 
 3029      7400
 3030              	.LASF62:
 3031 0304 725F6F6C 		.ascii	"r_older\000"
 3031      64657200 
 3032              	.LASF18:
 3033 030c 74726566 		.ascii	"trefs_t\000"
 3033      735F7400 
 3034              	.LASF27:
 3035 0314 705F7072 		.ascii	"p_prev\000"
 3035      657600
 3036              	.LASF20:
 3037 031b 74707269 		.ascii	"tprio_t\000"
 3037      6F5F7400 
 3038              	.LASF15:
 3039 0323 5F426F6F 		.ascii	"_Bool\000"
 3039      6C00
 3040              	.LASF13:
 3041 0329 696E7433 		.ascii	"int32_t\000"
 3041      325F7400 
 3042              	.LASF2:
 3043 0331 756E7369 		.ascii	"unsigned char\000"
 3043      676E6564 
 3043      20636861 
 3043      7200
 3044              	.LASF79:
 3045 033f 6E657773 		.ascii	"newstate\000"
 3045      74617465 
 3045      00
 3046              	.LASF42:
 3047 0348 705F6D74 		.ascii	"p_mtxlist\000"
 3047      786C6973 
 3047      7400
 3048              	.LASF3:
ARM GAS  /tmp/ccb5jvYY.s 			page 57


 3049 0352 73686F72 		.ascii	"short int\000"
 3049      7420696E 
 3049      7400
 3050              	.LASF33:
 3051 035c 705F7374 		.ascii	"p_state\000"
 3051      61746500 
 3052              	.LASF36:
 3053 0364 705F7072 		.ascii	"p_preempt\000"
 3053      65656D70 
 3053      7400
 3054              	.LASF59:
 3055 036e 725F7072 		.ascii	"r_prio\000"
 3055      696F00
 3056              	.LASF75:
 3057 0375 65776D61 		.ascii	"ewmask\000"
 3057      736B00
 3058              	.LASF26:
 3059 037c 705F6E65 		.ascii	"p_next\000"
 3059      787400
 3060              	.LASF34:
 3061 0383 705F666C 		.ascii	"p_flags\000"
 3061      61677300 
 3062              	.LASF25:
 3063 038b 54687265 		.ascii	"Thread\000"
 3063      616400
 3064              	.LASF97:
 3065 0392 63685654 		.ascii	"chVTResetI\000"
 3065      52657365 
 3065      744900
 3066              	.LASF81:
 3067 039d 63685363 		.ascii	"chSchGoSleepS\000"
 3067      68476F53 
 3067      6C656570 
 3067      5300
 3068              	.LASF41:
 3069 03ab 705F6570 		.ascii	"p_epending\000"
 3069      656E6469 
 3069      6E6700
 3070              	.LASF14:
 3071 03b6 75696E74 		.ascii	"uint32_t\000"
 3071      33325F74 
 3071      00
 3072              	.LASF58:
 3073 03bf 725F7175 		.ascii	"r_queue\000"
 3073      65756500 
 3074              	.LASF52:
 3075 03c7 56697274 		.ascii	"VirtualTimer\000"
 3075      75616C54 
 3075      696D6572 
 3075      00
 3076              	.LASF76:
 3077 03d4 63686172 		.ascii	"char\000"
 3077      00
 3078              	.LASF78:
 3079 03d9 6669666F 		.ascii	"fifo_remove\000"
 3079      5F72656D 
 3079      6F766500 
ARM GAS  /tmp/ccb5jvYY.s 			page 58


 3080              	.LASF92:
 3081 03e5 63685363 		.ascii	"chSchReadyI\000"
 3081      68526561 
 3081      64794900 
 3082              	.LASF71:
 3083 03f1 6D5F6E65 		.ascii	"m_next\000"
 3083      787400
 3084              	.LASF23:
 3085 03f8 73797374 		.ascii	"systime_t\000"
 3085      696D655F 
 3085      7400
 3086              	.LASF43:
 3087 0402 705F7265 		.ascii	"p_realprio\000"
 3087      616C7072 
 3087      696F00
 3088              	.LASF6:
 3089 040d 5F5F696E 		.ascii	"__int32_t\000"
 3089      7433325F 
 3089      7400
 3090              	.LASF37:
 3091 0417 705F7469 		.ascii	"p_time\000"
 3091      6D6500
 3092              	.LASF48:
 3093 041e 696E7463 		.ascii	"intctx\000"
 3093      747800
 3094              	.LASF39:
 3095 0425 705F6D73 		.ascii	"p_msgqueue\000"
 3095      67717565 
 3095      756500
 3096              	.LASF80:
 3097 0430 74696D65 		.ascii	"time\000"
 3097      00
 3098              	.LASF57:
 3099 0435 76745F70 		.ascii	"vt_par\000"
 3099      617200
 3100              	.LASF65:
 3101 043c 53656D61 		.ascii	"Semaphore\000"
 3101      70686F72 
 3101      6500
 3102              	.LASF35:
 3103 0446 705F7265 		.ascii	"p_refs\000"
 3103      667300
 3104              	.LASF64:
 3105 044d 52656164 		.ascii	"ReadyList\000"
 3105      794C6973 
 3105      7400
 3106              	.LASF90:
 3107 0457 2E2E2F2E 		.ascii	"../../os/kernel/src/chschd.c\000"
 3107      2E2F6F73 
 3107      2F6B6572 
 3107      6E656C2F 
 3107      7372632F 
 3108              	.LASF96:
 3109 0474 726C6973 		.ascii	"rlist\000"
 3109      7400
 3110              	.LASF12:
 3111 047a 75696E74 		.ascii	"uint8_t\000"
ARM GAS  /tmp/ccb5jvYY.s 			page 59


 3111      385F7400 
 3112              	.LASF74:
 3113 0482 77746F62 		.ascii	"wtobjp\000"
 3113      6A7000
 3114              	.LASF32:
 3115 0489 705F6E61 		.ascii	"p_name\000"
 3115      6D6500
 3116              	.LASF95:
 3117 0490 63685363 		.ascii	"chSchGoSleepTimeoutS\000"
 3117      68476F53 
 3117      6C656570 
 3117      54696D65 
 3117      6F757453 
 3118              	.LASF70:
 3119 04a5 6D5F6F77 		.ascii	"m_owner\000"
 3119      6E657200 
 3120              	.LASF29:
 3121 04ad 705F6374 		.ascii	"p_ctx\000"
 3121      7800
 3122              	.LASF38:
 3123 04b3 705F7761 		.ascii	"p_waiting\000"
 3123      6974696E 
 3123      6700
 3124              		.ident	"GCC: (Arch Repository) 4.8.2"
ARM GAS  /tmp/ccb5jvYY.s 			page 60


DEFINED SYMBOLS
                            *ABS*:0000000000000000 chschd.c
     /tmp/ccb5jvYY.s:18     .text.wakeup:0000000000000000 $t
     /tmp/ccb5jvYY.s:23     .text.wakeup:0000000000000000 wakeup
     /tmp/ccb5jvYY.s:118    .text.wakeup:0000000000000054 $d
     /tmp/ccb5jvYY.s:125    .text._scheduler_init:0000000000000000 $t
     /tmp/ccb5jvYY.s:131    .text._scheduler_init:0000000000000000 _scheduler_init
     /tmp/ccb5jvYY.s:153    .text._scheduler_init:0000000000000010 $d
     /tmp/ccb5jvYY.s:158    .text.chSchReadyI:0000000000000000 $t
     /tmp/ccb5jvYY.s:164    .text.chSchReadyI:0000000000000000 chSchReadyI
     /tmp/ccb5jvYY.s:205    .text.chSchReadyI:0000000000000020 $d
     /tmp/ccb5jvYY.s:210    .text.chSchGoSleepS:0000000000000000 $t
     /tmp/ccb5jvYY.s:216    .text.chSchGoSleepS:0000000000000000 chSchGoSleepS
     /tmp/ccb5jvYY.s:268    .text.chSchGoSleepS:0000000000000020 $d
     /tmp/ccb5jvYY.s:273    .text.chSchGoSleepTimeoutS:0000000000000000 $t
     /tmp/ccb5jvYY.s:279    .text.chSchGoSleepTimeoutS:0000000000000000 chSchGoSleepTimeoutS
     /tmp/ccb5jvYY.s:335    .text.chSchGoSleepTimeoutS:0000000000000038 $d
     /tmp/ccb5jvYY.s:341    .text.chSchWakeupS:0000000000000000 $t
     /tmp/ccb5jvYY.s:347    .text.chSchWakeupS:0000000000000000 chSchWakeupS
     /tmp/ccb5jvYY.s:459    .text.chSchWakeupS:000000000000004c $d
     /tmp/ccb5jvYY.s:465    .text.chSchDoRescheduleBehind:0000000000000000 $t
     /tmp/ccb5jvYY.s:471    .text.chSchDoRescheduleBehind:0000000000000000 chSchDoRescheduleBehind
     /tmp/ccb5jvYY.s:546    .text.chSchDoRescheduleBehind:000000000000003c $d
     /tmp/ccb5jvYY.s:551    .text.chSchDoRescheduleAhead:0000000000000000 $t
     /tmp/ccb5jvYY.s:557    .text.chSchDoRescheduleAhead:0000000000000000 chSchDoRescheduleAhead
     /tmp/ccb5jvYY.s:624    .text.chSchDoRescheduleAhead:0000000000000038 $d
     /tmp/ccb5jvYY.s:629    .text.chSchRescheduleS:0000000000000000 $t
     /tmp/ccb5jvYY.s:635    .text.chSchRescheduleS:0000000000000000 chSchRescheduleS
     /tmp/ccb5jvYY.s:661    .text.chSchRescheduleS:0000000000000018 $d
     /tmp/ccb5jvYY.s:666    .text.chSchDoReschedule:0000000000000000 $t
     /tmp/ccb5jvYY.s:672    .text.chSchDoReschedule:0000000000000000 chSchDoReschedule
     /tmp/ccb5jvYY.s:701    .text.chSchDoReschedule:0000000000000018 $d
     /tmp/ccb5jvYY.s:711    .bss.rlist:0000000000000000 rlist
     /tmp/ccb5jvYY.s:707    .bss.rlist:0000000000000000 $d
                     .debug_frame:0000000000000010 $d
     /tmp/ccb5jvYY.s:124    .text.wakeup:0000000000000058 $t
     /tmp/ccb5jvYY.s:157    .text._scheduler_init:0000000000000014 $t
     /tmp/ccb5jvYY.s:209    .text.chSchReadyI:0000000000000024 $t
     /tmp/ccb5jvYY.s:272    .text.chSchGoSleepS:0000000000000024 $t
     /tmp/ccb5jvYY.s:628    .text.chSchDoRescheduleAhead:000000000000003c $t
     /tmp/ccb5jvYY.s:665    .text.chSchRescheduleS:000000000000001c $t
     /tmp/ccb5jvYY.s:706    .text.chSchDoReschedule:000000000000001c $t

UNDEFINED SYMBOLS
_port_switch
chVTSetI
chVTResetI
