ARM GAS  /tmp/ccE0lYBb.s 			page 1


   1              		.cpu cortex-m0
   2              		.fpu softvfp
   3              		.eabi_attribute 20, 1
   4              		.eabi_attribute 21, 1
   5              		.eabi_attribute 23, 3
   6              		.eabi_attribute 24, 1
   7              		.eabi_attribute 25, 1
   8              		.eabi_attribute 26, 1
   9              		.eabi_attribute 30, 2
  10              		.eabi_attribute 34, 0
  11              		.eabi_attribute 18, 4
  12              		.code	16
  13              		.file	"chsem.c"
  14              		.text
  15              	.Ltext0:
  16              		.cfi_sections	.debug_frame
  17              		.section	.text.chSemInit,"ax",%progbits
  18              		.align	2
  19              		.p2align 4,,15
  20              		.global	chSemInit
  21              		.code	16
  22              		.thumb_func
  23              		.type	chSemInit, %function
  24              	chSemInit:
  25              	.LFB7:
  26              		.file 1 "../../os/kernel/src/chsem.c"
  27              		.loc 1 86 0
  28              		.cfi_startproc
  29              	.LVL0:
  30              		.loc 1 90 0
  31 0000 4060     		str	r0, [r0, #4]
  32 0002 0060     		str	r0, [r0]
  33              		.loc 1 91 0
  34 0004 8160     		str	r1, [r0, #8]
  35              		.loc 1 92 0
  36              		@ sp needed
  37 0006 7047     		bx	lr
  38              		.cfi_endproc
  39              	.LFE7:
  40              		.size	chSemInit, .-chSemInit
  41 0008 C046C046 		.section	.text.chSemResetI,"ax",%progbits
  41      C046C046 
  42              		.align	2
  43              		.p2align 4,,15
  44              		.global	chSemResetI
  45              		.code	16
  46              		.thumb_func
  47              		.type	chSemResetI, %function
  48              	chSemResetI:
  49              	.LFB9:
  50              		.loc 1 136 0
  51              		.cfi_startproc
  52              	.LVL1:
  53 0000 70B5     		push	{r4, r5, r6, lr}
  54              		.cfi_def_cfa_offset 16
  55              		.cfi_offset 4, -16
  56              		.cfi_offset 5, -12
ARM GAS  /tmp/ccE0lYBb.s 			page 2


  57              		.cfi_offset 6, -8
  58              		.cfi_offset 14, -4
  59              		.loc 1 141 0
  60 0002 8568     		ldr	r5, [r0, #8]
  61              	.LVL2:
  62              		.loc 1 136 0
  63 0004 041C     		mov	r4, r0
  64              		.loc 1 148 0
  65 0006 0135     		add	r5, r5, #1
  66              	.LVL3:
  67              		.loc 1 147 0
  68 0008 8160     		str	r1, [r0, #8]
  69              	.LVL4:
  70              		.loc 1 148 0
  71 000a 002D     		cmp	r5, #0
  72 000c 0BDC     		bgt	.L2
  73              		.loc 1 149 0
  74 000e 0226     		mov	r6, #2
  75 0010 7642     		neg	r6, r6
  76              	.LVL5:
  77              	.L9:
  78              	.LBB20:
  79              	.LBB21:
  80              		.file 2 "../../os/kernel/include/chinline.h"
  81              		.loc 2 67 0
  82 0012 6068     		ldr	r0, [r4, #4]
  83              	.LVL6:
  84              	.LBE21:
  85              	.LBE20:
  86              		.loc 1 148 0
  87 0014 0135     		add	r5, r5, #1
  88              	.LVL7:
  89              	.LBB23:
  90              	.LBB22:
  91              		.loc 2 69 0
  92 0016 4368     		ldr	r3, [r0, #4]
  93 0018 6360     		str	r3, [r4, #4]
  94 001a 1C60     		str	r4, [r3]
  95              	.LBE22:
  96              	.LBE23:
  97              		.loc 1 149 0
  98 001c FFF7FEFF 		bl	chSchReadyI
  99              	.LVL8:
 100 0020 4662     		str	r6, [r0, #36]
 101              	.LVL9:
 102              		.loc 1 148 0
 103 0022 012D     		cmp	r5, #1
 104 0024 F5D1     		bne	.L9
 105              	.LVL10:
 106              	.L2:
 107              		.loc 1 150 0
 108              		@ sp needed
 109              	.LVL11:
 110              	.LVL12:
 111 0026 70BD     		pop	{r4, r5, r6, pc}
 112              		.cfi_endproc
 113              	.LFE9:
ARM GAS  /tmp/ccE0lYBb.s 			page 3


 114              		.size	chSemResetI, .-chSemResetI
 115 0028 C046C046 		.section	.text.chSemReset,"ax",%progbits
 115      C046C046 
 116              		.align	2
 117              		.p2align 4,,15
 118              		.global	chSemReset
 119              		.code	16
 120              		.thumb_func
 121              		.type	chSemReset, %function
 122              	chSemReset:
 123              	.LFB8:
 124              		.loc 1 109 0
 125              		.cfi_startproc
 126              	.LVL13:
 127 0000 08B5     		push	{r3, lr}
 128              		.cfi_def_cfa_offset 8
 129              		.cfi_offset 3, -8
 130              		.cfi_offset 14, -4
 131              		.loc 1 111 0
 132              	@ 111 "../../os/kernel/src/chsem.c" 1
 133 0002 72B6     		cpsid   i
 134              	@ 0 "" 2
 135              		.loc 1 112 0
 136              		.code	16
 137 0004 FFF7FEFF 		bl	chSemResetI
 138              	.LVL14:
 139              		.loc 1 113 0
 140 0008 FFF7FEFF 		bl	chSchRescheduleS
 141              	.LVL15:
 142              		.loc 1 114 0
 143              	@ 114 "../../os/kernel/src/chsem.c" 1
 144 000c 62B6     		cpsie   i
 145              	@ 0 "" 2
 146              		.loc 1 115 0
 147              		.code	16
 148              		@ sp needed
 149 000e 08BD     		pop	{r3, pc}
 150              		.cfi_endproc
 151              	.LFE8:
 152              		.size	chSemReset, .-chSemReset
 153              		.section	.text.chSemWaitS,"ax",%progbits
 154              		.align	2
 155              		.p2align 4,,15
 156              		.global	chSemWaitS
 157              		.code	16
 158              		.thumb_func
 159              		.type	chSemWaitS, %function
 160              	chSemWaitS:
 161              	.LFB11:
 162              		.loc 1 185 0
 163              		.cfi_startproc
 164              	.LVL16:
 165              		.loc 1 194 0
 166 0000 8268     		ldr	r2, [r0, #8]
 167              		.loc 1 185 0
 168 0002 10B5     		push	{r4, lr}
 169              		.cfi_def_cfa_offset 8
ARM GAS  /tmp/ccE0lYBb.s 			page 4


 170              		.cfi_offset 4, -8
 171              		.cfi_offset 14, -4
 172              		.loc 1 194 0
 173 0004 013A     		sub	r2, r2, #1
 174              		.loc 1 185 0
 175 0006 031C     		mov	r3, r0
 176              		.loc 1 194 0
 177 0008 8260     		str	r2, [r0, #8]
 178              		.loc 1 200 0
 179 000a 0020     		mov	r0, #0
 180              	.LVL17:
 181              		.loc 1 194 0
 182 000c 002A     		cmp	r2, #0
 183 000e 00DB     		blt	.L15
 184              	.LVL18:
 185              	.L13:
 186              		.loc 1 201 0
 187              		@ sp needed
 188 0010 10BD     		pop	{r4, pc}
 189              	.LVL19:
 190              	.L15:
 191              		.loc 1 195 0
 192 0012 074C     		ldr	r4, .L16
 193              		.loc 1 197 0
 194 0014 0320     		mov	r0, #3
 195              		.loc 1 195 0
 196 0016 A269     		ldr	r2, [r4, #24]
 197 0018 5362     		str	r3, [r2, #36]
 198              	.LVL20:
 199              	.LBB24:
 200              	.LBB25:
 201              		.loc 2 55 0
 202 001a 5968     		ldr	r1, [r3, #4]
 203              		.loc 2 54 0
 204 001c 1360     		str	r3, [r2]
 205              		.loc 2 55 0
 206 001e 5160     		str	r1, [r2, #4]
 207              		.loc 2 56 0
 208 0020 5A60     		str	r2, [r3, #4]
 209              	.LVL21:
 210 0022 0A60     		str	r2, [r1]
 211              	.LVL22:
 212              	.LBE25:
 213              	.LBE24:
 214              		.loc 1 197 0
 215 0024 FFF7FEFF 		bl	chSchGoSleepS
 216              	.LVL23:
 217              		.loc 1 198 0
 218 0028 A369     		ldr	r3, [r4, #24]
 219 002a 586A     		ldr	r0, [r3, #36]
 220 002c F0E7     		b	.L13
 221              	.L17:
 222 002e C046     		.align	2
 223              	.L16:
 224 0030 00000000 		.word	rlist
 225              		.cfi_endproc
 226              	.LFE11:
ARM GAS  /tmp/ccE0lYBb.s 			page 5


 227              		.size	chSemWaitS, .-chSemWaitS
 228 0034 C046C046 		.section	.text.chSemWait,"ax",%progbits
 228      C046C046 
 228      C046C046 
 229              		.align	2
 230              		.p2align 4,,15
 231              		.global	chSemWait
 232              		.code	16
 233              		.thumb_func
 234              		.type	chSemWait, %function
 235              	chSemWait:
 236              	.LFB10:
 237              		.loc 1 164 0
 238              		.cfi_startproc
 239              	.LVL24:
 240 0000 08B5     		push	{r3, lr}
 241              		.cfi_def_cfa_offset 8
 242              		.cfi_offset 3, -8
 243              		.cfi_offset 14, -4
 244              		.loc 1 167 0
 245              	@ 167 "../../os/kernel/src/chsem.c" 1
 246 0002 72B6     		cpsid   i
 247              	@ 0 "" 2
 248              		.loc 1 168 0
 249              		.code	16
 250 0004 FFF7FEFF 		bl	chSemWaitS
 251              	.LVL25:
 252              		.loc 1 169 0
 253              	@ 169 "../../os/kernel/src/chsem.c" 1
 254 0008 62B6     		cpsie   i
 255              	@ 0 "" 2
 256              		.loc 1 171 0
 257              		.code	16
 258              		@ sp needed
 259 000a 08BD     		pop	{r3, pc}
 260              		.cfi_endproc
 261              	.LFE10:
 262              		.size	chSemWait, .-chSemWait
 263 000c C046C046 		.section	.text.chSemWaitTimeoutS,"ax",%progbits
 264              		.align	2
 265              		.p2align 4,,15
 266              		.global	chSemWaitTimeoutS
 267              		.code	16
 268              		.thumb_func
 269              		.type	chSemWaitTimeoutS, %function
 270              	chSemWaitTimeoutS:
 271              	.LFB13:
 272              		.loc 1 250 0
 273              		.cfi_startproc
 274              	.LVL26:
 275 0000 10B5     		push	{r4, lr}
 276              		.cfi_def_cfa_offset 8
 277              		.cfi_offset 4, -8
 278              		.cfi_offset 14, -4
 279              		.loc 1 254 0
 280 0002 8468     		ldr	r4, [r0, #8]
 281              		.loc 1 250 0
ARM GAS  /tmp/ccE0lYBb.s 			page 6


 282 0004 031C     		mov	r3, r0
 283              		.loc 1 259 0
 284 0006 621E     		sub	r2, r4, #1
 285 0008 8260     		str	r2, [r0, #8]
 286              		.loc 1 268 0
 287 000a 0020     		mov	r0, #0
 288              	.LVL27:
 289              		.loc 1 259 0
 290 000c 002A     		cmp	r2, #0
 291 000e 00DB     		blt	.L23
 292              	.LVL28:
 293              	.L20:
 294              		.loc 1 269 0
 295              		@ sp needed
 296 0010 10BD     		pop	{r4, pc}
 297              	.LVL29:
 298              	.L23:
 299              		.loc 1 260 0
 300 0012 0029     		cmp	r1, #0
 301 0014 0BD0     		beq	.L24
 302              		.loc 1 264 0
 303 0016 084A     		ldr	r2, .L25
 304 0018 9269     		ldr	r2, [r2, #24]
 305 001a 5362     		str	r3, [r2, #36]
 306              	.LVL30:
 307              	.LBB26:
 308              	.LBB27:
 309              		.loc 2 55 0
 310 001c 5868     		ldr	r0, [r3, #4]
 311              		.loc 2 54 0
 312 001e 1360     		str	r3, [r2]
 313              		.loc 2 55 0
 314 0020 5060     		str	r0, [r2, #4]
 315              		.loc 2 56 0
 316 0022 5A60     		str	r2, [r3, #4]
 317              	.LVL31:
 318 0024 0260     		str	r2, [r0]
 319              	.LVL32:
 320              	.LBE27:
 321              	.LBE26:
 322              		.loc 1 266 0
 323 0026 0320     		mov	r0, #3
 324 0028 FFF7FEFF 		bl	chSchGoSleepTimeoutS
 325              	.LVL33:
 326 002c F0E7     		b	.L20
 327              	.LVL34:
 328              	.L24:
 329              		.loc 1 262 0
 330 002e 0120     		mov	r0, #1
 331              		.loc 1 261 0
 332 0030 9C60     		str	r4, [r3, #8]
 333              		.loc 1 262 0
 334 0032 4042     		neg	r0, r0
 335 0034 ECE7     		b	.L20
 336              	.L26:
 337 0036 C046     		.align	2
 338              	.L25:
ARM GAS  /tmp/ccE0lYBb.s 			page 7


 339 0038 00000000 		.word	rlist
 340              		.cfi_endproc
 341              	.LFE13:
 342              		.size	chSemWaitTimeoutS, .-chSemWaitTimeoutS
 343 003c C046C046 		.section	.text.chSemWaitTimeout,"ax",%progbits
 344              		.align	2
 345              		.p2align 4,,15
 346              		.global	chSemWaitTimeout
 347              		.code	16
 348              		.thumb_func
 349              		.type	chSemWaitTimeout, %function
 350              	chSemWaitTimeout:
 351              	.LFB12:
 352              		.loc 1 222 0
 353              		.cfi_startproc
 354              	.LVL35:
 355 0000 08B5     		push	{r3, lr}
 356              		.cfi_def_cfa_offset 8
 357              		.cfi_offset 3, -8
 358              		.cfi_offset 14, -4
 359              		.loc 1 225 0
 360              	@ 225 "../../os/kernel/src/chsem.c" 1
 361 0002 72B6     		cpsid   i
 362              	@ 0 "" 2
 363              		.loc 1 226 0
 364              		.code	16
 365 0004 FFF7FEFF 		bl	chSemWaitTimeoutS
 366              	.LVL36:
 367              		.loc 1 227 0
 368              	@ 227 "../../os/kernel/src/chsem.c" 1
 369 0008 62B6     		cpsie   i
 370              	@ 0 "" 2
 371              		.loc 1 229 0
 372              		.code	16
 373              		@ sp needed
 374 000a 08BD     		pop	{r3, pc}
 375              		.cfi_endproc
 376              	.LFE12:
 377              		.size	chSemWaitTimeout, .-chSemWaitTimeout
 378 000c C046C046 		.section	.text.chSemSignal,"ax",%progbits
 379              		.align	2
 380              		.p2align 4,,15
 381              		.global	chSemSignal
 382              		.code	16
 383              		.thumb_func
 384              		.type	chSemSignal, %function
 385              	chSemSignal:
 386              	.LFB14:
 387              		.loc 1 278 0
 388              		.cfi_startproc
 389              	.LVL37:
 390 0000 08B5     		push	{r3, lr}
 391              		.cfi_def_cfa_offset 8
 392              		.cfi_offset 3, -8
 393              		.cfi_offset 14, -4
 394              		.loc 1 286 0
 395              	@ 286 "../../os/kernel/src/chsem.c" 1
ARM GAS  /tmp/ccE0lYBb.s 			page 8


 396 0002 72B6     		cpsid   i
 397              	@ 0 "" 2
 398              		.loc 1 287 0
 399              		.code	16
 400 0004 8368     		ldr	r3, [r0, #8]
 401 0006 0133     		add	r3, r3, #1
 402 0008 8360     		str	r3, [r0, #8]
 403 000a 002B     		cmp	r3, #0
 404 000c 01DD     		ble	.L30
 405              	.LVL38:
 406              	.L29:
 407              		.loc 1 289 0
 408              	@ 289 "../../os/kernel/src/chsem.c" 1
 409 000e 62B6     		cpsie   i
 410              	@ 0 "" 2
 411              		.loc 1 290 0
 412              		.code	16
 413              		@ sp needed
 414 0010 08BD     		pop	{r3, pc}
 415              	.LVL39:
 416              	.L30:
 417              	.LBB28:
 418              	.LBB29:
 419              		.loc 2 60 0
 420 0012 0368     		ldr	r3, [r0]
 421              	.LVL40:
 422              	.LBE29:
 423              	.LBE28:
 424              		.loc 1 288 0
 425 0014 0021     		mov	r1, #0
 426              	.LBB31:
 427              	.LBB30:
 428              		.loc 2 62 0
 429 0016 1A68     		ldr	r2, [r3]
 430 0018 0260     		str	r2, [r0]
 431 001a 5060     		str	r0, [r2, #4]
 432              	.LBE30:
 433              	.LBE31:
 434              		.loc 1 288 0
 435 001c 181C     		mov	r0, r3
 436              	.LVL41:
 437 001e FFF7FEFF 		bl	chSchWakeupS
 438              	.LVL42:
 439 0022 F4E7     		b	.L29
 440              		.cfi_endproc
 441              	.LFE14:
 442              		.size	chSemSignal, .-chSemSignal
 443 0024 C046C046 		.section	.text.chSemSignalI,"ax",%progbits
 443      C046C046 
 443      C046C046 
 444              		.align	2
 445              		.p2align 4,,15
 446              		.global	chSemSignalI
 447              		.code	16
 448              		.thumb_func
 449              		.type	chSemSignalI, %function
 450              	chSemSignalI:
ARM GAS  /tmp/ccE0lYBb.s 			page 9


 451              	.LFB15:
 452              		.loc 1 303 0
 453              		.cfi_startproc
 454              	.LVL43:
 455 0000 08B5     		push	{r3, lr}
 456              		.cfi_def_cfa_offset 8
 457              		.cfi_offset 3, -8
 458              		.cfi_offset 14, -4
 459              		.loc 1 312 0
 460 0002 8368     		ldr	r3, [r0, #8]
 461 0004 0133     		add	r3, r3, #1
 462 0006 8360     		str	r3, [r0, #8]
 463 0008 002B     		cmp	r3, #0
 464 000a 00DD     		ble	.L33
 465              	.LVL44:
 466              	.L31:
 467              		.loc 1 319 0
 468              		@ sp needed
 469 000c 08BD     		pop	{r3, pc}
 470              	.LVL45:
 471              	.L33:
 472              	.LBB32:
 473              	.LBB33:
 474              	.LBB34:
 475              		.loc 2 60 0
 476 000e 0368     		ldr	r3, [r0]
 477              	.LVL46:
 478              		.loc 2 62 0
 479 0010 1A68     		ldr	r2, [r3]
 480 0012 0260     		str	r2, [r0]
 481 0014 5060     		str	r0, [r2, #4]
 482              	.LBE34:
 483              	.LBE33:
 484              		.loc 1 316 0
 485 0016 0022     		mov	r2, #0
 486 0018 5A62     		str	r2, [r3, #36]
 487              		.loc 1 317 0
 488 001a 181C     		mov	r0, r3
 489              	.LVL47:
 490 001c FFF7FEFF 		bl	chSchReadyI
 491              	.LVL48:
 492 0020 F4E7     		b	.L31
 493              	.LBE32:
 494              		.cfi_endproc
 495              	.LFE15:
 496              		.size	chSemSignalI, .-chSemSignalI
 497 0022 C046C046 		.section	.text.chSemAddCounterI,"ax",%progbits
 497      C046C046 
 497      C046C046 
 497      C046
 498              		.align	2
 499              		.p2align 4,,15
 500              		.global	chSemAddCounterI
 501              		.code	16
 502              		.thumb_func
 503              		.type	chSemAddCounterI, %function
 504              	chSemAddCounterI:
ARM GAS  /tmp/ccE0lYBb.s 			page 10


 505              	.LFB16:
 506              		.loc 1 334 0
 507              		.cfi_startproc
 508              	.LVL49:
 509 0000 70B5     		push	{r4, r5, r6, lr}
 510              		.cfi_def_cfa_offset 16
 511              		.cfi_offset 4, -16
 512              		.cfi_offset 5, -12
 513              		.cfi_offset 6, -8
 514              		.cfi_offset 14, -4
 515              		.loc 1 334 0
 516 0002 051C     		mov	r5, r0
 517 0004 0C1C     		mov	r4, r1
 518              		.loc 1 345 0
 519 0006 0026     		mov	r6, #0
 520              		.loc 1 343 0
 521 0008 0029     		cmp	r1, #0
 522 000a 03DC     		bgt	.L42
 523 000c 11E0     		b	.L34
 524              	.LVL50:
 525              	.L36:
 526              		.loc 1 346 0
 527 000e 013C     		sub	r4, r4, #1
 528              	.LVL51:
 529              		.loc 1 343 0
 530 0010 002C     		cmp	r4, #0
 531 0012 0ED0     		beq	.L34
 532              	.L42:
 533              		.loc 1 344 0
 534 0014 AB68     		ldr	r3, [r5, #8]
 535 0016 0133     		add	r3, r3, #1
 536 0018 AB60     		str	r3, [r5, #8]
 537 001a 002B     		cmp	r3, #0
 538 001c F7DC     		bgt	.L36
 539              	.LVL52:
 540              	.LBB35:
 541              	.LBB36:
 542              		.loc 2 60 0
 543 001e 2868     		ldr	r0, [r5]
 544              	.LVL53:
 545              	.LBE36:
 546              	.LBE35:
 547              		.loc 1 346 0
 548 0020 013C     		sub	r4, r4, #1
 549              	.LVL54:
 550              	.LBB38:
 551              	.LBB37:
 552              		.loc 2 62 0
 553 0022 0368     		ldr	r3, [r0]
 554 0024 2B60     		str	r3, [r5]
 555 0026 5D60     		str	r5, [r3, #4]
 556              	.LBE37:
 557              	.LBE38:
 558              		.loc 1 345 0
 559 0028 FFF7FEFF 		bl	chSchReadyI
 560              	.LVL55:
 561 002c 4662     		str	r6, [r0, #36]
ARM GAS  /tmp/ccE0lYBb.s 			page 11


 562              		.loc 1 343 0
 563 002e 002C     		cmp	r4, #0
 564 0030 F0D1     		bne	.L42
 565              	.LVL56:
 566              	.L34:
 567              		.loc 1 348 0
 568              		@ sp needed
 569              	.LVL57:
 570              	.LVL58:
 571 0032 70BD     		pop	{r4, r5, r6, pc}
 572              		.cfi_endproc
 573              	.LFE16:
 574              		.size	chSemAddCounterI, .-chSemAddCounterI
 575              		.section	.text.chSemSignalWait,"ax",%progbits
 576              		.align	2
 577              		.p2align 4,,15
 578              		.global	chSemSignalWait
 579              		.code	16
 580              		.thumb_func
 581              		.type	chSemSignalWait, %function
 582              	chSemSignalWait:
 583              	.LFB17:
 584              		.loc 1 366 0
 585              		.cfi_startproc
 586              	.LVL59:
 587 0000 38B5     		push	{r3, r4, r5, lr}
 588              		.cfi_def_cfa_offset 16
 589              		.cfi_offset 3, -16
 590              		.cfi_offset 4, -12
 591              		.cfi_offset 5, -8
 592              		.cfi_offset 14, -4
 593              		.loc 1 366 0
 594 0002 0C1C     		mov	r4, r1
 595              		.loc 1 379 0
 596              	@ 379 "../../os/kernel/src/chsem.c" 1
 597 0004 72B6     		cpsid   i
 598              	@ 0 "" 2
 599              		.loc 1 380 0
 600              		.code	16
 601 0006 8368     		ldr	r3, [r0, #8]
 602 0008 0133     		add	r3, r3, #1
 603 000a 8360     		str	r3, [r0, #8]
 604 000c 002B     		cmp	r3, #0
 605 000e 16DD     		ble	.L47
 606              	.LVL60:
 607              	.L44:
 608              		.loc 1 382 0
 609 0010 A368     		ldr	r3, [r4, #8]
 610 0012 013B     		sub	r3, r3, #1
 611 0014 A360     		str	r3, [r4, #8]
 612 0016 002B     		cmp	r3, #0
 613 0018 04DB     		blt	.L48
 614              		.loc 1 390 0
 615 001a FFF7FEFF 		bl	chSchRescheduleS
 616              	.LVL61:
 617              		.loc 1 391 0
 618 001e 0020     		mov	r0, #0
ARM GAS  /tmp/ccE0lYBb.s 			page 12


 619              	.LVL62:
 620              	.L46:
 621              		.loc 1 393 0
 622              	@ 393 "../../os/kernel/src/chsem.c" 1
 623 0020 62B6     		cpsie   i
 624              	@ 0 "" 2
 625              		.loc 1 395 0
 626              		.code	16
 627              		@ sp needed
 628              	.LVL63:
 629 0022 38BD     		pop	{r3, r4, r5, pc}
 630              	.LVL64:
 631              	.L48:
 632              	.LBB39:
 633              		.loc 1 383 0
 634 0024 0B4B     		ldr	r3, .L49
 635              		.loc 1 386 0
 636 0026 0320     		mov	r0, #3
 637              		.loc 1 383 0
 638 0028 9D69     		ldr	r5, [r3, #24]
 639              	.LVL65:
 640              	.LBB40:
 641              	.LBB41:
 642              		.loc 2 55 0
 643 002a 6368     		ldr	r3, [r4, #4]
 644              		.loc 2 54 0
 645 002c 2C60     		str	r4, [r5]
 646              		.loc 2 55 0
 647 002e 6B60     		str	r3, [r5, #4]
 648              		.loc 2 56 0
 649 0030 6560     		str	r5, [r4, #4]
 650 0032 1D60     		str	r5, [r3]
 651              	.LBE41:
 652              	.LBE40:
 653              		.loc 1 385 0
 654 0034 6C62     		str	r4, [r5, #36]
 655              		.loc 1 386 0
 656 0036 FFF7FEFF 		bl	chSchGoSleepS
 657              	.LVL66:
 658              		.loc 1 387 0
 659 003a 686A     		ldr	r0, [r5, #36]
 660              	.LVL67:
 661              	.LBE39:
 662 003c F0E7     		b	.L46
 663              	.LVL68:
 664              	.L47:
 665              	.LBB42:
 666              	.LBB43:
 667              		.loc 2 60 0
 668 003e 0368     		ldr	r3, [r0]
 669              	.LVL69:
 670              		.loc 2 62 0
 671 0040 1A68     		ldr	r2, [r3]
 672 0042 0260     		str	r2, [r0]
 673 0044 5060     		str	r0, [r2, #4]
 674              	.LBE43:
 675              	.LBE42:
ARM GAS  /tmp/ccE0lYBb.s 			page 13


 676              		.loc 1 381 0
 677 0046 181C     		mov	r0, r3
 678              	.LVL70:
 679 0048 FFF7FEFF 		bl	chSchReadyI
 680              	.LVL71:
 681 004c 0023     		mov	r3, #0
 682 004e 4362     		str	r3, [r0, #36]
 683 0050 DEE7     		b	.L44
 684              	.L50:
 685 0052 C046     		.align	2
 686              	.L49:
 687 0054 00000000 		.word	rlist
 688              		.cfi_endproc
 689              	.LFE17:
 690              		.size	chSemSignalWait, .-chSemSignalWait
 691 0058 C046C046 		.text
 691      C046C046 
 692              	.Letext0:
 693              		.file 3 "/usr/arm-none-eabi/include/machine/_default_types.h"
 694              		.file 4 "/usr/arm-none-eabi/include/stdint.h"
 695              		.file 5 "../../os/ports/GCC/ARMCMx/chtypes.h"
 696              		.file 6 "../../os/kernel/include/chlists.h"
 697              		.file 7 "../../os/kernel/include/chthreads.h"
 698              		.file 8 "../../os/ports/GCC/ARMCMx/chcore_v6m.h"
 699              		.file 9 "../../os/kernel/include/chschd.h"
 700              		.file 10 "../../os/kernel/include/chsem.h"
 701              		.file 11 "../../os/kernel/include/chmtx.h"