ARM GAS  /tmp/ccnu8ImS.s 			page 1


   1              		.cpu cortex-m0
   2              		.fpu softvfp
   3              		.eabi_attribute 20, 1
   4              		.eabi_attribute 21, 1
   5              		.eabi_attribute 23, 3
   6              		.eabi_attribute 24, 1
   7              		.eabi_attribute 25, 1
   8              		.eabi_attribute 26, 1
   9              		.eabi_attribute 30, 2
  10              		.eabi_attribute 34, 0
  11              		.eabi_attribute 18, 4
  12              		.code	16
  13              		.file	"chvt.c"
  14              		.text
  15              	.Ltext0:
  16              		.cfi_sections	.debug_frame
  17              		.section	.text._vt_init,"ax",%progbits
  18              		.align	2
  19              		.p2align 4,,15
  20              		.global	_vt_init
  21              		.code	16
  22              		.thumb_func
  23              		.type	_vt_init, %function
  24              	_vt_init:
  25              	.LFB7:
  26              		.file 1 "../../os/kernel/src/chvt.c"
  27              		.loc 1 50 0
  28              		.cfi_startproc
  29              		.loc 1 52 0
  30 0000 044B     		ldr	r3, .L2
  31              		.loc 1 53 0
  32 0002 0122     		mov	r2, #1
  33 0004 5242     		neg	r2, r2
  34 0006 9A60     		str	r2, [r3, #8]
  35              		.loc 1 54 0
  36 0008 0022     		mov	r2, #0
  37              		.loc 1 52 0
  38 000a 5B60     		str	r3, [r3, #4]
  39 000c 1B60     		str	r3, [r3]
  40              		.loc 1 54 0
  41 000e DA60     		str	r2, [r3, #12]
  42              		.loc 1 55 0
  43              		@ sp needed
  44 0010 7047     		bx	lr
  45              	.L3:
  46 0012 C046     		.align	2
  47              	.L2:
  48 0014 00000000 		.word	.LANCHOR0
  49              		.cfi_endproc
  50              	.LFE7:
  51              		.size	_vt_init, .-_vt_init
  52 0018 C046C046 		.section	.text.chVTSetI,"ax",%progbits
  52      C046C046 
  53              		.align	2
  54              		.p2align 4,,15
  55              		.global	chVTSetI
  56              		.code	16
ARM GAS  /tmp/ccnu8ImS.s 			page 2


  57              		.thumb_func
  58              		.type	chVTSetI, %function
  59              	chVTSetI:
  60              	.LFB8:
  61              		.loc 1 76 0
  62              		.cfi_startproc
  63              	.LVL0:
  64 0000 10B5     		push	{r4, lr}
  65              		.cfi_def_cfa_offset 8
  66              		.cfi_offset 4, -8
  67              		.cfi_offset 14, -4
  68              		.loc 1 85 0
  69 0002 0C4C     		ldr	r4, .L9
  70              		.loc 1 83 0
  71 0004 0361     		str	r3, [r0, #16]
  72              		.loc 1 85 0
  73 0006 2368     		ldr	r3, [r4]
  74              	.LVL1:
  75              		.loc 1 84 0
  76 0008 C260     		str	r2, [r0, #12]
  77              		.loc 1 86 0
  78 000a 9A68     		ldr	r2, [r3, #8]
  79              	.LVL2:
  80 000c 9142     		cmp	r1, r2
  81 000e 04D9     		bls	.L5
  82              	.L6:
  83              		.loc 1 88 0
  84 0010 1B68     		ldr	r3, [r3]
  85              	.LVL3:
  86              		.loc 1 87 0
  87 0012 891A     		sub	r1, r1, r2
  88              	.LVL4:
  89              		.loc 1 86 0
  90 0014 9A68     		ldr	r2, [r3, #8]
  91 0016 8A42     		cmp	r2, r1
  92 0018 FAD3     		bcc	.L6
  93              	.L5:
  94              		.loc 1 91 0
  95 001a 5A68     		ldr	r2, [r3, #4]
  96 001c 0360     		str	r3, [r0]
  97 001e 4260     		str	r2, [r0, #4]
  98              		.loc 1 92 0
  99 0020 5860     		str	r0, [r3, #4]
 100 0022 1060     		str	r0, [r2]
 101              		.loc 1 93 0
 102 0024 8160     		str	r1, [r0, #8]
 103              		.loc 1 94 0
 104 0026 A342     		cmp	r3, r4
 105 0028 02D0     		beq	.L4
 106              		.loc 1 95 0
 107 002a 9A68     		ldr	r2, [r3, #8]
 108 002c 511A     		sub	r1, r2, r1
 109              	.LVL5:
 110 002e 9960     		str	r1, [r3, #8]
 111              	.LVL6:
 112              	.L4:
 113              		.loc 1 96 0
ARM GAS  /tmp/ccnu8ImS.s 			page 3


 114              		@ sp needed
 115 0030 10BD     		pop	{r4, pc}
 116              	.L10:
 117 0032 C046     		.align	2
 118              	.L9:
 119 0034 00000000 		.word	.LANCHOR0
 120              		.cfi_endproc
 121              	.LFE8:
 122              		.size	chVTSetI, .-chVTSetI
 123 0038 C046C046 		.section	.text.chVTResetI,"ax",%progbits
 123      C046C046 
 124              		.align	2
 125              		.p2align 4,,15
 126              		.global	chVTResetI
 127              		.code	16
 128              		.thumb_func
 129              		.type	chVTResetI, %function
 130              	chVTResetI:
 131              	.LFB9:
 132              		.loc 1 106 0
 133              		.cfi_startproc
 134              	.LVL7:
 135              		.loc 1 114 0
 136 0000 0368     		ldr	r3, [r0]
 137 0002 074A     		ldr	r2, .L13
 138              		.loc 1 106 0
 139 0004 10B5     		push	{r4, lr}
 140              		.cfi_def_cfa_offset 8
 141              		.cfi_offset 4, -8
 142              		.cfi_offset 14, -4
 143              		.loc 1 114 0
 144 0006 9342     		cmp	r3, r2
 145 0008 03D0     		beq	.L12
 146              		.loc 1 115 0
 147 000a 9968     		ldr	r1, [r3, #8]
 148 000c 8468     		ldr	r4, [r0, #8]
 149 000e 0A19     		add	r2, r1, r4
 150 0010 9A60     		str	r2, [r3, #8]
 151              	.L12:
 152              		.loc 1 116 0
 153 0012 4268     		ldr	r2, [r0, #4]
 154              		.loc 1 119 0
 155              		@ sp needed
 156              		.loc 1 116 0
 157 0014 1360     		str	r3, [r2]
 158              		.loc 1 117 0
 159 0016 0368     		ldr	r3, [r0]
 160 0018 5A60     		str	r2, [r3, #4]
 161              		.loc 1 118 0
 162 001a 0023     		mov	r3, #0
 163 001c C360     		str	r3, [r0, #12]
 164              		.loc 1 119 0
 165 001e 10BD     		pop	{r4, pc}
 166              	.L14:
 167              		.align	2
 168              	.L13:
 169 0020 00000000 		.word	.LANCHOR0
ARM GAS  /tmp/ccnu8ImS.s 			page 4


 170              		.cfi_endproc
 171              	.LFE9:
 172              		.size	chVTResetI, .-chVTResetI
 173              		.global	vtlist
 174 0024 C046C046 		.section	.bss.vtlist,"aw",%nobits
 174      C046C046 
 174      C046C046 
 175              		.align	2
 176              		.set	.LANCHOR0,. + 0
 177              		.type	vtlist, %object
 178              		.size	vtlist, 16
 179              	vtlist:
 180 0000 00000000 		.space	16
 180      00000000 
 180      00000000 
 180      00000000 
 181              		.text
 182              	.Letext0:
 183              		.file 2 "/usr/arm-none-eabi/include/machine/_default_types.h"
 184              		.file 3 "/usr/arm-none-eabi/include/stdint.h"
 185              		.file 4 "../../os/ports/GCC/ARMCMx/chtypes.h"
 186              		.file 5 "../../os/kernel/include/chvt.h"