ARM GAS  /tmp/cc7zTWjo.s 			page 1


   1              		.cpu cortex-m0
   2              		.fpu softvfp
   3              		.eabi_attribute 20, 1
   4              		.eabi_attribute 21, 1
   5              		.eabi_attribute 23, 3
   6              		.eabi_attribute 24, 1
   7              		.eabi_attribute 25, 1
   8              		.eabi_attribute 26, 1
   9              		.eabi_attribute 30, 2
  10              		.eabi_attribute 34, 0
  11              		.eabi_attribute 18, 4
  12              		.code	16
  13              		.file	"crt0.c"
  14              		.text
  15              	.Ltext0:
  16              		.cfi_sections	.debug_frame
  17              		.section	.text.__early_init,"ax",%progbits
  18              		.align	2
  19              		.p2align 4,,15
  20              		.weak	__early_init
  21              		.code	16
  22              		.thumb_func
  23              		.type	__early_init, %function
  24              	__early_init:
  25              	.LFB0:
  26              		.file 1 "../../os/ports/GCC/ARMCMx/crt0.c"
  27              		.loc 1 234 0
  28              		.cfi_startproc
  29              		.loc 1 234 0
  30              		@ sp needed
  31 0000 7047     		bx	lr
  32              		.cfi_endproc
  33              	.LFE0:
  34              		.size	__early_init, .-__early_init
  35 0002 C046C046 		.section	.text.__late_init,"ax",%progbits
  35      C046C046 
  35      C046C046 
  35      C046
  36              		.align	2
  37              		.p2align 4,,15
  38              		.weak	__late_init
  39              		.code	16
  40              		.thumb_func
  41              		.type	__late_init, %function
  42              	__late_init:
  43              	.LFB1:
  44              		.loc 1 246 0
  45              		.cfi_startproc
  46              		.loc 1 246 0
  47              		@ sp needed
  48 0000 7047     		bx	lr
  49              		.cfi_endproc
  50              	.LFE1:
  51              		.size	__late_init, .-__late_init
  52 0002 C046C046 		.section	.text._default_exit,"ax",%progbits
  52      C046C046 
  52      C046C046 
ARM GAS  /tmp/cc7zTWjo.s 			page 2


  52      C046
  53              		.align	2
  54              		.p2align 4,,15
  55              		.weak	_default_exit
  56              		.code	16
  57              		.thumb_func
  58              		.type	_default_exit, %function
  59              	_default_exit:
  60              	.LFB2:
  61              		.loc 1 257 0
  62              		.cfi_startproc
  63              	.L4:
  64 0000 FEE7     		b	.L4
  65              		.cfi_endproc
  66              	.LFE2:
  67              		.size	_default_exit, .-_default_exit
  68 0002 C046C046 		.section	.text.ResetHandler,"ax",%progbits
  68      C046C046 
  68      C046C046 
  68      C046
  69              		.align	2
  70              		.p2align 4,,15
  71              		.global	ResetHandler
  72              		.code	16
  73              		.thumb_func
  74              		.type	ResetHandler, %function
  75              	ResetHandler:
  76              	.LFB3:
  77              		.loc 1 268 0
  78              		.cfi_startproc
  79              		.loc 1 274 0
  80              	@ 274 "../../os/ports/GCC/ARMCMx/crt0.c" 1
  81 0000 72B6     		cpsid   i
  82              	@ 0 "" 2
  83              		.loc 1 275 0
  84              		.code	16
  85 0002 3448     		ldr	r0, .L26
  86 0004 051C     		mov	r5, r0
  87              	.LVL0:
  88              		.loc 1 276 0
  89              	@ 276 "../../os/ports/GCC/ARMCMx/crt0.c" 1
  90 0006 80F30988 		msr     PSP, r0
  91              	@ 0 "" 2
  92              	.LVL1:
  93              		.loc 1 296 0
  94              		.code	16
  95 000a 0223     		mov	r3, #2
  96              	@ 296 "../../os/ports/GCC/ARMCMx/crt0.c" 1
  97 000c 83F31488 		msr     CONTROL, r3
  98              	@ 0 "" 2
  99              		.loc 1 297 0
 100              	@ 297 "../../os/ports/GCC/ARMCMx/crt0.c" 1
 101 0010 BFF36F8F 		isb
 102              	@ 0 "" 2
 103              	.LVL2:
 104              		.code	16
 105              	.LBB2:
ARM GAS  /tmp/cc7zTWjo.s 			page 3


 106              		.loc 1 301 0
 107 0014 304B     		ldr	r3, .L26+4
 108 0016 314A     		ldr	r2, .L26+8
 109 0018 9342     		cmp	r3, r2
 110 001a 09D2     		bcs	.L9
 111 001c 1C1D     		add	r4, r3, #4
 112 001e D11C     		add	r1, r2, #3
 113 0020 091B     		sub	r1, r1, r4
 114 0022 8908     		lsr	r1, r1, #2
 115 0024 8900     		lsl	r1, r1, #2
 116 0026 2E4A     		ldr	r2, .L26+12
 117 0028 6118     		add	r1, r4, r1
 118              	.LVL3:
 119              	.L10:
 120              		.loc 1 301 0 is_stmt 0 discriminator 2
 121 002a 04C3     		stmia	r3!, {r2}
 122              	.LVL4:
 123 002c 8B42     		cmp	r3, r1
 124 002e FCD1     		bne	.L10
 125              	.LVL5:
 126              	.L9:
 127              	.LBE2:
 128              	.LBB3:
 129              		.loc 1 304 0 is_stmt 1
 130 0030 2C4B     		ldr	r3, .L26+16
 131 0032 8342     		cmp	r3, r0
 132 0034 09D2     		bcs	.L8
 133 0036 1A1D     		add	r2, r3, #4
 134 0038 E91C     		add	r1, r5, #3
 135 003a 891A     		sub	r1, r1, r2
 136 003c 8908     		lsr	r1, r1, #2
 137 003e 8900     		lsl	r1, r1, #2
 138 0040 5118     		add	r1, r2, r1
 139 0042 274A     		ldr	r2, .L26+12
 140              	.LVL6:
 141              	.L13:
 142              		.loc 1 304 0 is_stmt 0 discriminator 2
 143 0044 04C3     		stmia	r3!, {r2}
 144              	.LVL7:
 145 0046 8B42     		cmp	r3, r1
 146 0048 FCD1     		bne	.L13
 147              	.LVL8:
 148              	.L8:
 149              	.LBE3:
 150              		.loc 1 310 0 is_stmt 1
 151 004a FFF7FEFF 		bl	__early_init
 152              	.LVL9:
 153              	.LBB4:
 154              		.loc 1 319 0
 155 004e 264A     		ldr	r2, .L26+20
 156 0050 264B     		ldr	r3, .L26+24
 157 0052 9A42     		cmp	r2, r3
 158 0054 0BD2     		bcs	.L12
 159 0056 D043     		mvn	r0, r2
 160 0058 C018     		add	r0, r0, r3
 161 005a 8008     		lsr	r0, r0, #2
 162 005c 0130     		add	r0, r0, #1
ARM GAS  /tmp/cc7zTWjo.s 			page 4


 163 005e 2449     		ldr	r1, .L26+28
 164 0060 8000     		lsl	r0, r0, #2
 165 0062 0023     		mov	r3, #0
 166              	.LVL10:
 167              	.L16:
 168              		.loc 1 320 0
 169 0064 CC58     		ldr	r4, [r1, r3]
 170 0066 D450     		str	r4, [r2, r3]
 171 0068 0433     		add	r3, r3, #4
 172              	.LVL11:
 173              		.loc 1 319 0
 174 006a 8342     		cmp	r3, r0
 175 006c FAD1     		bne	.L16
 176              	.LVL12:
 177              	.L12:
 178              	.LBE4:
 179              	.LBB5:
 180              		.loc 1 326 0
 181 006e 214B     		ldr	r3, .L26+32
 182 0070 214A     		ldr	r2, .L26+36
 183 0072 9342     		cmp	r3, r2
 184 0074 09D2     		bcs	.L15
 185 0076 181D     		add	r0, r3, #4
 186 0078 D11C     		add	r1, r2, #3
 187 007a 091A     		sub	r1, r1, r0
 188 007c 8908     		lsr	r1, r1, #2
 189 007e 8900     		lsl	r1, r1, #2
 190 0080 4118     		add	r1, r0, r1
 191 0082 0022     		mov	r2, #0
 192              	.LVL13:
 193              	.L19:
 194              		.loc 1 326 0 is_stmt 0 discriminator 2
 195 0084 04C3     		stmia	r3!, {r2}
 196              	.LVL14:
 197 0086 8B42     		cmp	r3, r1
 198 0088 FCD1     		bne	.L19
 199              	.LVL15:
 200              	.L15:
 201              	.LBE5:
 202              		.loc 1 330 0 is_stmt 1
 203 008a FFF7FEFF 		bl	__late_init
 204              	.LVL16:
 205              	.LBB6:
 206              		.loc 1 336 0
 207 008e 1B4D     		ldr	r5, .L26+40
 208              	.LVL17:
 209 0090 1B4B     		ldr	r3, .L26+44
 210 0092 9D42     		cmp	r5, r3
 211 0094 0AD2     		bcs	.L18
 212 0096 EE43     		mvn	r6, r5
 213 0098 F618     		add	r6, r6, r3
 214 009a B608     		lsr	r6, r6, #2
 215 009c 0136     		add	r6, r6, #1
 216 009e 0024     		mov	r4, #0
 217              	.LVL18:
 218              	.L22:
 219 00a0 A300     		lsl	r3, r4, #2
ARM GAS  /tmp/cc7zTWjo.s 			page 5


 220              		.loc 1 337 0
 221 00a2 EB58     		ldr	r3, [r5, r3]
 222 00a4 0134     		add	r4, r4, #1
 223              	.LVL19:
 224 00a6 9847     		blx	r3
 225              	.LVL20:
 226              		.loc 1 336 0
 227 00a8 B442     		cmp	r4, r6
 228 00aa F9D1     		bne	.L22
 229              	.L18:
 230              	.LBE6:
 231              		.loc 1 344 0
 232 00ac FFF7FEFF 		bl	main
 233              	.LVL21:
 234              	.LBB7:
 235              		.loc 1 350 0
 236 00b0 144D     		ldr	r5, .L26+48
 237 00b2 154B     		ldr	r3, .L26+52
 238 00b4 9D42     		cmp	r5, r3
 239 00b6 0AD2     		bcs	.L21
 240 00b8 EE43     		mvn	r6, r5
 241 00ba F618     		add	r6, r6, r3
 242 00bc B608     		lsr	r6, r6, #2
 243 00be 0136     		add	r6, r6, #1
 244 00c0 0024     		mov	r4, #0
 245              	.LVL22:
 246              	.L23:
 247 00c2 A300     		lsl	r3, r4, #2
 248              		.loc 1 351 0
 249 00c4 EB58     		ldr	r3, [r5, r3]
 250 00c6 0134     		add	r4, r4, #1
 251              	.LVL23:
 252 00c8 9847     		blx	r3
 253              	.LVL24:
 254              		.loc 1 350 0
 255 00ca B442     		cmp	r4, r6
 256 00cc F9D1     		bne	.L23
 257              	.L21:
 258              	.LBE7:
 259              		.loc 1 358 0
 260 00ce FFF7FEFF 		bl	_default_exit
 261              	.LVL25:
 262              		.loc 1 359 0
 263              	.L27:
 264 00d2 C046     		.align	2
 265              	.L26:
 266 00d4 00000000 		.word	__process_stack_end__
 267 00d8 00000000 		.word	__main_stack_base__
 268 00dc 00000000 		.word	__main_stack_end__
 269 00e0 55555555 		.word	1431655765
 270 00e4 00000000 		.word	__process_stack_base__
 271 00e8 00000000 		.word	_data
 272 00ec 00000000 		.word	_edata
 273 00f0 00000000 		.word	_textdata
 274 00f4 00000000 		.word	_bss_start
 275 00f8 00000000 		.word	_bss_end
 276 00fc 00000000 		.word	__init_array_start
ARM GAS  /tmp/cc7zTWjo.s 			page 6


 277 0100 00000000 		.word	__init_array_end
 278 0104 00000000 		.word	__fini_array_start
 279 0108 00000000 		.word	__fini_array_end
 280              		.cfi_endproc
 281              	.LFE3:
 282              		.size	ResetHandler, .-ResetHandler
 283 010c C046C046 		.text
 284              	.Letext0:
 285              		.file 2 "/usr/arm-none-eabi/include/machine/_default_types.h"
 286              		.file 3 "/usr/arm-none-eabi/include/stdint.h"
 287              		.section	.debug_info,"",%progbits
 288              	.Ldebug_info0:
 289 0000 BF020000 		.4byte	0x2bf
 290 0004 0400     		.2byte	0x4
 291 0006 00000000 		.4byte	.Ldebug_abbrev0
 292 000a 04       		.byte	0x4
 293 000b 01       		.uleb128 0x1
 294 000c 54000000 		.4byte	.LASF31
 295 0010 01       		.byte	0x1
 296 0011 0B010000 		.4byte	.LASF32
 297 0015 C7010000 		.4byte	.LASF33
 298 0019 00000000 		.4byte	.Ldebug_ranges0+0
 299 001d 00000000 		.4byte	0
 300 0021 00000000 		.4byte	.Ldebug_line0
 301 0025 02       		.uleb128 0x2
 302 0026 01       		.byte	0x1
 303 0027 06       		.byte	0x6
 304 0028 8B020000 		.4byte	.LASF0
 305 002c 03       		.uleb128 0x3
 306 002d 0B000000 		.4byte	.LASF5
 307 0031 02       		.byte	0x2
 308 0032 1C       		.byte	0x1c
 309 0033 37000000 		.4byte	0x37
 310 0037 02       		.uleb128 0x2
 311 0038 01       		.byte	0x1
 312 0039 08       		.byte	0x8
 313 003a F1000000 		.4byte	.LASF1
 314 003e 02       		.uleb128 0x2
 315 003f 02       		.byte	0x2
 316 0040 05       		.byte	0x5
 317 0041 61020000 		.4byte	.LASF2
 318 0045 02       		.uleb128 0x2
 319 0046 02       		.byte	0x2
 320 0047 07       		.byte	0x7
 321 0048 39010000 		.4byte	.LASF3
 322 004c 02       		.uleb128 0x2
 323 004d 04       		.byte	0x4
 324 004e 05       		.byte	0x5
 325 004f 7C020000 		.4byte	.LASF4
 326 0053 03       		.uleb128 0x3
 327 0054 8B010000 		.4byte	.LASF6
 328 0058 02       		.byte	0x2
 329 0059 38       		.byte	0x38
 330 005a 5E000000 		.4byte	0x5e
 331 005e 02       		.uleb128 0x2
 332 005f 04       		.byte	0x4
 333 0060 07       		.byte	0x7
ARM GAS  /tmp/cc7zTWjo.s 			page 7


 334 0061 79010000 		.4byte	.LASF7
 335 0065 02       		.uleb128 0x2
 336 0066 08       		.byte	0x8
 337 0067 05       		.byte	0x5
 338 0068 38020000 		.4byte	.LASF8
 339 006c 02       		.uleb128 0x2
 340 006d 08       		.byte	0x8
 341 006e 07       		.byte	0x7
 342 006f A8010000 		.4byte	.LASF9
 343 0073 04       		.uleb128 0x4
 344 0074 04       		.byte	0x4
 345 0075 05       		.byte	0x5
 346 0076 696E7400 		.ascii	"int\000"
 347 007a 02       		.uleb128 0x2
 348 007b 04       		.byte	0x4
 349 007c 07       		.byte	0x7
 350 007d 9B010000 		.4byte	.LASF10
 351 0081 03       		.uleb128 0x3
 352 0082 BF010000 		.4byte	.LASF11
 353 0086 03       		.byte	0x3
 354 0087 2A       		.byte	0x2a
 355 0088 2C000000 		.4byte	0x2c
 356 008c 03       		.uleb128 0x3
 357 008d 73020000 		.4byte	.LASF12
 358 0091 03       		.byte	0x3
 359 0092 42       		.byte	0x42
 360 0093 53000000 		.4byte	0x53
 361 0097 03       		.uleb128 0x3
 362 0098 6B020000 		.4byte	.LASF13
 363 009c 01       		.byte	0x1
 364 009d 34       		.byte	0x34
 365 009e A2000000 		.4byte	0xa2
 366 00a2 05       		.uleb128 0x5
 367 00a3 04       		.byte	0x4
 368 00a4 A8000000 		.4byte	0xa8
 369 00a8 06       		.uleb128 0x6
 370 00a9 03       		.uleb128 0x3
 371 00aa 3D000000 		.4byte	.LASF14
 372 00ae 01       		.byte	0x1
 373 00af 35       		.byte	0x35
 374 00b0 B4000000 		.4byte	0xb4
 375 00b4 05       		.uleb128 0x5
 376 00b5 04       		.byte	0x4
 377 00b6 97000000 		.4byte	0x97
 378 00ba 07       		.uleb128 0x7
 379 00bb 2B020000 		.4byte	.LASF15
 380 00bf 01       		.byte	0x1
 381 00c0 EA       		.byte	0xea
 382 00c1 00000000 		.4byte	.LFB0
 383 00c5 02000000 		.4byte	.LFE0-.LFB0
 384 00c9 01       		.uleb128 0x1
 385 00ca 9C       		.byte	0x9c
 386 00cb 07       		.uleb128 0x7
 387 00cc FF000000 		.4byte	.LASF16
 388 00d0 01       		.byte	0x1
 389 00d1 F6       		.byte	0xf6
 390 00d2 00000000 		.4byte	.LFB1
ARM GAS  /tmp/cc7zTWjo.s 			page 8


 391 00d6 02000000 		.4byte	.LFE1-.LFB1
 392 00da 01       		.uleb128 0x1
 393 00db 9C       		.byte	0x9c
 394 00dc 08       		.uleb128 0x8
 395 00dd 46000000 		.4byte	.LASF17
 396 00e1 01       		.byte	0x1
 397 00e2 0101     		.2byte	0x101
 398 00e4 00000000 		.4byte	.LFB2
 399 00e8 02000000 		.4byte	.LFE2-.LFB2
 400 00ec 01       		.uleb128 0x1
 401 00ed 9C       		.byte	0x9c
 402 00ee 09       		.uleb128 0x9
 403 00ef 2C010000 		.4byte	.LASF34
 404 00f3 01       		.byte	0x1
 405 00f4 0C01     		.2byte	0x10c
 406 00f6 00000000 		.4byte	.LFB3
 407 00fa 0C010000 		.4byte	.LFE3-.LFB3
 408 00fe 01       		.uleb128 0x1
 409 00ff 9C       		.byte	0x9c
 410 0100 26020000 		.4byte	0x226
 411 0104 0A       		.uleb128 0xa
 412 0105 70737000 		.ascii	"psp\000"
 413 0109 01       		.byte	0x1
 414 010a 0D01     		.2byte	0x10d
 415 010c 8C000000 		.4byte	0x8c
 416 0110 00000000 		.4byte	.LLST0
 417 0114 0B       		.uleb128 0xb
 418 0115 72656700 		.ascii	"reg\000"
 419 0119 01       		.byte	0x1
 420 011a 0D01     		.2byte	0x10d
 421 011c 8C000000 		.4byte	0x8c
 422 0120 02       		.byte	0x2
 423 0121 0C       		.uleb128 0xc
 424 0122 14000000 		.4byte	.LBB2
 425 0126 1C000000 		.4byte	.LBE2-.LBB2
 426 012a 49010000 		.4byte	0x149
 427 012e 0A       		.uleb128 0xa
 428 012f 703100   		.ascii	"p1\000"
 429 0132 01       		.byte	0x1
 430 0133 2D01     		.2byte	0x12d
 431 0135 26020000 		.4byte	0x226
 432 0139 1E000000 		.4byte	.LLST1
 433 013d 0D       		.uleb128 0xd
 434 013e 703200   		.ascii	"p2\000"
 435 0141 01       		.byte	0x1
 436 0142 2D01     		.2byte	0x12d
 437 0144 26020000 		.4byte	0x226
 438 0148 00       		.byte	0
 439 0149 0C       		.uleb128 0xc
 440 014a 30000000 		.4byte	.LBB3
 441 014e 1A000000 		.4byte	.LBE3-.LBB3
 442 0152 71010000 		.4byte	0x171
 443 0156 0A       		.uleb128 0xa
 444 0157 703100   		.ascii	"p1\000"
 445 015a 01       		.byte	0x1
 446 015b 3001     		.2byte	0x130
 447 015d 26020000 		.4byte	0x226
ARM GAS  /tmp/cc7zTWjo.s 			page 9


 448 0161 3E000000 		.4byte	.LLST2
 449 0165 0D       		.uleb128 0xd
 450 0166 703200   		.ascii	"p2\000"
 451 0169 01       		.byte	0x1
 452 016a 3001     		.2byte	0x130
 453 016c 26020000 		.4byte	0x226
 454 0170 00       		.byte	0
 455 0171 0C       		.uleb128 0xc
 456 0172 4E000000 		.4byte	.LBB4
 457 0176 20000000 		.4byte	.LBE4-.LBB4
 458 017a 9D010000 		.4byte	0x19d
 459 017e 0A       		.uleb128 0xa
 460 017f 747000   		.ascii	"tp\000"
 461 0182 01       		.byte	0x1
 462 0183 3B01     		.2byte	0x13b
 463 0185 26020000 		.4byte	0x226
 464 0189 5E000000 		.4byte	.LLST3
 465 018d 0A       		.uleb128 0xa
 466 018e 647000   		.ascii	"dp\000"
 467 0191 01       		.byte	0x1
 468 0192 3B01     		.2byte	0x13b
 469 0194 26020000 		.4byte	0x226
 470 0198 5E000000 		.4byte	.LLST3
 471 019c 00       		.byte	0
 472 019d 0C       		.uleb128 0xc
 473 019e 6E000000 		.4byte	.LBB5
 474 01a2 1C000000 		.4byte	.LBE5-.LBB5
 475 01a6 C5010000 		.4byte	0x1c5
 476 01aa 0A       		.uleb128 0xa
 477 01ab 703100   		.ascii	"p1\000"
 478 01ae 01       		.byte	0x1
 479 01af 4601     		.2byte	0x146
 480 01b1 26020000 		.4byte	0x226
 481 01b5 80000000 		.4byte	.LLST5
 482 01b9 0D       		.uleb128 0xd
 483 01ba 703200   		.ascii	"p2\000"
 484 01bd 01       		.byte	0x1
 485 01be 4601     		.2byte	0x146
 486 01c0 26020000 		.4byte	0x226
 487 01c4 00       		.byte	0
 488 01c5 0C       		.uleb128 0xc
 489 01c6 8E000000 		.4byte	.LBB6
 490 01ca 1E000000 		.4byte	.LBE6-.LBB6
 491 01ce E3010000 		.4byte	0x1e3
 492 01d2 0A       		.uleb128 0xa
 493 01d3 66707000 		.ascii	"fpp\000"
 494 01d7 01       		.byte	0x1
 495 01d8 4F01     		.2byte	0x14f
 496 01da A9000000 		.4byte	0xa9
 497 01de A0000000 		.4byte	.LLST6
 498 01e2 00       		.byte	0
 499 01e3 0C       		.uleb128 0xc
 500 01e4 B0000000 		.4byte	.LBB7
 501 01e8 1E000000 		.4byte	.LBE7-.LBB7
 502 01ec 01020000 		.4byte	0x201
 503 01f0 0A       		.uleb128 0xa
 504 01f1 66707000 		.ascii	"fpp\000"
ARM GAS  /tmp/cc7zTWjo.s 			page 10


 505 01f5 01       		.byte	0x1
 506 01f6 5D01     		.2byte	0x15d
 507 01f8 A9000000 		.4byte	0xa9
 508 01fc C6000000 		.4byte	.LLST7
 509 0200 00       		.byte	0
 510 0201 0E       		.uleb128 0xe
 511 0202 4E000000 		.4byte	.LVL9
 512 0206 BA000000 		.4byte	0xba
 513 020a 0E       		.uleb128 0xe
 514 020b 8E000000 		.4byte	.LVL16
 515 020f CB000000 		.4byte	0xcb
 516 0213 0E       		.uleb128 0xe
 517 0214 B0000000 		.4byte	.LVL21
 518 0218 BB020000 		.4byte	0x2bb
 519 021c 0E       		.uleb128 0xe
 520 021d D2000000 		.4byte	.LVL25
 521 0221 DC000000 		.4byte	0xdc
 522 0225 00       		.byte	0
 523 0226 05       		.uleb128 0x5
 524 0227 04       		.byte	0x4
 525 0228 8C000000 		.4byte	0x8c
 526 022c 0F       		.uleb128 0xf
 527 022d 4D020000 		.4byte	.LASF18
 528 0231 01       		.byte	0x1
 529 0232 8B       		.byte	0x8b
 530 0233 8C000000 		.4byte	0x8c
 531 0237 0F       		.uleb128 0xf
 532 0238 C0020000 		.4byte	.LASF19
 533 023c 01       		.byte	0x1
 534 023d 93       		.byte	0x93
 535 023e 8C000000 		.4byte	0x8c
 536 0242 0F       		.uleb128 0xf
 537 0243 26000000 		.4byte	.LASF20
 538 0247 01       		.byte	0x1
 539 0248 9A       		.byte	0x9a
 540 0249 8C000000 		.4byte	0x8c
 541 024d 0F       		.uleb128 0xf
 542 024e 97020000 		.4byte	.LASF21
 543 0252 01       		.byte	0x1
 544 0253 A1       		.byte	0xa1
 545 0254 8C000000 		.4byte	0x8c
 546 0258 0F       		.uleb128 0xf
 547 0259 21020000 		.4byte	.LASF22
 548 025d 01       		.byte	0x1
 549 025e A7       		.byte	0xa7
 550 025f 8C000000 		.4byte	0x8c
 551 0263 0F       		.uleb128 0xf
 552 0264 85020000 		.4byte	.LASF23
 553 0268 01       		.byte	0x1
 554 0269 AD       		.byte	0xad
 555 026a 8C000000 		.4byte	0x8c
 556 026e 0F       		.uleb128 0xf
 557 026f 46020000 		.4byte	.LASF24
 558 0273 01       		.byte	0x1
 559 0274 B3       		.byte	0xb3
 560 0275 8C000000 		.4byte	0x8c
 561 0279 0F       		.uleb128 0xf
ARM GAS  /tmp/cc7zTWjo.s 			page 11


 562 027a 00000000 		.4byte	.LASF25
 563 027e 01       		.byte	0x1
 564 027f B9       		.byte	0xb9
 565 0280 8C000000 		.4byte	0x8c
 566 0284 0F       		.uleb128 0xf
 567 0285 5F010000 		.4byte	.LASF26
 568 0289 01       		.byte	0x1
 569 028a BF       		.byte	0xbf
 570 028b 8C000000 		.4byte	0x8c
 571 028f 0F       		.uleb128 0xf
 572 0290 AD020000 		.4byte	.LASF27
 573 0294 01       		.byte	0x1
 574 0295 C5       		.byte	0xc5
 575 0296 97000000 		.4byte	0x97
 576 029a 0F       		.uleb128 0xf
 577 029b 68010000 		.4byte	.LASF28
 578 029f 01       		.byte	0x1
 579 02a0 CB       		.byte	0xcb
 580 02a1 97000000 		.4byte	0x97
 581 02a5 0F       		.uleb128 0xf
 582 02a6 4C010000 		.4byte	.LASF29
 583 02aa 01       		.byte	0x1
 584 02ab D1       		.byte	0xd1
 585 02ac 97000000 		.4byte	0x97
 586 02b0 0F       		.uleb128 0xf
 587 02b1 15000000 		.4byte	.LASF30
 588 02b5 01       		.byte	0x1
 589 02b6 D7       		.byte	0xd7
 590 02b7 97000000 		.4byte	0x97
 591 02bb 10       		.uleb128 0x10
 592 02bc 96010000 		.4byte	.LASF35
 593 02c0 01       		.byte	0x1
 594 02c1 DE       		.byte	0xde
 595 02c2 00       		.byte	0
 596              		.section	.debug_abbrev,"",%progbits
 597              	.Ldebug_abbrev0:
 598 0000 01       		.uleb128 0x1
 599 0001 11       		.uleb128 0x11
 600 0002 01       		.byte	0x1
 601 0003 25       		.uleb128 0x25
 602 0004 0E       		.uleb128 0xe
 603 0005 13       		.uleb128 0x13
 604 0006 0B       		.uleb128 0xb
 605 0007 03       		.uleb128 0x3
 606 0008 0E       		.uleb128 0xe
 607 0009 1B       		.uleb128 0x1b
 608 000a 0E       		.uleb128 0xe
 609 000b 55       		.uleb128 0x55
 610 000c 17       		.uleb128 0x17
 611 000d 11       		.uleb128 0x11
 612 000e 01       		.uleb128 0x1
 613 000f 10       		.uleb128 0x10
 614 0010 17       		.uleb128 0x17
 615 0011 00       		.byte	0
 616 0012 00       		.byte	0
 617 0013 02       		.uleb128 0x2
 618 0014 24       		.uleb128 0x24
ARM GAS  /tmp/cc7zTWjo.s 			page 12


 619 0015 00       		.byte	0
 620 0016 0B       		.uleb128 0xb
 621 0017 0B       		.uleb128 0xb
 622 0018 3E       		.uleb128 0x3e
 623 0019 0B       		.uleb128 0xb
 624 001a 03       		.uleb128 0x3
 625 001b 0E       		.uleb128 0xe
 626 001c 00       		.byte	0
 627 001d 00       		.byte	0
 628 001e 03       		.uleb128 0x3
 629 001f 16       		.uleb128 0x16
 630 0020 00       		.byte	0
 631 0021 03       		.uleb128 0x3
 632 0022 0E       		.uleb128 0xe
 633 0023 3A       		.uleb128 0x3a
 634 0024 0B       		.uleb128 0xb
 635 0025 3B       		.uleb128 0x3b
 636 0026 0B       		.uleb128 0xb
 637 0027 49       		.uleb128 0x49
 638 0028 13       		.uleb128 0x13
 639 0029 00       		.byte	0
 640 002a 00       		.byte	0
 641 002b 04       		.uleb128 0x4
 642 002c 24       		.uleb128 0x24
 643 002d 00       		.byte	0
 644 002e 0B       		.uleb128 0xb
 645 002f 0B       		.uleb128 0xb
 646 0030 3E       		.uleb128 0x3e
 647 0031 0B       		.uleb128 0xb
 648 0032 03       		.uleb128 0x3
 649 0033 08       		.uleb128 0x8
 650 0034 00       		.byte	0
 651 0035 00       		.byte	0
 652 0036 05       		.uleb128 0x5
 653 0037 0F       		.uleb128 0xf
 654 0038 00       		.byte	0
 655 0039 0B       		.uleb128 0xb
 656 003a 0B       		.uleb128 0xb
 657 003b 49       		.uleb128 0x49
 658 003c 13       		.uleb128 0x13
 659 003d 00       		.byte	0
 660 003e 00       		.byte	0
 661 003f 06       		.uleb128 0x6
 662 0040 15       		.uleb128 0x15
 663 0041 00       		.byte	0
 664 0042 27       		.uleb128 0x27
 665 0043 19       		.uleb128 0x19
 666 0044 00       		.byte	0
 667 0045 00       		.byte	0
 668 0046 07       		.uleb128 0x7
 669 0047 2E       		.uleb128 0x2e
 670 0048 00       		.byte	0
 671 0049 3F       		.uleb128 0x3f
 672 004a 19       		.uleb128 0x19
 673 004b 03       		.uleb128 0x3
 674 004c 0E       		.uleb128 0xe
 675 004d 3A       		.uleb128 0x3a
ARM GAS  /tmp/cc7zTWjo.s 			page 13


 676 004e 0B       		.uleb128 0xb
 677 004f 3B       		.uleb128 0x3b
 678 0050 0B       		.uleb128 0xb
 679 0051 27       		.uleb128 0x27
 680 0052 19       		.uleb128 0x19
 681 0053 11       		.uleb128 0x11
 682 0054 01       		.uleb128 0x1
 683 0055 12       		.uleb128 0x12
 684 0056 06       		.uleb128 0x6
 685 0057 40       		.uleb128 0x40
 686 0058 18       		.uleb128 0x18
 687 0059 9742     		.uleb128 0x2117
 688 005b 19       		.uleb128 0x19
 689 005c 00       		.byte	0
 690 005d 00       		.byte	0
 691 005e 08       		.uleb128 0x8
 692 005f 2E       		.uleb128 0x2e
 693 0060 00       		.byte	0
 694 0061 3F       		.uleb128 0x3f
 695 0062 19       		.uleb128 0x19
 696 0063 03       		.uleb128 0x3
 697 0064 0E       		.uleb128 0xe
 698 0065 3A       		.uleb128 0x3a
 699 0066 0B       		.uleb128 0xb
 700 0067 3B       		.uleb128 0x3b
 701 0068 05       		.uleb128 0x5
 702 0069 27       		.uleb128 0x27
 703 006a 19       		.uleb128 0x19
 704 006b 11       		.uleb128 0x11
 705 006c 01       		.uleb128 0x1
 706 006d 12       		.uleb128 0x12
 707 006e 06       		.uleb128 0x6
 708 006f 40       		.uleb128 0x40
 709 0070 18       		.uleb128 0x18
 710 0071 9742     		.uleb128 0x2117
 711 0073 19       		.uleb128 0x19
 712 0074 00       		.byte	0
 713 0075 00       		.byte	0
 714 0076 09       		.uleb128 0x9
 715 0077 2E       		.uleb128 0x2e
 716 0078 01       		.byte	0x1
 717 0079 3F       		.uleb128 0x3f
 718 007a 19       		.uleb128 0x19
 719 007b 03       		.uleb128 0x3
 720 007c 0E       		.uleb128 0xe
 721 007d 3A       		.uleb128 0x3a
 722 007e 0B       		.uleb128 0xb
 723 007f 3B       		.uleb128 0x3b
 724 0080 05       		.uleb128 0x5
 725 0081 27       		.uleb128 0x27
 726 0082 19       		.uleb128 0x19
 727 0083 11       		.uleb128 0x11
 728 0084 01       		.uleb128 0x1
 729 0085 12       		.uleb128 0x12
 730 0086 06       		.uleb128 0x6
 731 0087 40       		.uleb128 0x40
 732 0088 18       		.uleb128 0x18
ARM GAS  /tmp/cc7zTWjo.s 			page 14


 733 0089 9642     		.uleb128 0x2116
 734 008b 19       		.uleb128 0x19
 735 008c 01       		.uleb128 0x1
 736 008d 13       		.uleb128 0x13
 737 008e 00       		.byte	0
 738 008f 00       		.byte	0
 739 0090 0A       		.uleb128 0xa
 740 0091 34       		.uleb128 0x34
 741 0092 00       		.byte	0
 742 0093 03       		.uleb128 0x3
 743 0094 08       		.uleb128 0x8
 744 0095 3A       		.uleb128 0x3a
 745 0096 0B       		.uleb128 0xb
 746 0097 3B       		.uleb128 0x3b
 747 0098 05       		.uleb128 0x5
 748 0099 49       		.uleb128 0x49
 749 009a 13       		.uleb128 0x13
 750 009b 02       		.uleb128 0x2
 751 009c 17       		.uleb128 0x17
 752 009d 00       		.byte	0
 753 009e 00       		.byte	0
 754 009f 0B       		.uleb128 0xb
 755 00a0 34       		.uleb128 0x34
 756 00a1 00       		.byte	0
 757 00a2 03       		.uleb128 0x3
 758 00a3 08       		.uleb128 0x8
 759 00a4 3A       		.uleb128 0x3a
 760 00a5 0B       		.uleb128 0xb
 761 00a6 3B       		.uleb128 0x3b
 762 00a7 05       		.uleb128 0x5
 763 00a8 49       		.uleb128 0x49
 764 00a9 13       		.uleb128 0x13
 765 00aa 1C       		.uleb128 0x1c
 766 00ab 0B       		.uleb128 0xb
 767 00ac 00       		.byte	0
 768 00ad 00       		.byte	0
 769 00ae 0C       		.uleb128 0xc
 770 00af 0B       		.uleb128 0xb
 771 00b0 01       		.byte	0x1
 772 00b1 11       		.uleb128 0x11
 773 00b2 01       		.uleb128 0x1
 774 00b3 12       		.uleb128 0x12
 775 00b4 06       		.uleb128 0x6
 776 00b5 01       		.uleb128 0x1
 777 00b6 13       		.uleb128 0x13
 778 00b7 00       		.byte	0
 779 00b8 00       		.byte	0
 780 00b9 0D       		.uleb128 0xd
 781 00ba 34       		.uleb128 0x34
 782 00bb 00       		.byte	0
 783 00bc 03       		.uleb128 0x3
 784 00bd 08       		.uleb128 0x8
 785 00be 3A       		.uleb128 0x3a
 786 00bf 0B       		.uleb128 0xb
 787 00c0 3B       		.uleb128 0x3b
 788 00c1 05       		.uleb128 0x5
 789 00c2 49       		.uleb128 0x49
ARM GAS  /tmp/cc7zTWjo.s 			page 15


 790 00c3 13       		.uleb128 0x13
 791 00c4 00       		.byte	0
 792 00c5 00       		.byte	0
 793 00c6 0E       		.uleb128 0xe
 794 00c7 898201   		.uleb128 0x4109
 795 00ca 00       		.byte	0
 796 00cb 11       		.uleb128 0x11
 797 00cc 01       		.uleb128 0x1
 798 00cd 31       		.uleb128 0x31
 799 00ce 13       		.uleb128 0x13
 800 00cf 00       		.byte	0
 801 00d0 00       		.byte	0
 802 00d1 0F       		.uleb128 0xf
 803 00d2 34       		.uleb128 0x34
 804 00d3 00       		.byte	0
 805 00d4 03       		.uleb128 0x3
 806 00d5 0E       		.uleb128 0xe
 807 00d6 3A       		.uleb128 0x3a
 808 00d7 0B       		.uleb128 0xb
 809 00d8 3B       		.uleb128 0x3b
 810 00d9 0B       		.uleb128 0xb
 811 00da 49       		.uleb128 0x49
 812 00db 13       		.uleb128 0x13
 813 00dc 3F       		.uleb128 0x3f
 814 00dd 19       		.uleb128 0x19
 815 00de 3C       		.uleb128 0x3c
 816 00df 19       		.uleb128 0x19
 817 00e0 00       		.byte	0
 818 00e1 00       		.byte	0
 819 00e2 10       		.uleb128 0x10
 820 00e3 2E       		.uleb128 0x2e
 821 00e4 00       		.byte	0
 822 00e5 3F       		.uleb128 0x3f
 823 00e6 19       		.uleb128 0x19
 824 00e7 03       		.uleb128 0x3
 825 00e8 0E       		.uleb128 0xe
 826 00e9 3A       		.uleb128 0x3a
 827 00ea 0B       		.uleb128 0xb
 828 00eb 3B       		.uleb128 0x3b
 829 00ec 0B       		.uleb128 0xb
 830 00ed 27       		.uleb128 0x27
 831 00ee 19       		.uleb128 0x19
 832 00ef 3C       		.uleb128 0x3c
 833 00f0 19       		.uleb128 0x19
 834 00f1 00       		.byte	0
 835 00f2 00       		.byte	0
 836 00f3 00       		.byte	0
 837              		.section	.debug_loc,"",%progbits
 838              	.Ldebug_loc0:
 839              	.LLST0:
 840 0000 06000000 		.4byte	.LVL0
 841 0004 4D000000 		.4byte	.LVL9-1
 842 0008 0100     		.2byte	0x1
 843 000a 50       		.byte	0x50
 844 000b 4D000000 		.4byte	.LVL9-1
 845 000f 90000000 		.4byte	.LVL17
 846 0013 0100     		.2byte	0x1
ARM GAS  /tmp/cc7zTWjo.s 			page 16


 847 0015 55       		.byte	0x55
 848 0016 00000000 		.4byte	0
 849 001a 00000000 		.4byte	0
 850              	.LLST1:
 851 001e 2A000000 		.4byte	.LVL3
 852 0022 2C000000 		.4byte	.LVL4
 853 0026 0300     		.2byte	0x3
 854 0028 73       		.byte	0x73
 855 0029 04       		.sleb128 4
 856 002a 9F       		.byte	0x9f
 857 002b 2C000000 		.4byte	.LVL4
 858 002f 30000000 		.4byte	.LVL5
 859 0033 0100     		.2byte	0x1
 860 0035 53       		.byte	0x53
 861 0036 00000000 		.4byte	0
 862 003a 00000000 		.4byte	0
 863              	.LLST2:
 864 003e 44000000 		.4byte	.LVL6
 865 0042 46000000 		.4byte	.LVL7
 866 0046 0300     		.2byte	0x3
 867 0048 73       		.byte	0x73
 868 0049 04       		.sleb128 4
 869 004a 9F       		.byte	0x9f
 870 004b 46000000 		.4byte	.LVL7
 871 004f 4A000000 		.4byte	.LVL8
 872 0053 0100     		.2byte	0x1
 873 0055 53       		.byte	0x53
 874 0056 00000000 		.4byte	0
 875 005a 00000000 		.4byte	0
 876              	.LLST3:
 877 005e 64000000 		.4byte	.LVL10
 878 0062 6A000000 		.4byte	.LVL11
 879 0066 0300     		.2byte	0x3
 880 0068 73       		.byte	0x73
 881 0069 00       		.sleb128 0
 882 006a 9F       		.byte	0x9f
 883 006b 6A000000 		.4byte	.LVL11
 884 006f 6E000000 		.4byte	.LVL12
 885 0073 0300     		.2byte	0x3
 886 0075 73       		.byte	0x73
 887 0076 00       		.sleb128 0
 888 0077 9F       		.byte	0x9f
 889 0078 00000000 		.4byte	0
 890 007c 00000000 		.4byte	0
 891              	.LLST5:
 892 0080 84000000 		.4byte	.LVL13
 893 0084 86000000 		.4byte	.LVL14
 894 0088 0300     		.2byte	0x3
 895 008a 73       		.byte	0x73
 896 008b 04       		.sleb128 4
 897 008c 9F       		.byte	0x9f
 898 008d 86000000 		.4byte	.LVL14
 899 0091 8A000000 		.4byte	.LVL15
 900 0095 0100     		.2byte	0x1
 901 0097 53       		.byte	0x53
 902 0098 00000000 		.4byte	0
 903 009c 00000000 		.4byte	0
ARM GAS  /tmp/cc7zTWjo.s 			page 17


 904              	.LLST6:
 905 00a0 A0000000 		.4byte	.LVL18
 906 00a4 A6000000 		.4byte	.LVL19
 907 00a8 0500     		.2byte	0x5
 908 00aa 74       		.byte	0x74
 909 00ab 00       		.sleb128 0
 910 00ac 32       		.byte	0x32
 911 00ad 24       		.byte	0x24
 912 00ae 9F       		.byte	0x9f
 913 00af A6000000 		.4byte	.LVL19
 914 00b3 A8000000 		.4byte	.LVL20
 915 00b7 0500     		.2byte	0x5
 916 00b9 74       		.byte	0x74
 917 00ba 7F       		.sleb128 -1
 918 00bb 32       		.byte	0x32
 919 00bc 24       		.byte	0x24
 920 00bd 9F       		.byte	0x9f
 921 00be 00000000 		.4byte	0
 922 00c2 00000000 		.4byte	0
 923              	.LLST7:
 924 00c6 C2000000 		.4byte	.LVL22
 925 00ca C8000000 		.4byte	.LVL23
 926 00ce 0500     		.2byte	0x5
 927 00d0 74       		.byte	0x74
 928 00d1 00       		.sleb128 0
 929 00d2 32       		.byte	0x32
 930 00d3 24       		.byte	0x24
 931 00d4 9F       		.byte	0x9f
 932 00d5 C8000000 		.4byte	.LVL23
 933 00d9 CA000000 		.4byte	.LVL24
 934 00dd 0500     		.2byte	0x5
 935 00df 74       		.byte	0x74
 936 00e0 7F       		.sleb128 -1
 937 00e1 32       		.byte	0x32
 938 00e2 24       		.byte	0x24
 939 00e3 9F       		.byte	0x9f
 940 00e4 00000000 		.4byte	0
 941 00e8 00000000 		.4byte	0
 942              		.section	.debug_aranges,"",%progbits
 943 0000 34000000 		.4byte	0x34
 944 0004 0200     		.2byte	0x2
 945 0006 00000000 		.4byte	.Ldebug_info0
 946 000a 04       		.byte	0x4
 947 000b 00       		.byte	0
 948 000c 0000     		.2byte	0
 949 000e 0000     		.2byte	0
 950 0010 00000000 		.4byte	.LFB0
 951 0014 02000000 		.4byte	.LFE0-.LFB0
 952 0018 00000000 		.4byte	.LFB1
 953 001c 02000000 		.4byte	.LFE1-.LFB1
 954 0020 00000000 		.4byte	.LFB2
 955 0024 02000000 		.4byte	.LFE2-.LFB2
 956 0028 00000000 		.4byte	.LFB3
 957 002c 0C010000 		.4byte	.LFE3-.LFB3
 958 0030 00000000 		.4byte	0
 959 0034 00000000 		.4byte	0
 960              		.section	.debug_ranges,"",%progbits
ARM GAS  /tmp/cc7zTWjo.s 			page 18


 961              	.Ldebug_ranges0:
 962 0000 00000000 		.4byte	.LFB0
 963 0004 02000000 		.4byte	.LFE0
 964 0008 00000000 		.4byte	.LFB1
 965 000c 02000000 		.4byte	.LFE1
 966 0010 00000000 		.4byte	.LFB2
 967 0014 02000000 		.4byte	.LFE2
 968 0018 00000000 		.4byte	.LFB3
 969 001c 0C010000 		.4byte	.LFE3
 970 0020 00000000 		.4byte	0
 971 0024 00000000 		.4byte	0
 972              		.section	.debug_line,"",%progbits
 973              	.Ldebug_line0:
 974 0000 0B010000 		.section	.debug_str,"MS",%progbits,1
 974      02009500 
 974      00000201 
 974      FB0E0D00 
 974      01010101 
 975              	.LASF25:
 976 0000 5F627373 		.ascii	"_bss_start\000"
 976      5F737461 
 976      727400
 977              	.LASF5:
 978 000b 5F5F7569 		.ascii	"__uint8_t\000"
 978      6E74385F 
 978      7400
 979              	.LASF30:
 980 0015 5F5F6669 		.ascii	"__fini_array_end\000"
 980      6E695F61 
 980      72726179 
 980      5F656E64 
 980      00
 981              	.LASF20:
 982 0026 5F5F7072 		.ascii	"__process_stack_base__\000"
 982      6F636573 
 982      735F7374 
 982      61636B5F 
 982      62617365 
 983              	.LASF14:
 984 003d 66756E63 		.ascii	"funcpp_t\000"
 984      70705F74 
 984      00
 985              	.LASF17:
 986 0046 5F646566 		.ascii	"_default_exit\000"
 986      61756C74 
 986      5F657869 
 986      7400
 987              	.LASF31:
 988 0054 474E5520 		.ascii	"GNU C 4.8.2 -mcpu=cortex-m0 -mno-thumb-interwork -m"
 988      4320342E 
 988      382E3220 
 988      2D6D6370 
 988      753D636F 
 989 0087 7468756D 		.ascii	"thumb -ggdb -O2 -fomit-frame-pointer -falign-functi"
 989      62202D67 
 989      67646220 
 989      2D4F3220 
ARM GAS  /tmp/cc7zTWjo.s 			page 19


 989      2D666F6D 
 990 00ba 6F6E733D 		.ascii	"ons=16 -ffunction-sections -fdata-sections -fno-com"
 990      3136202D 
 990      6666756E 
 990      6374696F 
 990      6E2D7365 
 991 00ed 6D6F6E00 		.ascii	"mon\000"
 992              	.LASF1:
 993 00f1 756E7369 		.ascii	"unsigned char\000"
 993      676E6564 
 993      20636861 
 993      7200
 994              	.LASF16:
 995 00ff 5F5F6C61 		.ascii	"__late_init\000"
 995      74655F69 
 995      6E697400 
 996              	.LASF32:
 997 010b 2E2E2F2E 		.ascii	"../../os/ports/GCC/ARMCMx/crt0.c\000"
 997      2E2F6F73 
 997      2F706F72 
 997      74732F47 
 997      43432F41 
 998              	.LASF34:
 999 012c 52657365 		.ascii	"ResetHandler\000"
 999      7448616E 
 999      646C6572 
 999      00
 1000              	.LASF3:
 1001 0139 73686F72 		.ascii	"short unsigned int\000"
 1001      7420756E 
 1001      7369676E 
 1001      65642069 
 1001      6E7400
 1002              	.LASF29:
 1003 014c 5F5F6669 		.ascii	"__fini_array_start\000"
 1003      6E695F61 
 1003      72726179 
 1003      5F737461 
 1003      727400
 1004              	.LASF26:
 1005 015f 5F627373 		.ascii	"_bss_end\000"
 1005      5F656E64 
 1005      00
 1006              	.LASF28:
 1007 0168 5F5F696E 		.ascii	"__init_array_end\000"
 1007      69745F61 
 1007      72726179 
 1007      5F656E64 
 1007      00
 1008              	.LASF7:
 1009 0179 6C6F6E67 		.ascii	"long unsigned int\000"
 1009      20756E73 
 1009      69676E65 
 1009      6420696E 
 1009      7400
 1010              	.LASF6:
 1011 018b 5F5F7569 		.ascii	"__uint32_t\000"
ARM GAS  /tmp/cc7zTWjo.s 			page 20


 1011      6E743332 
 1011      5F7400
 1012              	.LASF35:
 1013 0196 6D61696E 		.ascii	"main\000"
 1013      00
 1014              	.LASF10:
 1015 019b 756E7369 		.ascii	"unsigned int\000"
 1015      676E6564 
 1015      20696E74 
 1015      00
 1016              	.LASF9:
 1017 01a8 6C6F6E67 		.ascii	"long long unsigned int\000"
 1017      206C6F6E 
 1017      6720756E 
 1017      7369676E 
 1017      65642069 
 1018              	.LASF11:
 1019 01bf 75696E74 		.ascii	"uint8_t\000"
 1019      385F7400 
 1020              	.LASF33:
 1021 01c7 2F686F6D 		.ascii	"/home/ece497/vbox-shared/mplayer/ChibiOS-RT-stable_"
 1021      652F6563 
 1021      65343937 
 1021      2F76626F 
 1021      782D7368 
 1022 01fa 322E362E 		.ascii	"2.6.x/demos/ARMCM0-STM32F051-DISCOVERY\000"
 1022      782F6465 
 1022      6D6F732F 
 1022      41524D43 
 1022      4D302D53 
 1023              	.LASF22:
 1024 0221 5F746578 		.ascii	"_textdata\000"
 1024      74646174 
 1024      6100
 1025              	.LASF15:
 1026 022b 5F5F6561 		.ascii	"__early_init\000"
 1026      726C795F 
 1026      696E6974 
 1026      00
 1027              	.LASF8:
 1028 0238 6C6F6E67 		.ascii	"long long int\000"
 1028      206C6F6E 
 1028      6720696E 
 1028      7400
 1029              	.LASF24:
 1030 0246 5F656461 		.ascii	"_edata\000"
 1030      746100
 1031              	.LASF18:
 1032 024d 5F5F6D61 		.ascii	"__main_stack_base__\000"
 1032      696E5F73 
 1032      7461636B 
 1032      5F626173 
 1032      655F5F00 
 1033              	.LASF2:
 1034 0261 73686F72 		.ascii	"short int\000"
 1034      7420696E 
 1034      7400
ARM GAS  /tmp/cc7zTWjo.s 			page 21


 1035              	.LASF13:
 1036 026b 66756E63 		.ascii	"funcp_t\000"
 1036      705F7400 
 1037              	.LASF12:
 1038 0273 75696E74 		.ascii	"uint32_t\000"
 1038      33325F74 
 1038      00
 1039              	.LASF4:
 1040 027c 6C6F6E67 		.ascii	"long int\000"
 1040      20696E74 
 1040      00
 1041              	.LASF23:
 1042 0285 5F646174 		.ascii	"_data\000"
 1042      6100
 1043              	.LASF0:
 1044 028b 7369676E 		.ascii	"signed char\000"
 1044      65642063 
 1044      68617200 
 1045              	.LASF21:
 1046 0297 5F5F7072 		.ascii	"__process_stack_end__\000"
 1046      6F636573 
 1046      735F7374 
 1046      61636B5F 
 1046      656E645F 
 1047              	.LASF27:
 1048 02ad 5F5F696E 		.ascii	"__init_array_start\000"
 1048      69745F61 
 1048      72726179 
 1048      5F737461 
 1048      727400
 1049              	.LASF19:
 1050 02c0 5F5F6D61 		.ascii	"__main_stack_end__\000"
 1050      696E5F73 
 1050      7461636B 
 1050      5F656E64 
 1050      5F5F00
 1051              		.ident	"GCC: (Arch Repository) 4.8.2"
ARM GAS  /tmp/cc7zTWjo.s 			page 22


DEFINED SYMBOLS
                            *ABS*:0000000000000000 crt0.c
     /tmp/cc7zTWjo.s:18     .text.__early_init:0000000000000000 $t
     /tmp/cc7zTWjo.s:24     .text.__early_init:0000000000000000 __early_init
     /tmp/cc7zTWjo.s:36     .text.__late_init:0000000000000000 $t
     /tmp/cc7zTWjo.s:42     .text.__late_init:0000000000000000 __late_init
     /tmp/cc7zTWjo.s:53     .text._default_exit:0000000000000000 $t
     /tmp/cc7zTWjo.s:59     .text._default_exit:0000000000000000 _default_exit
     /tmp/cc7zTWjo.s:69     .text.ResetHandler:0000000000000000 $t
     /tmp/cc7zTWjo.s:75     .text.ResetHandler:0000000000000000 ResetHandler
     /tmp/cc7zTWjo.s:266    .text.ResetHandler:00000000000000d4 $d
                     .debug_frame:0000000000000010 $d
     /tmp/cc7zTWjo.s:283    .text.ResetHandler:000000000000010c $t

UNDEFINED SYMBOLS
main
__process_stack_end__
__main_stack_base__
__main_stack_end__
__process_stack_base__
_data
_edata
_textdata
_bss_start
_bss_end
__init_array_start
__init_array_end
__fini_array_start
__fini_array_end
