ARM GAS  /tmp/ccOhsI7F.s 			page 1


   1              		.cpu cortex-m0
   2              		.fpu softvfp
   3              		.eabi_attribute 20, 1
   4              		.eabi_attribute 21, 1
   5              		.eabi_attribute 23, 3
   6              		.eabi_attribute 24, 1
   7              		.eabi_attribute 25, 1
   8              		.eabi_attribute 26, 1
   9              		.eabi_attribute 30, 2
  10              		.eabi_attribute 34, 0
  11              		.eabi_attribute 18, 4
  12              		.code	16
  13              		.file	"hal.c"
  14              		.text
  15              	.Ltext0:
  16              		.cfi_sections	.debug_frame
  17              		.section	.text.halInit,"ax",%progbits
  18              		.align	2
  19              		.p2align 4,,15
  20              		.global	halInit
  21              		.code	16
  22              		.thumb_func
  23              		.type	halInit, %function
  24              	halInit:
  25              	.LFB40:
  26              		.file 1 "../../os/hal/src/hal.c"
  27              		.loc 1 68 0
  28              		.cfi_startproc
  29 0000 08B5     		push	{r3, lr}
  30              		.cfi_def_cfa_offset 8
  31              		.cfi_offset 3, -8
  32              		.cfi_offset 14, -4
  33              		.loc 1 70 0
  34 0002 FFF7FEFF 		bl	hal_lld_init
  35              	.LVL0:
  36              		.loc 1 76 0
  37 0006 0448     		ldr	r0, .L2
  38 0008 FFF7FEFF 		bl	_pal_lld_init
  39              	.LVL1:
  40              		.loc 1 128 0
  41              		@ sp needed
  42              		.loc 1 103 0
  43 000c FFF7FEFF 		bl	sdInit
  44              	.LVL2:
  45              		.loc 1 127 0
  46 0010 FFF7FEFF 		bl	boardInit
  47              	.LVL3:
  48              		.loc 1 128 0
  49 0014 08BD     		pop	{r3, pc}
  50              	.L3:
  51 0016 C046     		.align	2
  52              	.L2:
  53 0018 00000000 		.word	pal_default_config
  54              		.cfi_endproc
  55              	.LFE40:
  56              		.size	halInit, .-halInit
  57 001c C046C046 		.text
ARM GAS  /tmp/ccOhsI7F.s 			page 2


  58              	.Letext0:
  59              		.file 2 "/usr/arm-none-eabi/include/machine/_default_types.h"
  60              		.file 3 "/usr/arm-none-eabi/include/stdint.h"
  61              		.file 4 "../../os/hal/platforms/STM32/GPIOv2/pal_lld.h"
  62              		.file 5 "../../os/hal/platforms/STM32F0xx/hal_lld.h"
  63              		.file 6 "../../os/hal/include/serial.h"
  64              		.file 7 "../../boards/ST_STM32F0_DISCOVERY/board.h"
  65              		.section	.debug_info,"",%progbits
  66              	.Ldebug_info0:
  67 0000 C6010000 		.4byte	0x1c6
  68 0004 0400     		.2byte	0x4
  69 0006 00000000 		.4byte	.Ldebug_abbrev0
  70 000a 04       		.byte	0x4
  71 000b 01       		.uleb128 0x1
  72 000c 3E000000 		.4byte	.LASF30
  73 0010 01       		.byte	0x1
  74 0011 F1010000 		.4byte	.LASF31
  75 0015 97010000 		.4byte	.LASF32
  76 0019 00000000 		.4byte	.Ldebug_ranges0+0
  77 001d 00000000 		.4byte	0
  78 0021 00000000 		.4byte	.Ldebug_line0
  79 0025 02       		.uleb128 0x2
  80 0026 04       		.byte	0x4
  81 0027 05       		.byte	0x5
  82 0028 696E7400 		.ascii	"int\000"
  83 002c 03       		.uleb128 0x3
  84 002d 04       		.byte	0x4
  85 002e 07       		.byte	0x7
  86 002f 69010000 		.4byte	.LASF0
  87 0033 03       		.uleb128 0x3
  88 0034 01       		.byte	0x1
  89 0035 06       		.byte	0x6
  90 0036 54020000 		.4byte	.LASF1
  91 003a 03       		.uleb128 0x3
  92 003b 01       		.byte	0x1
  93 003c 08       		.byte	0x8
  94 003d E3000000 		.4byte	.LASF2
  95 0041 03       		.uleb128 0x3
  96 0042 02       		.byte	0x2
  97 0043 05       		.byte	0x5
  98 0044 2B020000 		.4byte	.LASF3
  99 0048 03       		.uleb128 0x3
 100 0049 02       		.byte	0x2
 101 004a 07       		.byte	0x7
 102 004b 24000000 		.4byte	.LASF4
 103 004f 03       		.uleb128 0x3
 104 0050 04       		.byte	0x4
 105 0051 05       		.byte	0x5
 106 0052 45020000 		.4byte	.LASF5
 107 0056 04       		.uleb128 0x4
 108 0057 51010000 		.4byte	.LASF9
 109 005b 02       		.byte	0x2
 110 005c 38       		.byte	0x38
 111 005d 61000000 		.4byte	0x61
 112 0061 03       		.uleb128 0x3
 113 0062 04       		.byte	0x4
 114 0063 07       		.byte	0x7
ARM GAS  /tmp/ccOhsI7F.s 			page 3


 115 0064 0B010000 		.4byte	.LASF6
 116 0068 03       		.uleb128 0x3
 117 0069 08       		.byte	0x8
 118 006a 05       		.byte	0x5
 119 006b 11020000 		.4byte	.LASF7
 120 006f 03       		.uleb128 0x3
 121 0070 08       		.byte	0x8
 122 0071 07       		.byte	0x7
 123 0072 76010000 		.4byte	.LASF8
 124 0076 04       		.uleb128 0x4
 125 0077 3C020000 		.4byte	.LASF10
 126 007b 03       		.byte	0x3
 127 007c 42       		.byte	0x42
 128 007d 56000000 		.4byte	0x56
 129 0081 03       		.uleb128 0x3
 130 0082 01       		.byte	0x1
 131 0083 02       		.byte	0x2
 132 0084 60020000 		.4byte	.LASF11
 133 0088 03       		.uleb128 0x3
 134 0089 04       		.byte	0x4
 135 008a 07       		.byte	0x7
 136 008b 08020000 		.4byte	.LASF12
 137 008f 03       		.uleb128 0x3
 138 0090 01       		.byte	0x1
 139 0091 08       		.byte	0x8
 140 0092 1F020000 		.4byte	.LASF13
 141 0096 05       		.uleb128 0x5
 142 0097 1C       		.byte	0x1c
 143 0098 04       		.byte	0x4
 144 0099 A3       		.byte	0xa3
 145 009a F3000000 		.4byte	0xf3
 146 009e 06       		.uleb128 0x6
 147 009f 4E020000 		.4byte	.LASF14
 148 00a3 04       		.byte	0x4
 149 00a4 A5       		.byte	0xa5
 150 00a5 76000000 		.4byte	0x76
 151 00a9 00       		.byte	0
 152 00aa 06       		.uleb128 0x6
 153 00ab 37000000 		.4byte	.LASF15
 154 00af 04       		.byte	0x4
 155 00b0 A7       		.byte	0xa7
 156 00b1 76000000 		.4byte	0x76
 157 00b5 04       		.byte	0x4
 158 00b6 06       		.uleb128 0x6
 159 00b7 07000000 		.4byte	.LASF16
 160 00bb 04       		.byte	0x4
 161 00bc A9       		.byte	0xa9
 162 00bd 76000000 		.4byte	0x76
 163 00c1 08       		.byte	0x8
 164 00c2 06       		.uleb128 0x6
 165 00c3 5C010000 		.4byte	.LASF17
 166 00c7 04       		.byte	0x4
 167 00c8 AB       		.byte	0xab
 168 00c9 76000000 		.4byte	0x76
 169 00cd 0C       		.byte	0xc
 170 00ce 07       		.uleb128 0x7
 171 00cf 6F647200 		.ascii	"odr\000"
ARM GAS  /tmp/ccOhsI7F.s 			page 4


 172 00d3 04       		.byte	0x4
 173 00d4 AD       		.byte	0xad
 174 00d5 76000000 		.4byte	0x76
 175 00d9 10       		.byte	0x10
 176 00da 06       		.uleb128 0x6
 177 00db 2F010000 		.4byte	.LASF18
 178 00df 04       		.byte	0x4
 179 00e0 AF       		.byte	0xaf
 180 00e1 76000000 		.4byte	0x76
 181 00e5 14       		.byte	0x14
 182 00e6 06       		.uleb128 0x6
 183 00e7 2A010000 		.4byte	.LASF19
 184 00eb 04       		.byte	0x4
 185 00ec B1       		.byte	0xb1
 186 00ed 76000000 		.4byte	0x76
 187 00f1 18       		.byte	0x18
 188 00f2 00       		.byte	0
 189 00f3 04       		.uleb128 0x4
 190 00f4 F1000000 		.4byte	.LASF20
 191 00f8 04       		.byte	0x4
 192 00f9 B2       		.byte	0xb2
 193 00fa 96000000 		.4byte	0x96
 194 00fe 05       		.uleb128 0x5
 195 00ff 8C       		.byte	0x8c
 196 0100 04       		.byte	0x4
 197 0101 BB       		.byte	0xbb
 198 0102 43010000 		.4byte	0x143
 199 0106 06       		.uleb128 0x6
 200 0107 04010000 		.4byte	.LASF21
 201 010b 04       		.byte	0x4
 202 010c BE       		.byte	0xbe
 203 010d F3000000 		.4byte	0xf3
 204 0111 00       		.byte	0
 205 0112 06       		.uleb128 0x6
 206 0113 0F000000 		.4byte	.LASF22
 207 0117 04       		.byte	0x4
 208 0118 C2       		.byte	0xc2
 209 0119 F3000000 		.4byte	0xf3
 210 011d 1C       		.byte	0x1c
 211 011e 06       		.uleb128 0x6
 212 011f 35020000 		.4byte	.LASF23
 213 0123 04       		.byte	0x4
 214 0124 C6       		.byte	0xc6
 215 0125 F3000000 		.4byte	0xf3
 216 0129 38       		.byte	0x38
 217 012a 06       		.uleb128 0x6
 218 012b 00000000 		.4byte	.LASF24
 219 012f 04       		.byte	0x4
 220 0130 CA       		.byte	0xca
 221 0131 F3000000 		.4byte	0xf3
 222 0135 54       		.byte	0x54
 223 0136 06       		.uleb128 0x6
 224 0137 62010000 		.4byte	.LASF25
 225 013b 04       		.byte	0x4
 226 013c D2       		.byte	0xd2
 227 013d F3000000 		.4byte	0xf3
 228 0141 70       		.byte	0x70
ARM GAS  /tmp/ccOhsI7F.s 			page 5


 229 0142 00       		.byte	0
 230 0143 04       		.uleb128 0x4
 231 0144 34010000 		.4byte	.LASF26
 232 0148 04       		.byte	0x4
 233 0149 E0       		.byte	0xe0
 234 014a FE000000 		.4byte	0xfe
 235 014e 08       		.uleb128 0x8
 236 014f DB000000 		.4byte	.LASF33
 237 0153 01       		.byte	0x1
 238 0154 44       		.byte	0x44
 239 0155 00000000 		.4byte	.LFB40
 240 0159 1C000000 		.4byte	.LFE40-.LFB40
 241 015d 01       		.uleb128 0x1
 242 015e 9C       		.byte	0x9c
 243 015f 88010000 		.4byte	0x188
 244 0163 09       		.uleb128 0x9
 245 0164 06000000 		.4byte	.LVL0
 246 0168 99010000 		.4byte	0x199
 247 016c 09       		.uleb128 0x9
 248 016d 0C000000 		.4byte	.LVL1
 249 0171 A1010000 		.4byte	0x1a1
 250 0175 09       		.uleb128 0x9
 251 0176 10000000 		.4byte	.LVL2
 252 017a B9010000 		.4byte	0x1b9
 253 017e 09       		.uleb128 0x9
 254 017f 14000000 		.4byte	.LVL3
 255 0183 C1010000 		.4byte	0x1c1
 256 0187 00       		.byte	0
 257 0188 0A       		.uleb128 0xa
 258 0189 3E010000 		.4byte	.LASF34
 259 018d 04       		.byte	0x4
 260 018e BC01     		.2byte	0x1bc
 261 0190 94010000 		.4byte	0x194
 262 0194 0B       		.uleb128 0xb
 263 0195 43010000 		.4byte	0x143
 264 0199 0C       		.uleb128 0xc
 265 019a 1D010000 		.4byte	.LASF27
 266 019e 05       		.byte	0x5
 267 019f 1403     		.2byte	0x314
 268 01a1 0D       		.uleb128 0xd
 269 01a2 16000000 		.4byte	.LASF35
 270 01a6 04       		.byte	0x4
 271 01a7 C101     		.2byte	0x1c1
 272 01a9 B3010000 		.4byte	0x1b3
 273 01ad 0E       		.uleb128 0xe
 274 01ae B3010000 		.4byte	0x1b3
 275 01b2 00       		.byte	0
 276 01b3 0F       		.uleb128 0xf
 277 01b4 04       		.byte	0x4
 278 01b5 94010000 		.4byte	0x194
 279 01b9 0C       		.uleb128 0xc
 280 01ba 24020000 		.4byte	.LASF28
 281 01be 06       		.byte	0x6
 282 01bf 3501     		.2byte	0x135
 283 01c1 0C       		.uleb128 0xc
 284 01c2 8D010000 		.4byte	.LASF29
 285 01c6 07       		.byte	0x7
ARM GAS  /tmp/ccOhsI7F.s 			page 6


 286 01c7 EF02     		.2byte	0x2ef
 287 01c9 00       		.byte	0
 288              		.section	.debug_abbrev,"",%progbits
 289              	.Ldebug_abbrev0:
 290 0000 01       		.uleb128 0x1
 291 0001 11       		.uleb128 0x11
 292 0002 01       		.byte	0x1
 293 0003 25       		.uleb128 0x25
 294 0004 0E       		.uleb128 0xe
 295 0005 13       		.uleb128 0x13
 296 0006 0B       		.uleb128 0xb
 297 0007 03       		.uleb128 0x3
 298 0008 0E       		.uleb128 0xe
 299 0009 1B       		.uleb128 0x1b
 300 000a 0E       		.uleb128 0xe
 301 000b 55       		.uleb128 0x55
 302 000c 17       		.uleb128 0x17
 303 000d 11       		.uleb128 0x11
 304 000e 01       		.uleb128 0x1
 305 000f 10       		.uleb128 0x10
 306 0010 17       		.uleb128 0x17
 307 0011 00       		.byte	0
 308 0012 00       		.byte	0
 309 0013 02       		.uleb128 0x2
 310 0014 24       		.uleb128 0x24
 311 0015 00       		.byte	0
 312 0016 0B       		.uleb128 0xb
 313 0017 0B       		.uleb128 0xb
 314 0018 3E       		.uleb128 0x3e
 315 0019 0B       		.uleb128 0xb
 316 001a 03       		.uleb128 0x3
 317 001b 08       		.uleb128 0x8
 318 001c 00       		.byte	0
 319 001d 00       		.byte	0
 320 001e 03       		.uleb128 0x3
 321 001f 24       		.uleb128 0x24
 322 0020 00       		.byte	0
 323 0021 0B       		.uleb128 0xb
 324 0022 0B       		.uleb128 0xb
 325 0023 3E       		.uleb128 0x3e
 326 0024 0B       		.uleb128 0xb
 327 0025 03       		.uleb128 0x3
 328 0026 0E       		.uleb128 0xe
 329 0027 00       		.byte	0
 330 0028 00       		.byte	0
 331 0029 04       		.uleb128 0x4
 332 002a 16       		.uleb128 0x16
 333 002b 00       		.byte	0
 334 002c 03       		.uleb128 0x3
 335 002d 0E       		.uleb128 0xe
 336 002e 3A       		.uleb128 0x3a
 337 002f 0B       		.uleb128 0xb
 338 0030 3B       		.uleb128 0x3b
 339 0031 0B       		.uleb128 0xb
 340 0032 49       		.uleb128 0x49
 341 0033 13       		.uleb128 0x13
 342 0034 00       		.byte	0
ARM GAS  /tmp/ccOhsI7F.s 			page 7


 343 0035 00       		.byte	0
 344 0036 05       		.uleb128 0x5
 345 0037 13       		.uleb128 0x13
 346 0038 01       		.byte	0x1
 347 0039 0B       		.uleb128 0xb
 348 003a 0B       		.uleb128 0xb
 349 003b 3A       		.uleb128 0x3a
 350 003c 0B       		.uleb128 0xb
 351 003d 3B       		.uleb128 0x3b
 352 003e 0B       		.uleb128 0xb
 353 003f 01       		.uleb128 0x1
 354 0040 13       		.uleb128 0x13
 355 0041 00       		.byte	0
 356 0042 00       		.byte	0
 357 0043 06       		.uleb128 0x6
 358 0044 0D       		.uleb128 0xd
 359 0045 00       		.byte	0
 360 0046 03       		.uleb128 0x3
 361 0047 0E       		.uleb128 0xe
 362 0048 3A       		.uleb128 0x3a
 363 0049 0B       		.uleb128 0xb
 364 004a 3B       		.uleb128 0x3b
 365 004b 0B       		.uleb128 0xb
 366 004c 49       		.uleb128 0x49
 367 004d 13       		.uleb128 0x13
 368 004e 38       		.uleb128 0x38
 369 004f 0B       		.uleb128 0xb
 370 0050 00       		.byte	0
 371 0051 00       		.byte	0
 372 0052 07       		.uleb128 0x7
 373 0053 0D       		.uleb128 0xd
 374 0054 00       		.byte	0
 375 0055 03       		.uleb128 0x3
 376 0056 08       		.uleb128 0x8
 377 0057 3A       		.uleb128 0x3a
 378 0058 0B       		.uleb128 0xb
 379 0059 3B       		.uleb128 0x3b
 380 005a 0B       		.uleb128 0xb
 381 005b 49       		.uleb128 0x49
 382 005c 13       		.uleb128 0x13
 383 005d 38       		.uleb128 0x38
 384 005e 0B       		.uleb128 0xb
 385 005f 00       		.byte	0
 386 0060 00       		.byte	0
 387 0061 08       		.uleb128 0x8
 388 0062 2E       		.uleb128 0x2e
 389 0063 01       		.byte	0x1
 390 0064 3F       		.uleb128 0x3f
 391 0065 19       		.uleb128 0x19
 392 0066 03       		.uleb128 0x3
 393 0067 0E       		.uleb128 0xe
 394 0068 3A       		.uleb128 0x3a
 395 0069 0B       		.uleb128 0xb
 396 006a 3B       		.uleb128 0x3b
 397 006b 0B       		.uleb128 0xb
 398 006c 27       		.uleb128 0x27
 399 006d 19       		.uleb128 0x19
ARM GAS  /tmp/ccOhsI7F.s 			page 8


 400 006e 11       		.uleb128 0x11
 401 006f 01       		.uleb128 0x1
 402 0070 12       		.uleb128 0x12
 403 0071 06       		.uleb128 0x6
 404 0072 40       		.uleb128 0x40
 405 0073 18       		.uleb128 0x18
 406 0074 9742     		.uleb128 0x2117
 407 0076 19       		.uleb128 0x19
 408 0077 01       		.uleb128 0x1
 409 0078 13       		.uleb128 0x13
 410 0079 00       		.byte	0
 411 007a 00       		.byte	0
 412 007b 09       		.uleb128 0x9
 413 007c 898201   		.uleb128 0x4109
 414 007f 00       		.byte	0
 415 0080 11       		.uleb128 0x11
 416 0081 01       		.uleb128 0x1
 417 0082 31       		.uleb128 0x31
 418 0083 13       		.uleb128 0x13
 419 0084 00       		.byte	0
 420 0085 00       		.byte	0
 421 0086 0A       		.uleb128 0xa
 422 0087 34       		.uleb128 0x34
 423 0088 00       		.byte	0
 424 0089 03       		.uleb128 0x3
 425 008a 0E       		.uleb128 0xe
 426 008b 3A       		.uleb128 0x3a
 427 008c 0B       		.uleb128 0xb
 428 008d 3B       		.uleb128 0x3b
 429 008e 05       		.uleb128 0x5
 430 008f 49       		.uleb128 0x49
 431 0090 13       		.uleb128 0x13
 432 0091 3F       		.uleb128 0x3f
 433 0092 19       		.uleb128 0x19
 434 0093 3C       		.uleb128 0x3c
 435 0094 19       		.uleb128 0x19
 436 0095 00       		.byte	0
 437 0096 00       		.byte	0
 438 0097 0B       		.uleb128 0xb
 439 0098 26       		.uleb128 0x26
 440 0099 00       		.byte	0
 441 009a 49       		.uleb128 0x49
 442 009b 13       		.uleb128 0x13
 443 009c 00       		.byte	0
 444 009d 00       		.byte	0
 445 009e 0C       		.uleb128 0xc
 446 009f 2E       		.uleb128 0x2e
 447 00a0 00       		.byte	0
 448 00a1 3F       		.uleb128 0x3f
 449 00a2 19       		.uleb128 0x19
 450 00a3 03       		.uleb128 0x3
 451 00a4 0E       		.uleb128 0xe
 452 00a5 3A       		.uleb128 0x3a
 453 00a6 0B       		.uleb128 0xb
 454 00a7 3B       		.uleb128 0x3b
 455 00a8 05       		.uleb128 0x5
 456 00a9 27       		.uleb128 0x27
ARM GAS  /tmp/ccOhsI7F.s 			page 9


 457 00aa 19       		.uleb128 0x19
 458 00ab 3C       		.uleb128 0x3c
 459 00ac 19       		.uleb128 0x19
 460 00ad 00       		.byte	0
 461 00ae 00       		.byte	0
 462 00af 0D       		.uleb128 0xd
 463 00b0 2E       		.uleb128 0x2e
 464 00b1 01       		.byte	0x1
 465 00b2 3F       		.uleb128 0x3f
 466 00b3 19       		.uleb128 0x19
 467 00b4 03       		.uleb128 0x3
 468 00b5 0E       		.uleb128 0xe
 469 00b6 3A       		.uleb128 0x3a
 470 00b7 0B       		.uleb128 0xb
 471 00b8 3B       		.uleb128 0x3b
 472 00b9 05       		.uleb128 0x5
 473 00ba 27       		.uleb128 0x27
 474 00bb 19       		.uleb128 0x19
 475 00bc 3C       		.uleb128 0x3c
 476 00bd 19       		.uleb128 0x19
 477 00be 01       		.uleb128 0x1
 478 00bf 13       		.uleb128 0x13
 479 00c0 00       		.byte	0
 480 00c1 00       		.byte	0
 481 00c2 0E       		.uleb128 0xe
 482 00c3 05       		.uleb128 0x5
 483 00c4 00       		.byte	0
 484 00c5 49       		.uleb128 0x49
 485 00c6 13       		.uleb128 0x13
 486 00c7 00       		.byte	0
 487 00c8 00       		.byte	0
 488 00c9 0F       		.uleb128 0xf
 489 00ca 0F       		.uleb128 0xf
 490 00cb 00       		.byte	0
 491 00cc 0B       		.uleb128 0xb
 492 00cd 0B       		.uleb128 0xb
 493 00ce 49       		.uleb128 0x49
 494 00cf 13       		.uleb128 0x13
 495 00d0 00       		.byte	0
 496 00d1 00       		.byte	0
 497 00d2 00       		.byte	0
 498              		.section	.debug_aranges,"",%progbits
 499 0000 1C000000 		.4byte	0x1c
 500 0004 0200     		.2byte	0x2
 501 0006 00000000 		.4byte	.Ldebug_info0
 502 000a 04       		.byte	0x4
 503 000b 00       		.byte	0
 504 000c 0000     		.2byte	0
 505 000e 0000     		.2byte	0
 506 0010 00000000 		.4byte	.LFB40
 507 0014 1C000000 		.4byte	.LFE40-.LFB40
 508 0018 00000000 		.4byte	0
 509 001c 00000000 		.4byte	0
 510              		.section	.debug_ranges,"",%progbits
 511              	.Ldebug_ranges0:
 512 0000 00000000 		.4byte	.LFB40
 513 0004 1C000000 		.4byte	.LFE40
ARM GAS  /tmp/ccOhsI7F.s 			page 10


 514 0008 00000000 		.4byte	0
 515 000c 00000000 		.4byte	0
 516              		.section	.debug_line,"",%progbits
 517              	.Ldebug_line0:
 518 0000 5A010000 		.section	.debug_str,"MS",%progbits,1
 518      02003801 
 518      00000201 
 518      FB0E0D00 
 518      01010101 
 519              	.LASF24:
 520 0000 50444461 		.ascii	"PDData\000"
 520      746100
 521              	.LASF16:
 522 0007 6F737065 		.ascii	"ospeedr\000"
 522      65647200 
 523              	.LASF22:
 524 000f 50424461 		.ascii	"PBData\000"
 524      746100
 525              	.LASF35:
 526 0016 5F70616C 		.ascii	"_pal_lld_init\000"
 526      5F6C6C64 
 526      5F696E69 
 526      7400
 527              	.LASF4:
 528 0024 73686F72 		.ascii	"short unsigned int\000"
 528      7420756E 
 528      7369676E 
 528      65642069 
 528      6E7400
 529              	.LASF15:
 530 0037 6F747970 		.ascii	"otyper\000"
 530      657200
 531              	.LASF30:
 532 003e 474E5520 		.ascii	"GNU C 4.8.2 -mcpu=cortex-m0 -mno-thumb-interwork -m"
 532      4320342E 
 532      382E3220 
 532      2D6D6370 
 532      753D636F 
 533 0071 7468756D 		.ascii	"thumb -ggdb -O2 -fomit-frame-pointer -falign-functi"
 533      62202D67 
 533      67646220 
 533      2D4F3220 
 533      2D666F6D 
 534 00a4 6F6E733D 		.ascii	"ons=16 -ffunction-sections -fdata-sections -fno-com"
 534      3136202D 
 534      6666756E 
 534      6374696F 
 534      6E2D7365 
 535 00d7 6D6F6E00 		.ascii	"mon\000"
 536              	.LASF33:
 537 00db 68616C49 		.ascii	"halInit\000"
 537      6E697400 
 538              	.LASF2:
 539 00e3 756E7369 		.ascii	"unsigned char\000"
 539      676E6564 
 539      20636861 
 539      7200
ARM GAS  /tmp/ccOhsI7F.s 			page 11


 540              	.LASF20:
 541 00f1 73746D33 		.ascii	"stm32_gpio_setup_t\000"
 541      325F6770 
 541      696F5F73 
 541      65747570 
 541      5F7400
 542              	.LASF21:
 543 0104 50414461 		.ascii	"PAData\000"
 543      746100
 544              	.LASF6:
 545 010b 6C6F6E67 		.ascii	"long unsigned int\000"
 545      20756E73 
 545      69676E65 
 545      6420696E 
 545      7400
 546              	.LASF27:
 547 011d 68616C5F 		.ascii	"hal_lld_init\000"
 547      6C6C645F 
 547      696E6974 
 547      00
 548              	.LASF19:
 549 012a 61667268 		.ascii	"afrh\000"
 549      00
 550              	.LASF18:
 551 012f 6166726C 		.ascii	"afrl\000"
 551      00
 552              	.LASF26:
 553 0134 50414C43 		.ascii	"PALConfig\000"
 553      6F6E6669 
 553      6700
 554              	.LASF34:
 555 013e 70616C5F 		.ascii	"pal_default_config\000"
 555      64656661 
 555      756C745F 
 555      636F6E66 
 555      696700
 556              	.LASF9:
 557 0151 5F5F7569 		.ascii	"__uint32_t\000"
 557      6E743332 
 557      5F7400
 558              	.LASF17:
 559 015c 70757064 		.ascii	"pupdr\000"
 559      7200
 560              	.LASF25:
 561 0162 50464461 		.ascii	"PFData\000"
 561      746100
 562              	.LASF0:
 563 0169 756E7369 		.ascii	"unsigned int\000"
 563      676E6564 
 563      20696E74 
 563      00
 564              	.LASF8:
 565 0176 6C6F6E67 		.ascii	"long long unsigned int\000"
 565      206C6F6E 
 565      6720756E 
 565      7369676E 
 565      65642069 
ARM GAS  /tmp/ccOhsI7F.s 			page 12


 566              	.LASF29:
 567 018d 626F6172 		.ascii	"boardInit\000"
 567      64496E69 
 567      7400
 568              	.LASF32:
 569 0197 2F686F6D 		.ascii	"/home/ece497/vbox-shared/mplayer/ChibiOS-RT-stable_"
 569      652F6563 
 569      65343937 
 569      2F76626F 
 569      782D7368 
 570 01ca 322E362E 		.ascii	"2.6.x/demos/ARMCM0-STM32F051-DISCOVERY\000"
 570      782F6465 
 570      6D6F732F 
 570      41524D43 
 570      4D302D53 
 571              	.LASF31:
 572 01f1 2E2E2F2E 		.ascii	"../../os/hal/src/hal.c\000"
 572      2E2F6F73 
 572      2F68616C 
 572      2F737263 
 572      2F68616C 
 573              	.LASF12:
 574 0208 73697A65 		.ascii	"sizetype\000"
 574      74797065 
 574      00
 575              	.LASF7:
 576 0211 6C6F6E67 		.ascii	"long long int\000"
 576      206C6F6E 
 576      6720696E 
 576      7400
 577              	.LASF13:
 578 021f 63686172 		.ascii	"char\000"
 578      00
 579              	.LASF28:
 580 0224 7364496E 		.ascii	"sdInit\000"
 580      697400
 581              	.LASF3:
 582 022b 73686F72 		.ascii	"short int\000"
 582      7420696E 
 582      7400
 583              	.LASF23:
 584 0235 50434461 		.ascii	"PCData\000"
 584      746100
 585              	.LASF10:
 586 023c 75696E74 		.ascii	"uint32_t\000"
 586      33325F74 
 586      00
 587              	.LASF5:
 588 0245 6C6F6E67 		.ascii	"long int\000"
 588      20696E74 
 588      00
 589              	.LASF14:
 590 024e 6D6F6465 		.ascii	"moder\000"
 590      7200
 591              	.LASF1:
 592 0254 7369676E 		.ascii	"signed char\000"
 592      65642063 
ARM GAS  /tmp/ccOhsI7F.s 			page 13


 592      68617200 
 593              	.LASF11:
 594 0260 5F426F6F 		.ascii	"_Bool\000"
 594      6C00
 595              		.ident	"GCC: (Arch Repository) 4.8.2"
ARM GAS  /tmp/ccOhsI7F.s 			page 14


DEFINED SYMBOLS
                            *ABS*:0000000000000000 hal.c
     /tmp/ccOhsI7F.s:18     .text.halInit:0000000000000000 $t
     /tmp/ccOhsI7F.s:24     .text.halInit:0000000000000000 halInit
     /tmp/ccOhsI7F.s:53     .text.halInit:0000000000000018 $d
                     .debug_frame:0000000000000010 $d
     /tmp/ccOhsI7F.s:57     .text.halInit:000000000000001c $t

UNDEFINED SYMBOLS
hal_lld_init
_pal_lld_init
sdInit
boardInit
pal_default_config
