ARM GAS  /tmp/cciuqYDQ.s 			page 1


   1              		.cpu cortex-m0
   2              		.fpu softvfp
   3              		.eabi_attribute 20, 1
   4              		.eabi_attribute 21, 1
   5              		.eabi_attribute 23, 3
   6              		.eabi_attribute 24, 1
   7              		.eabi_attribute 25, 1
   8              		.eabi_attribute 26, 1
   9              		.eabi_attribute 30, 2
  10              		.eabi_attribute 34, 0
  11              		.eabi_attribute 18, 4
  12              		.code	16
  13              		.file	"hal_lld.c"
  14              		.text
  15              	.Ltext0:
  16              		.cfi_sections	.debug_frame
  17              		.section	.text.hal_lld_init,"ax",%progbits
  18              		.align	2
  19              		.p2align 4,,15
  20              		.global	hal_lld_init
  21              		.code	16
  22              		.thumb_func
  23              		.type	hal_lld_init, %function
  24              	hal_lld_init:
  25              	.LFB41:
  26              		.file 1 "../../os/hal/platforms/STM32F0xx/hal_lld.c"
  27              		.loc 1 100 0
  28              		.cfi_startproc
  29              		.loc 1 103 0
  30 0000 1C4B     		ldr	r3, .L5
  31              		.loc 1 100 0
  32 0002 10B5     		push	{r4, lr}
  33              		.cfi_def_cfa_offset 8
  34              		.cfi_offset 4, -8
  35              		.cfi_offset 14, -4
  36              		.loc 1 103 0
  37 0004 1A69     		ldr	r2, [r3, #16]
  38 0006 0122     		mov	r2, #1
  39 0008 5242     		neg	r2, r2
  40 000a 1A61     		str	r2, [r3, #16]
  41 000c 0022     		mov	r2, #0
  42 000e 1A61     		str	r2, [r3, #16]
  43              		.loc 1 104 0
  44 0010 D968     		ldr	r1, [r3, #12]
  45 0012 1948     		ldr	r0, .L5+4
  46 0014 0143     		orr	r1, r0
  47 0016 D960     		str	r1, [r3, #12]
  48              		.loc 1 107 0
  49 0018 1848     		ldr	r0, .L5+8
  50 001a 1949     		ldr	r1, .L5+12
  51              		.loc 1 104 0
  52 001c DA60     		str	r2, [r3, #12]
  53              		.loc 1 107 0
  54 001e 4860     		str	r0, [r1, #4]
  55              		.loc 1 109 0
  56 0020 0720     		mov	r0, #7
  57              		.loc 1 108 0
ARM GAS  /tmp/cciuqYDQ.s 			page 2


  58 0022 8A60     		str	r2, [r1, #8]
  59              		.loc 1 109 0
  60 0024 0860     		str	r0, [r1]
  61              		.loc 1 114 0
  62 0026 D869     		ldr	r0, [r3, #28]
  63 0028 8021     		mov	r1, #128
  64 002a 4905     		lsl	r1, r1, #21
  65 002c 0143     		orr	r1, r0
  66 002e D961     		str	r1, [r3, #28]
  67              	.LBB4:
  68              	.LBB5:
  69              		.loc 1 52 0
  70 0030 1449     		ldr	r1, .L5+16
  71 0032 8020     		mov	r0, #128
  72 0034 0C68     		ldr	r4, [r1]
  73 0036 4000     		lsl	r0, r0, #1
  74 0038 2043     		orr	r0, r4
  75 003a 0860     		str	r0, [r1]
  76              		.loc 1 55 0
  77 003c 196A     		ldr	r1, [r3, #32]
  78 003e C020     		mov	r0, #192
  79 0040 8000     		lsl	r0, r0, #2
  80 0042 0840     		and	r0, r1
  81 0044 8021     		mov	r1, #128
  82 0046 8900     		lsl	r1, r1, #2
  83 0048 8842     		cmp	r0, r1
  84 004a 03D0     		beq	.L2
  85              		.loc 1 57 0
  86 004c 8021     		mov	r1, #128
  87 004e 4902     		lsl	r1, r1, #9
  88 0050 1962     		str	r1, [r3, #32]
  89              		.loc 1 58 0
  90 0052 1A62     		str	r2, [r3, #32]
  91              	.L2:
  92              		.loc 1 77 0
  93 0054 074B     		ldr	r3, .L5
  94 0056 8022     		mov	r2, #128
  95 0058 196A     		ldr	r1, [r3, #32]
  96 005a 1202     		lsl	r2, r2, #8
  97 005c 1142     		tst	r1, r2
  98 005e 07D1     		bne	.L1
  99              		.loc 1 79 0
 100 0060 186A     		ldr	r0, [r3, #32]
 101 0062 8021     		mov	r1, #128
 102 0064 8900     		lsl	r1, r1, #2
 103 0066 0143     		orr	r1, r0
 104 0068 1962     		str	r1, [r3, #32]
 105              		.loc 1 82 0
 106 006a 196A     		ldr	r1, [r3, #32]
 107 006c 0A43     		orr	r2, r1
 108 006e 1A62     		str	r2, [r3, #32]
 109              	.L1:
 110              	.LBE5:
 111              	.LBE4:
 112              		.loc 1 127 0
 113              		@ sp needed
 114 0070 10BD     		pop	{r4, pc}
ARM GAS  /tmp/cciuqYDQ.s 			page 3


 115              	.L6:
 116 0072 C046     		.align	2
 117              	.L5:
 118 0074 00100240 		.word	1073876992
 119 0078 FFFFBFFF 		.word	-4194305
 120 007c 7FBB0000 		.word	47999
 121 0080 10E000E0 		.word	-536813552
 122 0084 00700040 		.word	1073770496
 123              		.cfi_endproc
 124              	.LFE41:
 125              		.size	hal_lld_init, .-hal_lld_init
 126 0088 C046C046 		.section	.text.stm32_clock_init,"ax",%progbits
 126      C046C046 
 127              		.align	2
 128              		.p2align 4,,15
 129              		.global	stm32_clock_init
 130              		.code	16
 131              		.thumb_func
 132              		.type	stm32_clock_init, %function
 133              	stm32_clock_init:
 134              	.LFB42:
 135              		.loc 1 136 0
 136              		.cfi_startproc
 137              		.loc 1 141 0
 138 0000 2048     		ldr	r0, .L18
 139 0002 0123     		mov	r3, #1
 140 0004 0268     		ldr	r2, [r0]
 141              		.loc 1 136 0
 142 0006 00B5     		push	{lr}
 143              		.cfi_def_cfa_offset 4
 144              		.cfi_offset 14, -4
 145              		.loc 1 141 0
 146 0008 1343     		orr	r3, r2
 147 000a 0360     		str	r3, [r0]
 148              		.loc 1 142 0
 149 000c 0221     		mov	r1, #2
 150              	.L9:
 151              		.loc 1 142 0 is_stmt 0 discriminator 1
 152 000e 0368     		ldr	r3, [r0]
 153 0010 1C4A     		ldr	r2, .L18
 154 0012 1942     		tst	r1, r3
 155 0014 FBD0     		beq	.L9
 156              		.loc 1 144 0 is_stmt 1
 157 0016 1368     		ldr	r3, [r2]
 158 0018 F921     		mov	r1, #249
 159 001a 0B40     		and	r3, r1
 160 001c 1360     		str	r3, [r2]
 161              		.loc 1 145 0
 162 001e 0023     		mov	r3, #0
 163 0020 5360     		str	r3, [r2, #4]
 164              		.loc 1 146 0
 165 0022 0C20     		mov	r0, #12
 166              	.L11:
 167              		.loc 1 146 0 is_stmt 0 discriminator 1
 168 0024 5368     		ldr	r3, [r2, #4]
 169 0026 1749     		ldr	r1, .L18
 170 0028 1842     		tst	r0, r3
ARM GAS  /tmp/cciuqYDQ.s 			page 4


 171 002a FBD1     		bne	.L11
 172              		.loc 1 171 0 is_stmt 1
 173 002c 4A6A     		ldr	r2, [r1, #36]
 174 002e 0123     		mov	r3, #1
 175 0030 1343     		orr	r3, r2
 176 0032 4B62     		str	r3, [r1, #36]
 177              		.loc 1 172 0
 178 0034 0220     		mov	r0, #2
 179              	.L13:
 180              		.loc 1 172 0 is_stmt 0 discriminator 1
 181 0036 4B6A     		ldr	r3, [r1, #36]
 182 0038 124A     		ldr	r2, .L18
 183 003a 1842     		tst	r0, r3
 184 003c FBD0     		beq	.L13
 185              		.loc 1 177 0 is_stmt 1
 186 003e A123     		mov	r3, #161
 187 0040 9B03     		lsl	r3, r3, #14
 188 0042 5360     		str	r3, [r2, #4]
 189              		.loc 1 179 0
 190 0044 0023     		mov	r3, #0
 191 0046 D362     		str	r3, [r2, #44]
 192              		.loc 1 180 0
 193 0048 1363     		str	r3, [r2, #48]
 194              		.loc 1 185 0
 195 004a 1168     		ldr	r1, [r2]
 196 004c 8023     		mov	r3, #128
 197 004e 5B04     		lsl	r3, r3, #17
 198 0050 0B43     		orr	r3, r1
 199              		.loc 1 186 0
 200 0052 8020     		mov	r0, #128
 201              		.loc 1 185 0
 202 0054 1360     		str	r3, [r2]
 203              		.loc 1 186 0
 204 0056 8004     		lsl	r0, r0, #18
 205              	.L15:
 206              		.loc 1 186 0 is_stmt 0 discriminator 1
 207 0058 1368     		ldr	r3, [r2]
 208 005a 0A49     		ldr	r1, .L18
 209 005c 0342     		tst	r3, r0
 210 005e FBD0     		beq	.L15
 211              		.loc 1 191 0 is_stmt 1
 212 0060 094B     		ldr	r3, .L18+4
 213 0062 1122     		mov	r2, #17
 214 0064 1A60     		str	r2, [r3]
 215              		.loc 1 196 0
 216 0066 4A68     		ldr	r2, [r1, #4]
 217 0068 0223     		mov	r3, #2
 218 006a 1343     		orr	r3, r2
 219 006c 4B60     		str	r3, [r1, #4]
 220              		.loc 1 197 0
 221 006e 0C20     		mov	r0, #12
 222              	.L17:
 223              		.loc 1 197 0 is_stmt 0 discriminator 1
 224 0070 4B68     		ldr	r3, [r1, #4]
 225 0072 044A     		ldr	r2, .L18
 226 0074 0340     		and	r3, r0
 227 0076 082B     		cmp	r3, #8
ARM GAS  /tmp/cciuqYDQ.s 			page 5


 228 0078 FAD1     		bne	.L17
 229              		.loc 1 203 0 is_stmt 1
 230 007a 9169     		ldr	r1, [r2, #24]
 231 007c 0123     		mov	r3, #1
 232 007e 0B43     		orr	r3, r1
 233 0080 9361     		str	r3, [r2, #24]
 234              		.loc 1 205 0
 235              		@ sp needed
 236 0082 00BD     		pop	{pc}
 237              	.L19:
 238              		.align	2
 239              	.L18:
 240 0084 00100240 		.word	1073876992
 241 0088 00200240 		.word	1073881088
 242              		.cfi_endproc
 243              	.LFE42:
 244              		.size	stm32_clock_init, .-stm32_clock_init
 245 008c C046C046 		.text
 246              	.Letext0:
 247              		.file 2 "/usr/arm-none-eabi/include/machine/_default_types.h"
 248              		.file 3 "/usr/arm-none-eabi/include/stdint.h"
 249              		.file 4 "../../os/ports/common/ARMCMx/CMSIS/include/core_cm0.h"
 250              		.file 5 "../../os/hal/platforms/STM32F0xx/stm32f0xx.h"