ARM GAS  /tmp/ccty5VNI.s 			page 1


   1              		.cpu cortex-m0
   2              		.fpu softvfp
   3              		.eabi_attribute 20, 1
   4              		.eabi_attribute 21, 1
   5              		.eabi_attribute 23, 3
   6              		.eabi_attribute 24, 1
   7              		.eabi_attribute 25, 1
   8              		.eabi_attribute 26, 1
   9              		.eabi_attribute 30, 2
  10              		.eabi_attribute 34, 0
  11              		.eabi_attribute 18, 4
  12              		.code	16
  13              		.file	"main.c"
  14              		.text
  15              	.Ltext0:
  16              		.cfi_sections	.debug_frame
  17              		.section	.text.Thread2,"ax",%progbits
  18              		.align	2
  19              		.p2align 4,,15
  20              		.code	16
  21              		.thumb_func
  22              		.type	Thread2, %function
  23              	Thread2:
  24              	.LFB41:
  25              		.file 1 "main.c"
  26              		.loc 1 41 0
  27              		.cfi_startproc
  28              	.LVL0:
  29              		.loc 1 44 0
  30 0000 084B     		ldr	r3, .L4
  31              		.loc 1 41 0
  32 0002 70B5     		push	{r4, r5, r6, lr}
  33              		.cfi_def_cfa_offset 16
  34              		.cfi_offset 4, -16
  35              		.cfi_offset 5, -12
  36              		.cfi_offset 6, -8
  37              		.cfi_offset 14, -4
  38              		.loc 1 44 0
  39 0004 9B69     		ldr	r3, [r3, #24]
  40 0006 084A     		ldr	r2, .L4+4
  41              		.loc 1 46 0
  42 0008 8025     		mov	r5, #128
  43 000a AD00     		lsl	r5, r5, #2
  44 000c 074C     		ldr	r4, .L4+8
  45              		.loc 1 44 0
  46 000e 9A61     		str	r2, [r3, #24]
  47              		.loc 1 46 0
  48 0010 2E1C     		add	r6, r5, #0
  49              	.LVL1:
  50              	.L2:
  51              		.loc 1 46 0 is_stmt 0 discriminator 1
  52 0012 6683     		strh	r6, [r4, #26]
  53              		.loc 1 47 0 is_stmt 1 discriminator 1
  54 0014 FA20     		mov	r0, #250
  55 0016 FFF7FEFF 		bl	chThdSleep
  56              	.LVL2:
  57              		.loc 1 48 0 discriminator 1
ARM GAS  /tmp/ccty5VNI.s 			page 2


  58 001a 2583     		strh	r5, [r4, #24]
  59              		.loc 1 49 0 discriminator 1
  60 001c FA20     		mov	r0, #250
  61 001e FFF7FEFF 		bl	chThdSleep
  62              	.LVL3:
  63 0022 F6E7     		b	.L2
  64              	.L5:
  65              		.align	2
  66              	.L4:
  67 0024 00000000 		.word	rlist
  68 0028 00000000 		.word	.LC1
  69 002c 00080048 		.word	1207961600
  70              		.cfi_endproc
  71              	.LFE41:
  72              		.size	Thread2, .-Thread2
  73              		.section	.text.Thread1,"ax",%progbits
  74              		.align	2
  75              		.p2align 4,,15
  76              		.code	16
  77              		.thumb_func
  78              		.type	Thread1, %function
  79              	Thread1:
  80              	.LFB40:
  81              		.loc 1 25 0
  82              		.cfi_startproc
  83              	.LVL4:
  84              		.loc 1 28 0
  85 0000 094B     		ldr	r3, .L8
  86              		.loc 1 25 0
  87 0002 70B5     		push	{r4, r5, r6, lr}
  88              		.cfi_def_cfa_offset 16
  89              		.cfi_offset 4, -16
  90              		.cfi_offset 5, -12
  91              		.cfi_offset 6, -8
  92              		.cfi_offset 14, -4
  93              		.loc 1 28 0
  94 0004 9B69     		ldr	r3, [r3, #24]
  95 0006 094A     		ldr	r2, .L8+4
  96              		.loc 1 30 0
  97 0008 8025     		mov	r5, #128
  98 000a 6D00     		lsl	r5, r5, #1
  99 000c 084C     		ldr	r4, .L8+8
 100              		.loc 1 28 0
 101 000e 9A61     		str	r2, [r3, #24]
 102              		.loc 1 30 0
 103 0010 2E1C     		add	r6, r5, #0
 104              	.LVL5:
 105              	.L7:
 106              		.loc 1 31 0 discriminator 1
 107 0012 FA20     		mov	r0, #250
 108              		.loc 1 30 0 discriminator 1
 109 0014 6683     		strh	r6, [r4, #26]
 110              		.loc 1 31 0 discriminator 1
 111 0016 4000     		lsl	r0, r0, #1
 112 0018 FFF7FEFF 		bl	chThdSleep
 113              	.LVL6:
 114              		.loc 1 33 0 discriminator 1
ARM GAS  /tmp/ccty5VNI.s 			page 3


 115 001c FA20     		mov	r0, #250
 116              		.loc 1 32 0 discriminator 1
 117 001e 2583     		strh	r5, [r4, #24]
 118              		.loc 1 33 0 discriminator 1
 119 0020 4000     		lsl	r0, r0, #1
 120 0022 FFF7FEFF 		bl	chThdSleep
 121              	.LVL7:
 122 0026 F4E7     		b	.L7
 123              	.L9:
 124              		.align	2
 125              	.L8:
 126 0028 00000000 		.word	rlist
 127 002c 0C000000 		.word	.LC4
 128 0030 00080048 		.word	1207961600
 129              		.cfi_endproc
 130              	.LFE40:
 131              		.size	Thread1, .-Thread1
 132 0034 C046C046 		.section	.text.startup.main,"ax",%progbits
 132      C046C046 
 132      C046C046 
 133              		.align	2
 134              		.p2align 4,,15
 135              		.global	main
 136              		.code	16
 137              		.thumb_func
 138              		.type	main, %function
 139              	main:
 140              	.LFB42:
 141              		.loc 1 56 0
 142              		.cfi_startproc
 143 0000 70B5     		push	{r4, r5, r6, lr}
 144              		.cfi_def_cfa_offset 16
 145              		.cfi_offset 4, -16
 146              		.cfi_offset 5, -12
 147              		.cfi_offset 6, -8
 148              		.cfi_offset 14, -4
 149 0002 82B0     		sub	sp, sp, #8
 150              		.cfi_def_cfa_offset 24
 151              		.loc 1 65 0
 152 0004 FFF7FEFF 		bl	halInit
 153              	.LVL8:
 154              		.loc 1 66 0
 155 0008 FFF7FEFF 		bl	chSysInit
 156              	.LVL9:
 157              		.loc 1 72 0
 158 000c 194E     		ldr	r6, .L16
 159 000e 0021     		mov	r1, #0
 160 0010 301C     		mov	r0, r6
 161 0012 FFF7FEFF 		bl	sdStart
 162              	.LVL10:
 163              		.loc 1 73 0
 164 0016 9020     		mov	r0, #144
 165 0018 8021     		mov	r1, #128
 166 001a C005     		lsl	r0, r0, #23
 167 001c 8900     		lsl	r1, r1, #2
 168 001e 8222     		mov	r2, #130
 169 0020 FFF7FEFF 		bl	_pal_lld_setgroupmode
ARM GAS  /tmp/ccty5VNI.s 			page 4


 170              	.LVL11:
 171              		.loc 1 74 0
 172 0024 9020     		mov	r0, #144
 173 0026 8021     		mov	r1, #128
 174 0028 C005     		lsl	r0, r0, #23
 175 002a C900     		lsl	r1, r1, #3
 176 002c 8222     		mov	r2, #130
 177 002e FFF7FEFF 		bl	_pal_lld_setgroupmode
 178              	.LVL12:
 179              		.loc 1 79 0
 180 0032 0024     		mov	r4, #0
 181 0034 9821     		mov	r1, #152
 182 0036 0094     		str	r4, [sp]
 183 0038 4900     		lsl	r1, r1, #1
 184 003a 4022     		mov	r2, #64
 185 003c 0E4B     		ldr	r3, .L16+4
 186 003e 0F48     		ldr	r0, .L16+8
 187 0040 FFF7FEFF 		bl	chThdCreateStatic
 188              	.LVL13:
 189              		.loc 1 80 0
 190 0044 9821     		mov	r1, #152
 191 0046 0094     		str	r4, [sp]
 192 0048 0D48     		ldr	r0, .L16+12
 193 004a 4900     		lsl	r1, r1, #1
 194 004c 4022     		mov	r2, #64
 195 004e 0D4B     		ldr	r3, .L16+16
 196              		.loc 1 89 0
 197 0050 9025     		mov	r5, #144
 198              		.loc 1 80 0
 199 0052 FFF7FEFF 		bl	chThdCreateStatic
 200              	.LVL14:
 201              		.loc 1 89 0
 202 0056 ED05     		lsl	r5, r5, #23
 203 0058 0124     		mov	r4, #1
 204 005a 03E0     		b	.L12
 205              	.L11:
 206              		.loc 1 91 0
 207 005c FA20     		mov	r0, #250
 208 005e 4000     		lsl	r0, r0, #1
 209 0060 FFF7FEFF 		bl	chThdSleep
 210              	.LVL15:
 211              	.L12:
 212              		.loc 1 89 0
 213 0064 2B69     		ldr	r3, [r5, #16]
 214 0066 1C42     		tst	r4, r3
 215 0068 F8D0     		beq	.L11
 216              		.loc 1 90 0
 217 006a 301C     		mov	r0, r6
 218 006c FFF7FEFF 		bl	TestThread
 219              	.LVL16:
 220 0070 F4E7     		b	.L11
 221              	.L17:
 222 0072 C046     		.align	2
 223              	.L16:
 224 0074 00000000 		.word	SD1
 225 0078 00000000 		.word	Thread1
 226 007c 00000000 		.word	.LANCHOR0
ARM GAS  /tmp/ccty5VNI.s 			page 5


 227 0080 00000000 		.word	.LANCHOR1
 228 0084 00000000 		.word	Thread2
 229              		.cfi_endproc
 230              	.LFE42:
 231              		.size	main, .-main
 232 0088 C046C046 		.section	.bss.waThread1,"aw",%nobits
 232      C046C046 
 233              		.align	3
 234              		.set	.LANCHOR0,. + 0
 235              		.type	waThread1, %object
 236              		.size	waThread1, 304
 237              	waThread1:
 238 0000 00000000 		.space	304
 238      00000000 
 238      00000000 
 238      00000000 
 238      00000000 
 239              		.section	.bss.waThread2,"aw",%nobits
 240              		.align	3
 241              		.set	.LANCHOR1,. + 0
 242              		.type	waThread2, %object
 243              		.size	waThread2, 304
 244              	waThread2:
 245 0000 00000000 		.space	304
 245      00000000 
 245      00000000 
 245      00000000 
 245      00000000 
 246              		.section	.rodata.str1.4,"aMS",%progbits,1
 247              		.align	2
 248              	.LC1:
 249 0000 626C696E 		.ascii	"blinker2\000"
 249      6B657232 
 249      00
 250 0009 000000   		.space	3
 251              	.LC4:
 252 000c 626C696E 		.ascii	"blinker1\000"
 252      6B657231 
 252      00
 253 0015 000000   		.text
 254              	.Letext0:
 255              		.file 2 "/usr/lib/gcc/arm-none-eabi/4.8.2/include/stddef.h"
 256              		.file 3 "/usr/arm-none-eabi/include/machine/_default_types.h"
 257              		.file 4 "/usr/arm-none-eabi/include/stdint.h"
 258              		.file 5 "../../os/ports/GCC/ARMCMx/chtypes.h"
 259              		.file 6 "../../os/kernel/include/chlists.h"
 260              		.file 7 "../../os/kernel/include/chthreads.h"
 261              		.file 8 "../../os/ports/GCC/ARMCMx/chcore_v6m.h"
 262              		.file 9 "../../os/kernel/include/chschd.h"
 263              		.file 10 "../../os/kernel/include/chmtx.h"
 264              		.file 11 "../../os/kernel/include/chevents.h"
 265              		.file 12 "../../os/kernel/include/chqueues.h"
 266              		.file 13 "../../os/hal/platforms/STM32F0xx/stm32f0xx.h"
 267              		.file 14 "../../os/hal/platforms/STM32/GPIOv2/pal_lld.h"
 268              		.file 15 "../../os/hal/include/serial.h"
 269              		.file 16 "../../os/hal/platforms/STM32/USARTv2/serial_lld.h"
 270              		.file 17 "../../os/hal/include/hal.h"
ARM GAS  /tmp/ccty5VNI.s 			page 6


 271              		.file 18 "../../os/kernel/include/chsys.h"
 272              		.file 19 "../../test/test.h"
 273              		.section	.debug_info,"",%progbits
 274              	.Ldebug_info0:
 275 0000 690C0000 		.4byte	0xc69
 276 0004 0400     		.2byte	0x4
 277 0006 00000000 		.4byte	.Ldebug_abbrev0
 278 000a 04       		.byte	0x4
 279 000b 01       		.uleb128 0x1
 280 000c CD010000 		.4byte	.LASF145
 281 0010 01       		.byte	0x1
 282 0011 23000000 		.4byte	.LASF146
 283 0015 46000000 		.4byte	.LASF147
 284 0019 00000000 		.4byte	.Ldebug_ranges0+0
 285 001d 00000000 		.4byte	0
 286 0021 00000000 		.4byte	.Ldebug_line0
 287 0025 02       		.uleb128 0x2
 288 0026 04       		.byte	0x4
 289 0027 05       		.byte	0x5
 290 0028 696E7400 		.ascii	"int\000"
 291 002c 03       		.uleb128 0x3
 292 002d 7B020000 		.4byte	.LASF2
 293 0031 02       		.byte	0x2
 294 0032 D4       		.byte	0xd4
 295 0033 37000000 		.4byte	0x37
 296 0037 04       		.uleb128 0x4
 297 0038 04       		.byte	0x4
 298 0039 07       		.byte	0x7
 299 003a BD000000 		.4byte	.LASF0
 300 003e 04       		.uleb128 0x4
 301 003f 01       		.byte	0x1
 302 0040 06       		.byte	0x6
 303 0041 E3050000 		.4byte	.LASF1
 304 0045 03       		.uleb128 0x3
 305 0046 DB040000 		.4byte	.LASF3
 306 004a 03       		.byte	0x3
 307 004b 1C       		.byte	0x1c
 308 004c 50000000 		.4byte	0x50
 309 0050 04       		.uleb128 0x4
 310 0051 01       		.byte	0x1
 311 0052 08       		.byte	0x8
 312 0053 76050000 		.4byte	.LASF4
 313 0057 04       		.uleb128 0x4
 314 0058 02       		.byte	0x2
 315 0059 05       		.byte	0x5
 316 005a 88040000 		.4byte	.LASF5
 317 005e 03       		.uleb128 0x3
 318 005f 92010000 		.4byte	.LASF6
 319 0063 03       		.byte	0x3
 320 0064 26       		.byte	0x26
 321 0065 69000000 		.4byte	0x69
 322 0069 04       		.uleb128 0x4
 323 006a 02       		.byte	0x2
 324 006b 07       		.byte	0x7
 325 006c F5050000 		.4byte	.LASF7
 326 0070 03       		.uleb128 0x3
 327 0071 E8000000 		.4byte	.LASF8
ARM GAS  /tmp/ccty5VNI.s 			page 7


 328 0075 03       		.byte	0x3
 329 0076 37       		.byte	0x37
 330 0077 7B000000 		.4byte	0x7b
 331 007b 04       		.uleb128 0x4
 332 007c 04       		.byte	0x4
 333 007d 05       		.byte	0x5
 334 007e AF040000 		.4byte	.LASF9
 335 0082 03       		.uleb128 0x3
 336 0083 84050000 		.4byte	.LASF10
 337 0087 03       		.byte	0x3
 338 0088 38       		.byte	0x38
 339 0089 8D000000 		.4byte	0x8d
 340 008d 04       		.uleb128 0x4
 341 008e 04       		.byte	0x4
 342 008f 07       		.byte	0x7
 343 0090 48050000 		.4byte	.LASF11
 344 0094 04       		.uleb128 0x4
 345 0095 08       		.byte	0x8
 346 0096 05       		.byte	0x5
 347 0097 79030000 		.4byte	.LASF12
 348 009b 03       		.uleb128 0x3
 349 009c 97020000 		.4byte	.LASF13
 350 00a0 03       		.byte	0x3
 351 00a1 4E       		.byte	0x4e
 352 00a2 A6000000 		.4byte	0xa6
 353 00a6 04       		.uleb128 0x4
 354 00a7 08       		.byte	0x8
 355 00a8 07       		.byte	0x7
 356 00a9 7B010000 		.4byte	.LASF14
 357 00ad 03       		.uleb128 0x3
 358 00ae 48030000 		.4byte	.LASF15
 359 00b2 04       		.byte	0x4
 360 00b3 2A       		.byte	0x2a
 361 00b4 45000000 		.4byte	0x45
 362 00b8 03       		.uleb128 0x3
 363 00b9 22040000 		.4byte	.LASF16
 364 00bd 04       		.byte	0x4
 365 00be 36       		.byte	0x36
 366 00bf 5E000000 		.4byte	0x5e
 367 00c3 03       		.uleb128 0x3
 368 00c4 5A050000 		.4byte	.LASF17
 369 00c8 04       		.byte	0x4
 370 00c9 41       		.byte	0x41
 371 00ca 70000000 		.4byte	0x70
 372 00ce 03       		.uleb128 0x3
 373 00cf 32010000 		.4byte	.LASF18
 374 00d3 04       		.byte	0x4
 375 00d4 42       		.byte	0x42
 376 00d5 82000000 		.4byte	0x82
 377 00d9 03       		.uleb128 0x3
 378 00da C6040000 		.4byte	.LASF19
 379 00de 04       		.byte	0x4
 380 00df 4E       		.byte	0x4e
 381 00e0 9B000000 		.4byte	0x9b
 382 00e4 04       		.uleb128 0x4
 383 00e5 01       		.byte	0x1
 384 00e6 02       		.byte	0x2
ARM GAS  /tmp/ccty5VNI.s 			page 8


 385 00e7 89020000 		.4byte	.LASF20
 386 00eb 03       		.uleb128 0x3
 387 00ec FE030000 		.4byte	.LASF21
 388 00f0 05       		.byte	0x5
 389 00f1 2C       		.byte	0x2c
 390 00f2 AD000000 		.4byte	0xad
 391 00f6 03       		.uleb128 0x3
 392 00f7 27030000 		.4byte	.LASF22
 393 00fb 05       		.byte	0x5
 394 00fc 2D       		.byte	0x2d
 395 00fd AD000000 		.4byte	0xad
 396 0101 03       		.uleb128 0x3
 397 0102 32050000 		.4byte	.LASF23
 398 0106 05       		.byte	0x5
 399 0107 2E       		.byte	0x2e
 400 0108 AD000000 		.4byte	0xad
 401 010c 03       		.uleb128 0x3
 402 010d CC030000 		.4byte	.LASF24
 403 0111 05       		.byte	0x5
 404 0112 2F       		.byte	0x2f
 405 0113 AD000000 		.4byte	0xad
 406 0117 03       		.uleb128 0x3
 407 0118 6B010000 		.4byte	.LASF25
 408 011c 05       		.byte	0x5
 409 011d 30       		.byte	0x30
 410 011e CE000000 		.4byte	0xce
 411 0122 03       		.uleb128 0x3
 412 0123 9E030000 		.4byte	.LASF26
 413 0127 05       		.byte	0x5
 414 0128 31       		.byte	0x31
 415 0129 C3000000 		.4byte	0xc3
 416 012d 03       		.uleb128 0x3
 417 012e 3B010000 		.4byte	.LASF27
 418 0132 05       		.byte	0x5
 419 0133 33       		.byte	0x33
 420 0134 CE000000 		.4byte	0xce
 421 0138 03       		.uleb128 0x3
 422 0139 50030000 		.4byte	.LASF28
 423 013d 05       		.byte	0x5
 424 013e 34       		.byte	0x34
 425 013f CE000000 		.4byte	0xce
 426 0143 03       		.uleb128 0x3
 427 0144 A0000000 		.4byte	.LASF29
 428 0148 05       		.byte	0x5
 429 0149 35       		.byte	0x35
 430 014a CE000000 		.4byte	0xce
 431 014e 03       		.uleb128 0x3
 432 014f 20030000 		.4byte	.LASF30
 433 0153 06       		.byte	0x6
 434 0154 2A       		.byte	0x2a
 435 0155 59010000 		.4byte	0x159
 436 0159 05       		.uleb128 0x5
 437 015a 20030000 		.4byte	.LASF30
 438 015e 48       		.byte	0x48
 439 015f 07       		.byte	0x7
 440 0160 5E       		.byte	0x5e
 441 0161 56020000 		.4byte	0x256
ARM GAS  /tmp/ccty5VNI.s 			page 9


 442 0165 06       		.uleb128 0x6
 443 0166 BF040000 		.4byte	.LASF31
 444 016a 07       		.byte	0x7
 445 016b 5F       		.byte	0x5f
 446 016c 77020000 		.4byte	0x277
 447 0170 00       		.byte	0
 448 0171 06       		.uleb128 0x6
 449 0172 22050000 		.4byte	.LASF32
 450 0176 07       		.byte	0x7
 451 0177 61       		.byte	0x61
 452 0178 77020000 		.4byte	0x277
 453 017c 04       		.byte	0x4
 454 017d 06       		.uleb128 0x6
 455 017e 3F000000 		.4byte	.LASF33
 456 0182 07       		.byte	0x7
 457 0183 63       		.byte	0x63
 458 0184 17010000 		.4byte	0x117
 459 0188 08       		.byte	0x8
 460 0189 06       		.uleb128 0x6
 461 018a CF040000 		.4byte	.LASF34
 462 018e 07       		.byte	0x7
 463 018f 64       		.byte	0x64
 464 0190 32030000 		.4byte	0x332
 465 0194 0C       		.byte	0xc
 466 0195 06       		.uleb128 0x6
 467 0196 B5010000 		.4byte	.LASF35
 468 019a 07       		.byte	0x7
 469 019b 66       		.byte	0x66
 470 019c 77020000 		.4byte	0x277
 471 01a0 10       		.byte	0x10
 472 01a1 06       		.uleb128 0x6
 473 01a2 38030000 		.4byte	.LASF36
 474 01a6 07       		.byte	0x7
 475 01a7 67       		.byte	0x67
 476 01a8 77020000 		.4byte	0x277
 477 01ac 14       		.byte	0x14
 478 01ad 06       		.uleb128 0x6
 479 01ae E2020000 		.4byte	.LASF37
 480 01b2 07       		.byte	0x7
 481 01b3 6E       		.byte	0x6e
 482 01b4 A7040000 		.4byte	0x4a7
 483 01b8 18       		.byte	0x18
 484 01b9 06       		.uleb128 0x6
 485 01ba 40030000 		.4byte	.LASF38
 486 01be 07       		.byte	0x7
 487 01bf 79       		.byte	0x79
 488 01c0 F6000000 		.4byte	0xf6
 489 01c4 1C       		.byte	0x1c
 490 01c5 06       		.uleb128 0x6
 491 01c6 B7030000 		.4byte	.LASF39
 492 01ca 07       		.byte	0x7
 493 01cb 7D       		.byte	0x7d
 494 01cc EB000000 		.4byte	0xeb
 495 01d0 1D       		.byte	0x1d
 496 01d1 06       		.uleb128 0x6
 497 01d2 8F050000 		.4byte	.LASF40
 498 01d6 07       		.byte	0x7
ARM GAS  /tmp/ccty5VNI.s 			page 10


 499 01d7 82       		.byte	0x82
 500 01d8 01010000 		.4byte	0x101
 501 01dc 1E       		.byte	0x1e
 502 01dd 06       		.uleb128 0x6
 503 01de AB050000 		.4byte	.LASF41
 504 01e2 07       		.byte	0x7
 505 01e3 88       		.byte	0x88
 506 01e4 0C010000 		.4byte	0x10c
 507 01e8 1F       		.byte	0x1f
 508 01e9 06       		.uleb128 0x6
 509 01ea 2A000000 		.4byte	.LASF42
 510 01ee 07       		.byte	0x7
 511 01ef 8F       		.byte	0x8f
 512 01f0 5D030000 		.4byte	0x35d
 513 01f4 20       		.byte	0x20
 514 01f5 07       		.uleb128 0x7
 515 01f6 705F7500 		.ascii	"p_u\000"
 516 01fa 07       		.byte	0x7
 517 01fb B4       		.byte	0xb4
 518 01fc 72040000 		.4byte	0x472
 519 0200 24       		.byte	0x24
 520 0201 06       		.uleb128 0x6
 521 0202 0C000000 		.4byte	.LASF43
 522 0206 07       		.byte	0x7
 523 0207 B9       		.byte	0xb9
 524 0208 9D020000 		.4byte	0x29d
 525 020c 28       		.byte	0x28
 526 020d 06       		.uleb128 0x6
 527 020e B2000000 		.4byte	.LASF44
 528 0212 07       		.byte	0x7
 529 0213 BF       		.byte	0xbf
 530 0214 7D020000 		.4byte	0x27d
 531 0218 2C       		.byte	0x2c
 532 0219 06       		.uleb128 0x6
 533 021a F8030000 		.4byte	.LASF45
 534 021e 07       		.byte	0x7
 535 021f C3       		.byte	0xc3
 536 0220 22010000 		.4byte	0x122
 537 0224 34       		.byte	0x34
 538 0225 06       		.uleb128 0x6
 539 0226 9C040000 		.4byte	.LASF46
 540 022a 07       		.byte	0x7
 541 022b C9       		.byte	0xc9
 542 022c 2D010000 		.4byte	0x12d
 543 0230 38       		.byte	0x38
 544 0231 06       		.uleb128 0x6
 545 0232 69030000 		.4byte	.LASF47
 546 0236 07       		.byte	0x7
 547 0237 D0       		.byte	0xd0
 548 0238 B9040000 		.4byte	0x4b9
 549 023c 3C       		.byte	0x3c
 550 023d 06       		.uleb128 0x6
 551 023e 4B040000 		.4byte	.LASF48
 552 0242 07       		.byte	0x7
 553 0243 D4       		.byte	0xd4
 554 0244 17010000 		.4byte	0x117
 555 0248 40       		.byte	0x40
ARM GAS  /tmp/ccty5VNI.s 			page 11


 556 0249 06       		.uleb128 0x6
 557 024a 61030000 		.4byte	.LASF49
 558 024e 07       		.byte	0x7
 559 024f DA       		.byte	0xda
 560 0250 B3020000 		.4byte	0x2b3
 561 0254 44       		.byte	0x44
 562 0255 00       		.byte	0
 563 0256 08       		.uleb128 0x8
 564 0257 08       		.byte	0x8
 565 0258 06       		.byte	0x6
 566 0259 61       		.byte	0x61
 567 025a 77020000 		.4byte	0x277
 568 025e 06       		.uleb128 0x6
 569 025f BF040000 		.4byte	.LASF31
 570 0263 06       		.byte	0x6
 571 0264 62       		.byte	0x62
 572 0265 77020000 		.4byte	0x277
 573 0269 00       		.byte	0
 574 026a 06       		.uleb128 0x6
 575 026b 22050000 		.4byte	.LASF32
 576 026f 06       		.byte	0x6
 577 0270 64       		.byte	0x64
 578 0271 77020000 		.4byte	0x277
 579 0275 04       		.byte	0x4
 580 0276 00       		.byte	0
 581 0277 09       		.uleb128 0x9
 582 0278 04       		.byte	0x4
 583 0279 4E010000 		.4byte	0x14e
 584 027d 03       		.uleb128 0x3
 585 027e F4020000 		.4byte	.LASF50
 586 0282 06       		.byte	0x6
 587 0283 66       		.byte	0x66
 588 0284 56020000 		.4byte	0x256
 589 0288 08       		.uleb128 0x8
 590 0289 04       		.byte	0x4
 591 028a 06       		.byte	0x6
 592 028b 6B       		.byte	0x6b
 593 028c 9D020000 		.4byte	0x29d
 594 0290 06       		.uleb128 0x6
 595 0291 BF040000 		.4byte	.LASF31
 596 0295 06       		.byte	0x6
 597 0296 6D       		.byte	0x6d
 598 0297 77020000 		.4byte	0x277
 599 029b 00       		.byte	0
 600 029c 00       		.byte	0
 601 029d 03       		.uleb128 0x3
 602 029e 00000000 		.4byte	.LASF51
 603 02a2 06       		.byte	0x6
 604 02a3 70       		.byte	0x70
 605 02a4 88020000 		.4byte	0x288
 606 02a8 03       		.uleb128 0x3
 607 02a9 36000000 		.4byte	.LASF52
 608 02ad 08       		.byte	0x8
 609 02ae A7       		.byte	0xa7
 610 02af B3020000 		.4byte	0x2b3
 611 02b3 0A       		.uleb128 0xa
 612 02b4 04       		.byte	0x4
ARM GAS  /tmp/ccty5VNI.s 			page 12


 613 02b5 03       		.uleb128 0x3
 614 02b6 0E060000 		.4byte	.LASF53
 615 02ba 08       		.byte	0x8
 616 02bb AD       		.byte	0xad
 617 02bc D9000000 		.4byte	0xd9
 618 02c0 05       		.uleb128 0x5
 619 02c1 2B040000 		.4byte	.LASF54
 620 02c5 24       		.byte	0x24
 621 02c6 08       		.byte	0x8
 622 02c7 BA       		.byte	0xba
 623 02c8 32030000 		.4byte	0x332
 624 02cc 07       		.uleb128 0x7
 625 02cd 723800   		.ascii	"r8\000"
 626 02d0 08       		.byte	0x8
 627 02d1 BB       		.byte	0xbb
 628 02d2 A8020000 		.4byte	0x2a8
 629 02d6 00       		.byte	0
 630 02d7 07       		.uleb128 0x7
 631 02d8 723900   		.ascii	"r9\000"
 632 02db 08       		.byte	0x8
 633 02dc BC       		.byte	0xbc
 634 02dd A8020000 		.4byte	0x2a8
 635 02e1 04       		.byte	0x4
 636 02e2 07       		.uleb128 0x7
 637 02e3 72313000 		.ascii	"r10\000"
 638 02e7 08       		.byte	0x8
 639 02e8 BD       		.byte	0xbd
 640 02e9 A8020000 		.4byte	0x2a8
 641 02ed 08       		.byte	0x8
 642 02ee 07       		.uleb128 0x7
 643 02ef 72313100 		.ascii	"r11\000"
 644 02f3 08       		.byte	0x8
 645 02f4 BE       		.byte	0xbe
 646 02f5 A8020000 		.4byte	0x2a8
 647 02f9 0C       		.byte	0xc
 648 02fa 07       		.uleb128 0x7
 649 02fb 723400   		.ascii	"r4\000"
 650 02fe 08       		.byte	0x8
 651 02ff BF       		.byte	0xbf
 652 0300 A8020000 		.4byte	0x2a8
 653 0304 10       		.byte	0x10
 654 0305 07       		.uleb128 0x7
 655 0306 723500   		.ascii	"r5\000"
 656 0309 08       		.byte	0x8
 657 030a C0       		.byte	0xc0
 658 030b A8020000 		.4byte	0x2a8
 659 030f 14       		.byte	0x14
 660 0310 07       		.uleb128 0x7
 661 0311 723600   		.ascii	"r6\000"
 662 0314 08       		.byte	0x8
 663 0315 C1       		.byte	0xc1
 664 0316 A8020000 		.4byte	0x2a8
 665 031a 18       		.byte	0x18
 666 031b 07       		.uleb128 0x7
 667 031c 723700   		.ascii	"r7\000"
 668 031f 08       		.byte	0x8
 669 0320 C2       		.byte	0xc2
ARM GAS  /tmp/ccty5VNI.s 			page 13


 670 0321 A8020000 		.4byte	0x2a8
 671 0325 1C       		.byte	0x1c
 672 0326 07       		.uleb128 0x7
 673 0327 6C7200   		.ascii	"lr\000"
 674 032a 08       		.byte	0x8
 675 032b C3       		.byte	0xc3
 676 032c A8020000 		.4byte	0x2a8
 677 0330 20       		.byte	0x20
 678 0331 00       		.byte	0
 679 0332 05       		.uleb128 0x5
 680 0333 A4030000 		.4byte	.LASF55
 681 0337 04       		.byte	0x4
 682 0338 08       		.byte	0x8
 683 0339 CD       		.byte	0xcd
 684 033a 4B030000 		.4byte	0x34b
 685 033e 07       		.uleb128 0x7
 686 033f 72313300 		.ascii	"r13\000"
 687 0343 08       		.byte	0x8
 688 0344 CE       		.byte	0xce
 689 0345 4B030000 		.4byte	0x34b
 690 0349 00       		.byte	0
 691 034a 00       		.byte	0
 692 034b 09       		.uleb128 0x9
 693 034c 04       		.byte	0x4
 694 034d C0020000 		.4byte	0x2c0
 695 0351 0B       		.uleb128 0xb
 696 0352 CE000000 		.4byte	0xce
 697 0356 04       		.uleb128 0x4
 698 0357 04       		.byte	0x4
 699 0358 07       		.byte	0x7
 700 0359 29050000 		.4byte	.LASF56
 701 035d 0B       		.uleb128 0xb
 702 035e 43010000 		.4byte	0x143
 703 0362 08       		.uleb128 0x8
 704 0363 1C       		.byte	0x1c
 705 0364 09       		.byte	0x9
 706 0365 5E       		.byte	0x5e
 707 0366 B3030000 		.4byte	0x3b3
 708 036a 06       		.uleb128 0x6
 709 036b 96030000 		.4byte	.LASF57
 710 036f 09       		.byte	0x9
 711 0370 5F       		.byte	0x5f
 712 0371 7D020000 		.4byte	0x27d
 713 0375 00       		.byte	0
 714 0376 06       		.uleb128 0x6
 715 0377 47010000 		.4byte	.LASF58
 716 037b 09       		.byte	0x9
 717 037c 60       		.byte	0x60
 718 037d 17010000 		.4byte	0x117
 719 0381 08       		.byte	0x8
 720 0382 06       		.uleb128 0x6
 721 0383 08060000 		.4byte	.LASF59
 722 0387 09       		.byte	0x9
 723 0388 62       		.byte	0x62
 724 0389 32030000 		.4byte	0x332
 725 038d 0C       		.byte	0xc
 726 038e 06       		.uleb128 0x6
ARM GAS  /tmp/ccty5VNI.s 			page 14


 727 038f 10030000 		.4byte	.LASF60
 728 0393 09       		.byte	0x9
 729 0394 65       		.byte	0x65
 730 0395 77020000 		.4byte	0x277
 731 0399 10       		.byte	0x10
 732 039a 06       		.uleb128 0x6
 733 039b D6030000 		.4byte	.LASF61
 734 039f 09       		.byte	0x9
 735 03a0 66       		.byte	0x66
 736 03a1 77020000 		.4byte	0x277
 737 03a5 14       		.byte	0x14
 738 03a6 06       		.uleb128 0x6
 739 03a7 92040000 		.4byte	.LASF62
 740 03ab 09       		.byte	0x9
 741 03ac 69       		.byte	0x69
 742 03ad 77020000 		.4byte	0x277
 743 03b1 18       		.byte	0x18
 744 03b2 00       		.byte	0
 745 03b3 03       		.uleb128 0x3
 746 03b4 96050000 		.4byte	.LASF63
 747 03b8 09       		.byte	0x9
 748 03b9 6B       		.byte	0x6b
 749 03ba 62030000 		.4byte	0x362
 750 03be 05       		.uleb128 0x5
 751 03bf B0020000 		.4byte	.LASF64
 752 03c3 10       		.byte	0x10
 753 03c4 0A       		.byte	0xa
 754 03c5 2C       		.byte	0x2c
 755 03c6 EF030000 		.4byte	0x3ef
 756 03ca 06       		.uleb128 0x6
 757 03cb A7040000 		.4byte	.LASF65
 758 03cf 0A       		.byte	0xa
 759 03d0 2D       		.byte	0x2d
 760 03d1 7D020000 		.4byte	0x27d
 761 03d5 00       		.byte	0
 762 03d6 06       		.uleb128 0x6
 763 03d7 AA000000 		.4byte	.LASF66
 764 03db 0A       		.byte	0xa
 765 03dc 2F       		.byte	0x2f
 766 03dd 77020000 		.4byte	0x277
 767 03e1 08       		.byte	0x8
 768 03e2 06       		.uleb128 0x6
 769 03e3 DC050000 		.4byte	.LASF67
 770 03e7 0A       		.byte	0xa
 771 03e8 31       		.byte	0x31
 772 03e9 EF030000 		.4byte	0x3ef
 773 03ed 0C       		.byte	0xc
 774 03ee 00       		.byte	0
 775 03ef 09       		.uleb128 0x9
 776 03f0 04       		.byte	0x4
 777 03f1 BE030000 		.4byte	0x3be
 778 03f5 03       		.uleb128 0x3
 779 03f6 B0020000 		.4byte	.LASF64
 780 03fa 0A       		.byte	0xa
 781 03fb 33       		.byte	0x33
 782 03fc BE030000 		.4byte	0x3be
 783 0400 03       		.uleb128 0x3
ARM GAS  /tmp/ccty5VNI.s 			page 15


 784 0401 3A050000 		.4byte	.LASF68
 785 0405 0B       		.byte	0xb
 786 0406 2C       		.byte	0x2c
 787 0407 0B040000 		.4byte	0x40b
 788 040b 05       		.uleb128 0x5
 789 040c 3A050000 		.4byte	.LASF68
 790 0410 10       		.byte	0x10
 791 0411 0B       		.byte	0xb
 792 0412 31       		.byte	0x31
 793 0413 48040000 		.4byte	0x448
 794 0417 06       		.uleb128 0x6
 795 0418 F0030000 		.4byte	.LASF69
 796 041c 0B       		.byte	0xb
 797 041d 32       		.byte	0x32
 798 041e 48040000 		.4byte	0x448
 799 0422 00       		.byte	0
 800 0423 06       		.uleb128 0x6
 801 0424 EA040000 		.4byte	.LASF70
 802 0428 0B       		.byte	0xb
 803 0429 35       		.byte	0x35
 804 042a 77020000 		.4byte	0x277
 805 042e 04       		.byte	0x4
 806 042f 06       		.uleb128 0x6
 807 0430 FC000000 		.4byte	.LASF71
 808 0434 0B       		.byte	0xb
 809 0435 37       		.byte	0x37
 810 0436 2D010000 		.4byte	0x12d
 811 043a 08       		.byte	0x8
 812 043b 06       		.uleb128 0x6
 813 043c 1E060000 		.4byte	.LASF72
 814 0440 0B       		.byte	0xb
 815 0441 3A       		.byte	0x3a
 816 0442 38010000 		.4byte	0x138
 817 0446 0C       		.byte	0xc
 818 0447 00       		.byte	0
 819 0448 09       		.uleb128 0x9
 820 0449 04       		.byte	0x4
 821 044a 00040000 		.4byte	0x400
 822 044e 05       		.uleb128 0x5
 823 044f 6F020000 		.4byte	.LASF73
 824 0453 04       		.byte	0x4
 825 0454 0B       		.byte	0xb
 826 0455 41       		.byte	0x41
 827 0456 67040000 		.4byte	0x467
 828 045a 06       		.uleb128 0x6
 829 045b B5050000 		.4byte	.LASF74
 830 045f 0B       		.byte	0xb
 831 0460 42       		.byte	0x42
 832 0461 48040000 		.4byte	0x448
 833 0465 00       		.byte	0
 834 0466 00       		.byte	0
 835 0467 03       		.uleb128 0x3
 836 0468 6F020000 		.4byte	.LASF73
 837 046c 0B       		.byte	0xb
 838 046d 45       		.byte	0x45
 839 046e 4E040000 		.4byte	0x44e
 840 0472 0C       		.uleb128 0xc
ARM GAS  /tmp/ccty5VNI.s 			page 16


 841 0473 04       		.byte	0x4
 842 0474 07       		.byte	0x7
 843 0475 96       		.byte	0x96
 844 0476 A7040000 		.4byte	0x4a7
 845 047a 0D       		.uleb128 0xd
 846 047b 82020000 		.4byte	.LASF75
 847 047f 07       		.byte	0x7
 848 0480 9D       		.byte	0x9d
 849 0481 22010000 		.4byte	0x122
 850 0485 0D       		.uleb128 0xd
 851 0486 27060000 		.4byte	.LASF76
 852 048a 07       		.byte	0x7
 853 048b A4       		.byte	0xa4
 854 048c 22010000 		.4byte	0x122
 855 0490 0D       		.uleb128 0xd
 856 0491 04010000 		.4byte	.LASF77
 857 0495 07       		.byte	0x7
 858 0496 AB       		.byte	0xab
 859 0497 B3020000 		.4byte	0x2b3
 860 049b 0D       		.uleb128 0xd
 861 049c 12010000 		.4byte	.LASF78
 862 04a0 07       		.byte	0x7
 863 04a1 B2       		.byte	0xb2
 864 04a2 2D010000 		.4byte	0x12d
 865 04a6 00       		.byte	0
 866 04a7 09       		.uleb128 0x9
 867 04a8 04       		.byte	0x4
 868 04a9 AD040000 		.4byte	0x4ad
 869 04ad 0E       		.uleb128 0xe
 870 04ae B2040000 		.4byte	0x4b2
 871 04b2 04       		.uleb128 0x4
 872 04b3 01       		.byte	0x1
 873 04b4 08       		.byte	0x8
 874 04b5 01030000 		.4byte	.LASF79
 875 04b9 09       		.uleb128 0x9
 876 04ba 04       		.byte	0x4
 877 04bb F5030000 		.4byte	0x3f5
 878 04bf 03       		.uleb128 0x3
 879 04c0 73010000 		.4byte	.LASF80
 880 04c4 07       		.byte	0x7
 881 04c5 E5       		.byte	0xe5
 882 04c6 CA040000 		.4byte	0x4ca
 883 04ca 09       		.uleb128 0x9
 884 04cb 04       		.byte	0x4
 885 04cc D0040000 		.4byte	0x4d0
 886 04d0 0F       		.uleb128 0xf
 887 04d1 22010000 		.4byte	0x122
 888 04d5 DF040000 		.4byte	0x4df
 889 04d9 10       		.uleb128 0x10
 890 04da B3020000 		.4byte	0x2b3
 891 04de 00       		.byte	0
 892 04df 03       		.uleb128 0x3
 893 04e0 0E040000 		.4byte	.LASF81
 894 04e4 0C       		.byte	0xc
 895 04e5 37       		.byte	0x37
 896 04e6 EA040000 		.4byte	0x4ea
 897 04ea 05       		.uleb128 0x5
ARM GAS  /tmp/ccty5VNI.s 			page 17


 898 04eb 0E040000 		.4byte	.LASF81
 899 04ef 24       		.byte	0x24
 900 04f0 0C       		.byte	0xc
 901 04f1 45       		.byte	0x45
 902 04f2 57050000 		.4byte	0x557
 903 04f6 06       		.uleb128 0x6
 904 04f7 C3010000 		.4byte	.LASF82
 905 04fb 0C       		.byte	0xc
 906 04fc 46       		.byte	0x46
 907 04fd 7D020000 		.4byte	0x27d
 908 0501 00       		.byte	0
 909 0502 06       		.uleb128 0x6
 910 0503 0D050000 		.4byte	.LASF83
 911 0507 0C       		.byte	0xc
 912 0508 47       		.byte	0x47
 913 0509 2C000000 		.4byte	0x2c
 914 050d 08       		.byte	0x8
 915 050e 06       		.uleb128 0x6
 916 050f 8D030000 		.4byte	.LASF84
 917 0513 0C       		.byte	0xc
 918 0514 48       		.byte	0x48
 919 0515 79050000 		.4byte	0x579
 920 0519 0C       		.byte	0xc
 921 051a 06       		.uleb128 0x6
 922 051b 1C050000 		.4byte	.LASF85
 923 051f 0C       		.byte	0xc
 924 0520 49       		.byte	0x49
 925 0521 79050000 		.4byte	0x579
 926 0525 10       		.byte	0x10
 927 0526 06       		.uleb128 0x6
 928 0527 18030000 		.4byte	.LASF86
 929 052b 0C       		.byte	0xc
 930 052c 4B       		.byte	0x4b
 931 052d 79050000 		.4byte	0x579
 932 0531 14       		.byte	0x14
 933 0532 06       		.uleb128 0x6
 934 0533 E0000000 		.4byte	.LASF87
 935 0537 0C       		.byte	0xc
 936 0538 4C       		.byte	0x4c
 937 0539 79050000 		.4byte	0x579
 938 053d 18       		.byte	0x18
 939 053e 06       		.uleb128 0x6
 940 053f CD020000 		.4byte	.LASF88
 941 0543 0C       		.byte	0xc
 942 0544 4D       		.byte	0x4d
 943 0545 57050000 		.4byte	0x557
 944 0549 1C       		.byte	0x1c
 945 054a 06       		.uleb128 0x6
 946 054b 0B010000 		.4byte	.LASF89
 947 054f 0C       		.byte	0xc
 948 0550 4E       		.byte	0x4e
 949 0551 B3020000 		.4byte	0x2b3
 950 0555 20       		.byte	0x20
 951 0556 00       		.byte	0
 952 0557 03       		.uleb128 0x3
 953 0558 F2000000 		.4byte	.LASF90
 954 055c 0C       		.byte	0xc
ARM GAS  /tmp/ccty5VNI.s 			page 18


 955 055d 3A       		.byte	0x3a
 956 055e 62050000 		.4byte	0x562
 957 0562 09       		.uleb128 0x9
 958 0563 04       		.byte	0x4
 959 0564 68050000 		.4byte	0x568
 960 0568 11       		.uleb128 0x11
 961 0569 73050000 		.4byte	0x573
 962 056d 10       		.uleb128 0x10
 963 056e 73050000 		.4byte	0x573
 964 0572 00       		.byte	0
 965 0573 09       		.uleb128 0x9
 966 0574 04       		.byte	0x4
 967 0575 DF040000 		.4byte	0x4df
 968 0579 09       		.uleb128 0x9
 969 057a 04       		.byte	0x4
 970 057b AD000000 		.4byte	0xad
 971 057f 03       		.uleb128 0x3
 972 0580 E9020000 		.4byte	.LASF91
 973 0584 0C       		.byte	0xc
 974 0585 82       		.byte	0x82
 975 0586 DF040000 		.4byte	0x4df
 976 058a 03       		.uleb128 0x3
 977 058b B6020000 		.4byte	.LASF92
 978 058f 0C       		.byte	0xc
 979 0590 F5       		.byte	0xf5
 980 0591 DF040000 		.4byte	0x4df
 981 0595 0F       		.uleb128 0xf
 982 0596 2C000000 		.4byte	0x2c
 983 059a AE050000 		.4byte	0x5ae
 984 059e 10       		.uleb128 0x10
 985 059f B3020000 		.4byte	0x2b3
 986 05a3 10       		.uleb128 0x10
 987 05a4 AE050000 		.4byte	0x5ae
 988 05a8 10       		.uleb128 0x10
 989 05a9 2C000000 		.4byte	0x2c
 990 05ad 00       		.byte	0
 991 05ae 09       		.uleb128 0x9
 992 05af 04       		.byte	0x4
 993 05b0 B4050000 		.4byte	0x5b4
 994 05b4 0E       		.uleb128 0xe
 995 05b5 AD000000 		.4byte	0xad
 996 05b9 09       		.uleb128 0x9
 997 05ba 04       		.byte	0x4
 998 05bb 95050000 		.4byte	0x595
 999 05bf 0F       		.uleb128 0xf
 1000 05c0 2C000000 		.4byte	0x2c
 1001 05c4 D8050000 		.4byte	0x5d8
 1002 05c8 10       		.uleb128 0x10
 1003 05c9 B3020000 		.4byte	0x2b3
 1004 05cd 10       		.uleb128 0x10
 1005 05ce 79050000 		.4byte	0x579
 1006 05d2 10       		.uleb128 0x10
 1007 05d3 2C000000 		.4byte	0x2c
 1008 05d7 00       		.byte	0
 1009 05d8 09       		.uleb128 0x9
 1010 05d9 04       		.byte	0x4
 1011 05da BF050000 		.4byte	0x5bf
ARM GAS  /tmp/ccty5VNI.s 			page 19


 1012 05de 0F       		.uleb128 0xf
 1013 05df 22010000 		.4byte	0x122
 1014 05e3 F2050000 		.4byte	0x5f2
 1015 05e7 10       		.uleb128 0x10
 1016 05e8 B3020000 		.4byte	0x2b3
 1017 05ec 10       		.uleb128 0x10
 1018 05ed AD000000 		.4byte	0xad
 1019 05f1 00       		.byte	0
 1020 05f2 09       		.uleb128 0x9
 1021 05f3 04       		.byte	0x4
 1022 05f4 DE050000 		.4byte	0x5de
 1023 05f8 0B       		.uleb128 0xb
 1024 05f9 B8000000 		.4byte	0xb8
 1025 05fd 12       		.uleb128 0x12
 1026 05fe 2C       		.byte	0x2c
 1027 05ff 0D       		.byte	0xd
 1028 0600 AA02     		.2byte	0x2aa
 1029 0602 D7060000 		.4byte	0x6d7
 1030 0606 13       		.uleb128 0x13
 1031 0607 43523100 		.ascii	"CR1\000"
 1032 060b 0D       		.byte	0xd
 1033 060c AC02     		.2byte	0x2ac
 1034 060e 51030000 		.4byte	0x351
 1035 0612 00       		.byte	0
 1036 0613 13       		.uleb128 0x13
 1037 0614 43523200 		.ascii	"CR2\000"
 1038 0618 0D       		.byte	0xd
 1039 0619 AD02     		.2byte	0x2ad
 1040 061b 51030000 		.4byte	0x351
 1041 061f 04       		.byte	0x4
 1042 0620 13       		.uleb128 0x13
 1043 0621 43523300 		.ascii	"CR3\000"
 1044 0625 0D       		.byte	0xd
 1045 0626 AE02     		.2byte	0x2ae
 1046 0628 51030000 		.4byte	0x351
 1047 062c 08       		.byte	0x8
 1048 062d 13       		.uleb128 0x13
 1049 062e 42525200 		.ascii	"BRR\000"
 1050 0632 0D       		.byte	0xd
 1051 0633 AF02     		.2byte	0x2af
 1052 0635 F8050000 		.4byte	0x5f8
 1053 0639 0C       		.byte	0xc
 1054 063a 14       		.uleb128 0x14
 1055 063b 56040000 		.4byte	.LASF93
 1056 063f 0D       		.byte	0xd
 1057 0640 B002     		.2byte	0x2b0
 1058 0642 B8000000 		.4byte	0xb8
 1059 0646 0E       		.byte	0xe
 1060 0647 14       		.uleb128 0x14
 1061 0648 26010000 		.4byte	.LASF94
 1062 064c 0D       		.byte	0xd
 1063 064d B102     		.2byte	0x2b1
 1064 064f F8050000 		.4byte	0x5f8
 1065 0653 10       		.byte	0x10
 1066 0654 14       		.uleb128 0x14
 1067 0655 60040000 		.4byte	.LASF95
 1068 0659 0D       		.byte	0xd
ARM GAS  /tmp/ccty5VNI.s 			page 20


 1069 065a B202     		.2byte	0x2b2
 1070 065c B8000000 		.4byte	0xb8
 1071 0660 12       		.byte	0x12
 1072 0661 14       		.uleb128 0x14
 1073 0662 5C030000 		.4byte	.LASF96
 1074 0666 0D       		.byte	0xd
 1075 0667 B302     		.2byte	0x2b3
 1076 0669 51030000 		.4byte	0x351
 1077 066d 14       		.byte	0x14
 1078 066e 13       		.uleb128 0x13
 1079 066f 52515200 		.ascii	"RQR\000"
 1080 0673 0D       		.byte	0xd
 1081 0674 B402     		.2byte	0x2b4
 1082 0676 F8050000 		.4byte	0x5f8
 1083 067a 18       		.byte	0x18
 1084 067b 14       		.uleb128 0x14
 1085 067c 6A040000 		.4byte	.LASF97
 1086 0680 0D       		.byte	0xd
 1087 0681 B502     		.2byte	0x2b5
 1088 0683 B8000000 		.4byte	0xb8
 1089 0687 1A       		.byte	0x1a
 1090 0688 13       		.uleb128 0x13
 1091 0689 49535200 		.ascii	"ISR\000"
 1092 068d 0D       		.byte	0xd
 1093 068e B602     		.2byte	0x2b6
 1094 0690 51030000 		.4byte	0x351
 1095 0694 1C       		.byte	0x1c
 1096 0695 13       		.uleb128 0x13
 1097 0696 49435200 		.ascii	"ICR\000"
 1098 069a 0D       		.byte	0xd
 1099 069b B702     		.2byte	0x2b7
 1100 069d 51030000 		.4byte	0x351
 1101 06a1 20       		.byte	0x20
 1102 06a2 13       		.uleb128 0x13
 1103 06a3 52445200 		.ascii	"RDR\000"
 1104 06a7 0D       		.byte	0xd
 1105 06a8 B802     		.2byte	0x2b8
 1106 06aa F8050000 		.4byte	0x5f8
 1107 06ae 24       		.byte	0x24
 1108 06af 14       		.uleb128 0x14
 1109 06b0 74040000 		.4byte	.LASF98
 1110 06b4 0D       		.byte	0xd
 1111 06b5 B902     		.2byte	0x2b9
 1112 06b7 B8000000 		.4byte	0xb8
 1113 06bb 26       		.byte	0x26
 1114 06bc 13       		.uleb128 0x13
 1115 06bd 54445200 		.ascii	"TDR\000"
 1116 06c1 0D       		.byte	0xd
 1117 06c2 BA02     		.2byte	0x2ba
 1118 06c4 F8050000 		.4byte	0x5f8
 1119 06c8 28       		.byte	0x28
 1120 06c9 14       		.uleb128 0x14
 1121 06ca 7E040000 		.4byte	.LASF99
 1122 06ce 0D       		.byte	0xd
 1123 06cf BB02     		.2byte	0x2bb
 1124 06d1 B8000000 		.4byte	0xb8
 1125 06d5 2A       		.byte	0x2a
ARM GAS  /tmp/ccty5VNI.s 			page 21


 1126 06d6 00       		.byte	0
 1127 06d7 15       		.uleb128 0x15
 1128 06d8 A2020000 		.4byte	.LASF100
 1129 06dc 0D       		.byte	0xd
 1130 06dd BC02     		.2byte	0x2bc
 1131 06df FD050000 		.4byte	0x5fd
 1132 06e3 0F       		.uleb128 0xf
 1133 06e4 22010000 		.4byte	0x122
 1134 06e8 FC060000 		.4byte	0x6fc
 1135 06ec 10       		.uleb128 0x10
 1136 06ed B3020000 		.4byte	0x2b3
 1137 06f1 10       		.uleb128 0x10
 1138 06f2 AD000000 		.4byte	0xad
 1139 06f6 10       		.uleb128 0x10
 1140 06f7 43010000 		.4byte	0x143
 1141 06fb 00       		.byte	0
 1142 06fc 09       		.uleb128 0x9
 1143 06fd 04       		.byte	0x4
 1144 06fe E3060000 		.4byte	0x6e3
 1145 0702 0F       		.uleb128 0xf
 1146 0703 22010000 		.4byte	0x122
 1147 0707 16070000 		.4byte	0x716
 1148 070b 10       		.uleb128 0x10
 1149 070c B3020000 		.4byte	0x2b3
 1150 0710 10       		.uleb128 0x10
 1151 0711 43010000 		.4byte	0x143
 1152 0715 00       		.byte	0
 1153 0716 09       		.uleb128 0x9
 1154 0717 04       		.byte	0x4
 1155 0718 02070000 		.4byte	0x702
 1156 071c 0F       		.uleb128 0xf
 1157 071d 2C000000 		.4byte	0x2c
 1158 0721 3A070000 		.4byte	0x73a
 1159 0725 10       		.uleb128 0x10
 1160 0726 B3020000 		.4byte	0x2b3
 1161 072a 10       		.uleb128 0x10
 1162 072b AE050000 		.4byte	0x5ae
 1163 072f 10       		.uleb128 0x10
 1164 0730 2C000000 		.4byte	0x2c
 1165 0734 10       		.uleb128 0x10
 1166 0735 43010000 		.4byte	0x143
 1167 0739 00       		.byte	0
 1168 073a 09       		.uleb128 0x9
 1169 073b 04       		.byte	0x4
 1170 073c 1C070000 		.4byte	0x71c
 1171 0740 0F       		.uleb128 0xf
 1172 0741 2C000000 		.4byte	0x2c
 1173 0745 5E070000 		.4byte	0x75e
 1174 0749 10       		.uleb128 0x10
 1175 074a B3020000 		.4byte	0x2b3
 1176 074e 10       		.uleb128 0x10
 1177 074f 79050000 		.4byte	0x579
 1178 0753 10       		.uleb128 0x10
 1179 0754 2C000000 		.4byte	0x2c
 1180 0758 10       		.uleb128 0x10
 1181 0759 43010000 		.4byte	0x143
 1182 075d 00       		.byte	0
ARM GAS  /tmp/ccty5VNI.s 			page 22


 1183 075e 09       		.uleb128 0x9
 1184 075f 04       		.byte	0x4
 1185 0760 40070000 		.4byte	0x740
 1186 0764 08       		.uleb128 0x8
 1187 0765 04       		.byte	0x4
 1188 0766 0E       		.byte	0xe
 1189 0767 96       		.byte	0x96
 1190 0768 85070000 		.4byte	0x785
 1191 076c 07       		.uleb128 0x7
 1192 076d 73657400 		.ascii	"set\000"
 1193 0771 0E       		.byte	0xe
 1194 0772 97       		.byte	0x97
 1195 0773 B8000000 		.4byte	0xb8
 1196 0777 00       		.byte	0
 1197 0778 06       		.uleb128 0x6
 1198 0779 BD010000 		.4byte	.LASF101
 1199 077d 0E       		.byte	0xe
 1200 077e 98       		.byte	0x98
 1201 077f B8000000 		.4byte	0xb8
 1202 0783 02       		.byte	0x2
 1203 0784 00       		.byte	0
 1204 0785 0C       		.uleb128 0xc
 1205 0786 04       		.byte	0x4
 1206 0787 0E       		.byte	0xe
 1207 0788 94       		.byte	0x94
 1208 0789 A0070000 		.4byte	0x7a0
 1209 078d 16       		.uleb128 0x16
 1210 078e 5700     		.ascii	"W\000"
 1211 0790 0E       		.byte	0xe
 1212 0791 95       		.byte	0x95
 1213 0792 CE000000 		.4byte	0xce
 1214 0796 16       		.uleb128 0x16
 1215 0797 4800     		.ascii	"H\000"
 1216 0799 0E       		.byte	0xe
 1217 079a 99       		.byte	0x99
 1218 079b 64070000 		.4byte	0x764
 1219 079f 00       		.byte	0
 1220 07a0 08       		.uleb128 0x8
 1221 07a1 28       		.byte	0x28
 1222 07a2 0E       		.byte	0xe
 1223 07a3 8C       		.byte	0x8c
 1224 07a4 21080000 		.4byte	0x821
 1225 07a8 06       		.uleb128 0x6
 1226 07a9 A5010000 		.4byte	.LASF102
 1227 07ad 0E       		.byte	0xe
 1228 07ae 8E       		.byte	0x8e
 1229 07af 51030000 		.4byte	0x351
 1230 07b3 00       		.byte	0
 1231 07b4 06       		.uleb128 0x6
 1232 07b5 B8040000 		.4byte	.LASF103
 1233 07b9 0E       		.byte	0xe
 1234 07ba 8F       		.byte	0x8f
 1235 07bb 51030000 		.4byte	0x351
 1236 07bf 04       		.byte	0x4
 1237 07c0 06       		.uleb128 0x6
 1238 07c1 06040000 		.4byte	.LASF104
 1239 07c5 0E       		.byte	0xe
ARM GAS  /tmp/ccty5VNI.s 			page 23


 1240 07c6 90       		.byte	0x90
 1241 07c7 51030000 		.4byte	0x351
 1242 07cb 08       		.byte	0x8
 1243 07cc 06       		.uleb128 0x6
 1244 07cd DC020000 		.4byte	.LASF105
 1245 07d1 0E       		.byte	0xe
 1246 07d2 91       		.byte	0x91
 1247 07d3 51030000 		.4byte	0x351
 1248 07d7 0C       		.byte	0xc
 1249 07d8 07       		.uleb128 0x7
 1250 07d9 49445200 		.ascii	"IDR\000"
 1251 07dd 0E       		.byte	0xe
 1252 07de 92       		.byte	0x92
 1253 07df 51030000 		.4byte	0x351
 1254 07e3 10       		.byte	0x10
 1255 07e4 07       		.uleb128 0x7
 1256 07e5 4F445200 		.ascii	"ODR\000"
 1257 07e9 0E       		.byte	0xe
 1258 07ea 93       		.byte	0x93
 1259 07eb 51030000 		.4byte	0x351
 1260 07ef 14       		.byte	0x14
 1261 07f0 06       		.uleb128 0x6
 1262 07f1 31000000 		.4byte	.LASF106
 1263 07f5 0E       		.byte	0xe
 1264 07f6 9A       		.byte	0x9a
 1265 07f7 21080000 		.4byte	0x821
 1266 07fb 18       		.byte	0x18
 1267 07fc 06       		.uleb128 0x6
 1268 07fd 30060000 		.4byte	.LASF107
 1269 0801 0E       		.byte	0xe
 1270 0802 9B       		.byte	0x9b
 1271 0803 51030000 		.4byte	0x351
 1272 0807 1C       		.byte	0x1c
 1273 0808 06       		.uleb128 0x6
 1274 0809 B0010000 		.4byte	.LASF108
 1275 080d 0E       		.byte	0xe
 1276 080e 9C       		.byte	0x9c
 1277 080f 51030000 		.4byte	0x351
 1278 0813 20       		.byte	0x20
 1279 0814 06       		.uleb128 0x6
 1280 0815 AB010000 		.4byte	.LASF109
 1281 0819 0E       		.byte	0xe
 1282 081a 9D       		.byte	0x9d
 1283 081b 51030000 		.4byte	0x351
 1284 081f 24       		.byte	0x24
 1285 0820 00       		.byte	0
 1286 0821 0B       		.uleb128 0xb
 1287 0822 85070000 		.4byte	0x785
 1288 0826 03       		.uleb128 0x3
 1289 0827 00050000 		.4byte	.LASF110
 1290 082b 0E       		.byte	0xe
 1291 082c 9E       		.byte	0x9e
 1292 082d A0070000 		.4byte	0x7a0
 1293 0831 03       		.uleb128 0x3
 1294 0832 BF030000 		.4byte	.LASF111
 1295 0836 0E       		.byte	0xe
 1296 0837 F0       		.byte	0xf0
ARM GAS  /tmp/ccty5VNI.s 			page 24


 1297 0838 CE000000 		.4byte	0xce
 1298 083c 03       		.uleb128 0x3
 1299 083d D3050000 		.4byte	.LASF112
 1300 0841 0E       		.byte	0xe
 1301 0842 F5       		.byte	0xf5
 1302 0843 CE000000 		.4byte	0xce
 1303 0847 03       		.uleb128 0x3
 1304 0848 C2020000 		.4byte	.LASF113
 1305 084c 0E       		.byte	0xe
 1306 084d FD       		.byte	0xfd
 1307 084e 52080000 		.4byte	0x852
 1308 0852 09       		.uleb128 0x9
 1309 0853 04       		.byte	0x4
 1310 0854 26080000 		.4byte	0x826
 1311 0858 17       		.uleb128 0x17
 1312 0859 01       		.byte	0x1
 1313 085a 0F       		.byte	0xf
 1314 085b 64       		.byte	0x64
 1315 085c 73080000 		.4byte	0x873
 1316 0860 18       		.uleb128 0x18
 1317 0861 F6040000 		.4byte	.LASF114
 1318 0865 00       		.sleb128 0
 1319 0866 18       		.uleb128 0x18
 1320 0867 8F020000 		.4byte	.LASF115
 1321 086b 01       		.sleb128 1
 1322 086c 18       		.uleb128 0x18
 1323 086d 32040000 		.4byte	.LASF116
 1324 0871 02       		.sleb128 2
 1325 0872 00       		.byte	0
 1326 0873 03       		.uleb128 0x3
 1327 0874 5B010000 		.4byte	.LASF117
 1328 0878 0F       		.byte	0xf
 1329 0879 68       		.byte	0x68
 1330 087a 58080000 		.4byte	0x858
 1331 087e 03       		.uleb128 0x3
 1332 087f 16000000 		.4byte	.LASF118
 1333 0883 0F       		.byte	0xf
 1334 0884 6D       		.byte	0x6d
 1335 0885 89080000 		.4byte	0x889
 1336 0889 05       		.uleb128 0x5
 1337 088a 16000000 		.4byte	.LASF118
 1338 088e 7C       		.byte	0x7c
 1339 088f 0F       		.byte	0xf
 1340 0890 87       		.byte	0x87
 1341 0891 00090000 		.4byte	0x900
 1342 0895 07       		.uleb128 0x7
 1343 0896 766D7400 		.ascii	"vmt\000"
 1344 089a 0F       		.byte	0xf
 1345 089b 89       		.byte	0x89
 1346 089c B1090000 		.4byte	0x9b1
 1347 08a0 00       		.byte	0
 1348 08a1 06       		.uleb128 0x6
 1349 08a2 65010000 		.4byte	.LASF119
 1350 08a6 0F       		.byte	0xf
 1351 08a7 8A       		.byte	0x8a
 1352 08a8 67040000 		.4byte	0x467
 1353 08ac 04       		.byte	0x4
ARM GAS  /tmp/ccty5VNI.s 			page 25


 1354 08ad 06       		.uleb128 0x6
 1355 08ae BD050000 		.4byte	.LASF120
 1356 08b2 0F       		.byte	0xf
 1357 08b3 8A       		.byte	0x8a
 1358 08b4 73080000 		.4byte	0x873
 1359 08b8 08       		.byte	0x8
 1360 08b9 06       		.uleb128 0x6
 1361 08ba 2B010000 		.4byte	.LASF121
 1362 08be 0F       		.byte	0xf
 1363 08bf 8A       		.byte	0x8a
 1364 08c0 7F050000 		.4byte	0x57f
 1365 08c4 0C       		.byte	0xc
 1366 08c5 06       		.uleb128 0x6
 1367 08c6 1B040000 		.4byte	.LASF122
 1368 08ca 0F       		.byte	0xf
 1369 08cb 8A       		.byte	0x8a
 1370 08cc 8A050000 		.4byte	0x58a
 1371 08d0 30       		.byte	0x30
 1372 08d1 07       		.uleb128 0x7
 1373 08d2 696200   		.ascii	"ib\000"
 1374 08d5 0F       		.byte	0xf
 1375 08d6 8A       		.byte	0x8a
 1376 08d7 BC090000 		.4byte	0x9bc
 1377 08db 54       		.byte	0x54
 1378 08dc 07       		.uleb128 0x7
 1379 08dd 6F6200   		.ascii	"ob\000"
 1380 08e0 0F       		.byte	0xf
 1381 08e1 8A       		.byte	0x8a
 1382 08e2 BC090000 		.4byte	0x9bc
 1383 08e6 64       		.byte	0x64
 1384 08e7 06       		.uleb128 0x6
 1385 08e8 73030000 		.4byte	.LASF123
 1386 08ec 0F       		.byte	0xf
 1387 08ed 8A       		.byte	0x8a
 1388 08ee CC090000 		.4byte	0x9cc
 1389 08f2 74       		.byte	0x74
 1390 08f3 06       		.uleb128 0x6
 1391 08f4 D6020000 		.4byte	.LASF124
 1392 08f8 0F       		.byte	0xf
 1393 08f9 8A       		.byte	0x8a
 1394 08fa CE000000 		.4byte	0xce
 1395 08fe 78       		.byte	0x78
 1396 08ff 00       		.byte	0
 1397 0900 08       		.uleb128 0x8
 1398 0901 10       		.byte	0x10
 1399 0902 10       		.byte	0x10
 1400 0903 D7       		.byte	0xd7
 1401 0904 39090000 		.4byte	0x939
 1402 0908 06       		.uleb128 0x6
 1403 0909 19010000 		.4byte	.LASF125
 1404 090d 10       		.byte	0x10
 1405 090e DB       		.byte	0xdb
 1406 090f CE000000 		.4byte	0xce
 1407 0913 00       		.byte	0
 1408 0914 07       		.uleb128 0x7
 1409 0915 63723100 		.ascii	"cr1\000"
 1410 0919 10       		.byte	0x10
ARM GAS  /tmp/ccty5VNI.s 			page 26


 1411 091a E0       		.byte	0xe0
 1412 091b CE000000 		.4byte	0xce
 1413 091f 04       		.byte	0x4
 1414 0920 07       		.uleb128 0x7
 1415 0921 63723200 		.ascii	"cr2\000"
 1416 0925 10       		.byte	0x10
 1417 0926 E4       		.byte	0xe4
 1418 0927 CE000000 		.4byte	0xce
 1419 092b 08       		.byte	0x8
 1420 092c 07       		.uleb128 0x7
 1421 092d 63723300 		.ascii	"cr3\000"
 1422 0931 10       		.byte	0x10
 1423 0932 E8       		.byte	0xe8
 1424 0933 CE000000 		.4byte	0xce
 1425 0937 0C       		.byte	0xc
 1426 0938 00       		.byte	0
 1427 0939 03       		.uleb128 0x3
 1428 093a 4E010000 		.4byte	.LASF126
 1429 093e 10       		.byte	0x10
 1430 093f E9       		.byte	0xe9
 1431 0940 00090000 		.4byte	0x900
 1432 0944 05       		.uleb128 0x5
 1433 0945 3B040000 		.4byte	.LASF127
 1434 0949 20       		.byte	0x20
 1435 094a 0F       		.byte	0xf
 1436 094b 7C       		.byte	0x7c
 1437 094c B1090000 		.4byte	0x9b1
 1438 0950 06       		.uleb128 0x6
 1439 0951 87030000 		.4byte	.LASF128
 1440 0955 0F       		.byte	0xf
 1441 0956 7D       		.byte	0x7d
 1442 0957 B9050000 		.4byte	0x5b9
 1443 095b 00       		.byte	0
 1444 095c 06       		.uleb128 0x6
 1445 095d E5040000 		.4byte	.LASF129
 1446 0961 0F       		.byte	0xf
 1447 0962 7D       		.byte	0x7d
 1448 0963 D8050000 		.4byte	0x5d8
 1449 0967 04       		.byte	0x4
 1450 0968 07       		.uleb128 0x7
 1451 0969 70757400 		.ascii	"put\000"
 1452 096d 0F       		.byte	0xf
 1453 096e 7D       		.byte	0x7d
 1454 096f F2050000 		.4byte	0x5f2
 1455 0973 08       		.byte	0x8
 1456 0974 07       		.uleb128 0x7
 1457 0975 67657400 		.ascii	"get\000"
 1458 0979 0F       		.byte	0xf
 1459 097a 7D       		.byte	0x7d
 1460 097b CA040000 		.4byte	0x4ca
 1461 097f 0C       		.byte	0xc
 1462 0980 06       		.uleb128 0x6
 1463 0981 6A020000 		.4byte	.LASF130
 1464 0985 0F       		.byte	0xf
 1465 0986 7D       		.byte	0x7d
 1466 0987 FC060000 		.4byte	0x6fc
 1467 098b 10       		.byte	0x10
ARM GAS  /tmp/ccty5VNI.s 			page 27


 1468 098c 06       		.uleb128 0x6
 1469 098d 17050000 		.4byte	.LASF131
 1470 0991 0F       		.byte	0xf
 1471 0992 7D       		.byte	0x7d
 1472 0993 16070000 		.4byte	0x716
 1473 0997 14       		.byte	0x14
 1474 0998 06       		.uleb128 0x6
 1475 0999 1F010000 		.4byte	.LASF132
 1476 099d 0F       		.byte	0xf
 1477 099e 7D       		.byte	0x7d
 1478 099f 3A070000 		.4byte	0x73a
 1479 09a3 18       		.byte	0x18
 1480 09a4 06       		.uleb128 0x6
 1481 09a5 EF050000 		.4byte	.LASF133
 1482 09a9 0F       		.byte	0xf
 1483 09aa 7D       		.byte	0x7d
 1484 09ab 5E070000 		.4byte	0x75e
 1485 09af 1C       		.byte	0x1c
 1486 09b0 00       		.byte	0
 1487 09b1 09       		.uleb128 0x9
 1488 09b2 04       		.byte	0x4
 1489 09b3 B7090000 		.4byte	0x9b7
 1490 09b7 0E       		.uleb128 0xe
 1491 09b8 44090000 		.4byte	0x944
 1492 09bc 19       		.uleb128 0x19
 1493 09bd AD000000 		.4byte	0xad
 1494 09c1 CC090000 		.4byte	0x9cc
 1495 09c5 1A       		.uleb128 0x1a
 1496 09c6 56030000 		.4byte	0x356
 1497 09ca 0F       		.byte	0xf
 1498 09cb 00       		.byte	0
 1499 09cc 09       		.uleb128 0x9
 1500 09cd 04       		.byte	0x4
 1501 09ce D7060000 		.4byte	0x6d7
 1502 09d2 19       		.uleb128 0x19
 1503 09d3 B5020000 		.4byte	0x2b5
 1504 09d7 E2090000 		.4byte	0x9e2
 1505 09db 1A       		.uleb128 0x1a
 1506 09dc 56030000 		.4byte	0x356
 1507 09e0 25       		.byte	0x25
 1508 09e1 00       		.byte	0
 1509 09e2 1B       		.uleb128 0x1b
 1510 09e3 CB050000 		.4byte	.LASF134
 1511 09e7 01       		.byte	0x1
 1512 09e8 29       		.byte	0x29
 1513 09e9 22010000 		.4byte	0x122
 1514 09ed 00000000 		.4byte	.LFB41
 1515 09f1 30000000 		.4byte	.LFE41-.LFB41
 1516 09f5 01       		.uleb128 0x1
 1517 09f6 9C       		.byte	0x9c
 1518 09f7 2F0A0000 		.4byte	0xa2f
 1519 09fb 1C       		.uleb128 0x1c
 1520 09fc 61726700 		.ascii	"arg\000"
 1521 0a00 01       		.byte	0x1
 1522 0a01 29       		.byte	0x29
 1523 0a02 B3020000 		.4byte	0x2b3
 1524 0a06 00000000 		.4byte	.LLST0
ARM GAS  /tmp/ccty5VNI.s 			page 28


 1525 0a0a 1D       		.uleb128 0x1d
 1526 0a0b 1A000000 		.4byte	.LVL2
 1527 0a0f CD0B0000 		.4byte	0xbcd
 1528 0a13 1E0A0000 		.4byte	0xa1e
 1529 0a17 1E       		.uleb128 0x1e
 1530 0a18 01       		.uleb128 0x1
 1531 0a19 50       		.byte	0x50
 1532 0a1a 02       		.uleb128 0x2
 1533 0a1b 08       		.byte	0x8
 1534 0a1c FA       		.byte	0xfa
 1535 0a1d 00       		.byte	0
 1536 0a1e 1F       		.uleb128 0x1f
 1537 0a1f 22000000 		.4byte	.LVL3
 1538 0a23 CD0B0000 		.4byte	0xbcd
 1539 0a27 1E       		.uleb128 0x1e
 1540 0a28 01       		.uleb128 0x1
 1541 0a29 50       		.byte	0x50
 1542 0a2a 02       		.uleb128 0x2
 1543 0a2b 08       		.byte	0x8
 1544 0a2c FA       		.byte	0xfa
 1545 0a2d 00       		.byte	0
 1546 0a2e 00       		.byte	0
 1547 0a2f 1B       		.uleb128 0x1b
 1548 0a30 C3050000 		.4byte	.LASF135
 1549 0a34 01       		.byte	0x1
 1550 0a35 19       		.byte	0x19
 1551 0a36 22010000 		.4byte	0x122
 1552 0a3a 00000000 		.4byte	.LFB40
 1553 0a3e 34000000 		.4byte	.LFE40-.LFB40
 1554 0a42 01       		.uleb128 0x1
 1555 0a43 9C       		.byte	0x9c
 1556 0a44 7E0A0000 		.4byte	0xa7e
 1557 0a48 1C       		.uleb128 0x1c
 1558 0a49 61726700 		.ascii	"arg\000"
 1559 0a4d 01       		.byte	0x1
 1560 0a4e 19       		.byte	0x19
 1561 0a4f B3020000 		.4byte	0x2b3
 1562 0a53 21000000 		.4byte	.LLST1
 1563 0a57 1D       		.uleb128 0x1d
 1564 0a58 1C000000 		.4byte	.LVL6
 1565 0a5c CD0B0000 		.4byte	0xbcd
 1566 0a60 6C0A0000 		.4byte	0xa6c
 1567 0a64 1E       		.uleb128 0x1e
 1568 0a65 01       		.uleb128 0x1
 1569 0a66 50       		.byte	0x50
 1570 0a67 03       		.uleb128 0x3
 1571 0a68 0A       		.byte	0xa
 1572 0a69 F401     		.2byte	0x1f4
 1573 0a6b 00       		.byte	0
 1574 0a6c 1F       		.uleb128 0x1f
 1575 0a6d 26000000 		.4byte	.LVL7
 1576 0a71 CD0B0000 		.4byte	0xbcd
 1577 0a75 1E       		.uleb128 0x1e
 1578 0a76 01       		.uleb128 0x1
 1579 0a77 50       		.byte	0x50
 1580 0a78 03       		.uleb128 0x3
 1581 0a79 0A       		.byte	0xa
ARM GAS  /tmp/ccty5VNI.s 			page 29


 1582 0a7a F401     		.2byte	0x1f4
 1583 0a7c 00       		.byte	0
 1584 0a7d 00       		.byte	0
 1585 0a7e 20       		.uleb128 0x20
 1586 0a7f 19060000 		.4byte	.LASF148
 1587 0a83 01       		.byte	0x1
 1588 0a84 38       		.byte	0x38
 1589 0a85 25000000 		.4byte	0x25
 1590 0a89 00000000 		.4byte	.LFB42
 1591 0a8d 88000000 		.4byte	.LFE42-.LFB42
 1592 0a91 01       		.uleb128 0x1
 1593 0a92 9C       		.byte	0x9c
 1594 0a93 940B0000 		.4byte	0xb94
 1595 0a97 21       		.uleb128 0x21
 1596 0a98 08000000 		.4byte	.LVL8
 1597 0a9c DF0B0000 		.4byte	0xbdf
 1598 0aa0 21       		.uleb128 0x21
 1599 0aa1 0C000000 		.4byte	.LVL9
 1600 0aa5 E60B0000 		.4byte	0xbe6
 1601 0aa9 1D       		.uleb128 0x1d
 1602 0aaa 16000000 		.4byte	.LVL10
 1603 0aae ED0B0000 		.4byte	0xbed
 1604 0ab2 C20A0000 		.4byte	0xac2
 1605 0ab6 1E       		.uleb128 0x1e
 1606 0ab7 01       		.uleb128 0x1
 1607 0ab8 51       		.byte	0x51
 1608 0ab9 01       		.uleb128 0x1
 1609 0aba 30       		.byte	0x30
 1610 0abb 1E       		.uleb128 0x1e
 1611 0abc 01       		.uleb128 0x1
 1612 0abd 50       		.byte	0x50
 1613 0abe 02       		.uleb128 0x2
 1614 0abf 76       		.byte	0x76
 1615 0ac0 00       		.sleb128 0
 1616 0ac1 00       		.byte	0
 1617 0ac2 1D       		.uleb128 0x1d
 1618 0ac3 24000000 		.4byte	.LVL11
 1619 0ac7 150C0000 		.4byte	0xc15
 1620 0acb E40A0000 		.4byte	0xae4
 1621 0acf 1E       		.uleb128 0x1e
 1622 0ad0 01       		.uleb128 0x1
 1623 0ad1 52       		.byte	0x52
 1624 0ad2 02       		.uleb128 0x2
 1625 0ad3 08       		.byte	0x8
 1626 0ad4 82       		.byte	0x82
 1627 0ad5 1E       		.uleb128 0x1e
 1628 0ad6 01       		.uleb128 0x1
 1629 0ad7 51       		.byte	0x51
 1630 0ad8 03       		.uleb128 0x3
 1631 0ad9 0A       		.byte	0xa
 1632 0ada 0002     		.2byte	0x200
 1633 0adc 1E       		.uleb128 0x1e
 1634 0add 01       		.uleb128 0x1
 1635 0ade 50       		.byte	0x50
 1636 0adf 03       		.uleb128 0x3
 1637 0ae0 42       		.byte	0x42
 1638 0ae1 4A       		.byte	0x4a
ARM GAS  /tmp/ccty5VNI.s 			page 30


 1639 0ae2 24       		.byte	0x24
 1640 0ae3 00       		.byte	0
 1641 0ae4 1D       		.uleb128 0x1d
 1642 0ae5 32000000 		.4byte	.LVL12
 1643 0ae9 150C0000 		.4byte	0xc15
 1644 0aed 060B0000 		.4byte	0xb06
 1645 0af1 1E       		.uleb128 0x1e
 1646 0af2 01       		.uleb128 0x1
 1647 0af3 52       		.byte	0x52
 1648 0af4 02       		.uleb128 0x2
 1649 0af5 08       		.byte	0x8
 1650 0af6 82       		.byte	0x82
 1651 0af7 1E       		.uleb128 0x1e
 1652 0af8 01       		.uleb128 0x1
 1653 0af9 51       		.byte	0x51
 1654 0afa 03       		.uleb128 0x3
 1655 0afb 0A       		.byte	0xa
 1656 0afc 0004     		.2byte	0x400
 1657 0afe 1E       		.uleb128 0x1e
 1658 0aff 01       		.uleb128 0x1
 1659 0b00 50       		.byte	0x50
 1660 0b01 03       		.uleb128 0x3
 1661 0b02 42       		.byte	0x42
 1662 0b03 4A       		.byte	0x4a
 1663 0b04 24       		.byte	0x24
 1664 0b05 00       		.byte	0
 1665 0b06 1D       		.uleb128 0x1d
 1666 0b07 44000000 		.4byte	.LVL13
 1667 0b0b 310C0000 		.4byte	0xc31
 1668 0b0f 3A0B0000 		.4byte	0xb3a
 1669 0b13 1E       		.uleb128 0x1e
 1670 0b14 01       		.uleb128 0x1
 1671 0b15 53       		.byte	0x53
 1672 0b16 05       		.uleb128 0x5
 1673 0b17 03       		.byte	0x3
 1674 0b18 00000000 		.4byte	Thread1
 1675 0b1c 1E       		.uleb128 0x1e
 1676 0b1d 01       		.uleb128 0x1
 1677 0b1e 52       		.byte	0x52
 1678 0b1f 02       		.uleb128 0x2
 1679 0b20 08       		.byte	0x8
 1680 0b21 40       		.byte	0x40
 1681 0b22 1E       		.uleb128 0x1e
 1682 0b23 01       		.uleb128 0x1
 1683 0b24 51       		.byte	0x51
 1684 0b25 03       		.uleb128 0x3
 1685 0b26 0A       		.byte	0xa
 1686 0b27 3001     		.2byte	0x130
 1687 0b29 1E       		.uleb128 0x1e
 1688 0b2a 01       		.uleb128 0x1
 1689 0b2b 50       		.byte	0x50
 1690 0b2c 05       		.uleb128 0x5
 1691 0b2d 03       		.byte	0x3
 1692 0b2e 00000000 		.4byte	.LANCHOR0
 1693 0b32 1E       		.uleb128 0x1e
 1694 0b33 02       		.uleb128 0x2
 1695 0b34 7D       		.byte	0x7d
ARM GAS  /tmp/ccty5VNI.s 			page 31


 1696 0b35 00       		.sleb128 0
 1697 0b36 02       		.uleb128 0x2
 1698 0b37 74       		.byte	0x74
 1699 0b38 00       		.sleb128 0
 1700 0b39 00       		.byte	0
 1701 0b3a 1D       		.uleb128 0x1d
 1702 0b3b 56000000 		.4byte	.LVL14
 1703 0b3f 310C0000 		.4byte	0xc31
 1704 0b43 6E0B0000 		.4byte	0xb6e
 1705 0b47 1E       		.uleb128 0x1e
 1706 0b48 01       		.uleb128 0x1
 1707 0b49 53       		.byte	0x53
 1708 0b4a 05       		.uleb128 0x5
 1709 0b4b 03       		.byte	0x3
 1710 0b4c 00000000 		.4byte	Thread2
 1711 0b50 1E       		.uleb128 0x1e
 1712 0b51 01       		.uleb128 0x1
 1713 0b52 52       		.byte	0x52
 1714 0b53 02       		.uleb128 0x2
 1715 0b54 08       		.byte	0x8
 1716 0b55 40       		.byte	0x40
 1717 0b56 1E       		.uleb128 0x1e
 1718 0b57 01       		.uleb128 0x1
 1719 0b58 51       		.byte	0x51
 1720 0b59 03       		.uleb128 0x3
 1721 0b5a 0A       		.byte	0xa
 1722 0b5b 3001     		.2byte	0x130
 1723 0b5d 1E       		.uleb128 0x1e
 1724 0b5e 01       		.uleb128 0x1
 1725 0b5f 50       		.byte	0x50
 1726 0b60 05       		.uleb128 0x5
 1727 0b61 03       		.byte	0x3
 1728 0b62 00000000 		.4byte	.LANCHOR1
 1729 0b66 1E       		.uleb128 0x1e
 1730 0b67 02       		.uleb128 0x2
 1731 0b68 7D       		.byte	0x7d
 1732 0b69 00       		.sleb128 0
 1733 0b6a 02       		.uleb128 0x2
 1734 0b6b 74       		.byte	0x74
 1735 0b6c 00       		.sleb128 0
 1736 0b6d 00       		.byte	0
 1737 0b6e 1D       		.uleb128 0x1d
 1738 0b6f 64000000 		.4byte	.LVL15
 1739 0b73 CD0B0000 		.4byte	0xbcd
 1740 0b77 830B0000 		.4byte	0xb83
 1741 0b7b 1E       		.uleb128 0x1e
 1742 0b7c 01       		.uleb128 0x1
 1743 0b7d 50       		.byte	0x50
 1744 0b7e 03       		.uleb128 0x3
 1745 0b7f 0A       		.byte	0xa
 1746 0b80 F401     		.2byte	0x1f4
 1747 0b82 00       		.byte	0
 1748 0b83 1F       		.uleb128 0x1f
 1749 0b84 70000000 		.4byte	.LVL16
 1750 0b88 5B0C0000 		.4byte	0xc5b
 1751 0b8c 1E       		.uleb128 0x1e
 1752 0b8d 01       		.uleb128 0x1
ARM GAS  /tmp/ccty5VNI.s 			page 32


 1753 0b8e 50       		.byte	0x50
 1754 0b8f 02       		.uleb128 0x2
 1755 0b90 76       		.byte	0x76
 1756 0b91 00       		.sleb128 0
 1757 0b92 00       		.byte	0
 1758 0b93 00       		.byte	0
 1759 0b94 22       		.uleb128 0x22
 1760 0b95 62050000 		.4byte	.LASF136
 1761 0b99 01       		.byte	0x1
 1762 0b9a 18       		.byte	0x18
 1763 0b9b D2090000 		.4byte	0x9d2
 1764 0b9f 05       		.uleb128 0x5
 1765 0ba0 03       		.byte	0x3
 1766 0ba1 00000000 		.4byte	waThread1
 1767 0ba5 22       		.uleb128 0x22
 1768 0ba6 6C050000 		.4byte	.LASF137
 1769 0baa 01       		.byte	0x1
 1770 0bab 28       		.byte	0x28
 1771 0bac D2090000 		.4byte	0x9d2
 1772 0bb0 05       		.uleb128 0x5
 1773 0bb1 03       		.byte	0x3
 1774 0bb2 00000000 		.4byte	waThread2
 1775 0bb6 23       		.uleb128 0x23
 1776 0bb7 D5040000 		.4byte	.LASF138
 1777 0bbb 09       		.byte	0x9
 1778 0bbc 6F       		.byte	0x6f
 1779 0bbd B3030000 		.4byte	0x3b3
 1780 0bc1 24       		.uleb128 0x24
 1781 0bc2 53443100 		.ascii	"SD1\000"
 1782 0bc6 10       		.byte	0x10
 1783 0bc7 1101     		.2byte	0x111
 1784 0bc9 7E080000 		.4byte	0x87e
 1785 0bcd 25       		.uleb128 0x25
 1786 0bce A0050000 		.4byte	.LASF141
 1787 0bd2 07       		.byte	0x7
 1788 0bd3 7501     		.2byte	0x175
 1789 0bd5 DF0B0000 		.4byte	0xbdf
 1790 0bd9 10       		.uleb128 0x10
 1791 0bda 43010000 		.4byte	0x143
 1792 0bde 00       		.byte	0
 1793 0bdf 26       		.uleb128 0x26
 1794 0be0 30030000 		.4byte	.LASF139
 1795 0be4 11       		.byte	0x11
 1796 0be5 D0       		.byte	0xd0
 1797 0be6 26       		.uleb128 0x26
 1798 0be7 06030000 		.4byte	.LASF140
 1799 0beb 12       		.byte	0x12
 1800 0bec F6       		.byte	0xf6
 1801 0bed 25       		.uleb128 0x25
 1802 0bee 9D010000 		.4byte	.LASF142
 1803 0bf2 0F       		.byte	0xf
 1804 0bf3 3701     		.2byte	0x137
 1805 0bf5 040C0000 		.4byte	0xc04
 1806 0bf9 10       		.uleb128 0x10
 1807 0bfa 040C0000 		.4byte	0xc04
 1808 0bfe 10       		.uleb128 0x10
 1809 0bff 0A0C0000 		.4byte	0xc0a
ARM GAS  /tmp/ccty5VNI.s 			page 33


 1810 0c03 00       		.byte	0
 1811 0c04 09       		.uleb128 0x9
 1812 0c05 04       		.byte	0x4
 1813 0c06 7E080000 		.4byte	0x87e
 1814 0c0a 09       		.uleb128 0x9
 1815 0c0b 04       		.byte	0x4
 1816 0c0c 100C0000 		.4byte	0xc10
 1817 0c10 0E       		.uleb128 0xe
 1818 0c11 39090000 		.4byte	0x939
 1819 0c15 25       		.uleb128 0x25
 1820 0c16 CA000000 		.4byte	.LASF143
 1821 0c1a 0E       		.byte	0xe
 1822 0c1b C201     		.2byte	0x1c2
 1823 0c1d 310C0000 		.4byte	0xc31
 1824 0c21 10       		.uleb128 0x10
 1825 0c22 47080000 		.4byte	0x847
 1826 0c26 10       		.uleb128 0x10
 1827 0c27 31080000 		.4byte	0x831
 1828 0c2b 10       		.uleb128 0x10
 1829 0c2c 3C080000 		.4byte	0x83c
 1830 0c30 00       		.byte	0
 1831 0c31 27       		.uleb128 0x27
 1832 0c32 DE030000 		.4byte	.LASF149
 1833 0c36 07       		.byte	0x7
 1834 0c37 7001     		.2byte	0x170
 1835 0c39 77020000 		.4byte	0x277
 1836 0c3d 5B0C0000 		.4byte	0xc5b
 1837 0c41 10       		.uleb128 0x10
 1838 0c42 B3020000 		.4byte	0x2b3
 1839 0c46 10       		.uleb128 0x10
 1840 0c47 2C000000 		.4byte	0x2c
 1841 0c4b 10       		.uleb128 0x10
 1842 0c4c 17010000 		.4byte	0x117
 1843 0c50 10       		.uleb128 0x10
 1844 0c51 BF040000 		.4byte	0x4bf
 1845 0c55 10       		.uleb128 0x10
 1846 0c56 B3020000 		.4byte	0x2b3
 1847 0c5a 00       		.byte	0
 1848 0c5b 28       		.uleb128 0x28
 1849 0c5c AC030000 		.4byte	.LASF144
 1850 0c60 13       		.byte	0x13
 1851 0c61 52       		.byte	0x52
 1852 0c62 22010000 		.4byte	0x122
 1853 0c66 10       		.uleb128 0x10
 1854 0c67 B3020000 		.4byte	0x2b3
 1855 0c6b 00       		.byte	0
 1856 0c6c 00       		.byte	0
 1857              		.section	.debug_abbrev,"",%progbits
 1858              	.Ldebug_abbrev0:
 1859 0000 01       		.uleb128 0x1
 1860 0001 11       		.uleb128 0x11
 1861 0002 01       		.byte	0x1
 1862 0003 25       		.uleb128 0x25
 1863 0004 0E       		.uleb128 0xe
 1864 0005 13       		.uleb128 0x13
 1865 0006 0B       		.uleb128 0xb
 1866 0007 03       		.uleb128 0x3
ARM GAS  /tmp/ccty5VNI.s 			page 34


 1867 0008 0E       		.uleb128 0xe
 1868 0009 1B       		.uleb128 0x1b
 1869 000a 0E       		.uleb128 0xe
 1870 000b 55       		.uleb128 0x55
 1871 000c 17       		.uleb128 0x17
 1872 000d 11       		.uleb128 0x11
 1873 000e 01       		.uleb128 0x1
 1874 000f 10       		.uleb128 0x10
 1875 0010 17       		.uleb128 0x17
 1876 0011 00       		.byte	0
 1877 0012 00       		.byte	0
 1878 0013 02       		.uleb128 0x2
 1879 0014 24       		.uleb128 0x24
 1880 0015 00       		.byte	0
 1881 0016 0B       		.uleb128 0xb
 1882 0017 0B       		.uleb128 0xb
 1883 0018 3E       		.uleb128 0x3e
 1884 0019 0B       		.uleb128 0xb
 1885 001a 03       		.uleb128 0x3
 1886 001b 08       		.uleb128 0x8
 1887 001c 00       		.byte	0
 1888 001d 00       		.byte	0
 1889 001e 03       		.uleb128 0x3
 1890 001f 16       		.uleb128 0x16
 1891 0020 00       		.byte	0
 1892 0021 03       		.uleb128 0x3
 1893 0022 0E       		.uleb128 0xe
 1894 0023 3A       		.uleb128 0x3a
 1895 0024 0B       		.uleb128 0xb
 1896 0025 3B       		.uleb128 0x3b
 1897 0026 0B       		.uleb128 0xb
 1898 0027 49       		.uleb128 0x49
 1899 0028 13       		.uleb128 0x13
 1900 0029 00       		.byte	0
 1901 002a 00       		.byte	0
 1902 002b 04       		.uleb128 0x4
 1903 002c 24       		.uleb128 0x24
 1904 002d 00       		.byte	0
 1905 002e 0B       		.uleb128 0xb
 1906 002f 0B       		.uleb128 0xb
 1907 0030 3E       		.uleb128 0x3e
 1908 0031 0B       		.uleb128 0xb
 1909 0032 03       		.uleb128 0x3
 1910 0033 0E       		.uleb128 0xe
 1911 0034 00       		.byte	0
 1912 0035 00       		.byte	0
 1913 0036 05       		.uleb128 0x5
 1914 0037 13       		.uleb128 0x13
 1915 0038 01       		.byte	0x1
 1916 0039 03       		.uleb128 0x3
 1917 003a 0E       		.uleb128 0xe
 1918 003b 0B       		.uleb128 0xb
 1919 003c 0B       		.uleb128 0xb
 1920 003d 3A       		.uleb128 0x3a
 1921 003e 0B       		.uleb128 0xb
 1922 003f 3B       		.uleb128 0x3b
 1923 0040 0B       		.uleb128 0xb
ARM GAS  /tmp/ccty5VNI.s 			page 35


 1924 0041 01       		.uleb128 0x1
 1925 0042 13       		.uleb128 0x13
 1926 0043 00       		.byte	0
 1927 0044 00       		.byte	0
 1928 0045 06       		.uleb128 0x6
 1929 0046 0D       		.uleb128 0xd
 1930 0047 00       		.byte	0
 1931 0048 03       		.uleb128 0x3
 1932 0049 0E       		.uleb128 0xe
 1933 004a 3A       		.uleb128 0x3a
 1934 004b 0B       		.uleb128 0xb
 1935 004c 3B       		.uleb128 0x3b
 1936 004d 0B       		.uleb128 0xb
 1937 004e 49       		.uleb128 0x49
 1938 004f 13       		.uleb128 0x13
 1939 0050 38       		.uleb128 0x38
 1940 0051 0B       		.uleb128 0xb
 1941 0052 00       		.byte	0
 1942 0053 00       		.byte	0
 1943 0054 07       		.uleb128 0x7
 1944 0055 0D       		.uleb128 0xd
 1945 0056 00       		.byte	0
 1946 0057 03       		.uleb128 0x3
 1947 0058 08       		.uleb128 0x8
 1948 0059 3A       		.uleb128 0x3a
 1949 005a 0B       		.uleb128 0xb
 1950 005b 3B       		.uleb128 0x3b
 1951 005c 0B       		.uleb128 0xb
 1952 005d 49       		.uleb128 0x49
 1953 005e 13       		.uleb128 0x13
 1954 005f 38       		.uleb128 0x38
 1955 0060 0B       		.uleb128 0xb
 1956 0061 00       		.byte	0
 1957 0062 00       		.byte	0
 1958 0063 08       		.uleb128 0x8
 1959 0064 13       		.uleb128 0x13
 1960 0065 01       		.byte	0x1
 1961 0066 0B       		.uleb128 0xb
 1962 0067 0B       		.uleb128 0xb
 1963 0068 3A       		.uleb128 0x3a
 1964 0069 0B       		.uleb128 0xb
 1965 006a 3B       		.uleb128 0x3b
 1966 006b 0B       		.uleb128 0xb
 1967 006c 01       		.uleb128 0x1
 1968 006d 13       		.uleb128 0x13
 1969 006e 00       		.byte	0
 1970 006f 00       		.byte	0
 1971 0070 09       		.uleb128 0x9
 1972 0071 0F       		.uleb128 0xf
 1973 0072 00       		.byte	0
 1974 0073 0B       		.uleb128 0xb
 1975 0074 0B       		.uleb128 0xb
 1976 0075 49       		.uleb128 0x49
 1977 0076 13       		.uleb128 0x13
 1978 0077 00       		.byte	0
 1979 0078 00       		.byte	0
 1980 0079 0A       		.uleb128 0xa
ARM GAS  /tmp/ccty5VNI.s 			page 36


 1981 007a 0F       		.uleb128 0xf
 1982 007b 00       		.byte	0
 1983 007c 0B       		.uleb128 0xb
 1984 007d 0B       		.uleb128 0xb
 1985 007e 00       		.byte	0
 1986 007f 00       		.byte	0
 1987 0080 0B       		.uleb128 0xb
 1988 0081 35       		.uleb128 0x35
 1989 0082 00       		.byte	0
 1990 0083 49       		.uleb128 0x49
 1991 0084 13       		.uleb128 0x13
 1992 0085 00       		.byte	0
 1993 0086 00       		.byte	0
 1994 0087 0C       		.uleb128 0xc
 1995 0088 17       		.uleb128 0x17
 1996 0089 01       		.byte	0x1
 1997 008a 0B       		.uleb128 0xb
 1998 008b 0B       		.uleb128 0xb
 1999 008c 3A       		.uleb128 0x3a
 2000 008d 0B       		.uleb128 0xb
 2001 008e 3B       		.uleb128 0x3b
 2002 008f 0B       		.uleb128 0xb
 2003 0090 01       		.uleb128 0x1
 2004 0091 13       		.uleb128 0x13
 2005 0092 00       		.byte	0
 2006 0093 00       		.byte	0
 2007 0094 0D       		.uleb128 0xd
 2008 0095 0D       		.uleb128 0xd
 2009 0096 00       		.byte	0
 2010 0097 03       		.uleb128 0x3
 2011 0098 0E       		.uleb128 0xe
 2012 0099 3A       		.uleb128 0x3a
 2013 009a 0B       		.uleb128 0xb
 2014 009b 3B       		.uleb128 0x3b
 2015 009c 0B       		.uleb128 0xb
 2016 009d 49       		.uleb128 0x49
 2017 009e 13       		.uleb128 0x13
 2018 009f 00       		.byte	0
 2019 00a0 00       		.byte	0
 2020 00a1 0E       		.uleb128 0xe
 2021 00a2 26       		.uleb128 0x26
 2022 00a3 00       		.byte	0
 2023 00a4 49       		.uleb128 0x49
 2024 00a5 13       		.uleb128 0x13
 2025 00a6 00       		.byte	0
 2026 00a7 00       		.byte	0
 2027 00a8 0F       		.uleb128 0xf
 2028 00a9 15       		.uleb128 0x15
 2029 00aa 01       		.byte	0x1
 2030 00ab 27       		.uleb128 0x27
 2031 00ac 19       		.uleb128 0x19
 2032 00ad 49       		.uleb128 0x49
 2033 00ae 13       		.uleb128 0x13
 2034 00af 01       		.uleb128 0x1
 2035 00b0 13       		.uleb128 0x13
 2036 00b1 00       		.byte	0
 2037 00b2 00       		.byte	0
ARM GAS  /tmp/ccty5VNI.s 			page 37


 2038 00b3 10       		.uleb128 0x10
 2039 00b4 05       		.uleb128 0x5
 2040 00b5 00       		.byte	0
 2041 00b6 49       		.uleb128 0x49
 2042 00b7 13       		.uleb128 0x13
 2043 00b8 00       		.byte	0
 2044 00b9 00       		.byte	0
 2045 00ba 11       		.uleb128 0x11
 2046 00bb 15       		.uleb128 0x15
 2047 00bc 01       		.byte	0x1
 2048 00bd 27       		.uleb128 0x27
 2049 00be 19       		.uleb128 0x19
 2050 00bf 01       		.uleb128 0x1
 2051 00c0 13       		.uleb128 0x13
 2052 00c1 00       		.byte	0
 2053 00c2 00       		.byte	0
 2054 00c3 12       		.uleb128 0x12
 2055 00c4 13       		.uleb128 0x13
 2056 00c5 01       		.byte	0x1
 2057 00c6 0B       		.uleb128 0xb
 2058 00c7 0B       		.uleb128 0xb
 2059 00c8 3A       		.uleb128 0x3a
 2060 00c9 0B       		.uleb128 0xb
 2061 00ca 3B       		.uleb128 0x3b
 2062 00cb 05       		.uleb128 0x5
 2063 00cc 01       		.uleb128 0x1
 2064 00cd 13       		.uleb128 0x13
 2065 00ce 00       		.byte	0
 2066 00cf 00       		.byte	0
 2067 00d0 13       		.uleb128 0x13
 2068 00d1 0D       		.uleb128 0xd
 2069 00d2 00       		.byte	0
 2070 00d3 03       		.uleb128 0x3
 2071 00d4 08       		.uleb128 0x8
 2072 00d5 3A       		.uleb128 0x3a
 2073 00d6 0B       		.uleb128 0xb
 2074 00d7 3B       		.uleb128 0x3b
 2075 00d8 05       		.uleb128 0x5
 2076 00d9 49       		.uleb128 0x49
 2077 00da 13       		.uleb128 0x13
 2078 00db 38       		.uleb128 0x38
 2079 00dc 0B       		.uleb128 0xb
 2080 00dd 00       		.byte	0
 2081 00de 00       		.byte	0
 2082 00df 14       		.uleb128 0x14
 2083 00e0 0D       		.uleb128 0xd
 2084 00e1 00       		.byte	0
 2085 00e2 03       		.uleb128 0x3
 2086 00e3 0E       		.uleb128 0xe
 2087 00e4 3A       		.uleb128 0x3a
 2088 00e5 0B       		.uleb128 0xb
 2089 00e6 3B       		.uleb128 0x3b
 2090 00e7 05       		.uleb128 0x5
 2091 00e8 49       		.uleb128 0x49
 2092 00e9 13       		.uleb128 0x13
 2093 00ea 38       		.uleb128 0x38
 2094 00eb 0B       		.uleb128 0xb
ARM GAS  /tmp/ccty5VNI.s 			page 38


 2095 00ec 00       		.byte	0
 2096 00ed 00       		.byte	0
 2097 00ee 15       		.uleb128 0x15
 2098 00ef 16       		.uleb128 0x16
 2099 00f0 00       		.byte	0
 2100 00f1 03       		.uleb128 0x3
 2101 00f2 0E       		.uleb128 0xe
 2102 00f3 3A       		.uleb128 0x3a
 2103 00f4 0B       		.uleb128 0xb
 2104 00f5 3B       		.uleb128 0x3b
 2105 00f6 05       		.uleb128 0x5
 2106 00f7 49       		.uleb128 0x49
 2107 00f8 13       		.uleb128 0x13
 2108 00f9 00       		.byte	0
 2109 00fa 00       		.byte	0
 2110 00fb 16       		.uleb128 0x16
 2111 00fc 0D       		.uleb128 0xd
 2112 00fd 00       		.byte	0
 2113 00fe 03       		.uleb128 0x3
 2114 00ff 08       		.uleb128 0x8
 2115 0100 3A       		.uleb128 0x3a
 2116 0101 0B       		.uleb128 0xb
 2117 0102 3B       		.uleb128 0x3b
 2118 0103 0B       		.uleb128 0xb
 2119 0104 49       		.uleb128 0x49
 2120 0105 13       		.uleb128 0x13
 2121 0106 00       		.byte	0
 2122 0107 00       		.byte	0
 2123 0108 17       		.uleb128 0x17
 2124 0109 04       		.uleb128 0x4
 2125 010a 01       		.byte	0x1
 2126 010b 0B       		.uleb128 0xb
 2127 010c 0B       		.uleb128 0xb
 2128 010d 3A       		.uleb128 0x3a
 2129 010e 0B       		.uleb128 0xb
 2130 010f 3B       		.uleb128 0x3b
 2131 0110 0B       		.uleb128 0xb
 2132 0111 01       		.uleb128 0x1
 2133 0112 13       		.uleb128 0x13
 2134 0113 00       		.byte	0
 2135 0114 00       		.byte	0
 2136 0115 18       		.uleb128 0x18
 2137 0116 28       		.uleb128 0x28
 2138 0117 00       		.byte	0
 2139 0118 03       		.uleb128 0x3
 2140 0119 0E       		.uleb128 0xe
 2141 011a 1C       		.uleb128 0x1c
 2142 011b 0D       		.uleb128 0xd
 2143 011c 00       		.byte	0
 2144 011d 00       		.byte	0
 2145 011e 19       		.uleb128 0x19
 2146 011f 01       		.uleb128 0x1
 2147 0120 01       		.byte	0x1
 2148 0121 49       		.uleb128 0x49
 2149 0122 13       		.uleb128 0x13
 2150 0123 01       		.uleb128 0x1
 2151 0124 13       		.uleb128 0x13
ARM GAS  /tmp/ccty5VNI.s 			page 39


 2152 0125 00       		.byte	0
 2153 0126 00       		.byte	0
 2154 0127 1A       		.uleb128 0x1a
 2155 0128 21       		.uleb128 0x21
 2156 0129 00       		.byte	0
 2157 012a 49       		.uleb128 0x49
 2158 012b 13       		.uleb128 0x13
 2159 012c 2F       		.uleb128 0x2f
 2160 012d 0B       		.uleb128 0xb
 2161 012e 00       		.byte	0
 2162 012f 00       		.byte	0
 2163 0130 1B       		.uleb128 0x1b
 2164 0131 2E       		.uleb128 0x2e
 2165 0132 01       		.byte	0x1
 2166 0133 03       		.uleb128 0x3
 2167 0134 0E       		.uleb128 0xe
 2168 0135 3A       		.uleb128 0x3a
 2169 0136 0B       		.uleb128 0xb
 2170 0137 3B       		.uleb128 0x3b
 2171 0138 0B       		.uleb128 0xb
 2172 0139 27       		.uleb128 0x27
 2173 013a 19       		.uleb128 0x19
 2174 013b 49       		.uleb128 0x49
 2175 013c 13       		.uleb128 0x13
 2176 013d 11       		.uleb128 0x11
 2177 013e 01       		.uleb128 0x1
 2178 013f 12       		.uleb128 0x12
 2179 0140 06       		.uleb128 0x6
 2180 0141 40       		.uleb128 0x40
 2181 0142 18       		.uleb128 0x18
 2182 0143 9742     		.uleb128 0x2117
 2183 0145 19       		.uleb128 0x19
 2184 0146 01       		.uleb128 0x1
 2185 0147 13       		.uleb128 0x13
 2186 0148 00       		.byte	0
 2187 0149 00       		.byte	0
 2188 014a 1C       		.uleb128 0x1c
 2189 014b 05       		.uleb128 0x5
 2190 014c 00       		.byte	0
 2191 014d 03       		.uleb128 0x3
 2192 014e 08       		.uleb128 0x8
 2193 014f 3A       		.uleb128 0x3a
 2194 0150 0B       		.uleb128 0xb
 2195 0151 3B       		.uleb128 0x3b
 2196 0152 0B       		.uleb128 0xb
 2197 0153 49       		.uleb128 0x49
 2198 0154 13       		.uleb128 0x13
 2199 0155 02       		.uleb128 0x2
 2200 0156 17       		.uleb128 0x17
 2201 0157 00       		.byte	0
 2202 0158 00       		.byte	0
 2203 0159 1D       		.uleb128 0x1d
 2204 015a 898201   		.uleb128 0x4109
 2205 015d 01       		.byte	0x1
 2206 015e 11       		.uleb128 0x11
 2207 015f 01       		.uleb128 0x1
 2208 0160 31       		.uleb128 0x31
ARM GAS  /tmp/ccty5VNI.s 			page 40


 2209 0161 13       		.uleb128 0x13
 2210 0162 01       		.uleb128 0x1
 2211 0163 13       		.uleb128 0x13
 2212 0164 00       		.byte	0
 2213 0165 00       		.byte	0
 2214 0166 1E       		.uleb128 0x1e
 2215 0167 8A8201   		.uleb128 0x410a
 2216 016a 00       		.byte	0
 2217 016b 02       		.uleb128 0x2
 2218 016c 18       		.uleb128 0x18
 2219 016d 9142     		.uleb128 0x2111
 2220 016f 18       		.uleb128 0x18
 2221 0170 00       		.byte	0
 2222 0171 00       		.byte	0
 2223 0172 1F       		.uleb128 0x1f
 2224 0173 898201   		.uleb128 0x4109
 2225 0176 01       		.byte	0x1
 2226 0177 11       		.uleb128 0x11
 2227 0178 01       		.uleb128 0x1
 2228 0179 31       		.uleb128 0x31
 2229 017a 13       		.uleb128 0x13
 2230 017b 00       		.byte	0
 2231 017c 00       		.byte	0
 2232 017d 20       		.uleb128 0x20
 2233 017e 2E       		.uleb128 0x2e
 2234 017f 01       		.byte	0x1
 2235 0180 3F       		.uleb128 0x3f
 2236 0181 19       		.uleb128 0x19
 2237 0182 03       		.uleb128 0x3
 2238 0183 0E       		.uleb128 0xe
 2239 0184 3A       		.uleb128 0x3a
 2240 0185 0B       		.uleb128 0xb
 2241 0186 3B       		.uleb128 0x3b
 2242 0187 0B       		.uleb128 0xb
 2243 0188 27       		.uleb128 0x27
 2244 0189 19       		.uleb128 0x19
 2245 018a 49       		.uleb128 0x49
 2246 018b 13       		.uleb128 0x13
 2247 018c 11       		.uleb128 0x11
 2248 018d 01       		.uleb128 0x1
 2249 018e 12       		.uleb128 0x12
 2250 018f 06       		.uleb128 0x6
 2251 0190 40       		.uleb128 0x40
 2252 0191 18       		.uleb128 0x18
 2253 0192 9742     		.uleb128 0x2117
 2254 0194 19       		.uleb128 0x19
 2255 0195 01       		.uleb128 0x1
 2256 0196 13       		.uleb128 0x13
 2257 0197 00       		.byte	0
 2258 0198 00       		.byte	0
 2259 0199 21       		.uleb128 0x21
 2260 019a 898201   		.uleb128 0x4109
 2261 019d 00       		.byte	0
 2262 019e 11       		.uleb128 0x11
 2263 019f 01       		.uleb128 0x1
 2264 01a0 31       		.uleb128 0x31
 2265 01a1 13       		.uleb128 0x13
ARM GAS  /tmp/ccty5VNI.s 			page 41


 2266 01a2 00       		.byte	0
 2267 01a3 00       		.byte	0
 2268 01a4 22       		.uleb128 0x22
 2269 01a5 34       		.uleb128 0x34
 2270 01a6 00       		.byte	0
 2271 01a7 03       		.uleb128 0x3
 2272 01a8 0E       		.uleb128 0xe
 2273 01a9 3A       		.uleb128 0x3a
 2274 01aa 0B       		.uleb128 0xb
 2275 01ab 3B       		.uleb128 0x3b
 2276 01ac 0B       		.uleb128 0xb
 2277 01ad 49       		.uleb128 0x49
 2278 01ae 13       		.uleb128 0x13
 2279 01af 02       		.uleb128 0x2
 2280 01b0 18       		.uleb128 0x18
 2281 01b1 00       		.byte	0
 2282 01b2 00       		.byte	0
 2283 01b3 23       		.uleb128 0x23
 2284 01b4 34       		.uleb128 0x34
 2285 01b5 00       		.byte	0
 2286 01b6 03       		.uleb128 0x3
 2287 01b7 0E       		.uleb128 0xe
 2288 01b8 3A       		.uleb128 0x3a
 2289 01b9 0B       		.uleb128 0xb
 2290 01ba 3B       		.uleb128 0x3b
 2291 01bb 0B       		.uleb128 0xb
 2292 01bc 49       		.uleb128 0x49
 2293 01bd 13       		.uleb128 0x13
 2294 01be 3F       		.uleb128 0x3f
 2295 01bf 19       		.uleb128 0x19
 2296 01c0 3C       		.uleb128 0x3c
 2297 01c1 19       		.uleb128 0x19
 2298 01c2 00       		.byte	0
 2299 01c3 00       		.byte	0
 2300 01c4 24       		.uleb128 0x24
 2301 01c5 34       		.uleb128 0x34
 2302 01c6 00       		.byte	0
 2303 01c7 03       		.uleb128 0x3
 2304 01c8 08       		.uleb128 0x8
 2305 01c9 3A       		.uleb128 0x3a
 2306 01ca 0B       		.uleb128 0xb
 2307 01cb 3B       		.uleb128 0x3b
 2308 01cc 05       		.uleb128 0x5
 2309 01cd 49       		.uleb128 0x49
 2310 01ce 13       		.uleb128 0x13
 2311 01cf 3F       		.uleb128 0x3f
 2312 01d0 19       		.uleb128 0x19
 2313 01d1 3C       		.uleb128 0x3c
 2314 01d2 19       		.uleb128 0x19
 2315 01d3 00       		.byte	0
 2316 01d4 00       		.byte	0
 2317 01d5 25       		.uleb128 0x25
 2318 01d6 2E       		.uleb128 0x2e
 2319 01d7 01       		.byte	0x1
 2320 01d8 3F       		.uleb128 0x3f
 2321 01d9 19       		.uleb128 0x19
 2322 01da 03       		.uleb128 0x3
ARM GAS  /tmp/ccty5VNI.s 			page 42


 2323 01db 0E       		.uleb128 0xe
 2324 01dc 3A       		.uleb128 0x3a
 2325 01dd 0B       		.uleb128 0xb
 2326 01de 3B       		.uleb128 0x3b
 2327 01df 05       		.uleb128 0x5
 2328 01e0 27       		.uleb128 0x27
 2329 01e1 19       		.uleb128 0x19
 2330 01e2 3C       		.uleb128 0x3c
 2331 01e3 19       		.uleb128 0x19
 2332 01e4 01       		.uleb128 0x1
 2333 01e5 13       		.uleb128 0x13
 2334 01e6 00       		.byte	0
 2335 01e7 00       		.byte	0
 2336 01e8 26       		.uleb128 0x26
 2337 01e9 2E       		.uleb128 0x2e
 2338 01ea 00       		.byte	0
 2339 01eb 3F       		.uleb128 0x3f
 2340 01ec 19       		.uleb128 0x19
 2341 01ed 03       		.uleb128 0x3
 2342 01ee 0E       		.uleb128 0xe
 2343 01ef 3A       		.uleb128 0x3a
 2344 01f0 0B       		.uleb128 0xb
 2345 01f1 3B       		.uleb128 0x3b
 2346 01f2 0B       		.uleb128 0xb
 2347 01f3 27       		.uleb128 0x27
 2348 01f4 19       		.uleb128 0x19
 2349 01f5 3C       		.uleb128 0x3c
 2350 01f6 19       		.uleb128 0x19
 2351 01f7 00       		.byte	0
 2352 01f8 00       		.byte	0
 2353 01f9 27       		.uleb128 0x27
 2354 01fa 2E       		.uleb128 0x2e
 2355 01fb 01       		.byte	0x1
 2356 01fc 3F       		.uleb128 0x3f
 2357 01fd 19       		.uleb128 0x19
 2358 01fe 03       		.uleb128 0x3
 2359 01ff 0E       		.uleb128 0xe
 2360 0200 3A       		.uleb128 0x3a
 2361 0201 0B       		.uleb128 0xb
 2362 0202 3B       		.uleb128 0x3b
 2363 0203 05       		.uleb128 0x5
 2364 0204 27       		.uleb128 0x27
 2365 0205 19       		.uleb128 0x19
 2366 0206 49       		.uleb128 0x49
 2367 0207 13       		.uleb128 0x13
 2368 0208 3C       		.uleb128 0x3c
 2369 0209 19       		.uleb128 0x19
 2370 020a 01       		.uleb128 0x1
 2371 020b 13       		.uleb128 0x13
 2372 020c 00       		.byte	0
 2373 020d 00       		.byte	0
 2374 020e 28       		.uleb128 0x28
 2375 020f 2E       		.uleb128 0x2e
 2376 0210 01       		.byte	0x1
 2377 0211 3F       		.uleb128 0x3f
 2378 0212 19       		.uleb128 0x19
 2379 0213 03       		.uleb128 0x3
ARM GAS  /tmp/ccty5VNI.s 			page 43


 2380 0214 0E       		.uleb128 0xe
 2381 0215 3A       		.uleb128 0x3a
 2382 0216 0B       		.uleb128 0xb
 2383 0217 3B       		.uleb128 0x3b
 2384 0218 0B       		.uleb128 0xb
 2385 0219 27       		.uleb128 0x27
 2386 021a 19       		.uleb128 0x19
 2387 021b 49       		.uleb128 0x49
 2388 021c 13       		.uleb128 0x13
 2389 021d 3C       		.uleb128 0x3c
 2390 021e 19       		.uleb128 0x19
 2391 021f 00       		.byte	0
 2392 0220 00       		.byte	0
 2393 0221 00       		.byte	0
 2394              		.section	.debug_loc,"",%progbits
 2395              	.Ldebug_loc0:
 2396              	.LLST0:
 2397 0000 00000000 		.4byte	.LVL0
 2398 0004 12000000 		.4byte	.LVL1
 2399 0008 0100     		.2byte	0x1
 2400 000a 50       		.byte	0x50
 2401 000b 12000000 		.4byte	.LVL1
 2402 000f 30000000 		.4byte	.LFE41
 2403 0013 0400     		.2byte	0x4
 2404 0015 F3       		.byte	0xf3
 2405 0016 01       		.uleb128 0x1
 2406 0017 50       		.byte	0x50
 2407 0018 9F       		.byte	0x9f
 2408 0019 00000000 		.4byte	0
 2409 001d 00000000 		.4byte	0
 2410              	.LLST1:
 2411 0021 00000000 		.4byte	.LVL4
 2412 0025 12000000 		.4byte	.LVL5
 2413 0029 0100     		.2byte	0x1
 2414 002b 50       		.byte	0x50
 2415 002c 12000000 		.4byte	.LVL5
 2416 0030 34000000 		.4byte	.LFE40
 2417 0034 0400     		.2byte	0x4
 2418 0036 F3       		.byte	0xf3
 2419 0037 01       		.uleb128 0x1
 2420 0038 50       		.byte	0x50
 2421 0039 9F       		.byte	0x9f
 2422 003a 00000000 		.4byte	0
 2423 003e 00000000 		.4byte	0
 2424              		.section	.debug_aranges,"",%progbits
 2425 0000 2C000000 		.4byte	0x2c
 2426 0004 0200     		.2byte	0x2
 2427 0006 00000000 		.4byte	.Ldebug_info0
 2428 000a 04       		.byte	0x4
 2429 000b 00       		.byte	0
 2430 000c 0000     		.2byte	0
 2431 000e 0000     		.2byte	0
 2432 0010 00000000 		.4byte	.LFB41
 2433 0014 30000000 		.4byte	.LFE41-.LFB41
 2434 0018 00000000 		.4byte	.LFB40
 2435 001c 34000000 		.4byte	.LFE40-.LFB40
 2436 0020 00000000 		.4byte	.LFB42
ARM GAS  /tmp/ccty5VNI.s 			page 44


 2437 0024 88000000 		.4byte	.LFE42-.LFB42
 2438 0028 00000000 		.4byte	0
 2439 002c 00000000 		.4byte	0
 2440              		.section	.debug_ranges,"",%progbits
 2441              	.Ldebug_ranges0:
 2442 0000 00000000 		.4byte	.LFB41
 2443 0004 30000000 		.4byte	.LFE41
 2444 0008 00000000 		.4byte	.LFB40
 2445 000c 34000000 		.4byte	.LFE40
 2446 0010 00000000 		.4byte	.LFB42
 2447 0014 88000000 		.4byte	.LFE42
 2448 0018 00000000 		.4byte	0
 2449 001c 00000000 		.4byte	0
 2450              		.section	.debug_line,"",%progbits
 2451              	.Ldebug_line0:
 2452 0000 B6020000 		.section	.debug_str,"MS",%progbits,1
 2452      02002E02 
 2452      00000201 
 2452      FB0E0D00 
 2452      01010101 
 2453              	.LASF51:
 2454 0000 54687265 		.ascii	"ThreadsList\000"
 2454      6164734C 
 2454      69737400 
 2455              	.LASF43:
 2456 000c 705F7761 		.ascii	"p_waiting\000"
 2456      6974696E 
 2456      6700
 2457              	.LASF118:
 2458 0016 53657269 		.ascii	"SerialDriver\000"
 2458      616C4472 
 2458      69766572 
 2458      00
 2459              	.LASF146:
 2460 0023 6D61696E 		.ascii	"main.c\000"
 2460      2E6300
 2461              	.LASF42:
 2462 002a 705F7469 		.ascii	"p_time\000"
 2462      6D6500
 2463              	.LASF106:
 2464 0031 42535252 		.ascii	"BSRR\000"
 2464      00
 2465              	.LASF52:
 2466 0036 72656761 		.ascii	"regarm_t\000"
 2466      726D5F74 
 2466      00
 2467              	.LASF33:
 2468 003f 705F7072 		.ascii	"p_prio\000"
 2468      696F00
 2469              	.LASF147:
 2470 0046 2F686F6D 		.ascii	"/home/ece497/vbox-shared/mplayer/ChibiOS-RT-stable_"
 2470      652F6563 
 2470      65343937 
 2470      2F76626F 
 2470      782D7368 
 2471 0079 322E362E 		.ascii	"2.6.x/demos/ARMCM0-STM32F051-DISCOVERY\000"
 2471      782F6465 
ARM GAS  /tmp/ccty5VNI.s 			page 45


 2471      6D6F732F 
 2471      41524D43 
 2471      4D302D53 
 2472              	.LASF29:
 2473 00a0 73797374 		.ascii	"systime_t\000"
 2473      696D655F 
 2473      7400
 2474              	.LASF66:
 2475 00aa 6D5F6F77 		.ascii	"m_owner\000"
 2475      6E657200 
 2476              	.LASF44:
 2477 00b2 705F6D73 		.ascii	"p_msgqueue\000"
 2477      67717565 
 2477      756500
 2478              	.LASF0:
 2479 00bd 756E7369 		.ascii	"unsigned int\000"
 2479      676E6564 
 2479      20696E74 
 2479      00
 2480              	.LASF143:
 2481 00ca 5F70616C 		.ascii	"_pal_lld_setgroupmode\000"
 2481      5F6C6C64 
 2481      5F736574 
 2481      67726F75 
 2481      706D6F64 
 2482              	.LASF87:
 2483 00e0 715F7264 		.ascii	"q_rdptr\000"
 2483      70747200 
 2484              	.LASF8:
 2485 00e8 5F5F696E 		.ascii	"__int32_t\000"
 2485      7433325F 
 2485      7400
 2486              	.LASF90:
 2487 00f2 716E6F74 		.ascii	"qnotify_t\000"
 2487      6966795F 
 2487      7400
 2488              	.LASF71:
 2489 00fc 656C5F6D 		.ascii	"el_mask\000"
 2489      61736B00 
 2490              	.LASF77:
 2491 0104 77746F62 		.ascii	"wtobjp\000"
 2491      6A7000
 2492              	.LASF89:
 2493 010b 715F6C69 		.ascii	"q_link\000"
 2493      6E6B00
 2494              	.LASF78:
 2495 0112 65776D61 		.ascii	"ewmask\000"
 2495      736B00
 2496              	.LASF125:
 2497 0119 73706565 		.ascii	"speed\000"
 2497      6400
 2498              	.LASF132:
 2499 011f 77726974 		.ascii	"writet\000"
 2499      657400
 2500              	.LASF94:
 2501 0126 47545052 		.ascii	"GTPR\000"
 2501      00
ARM GAS  /tmp/ccty5VNI.s 			page 46


 2502              	.LASF121:
 2503 012b 69717565 		.ascii	"iqueue\000"
 2503      756500
 2504              	.LASF18:
 2505 0132 75696E74 		.ascii	"uint32_t\000"
 2505      33325F74 
 2505      00
 2506              	.LASF27:
 2507 013b 6576656E 		.ascii	"eventmask_t\000"
 2507      746D6173 
 2507      6B5F7400 
 2508              	.LASF58:
 2509 0147 725F7072 		.ascii	"r_prio\000"
 2509      696F00
 2510              	.LASF126:
 2511 014e 53657269 		.ascii	"SerialConfig\000"
 2511      616C436F 
 2511      6E666967 
 2511      00
 2512              	.LASF117:
 2513 015b 73647374 		.ascii	"sdstate_t\000"
 2513      6174655F 
 2513      7400
 2514              	.LASF119:
 2515 0165 6576656E 		.ascii	"event\000"
 2515      7400
 2516              	.LASF25:
 2517 016b 74707269 		.ascii	"tprio_t\000"
 2517      6F5F7400 
 2518              	.LASF80:
 2519 0173 7466756E 		.ascii	"tfunc_t\000"
 2519      635F7400 
 2520              	.LASF14:
 2521 017b 6C6F6E67 		.ascii	"long long unsigned int\000"
 2521      206C6F6E 
 2521      6720756E 
 2521      7369676E 
 2521      65642069 
 2522              	.LASF6:
 2523 0192 5F5F7569 		.ascii	"__uint16_t\000"
 2523      6E743136 
 2523      5F7400
 2524              	.LASF142:
 2525 019d 73645374 		.ascii	"sdStart\000"
 2525      61727400 
 2526              	.LASF102:
 2527 01a5 4D4F4445 		.ascii	"MODER\000"
 2527      5200
 2528              	.LASF109:
 2529 01ab 41465248 		.ascii	"AFRH\000"
 2529      00
 2530              	.LASF108:
 2531 01b0 4146524C 		.ascii	"AFRL\000"
 2531      00
 2532              	.LASF35:
 2533 01b5 705F6E65 		.ascii	"p_newer\000"
 2533      77657200 
ARM GAS  /tmp/ccty5VNI.s 			page 47


 2534              	.LASF101:
 2535 01bd 636C6561 		.ascii	"clear\000"
 2535      7200
 2536              	.LASF82:
 2537 01c3 715F7761 		.ascii	"q_waiting\000"
 2537      6974696E 
 2537      6700
 2538              	.LASF145:
 2539 01cd 474E5520 		.ascii	"GNU C 4.8.2 -mcpu=cortex-m0 -mno-thumb-interwork -m"
 2539      4320342E 
 2539      382E3220 
 2539      2D6D6370 
 2539      753D636F 
 2540 0200 7468756D 		.ascii	"thumb -ggdb -O2 -fomit-frame-pointer -falign-functi"
 2540      62202D67 
 2540      67646220 
 2540      2D4F3220 
 2540      2D666F6D 
 2541 0233 6F6E733D 		.ascii	"ons=16 -ffunction-sections -fdata-sections -fno-com"
 2541      3136202D 
 2541      6666756E 
 2541      6374696F 
 2541      6E2D7365 
 2542 0266 6D6F6E00 		.ascii	"mon\000"
 2543              	.LASF130:
 2544 026a 70757474 		.ascii	"putt\000"
 2544      00
 2545              	.LASF73:
 2546 026f 4576656E 		.ascii	"EventSource\000"
 2546      74536F75 
 2546      72636500 
 2547              	.LASF2:
 2548 027b 73697A65 		.ascii	"size_t\000"
 2548      5F7400
 2549              	.LASF75:
 2550 0282 7264796D 		.ascii	"rdymsg\000"
 2550      736700
 2551              	.LASF20:
 2552 0289 5F426F6F 		.ascii	"_Bool\000"
 2552      6C00
 2553              	.LASF115:
 2554 028f 53445F53 		.ascii	"SD_STOP\000"
 2554      544F5000 
 2555              	.LASF13:
 2556 0297 5F5F7569 		.ascii	"__uint64_t\000"
 2556      6E743634 
 2556      5F7400
 2557              	.LASF100:
 2558 02a2 55534152 		.ascii	"USART_TypeDef\000"
 2558      545F5479 
 2558      70654465 
 2558      6600
 2559              	.LASF64:
 2560 02b0 4D757465 		.ascii	"Mutex\000"
 2560      7800
 2561              	.LASF92:
 2562 02b6 4F757470 		.ascii	"OutputQueue\000"
ARM GAS  /tmp/ccty5VNI.s 			page 48


 2562      75745175 
 2562      65756500 
 2563              	.LASF113:
 2564 02c2 696F706F 		.ascii	"ioportid_t\000"
 2564      72746964 
 2564      5F7400
 2565              	.LASF88:
 2566 02cd 715F6E6F 		.ascii	"q_notify\000"
 2566      74696679 
 2566      00
 2567              	.LASF124:
 2568 02d6 636C6F63 		.ascii	"clock\000"
 2568      6B00
 2569              	.LASF105:
 2570 02dc 50555044 		.ascii	"PUPDR\000"
 2570      5200
 2571              	.LASF37:
 2572 02e2 705F6E61 		.ascii	"p_name\000"
 2572      6D6500
 2573              	.LASF91:
 2574 02e9 496E7075 		.ascii	"InputQueue\000"
 2574      74517565 
 2574      756500
 2575              	.LASF50:
 2576 02f4 54687265 		.ascii	"ThreadsQueue\000"
 2576      61647351 
 2576      75657565 
 2576      00
 2577              	.LASF79:
 2578 0301 63686172 		.ascii	"char\000"
 2578      00
 2579              	.LASF140:
 2580 0306 63685379 		.ascii	"chSysInit\000"
 2580      73496E69 
 2580      7400
 2581              	.LASF60:
 2582 0310 725F6E65 		.ascii	"r_newer\000"
 2582      77657200 
 2583              	.LASF86:
 2584 0318 715F7772 		.ascii	"q_wrptr\000"
 2584      70747200 
 2585              	.LASF30:
 2586 0320 54687265 		.ascii	"Thread\000"
 2586      616400
 2587              	.LASF22:
 2588 0327 74737461 		.ascii	"tstate_t\000"
 2588      74655F74 
 2588      00
 2589              	.LASF139:
 2590 0330 68616C49 		.ascii	"halInit\000"
 2590      6E697400 
 2591              	.LASF36:
 2592 0338 705F6F6C 		.ascii	"p_older\000"
 2592      64657200 
 2593              	.LASF38:
 2594 0340 705F7374 		.ascii	"p_state\000"
 2594      61746500 
ARM GAS  /tmp/ccty5VNI.s 			page 49


 2595              	.LASF15:
 2596 0348 75696E74 		.ascii	"uint8_t\000"
 2596      385F7400 
 2597              	.LASF28:
 2598 0350 666C6167 		.ascii	"flagsmask_t\000"
 2598      736D6173 
 2598      6B5F7400 
 2599              	.LASF96:
 2600 035c 52544F52 		.ascii	"RTOR\000"
 2600      00
 2601              	.LASF49:
 2602 0361 705F6D70 		.ascii	"p_mpool\000"
 2602      6F6F6C00 
 2603              	.LASF47:
 2604 0369 705F6D74 		.ascii	"p_mtxlist\000"
 2604      786C6973 
 2604      7400
 2605              	.LASF123:
 2606 0373 75736172 		.ascii	"usart\000"
 2606      7400
 2607              	.LASF12:
 2608 0379 6C6F6E67 		.ascii	"long long int\000"
 2608      206C6F6E 
 2608      6720696E 
 2608      7400
 2609              	.LASF128:
 2610 0387 77726974 		.ascii	"write\000"
 2610      6500
 2611              	.LASF84:
 2612 038d 715F6275 		.ascii	"q_buffer\000"
 2612      66666572 
 2612      00
 2613              	.LASF57:
 2614 0396 725F7175 		.ascii	"r_queue\000"
 2614      65756500 
 2615              	.LASF26:
 2616 039e 6D73675F 		.ascii	"msg_t\000"
 2616      7400
 2617              	.LASF55:
 2618 03a4 636F6E74 		.ascii	"context\000"
 2618      65787400 
 2619              	.LASF144:
 2620 03ac 54657374 		.ascii	"TestThread\000"
 2620      54687265 
 2620      616400
 2621              	.LASF39:
 2622 03b7 705F666C 		.ascii	"p_flags\000"
 2622      61677300 
 2623              	.LASF111:
 2624 03bf 696F706F 		.ascii	"ioportmask_t\000"
 2624      72746D61 
 2624      736B5F74 
 2624      00
 2625              	.LASF24:
 2626 03cc 74736C69 		.ascii	"tslices_t\000"
 2626      6365735F 
 2626      7400
ARM GAS  /tmp/ccty5VNI.s 			page 50


 2627              	.LASF61:
 2628 03d6 725F6F6C 		.ascii	"r_older\000"
 2628      64657200 
 2629              	.LASF149:
 2630 03de 63685468 		.ascii	"chThdCreateStatic\000"
 2630      64437265 
 2630      61746553 
 2630      74617469 
 2630      6300
 2631              	.LASF69:
 2632 03f0 656C5F6E 		.ascii	"el_next\000"
 2632      65787400 
 2633              	.LASF45:
 2634 03f8 705F6D73 		.ascii	"p_msg\000"
 2634      6700
 2635              	.LASF21:
 2636 03fe 746D6F64 		.ascii	"tmode_t\000"
 2636      655F7400 
 2637              	.LASF104:
 2638 0406 4F535045 		.ascii	"OSPEEDR\000"
 2638      45445200 
 2639              	.LASF81:
 2640 040e 47656E65 		.ascii	"GenericQueue\000"
 2640      72696351 
 2640      75657565 
 2640      00
 2641              	.LASF122:
 2642 041b 6F717565 		.ascii	"oqueue\000"
 2642      756500
 2643              	.LASF16:
 2644 0422 75696E74 		.ascii	"uint16_t\000"
 2644      31365F74 
 2644      00
 2645              	.LASF54:
 2646 042b 696E7463 		.ascii	"intctx\000"
 2646      747800
 2647              	.LASF116:
 2648 0432 53445F52 		.ascii	"SD_READY\000"
 2648      45414459 
 2648      00
 2649              	.LASF127:
 2650 043b 53657269 		.ascii	"SerialDriverVMT\000"
 2650      616C4472 
 2650      69766572 
 2650      564D5400 
 2651              	.LASF48:
 2652 044b 705F7265 		.ascii	"p_realprio\000"
 2652      616C7072 
 2652      696F00
 2653              	.LASF93:
 2654 0456 52455345 		.ascii	"RESERVED1\000"
 2654      52564544 
 2654      3100
 2655              	.LASF95:
 2656 0460 52455345 		.ascii	"RESERVED2\000"
 2656      52564544 
 2656      3200
ARM GAS  /tmp/ccty5VNI.s 			page 51


 2657              	.LASF97:
 2658 046a 52455345 		.ascii	"RESERVED3\000"
 2658      52564544 
 2658      3300
 2659              	.LASF98:
 2660 0474 52455345 		.ascii	"RESERVED4\000"
 2660      52564544 
 2660      3400
 2661              	.LASF99:
 2662 047e 52455345 		.ascii	"RESERVED5\000"
 2662      52564544 
 2662      3500
 2663              	.LASF5:
 2664 0488 73686F72 		.ascii	"short int\000"
 2664      7420696E 
 2664      7400
 2665              	.LASF62:
 2666 0492 725F6375 		.ascii	"r_current\000"
 2666      7272656E 
 2666      7400
 2667              	.LASF46:
 2668 049c 705F6570 		.ascii	"p_epending\000"
 2668      656E6469 
 2668      6E6700
 2669              	.LASF65:
 2670 04a7 6D5F7175 		.ascii	"m_queue\000"
 2670      65756500 
 2671              	.LASF9:
 2672 04af 6C6F6E67 		.ascii	"long int\000"
 2672      20696E74 
 2672      00
 2673              	.LASF103:
 2674 04b8 4F545950 		.ascii	"OTYPER\000"
 2674      455200
 2675              	.LASF31:
 2676 04bf 705F6E65 		.ascii	"p_next\000"
 2676      787400
 2677              	.LASF19:
 2678 04c6 75696E74 		.ascii	"uint64_t\000"
 2678      36345F74 
 2678      00
 2679              	.LASF34:
 2680 04cf 705F6374 		.ascii	"p_ctx\000"
 2680      7800
 2681              	.LASF138:
 2682 04d5 726C6973 		.ascii	"rlist\000"
 2682      7400
 2683              	.LASF3:
 2684 04db 5F5F7569 		.ascii	"__uint8_t\000"
 2684      6E74385F 
 2684      7400
 2685              	.LASF129:
 2686 04e5 72656164 		.ascii	"read\000"
 2686      00
 2687              	.LASF70:
 2688 04ea 656C5F6C 		.ascii	"el_listener\000"
 2688      69737465 
ARM GAS  /tmp/ccty5VNI.s 			page 52


 2688      6E657200 
 2689              	.LASF114:
 2690 04f6 53445F55 		.ascii	"SD_UNINIT\000"
 2690      4E494E49 
 2690      5400
 2691              	.LASF110:
 2692 0500 4750494F 		.ascii	"GPIO_TypeDef\000"
 2692      5F547970 
 2692      65446566 
 2692      00
 2693              	.LASF83:
 2694 050d 715F636F 		.ascii	"q_counter\000"
 2694      756E7465 
 2694      7200
 2695              	.LASF131:
 2696 0517 67657474 		.ascii	"gett\000"
 2696      00
 2697              	.LASF85:
 2698 051c 715F746F 		.ascii	"q_top\000"
 2698      7000
 2699              	.LASF32:
 2700 0522 705F7072 		.ascii	"p_prev\000"
 2700      657600
 2701              	.LASF56:
 2702 0529 73697A65 		.ascii	"sizetype\000"
 2702      74797065 
 2702      00
 2703              	.LASF23:
 2704 0532 74726566 		.ascii	"trefs_t\000"
 2704      735F7400 
 2705              	.LASF68:
 2706 053a 4576656E 		.ascii	"EventListener\000"
 2706      744C6973 
 2706      74656E65 
 2706      7200
 2707              	.LASF11:
 2708 0548 6C6F6E67 		.ascii	"long unsigned int\000"
 2708      20756E73 
 2708      69676E65 
 2708      6420696E 
 2708      7400
 2709              	.LASF17:
 2710 055a 696E7433 		.ascii	"int32_t\000"
 2710      325F7400 
 2711              	.LASF136:
 2712 0562 77615468 		.ascii	"waThread1\000"
 2712      72656164 
 2712      3100
 2713              	.LASF137:
 2714 056c 77615468 		.ascii	"waThread2\000"
 2714      72656164 
 2714      3200
 2715              	.LASF4:
 2716 0576 756E7369 		.ascii	"unsigned char\000"
 2716      676E6564 
 2716      20636861 
 2716      7200
ARM GAS  /tmp/ccty5VNI.s 			page 53


 2717              	.LASF10:
 2718 0584 5F5F7569 		.ascii	"__uint32_t\000"
 2718      6E743332 
 2718      5F7400
 2719              	.LASF40:
 2720 058f 705F7265 		.ascii	"p_refs\000"
 2720      667300
 2721              	.LASF63:
 2722 0596 52656164 		.ascii	"ReadyList\000"
 2722      794C6973 
 2722      7400
 2723              	.LASF141:
 2724 05a0 63685468 		.ascii	"chThdSleep\000"
 2724      64536C65 
 2724      657000
 2725              	.LASF41:
 2726 05ab 705F7072 		.ascii	"p_preempt\000"
 2726      65656D70 
 2726      7400
 2727              	.LASF74:
 2728 05b5 65735F6E 		.ascii	"es_next\000"
 2728      65787400 
 2729              	.LASF120:
 2730 05bd 73746174 		.ascii	"state\000"
 2730      6500
 2731              	.LASF135:
 2732 05c3 54687265 		.ascii	"Thread1\000"
 2732      61643100 
 2733              	.LASF134:
 2734 05cb 54687265 		.ascii	"Thread2\000"
 2734      61643200 
 2735              	.LASF112:
 2736 05d3 696F6D6F 		.ascii	"iomode_t\000"
 2736      64655F74 
 2736      00
 2737              	.LASF67:
 2738 05dc 6D5F6E65 		.ascii	"m_next\000"
 2738      787400
 2739              	.LASF1:
 2740 05e3 7369676E 		.ascii	"signed char\000"
 2740      65642063 
 2740      68617200 
 2741              	.LASF133:
 2742 05ef 72656164 		.ascii	"readt\000"
 2742      7400
 2743              	.LASF7:
 2744 05f5 73686F72 		.ascii	"short unsigned int\000"
 2744      7420756E 
 2744      7369676E 
 2744      65642069 
 2744      6E7400
 2745              	.LASF59:
 2746 0608 725F6374 		.ascii	"r_ctx\000"
 2746      7800
 2747              	.LASF53:
 2748 060e 73746B61 		.ascii	"stkalign_t\000"
 2748      6C69676E 
ARM GAS  /tmp/ccty5VNI.s 			page 54


 2748      5F7400
 2749              	.LASF148:
 2750 0619 6D61696E 		.ascii	"main\000"
 2750      00
 2751              	.LASF72:
 2752 061e 656C5F66 		.ascii	"el_flags\000"
 2752      6C616773 
 2752      00
 2753              	.LASF76:
 2754 0627 65786974 		.ascii	"exitcode\000"
 2754      636F6465 
 2754      00
 2755              	.LASF107:
 2756 0630 4C434B52 		.ascii	"LCKR\000"
 2756      00
 2757              		.ident	"GCC: (Arch Repository) 4.8.2"
ARM GAS  /tmp/ccty5VNI.s 			page 55


DEFINED SYMBOLS
                            *ABS*:0000000000000000 main.c
     /tmp/ccty5VNI.s:18     .text.Thread2:0000000000000000 $t
     /tmp/ccty5VNI.s:23     .text.Thread2:0000000000000000 Thread2
     /tmp/ccty5VNI.s:67     .text.Thread2:0000000000000024 $d
     /tmp/ccty5VNI.s:74     .text.Thread1:0000000000000000 $t
     /tmp/ccty5VNI.s:79     .text.Thread1:0000000000000000 Thread1
     /tmp/ccty5VNI.s:126    .text.Thread1:0000000000000028 $d
     /tmp/ccty5VNI.s:133    .text.startup.main:0000000000000000 $t
     /tmp/ccty5VNI.s:139    .text.startup.main:0000000000000000 main
     /tmp/ccty5VNI.s:224    .text.startup.main:0000000000000074 $d
     /tmp/ccty5VNI.s:233    .bss.waThread1:0000000000000000 $d
     /tmp/ccty5VNI.s:237    .bss.waThread1:0000000000000000 waThread1
     /tmp/ccty5VNI.s:240    .bss.waThread2:0000000000000000 $d
     /tmp/ccty5VNI.s:244    .bss.waThread2:0000000000000000 waThread2
     /tmp/ccty5VNI.s:247    .rodata.str1.4:0000000000000000 $d
                     .debug_frame:0000000000000010 $d
     /tmp/ccty5VNI.s:132    .text.Thread1:0000000000000034 $t
     /tmp/ccty5VNI.s:232    .text.startup.main:0000000000000088 $t

UNDEFINED SYMBOLS
chThdSleep
rlist
halInit
chSysInit
sdStart
_pal_lld_setgroupmode
chThdCreateStatic
TestThread
SD1
