ARM GAS  /tmp/ccty5VNI.s 			page 1


   1              		.cpu cortex-m0
   2              		.fpu softvfp
   3              		.eabi_attribute 20, 1
   4              		.eabi_attribute 21, 1
   5              		.eabi_attribute 23, 3
   6              		.eabi_attribute 24, 1
   7              		.eabi_attribute 25, 1
   8              		.eabi_attribute 26, 1
   9              		.eabi_attribute 30, 2
  10              		.eabi_attribute 34, 0
  11              		.eabi_attribute 18, 4
  12              		.code	16
  13              		.file	"main.c"
  14              		.text
  15              	.Ltext0:
  16              		.cfi_sections	.debug_frame
  17              		.section	.text.Thread2,"ax",%progbits
  18              		.align	2
  19              		.p2align 4,,15
  20              		.code	16
  21              		.thumb_func
  22              		.type	Thread2, %function
  23              	Thread2:
  24              	.LFB41:
  25              		.file 1 "main.c"
  26              		.loc 1 41 0
  27              		.cfi_startproc
  28              	.LVL0:
  29              		.loc 1 44 0
  30 0000 084B     		ldr	r3, .L4
  31              		.loc 1 41 0
  32 0002 70B5     		push	{r4, r5, r6, lr}
  33              		.cfi_def_cfa_offset 16
  34              		.cfi_offset 4, -16
  35              		.cfi_offset 5, -12
  36              		.cfi_offset 6, -8
  37              		.cfi_offset 14, -4
  38              		.loc 1 44 0
  39 0004 9B69     		ldr	r3, [r3, #24]
  40 0006 084A     		ldr	r2, .L4+4
  41              		.loc 1 46 0
  42 0008 8025     		mov	r5, #128
  43 000a AD00     		lsl	r5, r5, #2
  44 000c 074C     		ldr	r4, .L4+8
  45              		.loc 1 44 0
  46 000e 9A61     		str	r2, [r3, #24]
  47              		.loc 1 46 0
  48 0010 2E1C     		add	r6, r5, #0
  49              	.LVL1:
  50              	.L2:
  51              		.loc 1 46 0 is_stmt 0 discriminator 1
  52 0012 6683     		strh	r6, [r4, #26]
  53              		.loc 1 47 0 is_stmt 1 discriminator 1
  54 0014 FA20     		mov	r0, #250
  55 0016 FFF7FEFF 		bl	chThdSleep
  56              	.LVL2:
  57              		.loc 1 48 0 discriminator 1
ARM GAS  /tmp/ccty5VNI.s 			page 2


  58 001a 2583     		strh	r5, [r4, #24]
  59              		.loc 1 49 0 discriminator 1
  60 001c FA20     		mov	r0, #250
  61 001e FFF7FEFF 		bl	chThdSleep
  62              	.LVL3:
  63 0022 F6E7     		b	.L2
  64              	.L5:
  65              		.align	2
  66              	.L4:
  67 0024 00000000 		.word	rlist
  68 0028 00000000 		.word	.LC1
  69 002c 00080048 		.word	1207961600
  70              		.cfi_endproc
  71              	.LFE41:
  72              		.size	Thread2, .-Thread2
  73              		.section	.text.Thread1,"ax",%progbits
  74              		.align	2
  75              		.p2align 4,,15
  76              		.code	16
  77              		.thumb_func
  78              		.type	Thread1, %function
  79              	Thread1:
  80              	.LFB40:
  81              		.loc 1 25 0
  82              		.cfi_startproc
  83              	.LVL4:
  84              		.loc 1 28 0
  85 0000 094B     		ldr	r3, .L8
  86              		.loc 1 25 0
  87 0002 70B5     		push	{r4, r5, r6, lr}
  88              		.cfi_def_cfa_offset 16
  89              		.cfi_offset 4, -16
  90              		.cfi_offset 5, -12
  91              		.cfi_offset 6, -8
  92              		.cfi_offset 14, -4
  93              		.loc 1 28 0
  94 0004 9B69     		ldr	r3, [r3, #24]
  95 0006 094A     		ldr	r2, .L8+4
  96              		.loc 1 30 0
  97 0008 8025     		mov	r5, #128
  98 000a 6D00     		lsl	r5, r5, #1
  99 000c 084C     		ldr	r4, .L8+8
 100              		.loc 1 28 0
 101 000e 9A61     		str	r2, [r3, #24]
 102              		.loc 1 30 0
 103 0010 2E1C     		add	r6, r5, #0
 104              	.LVL5:
 105              	.L7:
 106              		.loc 1 31 0 discriminator 1
 107 0012 FA20     		mov	r0, #250
 108              		.loc 1 30 0 discriminator 1
 109 0014 6683     		strh	r6, [r4, #26]
 110              		.loc 1 31 0 discriminator 1
 111 0016 4000     		lsl	r0, r0, #1
 112 0018 FFF7FEFF 		bl	chThdSleep
 113              	.LVL6:
 114              		.loc 1 33 0 discriminator 1
ARM GAS  /tmp/ccty5VNI.s 			page 3


 115 001c FA20     		mov	r0, #250
 116              		.loc 1 32 0 discriminator 1
 117 001e 2583     		strh	r5, [r4, #24]
 118              		.loc 1 33 0 discriminator 1
 119 0020 4000     		lsl	r0, r0, #1
 120 0022 FFF7FEFF 		bl	chThdSleep
 121              	.LVL7:
 122 0026 F4E7     		b	.L7
 123              	.L9:
 124              		.align	2
 125              	.L8:
 126 0028 00000000 		.word	rlist
 127 002c 0C000000 		.word	.LC4
 128 0030 00080048 		.word	1207961600
 129              		.cfi_endproc
 130              	.LFE40:
 131              		.size	Thread1, .-Thread1
 132 0034 C046C046 		.section	.text.startup.main,"ax",%progbits
 132      C046C046 
 132      C046C046 
 133              		.align	2
 134              		.p2align 4,,15
 135              		.global	main
 136              		.code	16
 137              		.thumb_func
 138              		.type	main, %function
 139              	main:
 140              	.LFB42:
 141              		.loc 1 56 0
 142              		.cfi_startproc
 143 0000 70B5     		push	{r4, r5, r6, lr}
 144              		.cfi_def_cfa_offset 16
 145              		.cfi_offset 4, -16
 146              		.cfi_offset 5, -12
 147              		.cfi_offset 6, -8
 148              		.cfi_offset 14, -4
 149 0002 82B0     		sub	sp, sp, #8
 150              		.cfi_def_cfa_offset 24
 151              		.loc 1 65 0
 152 0004 FFF7FEFF 		bl	halInit
 153              	.LVL8:
 154              		.loc 1 66 0
 155 0008 FFF7FEFF 		bl	chSysInit
 156              	.LVL9:
 157              		.loc 1 72 0
 158 000c 194E     		ldr	r6, .L16
 159 000e 0021     		mov	r1, #0
 160 0010 301C     		mov	r0, r6
 161 0012 FFF7FEFF 		bl	sdStart
 162              	.LVL10:
 163              		.loc 1 73 0
 164 0016 9020     		mov	r0, #144
 165 0018 8021     		mov	r1, #128
 166 001a C005     		lsl	r0, r0, #23
 167 001c 8900     		lsl	r1, r1, #2
 168 001e 8222     		mov	r2, #130
 169 0020 FFF7FEFF 		bl	_pal_lld_setgroupmode
ARM GAS  /tmp/ccty5VNI.s 			page 4


 170              	.LVL11:
 171              		.loc 1 74 0
 172 0024 9020     		mov	r0, #144
 173 0026 8021     		mov	r1, #128
 174 0028 C005     		lsl	r0, r0, #23
 175 002a C900     		lsl	r1, r1, #3
 176 002c 8222     		mov	r2, #130
 177 002e FFF7FEFF 		bl	_pal_lld_setgroupmode
 178              	.LVL12:
 179              		.loc 1 79 0
 180 0032 0024     		mov	r4, #0
 181 0034 9821     		mov	r1, #152
 182 0036 0094     		str	r4, [sp]
 183 0038 4900     		lsl	r1, r1, #1
 184 003a 4022     		mov	r2, #64
 185 003c 0E4B     		ldr	r3, .L16+4
 186 003e 0F48     		ldr	r0, .L16+8
 187 0040 FFF7FEFF 		bl	chThdCreateStatic
 188              	.LVL13:
 189              		.loc 1 80 0
 190 0044 9821     		mov	r1, #152
 191 0046 0094     		str	r4, [sp]
 192 0048 0D48     		ldr	r0, .L16+12
 193 004a 4900     		lsl	r1, r1, #1
 194 004c 4022     		mov	r2, #64
 195 004e 0D4B     		ldr	r3, .L16+16
 196              		.loc 1 89 0
 197 0050 9025     		mov	r5, #144
 198              		.loc 1 80 0
 199 0052 FFF7FEFF 		bl	chThdCreateStatic
 200              	.LVL14:
 201              		.loc 1 89 0
 202 0056 ED05     		lsl	r5, r5, #23
 203 0058 0124     		mov	r4, #1
 204 005a 03E0     		b	.L12
 205              	.L11:
 206              		.loc 1 91 0
 207 005c FA20     		mov	r0, #250
 208 005e 4000     		lsl	r0, r0, #1
 209 0060 FFF7FEFF 		bl	chThdSleep
 210              	.LVL15:
 211              	.L12:
 212              		.loc 1 89 0
 213 0064 2B69     		ldr	r3, [r5, #16]
 214 0066 1C42     		tst	r4, r3
 215 0068 F8D0     		beq	.L11
 216              		.loc 1 90 0
 217 006a 301C     		mov	r0, r6
 218 006c FFF7FEFF 		bl	TestThread
 219              	.LVL16:
 220 0070 F4E7     		b	.L11
 221              	.L17:
 222 0072 C046     		.align	2
 223              	.L16:
 224 0074 00000000 		.word	SD1
 225 0078 00000000 		.word	Thread1
 226 007c 00000000 		.word	.LANCHOR0
ARM GAS  /tmp/ccty5VNI.s 			page 5


 227 0080 00000000 		.word	.LANCHOR1
 228 0084 00000000 		.word	Thread2
 229              		.cfi_endproc
 230              	.LFE42:
 231              		.size	main, .-main
 232 0088 C046C046 		.section	.bss.waThread1,"aw",%nobits
 232      C046C046 
 233              		.align	3
 234              		.set	.LANCHOR0,. + 0
 235              		.type	waThread1, %object
 236              		.size	waThread1, 304
 237              	waThread1:
 238 0000 00000000 		.space	304
 238      00000000 
 238      00000000 
 238      00000000 
 238      00000000 
 239              		.section	.bss.waThread2,"aw",%nobits
 240              		.align	3
 241              		.set	.LANCHOR1,. + 0
 242              		.type	waThread2, %object
 243              		.size	waThread2, 304
 244              	waThread2:
 245 0000 00000000 		.space	304
 245      00000000 
 245      00000000 
 245      00000000 
 245      00000000 
 246              		.section	.rodata.str1.4,"aMS",%progbits,1
 247              		.align	2
 248              	.LC1:
 249 0000 626C696E 		.ascii	"blinker2\000"
 249      6B657232 
 249      00
 250 0009 000000   		.space	3
 251              	.LC4:
 252 000c 626C696E 		.ascii	"blinker1\000"
 252      6B657231 
 252      00
 253 0015 000000   		.text
 254              	.Letext0:
 255              		.file 2 "/usr/lib/gcc/arm-none-eabi/4.8.2/include/stddef.h"
 256              		.file 3 "/usr/arm-none-eabi/include/machine/_default_types.h"
 257              		.file 4 "/usr/arm-none-eabi/include/stdint.h"
 258              		.file 5 "../../os/ports/GCC/ARMCMx/chtypes.h"
 259              		.file 6 "../../os/kernel/include/chlists.h"
 260              		.file 7 "../../os/kernel/include/chthreads.h"
 261              		.file 8 "../../os/ports/GCC/ARMCMx/chcore_v6m.h"
 262              		.file 9 "../../os/kernel/include/chschd.h"
 263              		.file 10 "../../os/kernel/include/chmtx.h"
 264              		.file 11 "../../os/kernel/include/chevents.h"
 265              		.file 12 "../../os/kernel/include/chqueues.h"
 266              		.file 13 "../../os/hal/platforms/STM32F0xx/stm32f0xx.h"
 267              		.file 14 "../../os/hal/platforms/STM32/GPIOv2/pal_lld.h"
 268              		.file 15 "../../os/hal/include/serial.h"
 269              		.file 16 "../../os/hal/platforms/STM32/USARTv2/serial_lld.h"
 270              		.file 17 "../../os/hal/include/hal.h"
ARM GAS  /tmp/ccty5VNI.s 			page 6


 271              		.file 18 "../../os/kernel/include/chsys.h"
 272              		.file 19 "../../test/test.h"