ARM GAS  /tmp/cc08iglp.s 			page 1


   1              		.cpu cortex-m0
   2              		.fpu softvfp
   3              		.eabi_attribute 20, 1
   4              		.eabi_attribute 21, 1
   5              		.eabi_attribute 23, 3
   6              		.eabi_attribute 24, 1
   7              		.eabi_attribute 25, 1
   8              		.eabi_attribute 26, 1
   9              		.eabi_attribute 30, 2
  10              		.eabi_attribute 34, 0
  11              		.eabi_attribute 18, 4
  12              		.code	16
  13              		.file	"serial.c"
  14              		.text
  15              	.Ltext0:
  16              		.cfi_sections	.debug_frame
  17              		.section	.text.readt,"ax",%progbits
  18              		.align	2
  19              		.p2align 4,,15
  20              		.code	16
  21              		.thumb_func
  22              		.type	readt, %function
  23              	readt:
  24              	.LFB47:
  25              		.file 1 "../../os/hal/src/serial.c"
  26              		.loc 1 99 0
  27              		.cfi_startproc
  28              	.LVL0:
  29 0000 08B5     		push	{r3, lr}
  30              		.cfi_def_cfa_offset 8
  31              		.cfi_offset 3, -8
  32              		.cfi_offset 14, -4
  33              		.loc 1 101 0
  34 0002 0C30     		add	r0, r0, #12
  35              	.LVL1:
  36 0004 FFF7FEFF 		bl	chIQReadTimeout
  37              	.LVL2:
  38              		.loc 1 102 0
  39              		@ sp needed
  40 0008 08BD     		pop	{r3, pc}
  41              		.cfi_endproc
  42              	.LFE47:
  43              		.size	readt, .-readt
  44 000a C046C046 		.section	.text.read,"ax",%progbits
  44      C046
  45              		.align	2
  46              		.p2align 4,,15
  47              		.code	16
  48              		.thumb_func
  49              		.type	read, %function
  50              	read:
  51              	.LFB41:
  52              		.loc 1 68 0
  53              		.cfi_startproc
  54              	.LVL3:
  55 0000 08B5     		push	{r3, lr}
  56              		.cfi_def_cfa_offset 8
ARM GAS  /tmp/cc08iglp.s 			page 2


  57              		.cfi_offset 3, -8
  58              		.cfi_offset 14, -4
  59              		.loc 1 70 0
  60 0002 0123     		mov	r3, #1
  61 0004 0C30     		add	r0, r0, #12
  62              	.LVL4:
  63 0006 5B42     		neg	r3, r3
  64 0008 FFF7FEFF 		bl	chIQReadTimeout
  65              	.LVL5:
  66              		.loc 1 72 0
  67              		@ sp needed
  68 000c 08BD     		pop	{r3, pc}
  69              		.cfi_endproc
  70              	.LFE41:
  71              		.size	read, .-read
  72 000e C046     		.section	.text.writet,"ax",%progbits
  73              		.align	2
  74              		.p2align 4,,15
  75              		.code	16
  76              		.thumb_func
  77              		.type	writet, %function
  78              	writet:
  79              	.LFB46:
  80              		.loc 1 94 0
  81              		.cfi_startproc
  82              	.LVL6:
  83 0000 08B5     		push	{r3, lr}
  84              		.cfi_def_cfa_offset 8
  85              		.cfi_offset 3, -8
  86              		.cfi_offset 14, -4
  87              		.loc 1 96 0
  88 0002 3030     		add	r0, r0, #48
  89              	.LVL7:
  90 0004 FFF7FEFF 		bl	chOQWriteTimeout
  91              	.LVL8:
  92              		.loc 1 97 0
  93              		@ sp needed
  94 0008 08BD     		pop	{r3, pc}
  95              		.cfi_endproc
  96              	.LFE46:
  97              		.size	writet, .-writet
  98              		.section	.text.write,"ax",%progbits
  99              		.align	2
 100              		.p2align 4,,15
 101              		.code	16
 102              		.thumb_func
 103              		.type	write, %function
 104              	write:
 105              	.LFB40:
 106              		.loc 1 62 0
 107              		.cfi_startproc
 108              	.LVL9:
 109 0000 08B5     		push	{r3, lr}
 110              		.cfi_def_cfa_offset 8
 111              		.cfi_offset 3, -8
 112              		.cfi_offset 14, -4
 113              		.loc 1 64 0
ARM GAS  /tmp/cc08iglp.s 			page 3


 114 0002 0123     		mov	r3, #1
 115 0004 3030     		add	r0, r0, #48
 116              	.LVL10:
 117 0006 5B42     		neg	r3, r3
 118 0008 FFF7FEFF 		bl	chOQWriteTimeout
 119              	.LVL11:
 120              		.loc 1 66 0
 121              		@ sp needed
 122 000c 08BD     		pop	{r3, pc}
 123              		.cfi_endproc
 124              	.LFE40:
 125              		.size	write, .-write
 126 000e C046     		.section	.text.gett,"ax",%progbits
 127              		.align	2
 128              		.p2align 4,,15
 129              		.code	16
 130              		.thumb_func
 131              		.type	gett, %function
 132              	gett:
 133              	.LFB45:
 134              		.loc 1 89 0
 135              		.cfi_startproc
 136              	.LVL12:
 137 0000 08B5     		push	{r3, lr}
 138              		.cfi_def_cfa_offset 8
 139              		.cfi_offset 3, -8
 140              		.cfi_offset 14, -4
 141              		.loc 1 91 0
 142 0002 0C30     		add	r0, r0, #12
 143              	.LVL13:
 144 0004 FFF7FEFF 		bl	chIQGetTimeout
 145              	.LVL14:
 146              		.loc 1 92 0
 147              		@ sp needed
 148 0008 08BD     		pop	{r3, pc}
 149              		.cfi_endproc
 150              	.LFE45:
 151              		.size	gett, .-gett
 152              		.section	.text.get,"ax",%progbits
 153              		.align	2
 154              		.p2align 4,,15
 155              		.code	16
 156              		.thumb_func
 157              		.type	get, %function
 158              	get:
 159              	.LFB43:
 160              		.loc 1 79 0
 161              		.cfi_startproc
 162              	.LVL15:
 163 0000 08B5     		push	{r3, lr}
 164              		.cfi_def_cfa_offset 8
 165              		.cfi_offset 3, -8
 166              		.cfi_offset 14, -4
 167              		.loc 1 81 0
 168 0002 0121     		mov	r1, #1
 169 0004 0C30     		add	r0, r0, #12
 170              	.LVL16:
ARM GAS  /tmp/cc08iglp.s 			page 4


 171 0006 4942     		neg	r1, r1
 172 0008 FFF7FEFF 		bl	chIQGetTimeout
 173              	.LVL17:
 174              		.loc 1 82 0
 175              		@ sp needed
 176 000c 08BD     		pop	{r3, pc}
 177              		.cfi_endproc
 178              	.LFE43:
 179              		.size	get, .-get
 180 000e C046     		.section	.text.putt,"ax",%progbits
 181              		.align	2
 182              		.p2align 4,,15
 183              		.code	16
 184              		.thumb_func
 185              		.type	putt, %function
 186              	putt:
 187              	.LFB44:
 188              		.loc 1 84 0
 189              		.cfi_startproc
 190              	.LVL18:
 191 0000 08B5     		push	{r3, lr}
 192              		.cfi_def_cfa_offset 8
 193              		.cfi_offset 3, -8
 194              		.cfi_offset 14, -4
 195              		.loc 1 86 0
 196 0002 3030     		add	r0, r0, #48
 197              	.LVL19:
 198 0004 FFF7FEFF 		bl	chOQPutTimeout
 199              	.LVL20:
 200              		.loc 1 87 0
 201              		@ sp needed
 202 0008 08BD     		pop	{r3, pc}
 203              		.cfi_endproc
 204              	.LFE44:
 205              		.size	putt, .-putt
 206              		.section	.text.put,"ax",%progbits
 207              		.align	2
 208              		.p2align 4,,15
 209              		.code	16
 210              		.thumb_func
 211              		.type	put, %function
 212              	put:
 213              	.LFB42:
 214              		.loc 1 74 0
 215              		.cfi_startproc
 216              	.LVL21:
 217 0000 08B5     		push	{r3, lr}
 218              		.cfi_def_cfa_offset 8
 219              		.cfi_offset 3, -8
 220              		.cfi_offset 14, -4
 221              		.loc 1 76 0
 222 0002 0122     		mov	r2, #1
 223 0004 3030     		add	r0, r0, #48
 224              	.LVL22:
 225 0006 5242     		neg	r2, r2
 226 0008 FFF7FEFF 		bl	chOQPutTimeout
 227              	.LVL23:
ARM GAS  /tmp/cc08iglp.s 			page 5


 228              		.loc 1 77 0
 229              		@ sp needed
 230 000c 08BD     		pop	{r3, pc}
 231              		.cfi_endproc
 232              	.LFE42:
 233              		.size	put, .-put
 234 000e C046     		.section	.text.sdInit,"ax",%progbits
 235              		.align	2
 236              		.p2align 4,,15
 237              		.global	sdInit
 238              		.code	16
 239              		.thumb_func
 240              		.type	sdInit, %function
 241              	sdInit:
 242              	.LFB48:
 243              		.loc 1 120 0
 244              		.cfi_startproc
 245 0000 08B5     		push	{r3, lr}
 246              		.cfi_def_cfa_offset 8
 247              		.cfi_offset 3, -8
 248              		.cfi_offset 14, -4
 249              		.loc 1 122 0
 250 0002 FFF7FEFF 		bl	sd_lld_init
 251              	.LVL24:
 252              		.loc 1 123 0
 253              		@ sp needed
 254 0006 08BD     		pop	{r3, pc}
 255              		.cfi_endproc
 256              	.LFE48:
 257              		.size	sdInit, .-sdInit
 258 0008 C046C046 		.section	.text.sdObjectInit,"ax",%progbits
 258      C046C046 
 259              		.align	2
 260              		.p2align 4,,15
 261              		.global	sdObjectInit
 262              		.code	16
 263              		.thumb_func
 264              		.type	sdObjectInit, %function
 265              	sdObjectInit:
 266              	.LFB49:
 267              		.loc 1 140 0
 268              		.cfi_startproc
 269              	.LVL25:
 270 0000 30B5     		push	{r4, r5, lr}
 271              		.cfi_def_cfa_offset 12
 272              		.cfi_offset 4, -12
 273              		.cfi_offset 5, -8
 274              		.cfi_offset 14, -4
 275 0002 151C     		mov	r5, r2
 276              		.loc 1 142 0
 277 0004 0D4A     		ldr	r2, .L11
 278              	.LVL26:
 279              		.loc 1 140 0
 280 0006 041C     		mov	r4, r0
 281              		.loc 1 142 0
 282 0008 04C0     		stmia	r0!, {r2}
 283              	.LVL27:
ARM GAS  /tmp/cc08iglp.s 			page 6


 284              		.loc 1 140 0
 285 000a 83B0     		sub	sp, sp, #12
 286              		.cfi_def_cfa_offset 24
 287              		.loc 1 140 0
 288 000c 0B1C     		mov	r3, r1
 289              		.loc 1 143 0
 290 000e 6060     		str	r0, [r4, #4]
 291              		.loc 1 144 0
 292 0010 0122     		mov	r2, #1
 293              		.loc 1 145 0
 294 0012 201C     		mov	r0, r4
 295 0014 211C     		mov	r1, r4
 296              	.LVL28:
 297              		.loc 1 144 0
 298 0016 2272     		strb	r2, [r4, #8]
 299              		.loc 1 145 0
 300 0018 0C30     		add	r0, r0, #12
 301 001a 5431     		add	r1, r1, #84
 302 001c 0094     		str	r4, [sp]
 303 001e 1022     		mov	r2, #16
 304 0020 FFF7FEFF 		bl	chIQInit
 305              	.LVL29:
 306              		.loc 1 146 0
 307 0024 201C     		mov	r0, r4
 308 0026 211C     		mov	r1, r4
 309 0028 3030     		add	r0, r0, #48
 310 002a 6431     		add	r1, r1, #100
 311 002c 0094     		str	r4, [sp]
 312 002e 1022     		mov	r2, #16
 313 0030 2B1C     		mov	r3, r5
 314 0032 FFF7FEFF 		bl	chOQInit
 315              	.LVL30:
 316              		.loc 1 147 0
 317 0036 03B0     		add	sp, sp, #12
 318              		@ sp needed
 319              	.LVL31:
 320              	.LVL32:
 321 0038 30BD     		pop	{r4, r5, pc}
 322              	.L12:
 323 003a C046     		.align	2
 324              	.L11:
 325 003c 00000000 		.word	.LANCHOR0
 326              		.cfi_endproc
 327              	.LFE49:
 328              		.size	sdObjectInit, .-sdObjectInit
 329              		.section	.text.sdStart,"ax",%progbits
 330              		.align	2
 331              		.p2align 4,,15
 332              		.global	sdStart
 333              		.code	16
 334              		.thumb_func
 335              		.type	sdStart, %function
 336              	sdStart:
 337              	.LFB50:
 338              		.loc 1 159 0
 339              		.cfi_startproc
 340              	.LVL33:
ARM GAS  /tmp/cc08iglp.s 			page 7


 341 0000 10B5     		push	{r4, lr}
 342              		.cfi_def_cfa_offset 8
 343              		.cfi_offset 4, -8
 344              		.cfi_offset 14, -4
 345              		.loc 1 159 0
 346 0002 041C     		mov	r4, r0
 347              		.loc 1 163 0
 348              	@ 163 "../../os/hal/src/serial.c" 1
 349 0004 72B6     		cpsid   i
 350              	@ 0 "" 2
 351              		.loc 1 167 0
 352              		.code	16
 353 0006 FFF7FEFF 		bl	sd_lld_start
 354              	.LVL34:
 355              		.loc 1 168 0
 356 000a 0223     		mov	r3, #2
 357 000c 2372     		strb	r3, [r4, #8]
 358              		.loc 1 169 0
 359              	@ 169 "../../os/hal/src/serial.c" 1
 360 000e 62B6     		cpsie   i
 361              	@ 0 "" 2
 362              		.loc 1 170 0
 363              		.code	16
 364              		@ sp needed
 365              	.LVL35:
 366 0010 10BD     		pop	{r4, pc}
 367              		.cfi_endproc
 368              	.LFE50:
 369              		.size	sdStart, .-sdStart
 370 0012 C046C046 		.section	.text.sdStop,"ax",%progbits
 370      C046C046 
 370      C046C046 
 370      C046
 371              		.align	2
 372              		.p2align 4,,15
 373              		.global	sdStop
 374              		.code	16
 375              		.thumb_func
 376              		.type	sdStop, %function
 377              	sdStop:
 378              	.LFB51:
 379              		.loc 1 181 0
 380              		.cfi_startproc
 381              	.LVL36:
 382 0000 10B5     		push	{r4, lr}
 383              		.cfi_def_cfa_offset 8
 384              		.cfi_offset 4, -8
 385              		.cfi_offset 14, -4
 386              		.loc 1 181 0
 387 0002 041C     		mov	r4, r0
 388              		.loc 1 185 0
 389              	@ 185 "../../os/hal/src/serial.c" 1
 390 0004 72B6     		cpsid   i
 391              	@ 0 "" 2
 392              		.loc 1 189 0
 393              		.code	16
 394 0006 FFF7FEFF 		bl	sd_lld_stop
ARM GAS  /tmp/cc08iglp.s 			page 8


 395              	.LVL37:
 396              		.loc 1 190 0
 397 000a 0123     		mov	r3, #1
 398              		.loc 1 191 0
 399 000c 201C     		mov	r0, r4
 400              		.loc 1 190 0
 401 000e 2372     		strb	r3, [r4, #8]
 402              		.loc 1 191 0
 403 0010 3030     		add	r0, r0, #48
 404 0012 FFF7FEFF 		bl	chOQResetI
 405              	.LVL38:
 406              		.loc 1 192 0
 407 0016 201C     		mov	r0, r4
 408 0018 0C30     		add	r0, r0, #12
 409 001a FFF7FEFF 		bl	chIQResetI
 410              	.LVL39:
 411              		.loc 1 193 0
 412 001e FFF7FEFF 		bl	chSchRescheduleS
 413              	.LVL40:
 414              		.loc 1 194 0
 415              	@ 194 "../../os/hal/src/serial.c" 1
 416 0022 62B6     		cpsie   i
 417              	@ 0 "" 2
 418              		.loc 1 195 0
 419              		.code	16
 420              		@ sp needed
 421              	.LVL41:
 422 0024 10BD     		pop	{r4, pc}
 423              		.cfi_endproc
 424              	.LFE51:
 425              		.size	sdStop, .-sdStop
 426 0026 C046C046 		.section	.text.sdIncomingDataI,"ax",%progbits
 426      C046C046 
 426      C046
 427              		.align	2
 428              		.p2align 4,,15
 429              		.global	sdIncomingDataI
 430              		.code	16
 431              		.thumb_func
 432              		.type	sdIncomingDataI, %function
 433              	sdIncomingDataI:
 434              	.LFB52:
 435              		.loc 1 213 0
 436              		.cfi_startproc
 437              	.LVL42:
 438 0000 38B5     		push	{r3, r4, r5, lr}
 439              		.cfi_def_cfa_offset 16
 440              		.cfi_offset 3, -16
 441              		.cfi_offset 4, -12
 442              		.cfi_offset 5, -8
 443              		.cfi_offset 14, -4
 444              		.loc 1 218 0
 445 0002 4369     		ldr	r3, [r0, #20]
 446              		.loc 1 213 0
 447 0004 041C     		mov	r4, r0
 448 0006 0D1C     		mov	r5, r1
 449              		.loc 1 218 0
ARM GAS  /tmp/cc08iglp.s 			page 9


 450 0008 002B     		cmp	r3, #0
 451 000a 07D0     		beq	.L19
 452              		.loc 1 220 0
 453 000c 201C     		mov	r0, r4
 454 000e 0C30     		add	r0, r0, #12
 455              	.LVL43:
 456 0010 291C     		mov	r1, r5
 457              	.LVL44:
 458 0012 FFF7FEFF 		bl	chIQPutI
 459              	.LVL45:
 460 0016 0028     		cmp	r0, #0
 461 0018 0BDB     		blt	.L20
 462              	.L15:
 463              		.loc 1 222 0
 464              		@ sp needed
 465              	.LVL46:
 466 001a 38BD     		pop	{r3, r4, r5, pc}
 467              	.LVL47:
 468              	.L19:
 469              		.loc 1 219 0
 470 001c 0430     		add	r0, r0, #4
 471              	.LVL48:
 472 001e 0421     		mov	r1, #4
 473              	.LVL49:
 474 0020 FFF7FEFF 		bl	chEvtBroadcastFlagsI
 475              	.LVL50:
 476              		.loc 1 220 0
 477 0024 201C     		mov	r0, r4
 478 0026 0C30     		add	r0, r0, #12
 479 0028 291C     		mov	r1, r5
 480 002a FFF7FEFF 		bl	chIQPutI
 481              	.LVL51:
 482 002e 0028     		cmp	r0, #0
 483 0030 F3DA     		bge	.L15
 484              	.L20:
 485              		.loc 1 221 0
 486 0032 201D     		add	r0, r4, #4
 487 0034 8021     		mov	r1, #128
 488 0036 FFF7FEFF 		bl	chEvtBroadcastFlagsI
 489              	.LVL52:
 490 003a EEE7     		b	.L15
 491              		.cfi_endproc
 492              	.LFE52:
 493              		.size	sdIncomingDataI, .-sdIncomingDataI
 494 003c C046C046 		.section	.text.sdRequestDataI,"ax",%progbits
 495              		.align	2
 496              		.p2align 4,,15
 497              		.global	sdRequestDataI
 498              		.code	16
 499              		.thumb_func
 500              		.type	sdRequestDataI, %function
 501              	sdRequestDataI:
 502              	.LFB53:
 503              		.loc 1 239 0
 504              		.cfi_startproc
 505              	.LVL53:
 506 0000 38B5     		push	{r3, r4, r5, lr}
ARM GAS  /tmp/cc08iglp.s 			page 10


 507              		.cfi_def_cfa_offset 16
 508              		.cfi_offset 3, -16
 509              		.cfi_offset 4, -12
 510              		.cfi_offset 5, -8
 511              		.cfi_offset 14, -4
 512              		.loc 1 239 0
 513 0002 051C     		mov	r5, r0
 514              		.loc 1 245 0
 515 0004 3030     		add	r0, r0, #48
 516              	.LVL54:
 517 0006 FFF7FEFF 		bl	chOQGetI
 518              	.LVL55:
 519 000a 041E     		sub	r4, r0, #0
 520              	.LVL56:
 521              		.loc 1 246 0
 522 000c 01DB     		blt	.L23
 523              	.LVL57:
 524              	.L22:
 525              		.loc 1 249 0
 526 000e 201C     		mov	r0, r4
 527              		@ sp needed
 528              	.LVL58:
 529              	.LVL59:
 530 0010 38BD     		pop	{r3, r4, r5, pc}
 531              	.LVL60:
 532              	.L23:
 533              		.loc 1 247 0
 534 0012 281D     		add	r0, r5, #4
 535              	.LVL61:
 536 0014 0821     		mov	r1, #8
 537 0016 FFF7FEFF 		bl	chEvtBroadcastFlagsI
 538              	.LVL62:
 539 001a F8E7     		b	.L22
 540              		.cfi_endproc
 541              	.LFE53:
 542              		.size	sdRequestDataI, .-sdRequestDataI
 543 001c C046C046 		.section	.rodata.vmt,"a",%progbits
 544              		.align	2
 545              		.set	.LANCHOR0,. + 0
 546              		.type	vmt, %object
 547              		.size	vmt, 32
 548              	vmt:
 549 0000 00000000 		.word	write
 550 0004 00000000 		.word	read
 551 0008 00000000 		.word	put
 552 000c 00000000 		.word	get
 553 0010 00000000 		.word	putt
 554 0014 00000000 		.word	gett
 555 0018 00000000 		.word	writet
 556 001c 00000000 		.word	readt
 557              		.text
 558              	.Letext0:
 559              		.file 2 "/usr/lib/gcc/arm-none-eabi/4.8.2/include/stddef.h"
 560              		.file 3 "/usr/arm-none-eabi/include/machine/_default_types.h"
 561              		.file 4 "/usr/arm-none-eabi/include/stdint.h"
 562              		.file 5 "../../os/ports/GCC/ARMCMx/chtypes.h"
 563              		.file 6 "../../os/kernel/include/chlists.h"
ARM GAS  /tmp/cc08iglp.s 			page 11


 564              		.file 7 "../../os/kernel/include/chthreads.h"
 565              		.file 8 "../../os/ports/GCC/ARMCMx/chcore_v6m.h"
 566              		.file 9 "../../os/kernel/include/chmtx.h"
 567              		.file 10 "../../os/kernel/include/chevents.h"
 568              		.file 11 "../../os/kernel/include/chqueues.h"
 569              		.file 12 "../../os/hal/platforms/STM32F0xx/stm32f0xx.h"
 570              		.file 13 "../../os/hal/include/serial.h"
 571              		.file 14 "../../os/hal/platforms/STM32/USARTv2/serial_lld.h"
 572              		.file 15 "../../os/kernel/include/chschd.h"