ARM GAS  /tmp/cc08iglp.s 			page 1


   1              		.cpu cortex-m0
   2              		.fpu softvfp
   3              		.eabi_attribute 20, 1
   4              		.eabi_attribute 21, 1
   5              		.eabi_attribute 23, 3
   6              		.eabi_attribute 24, 1
   7              		.eabi_attribute 25, 1
   8              		.eabi_attribute 26, 1
   9              		.eabi_attribute 30, 2
  10              		.eabi_attribute 34, 0
  11              		.eabi_attribute 18, 4
  12              		.code	16
  13              		.file	"serial.c"
  14              		.text
  15              	.Ltext0:
  16              		.cfi_sections	.debug_frame
  17              		.section	.text.readt,"ax",%progbits
  18              		.align	2
  19              		.p2align 4,,15
  20              		.code	16
  21              		.thumb_func
  22              		.type	readt, %function
  23              	readt:
  24              	.LFB47:
  25              		.file 1 "../../os/hal/src/serial.c"
  26              		.loc 1 99 0
  27              		.cfi_startproc
  28              	.LVL0:
  29 0000 08B5     		push	{r3, lr}
  30              		.cfi_def_cfa_offset 8
  31              		.cfi_offset 3, -8
  32              		.cfi_offset 14, -4
  33              		.loc 1 101 0
  34 0002 0C30     		add	r0, r0, #12
  35              	.LVL1:
  36 0004 FFF7FEFF 		bl	chIQReadTimeout
  37              	.LVL2:
  38              		.loc 1 102 0
  39              		@ sp needed
  40 0008 08BD     		pop	{r3, pc}
  41              		.cfi_endproc
  42              	.LFE47:
  43              		.size	readt, .-readt
  44 000a C046C046 		.section	.text.read,"ax",%progbits
  44      C046
  45              		.align	2
  46              		.p2align 4,,15
  47              		.code	16
  48              		.thumb_func
  49              		.type	read, %function
  50              	read:
  51              	.LFB41:
  52              		.loc 1 68 0
  53              		.cfi_startproc
  54              	.LVL3:
  55 0000 08B5     		push	{r3, lr}
  56              		.cfi_def_cfa_offset 8
ARM GAS  /tmp/cc08iglp.s 			page 2


  57              		.cfi_offset 3, -8
  58              		.cfi_offset 14, -4
  59              		.loc 1 70 0
  60 0002 0123     		mov	r3, #1
  61 0004 0C30     		add	r0, r0, #12
  62              	.LVL4:
  63 0006 5B42     		neg	r3, r3
  64 0008 FFF7FEFF 		bl	chIQReadTimeout
  65              	.LVL5:
  66              		.loc 1 72 0
  67              		@ sp needed
  68 000c 08BD     		pop	{r3, pc}
  69              		.cfi_endproc
  70              	.LFE41:
  71              		.size	read, .-read
  72 000e C046     		.section	.text.writet,"ax",%progbits
  73              		.align	2
  74              		.p2align 4,,15
  75              		.code	16
  76              		.thumb_func
  77              		.type	writet, %function
  78              	writet:
  79              	.LFB46:
  80              		.loc 1 94 0
  81              		.cfi_startproc
  82              	.LVL6:
  83 0000 08B5     		push	{r3, lr}
  84              		.cfi_def_cfa_offset 8
  85              		.cfi_offset 3, -8
  86              		.cfi_offset 14, -4
  87              		.loc 1 96 0
  88 0002 3030     		add	r0, r0, #48
  89              	.LVL7:
  90 0004 FFF7FEFF 		bl	chOQWriteTimeout
  91              	.LVL8:
  92              		.loc 1 97 0
  93              		@ sp needed
  94 0008 08BD     		pop	{r3, pc}
  95              		.cfi_endproc
  96              	.LFE46:
  97              		.size	writet, .-writet
  98              		.section	.text.write,"ax",%progbits
  99              		.align	2
 100              		.p2align 4,,15
 101              		.code	16
 102              		.thumb_func
 103              		.type	write, %function
 104              	write:
 105              	.LFB40:
 106              		.loc 1 62 0
 107              		.cfi_startproc
 108              	.LVL9:
 109 0000 08B5     		push	{r3, lr}
 110              		.cfi_def_cfa_offset 8
 111              		.cfi_offset 3, -8
 112              		.cfi_offset 14, -4
 113              		.loc 1 64 0
ARM GAS  /tmp/cc08iglp.s 			page 3


 114 0002 0123     		mov	r3, #1
 115 0004 3030     		add	r0, r0, #48
 116              	.LVL10:
 117 0006 5B42     		neg	r3, r3
 118 0008 FFF7FEFF 		bl	chOQWriteTimeout
 119              	.LVL11:
 120              		.loc 1 66 0
 121              		@ sp needed
 122 000c 08BD     		pop	{r3, pc}
 123              		.cfi_endproc
 124              	.LFE40:
 125              		.size	write, .-write
 126 000e C046     		.section	.text.gett,"ax",%progbits
 127              		.align	2
 128              		.p2align 4,,15
 129              		.code	16
 130              		.thumb_func
 131              		.type	gett, %function
 132              	gett:
 133              	.LFB45:
 134              		.loc 1 89 0
 135              		.cfi_startproc
 136              	.LVL12:
 137 0000 08B5     		push	{r3, lr}
 138              		.cfi_def_cfa_offset 8
 139              		.cfi_offset 3, -8
 140              		.cfi_offset 14, -4
 141              		.loc 1 91 0
 142 0002 0C30     		add	r0, r0, #12
 143              	.LVL13:
 144 0004 FFF7FEFF 		bl	chIQGetTimeout
 145              	.LVL14:
 146              		.loc 1 92 0
 147              		@ sp needed
 148 0008 08BD     		pop	{r3, pc}
 149              		.cfi_endproc
 150              	.LFE45:
 151              		.size	gett, .-gett
 152              		.section	.text.get,"ax",%progbits
 153              		.align	2
 154              		.p2align 4,,15
 155              		.code	16
 156              		.thumb_func
 157              		.type	get, %function
 158              	get:
 159              	.LFB43:
 160              		.loc 1 79 0
 161              		.cfi_startproc
 162              	.LVL15:
 163 0000 08B5     		push	{r3, lr}
 164              		.cfi_def_cfa_offset 8
 165              		.cfi_offset 3, -8
 166              		.cfi_offset 14, -4
 167              		.loc 1 81 0
 168 0002 0121     		mov	r1, #1
 169 0004 0C30     		add	r0, r0, #12
 170              	.LVL16:
ARM GAS  /tmp/cc08iglp.s 			page 4


 171 0006 4942     		neg	r1, r1
 172 0008 FFF7FEFF 		bl	chIQGetTimeout
 173              	.LVL17:
 174              		.loc 1 82 0
 175              		@ sp needed
 176 000c 08BD     		pop	{r3, pc}
 177              		.cfi_endproc
 178              	.LFE43:
 179              		.size	get, .-get
 180 000e C046     		.section	.text.putt,"ax",%progbits
 181              		.align	2
 182              		.p2align 4,,15
 183              		.code	16
 184              		.thumb_func
 185              		.type	putt, %function
 186              	putt:
 187              	.LFB44:
 188              		.loc 1 84 0
 189              		.cfi_startproc
 190              	.LVL18:
 191 0000 08B5     		push	{r3, lr}
 192              		.cfi_def_cfa_offset 8
 193              		.cfi_offset 3, -8
 194              		.cfi_offset 14, -4
 195              		.loc 1 86 0
 196 0002 3030     		add	r0, r0, #48
 197              	.LVL19:
 198 0004 FFF7FEFF 		bl	chOQPutTimeout
 199              	.LVL20:
 200              		.loc 1 87 0
 201              		@ sp needed
 202 0008 08BD     		pop	{r3, pc}
 203              		.cfi_endproc
 204              	.LFE44:
 205              		.size	putt, .-putt
 206              		.section	.text.put,"ax",%progbits
 207              		.align	2
 208              		.p2align 4,,15
 209              		.code	16
 210              		.thumb_func
 211              		.type	put, %function
 212              	put:
 213              	.LFB42:
 214              		.loc 1 74 0
 215              		.cfi_startproc
 216              	.LVL21:
 217 0000 08B5     		push	{r3, lr}
 218              		.cfi_def_cfa_offset 8
 219              		.cfi_offset 3, -8
 220              		.cfi_offset 14, -4
 221              		.loc 1 76 0
 222 0002 0122     		mov	r2, #1
 223 0004 3030     		add	r0, r0, #48
 224              	.LVL22:
 225 0006 5242     		neg	r2, r2
 226 0008 FFF7FEFF 		bl	chOQPutTimeout
 227              	.LVL23:
ARM GAS  /tmp/cc08iglp.s 			page 5


 228              		.loc 1 77 0
 229              		@ sp needed
 230 000c 08BD     		pop	{r3, pc}
 231              		.cfi_endproc
 232              	.LFE42:
 233              		.size	put, .-put
 234 000e C046     		.section	.text.sdInit,"ax",%progbits
 235              		.align	2
 236              		.p2align 4,,15
 237              		.global	sdInit
 238              		.code	16
 239              		.thumb_func
 240              		.type	sdInit, %function
 241              	sdInit:
 242              	.LFB48:
 243              		.loc 1 120 0
 244              		.cfi_startproc
 245 0000 08B5     		push	{r3, lr}
 246              		.cfi_def_cfa_offset 8
 247              		.cfi_offset 3, -8
 248              		.cfi_offset 14, -4
 249              		.loc 1 122 0
 250 0002 FFF7FEFF 		bl	sd_lld_init
 251              	.LVL24:
 252              		.loc 1 123 0
 253              		@ sp needed
 254 0006 08BD     		pop	{r3, pc}
 255              		.cfi_endproc
 256              	.LFE48:
 257              		.size	sdInit, .-sdInit
 258 0008 C046C046 		.section	.text.sdObjectInit,"ax",%progbits
 258      C046C046 
 259              		.align	2
 260              		.p2align 4,,15
 261              		.global	sdObjectInit
 262              		.code	16
 263              		.thumb_func
 264              		.type	sdObjectInit, %function
 265              	sdObjectInit:
 266              	.LFB49:
 267              		.loc 1 140 0
 268              		.cfi_startproc
 269              	.LVL25:
 270 0000 30B5     		push	{r4, r5, lr}
 271              		.cfi_def_cfa_offset 12
 272              		.cfi_offset 4, -12
 273              		.cfi_offset 5, -8
 274              		.cfi_offset 14, -4
 275 0002 151C     		mov	r5, r2
 276              		.loc 1 142 0
 277 0004 0D4A     		ldr	r2, .L11
 278              	.LVL26:
 279              		.loc 1 140 0
 280 0006 041C     		mov	r4, r0
 281              		.loc 1 142 0
 282 0008 04C0     		stmia	r0!, {r2}
 283              	.LVL27:
ARM GAS  /tmp/cc08iglp.s 			page 6


 284              		.loc 1 140 0
 285 000a 83B0     		sub	sp, sp, #12
 286              		.cfi_def_cfa_offset 24
 287              		.loc 1 140 0
 288 000c 0B1C     		mov	r3, r1
 289              		.loc 1 143 0
 290 000e 6060     		str	r0, [r4, #4]
 291              		.loc 1 144 0
 292 0010 0122     		mov	r2, #1
 293              		.loc 1 145 0
 294 0012 201C     		mov	r0, r4
 295 0014 211C     		mov	r1, r4
 296              	.LVL28:
 297              		.loc 1 144 0
 298 0016 2272     		strb	r2, [r4, #8]
 299              		.loc 1 145 0
 300 0018 0C30     		add	r0, r0, #12
 301 001a 5431     		add	r1, r1, #84
 302 001c 0094     		str	r4, [sp]
 303 001e 1022     		mov	r2, #16
 304 0020 FFF7FEFF 		bl	chIQInit
 305              	.LVL29:
 306              		.loc 1 146 0
 307 0024 201C     		mov	r0, r4
 308 0026 211C     		mov	r1, r4
 309 0028 3030     		add	r0, r0, #48
 310 002a 6431     		add	r1, r1, #100
 311 002c 0094     		str	r4, [sp]
 312 002e 1022     		mov	r2, #16
 313 0030 2B1C     		mov	r3, r5
 314 0032 FFF7FEFF 		bl	chOQInit
 315              	.LVL30:
 316              		.loc 1 147 0
 317 0036 03B0     		add	sp, sp, #12
 318              		@ sp needed
 319              	.LVL31:
 320              	.LVL32:
 321 0038 30BD     		pop	{r4, r5, pc}
 322              	.L12:
 323 003a C046     		.align	2
 324              	.L11:
 325 003c 00000000 		.word	.LANCHOR0
 326              		.cfi_endproc
 327              	.LFE49:
 328              		.size	sdObjectInit, .-sdObjectInit
 329              		.section	.text.sdStart,"ax",%progbits
 330              		.align	2
 331              		.p2align 4,,15
 332              		.global	sdStart
 333              		.code	16
 334              		.thumb_func
 335              		.type	sdStart, %function
 336              	sdStart:
 337              	.LFB50:
 338              		.loc 1 159 0
 339              		.cfi_startproc
 340              	.LVL33:
ARM GAS  /tmp/cc08iglp.s 			page 7


 341 0000 10B5     		push	{r4, lr}
 342              		.cfi_def_cfa_offset 8
 343              		.cfi_offset 4, -8
 344              		.cfi_offset 14, -4
 345              		.loc 1 159 0
 346 0002 041C     		mov	r4, r0
 347              		.loc 1 163 0
 348              	@ 163 "../../os/hal/src/serial.c" 1
 349 0004 72B6     		cpsid   i
 350              	@ 0 "" 2
 351              		.loc 1 167 0
 352              		.code	16
 353 0006 FFF7FEFF 		bl	sd_lld_start
 354              	.LVL34:
 355              		.loc 1 168 0
 356 000a 0223     		mov	r3, #2
 357 000c 2372     		strb	r3, [r4, #8]
 358              		.loc 1 169 0
 359              	@ 169 "../../os/hal/src/serial.c" 1
 360 000e 62B6     		cpsie   i
 361              	@ 0 "" 2
 362              		.loc 1 170 0
 363              		.code	16
 364              		@ sp needed
 365              	.LVL35:
 366 0010 10BD     		pop	{r4, pc}
 367              		.cfi_endproc
 368              	.LFE50:
 369              		.size	sdStart, .-sdStart
 370 0012 C046C046 		.section	.text.sdStop,"ax",%progbits
 370      C046C046 
 370      C046C046 
 370      C046
 371              		.align	2
 372              		.p2align 4,,15
 373              		.global	sdStop
 374              		.code	16
 375              		.thumb_func
 376              		.type	sdStop, %function
 377              	sdStop:
 378              	.LFB51:
 379              		.loc 1 181 0
 380              		.cfi_startproc
 381              	.LVL36:
 382 0000 10B5     		push	{r4, lr}
 383              		.cfi_def_cfa_offset 8
 384              		.cfi_offset 4, -8
 385              		.cfi_offset 14, -4
 386              		.loc 1 181 0
 387 0002 041C     		mov	r4, r0
 388              		.loc 1 185 0
 389              	@ 185 "../../os/hal/src/serial.c" 1
 390 0004 72B6     		cpsid   i
 391              	@ 0 "" 2
 392              		.loc 1 189 0
 393              		.code	16
 394 0006 FFF7FEFF 		bl	sd_lld_stop
ARM GAS  /tmp/cc08iglp.s 			page 8


 395              	.LVL37:
 396              		.loc 1 190 0
 397 000a 0123     		mov	r3, #1
 398              		.loc 1 191 0
 399 000c 201C     		mov	r0, r4
 400              		.loc 1 190 0
 401 000e 2372     		strb	r3, [r4, #8]
 402              		.loc 1 191 0
 403 0010 3030     		add	r0, r0, #48
 404 0012 FFF7FEFF 		bl	chOQResetI
 405              	.LVL38:
 406              		.loc 1 192 0
 407 0016 201C     		mov	r0, r4
 408 0018 0C30     		add	r0, r0, #12
 409 001a FFF7FEFF 		bl	chIQResetI
 410              	.LVL39:
 411              		.loc 1 193 0
 412 001e FFF7FEFF 		bl	chSchRescheduleS
 413              	.LVL40:
 414              		.loc 1 194 0
 415              	@ 194 "../../os/hal/src/serial.c" 1
 416 0022 62B6     		cpsie   i
 417              	@ 0 "" 2
 418              		.loc 1 195 0
 419              		.code	16
 420              		@ sp needed
 421              	.LVL41:
 422 0024 10BD     		pop	{r4, pc}
 423              		.cfi_endproc
 424              	.LFE51:
 425              		.size	sdStop, .-sdStop
 426 0026 C046C046 		.section	.text.sdIncomingDataI,"ax",%progbits
 426      C046C046 
 426      C046
 427              		.align	2
 428              		.p2align 4,,15
 429              		.global	sdIncomingDataI
 430              		.code	16
 431              		.thumb_func
 432              		.type	sdIncomingDataI, %function
 433              	sdIncomingDataI:
 434              	.LFB52:
 435              		.loc 1 213 0
 436              		.cfi_startproc
 437              	.LVL42:
 438 0000 38B5     		push	{r3, r4, r5, lr}
 439              		.cfi_def_cfa_offset 16
 440              		.cfi_offset 3, -16
 441              		.cfi_offset 4, -12
 442              		.cfi_offset 5, -8
 443              		.cfi_offset 14, -4
 444              		.loc 1 218 0
 445 0002 4369     		ldr	r3, [r0, #20]
 446              		.loc 1 213 0
 447 0004 041C     		mov	r4, r0
 448 0006 0D1C     		mov	r5, r1
 449              		.loc 1 218 0
ARM GAS  /tmp/cc08iglp.s 			page 9


 450 0008 002B     		cmp	r3, #0
 451 000a 07D0     		beq	.L19
 452              		.loc 1 220 0
 453 000c 201C     		mov	r0, r4
 454 000e 0C30     		add	r0, r0, #12
 455              	.LVL43:
 456 0010 291C     		mov	r1, r5
 457              	.LVL44:
 458 0012 FFF7FEFF 		bl	chIQPutI
 459              	.LVL45:
 460 0016 0028     		cmp	r0, #0
 461 0018 0BDB     		blt	.L20
 462              	.L15:
 463              		.loc 1 222 0
 464              		@ sp needed
 465              	.LVL46:
 466 001a 38BD     		pop	{r3, r4, r5, pc}
 467              	.LVL47:
 468              	.L19:
 469              		.loc 1 219 0
 470 001c 0430     		add	r0, r0, #4
 471              	.LVL48:
 472 001e 0421     		mov	r1, #4
 473              	.LVL49:
 474 0020 FFF7FEFF 		bl	chEvtBroadcastFlagsI
 475              	.LVL50:
 476              		.loc 1 220 0
 477 0024 201C     		mov	r0, r4
 478 0026 0C30     		add	r0, r0, #12
 479 0028 291C     		mov	r1, r5
 480 002a FFF7FEFF 		bl	chIQPutI
 481              	.LVL51:
 482 002e 0028     		cmp	r0, #0
 483 0030 F3DA     		bge	.L15
 484              	.L20:
 485              		.loc 1 221 0
 486 0032 201D     		add	r0, r4, #4
 487 0034 8021     		mov	r1, #128
 488 0036 FFF7FEFF 		bl	chEvtBroadcastFlagsI
 489              	.LVL52:
 490 003a EEE7     		b	.L15
 491              		.cfi_endproc
 492              	.LFE52:
 493              		.size	sdIncomingDataI, .-sdIncomingDataI
 494 003c C046C046 		.section	.text.sdRequestDataI,"ax",%progbits
 495              		.align	2
 496              		.p2align 4,,15
 497              		.global	sdRequestDataI
 498              		.code	16
 499              		.thumb_func
 500              		.type	sdRequestDataI, %function
 501              	sdRequestDataI:
 502              	.LFB53:
 503              		.loc 1 239 0
 504              		.cfi_startproc
 505              	.LVL53:
 506 0000 38B5     		push	{r3, r4, r5, lr}
ARM GAS  /tmp/cc08iglp.s 			page 10


 507              		.cfi_def_cfa_offset 16
 508              		.cfi_offset 3, -16
 509              		.cfi_offset 4, -12
 510              		.cfi_offset 5, -8
 511              		.cfi_offset 14, -4
 512              		.loc 1 239 0
 513 0002 051C     		mov	r5, r0
 514              		.loc 1 245 0
 515 0004 3030     		add	r0, r0, #48
 516              	.LVL54:
 517 0006 FFF7FEFF 		bl	chOQGetI
 518              	.LVL55:
 519 000a 041E     		sub	r4, r0, #0
 520              	.LVL56:
 521              		.loc 1 246 0
 522 000c 01DB     		blt	.L23
 523              	.LVL57:
 524              	.L22:
 525              		.loc 1 249 0
 526 000e 201C     		mov	r0, r4
 527              		@ sp needed
 528              	.LVL58:
 529              	.LVL59:
 530 0010 38BD     		pop	{r3, r4, r5, pc}
 531              	.LVL60:
 532              	.L23:
 533              		.loc 1 247 0
 534 0012 281D     		add	r0, r5, #4
 535              	.LVL61:
 536 0014 0821     		mov	r1, #8
 537 0016 FFF7FEFF 		bl	chEvtBroadcastFlagsI
 538              	.LVL62:
 539 001a F8E7     		b	.L22
 540              		.cfi_endproc
 541              	.LFE53:
 542              		.size	sdRequestDataI, .-sdRequestDataI
 543 001c C046C046 		.section	.rodata.vmt,"a",%progbits
 544              		.align	2
 545              		.set	.LANCHOR0,. + 0
 546              		.type	vmt, %object
 547              		.size	vmt, 32
 548              	vmt:
 549 0000 00000000 		.word	write
 550 0004 00000000 		.word	read
 551 0008 00000000 		.word	put
 552 000c 00000000 		.word	get
 553 0010 00000000 		.word	putt
 554 0014 00000000 		.word	gett
 555 0018 00000000 		.word	writet
 556 001c 00000000 		.word	readt
 557              		.text
 558              	.Letext0:
 559              		.file 2 "/usr/lib/gcc/arm-none-eabi/4.8.2/include/stddef.h"
 560              		.file 3 "/usr/arm-none-eabi/include/machine/_default_types.h"
 561              		.file 4 "/usr/arm-none-eabi/include/stdint.h"
 562              		.file 5 "../../os/ports/GCC/ARMCMx/chtypes.h"
 563              		.file 6 "../../os/kernel/include/chlists.h"
ARM GAS  /tmp/cc08iglp.s 			page 11


 564              		.file 7 "../../os/kernel/include/chthreads.h"
 565              		.file 8 "../../os/ports/GCC/ARMCMx/chcore_v6m.h"
 566              		.file 9 "../../os/kernel/include/chmtx.h"
 567              		.file 10 "../../os/kernel/include/chevents.h"
 568              		.file 11 "../../os/kernel/include/chqueues.h"
 569              		.file 12 "../../os/hal/platforms/STM32F0xx/stm32f0xx.h"
 570              		.file 13 "../../os/hal/include/serial.h"
 571              		.file 14 "../../os/hal/platforms/STM32/USARTv2/serial_lld.h"
 572              		.file 15 "../../os/kernel/include/chschd.h"
 573              		.section	.debug_info,"",%progbits
 574              	.Ldebug_info0:
 575 0000 6A0F0000 		.4byte	0xf6a
 576 0004 0400     		.2byte	0x4
 577 0006 00000000 		.4byte	.Ldebug_abbrev0
 578 000a 04       		.byte	0x4
 579 000b 01       		.uleb128 0x1
 580 000c 1C020000 		.4byte	.LASF136
 581 0010 01       		.byte	0x1
 582 0011 C7010000 		.4byte	.LASF137
 583 0015 50000000 		.4byte	.LASF138
 584 0019 00000000 		.4byte	.Ldebug_ranges0+0
 585 001d 00000000 		.4byte	0
 586 0021 00000000 		.4byte	.Ldebug_line0
 587 0025 02       		.uleb128 0x2
 588 0026 04       		.byte	0x4
 589 0027 05       		.byte	0x5
 590 0028 696E7400 		.ascii	"int\000"
 591 002c 03       		.uleb128 0x3
 592 002d CA020000 		.4byte	.LASF2
 593 0031 02       		.byte	0x2
 594 0032 D4       		.byte	0xd4
 595 0033 37000000 		.4byte	0x37
 596 0037 04       		.uleb128 0x4
 597 0038 04       		.byte	0x4
 598 0039 07       		.byte	0x7
 599 003a C7000000 		.4byte	.LASF0
 600 003e 04       		.uleb128 0x4
 601 003f 01       		.byte	0x1
 602 0040 06       		.byte	0x6
 603 0041 E1050000 		.4byte	.LASF1
 604 0045 03       		.uleb128 0x3
 605 0046 FF040000 		.4byte	.LASF3
 606 004a 03       		.byte	0x3
 607 004b 1C       		.byte	0x1c
 608 004c 50000000 		.4byte	0x50
 609 0050 04       		.uleb128 0x4
 610 0051 01       		.byte	0x1
 611 0052 08       		.byte	0x8
 612 0053 8B050000 		.4byte	.LASF4
 613 0057 04       		.uleb128 0x4
 614 0058 02       		.byte	0x2
 615 0059 05       		.byte	0x5
 616 005a C4040000 		.4byte	.LASF5
 617 005e 03       		.uleb128 0x3
 618 005f F2010000 		.4byte	.LASF6
 619 0063 03       		.byte	0x3
 620 0064 26       		.byte	0x26
ARM GAS  /tmp/cc08iglp.s 			page 12


 621 0065 69000000 		.4byte	0x69
 622 0069 04       		.uleb128 0x4
 623 006a 02       		.byte	0x2
 624 006b 07       		.byte	0x7
 625 006c F3050000 		.4byte	.LASF7
 626 0070 03       		.uleb128 0x3
 627 0071 F5000000 		.4byte	.LASF8
 628 0075 03       		.byte	0x3
 629 0076 37       		.byte	0x37
 630 0077 7B000000 		.4byte	0x7b
 631 007b 04       		.uleb128 0x4
 632 007c 04       		.byte	0x4
 633 007d 05       		.byte	0x5
 634 007e E1040000 		.4byte	.LASF9
 635 0082 03       		.uleb128 0x3
 636 0083 99050000 		.4byte	.LASF10
 637 0087 03       		.byte	0x3
 638 0088 38       		.byte	0x38
 639 0089 8D000000 		.4byte	0x8d
 640 008d 04       		.uleb128 0x4
 641 008e 04       		.byte	0x4
 642 008f 07       		.byte	0x7
 643 0090 68050000 		.4byte	.LASF11
 644 0094 04       		.uleb128 0x4
 645 0095 08       		.byte	0x8
 646 0096 05       		.byte	0x5
 647 0097 C7030000 		.4byte	.LASF12
 648 009b 04       		.uleb128 0x4
 649 009c 08       		.byte	0x8
 650 009d 07       		.byte	0x7
 651 009e B0010000 		.4byte	.LASF13
 652 00a2 03       		.uleb128 0x3
 653 00a3 96030000 		.4byte	.LASF14
 654 00a7 04       		.byte	0x4
 655 00a8 2A       		.byte	0x2a
 656 00a9 45000000 		.4byte	0x45
 657 00ad 03       		.uleb128 0x3
 658 00ae 57040000 		.4byte	.LASF15
 659 00b2 04       		.byte	0x4
 660 00b3 36       		.byte	0x36
 661 00b4 5E000000 		.4byte	0x5e
 662 00b8 03       		.uleb128 0x3
 663 00b9 7A050000 		.4byte	.LASF16
 664 00bd 04       		.byte	0x4
 665 00be 41       		.byte	0x41
 666 00bf 70000000 		.4byte	0x70
 667 00c3 03       		.uleb128 0x3
 668 00c4 5C010000 		.4byte	.LASF17
 669 00c8 04       		.byte	0x4
 670 00c9 42       		.byte	0x42
 671 00ca 82000000 		.4byte	0x82
 672 00ce 03       		.uleb128 0x3
 673 00cf E0020000 		.4byte	.LASF18
 674 00d3 05       		.byte	0x5
 675 00d4 2B       		.byte	0x2b
 676 00d5 D9000000 		.4byte	0xd9
 677 00d9 04       		.uleb128 0x4
ARM GAS  /tmp/cc08iglp.s 			page 13


 678 00da 01       		.byte	0x1
 679 00db 02       		.byte	0x2
 680 00dc E7020000 		.4byte	.LASF19
 681 00e0 03       		.uleb128 0x3
 682 00e1 3B040000 		.4byte	.LASF20
 683 00e5 05       		.byte	0x5
 684 00e6 2C       		.byte	0x2c
 685 00e7 A2000000 		.4byte	0xa2
 686 00eb 03       		.uleb128 0x3
 687 00ec 68030000 		.4byte	.LASF21
 688 00f0 05       		.byte	0x5
 689 00f1 2D       		.byte	0x2d
 690 00f2 A2000000 		.4byte	0xa2
 691 00f6 03       		.uleb128 0x3
 692 00f7 52050000 		.4byte	.LASF22
 693 00fb 05       		.byte	0x5
 694 00fc 2E       		.byte	0x2e
 695 00fd A2000000 		.4byte	0xa2
 696 0101 03       		.uleb128 0x3
 697 0102 0D040000 		.4byte	.LASF23
 698 0106 05       		.byte	0x5
 699 0107 2F       		.byte	0x2f
 700 0108 A2000000 		.4byte	0xa2
 701 010c 03       		.uleb128 0x3
 702 010d A8010000 		.4byte	.LASF24
 703 0111 05       		.byte	0x5
 704 0112 30       		.byte	0x30
 705 0113 C3000000 		.4byte	0xc3
 706 0117 03       		.uleb128 0x3
 707 0118 E4030000 		.4byte	.LASF25
 708 011c 05       		.byte	0x5
 709 011d 31       		.byte	0x31
 710 011e B8000000 		.4byte	0xb8
 711 0122 03       		.uleb128 0x3
 712 0123 7F010000 		.4byte	.LASF26
 713 0127 05       		.byte	0x5
 714 0128 33       		.byte	0x33
 715 0129 C3000000 		.4byte	0xc3
 716 012d 03       		.uleb128 0x3
 717 012e 9E030000 		.4byte	.LASF27
 718 0132 05       		.byte	0x5
 719 0133 34       		.byte	0x34
 720 0134 C3000000 		.4byte	0xc3
 721 0138 03       		.uleb128 0x3
 722 0139 AA000000 		.4byte	.LASF28
 723 013d 05       		.byte	0x5
 724 013e 35       		.byte	0x35
 725 013f C3000000 		.4byte	0xc3
 726 0143 03       		.uleb128 0x3
 727 0144 61030000 		.4byte	.LASF29
 728 0148 06       		.byte	0x6
 729 0149 2A       		.byte	0x2a
 730 014a 4E010000 		.4byte	0x14e
 731 014e 05       		.uleb128 0x5
 732 014f 61030000 		.4byte	.LASF29
 733 0153 48       		.byte	0x48
 734 0154 07       		.byte	0x7
ARM GAS  /tmp/cc08iglp.s 			page 14


 735 0155 5E       		.byte	0x5e
 736 0156 4B020000 		.4byte	0x24b
 737 015a 06       		.uleb128 0x6
 738 015b F2040000 		.4byte	.LASF30
 739 015f 07       		.byte	0x7
 740 0160 5F       		.byte	0x5f
 741 0161 6C020000 		.4byte	0x26c
 742 0165 00       		.byte	0
 743 0166 06       		.uleb128 0x6
 744 0167 42050000 		.4byte	.LASF31
 745 016b 07       		.byte	0x7
 746 016c 61       		.byte	0x61
 747 016d 6C020000 		.4byte	0x26c
 748 0171 04       		.byte	0x4
 749 0172 06       		.uleb128 0x6
 750 0173 49000000 		.4byte	.LASF32
 751 0177 07       		.byte	0x7
 752 0178 63       		.byte	0x63
 753 0179 0C010000 		.4byte	0x10c
 754 017d 08       		.byte	0x8
 755 017e 06       		.uleb128 0x6
 756 017f F9040000 		.4byte	.LASF33
 757 0183 07       		.byte	0x7
 758 0184 64       		.byte	0x64
 759 0185 1C030000 		.4byte	0x31c
 760 0189 0C       		.byte	0xc
 761 018a 06       		.uleb128 0x6
 762 018b 0A020000 		.4byte	.LASF34
 763 018f 07       		.byte	0x7
 764 0190 66       		.byte	0x66
 765 0191 6C020000 		.4byte	0x26c
 766 0195 10       		.byte	0x10
 767 0196 06       		.uleb128 0x6
 768 0197 86030000 		.4byte	.LASF35
 769 019b 07       		.byte	0x7
 770 019c 67       		.byte	0x67
 771 019d 6C020000 		.4byte	0x26c
 772 01a1 14       		.byte	0x14
 773 01a2 06       		.uleb128 0x6
 774 01a3 35030000 		.4byte	.LASF36
 775 01a7 07       		.byte	0x7
 776 01a8 6E       		.byte	0x6e
 777 01a9 35040000 		.4byte	0x435
 778 01ad 18       		.byte	0x18
 779 01ae 06       		.uleb128 0x6
 780 01af 8E030000 		.4byte	.LASF37
 781 01b3 07       		.byte	0x7
 782 01b4 79       		.byte	0x79
 783 01b5 EB000000 		.4byte	0xeb
 784 01b9 1C       		.byte	0x1c
 785 01ba 06       		.uleb128 0x6
 786 01bb FE030000 		.4byte	.LASF38
 787 01bf 07       		.byte	0x7
 788 01c0 7D       		.byte	0x7d
 789 01c1 E0000000 		.4byte	0xe0
 790 01c5 1D       		.byte	0x1d
 791 01c6 06       		.uleb128 0x6
ARM GAS  /tmp/cc08iglp.s 			page 15


 792 01c7 A4050000 		.4byte	.LASF39
 793 01cb 07       		.byte	0x7
 794 01cc 82       		.byte	0x82
 795 01cd F6000000 		.4byte	0xf6
 796 01d1 1E       		.byte	0x1e
 797 01d2 06       		.uleb128 0x6
 798 01d3 C2050000 		.4byte	.LASF40
 799 01d7 07       		.byte	0x7
 800 01d8 88       		.byte	0x88
 801 01d9 01010000 		.4byte	0x101
 802 01dd 1F       		.byte	0x1f
 803 01de 06       		.uleb128 0x6
 804 01df 2A000000 		.4byte	.LASF41
 805 01e3 07       		.byte	0x7
 806 01e4 8F       		.byte	0x8f
 807 01e5 47030000 		.4byte	0x347
 808 01e9 20       		.byte	0x20
 809 01ea 07       		.uleb128 0x7
 810 01eb 705F7500 		.ascii	"p_u\000"
 811 01ef 07       		.byte	0x7
 812 01f0 B4       		.byte	0xb4
 813 01f1 00040000 		.4byte	0x400
 814 01f5 24       		.byte	0x24
 815 01f6 06       		.uleb128 0x6
 816 01f7 0C000000 		.4byte	.LASF42
 817 01fb 07       		.byte	0x7
 818 01fc B9       		.byte	0xb9
 819 01fd 92020000 		.4byte	0x292
 820 0201 28       		.byte	0x28
 821 0202 06       		.uleb128 0x6
 822 0203 BC000000 		.4byte	.LASF43
 823 0207 07       		.byte	0x7
 824 0208 BF       		.byte	0xbf
 825 0209 72020000 		.4byte	0x272
 826 020d 2C       		.byte	0x2c
 827 020e 06       		.uleb128 0x6
 828 020f 35040000 		.4byte	.LASF44
 829 0213 07       		.byte	0x7
 830 0214 C3       		.byte	0xc3
 831 0215 17010000 		.4byte	0x117
 832 0219 34       		.byte	0x34
 833 021a 06       		.uleb128 0x6
 834 021b CE040000 		.4byte	.LASF45
 835 021f 07       		.byte	0x7
 836 0220 C9       		.byte	0xc9
 837 0221 22010000 		.4byte	0x122
 838 0225 38       		.byte	0x38
 839 0226 06       		.uleb128 0x6
 840 0227 B7030000 		.4byte	.LASF46
 841 022b 07       		.byte	0x7
 842 022c D0       		.byte	0xd0
 843 022d 47040000 		.4byte	0x447
 844 0231 3C       		.byte	0x3c
 845 0232 06       		.uleb128 0x6
 846 0233 87040000 		.4byte	.LASF47
 847 0237 07       		.byte	0x7
 848 0238 D4       		.byte	0xd4
ARM GAS  /tmp/cc08iglp.s 			page 16


 849 0239 0C010000 		.4byte	0x10c
 850 023d 40       		.byte	0x40
 851 023e 06       		.uleb128 0x6
 852 023f AF030000 		.4byte	.LASF48
 853 0243 07       		.byte	0x7
 854 0244 DA       		.byte	0xda
 855 0245 A8020000 		.4byte	0x2a8
 856 0249 44       		.byte	0x44
 857 024a 00       		.byte	0
 858 024b 08       		.uleb128 0x8
 859 024c 08       		.byte	0x8
 860 024d 06       		.byte	0x6
 861 024e 61       		.byte	0x61
 862 024f 6C020000 		.4byte	0x26c
 863 0253 06       		.uleb128 0x6
 864 0254 F2040000 		.4byte	.LASF30
 865 0258 06       		.byte	0x6
 866 0259 62       		.byte	0x62
 867 025a 6C020000 		.4byte	0x26c
 868 025e 00       		.byte	0
 869 025f 06       		.uleb128 0x6
 870 0260 42050000 		.4byte	.LASF31
 871 0264 06       		.byte	0x6
 872 0265 64       		.byte	0x64
 873 0266 6C020000 		.4byte	0x26c
 874 026a 04       		.byte	0x4
 875 026b 00       		.byte	0
 876 026c 09       		.uleb128 0x9
 877 026d 04       		.byte	0x4
 878 026e 43010000 		.4byte	0x143
 879 0272 03       		.uleb128 0x3
 880 0273 47030000 		.4byte	.LASF49
 881 0277 06       		.byte	0x6
 882 0278 66       		.byte	0x66
 883 0279 4B020000 		.4byte	0x24b
 884 027d 08       		.uleb128 0x8
 885 027e 04       		.byte	0x4
 886 027f 06       		.byte	0x6
 887 0280 6B       		.byte	0x6b
 888 0281 92020000 		.4byte	0x292
 889 0285 06       		.uleb128 0x6
 890 0286 F2040000 		.4byte	.LASF30
 891 028a 06       		.byte	0x6
 892 028b 6D       		.byte	0x6d
 893 028c 6C020000 		.4byte	0x26c
 894 0290 00       		.byte	0
 895 0291 00       		.byte	0
 896 0292 03       		.uleb128 0x3
 897 0293 00000000 		.4byte	.LASF50
 898 0297 06       		.byte	0x6
 899 0298 70       		.byte	0x70
 900 0299 7D020000 		.4byte	0x27d
 901 029d 03       		.uleb128 0x3
 902 029e 40000000 		.4byte	.LASF51
 903 02a2 08       		.byte	0x8
 904 02a3 A7       		.byte	0xa7
 905 02a4 A8020000 		.4byte	0x2a8
ARM GAS  /tmp/cc08iglp.s 			page 17


 906 02a8 0A       		.uleb128 0xa
 907 02a9 04       		.byte	0x4
 908 02aa 05       		.uleb128 0x5
 909 02ab 60040000 		.4byte	.LASF52
 910 02af 24       		.byte	0x24
 911 02b0 08       		.byte	0x8
 912 02b1 BA       		.byte	0xba
 913 02b2 1C030000 		.4byte	0x31c
 914 02b6 07       		.uleb128 0x7
 915 02b7 723800   		.ascii	"r8\000"
 916 02ba 08       		.byte	0x8
 917 02bb BB       		.byte	0xbb
 918 02bc 9D020000 		.4byte	0x29d
 919 02c0 00       		.byte	0
 920 02c1 07       		.uleb128 0x7
 921 02c2 723900   		.ascii	"r9\000"
 922 02c5 08       		.byte	0x8
 923 02c6 BC       		.byte	0xbc
 924 02c7 9D020000 		.4byte	0x29d
 925 02cb 04       		.byte	0x4
 926 02cc 07       		.uleb128 0x7
 927 02cd 72313000 		.ascii	"r10\000"
 928 02d1 08       		.byte	0x8
 929 02d2 BD       		.byte	0xbd
 930 02d3 9D020000 		.4byte	0x29d
 931 02d7 08       		.byte	0x8
 932 02d8 07       		.uleb128 0x7
 933 02d9 72313100 		.ascii	"r11\000"
 934 02dd 08       		.byte	0x8
 935 02de BE       		.byte	0xbe
 936 02df 9D020000 		.4byte	0x29d
 937 02e3 0C       		.byte	0xc
 938 02e4 07       		.uleb128 0x7
 939 02e5 723400   		.ascii	"r4\000"
 940 02e8 08       		.byte	0x8
 941 02e9 BF       		.byte	0xbf
 942 02ea 9D020000 		.4byte	0x29d
 943 02ee 10       		.byte	0x10
 944 02ef 07       		.uleb128 0x7
 945 02f0 723500   		.ascii	"r5\000"
 946 02f3 08       		.byte	0x8
 947 02f4 C0       		.byte	0xc0
 948 02f5 9D020000 		.4byte	0x29d
 949 02f9 14       		.byte	0x14
 950 02fa 07       		.uleb128 0x7
 951 02fb 723600   		.ascii	"r6\000"
 952 02fe 08       		.byte	0x8
 953 02ff C1       		.byte	0xc1
 954 0300 9D020000 		.4byte	0x29d
 955 0304 18       		.byte	0x18
 956 0305 07       		.uleb128 0x7
 957 0306 723700   		.ascii	"r7\000"
 958 0309 08       		.byte	0x8
 959 030a C2       		.byte	0xc2
 960 030b 9D020000 		.4byte	0x29d
 961 030f 1C       		.byte	0x1c
 962 0310 07       		.uleb128 0x7
ARM GAS  /tmp/cc08iglp.s 			page 18


 963 0311 6C7200   		.ascii	"lr\000"
 964 0314 08       		.byte	0x8
 965 0315 C3       		.byte	0xc3
 966 0316 9D020000 		.4byte	0x29d
 967 031a 20       		.byte	0x20
 968 031b 00       		.byte	0
 969 031c 05       		.uleb128 0x5
 970 031d F6030000 		.4byte	.LASF53
 971 0321 04       		.byte	0x4
 972 0322 08       		.byte	0x8
 973 0323 CD       		.byte	0xcd
 974 0324 35030000 		.4byte	0x335
 975 0328 07       		.uleb128 0x7
 976 0329 72313300 		.ascii	"r13\000"
 977 032d 08       		.byte	0x8
 978 032e CE       		.byte	0xce
 979 032f 35030000 		.4byte	0x335
 980 0333 00       		.byte	0
 981 0334 00       		.byte	0
 982 0335 09       		.uleb128 0x9
 983 0336 04       		.byte	0x4
 984 0337 AA020000 		.4byte	0x2aa
 985 033b 0B       		.uleb128 0xb
 986 033c C3000000 		.4byte	0xc3
 987 0340 04       		.uleb128 0x4
 988 0341 04       		.byte	0x4
 989 0342 07       		.byte	0x7
 990 0343 49050000 		.4byte	.LASF54
 991 0347 0B       		.uleb128 0xb
 992 0348 38010000 		.4byte	0x138
 993 034c 05       		.uleb128 0x5
 994 034d 14030000 		.4byte	.LASF55
 995 0351 10       		.byte	0x10
 996 0352 09       		.byte	0x9
 997 0353 2C       		.byte	0x2c
 998 0354 7D030000 		.4byte	0x37d
 999 0358 06       		.uleb128 0x6
 1000 0359 D9040000 		.4byte	.LASF56
 1001 035d 09       		.byte	0x9
 1002 035e 2D       		.byte	0x2d
 1003 035f 72020000 		.4byte	0x272
 1004 0363 00       		.byte	0
 1005 0364 06       		.uleb128 0x6
 1006 0365 B4000000 		.4byte	.LASF57
 1007 0369 09       		.byte	0x9
 1008 036a 2F       		.byte	0x2f
 1009 036b 6C020000 		.4byte	0x26c
 1010 036f 08       		.byte	0x8
 1011 0370 06       		.uleb128 0x6
 1012 0371 DA050000 		.4byte	.LASF58
 1013 0375 09       		.byte	0x9
 1014 0376 31       		.byte	0x31
 1015 0377 7D030000 		.4byte	0x37d
 1016 037b 0C       		.byte	0xc
 1017 037c 00       		.byte	0
 1018 037d 09       		.uleb128 0x9
 1019 037e 04       		.byte	0x4
ARM GAS  /tmp/cc08iglp.s 			page 19


 1020 037f 4C030000 		.4byte	0x34c
 1021 0383 03       		.uleb128 0x3
 1022 0384 14030000 		.4byte	.LASF55
 1023 0388 09       		.byte	0x9
 1024 0389 33       		.byte	0x33
 1025 038a 4C030000 		.4byte	0x34c
 1026 038e 03       		.uleb128 0x3
 1027 038f 5A050000 		.4byte	.LASF59
 1028 0393 0A       		.byte	0xa
 1029 0394 2C       		.byte	0x2c
 1030 0395 99030000 		.4byte	0x399
 1031 0399 05       		.uleb128 0x5
 1032 039a 5A050000 		.4byte	.LASF59
 1033 039e 10       		.byte	0x10
 1034 039f 0A       		.byte	0xa
 1035 03a0 31       		.byte	0x31
 1036 03a1 D6030000 		.4byte	0x3d6
 1037 03a5 06       		.uleb128 0x6
 1038 03a6 2D040000 		.4byte	.LASF60
 1039 03aa 0A       		.byte	0xa
 1040 03ab 32       		.byte	0x32
 1041 03ac D6030000 		.4byte	0x3d6
 1042 03b0 00       		.byte	0
 1043 03b1 06       		.uleb128 0x6
 1044 03b2 0E050000 		.4byte	.LASF61
 1045 03b6 0A       		.byte	0xa
 1046 03b7 35       		.byte	0x35
 1047 03b8 6C020000 		.4byte	0x26c
 1048 03bc 04       		.byte	0x4
 1049 03bd 06       		.uleb128 0x6
 1050 03be 09010000 		.4byte	.LASF62
 1051 03c2 0A       		.byte	0xa
 1052 03c3 37       		.byte	0x37
 1053 03c4 22010000 		.4byte	0x122
 1054 03c8 08       		.byte	0x8
 1055 03c9 06       		.uleb128 0x6
 1056 03ca 1D060000 		.4byte	.LASF63
 1057 03ce 0A       		.byte	0xa
 1058 03cf 3A       		.byte	0x3a
 1059 03d0 2D010000 		.4byte	0x12d
 1060 03d4 0C       		.byte	0xc
 1061 03d5 00       		.byte	0
 1062 03d6 09       		.uleb128 0x9
 1063 03d7 04       		.byte	0x4
 1064 03d8 8E030000 		.4byte	0x38e
 1065 03dc 05       		.uleb128 0x5
 1066 03dd BE020000 		.4byte	.LASF64
 1067 03e1 04       		.byte	0x4
 1068 03e2 0A       		.byte	0xa
 1069 03e3 41       		.byte	0x41
 1070 03e4 F5030000 		.4byte	0x3f5
 1071 03e8 06       		.uleb128 0x6
 1072 03e9 CC050000 		.4byte	.LASF65
 1073 03ed 0A       		.byte	0xa
 1074 03ee 42       		.byte	0x42
 1075 03ef D6030000 		.4byte	0x3d6
 1076 03f3 00       		.byte	0
ARM GAS  /tmp/cc08iglp.s 			page 20


 1077 03f4 00       		.byte	0
 1078 03f5 03       		.uleb128 0x3
 1079 03f6 BE020000 		.4byte	.LASF64
 1080 03fa 0A       		.byte	0xa
 1081 03fb 45       		.byte	0x45
 1082 03fc DC030000 		.4byte	0x3dc
 1083 0400 0C       		.uleb128 0xc
 1084 0401 04       		.byte	0x4
 1085 0402 07       		.byte	0x7
 1086 0403 96       		.byte	0x96
 1087 0404 35040000 		.4byte	0x435
 1088 0408 0D       		.uleb128 0xd
 1089 0409 D1020000 		.4byte	.LASF66
 1090 040d 07       		.byte	0x7
 1091 040e 9D       		.byte	0x9d
 1092 040f 17010000 		.4byte	0x117
 1093 0413 0D       		.uleb128 0xd
 1094 0414 26060000 		.4byte	.LASF67
 1095 0418 07       		.byte	0x7
 1096 0419 A4       		.byte	0xa4
 1097 041a 17010000 		.4byte	0x117
 1098 041e 0D       		.uleb128 0xd
 1099 041f 11010000 		.4byte	.LASF68
 1100 0423 07       		.byte	0x7
 1101 0424 AB       		.byte	0xab
 1102 0425 A8020000 		.4byte	0x2a8
 1103 0429 0D       		.uleb128 0xd
 1104 042a 2C010000 		.4byte	.LASF69
 1105 042e 07       		.byte	0x7
 1106 042f B2       		.byte	0xb2
 1107 0430 22010000 		.4byte	0x122
 1108 0434 00       		.byte	0
 1109 0435 09       		.uleb128 0x9
 1110 0436 04       		.byte	0x4
 1111 0437 3B040000 		.4byte	0x43b
 1112 043b 0E       		.uleb128 0xe
 1113 043c 40040000 		.4byte	0x440
 1114 0440 04       		.uleb128 0x4
 1115 0441 01       		.byte	0x1
 1116 0442 08       		.byte	0x8
 1117 0443 54030000 		.4byte	.LASF70
 1118 0447 09       		.uleb128 0x9
 1119 0448 04       		.byte	0x4
 1120 0449 83030000 		.4byte	0x383
 1121 044d 09       		.uleb128 0x9
 1122 044e 04       		.byte	0x4
 1123 044f 53040000 		.4byte	0x453
 1124 0453 0F       		.uleb128 0xf
 1125 0454 17010000 		.4byte	0x117
 1126 0458 62040000 		.4byte	0x462
 1127 045c 10       		.uleb128 0x10
 1128 045d A8020000 		.4byte	0x2a8
 1129 0461 00       		.byte	0
 1130 0462 03       		.uleb128 0x3
 1131 0463 43040000 		.4byte	.LASF71
 1132 0467 0B       		.byte	0xb
 1133 0468 37       		.byte	0x37
ARM GAS  /tmp/cc08iglp.s 			page 21


 1134 0469 6D040000 		.4byte	0x46d
 1135 046d 05       		.uleb128 0x5
 1136 046e 43040000 		.4byte	.LASF71
 1137 0472 24       		.byte	0x24
 1138 0473 0B       		.byte	0xb
 1139 0474 45       		.byte	0x45
 1140 0475 DA040000 		.4byte	0x4da
 1141 0479 06       		.uleb128 0x6
 1142 047a 12020000 		.4byte	.LASF72
 1143 047e 0B       		.byte	0xb
 1144 047f 46       		.byte	0x46
 1145 0480 72020000 		.4byte	0x272
 1146 0484 00       		.byte	0
 1147 0485 06       		.uleb128 0x6
 1148 0486 2D050000 		.4byte	.LASF73
 1149 048a 0B       		.byte	0xb
 1150 048b 47       		.byte	0x47
 1151 048c 2C000000 		.4byte	0x2c
 1152 0490 08       		.byte	0x8
 1153 0491 06       		.uleb128 0x6
 1154 0492 DB030000 		.4byte	.LASF74
 1155 0496 0B       		.byte	0xb
 1156 0497 48       		.byte	0x48
 1157 0498 FC040000 		.4byte	0x4fc
 1158 049c 0C       		.byte	0xc
 1159 049d 06       		.uleb128 0x6
 1160 049e 3C050000 		.4byte	.LASF75
 1161 04a2 0B       		.byte	0xb
 1162 04a3 49       		.byte	0x49
 1163 04a4 FC040000 		.4byte	0x4fc
 1164 04a8 10       		.byte	0x10
 1165 04a9 06       		.uleb128 0x6
 1166 04aa 59030000 		.4byte	.LASF76
 1167 04ae 0B       		.byte	0xb
 1168 04af 4B       		.byte	0x4b
 1169 04b0 FC040000 		.4byte	0x4fc
 1170 04b4 14       		.byte	0x14
 1171 04b5 06       		.uleb128 0x6
 1172 04b6 ED000000 		.4byte	.LASF77
 1173 04ba 0B       		.byte	0xb
 1174 04bb 4C       		.byte	0x4c
 1175 04bc FC040000 		.4byte	0x4fc
 1176 04c0 18       		.byte	0x18
 1177 04c1 06       		.uleb128 0x6
 1178 04c2 26030000 		.4byte	.LASF78
 1179 04c6 0B       		.byte	0xb
 1180 04c7 4D       		.byte	0x4d
 1181 04c8 DA040000 		.4byte	0x4da
 1182 04cc 1C       		.byte	0x1c
 1183 04cd 06       		.uleb128 0x6
 1184 04ce 18010000 		.4byte	.LASF79
 1185 04d2 0B       		.byte	0xb
 1186 04d3 4E       		.byte	0x4e
 1187 04d4 A8020000 		.4byte	0x2a8
 1188 04d8 20       		.byte	0x20
 1189 04d9 00       		.byte	0
 1190 04da 03       		.uleb128 0x3
ARM GAS  /tmp/cc08iglp.s 			page 22


 1191 04db FF000000 		.4byte	.LASF80
 1192 04df 0B       		.byte	0xb
 1193 04e0 3A       		.byte	0x3a
 1194 04e1 E5040000 		.4byte	0x4e5
 1195 04e5 09       		.uleb128 0x9
 1196 04e6 04       		.byte	0x4
 1197 04e7 EB040000 		.4byte	0x4eb
 1198 04eb 11       		.uleb128 0x11
 1199 04ec F6040000 		.4byte	0x4f6
 1200 04f0 10       		.uleb128 0x10
 1201 04f1 F6040000 		.4byte	0x4f6
 1202 04f5 00       		.byte	0
 1203 04f6 09       		.uleb128 0x9
 1204 04f7 04       		.byte	0x4
 1205 04f8 62040000 		.4byte	0x462
 1206 04fc 09       		.uleb128 0x9
 1207 04fd 04       		.byte	0x4
 1208 04fe A2000000 		.4byte	0xa2
 1209 0502 03       		.uleb128 0x3
 1210 0503 3C030000 		.4byte	.LASF81
 1211 0507 0B       		.byte	0xb
 1212 0508 82       		.byte	0x82
 1213 0509 62040000 		.4byte	0x462
 1214 050d 03       		.uleb128 0x3
 1215 050e 1A030000 		.4byte	.LASF82
 1216 0512 0B       		.byte	0xb
 1217 0513 F5       		.byte	0xf5
 1218 0514 62040000 		.4byte	0x462
 1219 0518 0F       		.uleb128 0xf
 1220 0519 2C000000 		.4byte	0x2c
 1221 051d 31050000 		.4byte	0x531
 1222 0521 10       		.uleb128 0x10
 1223 0522 A8020000 		.4byte	0x2a8
 1224 0526 10       		.uleb128 0x10
 1225 0527 31050000 		.4byte	0x531
 1226 052b 10       		.uleb128 0x10
 1227 052c 2C000000 		.4byte	0x2c
 1228 0530 00       		.byte	0
 1229 0531 09       		.uleb128 0x9
 1230 0532 04       		.byte	0x4
 1231 0533 37050000 		.4byte	0x537
 1232 0537 0E       		.uleb128 0xe
 1233 0538 A2000000 		.4byte	0xa2
 1234 053c 09       		.uleb128 0x9
 1235 053d 04       		.byte	0x4
 1236 053e 18050000 		.4byte	0x518
 1237 0542 0F       		.uleb128 0xf
 1238 0543 2C000000 		.4byte	0x2c
 1239 0547 5B050000 		.4byte	0x55b
 1240 054b 10       		.uleb128 0x10
 1241 054c A8020000 		.4byte	0x2a8
 1242 0550 10       		.uleb128 0x10
 1243 0551 FC040000 		.4byte	0x4fc
 1244 0555 10       		.uleb128 0x10
 1245 0556 2C000000 		.4byte	0x2c
 1246 055a 00       		.byte	0
 1247 055b 09       		.uleb128 0x9
ARM GAS  /tmp/cc08iglp.s 			page 23


 1248 055c 04       		.byte	0x4
 1249 055d 42050000 		.4byte	0x542
 1250 0561 0F       		.uleb128 0xf
 1251 0562 17010000 		.4byte	0x117
 1252 0566 75050000 		.4byte	0x575
 1253 056a 10       		.uleb128 0x10
 1254 056b A8020000 		.4byte	0x2a8
 1255 056f 10       		.uleb128 0x10
 1256 0570 A2000000 		.4byte	0xa2
 1257 0574 00       		.byte	0
 1258 0575 09       		.uleb128 0x9
 1259 0576 04       		.byte	0x4
 1260 0577 61050000 		.4byte	0x561
 1261 057b 0B       		.uleb128 0xb
 1262 057c AD000000 		.4byte	0xad
 1263 0580 12       		.uleb128 0x12
 1264 0581 2C       		.byte	0x2c
 1265 0582 0C       		.byte	0xc
 1266 0583 AA02     		.2byte	0x2aa
 1267 0585 5A060000 		.4byte	0x65a
 1268 0589 13       		.uleb128 0x13
 1269 058a 43523100 		.ascii	"CR1\000"
 1270 058e 0C       		.byte	0xc
 1271 058f AC02     		.2byte	0x2ac
 1272 0591 3B030000 		.4byte	0x33b
 1273 0595 00       		.byte	0
 1274 0596 13       		.uleb128 0x13
 1275 0597 43523200 		.ascii	"CR2\000"
 1276 059b 0C       		.byte	0xc
 1277 059c AD02     		.2byte	0x2ad
 1278 059e 3B030000 		.4byte	0x33b
 1279 05a2 04       		.byte	0x4
 1280 05a3 13       		.uleb128 0x13
 1281 05a4 43523300 		.ascii	"CR3\000"
 1282 05a8 0C       		.byte	0xc
 1283 05a9 AE02     		.2byte	0x2ae
 1284 05ab 3B030000 		.4byte	0x33b
 1285 05af 08       		.byte	0x8
 1286 05b0 13       		.uleb128 0x13
 1287 05b1 42525200 		.ascii	"BRR\000"
 1288 05b5 0C       		.byte	0xc
 1289 05b6 AF02     		.2byte	0x2af
 1290 05b8 7B050000 		.4byte	0x57b
 1291 05bc 0C       		.byte	0xc
 1292 05bd 14       		.uleb128 0x14
 1293 05be 92040000 		.4byte	.LASF83
 1294 05c2 0C       		.byte	0xc
 1295 05c3 B002     		.2byte	0x2b0
 1296 05c5 AD000000 		.4byte	0xad
 1297 05c9 0E       		.byte	0xe
 1298 05ca 14       		.uleb128 0x14
 1299 05cb 50010000 		.4byte	.LASF84
 1300 05cf 0C       		.byte	0xc
 1301 05d0 B102     		.2byte	0x2b1
 1302 05d2 7B050000 		.4byte	0x57b
 1303 05d6 10       		.byte	0x10
 1304 05d7 14       		.uleb128 0x14
ARM GAS  /tmp/cc08iglp.s 			page 24


 1305 05d8 9C040000 		.4byte	.LASF85
 1306 05dc 0C       		.byte	0xc
 1307 05dd B202     		.2byte	0x2b2
 1308 05df AD000000 		.4byte	0xad
 1309 05e3 12       		.byte	0x12
 1310 05e4 14       		.uleb128 0x14
 1311 05e5 AA030000 		.4byte	.LASF86
 1312 05e9 0C       		.byte	0xc
 1313 05ea B302     		.2byte	0x2b3
 1314 05ec 3B030000 		.4byte	0x33b
 1315 05f0 14       		.byte	0x14
 1316 05f1 13       		.uleb128 0x13
 1317 05f2 52515200 		.ascii	"RQR\000"
 1318 05f6 0C       		.byte	0xc
 1319 05f7 B402     		.2byte	0x2b4
 1320 05f9 7B050000 		.4byte	0x57b
 1321 05fd 18       		.byte	0x18
 1322 05fe 14       		.uleb128 0x14
 1323 05ff A6040000 		.4byte	.LASF87
 1324 0603 0C       		.byte	0xc
 1325 0604 B502     		.2byte	0x2b5
 1326 0606 AD000000 		.4byte	0xad
 1327 060a 1A       		.byte	0x1a
 1328 060b 13       		.uleb128 0x13
 1329 060c 49535200 		.ascii	"ISR\000"
 1330 0610 0C       		.byte	0xc
 1331 0611 B602     		.2byte	0x2b6
 1332 0613 3B030000 		.4byte	0x33b
 1333 0617 1C       		.byte	0x1c
 1334 0618 13       		.uleb128 0x13
 1335 0619 49435200 		.ascii	"ICR\000"
 1336 061d 0C       		.byte	0xc
 1337 061e B702     		.2byte	0x2b7
 1338 0620 3B030000 		.4byte	0x33b
 1339 0624 20       		.byte	0x20
 1340 0625 13       		.uleb128 0x13
 1341 0626 52445200 		.ascii	"RDR\000"
 1342 062a 0C       		.byte	0xc
 1343 062b B802     		.2byte	0x2b8
 1344 062d 7B050000 		.4byte	0x57b
 1345 0631 24       		.byte	0x24
 1346 0632 14       		.uleb128 0x14
 1347 0633 B0040000 		.4byte	.LASF88
 1348 0637 0C       		.byte	0xc
 1349 0638 B902     		.2byte	0x2b9
 1350 063a AD000000 		.4byte	0xad
 1351 063e 26       		.byte	0x26
 1352 063f 13       		.uleb128 0x13
 1353 0640 54445200 		.ascii	"TDR\000"
 1354 0644 0C       		.byte	0xc
 1355 0645 BA02     		.2byte	0x2ba
 1356 0647 7B050000 		.4byte	0x57b
 1357 064b 28       		.byte	0x28
 1358 064c 14       		.uleb128 0x14
 1359 064d BA040000 		.4byte	.LASF89
 1360 0651 0C       		.byte	0xc
 1361 0652 BB02     		.2byte	0x2bb
ARM GAS  /tmp/cc08iglp.s 			page 25


 1362 0654 AD000000 		.4byte	0xad
 1363 0658 2A       		.byte	0x2a
 1364 0659 00       		.byte	0
 1365 065a 15       		.uleb128 0x15
 1366 065b F5020000 		.4byte	.LASF90
 1367 065f 0C       		.byte	0xc
 1368 0660 BC02     		.2byte	0x2bc
 1369 0662 80050000 		.4byte	0x580
 1370 0666 0F       		.uleb128 0xf
 1371 0667 17010000 		.4byte	0x117
 1372 066b 7F060000 		.4byte	0x67f
 1373 066f 10       		.uleb128 0x10
 1374 0670 A8020000 		.4byte	0x2a8
 1375 0674 10       		.uleb128 0x10
 1376 0675 A2000000 		.4byte	0xa2
 1377 0679 10       		.uleb128 0x10
 1378 067a 38010000 		.4byte	0x138
 1379 067e 00       		.byte	0
 1380 067f 09       		.uleb128 0x9
 1381 0680 04       		.byte	0x4
 1382 0681 66060000 		.4byte	0x666
 1383 0685 0F       		.uleb128 0xf
 1384 0686 17010000 		.4byte	0x117
 1385 068a 99060000 		.4byte	0x699
 1386 068e 10       		.uleb128 0x10
 1387 068f A8020000 		.4byte	0x2a8
 1388 0693 10       		.uleb128 0x10
 1389 0694 38010000 		.4byte	0x138
 1390 0698 00       		.byte	0
 1391 0699 09       		.uleb128 0x9
 1392 069a 04       		.byte	0x4
 1393 069b 85060000 		.4byte	0x685
 1394 069f 0F       		.uleb128 0xf
 1395 06a0 2C000000 		.4byte	0x2c
 1396 06a4 BD060000 		.4byte	0x6bd
 1397 06a8 10       		.uleb128 0x10
 1398 06a9 A8020000 		.4byte	0x2a8
 1399 06ad 10       		.uleb128 0x10
 1400 06ae 31050000 		.4byte	0x531
 1401 06b2 10       		.uleb128 0x10
 1402 06b3 2C000000 		.4byte	0x2c
 1403 06b7 10       		.uleb128 0x10
 1404 06b8 38010000 		.4byte	0x138
 1405 06bc 00       		.byte	0
 1406 06bd 09       		.uleb128 0x9
 1407 06be 04       		.byte	0x4
 1408 06bf 9F060000 		.4byte	0x69f
 1409 06c3 0F       		.uleb128 0xf
 1410 06c4 2C000000 		.4byte	0x2c
 1411 06c8 E1060000 		.4byte	0x6e1
 1412 06cc 10       		.uleb128 0x10
 1413 06cd A8020000 		.4byte	0x2a8
 1414 06d1 10       		.uleb128 0x10
 1415 06d2 FC040000 		.4byte	0x4fc
 1416 06d6 10       		.uleb128 0x10
 1417 06d7 2C000000 		.4byte	0x2c
 1418 06db 10       		.uleb128 0x10
ARM GAS  /tmp/cc08iglp.s 			page 26


 1419 06dc 38010000 		.4byte	0x138
 1420 06e0 00       		.byte	0
 1421 06e1 09       		.uleb128 0x9
 1422 06e2 04       		.byte	0x4
 1423 06e3 C3060000 		.4byte	0x6c3
 1424 06e7 16       		.uleb128 0x16
 1425 06e8 01       		.byte	0x1
 1426 06e9 0D       		.byte	0xd
 1427 06ea 64       		.byte	0x64
 1428 06eb 02070000 		.4byte	0x702
 1429 06ef 17       		.uleb128 0x17
 1430 06f0 1A050000 		.4byte	.LASF91
 1431 06f4 00       		.sleb128 0
 1432 06f5 17       		.uleb128 0x17
 1433 06f6 ED020000 		.4byte	.LASF92
 1434 06fa 01       		.sleb128 1
 1435 06fb 17       		.uleb128 0x17
 1436 06fc 67040000 		.4byte	.LASF93
 1437 0700 02       		.sleb128 2
 1438 0701 00       		.byte	0
 1439 0702 03       		.uleb128 0x3
 1440 0703 98010000 		.4byte	.LASF94
 1441 0707 0D       		.byte	0xd
 1442 0708 68       		.byte	0x68
 1443 0709 E7060000 		.4byte	0x6e7
 1444 070d 03       		.uleb128 0x3
 1445 070e 16000000 		.4byte	.LASF95
 1446 0712 0D       		.byte	0xd
 1447 0713 6D       		.byte	0x6d
 1448 0714 18070000 		.4byte	0x718
 1449 0718 05       		.uleb128 0x5
 1450 0719 16000000 		.4byte	.LASF95
 1451 071d 7C       		.byte	0x7c
 1452 071e 0D       		.byte	0xd
 1453 071f 87       		.byte	0x87
 1454 0720 8F070000 		.4byte	0x78f
 1455 0724 07       		.uleb128 0x7
 1456 0725 766D7400 		.ascii	"vmt\000"
 1457 0729 0D       		.byte	0xd
 1458 072a 89       		.byte	0x89
 1459 072b 40080000 		.4byte	0x840
 1460 072f 00       		.byte	0
 1461 0730 06       		.uleb128 0x6
 1462 0731 A2010000 		.4byte	.LASF96
 1463 0735 0D       		.byte	0xd
 1464 0736 8A       		.byte	0x8a
 1465 0737 F5030000 		.4byte	0x3f5
 1466 073b 04       		.byte	0x4
 1467 073c 06       		.uleb128 0x6
 1468 073d D4050000 		.4byte	.LASF97
 1469 0741 0D       		.byte	0xd
 1470 0742 8A       		.byte	0x8a
 1471 0743 02070000 		.4byte	0x702
 1472 0747 08       		.byte	0x8
 1473 0748 06       		.uleb128 0x6
 1474 0749 55010000 		.4byte	.LASF98
 1475 074d 0D       		.byte	0xd
ARM GAS  /tmp/cc08iglp.s 			page 27


 1476 074e 8A       		.byte	0x8a
 1477 074f 02050000 		.4byte	0x502
 1478 0753 0C       		.byte	0xc
 1479 0754 06       		.uleb128 0x6
 1480 0755 50040000 		.4byte	.LASF99
 1481 0759 0D       		.byte	0xd
 1482 075a 8A       		.byte	0x8a
 1483 075b 0D050000 		.4byte	0x50d
 1484 075f 30       		.byte	0x30
 1485 0760 07       		.uleb128 0x7
 1486 0761 696200   		.ascii	"ib\000"
 1487 0764 0D       		.byte	0xd
 1488 0765 8A       		.byte	0x8a
 1489 0766 4B080000 		.4byte	0x84b
 1490 076a 54       		.byte	0x54
 1491 076b 07       		.uleb128 0x7
 1492 076c 6F6200   		.ascii	"ob\000"
 1493 076f 0D       		.byte	0xd
 1494 0770 8A       		.byte	0x8a
 1495 0771 4B080000 		.4byte	0x84b
 1496 0775 64       		.byte	0x64
 1497 0776 06       		.uleb128 0x6
 1498 0777 C1030000 		.4byte	.LASF100
 1499 077b 0D       		.byte	0xd
 1500 077c 8A       		.byte	0x8a
 1501 077d 5B080000 		.4byte	0x85b
 1502 0781 74       		.byte	0x74
 1503 0782 06       		.uleb128 0x6
 1504 0783 2F030000 		.4byte	.LASF101
 1505 0787 0D       		.byte	0xd
 1506 0788 8A       		.byte	0x8a
 1507 0789 C3000000 		.4byte	0xc3
 1508 078d 78       		.byte	0x78
 1509 078e 00       		.byte	0
 1510 078f 08       		.uleb128 0x8
 1511 0790 10       		.byte	0x10
 1512 0791 0E       		.byte	0xe
 1513 0792 D7       		.byte	0xd7
 1514 0793 C8070000 		.4byte	0x7c8
 1515 0797 06       		.uleb128 0x6
 1516 0798 43010000 		.4byte	.LASF102
 1517 079c 0E       		.byte	0xe
 1518 079d DB       		.byte	0xdb
 1519 079e C3000000 		.4byte	0xc3
 1520 07a2 00       		.byte	0
 1521 07a3 07       		.uleb128 0x7
 1522 07a4 63723100 		.ascii	"cr1\000"
 1523 07a8 0E       		.byte	0xe
 1524 07a9 E0       		.byte	0xe0
 1525 07aa C3000000 		.4byte	0xc3
 1526 07ae 04       		.byte	0x4
 1527 07af 07       		.uleb128 0x7
 1528 07b0 63723200 		.ascii	"cr2\000"
 1529 07b4 0E       		.byte	0xe
 1530 07b5 E4       		.byte	0xe4
 1531 07b6 C3000000 		.4byte	0xc3
 1532 07ba 08       		.byte	0x8
ARM GAS  /tmp/cc08iglp.s 			page 28


 1533 07bb 07       		.uleb128 0x7
 1534 07bc 63723300 		.ascii	"cr3\000"
 1535 07c0 0E       		.byte	0xe
 1536 07c1 E8       		.byte	0xe8
 1537 07c2 C3000000 		.4byte	0xc3
 1538 07c6 0C       		.byte	0xc
 1539 07c7 00       		.byte	0
 1540 07c8 03       		.uleb128 0x3
 1541 07c9 8B010000 		.4byte	.LASF103
 1542 07cd 0E       		.byte	0xe
 1543 07ce E9       		.byte	0xe9
 1544 07cf 8F070000 		.4byte	0x78f
 1545 07d3 05       		.uleb128 0x5
 1546 07d4 70040000 		.4byte	.LASF104
 1547 07d8 20       		.byte	0x20
 1548 07d9 0D       		.byte	0xd
 1549 07da 7C       		.byte	0x7c
 1550 07db 40080000 		.4byte	0x840
 1551 07df 06       		.uleb128 0x6
 1552 07e0 D5030000 		.4byte	.LASF105
 1553 07e4 0D       		.byte	0xd
 1554 07e5 7D       		.byte	0x7d
 1555 07e6 3C050000 		.4byte	0x53c
 1556 07ea 00       		.byte	0
 1557 07eb 06       		.uleb128 0x6
 1558 07ec 09050000 		.4byte	.LASF106
 1559 07f0 0D       		.byte	0xd
 1560 07f1 7D       		.byte	0x7d
 1561 07f2 5B050000 		.4byte	0x55b
 1562 07f6 04       		.byte	0x4
 1563 07f7 07       		.uleb128 0x7
 1564 07f8 70757400 		.ascii	"put\000"
 1565 07fc 0D       		.byte	0xd
 1566 07fd 7D       		.byte	0x7d
 1567 07fe 75050000 		.4byte	0x575
 1568 0802 08       		.byte	0x8
 1569 0803 07       		.uleb128 0x7
 1570 0804 67657400 		.ascii	"get\000"
 1571 0808 0D       		.byte	0xd
 1572 0809 7D       		.byte	0x7d
 1573 080a 4D040000 		.4byte	0x44d
 1574 080e 0C       		.byte	0xc
 1575 080f 06       		.uleb128 0x6
 1576 0810 B9020000 		.4byte	.LASF107
 1577 0814 0D       		.byte	0xd
 1578 0815 7D       		.byte	0x7d
 1579 0816 7F060000 		.4byte	0x67f
 1580 081a 10       		.byte	0x10
 1581 081b 06       		.uleb128 0x6
 1582 081c 37050000 		.4byte	.LASF108
 1583 0820 0D       		.byte	0xd
 1584 0821 7D       		.byte	0x7d
 1585 0822 99060000 		.4byte	0x699
 1586 0826 14       		.byte	0x14
 1587 0827 06       		.uleb128 0x6
 1588 0828 49010000 		.4byte	.LASF109
 1589 082c 0D       		.byte	0xd
ARM GAS  /tmp/cc08iglp.s 			page 29


 1590 082d 7D       		.byte	0x7d
 1591 082e BD060000 		.4byte	0x6bd
 1592 0832 18       		.byte	0x18
 1593 0833 06       		.uleb128 0x6
 1594 0834 ED050000 		.4byte	.LASF110
 1595 0838 0D       		.byte	0xd
 1596 0839 7D       		.byte	0x7d
 1597 083a E1060000 		.4byte	0x6e1
 1598 083e 1C       		.byte	0x1c
 1599 083f 00       		.byte	0
 1600 0840 09       		.uleb128 0x9
 1601 0841 04       		.byte	0x4
 1602 0842 46080000 		.4byte	0x846
 1603 0846 0E       		.uleb128 0xe
 1604 0847 D3070000 		.4byte	0x7d3
 1605 084b 18       		.uleb128 0x18
 1606 084c A2000000 		.4byte	0xa2
 1607 0850 5B080000 		.4byte	0x85b
 1608 0854 19       		.uleb128 0x19
 1609 0855 40030000 		.4byte	0x340
 1610 0859 0F       		.byte	0xf
 1611 085a 00       		.byte	0
 1612 085b 09       		.uleb128 0x9
 1613 085c 04       		.byte	0x4
 1614 085d 5A060000 		.4byte	0x65a
 1615 0861 1A       		.uleb128 0x1a
 1616 0862 ED050000 		.4byte	.LASF110
 1617 0866 01       		.byte	0x1
 1618 0867 63       		.byte	0x63
 1619 0868 2C000000 		.4byte	0x2c
 1620 086c 00000000 		.4byte	.LFB47
 1621 0870 0A000000 		.4byte	.LFE47-.LFB47
 1622 0874 01       		.uleb128 0x1
 1623 0875 9C       		.byte	0x9c
 1624 0876 DB080000 		.4byte	0x8db
 1625 087a 1B       		.uleb128 0x1b
 1626 087b 697000   		.ascii	"ip\000"
 1627 087e 01       		.byte	0x1
 1628 087f 63       		.byte	0x63
 1629 0880 A8020000 		.4byte	0x2a8
 1630 0884 00000000 		.4byte	.LLST0
 1631 0888 1B       		.uleb128 0x1b
 1632 0889 627000   		.ascii	"bp\000"
 1633 088c 01       		.byte	0x1
 1634 088d 63       		.byte	0x63
 1635 088e FC040000 		.4byte	0x4fc
 1636 0892 2E000000 		.4byte	.LLST1
 1637 0896 1B       		.uleb128 0x1b
 1638 0897 6E00     		.ascii	"n\000"
 1639 0899 01       		.byte	0x1
 1640 089a 63       		.byte	0x63
 1641 089b 2C000000 		.4byte	0x2c
 1642 089f 4F000000 		.4byte	.LLST2
 1643 08a3 1C       		.uleb128 0x1c
 1644 08a4 05020000 		.4byte	.LASF111
 1645 08a8 01       		.byte	0x1
 1646 08a9 63       		.byte	0x63
ARM GAS  /tmp/cc08iglp.s 			page 30


 1647 08aa 38010000 		.4byte	0x138
 1648 08ae 70000000 		.4byte	.LLST3
 1649 08b2 1D       		.uleb128 0x1d
 1650 08b3 08000000 		.4byte	.LVL2
 1651 08b7 EB0D0000 		.4byte	0xdeb
 1652 08bb 1E       		.uleb128 0x1e
 1653 08bc 01       		.uleb128 0x1
 1654 08bd 53       		.byte	0x53
 1655 08be 03       		.uleb128 0x3
 1656 08bf F3       		.byte	0xf3
 1657 08c0 01       		.uleb128 0x1
 1658 08c1 53       		.byte	0x53
 1659 08c2 1E       		.uleb128 0x1e
 1660 08c3 01       		.uleb128 0x1
 1661 08c4 52       		.byte	0x52
 1662 08c5 03       		.uleb128 0x3
 1663 08c6 F3       		.byte	0xf3
 1664 08c7 01       		.uleb128 0x1
 1665 08c8 52       		.byte	0x52
 1666 08c9 1E       		.uleb128 0x1e
 1667 08ca 01       		.uleb128 0x1
 1668 08cb 51       		.byte	0x51
 1669 08cc 03       		.uleb128 0x3
 1670 08cd F3       		.byte	0xf3
 1671 08ce 01       		.uleb128 0x1
 1672 08cf 51       		.byte	0x51
 1673 08d0 1E       		.uleb128 0x1e
 1674 08d1 01       		.uleb128 0x1
 1675 08d2 50       		.byte	0x50
 1676 08d3 05       		.uleb128 0x5
 1677 08d4 F3       		.byte	0xf3
 1678 08d5 01       		.uleb128 0x1
 1679 08d6 50       		.byte	0x50
 1680 08d7 23       		.byte	0x23
 1681 08d8 0C       		.uleb128 0xc
 1682 08d9 00       		.byte	0
 1683 08da 00       		.byte	0
 1684 08db 1A       		.uleb128 0x1a
 1685 08dc 09050000 		.4byte	.LASF106
 1686 08e0 01       		.byte	0x1
 1687 08e1 44       		.byte	0x44
 1688 08e2 2C000000 		.4byte	0x2c
 1689 08e6 00000000 		.4byte	.LFB41
 1690 08ea 0E000000 		.4byte	.LFE41-.LFB41
 1691 08ee 01       		.uleb128 0x1
 1692 08ef 9C       		.byte	0x9c
 1693 08f0 45090000 		.4byte	0x945
 1694 08f4 1B       		.uleb128 0x1b
 1695 08f5 697000   		.ascii	"ip\000"
 1696 08f8 01       		.byte	0x1
 1697 08f9 44       		.byte	0x44
 1698 08fa A8020000 		.4byte	0x2a8
 1699 08fe 91000000 		.4byte	.LLST4
 1700 0902 1B       		.uleb128 0x1b
 1701 0903 627000   		.ascii	"bp\000"
 1702 0906 01       		.byte	0x1
 1703 0907 44       		.byte	0x44
ARM GAS  /tmp/cc08iglp.s 			page 31


 1704 0908 FC040000 		.4byte	0x4fc
 1705 090c BF000000 		.4byte	.LLST5
 1706 0910 1B       		.uleb128 0x1b
 1707 0911 6E00     		.ascii	"n\000"
 1708 0913 01       		.byte	0x1
 1709 0914 44       		.byte	0x44
 1710 0915 2C000000 		.4byte	0x2c
 1711 0919 E0000000 		.4byte	.LLST6
 1712 091d 1D       		.uleb128 0x1d
 1713 091e 0C000000 		.4byte	.LVL5
 1714 0922 EB0D0000 		.4byte	0xdeb
 1715 0926 1E       		.uleb128 0x1e
 1716 0927 01       		.uleb128 0x1
 1717 0928 53       		.byte	0x53
 1718 0929 02       		.uleb128 0x2
 1719 092a 09       		.byte	0x9
 1720 092b FF       		.byte	0xff
 1721 092c 1E       		.uleb128 0x1e
 1722 092d 01       		.uleb128 0x1
 1723 092e 52       		.byte	0x52
 1724 092f 03       		.uleb128 0x3
 1725 0930 F3       		.byte	0xf3
 1726 0931 01       		.uleb128 0x1
 1727 0932 52       		.byte	0x52
 1728 0933 1E       		.uleb128 0x1e
 1729 0934 01       		.uleb128 0x1
 1730 0935 51       		.byte	0x51
 1731 0936 03       		.uleb128 0x3
 1732 0937 F3       		.byte	0xf3
 1733 0938 01       		.uleb128 0x1
 1734 0939 51       		.byte	0x51
 1735 093a 1E       		.uleb128 0x1e
 1736 093b 01       		.uleb128 0x1
 1737 093c 50       		.byte	0x50
 1738 093d 05       		.uleb128 0x5
 1739 093e F3       		.byte	0xf3
 1740 093f 01       		.uleb128 0x1
 1741 0940 50       		.byte	0x50
 1742 0941 23       		.byte	0x23
 1743 0942 0C       		.uleb128 0xc
 1744 0943 00       		.byte	0
 1745 0944 00       		.byte	0
 1746 0945 1A       		.uleb128 0x1a
 1747 0946 49010000 		.4byte	.LASF109
 1748 094a 01       		.byte	0x1
 1749 094b 5E       		.byte	0x5e
 1750 094c 2C000000 		.4byte	0x2c
 1751 0950 00000000 		.4byte	.LFB46
 1752 0954 0A000000 		.4byte	.LFE46-.LFB46
 1753 0958 01       		.uleb128 0x1
 1754 0959 9C       		.byte	0x9c
 1755 095a BF090000 		.4byte	0x9bf
 1756 095e 1B       		.uleb128 0x1b
 1757 095f 697000   		.ascii	"ip\000"
 1758 0962 01       		.byte	0x1
 1759 0963 5E       		.byte	0x5e
 1760 0964 A8020000 		.4byte	0x2a8
ARM GAS  /tmp/cc08iglp.s 			page 32


 1761 0968 01010000 		.4byte	.LLST7
 1762 096c 1B       		.uleb128 0x1b
 1763 096d 627000   		.ascii	"bp\000"
 1764 0970 01       		.byte	0x1
 1765 0971 5E       		.byte	0x5e
 1766 0972 31050000 		.4byte	0x531
 1767 0976 2F010000 		.4byte	.LLST8
 1768 097a 1B       		.uleb128 0x1b
 1769 097b 6E00     		.ascii	"n\000"
 1770 097d 01       		.byte	0x1
 1771 097e 5E       		.byte	0x5e
 1772 097f 2C000000 		.4byte	0x2c
 1773 0983 50010000 		.4byte	.LLST9
 1774 0987 1C       		.uleb128 0x1c
 1775 0988 05020000 		.4byte	.LASF111
 1776 098c 01       		.byte	0x1
 1777 098d 5E       		.byte	0x5e
 1778 098e 38010000 		.4byte	0x138
 1779 0992 71010000 		.4byte	.LLST10
 1780 0996 1D       		.uleb128 0x1d
 1781 0997 08000000 		.4byte	.LVL8
 1782 099b 160E0000 		.4byte	0xe16
 1783 099f 1E       		.uleb128 0x1e
 1784 09a0 01       		.uleb128 0x1
 1785 09a1 53       		.byte	0x53
 1786 09a2 03       		.uleb128 0x3
 1787 09a3 F3       		.byte	0xf3
 1788 09a4 01       		.uleb128 0x1
 1789 09a5 53       		.byte	0x53
 1790 09a6 1E       		.uleb128 0x1e
 1791 09a7 01       		.uleb128 0x1
 1792 09a8 52       		.byte	0x52
 1793 09a9 03       		.uleb128 0x3
 1794 09aa F3       		.byte	0xf3
 1795 09ab 01       		.uleb128 0x1
 1796 09ac 52       		.byte	0x52
 1797 09ad 1E       		.uleb128 0x1e
 1798 09ae 01       		.uleb128 0x1
 1799 09af 51       		.byte	0x51
 1800 09b0 03       		.uleb128 0x3
 1801 09b1 F3       		.byte	0xf3
 1802 09b2 01       		.uleb128 0x1
 1803 09b3 51       		.byte	0x51
 1804 09b4 1E       		.uleb128 0x1e
 1805 09b5 01       		.uleb128 0x1
 1806 09b6 50       		.byte	0x50
 1807 09b7 05       		.uleb128 0x5
 1808 09b8 F3       		.byte	0xf3
 1809 09b9 01       		.uleb128 0x1
 1810 09ba 50       		.byte	0x50
 1811 09bb 23       		.byte	0x23
 1812 09bc 30       		.uleb128 0x30
 1813 09bd 00       		.byte	0
 1814 09be 00       		.byte	0
 1815 09bf 1A       		.uleb128 0x1a
 1816 09c0 D5030000 		.4byte	.LASF105
 1817 09c4 01       		.byte	0x1
ARM GAS  /tmp/cc08iglp.s 			page 33


 1818 09c5 3E       		.byte	0x3e
 1819 09c6 2C000000 		.4byte	0x2c
 1820 09ca 00000000 		.4byte	.LFB40
 1821 09ce 0E000000 		.4byte	.LFE40-.LFB40
 1822 09d2 01       		.uleb128 0x1
 1823 09d3 9C       		.byte	0x9c
 1824 09d4 290A0000 		.4byte	0xa29
 1825 09d8 1B       		.uleb128 0x1b
 1826 09d9 697000   		.ascii	"ip\000"
 1827 09dc 01       		.byte	0x1
 1828 09dd 3E       		.byte	0x3e
 1829 09de A8020000 		.4byte	0x2a8
 1830 09e2 92010000 		.4byte	.LLST11
 1831 09e6 1B       		.uleb128 0x1b
 1832 09e7 627000   		.ascii	"bp\000"
 1833 09ea 01       		.byte	0x1
 1834 09eb 3E       		.byte	0x3e
 1835 09ec 31050000 		.4byte	0x531
 1836 09f0 C0010000 		.4byte	.LLST12
 1837 09f4 1B       		.uleb128 0x1b
 1838 09f5 6E00     		.ascii	"n\000"
 1839 09f7 01       		.byte	0x1
 1840 09f8 3E       		.byte	0x3e
 1841 09f9 2C000000 		.4byte	0x2c
 1842 09fd E1010000 		.4byte	.LLST13
 1843 0a01 1D       		.uleb128 0x1d
 1844 0a02 0C000000 		.4byte	.LVL11
 1845 0a06 160E0000 		.4byte	0xe16
 1846 0a0a 1E       		.uleb128 0x1e
 1847 0a0b 01       		.uleb128 0x1
 1848 0a0c 53       		.byte	0x53
 1849 0a0d 02       		.uleb128 0x2
 1850 0a0e 09       		.byte	0x9
 1851 0a0f FF       		.byte	0xff
 1852 0a10 1E       		.uleb128 0x1e
 1853 0a11 01       		.uleb128 0x1
 1854 0a12 52       		.byte	0x52
 1855 0a13 03       		.uleb128 0x3
 1856 0a14 F3       		.byte	0xf3
 1857 0a15 01       		.uleb128 0x1
 1858 0a16 52       		.byte	0x52
 1859 0a17 1E       		.uleb128 0x1e
 1860 0a18 01       		.uleb128 0x1
 1861 0a19 51       		.byte	0x51
 1862 0a1a 03       		.uleb128 0x3
 1863 0a1b F3       		.byte	0xf3
 1864 0a1c 01       		.uleb128 0x1
 1865 0a1d 51       		.byte	0x51
 1866 0a1e 1E       		.uleb128 0x1e
 1867 0a1f 01       		.uleb128 0x1
 1868 0a20 50       		.byte	0x50
 1869 0a21 05       		.uleb128 0x5
 1870 0a22 F3       		.byte	0xf3
 1871 0a23 01       		.uleb128 0x1
 1872 0a24 50       		.byte	0x50
 1873 0a25 23       		.byte	0x23
 1874 0a26 30       		.uleb128 0x30
ARM GAS  /tmp/cc08iglp.s 			page 34


 1875 0a27 00       		.byte	0
 1876 0a28 00       		.byte	0
 1877 0a29 1A       		.uleb128 0x1a
 1878 0a2a 37050000 		.4byte	.LASF108
 1879 0a2e 01       		.byte	0x1
 1880 0a2f 59       		.byte	0x59
 1881 0a30 17010000 		.4byte	0x117
 1882 0a34 00000000 		.4byte	.LFB45
 1883 0a38 0A000000 		.4byte	.LFE45-.LFB45
 1884 0a3c 01       		.uleb128 0x1
 1885 0a3d 9C       		.byte	0x9c
 1886 0a3e 7A0A0000 		.4byte	0xa7a
 1887 0a42 1B       		.uleb128 0x1b
 1888 0a43 697000   		.ascii	"ip\000"
 1889 0a46 01       		.byte	0x1
 1890 0a47 59       		.byte	0x59
 1891 0a48 A8020000 		.4byte	0x2a8
 1892 0a4c 02020000 		.4byte	.LLST14
 1893 0a50 1C       		.uleb128 0x1c
 1894 0a51 AB050000 		.4byte	.LASF112
 1895 0a55 01       		.byte	0x1
 1896 0a56 59       		.byte	0x59
 1897 0a57 38010000 		.4byte	0x138
 1898 0a5b 30020000 		.4byte	.LLST15
 1899 0a5f 1D       		.uleb128 0x1d
 1900 0a60 08000000 		.4byte	.LVL14
 1901 0a64 410E0000 		.4byte	0xe41
 1902 0a68 1E       		.uleb128 0x1e
 1903 0a69 01       		.uleb128 0x1
 1904 0a6a 51       		.byte	0x51
 1905 0a6b 03       		.uleb128 0x3
 1906 0a6c F3       		.byte	0xf3
 1907 0a6d 01       		.uleb128 0x1
 1908 0a6e 51       		.byte	0x51
 1909 0a6f 1E       		.uleb128 0x1e
 1910 0a70 01       		.uleb128 0x1
 1911 0a71 50       		.byte	0x50
 1912 0a72 05       		.uleb128 0x5
 1913 0a73 F3       		.byte	0xf3
 1914 0a74 01       		.uleb128 0x1
 1915 0a75 50       		.byte	0x50
 1916 0a76 23       		.byte	0x23
 1917 0a77 0C       		.uleb128 0xc
 1918 0a78 00       		.byte	0
 1919 0a79 00       		.byte	0
 1920 0a7a 1F       		.uleb128 0x1f
 1921 0a7b 67657400 		.ascii	"get\000"
 1922 0a7f 01       		.byte	0x1
 1923 0a80 4F       		.byte	0x4f
 1924 0a81 17010000 		.4byte	0x117
 1925 0a85 00000000 		.4byte	.LFB43
 1926 0a89 0E000000 		.4byte	.LFE43-.LFB43
 1927 0a8d 01       		.uleb128 0x1
 1928 0a8e 9C       		.byte	0x9c
 1929 0a8f BB0A0000 		.4byte	0xabb
 1930 0a93 1B       		.uleb128 0x1b
 1931 0a94 697000   		.ascii	"ip\000"
ARM GAS  /tmp/cc08iglp.s 			page 35


 1932 0a97 01       		.byte	0x1
 1933 0a98 4F       		.byte	0x4f
 1934 0a99 A8020000 		.4byte	0x2a8
 1935 0a9d 51020000 		.4byte	.LLST16
 1936 0aa1 1D       		.uleb128 0x1d
 1937 0aa2 0C000000 		.4byte	.LVL17
 1938 0aa6 410E0000 		.4byte	0xe41
 1939 0aaa 1E       		.uleb128 0x1e
 1940 0aab 01       		.uleb128 0x1
 1941 0aac 51       		.byte	0x51
 1942 0aad 02       		.uleb128 0x2
 1943 0aae 09       		.byte	0x9
 1944 0aaf FF       		.byte	0xff
 1945 0ab0 1E       		.uleb128 0x1e
 1946 0ab1 01       		.uleb128 0x1
 1947 0ab2 50       		.byte	0x50
 1948 0ab3 05       		.uleb128 0x5
 1949 0ab4 F3       		.byte	0xf3
 1950 0ab5 01       		.uleb128 0x1
 1951 0ab6 50       		.byte	0x50
 1952 0ab7 23       		.byte	0x23
 1953 0ab8 0C       		.uleb128 0xc
 1954 0ab9 00       		.byte	0
 1955 0aba 00       		.byte	0
 1956 0abb 1A       		.uleb128 0x1a
 1957 0abc B9020000 		.4byte	.LASF107
 1958 0ac0 01       		.byte	0x1
 1959 0ac1 54       		.byte	0x54
 1960 0ac2 17010000 		.4byte	0x117
 1961 0ac6 00000000 		.4byte	.LFB44
 1962 0aca 0A000000 		.4byte	.LFE44-.LFB44
 1963 0ace 01       		.uleb128 0x1
 1964 0acf 9C       		.byte	0x9c
 1965 0ad0 190B0000 		.4byte	0xb19
 1966 0ad4 1B       		.uleb128 0x1b
 1967 0ad5 697000   		.ascii	"ip\000"
 1968 0ad8 01       		.byte	0x1
 1969 0ad9 54       		.byte	0x54
 1970 0ada A8020000 		.4byte	0x2a8
 1971 0ade 7F020000 		.4byte	.LLST17
 1972 0ae2 1B       		.uleb128 0x1b
 1973 0ae3 6200     		.ascii	"b\000"
 1974 0ae5 01       		.byte	0x1
 1975 0ae6 54       		.byte	0x54
 1976 0ae7 A2000000 		.4byte	0xa2
 1977 0aeb AD020000 		.4byte	.LLST18
 1978 0aef 1C       		.uleb128 0x1c
 1979 0af0 AB050000 		.4byte	.LASF112
 1980 0af4 01       		.byte	0x1
 1981 0af5 54       		.byte	0x54
 1982 0af6 38010000 		.4byte	0x138
 1983 0afa CE020000 		.4byte	.LLST19
 1984 0afe 1D       		.uleb128 0x1d
 1985 0aff 08000000 		.4byte	.LVL20
 1986 0b03 5C0E0000 		.4byte	0xe5c
 1987 0b07 1E       		.uleb128 0x1e
 1988 0b08 01       		.uleb128 0x1
ARM GAS  /tmp/cc08iglp.s 			page 36


 1989 0b09 52       		.byte	0x52
 1990 0b0a 03       		.uleb128 0x3
 1991 0b0b F3       		.byte	0xf3
 1992 0b0c 01       		.uleb128 0x1
 1993 0b0d 52       		.byte	0x52
 1994 0b0e 1E       		.uleb128 0x1e
 1995 0b0f 01       		.uleb128 0x1
 1996 0b10 50       		.byte	0x50
 1997 0b11 05       		.uleb128 0x5
 1998 0b12 F3       		.byte	0xf3
 1999 0b13 01       		.uleb128 0x1
 2000 0b14 50       		.byte	0x50
 2001 0b15 23       		.byte	0x23
 2002 0b16 30       		.uleb128 0x30
 2003 0b17 00       		.byte	0
 2004 0b18 00       		.byte	0
 2005 0b19 1F       		.uleb128 0x1f
 2006 0b1a 70757400 		.ascii	"put\000"
 2007 0b1e 01       		.byte	0x1
 2008 0b1f 4A       		.byte	0x4a
 2009 0b20 17010000 		.4byte	0x117
 2010 0b24 00000000 		.4byte	.LFB42
 2011 0b28 0E000000 		.4byte	.LFE42-.LFB42
 2012 0b2c 01       		.uleb128 0x1
 2013 0b2d 9C       		.byte	0x9c
 2014 0b2e 670B0000 		.4byte	0xb67
 2015 0b32 1B       		.uleb128 0x1b
 2016 0b33 697000   		.ascii	"ip\000"
 2017 0b36 01       		.byte	0x1
 2018 0b37 4A       		.byte	0x4a
 2019 0b38 A8020000 		.4byte	0x2a8
 2020 0b3c EF020000 		.4byte	.LLST20
 2021 0b40 1B       		.uleb128 0x1b
 2022 0b41 6200     		.ascii	"b\000"
 2023 0b43 01       		.byte	0x1
 2024 0b44 4A       		.byte	0x4a
 2025 0b45 A2000000 		.4byte	0xa2
 2026 0b49 1D030000 		.4byte	.LLST21
 2027 0b4d 1D       		.uleb128 0x1d
 2028 0b4e 0C000000 		.4byte	.LVL23
 2029 0b52 5C0E0000 		.4byte	0xe5c
 2030 0b56 1E       		.uleb128 0x1e
 2031 0b57 01       		.uleb128 0x1
 2032 0b58 52       		.byte	0x52
 2033 0b59 02       		.uleb128 0x2
 2034 0b5a 09       		.byte	0x9
 2035 0b5b FF       		.byte	0xff
 2036 0b5c 1E       		.uleb128 0x1e
 2037 0b5d 01       		.uleb128 0x1
 2038 0b5e 50       		.byte	0x50
 2039 0b5f 05       		.uleb128 0x5
 2040 0b60 F3       		.byte	0xf3
 2041 0b61 01       		.uleb128 0x1
 2042 0b62 50       		.byte	0x50
 2043 0b63 23       		.byte	0x23
 2044 0b64 30       		.uleb128 0x30
 2045 0b65 00       		.byte	0
ARM GAS  /tmp/cc08iglp.s 			page 37


 2046 0b66 00       		.byte	0
 2047 0b67 20       		.uleb128 0x20
 2048 0b68 23000000 		.4byte	.LASF113
 2049 0b6c 01       		.byte	0x1
 2050 0b6d 78       		.byte	0x78
 2051 0b6e 00000000 		.4byte	.LFB48
 2052 0b72 08000000 		.4byte	.LFE48-.LFB48
 2053 0b76 01       		.uleb128 0x1
 2054 0b77 9C       		.byte	0x9c
 2055 0b78 860B0000 		.4byte	0xb86
 2056 0b7c 21       		.uleb128 0x21
 2057 0b7d 06000000 		.4byte	.LVL24
 2058 0b81 7C0E0000 		.4byte	0xe7c
 2059 0b85 00       		.byte	0
 2060 0b86 20       		.uleb128 0x20
 2061 0b87 1F010000 		.4byte	.LASF114
 2062 0b8b 01       		.byte	0x1
 2063 0b8c 8C       		.byte	0x8c
 2064 0b8d 00000000 		.4byte	.LFB49
 2065 0b91 40000000 		.4byte	.LFE49-.LFB49
 2066 0b95 01       		.uleb128 0x1
 2067 0b96 9C       		.byte	0x9c
 2068 0b97 200C0000 		.4byte	0xc20
 2069 0b9b 1B       		.uleb128 0x1b
 2070 0b9c 73647000 		.ascii	"sdp\000"
 2071 0ba0 01       		.byte	0x1
 2072 0ba1 8C       		.byte	0x8c
 2073 0ba2 200C0000 		.4byte	0xc20
 2074 0ba6 3E030000 		.4byte	.LLST22
 2075 0baa 1C       		.uleb128 0x1c
 2076 0bab D8020000 		.4byte	.LASF115
 2077 0baf 01       		.byte	0x1
 2078 0bb0 8C       		.byte	0x8c
 2079 0bb1 DA040000 		.4byte	0x4da
 2080 0bb5 6A030000 		.4byte	.LLST23
 2081 0bb9 1C       		.uleb128 0x1c
 2082 0bba EA040000 		.4byte	.LASF116
 2083 0bbe 01       		.byte	0x1
 2084 0bbf 8C       		.byte	0x8c
 2085 0bc0 DA040000 		.4byte	0x4da
 2086 0bc4 96030000 		.4byte	.LLST24
 2087 0bc8 22       		.uleb128 0x22
 2088 0bc9 24000000 		.4byte	.LVL29
 2089 0bcd 840E0000 		.4byte	0xe84
 2090 0bd1 F60B0000 		.4byte	0xbf6
 2091 0bd5 1E       		.uleb128 0x1e
 2092 0bd6 01       		.uleb128 0x1
 2093 0bd7 53       		.byte	0x53
 2094 0bd8 03       		.uleb128 0x3
 2095 0bd9 F3       		.byte	0xf3
 2096 0bda 01       		.uleb128 0x1
 2097 0bdb 51       		.byte	0x51
 2098 0bdc 1E       		.uleb128 0x1e
 2099 0bdd 01       		.uleb128 0x1
 2100 0bde 52       		.byte	0x52
 2101 0bdf 01       		.uleb128 0x1
 2102 0be0 40       		.byte	0x40
ARM GAS  /tmp/cc08iglp.s 			page 38


 2103 0be1 1E       		.uleb128 0x1e
 2104 0be2 01       		.uleb128 0x1
 2105 0be3 51       		.byte	0x51
 2106 0be4 03       		.uleb128 0x3
 2107 0be5 74       		.byte	0x74
 2108 0be6 D400     		.sleb128 84
 2109 0be8 1E       		.uleb128 0x1e
 2110 0be9 01       		.uleb128 0x1
 2111 0bea 50       		.byte	0x50
 2112 0beb 02       		.uleb128 0x2
 2113 0bec 74       		.byte	0x74
 2114 0bed 0C       		.sleb128 12
 2115 0bee 1E       		.uleb128 0x1e
 2116 0bef 02       		.uleb128 0x2
 2117 0bf0 7D       		.byte	0x7d
 2118 0bf1 00       		.sleb128 0
 2119 0bf2 02       		.uleb128 0x2
 2120 0bf3 74       		.byte	0x74
 2121 0bf4 00       		.sleb128 0
 2122 0bf5 00       		.byte	0
 2123 0bf6 1D       		.uleb128 0x1d
 2124 0bf7 36000000 		.4byte	.LVL30
 2125 0bfb AA0E0000 		.4byte	0xeaa
 2126 0bff 1E       		.uleb128 0x1e
 2127 0c00 01       		.uleb128 0x1
 2128 0c01 53       		.byte	0x53
 2129 0c02 02       		.uleb128 0x2
 2130 0c03 75       		.byte	0x75
 2131 0c04 00       		.sleb128 0
 2132 0c05 1E       		.uleb128 0x1e
 2133 0c06 01       		.uleb128 0x1
 2134 0c07 52       		.byte	0x52
 2135 0c08 01       		.uleb128 0x1
 2136 0c09 40       		.byte	0x40
 2137 0c0a 1E       		.uleb128 0x1e
 2138 0c0b 01       		.uleb128 0x1
 2139 0c0c 51       		.byte	0x51
 2140 0c0d 03       		.uleb128 0x3
 2141 0c0e 74       		.byte	0x74
 2142 0c0f E400     		.sleb128 100
 2143 0c11 1E       		.uleb128 0x1e
 2144 0c12 01       		.uleb128 0x1
 2145 0c13 50       		.byte	0x50
 2146 0c14 02       		.uleb128 0x2
 2147 0c15 74       		.byte	0x74
 2148 0c16 30       		.sleb128 48
 2149 0c17 1E       		.uleb128 0x1e
 2150 0c18 02       		.uleb128 0x2
 2151 0c19 7D       		.byte	0x7d
 2152 0c1a 00       		.sleb128 0
 2153 0c1b 02       		.uleb128 0x2
 2154 0c1c 74       		.byte	0x74
 2155 0c1d 00       		.sleb128 0
 2156 0c1e 00       		.byte	0
 2157 0c1f 00       		.byte	0
 2158 0c20 09       		.uleb128 0x9
 2159 0c21 04       		.byte	0x4
ARM GAS  /tmp/cc08iglp.s 			page 39


 2160 0c22 0D070000 		.4byte	0x70d
 2161 0c26 20       		.uleb128 0x20
 2162 0c27 FD010000 		.4byte	.LASF117
 2163 0c2b 01       		.byte	0x1
 2164 0c2c 9F       		.byte	0x9f
 2165 0c2d 00000000 		.4byte	.LFB50
 2166 0c31 12000000 		.4byte	.LFE50-.LFB50
 2167 0c35 01       		.uleb128 0x1
 2168 0c36 9C       		.byte	0x9c
 2169 0c37 710C0000 		.4byte	0xc71
 2170 0c3b 1B       		.uleb128 0x1b
 2171 0c3c 73647000 		.ascii	"sdp\000"
 2172 0c40 01       		.byte	0x1
 2173 0c41 9F       		.byte	0x9f
 2174 0c42 200C0000 		.4byte	0xc20
 2175 0c46 C2030000 		.4byte	.LLST25
 2176 0c4a 1C       		.uleb128 0x1c
 2177 0c4b 80040000 		.4byte	.LASF118
 2178 0c4f 01       		.byte	0x1
 2179 0c50 9F       		.byte	0x9f
 2180 0c51 710C0000 		.4byte	0xc71
 2181 0c55 EE030000 		.4byte	.LLST26
 2182 0c59 1D       		.uleb128 0x1d
 2183 0c5a 0A000000 		.4byte	.LVL34
 2184 0c5e D00E0000 		.4byte	0xed0
 2185 0c62 1E       		.uleb128 0x1e
 2186 0c63 01       		.uleb128 0x1
 2187 0c64 51       		.byte	0x51
 2188 0c65 03       		.uleb128 0x3
 2189 0c66 F3       		.byte	0xf3
 2190 0c67 01       		.uleb128 0x1
 2191 0c68 51       		.byte	0x51
 2192 0c69 1E       		.uleb128 0x1e
 2193 0c6a 01       		.uleb128 0x1
 2194 0c6b 50       		.byte	0x50
 2195 0c6c 02       		.uleb128 0x2
 2196 0c6d 74       		.byte	0x74
 2197 0c6e 00       		.sleb128 0
 2198 0c6f 00       		.byte	0
 2199 0c70 00       		.byte	0
 2200 0c71 09       		.uleb128 0x9
 2201 0c72 04       		.byte	0x4
 2202 0c73 770C0000 		.4byte	0xc77
 2203 0c77 0E       		.uleb128 0xe
 2204 0c78 C8070000 		.4byte	0x7c8
 2205 0c7c 20       		.uleb128 0x20
 2206 0c7d 06040000 		.4byte	.LASF119
 2207 0c81 01       		.byte	0x1
 2208 0c82 B5       		.byte	0xb5
 2209 0c83 00000000 		.4byte	.LFB51
 2210 0c87 26000000 		.4byte	.LFE51-.LFB51
 2211 0c8b 01       		.uleb128 0x1
 2212 0c8c 9C       		.byte	0x9c
 2213 0c8d E60C0000 		.4byte	0xce6
 2214 0c91 1B       		.uleb128 0x1b
 2215 0c92 73647000 		.ascii	"sdp\000"
 2216 0c96 01       		.byte	0x1
ARM GAS  /tmp/cc08iglp.s 			page 40


 2217 0c97 B5       		.byte	0xb5
 2218 0c98 200C0000 		.4byte	0xc20
 2219 0c9c 0F040000 		.4byte	.LLST27
 2220 0ca0 22       		.uleb128 0x22
 2221 0ca1 0A000000 		.4byte	.LVL37
 2222 0ca5 E70E0000 		.4byte	0xee7
 2223 0ca9 B40C0000 		.4byte	0xcb4
 2224 0cad 1E       		.uleb128 0x1e
 2225 0cae 01       		.uleb128 0x1
 2226 0caf 50       		.byte	0x50
 2227 0cb0 02       		.uleb128 0x2
 2228 0cb1 74       		.byte	0x74
 2229 0cb2 00       		.sleb128 0
 2230 0cb3 00       		.byte	0
 2231 0cb4 22       		.uleb128 0x22
 2232 0cb5 16000000 		.4byte	.LVL38
 2233 0cb9 F90E0000 		.4byte	0xef9
 2234 0cbd C80C0000 		.4byte	0xcc8
 2235 0cc1 1E       		.uleb128 0x1e
 2236 0cc2 01       		.uleb128 0x1
 2237 0cc3 50       		.byte	0x50
 2238 0cc4 02       		.uleb128 0x2
 2239 0cc5 74       		.byte	0x74
 2240 0cc6 30       		.sleb128 48
 2241 0cc7 00       		.byte	0
 2242 0cc8 22       		.uleb128 0x22
 2243 0cc9 1E000000 		.4byte	.LVL39
 2244 0ccd 0B0F0000 		.4byte	0xf0b
 2245 0cd1 DC0C0000 		.4byte	0xcdc
 2246 0cd5 1E       		.uleb128 0x1e
 2247 0cd6 01       		.uleb128 0x1
 2248 0cd7 50       		.byte	0x50
 2249 0cd8 02       		.uleb128 0x2
 2250 0cd9 74       		.byte	0x74
 2251 0cda 0C       		.sleb128 12
 2252 0cdb 00       		.byte	0
 2253 0cdc 21       		.uleb128 0x21
 2254 0cdd 22000000 		.4byte	.LVL40
 2255 0ce1 1D0F0000 		.4byte	0xf1d
 2256 0ce5 00       		.byte	0
 2257 0ce6 20       		.uleb128 0x20
 2258 0ce7 33010000 		.4byte	.LASF120
 2259 0ceb 01       		.byte	0x1
 2260 0cec D5       		.byte	0xd5
 2261 0ced 00000000 		.4byte	.LFB52
 2262 0cf1 3C000000 		.4byte	.LFE52-.LFB52
 2263 0cf5 01       		.uleb128 0x1
 2264 0cf6 9C       		.byte	0x9c
 2265 0cf7 7B0D0000 		.4byte	0xd7b
 2266 0cfb 1B       		.uleb128 0x1b
 2267 0cfc 73647000 		.ascii	"sdp\000"
 2268 0d00 01       		.byte	0x1
 2269 0d01 D5       		.byte	0xd5
 2270 0d02 200C0000 		.4byte	0xc20
 2271 0d06 3B040000 		.4byte	.LLST28
 2272 0d0a 1B       		.uleb128 0x1b
 2273 0d0b 6200     		.ascii	"b\000"
ARM GAS  /tmp/cc08iglp.s 			page 41


 2274 0d0d 01       		.byte	0x1
 2275 0d0e D5       		.byte	0xd5
 2276 0d0f A2000000 		.4byte	0xa2
 2277 0d13 7D040000 		.4byte	.LLST29
 2278 0d17 22       		.uleb128 0x22
 2279 0d18 16000000 		.4byte	.LVL45
 2280 0d1c 240F0000 		.4byte	0xf24
 2281 0d20 310D0000 		.4byte	0xd31
 2282 0d24 1E       		.uleb128 0x1e
 2283 0d25 01       		.uleb128 0x1
 2284 0d26 51       		.byte	0x51
 2285 0d27 02       		.uleb128 0x2
 2286 0d28 75       		.byte	0x75
 2287 0d29 00       		.sleb128 0
 2288 0d2a 1E       		.uleb128 0x1e
 2289 0d2b 01       		.uleb128 0x1
 2290 0d2c 50       		.byte	0x50
 2291 0d2d 02       		.uleb128 0x2
 2292 0d2e 74       		.byte	0x74
 2293 0d2f 0C       		.sleb128 12
 2294 0d30 00       		.byte	0
 2295 0d31 22       		.uleb128 0x22
 2296 0d32 24000000 		.4byte	.LVL50
 2297 0d36 3F0F0000 		.4byte	0xf3f
 2298 0d3a 4A0D0000 		.4byte	0xd4a
 2299 0d3e 1E       		.uleb128 0x1e
 2300 0d3f 01       		.uleb128 0x1
 2301 0d40 51       		.byte	0x51
 2302 0d41 01       		.uleb128 0x1
 2303 0d42 34       		.byte	0x34
 2304 0d43 1E       		.uleb128 0x1e
 2305 0d44 01       		.uleb128 0x1
 2306 0d45 50       		.byte	0x50
 2307 0d46 02       		.uleb128 0x2
 2308 0d47 74       		.byte	0x74
 2309 0d48 04       		.sleb128 4
 2310 0d49 00       		.byte	0
 2311 0d4a 22       		.uleb128 0x22
 2312 0d4b 2E000000 		.4byte	.LVL51
 2313 0d4f 240F0000 		.4byte	0xf24
 2314 0d53 640D0000 		.4byte	0xd64
 2315 0d57 1E       		.uleb128 0x1e
 2316 0d58 01       		.uleb128 0x1
 2317 0d59 51       		.byte	0x51
 2318 0d5a 02       		.uleb128 0x2
 2319 0d5b 75       		.byte	0x75
 2320 0d5c 00       		.sleb128 0
 2321 0d5d 1E       		.uleb128 0x1e
 2322 0d5e 01       		.uleb128 0x1
 2323 0d5f 50       		.byte	0x50
 2324 0d60 02       		.uleb128 0x2
 2325 0d61 74       		.byte	0x74
 2326 0d62 0C       		.sleb128 12
 2327 0d63 00       		.byte	0
 2328 0d64 1D       		.uleb128 0x1d
 2329 0d65 3A000000 		.4byte	.LVL52
 2330 0d69 3F0F0000 		.4byte	0xf3f
ARM GAS  /tmp/cc08iglp.s 			page 42


 2331 0d6d 1E       		.uleb128 0x1e
 2332 0d6e 01       		.uleb128 0x1
 2333 0d6f 51       		.byte	0x51
 2334 0d70 02       		.uleb128 0x2
 2335 0d71 08       		.byte	0x8
 2336 0d72 80       		.byte	0x80
 2337 0d73 1E       		.uleb128 0x1e
 2338 0d74 01       		.uleb128 0x1
 2339 0d75 50       		.byte	0x50
 2340 0d76 02       		.uleb128 0x2
 2341 0d77 74       		.byte	0x74
 2342 0d78 04       		.sleb128 4
 2343 0d79 00       		.byte	0
 2344 0d7a 00       		.byte	0
 2345 0d7b 23       		.uleb128 0x23
 2346 0d7c 70010000 		.4byte	.LASF139
 2347 0d80 01       		.byte	0x1
 2348 0d81 EF       		.byte	0xef
 2349 0d82 17010000 		.4byte	0x117
 2350 0d86 00000000 		.4byte	.LFB53
 2351 0d8a 1C000000 		.4byte	.LFE53-.LFB53
 2352 0d8e 01       		.uleb128 0x1
 2353 0d8f 9C       		.byte	0x9c
 2354 0d90 DA0D0000 		.4byte	0xdda
 2355 0d94 1B       		.uleb128 0x1b
 2356 0d95 73647000 		.ascii	"sdp\000"
 2357 0d99 01       		.byte	0x1
 2358 0d9a EF       		.byte	0xef
 2359 0d9b 200C0000 		.4byte	0xc20
 2360 0d9f B7040000 		.4byte	.LLST30
 2361 0da3 24       		.uleb128 0x24
 2362 0da4 6200     		.ascii	"b\000"
 2363 0da6 01       		.byte	0x1
 2364 0da7 F0       		.byte	0xf0
 2365 0da8 17010000 		.4byte	0x117
 2366 0dac EE040000 		.4byte	.LLST31
 2367 0db0 22       		.uleb128 0x22
 2368 0db1 0A000000 		.4byte	.LVL55
 2369 0db5 5B0F0000 		.4byte	0xf5b
 2370 0db9 C40D0000 		.4byte	0xdc4
 2371 0dbd 1E       		.uleb128 0x1e
 2372 0dbe 01       		.uleb128 0x1
 2373 0dbf 50       		.byte	0x50
 2374 0dc0 02       		.uleb128 0x2
 2375 0dc1 75       		.byte	0x75
 2376 0dc2 30       		.sleb128 48
 2377 0dc3 00       		.byte	0
 2378 0dc4 1D       		.uleb128 0x1d
 2379 0dc5 1A000000 		.4byte	.LVL62
 2380 0dc9 3F0F0000 		.4byte	0xf3f
 2381 0dcd 1E       		.uleb128 0x1e
 2382 0dce 01       		.uleb128 0x1
 2383 0dcf 51       		.byte	0x51
 2384 0dd0 01       		.uleb128 0x1
 2385 0dd1 38       		.byte	0x38
 2386 0dd2 1E       		.uleb128 0x1e
 2387 0dd3 01       		.uleb128 0x1
ARM GAS  /tmp/cc08iglp.s 			page 43


 2388 0dd4 50       		.byte	0x50
 2389 0dd5 02       		.uleb128 0x2
 2390 0dd6 75       		.byte	0x75
 2391 0dd7 04       		.sleb128 4
 2392 0dd8 00       		.byte	0
 2393 0dd9 00       		.byte	0
 2394 0dda 25       		.uleb128 0x25
 2395 0ddb 766D7400 		.ascii	"vmt\000"
 2396 0ddf 01       		.byte	0x1
 2397 0de0 68       		.byte	0x68
 2398 0de1 46080000 		.4byte	0x846
 2399 0de5 05       		.uleb128 0x5
 2400 0de6 03       		.byte	0x3
 2401 0de7 00000000 		.4byte	vmt
 2402 0deb 26       		.uleb128 0x26
 2403 0dec D4000000 		.4byte	.LASF121
 2404 0df0 0B       		.byte	0xb
 2405 0df1 6701     		.2byte	0x167
 2406 0df3 2C000000 		.4byte	0x2c
 2407 0df7 100E0000 		.4byte	0xe10
 2408 0dfb 10       		.uleb128 0x10
 2409 0dfc 100E0000 		.4byte	0xe10
 2410 0e00 10       		.uleb128 0x10
 2411 0e01 FC040000 		.4byte	0x4fc
 2412 0e05 10       		.uleb128 0x10
 2413 0e06 2C000000 		.4byte	0x2c
 2414 0e0a 10       		.uleb128 0x10
 2415 0e0b 38010000 		.4byte	0x138
 2416 0e0f 00       		.byte	0
 2417 0e10 09       		.uleb128 0x9
 2418 0e11 04       		.byte	0x4
 2419 0e12 02050000 		.4byte	0x502
 2420 0e16 26       		.uleb128 0x26
 2421 0e17 E1010000 		.4byte	.LASF122
 2422 0e1b 0B       		.byte	0xb
 2423 0e1c 6F01     		.2byte	0x16f
 2424 0e1e 2C000000 		.4byte	0x2c
 2425 0e22 3B0E0000 		.4byte	0xe3b
 2426 0e26 10       		.uleb128 0x10
 2427 0e27 3B0E0000 		.4byte	0xe3b
 2428 0e2b 10       		.uleb128 0x10
 2429 0e2c 31050000 		.4byte	0x531
 2430 0e30 10       		.uleb128 0x10
 2431 0e31 2C000000 		.4byte	0x2c
 2432 0e35 10       		.uleb128 0x10
 2433 0e36 38010000 		.4byte	0x138
 2434 0e3a 00       		.byte	0
 2435 0e3b 09       		.uleb128 0x9
 2436 0e3c 04       		.byte	0x4
 2437 0e3d 0D050000 		.4byte	0x50d
 2438 0e41 26       		.uleb128 0x26
 2439 0e42 31000000 		.4byte	.LASF123
 2440 0e46 0B       		.byte	0xb
 2441 0e47 6601     		.2byte	0x166
 2442 0e49 17010000 		.4byte	0x117
 2443 0e4d 5C0E0000 		.4byte	0xe5c
 2444 0e51 10       		.uleb128 0x10
ARM GAS  /tmp/cc08iglp.s 			page 44


 2445 0e52 100E0000 		.4byte	0xe10
 2446 0e56 10       		.uleb128 0x10
 2447 0e57 38010000 		.4byte	0x138
 2448 0e5b 00       		.byte	0
 2449 0e5c 26       		.uleb128 0x26
 2450 0e5d B3050000 		.4byte	.LASF124
 2451 0e61 0B       		.byte	0xb
 2452 0e62 6D01     		.2byte	0x16d
 2453 0e64 17010000 		.4byte	0x117
 2454 0e68 7C0E0000 		.4byte	0xe7c
 2455 0e6c 10       		.uleb128 0x10
 2456 0e6d 3B0E0000 		.4byte	0xe3b
 2457 0e71 10       		.uleb128 0x10
 2458 0e72 A2000000 		.4byte	0xa2
 2459 0e76 10       		.uleb128 0x10
 2460 0e77 38010000 		.4byte	0x138
 2461 0e7b 00       		.byte	0
 2462 0e7c 27       		.uleb128 0x27
 2463 0e7d 11060000 		.4byte	.LASF131
 2464 0e81 0E       		.byte	0xe
 2465 0e82 2601     		.2byte	0x126
 2466 0e84 28       		.uleb128 0x28
 2467 0e85 E4000000 		.4byte	.LASF125
 2468 0e89 0B       		.byte	0xb
 2469 0e8a 6201     		.2byte	0x162
 2470 0e8c AA0E0000 		.4byte	0xeaa
 2471 0e90 10       		.uleb128 0x10
 2472 0e91 100E0000 		.4byte	0xe10
 2473 0e95 10       		.uleb128 0x10
 2474 0e96 FC040000 		.4byte	0x4fc
 2475 0e9a 10       		.uleb128 0x10
 2476 0e9b 2C000000 		.4byte	0x2c
 2477 0e9f 10       		.uleb128 0x10
 2478 0ea0 DA040000 		.4byte	0x4da
 2479 0ea4 10       		.uleb128 0x10
 2480 0ea5 A8020000 		.4byte	0x2a8
 2481 0ea9 00       		.byte	0
 2482 0eaa 28       		.uleb128 0x28
 2483 0eab 82050000 		.4byte	.LASF126
 2484 0eaf 0B       		.byte	0xb
 2485 0eb0 6A01     		.2byte	0x16a
 2486 0eb2 D00E0000 		.4byte	0xed0
 2487 0eb6 10       		.uleb128 0x10
 2488 0eb7 3B0E0000 		.4byte	0xe3b
 2489 0ebb 10       		.uleb128 0x10
 2490 0ebc FC040000 		.4byte	0x4fc
 2491 0ec0 10       		.uleb128 0x10
 2492 0ec1 2C000000 		.4byte	0x2c
 2493 0ec5 10       		.uleb128 0x10
 2494 0ec6 DA040000 		.4byte	0x4da
 2495 0eca 10       		.uleb128 0x10
 2496 0ecb A8020000 		.4byte	0x2a8
 2497 0ecf 00       		.byte	0
 2498 0ed0 28       		.uleb128 0x28
 2499 0ed1 20040000 		.4byte	.LASF127
 2500 0ed5 0E       		.byte	0xe
 2501 0ed6 2701     		.2byte	0x127
ARM GAS  /tmp/cc08iglp.s 			page 45


 2502 0ed8 E70E0000 		.4byte	0xee7
 2503 0edc 10       		.uleb128 0x10
 2504 0edd 200C0000 		.4byte	0xc20
 2505 0ee1 10       		.uleb128 0x10
 2506 0ee2 710C0000 		.4byte	0xc71
 2507 0ee6 00       		.byte	0
 2508 0ee7 28       		.uleb128 0x28
 2509 0ee8 EA030000 		.4byte	.LASF128
 2510 0eec 0E       		.byte	0xe
 2511 0eed 2801     		.2byte	0x128
 2512 0eef F90E0000 		.4byte	0xef9
 2513 0ef3 10       		.uleb128 0x10
 2514 0ef4 200C0000 		.4byte	0xc20
 2515 0ef8 00       		.byte	0
 2516 0ef9 28       		.uleb128 0x28
 2517 0efa 06060000 		.4byte	.LASF129
 2518 0efe 0B       		.byte	0xb
 2519 0eff 6C01     		.2byte	0x16c
 2520 0f01 0B0F0000 		.4byte	0xf0b
 2521 0f05 10       		.uleb128 0x10
 2522 0f06 3B0E0000 		.4byte	0xe3b
 2523 0f0a 00       		.byte	0
 2524 0f0b 28       		.uleb128 0x28
 2525 0f0c 65010000 		.4byte	.LASF130
 2526 0f10 0B       		.byte	0xb
 2527 0f11 6401     		.2byte	0x164
 2528 0f13 1D0F0000 		.4byte	0xf1d
 2529 0f17 10       		.uleb128 0x10
 2530 0f18 100E0000 		.4byte	0xe10
 2531 0f1c 00       		.byte	0
 2532 0f1d 29       		.uleb128 0x29
 2533 0f1e 03030000 		.4byte	.LASF132
 2534 0f22 0F       		.byte	0xf
 2535 0f23 9C       		.byte	0x9c
 2536 0f24 26       		.uleb128 0x26
 2537 0f25 17040000 		.4byte	.LASF133
 2538 0f29 0B       		.byte	0xb
 2539 0f2a 6501     		.2byte	0x165
 2540 0f2c 17010000 		.4byte	0x117
 2541 0f30 3F0F0000 		.4byte	0xf3f
 2542 0f34 10       		.uleb128 0x10
 2543 0f35 100E0000 		.4byte	0xe10
 2544 0f39 10       		.uleb128 0x10
 2545 0f3a A2000000 		.4byte	0xa2
 2546 0f3e 00       		.byte	0
 2547 0f3f 2A       		.uleb128 0x2a
 2548 0f40 71030000 		.4byte	.LASF134
 2549 0f44 0A       		.byte	0xa
 2550 0f45 BA       		.byte	0xba
 2551 0f46 550F0000 		.4byte	0xf55
 2552 0f4a 10       		.uleb128 0x10
 2553 0f4b 550F0000 		.4byte	0xf55
 2554 0f4f 10       		.uleb128 0x10
 2555 0f50 2D010000 		.4byte	0x12d
 2556 0f54 00       		.byte	0
 2557 0f55 09       		.uleb128 0x9
 2558 0f56 04       		.byte	0x4
ARM GAS  /tmp/cc08iglp.s 			page 46


 2559 0f57 F5030000 		.4byte	0x3f5
 2560 0f5b 2B       		.uleb128 0x2b
 2561 0f5c 24050000 		.4byte	.LASF135
 2562 0f60 0B       		.byte	0xb
 2563 0f61 6E01     		.2byte	0x16e
 2564 0f63 17010000 		.4byte	0x117
 2565 0f67 10       		.uleb128 0x10
 2566 0f68 3B0E0000 		.4byte	0xe3b
 2567 0f6c 00       		.byte	0
 2568 0f6d 00       		.byte	0
 2569              		.section	.debug_abbrev,"",%progbits
 2570              	.Ldebug_abbrev0:
 2571 0000 01       		.uleb128 0x1
 2572 0001 11       		.uleb128 0x11
 2573 0002 01       		.byte	0x1
 2574 0003 25       		.uleb128 0x25
 2575 0004 0E       		.uleb128 0xe
 2576 0005 13       		.uleb128 0x13
 2577 0006 0B       		.uleb128 0xb
 2578 0007 03       		.uleb128 0x3
 2579 0008 0E       		.uleb128 0xe
 2580 0009 1B       		.uleb128 0x1b
 2581 000a 0E       		.uleb128 0xe
 2582 000b 55       		.uleb128 0x55
 2583 000c 17       		.uleb128 0x17
 2584 000d 11       		.uleb128 0x11
 2585 000e 01       		.uleb128 0x1
 2586 000f 10       		.uleb128 0x10
 2587 0010 17       		.uleb128 0x17
 2588 0011 00       		.byte	0
 2589 0012 00       		.byte	0
 2590 0013 02       		.uleb128 0x2
 2591 0014 24       		.uleb128 0x24
 2592 0015 00       		.byte	0
 2593 0016 0B       		.uleb128 0xb
 2594 0017 0B       		.uleb128 0xb
 2595 0018 3E       		.uleb128 0x3e
 2596 0019 0B       		.uleb128 0xb
 2597 001a 03       		.uleb128 0x3
 2598 001b 08       		.uleb128 0x8
 2599 001c 00       		.byte	0
 2600 001d 00       		.byte	0
 2601 001e 03       		.uleb128 0x3
 2602 001f 16       		.uleb128 0x16
 2603 0020 00       		.byte	0
 2604 0021 03       		.uleb128 0x3
 2605 0022 0E       		.uleb128 0xe
 2606 0023 3A       		.uleb128 0x3a
 2607 0024 0B       		.uleb128 0xb
 2608 0025 3B       		.uleb128 0x3b
 2609 0026 0B       		.uleb128 0xb
 2610 0027 49       		.uleb128 0x49
 2611 0028 13       		.uleb128 0x13
 2612 0029 00       		.byte	0
 2613 002a 00       		.byte	0
 2614 002b 04       		.uleb128 0x4
 2615 002c 24       		.uleb128 0x24
ARM GAS  /tmp/cc08iglp.s 			page 47


 2616 002d 00       		.byte	0
 2617 002e 0B       		.uleb128 0xb
 2618 002f 0B       		.uleb128 0xb
 2619 0030 3E       		.uleb128 0x3e
 2620 0031 0B       		.uleb128 0xb
 2621 0032 03       		.uleb128 0x3
 2622 0033 0E       		.uleb128 0xe
 2623 0034 00       		.byte	0
 2624 0035 00       		.byte	0
 2625 0036 05       		.uleb128 0x5
 2626 0037 13       		.uleb128 0x13
 2627 0038 01       		.byte	0x1
 2628 0039 03       		.uleb128 0x3
 2629 003a 0E       		.uleb128 0xe
 2630 003b 0B       		.uleb128 0xb
 2631 003c 0B       		.uleb128 0xb
 2632 003d 3A       		.uleb128 0x3a
 2633 003e 0B       		.uleb128 0xb
 2634 003f 3B       		.uleb128 0x3b
 2635 0040 0B       		.uleb128 0xb
 2636 0041 01       		.uleb128 0x1
 2637 0042 13       		.uleb128 0x13
 2638 0043 00       		.byte	0
 2639 0044 00       		.byte	0
 2640 0045 06       		.uleb128 0x6
 2641 0046 0D       		.uleb128 0xd
 2642 0047 00       		.byte	0
 2643 0048 03       		.uleb128 0x3
 2644 0049 0E       		.uleb128 0xe
 2645 004a 3A       		.uleb128 0x3a
 2646 004b 0B       		.uleb128 0xb
 2647 004c 3B       		.uleb128 0x3b
 2648 004d 0B       		.uleb128 0xb
 2649 004e 49       		.uleb128 0x49
 2650 004f 13       		.uleb128 0x13
 2651 0050 38       		.uleb128 0x38
 2652 0051 0B       		.uleb128 0xb
 2653 0052 00       		.byte	0
 2654 0053 00       		.byte	0
 2655 0054 07       		.uleb128 0x7
 2656 0055 0D       		.uleb128 0xd
 2657 0056 00       		.byte	0
 2658 0057 03       		.uleb128 0x3
 2659 0058 08       		.uleb128 0x8
 2660 0059 3A       		.uleb128 0x3a
 2661 005a 0B       		.uleb128 0xb
 2662 005b 3B       		.uleb128 0x3b
 2663 005c 0B       		.uleb128 0xb
 2664 005d 49       		.uleb128 0x49
 2665 005e 13       		.uleb128 0x13
 2666 005f 38       		.uleb128 0x38
 2667 0060 0B       		.uleb128 0xb
 2668 0061 00       		.byte	0
 2669 0062 00       		.byte	0
 2670 0063 08       		.uleb128 0x8
 2671 0064 13       		.uleb128 0x13
 2672 0065 01       		.byte	0x1
ARM GAS  /tmp/cc08iglp.s 			page 48


 2673 0066 0B       		.uleb128 0xb
 2674 0067 0B       		.uleb128 0xb
 2675 0068 3A       		.uleb128 0x3a
 2676 0069 0B       		.uleb128 0xb
 2677 006a 3B       		.uleb128 0x3b
 2678 006b 0B       		.uleb128 0xb
 2679 006c 01       		.uleb128 0x1
 2680 006d 13       		.uleb128 0x13
 2681 006e 00       		.byte	0
 2682 006f 00       		.byte	0
 2683 0070 09       		.uleb128 0x9
 2684 0071 0F       		.uleb128 0xf
 2685 0072 00       		.byte	0
 2686 0073 0B       		.uleb128 0xb
 2687 0074 0B       		.uleb128 0xb
 2688 0075 49       		.uleb128 0x49
 2689 0076 13       		.uleb128 0x13
 2690 0077 00       		.byte	0
 2691 0078 00       		.byte	0
 2692 0079 0A       		.uleb128 0xa
 2693 007a 0F       		.uleb128 0xf
 2694 007b 00       		.byte	0
 2695 007c 0B       		.uleb128 0xb
 2696 007d 0B       		.uleb128 0xb
 2697 007e 00       		.byte	0
 2698 007f 00       		.byte	0
 2699 0080 0B       		.uleb128 0xb
 2700 0081 35       		.uleb128 0x35
 2701 0082 00       		.byte	0
 2702 0083 49       		.uleb128 0x49
 2703 0084 13       		.uleb128 0x13
 2704 0085 00       		.byte	0
 2705 0086 00       		.byte	0
 2706 0087 0C       		.uleb128 0xc
 2707 0088 17       		.uleb128 0x17
 2708 0089 01       		.byte	0x1
 2709 008a 0B       		.uleb128 0xb
 2710 008b 0B       		.uleb128 0xb
 2711 008c 3A       		.uleb128 0x3a
 2712 008d 0B       		.uleb128 0xb
 2713 008e 3B       		.uleb128 0x3b
 2714 008f 0B       		.uleb128 0xb
 2715 0090 01       		.uleb128 0x1
 2716 0091 13       		.uleb128 0x13
 2717 0092 00       		.byte	0
 2718 0093 00       		.byte	0
 2719 0094 0D       		.uleb128 0xd
 2720 0095 0D       		.uleb128 0xd
 2721 0096 00       		.byte	0
 2722 0097 03       		.uleb128 0x3
 2723 0098 0E       		.uleb128 0xe
 2724 0099 3A       		.uleb128 0x3a
 2725 009a 0B       		.uleb128 0xb
 2726 009b 3B       		.uleb128 0x3b
 2727 009c 0B       		.uleb128 0xb
 2728 009d 49       		.uleb128 0x49
 2729 009e 13       		.uleb128 0x13
ARM GAS  /tmp/cc08iglp.s 			page 49


 2730 009f 00       		.byte	0
 2731 00a0 00       		.byte	0
 2732 00a1 0E       		.uleb128 0xe
 2733 00a2 26       		.uleb128 0x26
 2734 00a3 00       		.byte	0
 2735 00a4 49       		.uleb128 0x49
 2736 00a5 13       		.uleb128 0x13
 2737 00a6 00       		.byte	0
 2738 00a7 00       		.byte	0
 2739 00a8 0F       		.uleb128 0xf
 2740 00a9 15       		.uleb128 0x15
 2741 00aa 01       		.byte	0x1
 2742 00ab 27       		.uleb128 0x27
 2743 00ac 19       		.uleb128 0x19
 2744 00ad 49       		.uleb128 0x49
 2745 00ae 13       		.uleb128 0x13
 2746 00af 01       		.uleb128 0x1
 2747 00b0 13       		.uleb128 0x13
 2748 00b1 00       		.byte	0
 2749 00b2 00       		.byte	0
 2750 00b3 10       		.uleb128 0x10
 2751 00b4 05       		.uleb128 0x5
 2752 00b5 00       		.byte	0
 2753 00b6 49       		.uleb128 0x49
 2754 00b7 13       		.uleb128 0x13
 2755 00b8 00       		.byte	0
 2756 00b9 00       		.byte	0
 2757 00ba 11       		.uleb128 0x11
 2758 00bb 15       		.uleb128 0x15
 2759 00bc 01       		.byte	0x1
 2760 00bd 27       		.uleb128 0x27
 2761 00be 19       		.uleb128 0x19
 2762 00bf 01       		.uleb128 0x1
 2763 00c0 13       		.uleb128 0x13
 2764 00c1 00       		.byte	0
 2765 00c2 00       		.byte	0
 2766 00c3 12       		.uleb128 0x12
 2767 00c4 13       		.uleb128 0x13
 2768 00c5 01       		.byte	0x1
 2769 00c6 0B       		.uleb128 0xb
 2770 00c7 0B       		.uleb128 0xb
 2771 00c8 3A       		.uleb128 0x3a
 2772 00c9 0B       		.uleb128 0xb
 2773 00ca 3B       		.uleb128 0x3b
 2774 00cb 05       		.uleb128 0x5
 2775 00cc 01       		.uleb128 0x1
 2776 00cd 13       		.uleb128 0x13
 2777 00ce 00       		.byte	0
 2778 00cf 00       		.byte	0
 2779 00d0 13       		.uleb128 0x13
 2780 00d1 0D       		.uleb128 0xd
 2781 00d2 00       		.byte	0
 2782 00d3 03       		.uleb128 0x3
 2783 00d4 08       		.uleb128 0x8
 2784 00d5 3A       		.uleb128 0x3a
 2785 00d6 0B       		.uleb128 0xb
 2786 00d7 3B       		.uleb128 0x3b
ARM GAS  /tmp/cc08iglp.s 			page 50


 2787 00d8 05       		.uleb128 0x5
 2788 00d9 49       		.uleb128 0x49
 2789 00da 13       		.uleb128 0x13
 2790 00db 38       		.uleb128 0x38
 2791 00dc 0B       		.uleb128 0xb
 2792 00dd 00       		.byte	0
 2793 00de 00       		.byte	0
 2794 00df 14       		.uleb128 0x14
 2795 00e0 0D       		.uleb128 0xd
 2796 00e1 00       		.byte	0
 2797 00e2 03       		.uleb128 0x3
 2798 00e3 0E       		.uleb128 0xe
 2799 00e4 3A       		.uleb128 0x3a
 2800 00e5 0B       		.uleb128 0xb
 2801 00e6 3B       		.uleb128 0x3b
 2802 00e7 05       		.uleb128 0x5
 2803 00e8 49       		.uleb128 0x49
 2804 00e9 13       		.uleb128 0x13
 2805 00ea 38       		.uleb128 0x38
 2806 00eb 0B       		.uleb128 0xb
 2807 00ec 00       		.byte	0
 2808 00ed 00       		.byte	0
 2809 00ee 15       		.uleb128 0x15
 2810 00ef 16       		.uleb128 0x16
 2811 00f0 00       		.byte	0
 2812 00f1 03       		.uleb128 0x3
 2813 00f2 0E       		.uleb128 0xe
 2814 00f3 3A       		.uleb128 0x3a
 2815 00f4 0B       		.uleb128 0xb
 2816 00f5 3B       		.uleb128 0x3b
 2817 00f6 05       		.uleb128 0x5
 2818 00f7 49       		.uleb128 0x49
 2819 00f8 13       		.uleb128 0x13
 2820 00f9 00       		.byte	0
 2821 00fa 00       		.byte	0
 2822 00fb 16       		.uleb128 0x16
 2823 00fc 04       		.uleb128 0x4
 2824 00fd 01       		.byte	0x1
 2825 00fe 0B       		.uleb128 0xb
 2826 00ff 0B       		.uleb128 0xb
 2827 0100 3A       		.uleb128 0x3a
 2828 0101 0B       		.uleb128 0xb
 2829 0102 3B       		.uleb128 0x3b
 2830 0103 0B       		.uleb128 0xb
 2831 0104 01       		.uleb128 0x1
 2832 0105 13       		.uleb128 0x13
 2833 0106 00       		.byte	0
 2834 0107 00       		.byte	0
 2835 0108 17       		.uleb128 0x17
 2836 0109 28       		.uleb128 0x28
 2837 010a 00       		.byte	0
 2838 010b 03       		.uleb128 0x3
 2839 010c 0E       		.uleb128 0xe
 2840 010d 1C       		.uleb128 0x1c
 2841 010e 0D       		.uleb128 0xd
 2842 010f 00       		.byte	0
 2843 0110 00       		.byte	0
ARM GAS  /tmp/cc08iglp.s 			page 51


 2844 0111 18       		.uleb128 0x18
 2845 0112 01       		.uleb128 0x1
 2846 0113 01       		.byte	0x1
 2847 0114 49       		.uleb128 0x49
 2848 0115 13       		.uleb128 0x13
 2849 0116 01       		.uleb128 0x1
 2850 0117 13       		.uleb128 0x13
 2851 0118 00       		.byte	0
 2852 0119 00       		.byte	0
 2853 011a 19       		.uleb128 0x19
 2854 011b 21       		.uleb128 0x21
 2855 011c 00       		.byte	0
 2856 011d 49       		.uleb128 0x49
 2857 011e 13       		.uleb128 0x13
 2858 011f 2F       		.uleb128 0x2f
 2859 0120 0B       		.uleb128 0xb
 2860 0121 00       		.byte	0
 2861 0122 00       		.byte	0
 2862 0123 1A       		.uleb128 0x1a
 2863 0124 2E       		.uleb128 0x2e
 2864 0125 01       		.byte	0x1
 2865 0126 03       		.uleb128 0x3
 2866 0127 0E       		.uleb128 0xe
 2867 0128 3A       		.uleb128 0x3a
 2868 0129 0B       		.uleb128 0xb
 2869 012a 3B       		.uleb128 0x3b
 2870 012b 0B       		.uleb128 0xb
 2871 012c 27       		.uleb128 0x27
 2872 012d 19       		.uleb128 0x19
 2873 012e 49       		.uleb128 0x49
 2874 012f 13       		.uleb128 0x13
 2875 0130 11       		.uleb128 0x11
 2876 0131 01       		.uleb128 0x1
 2877 0132 12       		.uleb128 0x12
 2878 0133 06       		.uleb128 0x6
 2879 0134 40       		.uleb128 0x40
 2880 0135 18       		.uleb128 0x18
 2881 0136 9742     		.uleb128 0x2117
 2882 0138 19       		.uleb128 0x19
 2883 0139 01       		.uleb128 0x1
 2884 013a 13       		.uleb128 0x13
 2885 013b 00       		.byte	0
 2886 013c 00       		.byte	0
 2887 013d 1B       		.uleb128 0x1b
 2888 013e 05       		.uleb128 0x5
 2889 013f 00       		.byte	0
 2890 0140 03       		.uleb128 0x3
 2891 0141 08       		.uleb128 0x8
 2892 0142 3A       		.uleb128 0x3a
 2893 0143 0B       		.uleb128 0xb
 2894 0144 3B       		.uleb128 0x3b
 2895 0145 0B       		.uleb128 0xb
 2896 0146 49       		.uleb128 0x49
 2897 0147 13       		.uleb128 0x13
 2898 0148 02       		.uleb128 0x2
 2899 0149 17       		.uleb128 0x17
 2900 014a 00       		.byte	0
ARM GAS  /tmp/cc08iglp.s 			page 52


 2901 014b 00       		.byte	0
 2902 014c 1C       		.uleb128 0x1c
 2903 014d 05       		.uleb128 0x5
 2904 014e 00       		.byte	0
 2905 014f 03       		.uleb128 0x3
 2906 0150 0E       		.uleb128 0xe
 2907 0151 3A       		.uleb128 0x3a
 2908 0152 0B       		.uleb128 0xb
 2909 0153 3B       		.uleb128 0x3b
 2910 0154 0B       		.uleb128 0xb
 2911 0155 49       		.uleb128 0x49
 2912 0156 13       		.uleb128 0x13
 2913 0157 02       		.uleb128 0x2
 2914 0158 17       		.uleb128 0x17
 2915 0159 00       		.byte	0
 2916 015a 00       		.byte	0
 2917 015b 1D       		.uleb128 0x1d
 2918 015c 898201   		.uleb128 0x4109
 2919 015f 01       		.byte	0x1
 2920 0160 11       		.uleb128 0x11
 2921 0161 01       		.uleb128 0x1
 2922 0162 31       		.uleb128 0x31
 2923 0163 13       		.uleb128 0x13
 2924 0164 00       		.byte	0
 2925 0165 00       		.byte	0
 2926 0166 1E       		.uleb128 0x1e
 2927 0167 8A8201   		.uleb128 0x410a
 2928 016a 00       		.byte	0
 2929 016b 02       		.uleb128 0x2
 2930 016c 18       		.uleb128 0x18
 2931 016d 9142     		.uleb128 0x2111
 2932 016f 18       		.uleb128 0x18
 2933 0170 00       		.byte	0
 2934 0171 00       		.byte	0
 2935 0172 1F       		.uleb128 0x1f
 2936 0173 2E       		.uleb128 0x2e
 2937 0174 01       		.byte	0x1
 2938 0175 03       		.uleb128 0x3
 2939 0176 08       		.uleb128 0x8
 2940 0177 3A       		.uleb128 0x3a
 2941 0178 0B       		.uleb128 0xb
 2942 0179 3B       		.uleb128 0x3b
 2943 017a 0B       		.uleb128 0xb
 2944 017b 27       		.uleb128 0x27
 2945 017c 19       		.uleb128 0x19
 2946 017d 49       		.uleb128 0x49
 2947 017e 13       		.uleb128 0x13
 2948 017f 11       		.uleb128 0x11
 2949 0180 01       		.uleb128 0x1
 2950 0181 12       		.uleb128 0x12
 2951 0182 06       		.uleb128 0x6
 2952 0183 40       		.uleb128 0x40
 2953 0184 18       		.uleb128 0x18
 2954 0185 9742     		.uleb128 0x2117
 2955 0187 19       		.uleb128 0x19
 2956 0188 01       		.uleb128 0x1
 2957 0189 13       		.uleb128 0x13
ARM GAS  /tmp/cc08iglp.s 			page 53


 2958 018a 00       		.byte	0
 2959 018b 00       		.byte	0
 2960 018c 20       		.uleb128 0x20
 2961 018d 2E       		.uleb128 0x2e
 2962 018e 01       		.byte	0x1
 2963 018f 3F       		.uleb128 0x3f
 2964 0190 19       		.uleb128 0x19
 2965 0191 03       		.uleb128 0x3
 2966 0192 0E       		.uleb128 0xe
 2967 0193 3A       		.uleb128 0x3a
 2968 0194 0B       		.uleb128 0xb
 2969 0195 3B       		.uleb128 0x3b
 2970 0196 0B       		.uleb128 0xb
 2971 0197 27       		.uleb128 0x27
 2972 0198 19       		.uleb128 0x19
 2973 0199 11       		.uleb128 0x11
 2974 019a 01       		.uleb128 0x1
 2975 019b 12       		.uleb128 0x12
 2976 019c 06       		.uleb128 0x6
 2977 019d 40       		.uleb128 0x40
 2978 019e 18       		.uleb128 0x18
 2979 019f 9742     		.uleb128 0x2117
 2980 01a1 19       		.uleb128 0x19
 2981 01a2 01       		.uleb128 0x1
 2982 01a3 13       		.uleb128 0x13
 2983 01a4 00       		.byte	0
 2984 01a5 00       		.byte	0
 2985 01a6 21       		.uleb128 0x21
 2986 01a7 898201   		.uleb128 0x4109
 2987 01aa 00       		.byte	0
 2988 01ab 11       		.uleb128 0x11
 2989 01ac 01       		.uleb128 0x1
 2990 01ad 31       		.uleb128 0x31
 2991 01ae 13       		.uleb128 0x13
 2992 01af 00       		.byte	0
 2993 01b0 00       		.byte	0
 2994 01b1 22       		.uleb128 0x22
 2995 01b2 898201   		.uleb128 0x4109
 2996 01b5 01       		.byte	0x1
 2997 01b6 11       		.uleb128 0x11
 2998 01b7 01       		.uleb128 0x1
 2999 01b8 31       		.uleb128 0x31
 3000 01b9 13       		.uleb128 0x13
 3001 01ba 01       		.uleb128 0x1
 3002 01bb 13       		.uleb128 0x13
 3003 01bc 00       		.byte	0
 3004 01bd 00       		.byte	0
 3005 01be 23       		.uleb128 0x23
 3006 01bf 2E       		.uleb128 0x2e
 3007 01c0 01       		.byte	0x1
 3008 01c1 3F       		.uleb128 0x3f
 3009 01c2 19       		.uleb128 0x19
 3010 01c3 03       		.uleb128 0x3
 3011 01c4 0E       		.uleb128 0xe
 3012 01c5 3A       		.uleb128 0x3a
 3013 01c6 0B       		.uleb128 0xb
 3014 01c7 3B       		.uleb128 0x3b
ARM GAS  /tmp/cc08iglp.s 			page 54


 3015 01c8 0B       		.uleb128 0xb
 3016 01c9 27       		.uleb128 0x27
 3017 01ca 19       		.uleb128 0x19
 3018 01cb 49       		.uleb128 0x49
 3019 01cc 13       		.uleb128 0x13
 3020 01cd 11       		.uleb128 0x11
 3021 01ce 01       		.uleb128 0x1
 3022 01cf 12       		.uleb128 0x12
 3023 01d0 06       		.uleb128 0x6
 3024 01d1 40       		.uleb128 0x40
 3025 01d2 18       		.uleb128 0x18
 3026 01d3 9742     		.uleb128 0x2117
 3027 01d5 19       		.uleb128 0x19
 3028 01d6 01       		.uleb128 0x1
 3029 01d7 13       		.uleb128 0x13
 3030 01d8 00       		.byte	0
 3031 01d9 00       		.byte	0
 3032 01da 24       		.uleb128 0x24
 3033 01db 34       		.uleb128 0x34
 3034 01dc 00       		.byte	0
 3035 01dd 03       		.uleb128 0x3
 3036 01de 08       		.uleb128 0x8
 3037 01df 3A       		.uleb128 0x3a
 3038 01e0 0B       		.uleb128 0xb
 3039 01e1 3B       		.uleb128 0x3b
 3040 01e2 0B       		.uleb128 0xb
 3041 01e3 49       		.uleb128 0x49
 3042 01e4 13       		.uleb128 0x13
 3043 01e5 02       		.uleb128 0x2
 3044 01e6 17       		.uleb128 0x17
 3045 01e7 00       		.byte	0
 3046 01e8 00       		.byte	0
 3047 01e9 25       		.uleb128 0x25
 3048 01ea 34       		.uleb128 0x34
 3049 01eb 00       		.byte	0
 3050 01ec 03       		.uleb128 0x3
 3051 01ed 08       		.uleb128 0x8
 3052 01ee 3A       		.uleb128 0x3a
 3053 01ef 0B       		.uleb128 0xb
 3054 01f0 3B       		.uleb128 0x3b
 3055 01f1 0B       		.uleb128 0xb
 3056 01f2 49       		.uleb128 0x49
 3057 01f3 13       		.uleb128 0x13
 3058 01f4 02       		.uleb128 0x2
 3059 01f5 18       		.uleb128 0x18
 3060 01f6 00       		.byte	0
 3061 01f7 00       		.byte	0
 3062 01f8 26       		.uleb128 0x26
 3063 01f9 2E       		.uleb128 0x2e
 3064 01fa 01       		.byte	0x1
 3065 01fb 3F       		.uleb128 0x3f
 3066 01fc 19       		.uleb128 0x19
 3067 01fd 03       		.uleb128 0x3
 3068 01fe 0E       		.uleb128 0xe
 3069 01ff 3A       		.uleb128 0x3a
 3070 0200 0B       		.uleb128 0xb
 3071 0201 3B       		.uleb128 0x3b
ARM GAS  /tmp/cc08iglp.s 			page 55


 3072 0202 05       		.uleb128 0x5
 3073 0203 27       		.uleb128 0x27
 3074 0204 19       		.uleb128 0x19
 3075 0205 49       		.uleb128 0x49
 3076 0206 13       		.uleb128 0x13
 3077 0207 3C       		.uleb128 0x3c
 3078 0208 19       		.uleb128 0x19
 3079 0209 01       		.uleb128 0x1
 3080 020a 13       		.uleb128 0x13
 3081 020b 00       		.byte	0
 3082 020c 00       		.byte	0
 3083 020d 27       		.uleb128 0x27
 3084 020e 2E       		.uleb128 0x2e
 3085 020f 00       		.byte	0
 3086 0210 3F       		.uleb128 0x3f
 3087 0211 19       		.uleb128 0x19
 3088 0212 03       		.uleb128 0x3
 3089 0213 0E       		.uleb128 0xe
 3090 0214 3A       		.uleb128 0x3a
 3091 0215 0B       		.uleb128 0xb
 3092 0216 3B       		.uleb128 0x3b
 3093 0217 05       		.uleb128 0x5
 3094 0218 27       		.uleb128 0x27
 3095 0219 19       		.uleb128 0x19
 3096 021a 3C       		.uleb128 0x3c
 3097 021b 19       		.uleb128 0x19
 3098 021c 00       		.byte	0
 3099 021d 00       		.byte	0
 3100 021e 28       		.uleb128 0x28
 3101 021f 2E       		.uleb128 0x2e
 3102 0220 01       		.byte	0x1
 3103 0221 3F       		.uleb128 0x3f
 3104 0222 19       		.uleb128 0x19
 3105 0223 03       		.uleb128 0x3
 3106 0224 0E       		.uleb128 0xe
 3107 0225 3A       		.uleb128 0x3a
 3108 0226 0B       		.uleb128 0xb
 3109 0227 3B       		.uleb128 0x3b
 3110 0228 05       		.uleb128 0x5
 3111 0229 27       		.uleb128 0x27
 3112 022a 19       		.uleb128 0x19
 3113 022b 3C       		.uleb128 0x3c
 3114 022c 19       		.uleb128 0x19
 3115 022d 01       		.uleb128 0x1
 3116 022e 13       		.uleb128 0x13
 3117 022f 00       		.byte	0
 3118 0230 00       		.byte	0
 3119 0231 29       		.uleb128 0x29
 3120 0232 2E       		.uleb128 0x2e
 3121 0233 00       		.byte	0
 3122 0234 3F       		.uleb128 0x3f
 3123 0235 19       		.uleb128 0x19
 3124 0236 03       		.uleb128 0x3
 3125 0237 0E       		.uleb128 0xe
 3126 0238 3A       		.uleb128 0x3a
 3127 0239 0B       		.uleb128 0xb
 3128 023a 3B       		.uleb128 0x3b
ARM GAS  /tmp/cc08iglp.s 			page 56


 3129 023b 0B       		.uleb128 0xb
 3130 023c 27       		.uleb128 0x27
 3131 023d 19       		.uleb128 0x19
 3132 023e 3C       		.uleb128 0x3c
 3133 023f 19       		.uleb128 0x19
 3134 0240 00       		.byte	0
 3135 0241 00       		.byte	0
 3136 0242 2A       		.uleb128 0x2a
 3137 0243 2E       		.uleb128 0x2e
 3138 0244 01       		.byte	0x1
 3139 0245 3F       		.uleb128 0x3f
 3140 0246 19       		.uleb128 0x19
 3141 0247 03       		.uleb128 0x3
 3142 0248 0E       		.uleb128 0xe
 3143 0249 3A       		.uleb128 0x3a
 3144 024a 0B       		.uleb128 0xb
 3145 024b 3B       		.uleb128 0x3b
 3146 024c 0B       		.uleb128 0xb
 3147 024d 27       		.uleb128 0x27
 3148 024e 19       		.uleb128 0x19
 3149 024f 3C       		.uleb128 0x3c
 3150 0250 19       		.uleb128 0x19
 3151 0251 01       		.uleb128 0x1
 3152 0252 13       		.uleb128 0x13
 3153 0253 00       		.byte	0
 3154 0254 00       		.byte	0
 3155 0255 2B       		.uleb128 0x2b
 3156 0256 2E       		.uleb128 0x2e
 3157 0257 01       		.byte	0x1
 3158 0258 3F       		.uleb128 0x3f
 3159 0259 19       		.uleb128 0x19
 3160 025a 03       		.uleb128 0x3
 3161 025b 0E       		.uleb128 0xe
 3162 025c 3A       		.uleb128 0x3a
 3163 025d 0B       		.uleb128 0xb
 3164 025e 3B       		.uleb128 0x3b
 3165 025f 05       		.uleb128 0x5
 3166 0260 27       		.uleb128 0x27
 3167 0261 19       		.uleb128 0x19
 3168 0262 49       		.uleb128 0x49
 3169 0263 13       		.uleb128 0x13
 3170 0264 3C       		.uleb128 0x3c
 3171 0265 19       		.uleb128 0x19
 3172 0266 00       		.byte	0
 3173 0267 00       		.byte	0
 3174 0268 00       		.byte	0
 3175              		.section	.debug_loc,"",%progbits
 3176              	.Ldebug_loc0:
 3177              	.LLST0:
 3178 0000 00000000 		.4byte	.LVL0
 3179 0004 04000000 		.4byte	.LVL1
 3180 0008 0100     		.2byte	0x1
 3181 000a 50       		.byte	0x50
 3182 000b 04000000 		.4byte	.LVL1
 3183 000f 07000000 		.4byte	.LVL2-1
 3184 0013 0300     		.2byte	0x3
 3185 0015 70       		.byte	0x70
ARM GAS  /tmp/cc08iglp.s 			page 57


 3186 0016 74       		.sleb128 -12
 3187 0017 9F       		.byte	0x9f
 3188 0018 07000000 		.4byte	.LVL2-1
 3189 001c 0A000000 		.4byte	.LFE47
 3190 0020 0400     		.2byte	0x4
 3191 0022 F3       		.byte	0xf3
 3192 0023 01       		.uleb128 0x1
 3193 0024 50       		.byte	0x50
 3194 0025 9F       		.byte	0x9f
 3195 0026 00000000 		.4byte	0
 3196 002a 00000000 		.4byte	0
 3197              	.LLST1:
 3198 002e 00000000 		.4byte	.LVL0
 3199 0032 07000000 		.4byte	.LVL2-1
 3200 0036 0100     		.2byte	0x1
 3201 0038 51       		.byte	0x51
 3202 0039 07000000 		.4byte	.LVL2-1
 3203 003d 0A000000 		.4byte	.LFE47
 3204 0041 0400     		.2byte	0x4
 3205 0043 F3       		.byte	0xf3
 3206 0044 01       		.uleb128 0x1
 3207 0045 51       		.byte	0x51
 3208 0046 9F       		.byte	0x9f
 3209 0047 00000000 		.4byte	0
 3210 004b 00000000 		.4byte	0
 3211              	.LLST2:
 3212 004f 00000000 		.4byte	.LVL0
 3213 0053 07000000 		.4byte	.LVL2-1
 3214 0057 0100     		.2byte	0x1
 3215 0059 52       		.byte	0x52
 3216 005a 07000000 		.4byte	.LVL2-1
 3217 005e 0A000000 		.4byte	.LFE47
 3218 0062 0400     		.2byte	0x4
 3219 0064 F3       		.byte	0xf3
 3220 0065 01       		.uleb128 0x1
 3221 0066 52       		.byte	0x52
 3222 0067 9F       		.byte	0x9f
 3223 0068 00000000 		.4byte	0
 3224 006c 00000000 		.4byte	0
 3225              	.LLST3:
 3226 0070 00000000 		.4byte	.LVL0
 3227 0074 07000000 		.4byte	.LVL2-1
 3228 0078 0100     		.2byte	0x1
 3229 007a 53       		.byte	0x53
 3230 007b 07000000 		.4byte	.LVL2-1
 3231 007f 0A000000 		.4byte	.LFE47
 3232 0083 0400     		.2byte	0x4
 3233 0085 F3       		.byte	0xf3
 3234 0086 01       		.uleb128 0x1
 3235 0087 53       		.byte	0x53
 3236 0088 9F       		.byte	0x9f
 3237 0089 00000000 		.4byte	0
 3238 008d 00000000 		.4byte	0
 3239              	.LLST4:
 3240 0091 00000000 		.4byte	.LVL3
 3241 0095 06000000 		.4byte	.LVL4
 3242 0099 0100     		.2byte	0x1
ARM GAS  /tmp/cc08iglp.s 			page 58


 3243 009b 50       		.byte	0x50
 3244 009c 06000000 		.4byte	.LVL4
 3245 00a0 0B000000 		.4byte	.LVL5-1
 3246 00a4 0300     		.2byte	0x3
 3247 00a6 70       		.byte	0x70
 3248 00a7 74       		.sleb128 -12
 3249 00a8 9F       		.byte	0x9f
 3250 00a9 0B000000 		.4byte	.LVL5-1
 3251 00ad 0E000000 		.4byte	.LFE41
 3252 00b1 0400     		.2byte	0x4
 3253 00b3 F3       		.byte	0xf3
 3254 00b4 01       		.uleb128 0x1
 3255 00b5 50       		.byte	0x50
 3256 00b6 9F       		.byte	0x9f
 3257 00b7 00000000 		.4byte	0
 3258 00bb 00000000 		.4byte	0
 3259              	.LLST5:
 3260 00bf 00000000 		.4byte	.LVL3
 3261 00c3 0B000000 		.4byte	.LVL5-1
 3262 00c7 0100     		.2byte	0x1
 3263 00c9 51       		.byte	0x51
 3264 00ca 0B000000 		.4byte	.LVL5-1
 3265 00ce 0E000000 		.4byte	.LFE41
 3266 00d2 0400     		.2byte	0x4
 3267 00d4 F3       		.byte	0xf3
 3268 00d5 01       		.uleb128 0x1
 3269 00d6 51       		.byte	0x51
 3270 00d7 9F       		.byte	0x9f
 3271 00d8 00000000 		.4byte	0
 3272 00dc 00000000 		.4byte	0
 3273              	.LLST6:
 3274 00e0 00000000 		.4byte	.LVL3
 3275 00e4 0B000000 		.4byte	.LVL5-1
 3276 00e8 0100     		.2byte	0x1
 3277 00ea 52       		.byte	0x52
 3278 00eb 0B000000 		.4byte	.LVL5-1
 3279 00ef 0E000000 		.4byte	.LFE41
 3280 00f3 0400     		.2byte	0x4
 3281 00f5 F3       		.byte	0xf3
 3282 00f6 01       		.uleb128 0x1
 3283 00f7 52       		.byte	0x52
 3284 00f8 9F       		.byte	0x9f
 3285 00f9 00000000 		.4byte	0
 3286 00fd 00000000 		.4byte	0
 3287              	.LLST7:
 3288 0101 00000000 		.4byte	.LVL6
 3289 0105 04000000 		.4byte	.LVL7
 3290 0109 0100     		.2byte	0x1
 3291 010b 50       		.byte	0x50
 3292 010c 04000000 		.4byte	.LVL7
 3293 0110 07000000 		.4byte	.LVL8-1
 3294 0114 0300     		.2byte	0x3
 3295 0116 70       		.byte	0x70
 3296 0117 50       		.sleb128 -48
 3297 0118 9F       		.byte	0x9f
 3298 0119 07000000 		.4byte	.LVL8-1
 3299 011d 0A000000 		.4byte	.LFE46
ARM GAS  /tmp/cc08iglp.s 			page 59


 3300 0121 0400     		.2byte	0x4
 3301 0123 F3       		.byte	0xf3
 3302 0124 01       		.uleb128 0x1
 3303 0125 50       		.byte	0x50
 3304 0126 9F       		.byte	0x9f
 3305 0127 00000000 		.4byte	0
 3306 012b 00000000 		.4byte	0
 3307              	.LLST8:
 3308 012f 00000000 		.4byte	.LVL6
 3309 0133 07000000 		.4byte	.LVL8-1
 3310 0137 0100     		.2byte	0x1
 3311 0139 51       		.byte	0x51
 3312 013a 07000000 		.4byte	.LVL8-1
 3313 013e 0A000000 		.4byte	.LFE46
 3314 0142 0400     		.2byte	0x4
 3315 0144 F3       		.byte	0xf3
 3316 0145 01       		.uleb128 0x1
 3317 0146 51       		.byte	0x51
 3318 0147 9F       		.byte	0x9f
 3319 0148 00000000 		.4byte	0
 3320 014c 00000000 		.4byte	0
 3321              	.LLST9:
 3322 0150 00000000 		.4byte	.LVL6
 3323 0154 07000000 		.4byte	.LVL8-1
 3324 0158 0100     		.2byte	0x1
 3325 015a 52       		.byte	0x52
 3326 015b 07000000 		.4byte	.LVL8-1
 3327 015f 0A000000 		.4byte	.LFE46
 3328 0163 0400     		.2byte	0x4
 3329 0165 F3       		.byte	0xf3
 3330 0166 01       		.uleb128 0x1
 3331 0167 52       		.byte	0x52
 3332 0168 9F       		.byte	0x9f
 3333 0169 00000000 		.4byte	0
 3334 016d 00000000 		.4byte	0
 3335              	.LLST10:
 3336 0171 00000000 		.4byte	.LVL6
 3337 0175 07000000 		.4byte	.LVL8-1
 3338 0179 0100     		.2byte	0x1
 3339 017b 53       		.byte	0x53
 3340 017c 07000000 		.4byte	.LVL8-1
 3341 0180 0A000000 		.4byte	.LFE46
 3342 0184 0400     		.2byte	0x4
 3343 0186 F3       		.byte	0xf3
 3344 0187 01       		.uleb128 0x1
 3345 0188 53       		.byte	0x53
 3346 0189 9F       		.byte	0x9f
 3347 018a 00000000 		.4byte	0
 3348 018e 00000000 		.4byte	0
 3349              	.LLST11:
 3350 0192 00000000 		.4byte	.LVL9
 3351 0196 06000000 		.4byte	.LVL10
 3352 019a 0100     		.2byte	0x1
 3353 019c 50       		.byte	0x50
 3354 019d 06000000 		.4byte	.LVL10
 3355 01a1 0B000000 		.4byte	.LVL11-1
 3356 01a5 0300     		.2byte	0x3
ARM GAS  /tmp/cc08iglp.s 			page 60


 3357 01a7 70       		.byte	0x70
 3358 01a8 50       		.sleb128 -48
 3359 01a9 9F       		.byte	0x9f
 3360 01aa 0B000000 		.4byte	.LVL11-1
 3361 01ae 0E000000 		.4byte	.LFE40
 3362 01b2 0400     		.2byte	0x4
 3363 01b4 F3       		.byte	0xf3
 3364 01b5 01       		.uleb128 0x1
 3365 01b6 50       		.byte	0x50
 3366 01b7 9F       		.byte	0x9f
 3367 01b8 00000000 		.4byte	0
 3368 01bc 00000000 		.4byte	0
 3369              	.LLST12:
 3370 01c0 00000000 		.4byte	.LVL9
 3371 01c4 0B000000 		.4byte	.LVL11-1
 3372 01c8 0100     		.2byte	0x1
 3373 01ca 51       		.byte	0x51
 3374 01cb 0B000000 		.4byte	.LVL11-1
 3375 01cf 0E000000 		.4byte	.LFE40
 3376 01d3 0400     		.2byte	0x4
 3377 01d5 F3       		.byte	0xf3
 3378 01d6 01       		.uleb128 0x1
 3379 01d7 51       		.byte	0x51
 3380 01d8 9F       		.byte	0x9f
 3381 01d9 00000000 		.4byte	0
 3382 01dd 00000000 		.4byte	0
 3383              	.LLST13:
 3384 01e1 00000000 		.4byte	.LVL9
 3385 01e5 0B000000 		.4byte	.LVL11-1
 3386 01e9 0100     		.2byte	0x1
 3387 01eb 52       		.byte	0x52
 3388 01ec 0B000000 		.4byte	.LVL11-1
 3389 01f0 0E000000 		.4byte	.LFE40
 3390 01f4 0400     		.2byte	0x4
 3391 01f6 F3       		.byte	0xf3
 3392 01f7 01       		.uleb128 0x1
 3393 01f8 52       		.byte	0x52
 3394 01f9 9F       		.byte	0x9f
 3395 01fa 00000000 		.4byte	0
 3396 01fe 00000000 		.4byte	0
 3397              	.LLST14:
 3398 0202 00000000 		.4byte	.LVL12
 3399 0206 04000000 		.4byte	.LVL13
 3400 020a 0100     		.2byte	0x1
 3401 020c 50       		.byte	0x50
 3402 020d 04000000 		.4byte	.LVL13
 3403 0211 07000000 		.4byte	.LVL14-1
 3404 0215 0300     		.2byte	0x3
 3405 0217 70       		.byte	0x70
 3406 0218 74       		.sleb128 -12
 3407 0219 9F       		.byte	0x9f
 3408 021a 07000000 		.4byte	.LVL14-1
 3409 021e 0A000000 		.4byte	.LFE45
 3410 0222 0400     		.2byte	0x4
 3411 0224 F3       		.byte	0xf3
 3412 0225 01       		.uleb128 0x1
 3413 0226 50       		.byte	0x50
ARM GAS  /tmp/cc08iglp.s 			page 61


 3414 0227 9F       		.byte	0x9f
 3415 0228 00000000 		.4byte	0
 3416 022c 00000000 		.4byte	0
 3417              	.LLST15:
 3418 0230 00000000 		.4byte	.LVL12
 3419 0234 07000000 		.4byte	.LVL14-1
 3420 0238 0100     		.2byte	0x1
 3421 023a 51       		.byte	0x51
 3422 023b 07000000 		.4byte	.LVL14-1
 3423 023f 0A000000 		.4byte	.LFE45
 3424 0243 0400     		.2byte	0x4
 3425 0245 F3       		.byte	0xf3
 3426 0246 01       		.uleb128 0x1
 3427 0247 51       		.byte	0x51
 3428 0248 9F       		.byte	0x9f
 3429 0249 00000000 		.4byte	0
 3430 024d 00000000 		.4byte	0
 3431              	.LLST16:
 3432 0251 00000000 		.4byte	.LVL15
 3433 0255 06000000 		.4byte	.LVL16
 3434 0259 0100     		.2byte	0x1
 3435 025b 50       		.byte	0x50
 3436 025c 06000000 		.4byte	.LVL16
 3437 0260 0B000000 		.4byte	.LVL17-1
 3438 0264 0300     		.2byte	0x3
 3439 0266 70       		.byte	0x70
 3440 0267 74       		.sleb128 -12
 3441 0268 9F       		.byte	0x9f
 3442 0269 0B000000 		.4byte	.LVL17-1
 3443 026d 0E000000 		.4byte	.LFE43
 3444 0271 0400     		.2byte	0x4
 3445 0273 F3       		.byte	0xf3
 3446 0274 01       		.uleb128 0x1
 3447 0275 50       		.byte	0x50
 3448 0276 9F       		.byte	0x9f
 3449 0277 00000000 		.4byte	0
 3450 027b 00000000 		.4byte	0
 3451              	.LLST17:
 3452 027f 00000000 		.4byte	.LVL18
 3453 0283 04000000 		.4byte	.LVL19
 3454 0287 0100     		.2byte	0x1
 3455 0289 50       		.byte	0x50
 3456 028a 04000000 		.4byte	.LVL19
 3457 028e 07000000 		.4byte	.LVL20-1
 3458 0292 0300     		.2byte	0x3
 3459 0294 70       		.byte	0x70
 3460 0295 50       		.sleb128 -48
 3461 0296 9F       		.byte	0x9f
 3462 0297 07000000 		.4byte	.LVL20-1
 3463 029b 0A000000 		.4byte	.LFE44
 3464 029f 0400     		.2byte	0x4
 3465 02a1 F3       		.byte	0xf3
 3466 02a2 01       		.uleb128 0x1
 3467 02a3 50       		.byte	0x50
 3468 02a4 9F       		.byte	0x9f
 3469 02a5 00000000 		.4byte	0
 3470 02a9 00000000 		.4byte	0
ARM GAS  /tmp/cc08iglp.s 			page 62


 3471              	.LLST18:
 3472 02ad 00000000 		.4byte	.LVL18
 3473 02b1 07000000 		.4byte	.LVL20-1
 3474 02b5 0100     		.2byte	0x1
 3475 02b7 51       		.byte	0x51
 3476 02b8 07000000 		.4byte	.LVL20-1
 3477 02bc 0A000000 		.4byte	.LFE44
 3478 02c0 0400     		.2byte	0x4
 3479 02c2 F3       		.byte	0xf3
 3480 02c3 01       		.uleb128 0x1
 3481 02c4 51       		.byte	0x51
 3482 02c5 9F       		.byte	0x9f
 3483 02c6 00000000 		.4byte	0
 3484 02ca 00000000 		.4byte	0
 3485              	.LLST19:
 3486 02ce 00000000 		.4byte	.LVL18
 3487 02d2 07000000 		.4byte	.LVL20-1
 3488 02d6 0100     		.2byte	0x1
 3489 02d8 52       		.byte	0x52
 3490 02d9 07000000 		.4byte	.LVL20-1
 3491 02dd 0A000000 		.4byte	.LFE44
 3492 02e1 0400     		.2byte	0x4
 3493 02e3 F3       		.byte	0xf3
 3494 02e4 01       		.uleb128 0x1
 3495 02e5 52       		.byte	0x52
 3496 02e6 9F       		.byte	0x9f
 3497 02e7 00000000 		.4byte	0
 3498 02eb 00000000 		.4byte	0
 3499              	.LLST20:
 3500 02ef 00000000 		.4byte	.LVL21
 3501 02f3 06000000 		.4byte	.LVL22
 3502 02f7 0100     		.2byte	0x1
 3503 02f9 50       		.byte	0x50
 3504 02fa 06000000 		.4byte	.LVL22
 3505 02fe 0B000000 		.4byte	.LVL23-1
 3506 0302 0300     		.2byte	0x3
 3507 0304 70       		.byte	0x70
 3508 0305 50       		.sleb128 -48
 3509 0306 9F       		.byte	0x9f
 3510 0307 0B000000 		.4byte	.LVL23-1
 3511 030b 0E000000 		.4byte	.LFE42
 3512 030f 0400     		.2byte	0x4
 3513 0311 F3       		.byte	0xf3
 3514 0312 01       		.uleb128 0x1
 3515 0313 50       		.byte	0x50
 3516 0314 9F       		.byte	0x9f
 3517 0315 00000000 		.4byte	0
 3518 0319 00000000 		.4byte	0
 3519              	.LLST21:
 3520 031d 00000000 		.4byte	.LVL21
 3521 0321 0B000000 		.4byte	.LVL23-1
 3522 0325 0100     		.2byte	0x1
 3523 0327 51       		.byte	0x51
 3524 0328 0B000000 		.4byte	.LVL23-1
 3525 032c 0E000000 		.4byte	.LFE42
 3526 0330 0400     		.2byte	0x4
 3527 0332 F3       		.byte	0xf3
ARM GAS  /tmp/cc08iglp.s 			page 63


 3528 0333 01       		.uleb128 0x1
 3529 0334 51       		.byte	0x51
 3530 0335 9F       		.byte	0x9f
 3531 0336 00000000 		.4byte	0
 3532 033a 00000000 		.4byte	0
 3533              	.LLST22:
 3534 033e 00000000 		.4byte	.LVL25
 3535 0342 0A000000 		.4byte	.LVL27
 3536 0346 0100     		.2byte	0x1
 3537 0348 50       		.byte	0x50
 3538 0349 0A000000 		.4byte	.LVL27
 3539 034d 38000000 		.4byte	.LVL31
 3540 0351 0100     		.2byte	0x1
 3541 0353 54       		.byte	0x54
 3542 0354 38000000 		.4byte	.LVL31
 3543 0358 40000000 		.4byte	.LFE49
 3544 035c 0400     		.2byte	0x4
 3545 035e F3       		.byte	0xf3
 3546 035f 01       		.uleb128 0x1
 3547 0360 50       		.byte	0x50
 3548 0361 9F       		.byte	0x9f
 3549 0362 00000000 		.4byte	0
 3550 0366 00000000 		.4byte	0
 3551              	.LLST23:
 3552 036a 00000000 		.4byte	.LVL25
 3553 036e 16000000 		.4byte	.LVL28
 3554 0372 0100     		.2byte	0x1
 3555 0374 51       		.byte	0x51
 3556 0375 16000000 		.4byte	.LVL28
 3557 0379 23000000 		.4byte	.LVL29-1
 3558 037d 0100     		.2byte	0x1
 3559 037f 53       		.byte	0x53
 3560 0380 23000000 		.4byte	.LVL29-1
 3561 0384 40000000 		.4byte	.LFE49
 3562 0388 0400     		.2byte	0x4
 3563 038a F3       		.byte	0xf3
 3564 038b 01       		.uleb128 0x1
 3565 038c 51       		.byte	0x51
 3566 038d 9F       		.byte	0x9f
 3567 038e 00000000 		.4byte	0
 3568 0392 00000000 		.4byte	0
 3569              	.LLST24:
 3570 0396 00000000 		.4byte	.LVL25
 3571 039a 06000000 		.4byte	.LVL26
 3572 039e 0100     		.2byte	0x1
 3573 03a0 52       		.byte	0x52
 3574 03a1 06000000 		.4byte	.LVL26
 3575 03a5 38000000 		.4byte	.LVL32
 3576 03a9 0100     		.2byte	0x1
 3577 03ab 55       		.byte	0x55
 3578 03ac 38000000 		.4byte	.LVL32
 3579 03b0 40000000 		.4byte	.LFE49
 3580 03b4 0400     		.2byte	0x4
 3581 03b6 F3       		.byte	0xf3
 3582 03b7 01       		.uleb128 0x1
 3583 03b8 52       		.byte	0x52
 3584 03b9 9F       		.byte	0x9f
ARM GAS  /tmp/cc08iglp.s 			page 64


 3585 03ba 00000000 		.4byte	0
 3586 03be 00000000 		.4byte	0
 3587              	.LLST25:
 3588 03c2 00000000 		.4byte	.LVL33
 3589 03c6 09000000 		.4byte	.LVL34-1
 3590 03ca 0100     		.2byte	0x1
 3591 03cc 50       		.byte	0x50
 3592 03cd 09000000 		.4byte	.LVL34-1
 3593 03d1 10000000 		.4byte	.LVL35
 3594 03d5 0100     		.2byte	0x1
 3595 03d7 54       		.byte	0x54
 3596 03d8 10000000 		.4byte	.LVL35
 3597 03dc 12000000 		.4byte	.LFE50
 3598 03e0 0400     		.2byte	0x4
 3599 03e2 F3       		.byte	0xf3
 3600 03e3 01       		.uleb128 0x1
 3601 03e4 50       		.byte	0x50
 3602 03e5 9F       		.byte	0x9f
 3603 03e6 00000000 		.4byte	0
 3604 03ea 00000000 		.4byte	0
 3605              	.LLST26:
 3606 03ee 00000000 		.4byte	.LVL33
 3607 03f2 09000000 		.4byte	.LVL34-1
 3608 03f6 0100     		.2byte	0x1
 3609 03f8 51       		.byte	0x51
 3610 03f9 09000000 		.4byte	.LVL34-1
 3611 03fd 12000000 		.4byte	.LFE50
 3612 0401 0400     		.2byte	0x4
 3613 0403 F3       		.byte	0xf3
 3614 0404 01       		.uleb128 0x1
 3615 0405 51       		.byte	0x51
 3616 0406 9F       		.byte	0x9f
 3617 0407 00000000 		.4byte	0
 3618 040b 00000000 		.4byte	0
 3619              	.LLST27:
 3620 040f 00000000 		.4byte	.LVL36
 3621 0413 09000000 		.4byte	.LVL37-1
 3622 0417 0100     		.2byte	0x1
 3623 0419 50       		.byte	0x50
 3624 041a 09000000 		.4byte	.LVL37-1
 3625 041e 24000000 		.4byte	.LVL41
 3626 0422 0100     		.2byte	0x1
 3627 0424 54       		.byte	0x54
 3628 0425 24000000 		.4byte	.LVL41
 3629 0429 26000000 		.4byte	.LFE51
 3630 042d 0400     		.2byte	0x4
 3631 042f F3       		.byte	0xf3
 3632 0430 01       		.uleb128 0x1
 3633 0431 50       		.byte	0x50
 3634 0432 9F       		.byte	0x9f
 3635 0433 00000000 		.4byte	0
 3636 0437 00000000 		.4byte	0
 3637              	.LLST28:
 3638 043b 00000000 		.4byte	.LVL42
 3639 043f 10000000 		.4byte	.LVL43
 3640 0443 0100     		.2byte	0x1
 3641 0445 50       		.byte	0x50
ARM GAS  /tmp/cc08iglp.s 			page 65


 3642 0446 10000000 		.4byte	.LVL43
 3643 044a 1A000000 		.4byte	.LVL46
 3644 044e 0100     		.2byte	0x1
 3645 0450 54       		.byte	0x54
 3646 0451 1A000000 		.4byte	.LVL46
 3647 0455 1C000000 		.4byte	.LVL47
 3648 0459 0400     		.2byte	0x4
 3649 045b F3       		.byte	0xf3
 3650 045c 01       		.uleb128 0x1
 3651 045d 50       		.byte	0x50
 3652 045e 9F       		.byte	0x9f
 3653 045f 1C000000 		.4byte	.LVL47
 3654 0463 1E000000 		.4byte	.LVL48
 3655 0467 0100     		.2byte	0x1
 3656 0469 50       		.byte	0x50
 3657 046a 1E000000 		.4byte	.LVL48
 3658 046e 3C000000 		.4byte	.LFE52
 3659 0472 0100     		.2byte	0x1
 3660 0474 54       		.byte	0x54
 3661 0475 00000000 		.4byte	0
 3662 0479 00000000 		.4byte	0
 3663              	.LLST29:
 3664 047d 00000000 		.4byte	.LVL42
 3665 0481 12000000 		.4byte	.LVL44
 3666 0485 0100     		.2byte	0x1
 3667 0487 51       		.byte	0x51
 3668 0488 12000000 		.4byte	.LVL44
 3669 048c 1C000000 		.4byte	.LVL47
 3670 0490 0400     		.2byte	0x4
 3671 0492 F3       		.byte	0xf3
 3672 0493 01       		.uleb128 0x1
 3673 0494 51       		.byte	0x51
 3674 0495 9F       		.byte	0x9f
 3675 0496 1C000000 		.4byte	.LVL47
 3676 049a 20000000 		.4byte	.LVL49
 3677 049e 0100     		.2byte	0x1
 3678 04a0 51       		.byte	0x51
 3679 04a1 20000000 		.4byte	.LVL49
 3680 04a5 3C000000 		.4byte	.LFE52
 3681 04a9 0400     		.2byte	0x4
 3682 04ab F3       		.byte	0xf3
 3683 04ac 01       		.uleb128 0x1
 3684 04ad 51       		.byte	0x51
 3685 04ae 9F       		.byte	0x9f
 3686 04af 00000000 		.4byte	0
 3687 04b3 00000000 		.4byte	0
 3688              	.LLST30:
 3689 04b7 00000000 		.4byte	.LVL53
 3690 04bb 06000000 		.4byte	.LVL54
 3691 04bf 0100     		.2byte	0x1
 3692 04c1 50       		.byte	0x50
 3693 04c2 06000000 		.4byte	.LVL54
 3694 04c6 10000000 		.4byte	.LVL59
 3695 04ca 0100     		.2byte	0x1
 3696 04cc 55       		.byte	0x55
 3697 04cd 10000000 		.4byte	.LVL59
 3698 04d1 12000000 		.4byte	.LVL60
ARM GAS  /tmp/cc08iglp.s 			page 66


 3699 04d5 0400     		.2byte	0x4
 3700 04d7 F3       		.byte	0xf3
 3701 04d8 01       		.uleb128 0x1
 3702 04d9 50       		.byte	0x50
 3703 04da 9F       		.byte	0x9f
 3704 04db 12000000 		.4byte	.LVL60
 3705 04df 1C000000 		.4byte	.LFE53
 3706 04e3 0100     		.2byte	0x1
 3707 04e5 55       		.byte	0x55
 3708 04e6 00000000 		.4byte	0
 3709 04ea 00000000 		.4byte	0
 3710              	.LLST31:
 3711 04ee 0C000000 		.4byte	.LVL56
 3712 04f2 0E000000 		.4byte	.LVL57
 3713 04f6 0100     		.2byte	0x1
 3714 04f8 50       		.byte	0x50
 3715 04f9 0E000000 		.4byte	.LVL57
 3716 04fd 10000000 		.4byte	.LVL58
 3717 0501 0100     		.2byte	0x1
 3718 0503 54       		.byte	0x54
 3719 0504 10000000 		.4byte	.LVL58
 3720 0508 14000000 		.4byte	.LVL61
 3721 050c 0100     		.2byte	0x1
 3722 050e 50       		.byte	0x50
 3723 050f 14000000 		.4byte	.LVL61
 3724 0513 1C000000 		.4byte	.LFE53
 3725 0517 0100     		.2byte	0x1
 3726 0519 54       		.byte	0x54
 3727 051a 00000000 		.4byte	0
 3728 051e 00000000 		.4byte	0
 3729              		.section	.debug_aranges,"",%progbits
 3730 0000 84000000 		.4byte	0x84
 3731 0004 0200     		.2byte	0x2
 3732 0006 00000000 		.4byte	.Ldebug_info0
 3733 000a 04       		.byte	0x4
 3734 000b 00       		.byte	0
 3735 000c 0000     		.2byte	0
 3736 000e 0000     		.2byte	0
 3737 0010 00000000 		.4byte	.LFB47
 3738 0014 0A000000 		.4byte	.LFE47-.LFB47
 3739 0018 00000000 		.4byte	.LFB41
 3740 001c 0E000000 		.4byte	.LFE41-.LFB41
 3741 0020 00000000 		.4byte	.LFB46
 3742 0024 0A000000 		.4byte	.LFE46-.LFB46
 3743 0028 00000000 		.4byte	.LFB40
 3744 002c 0E000000 		.4byte	.LFE40-.LFB40
 3745 0030 00000000 		.4byte	.LFB45
 3746 0034 0A000000 		.4byte	.LFE45-.LFB45
 3747 0038 00000000 		.4byte	.LFB43
 3748 003c 0E000000 		.4byte	.LFE43-.LFB43
 3749 0040 00000000 		.4byte	.LFB44
 3750 0044 0A000000 		.4byte	.LFE44-.LFB44
 3751 0048 00000000 		.4byte	.LFB42
 3752 004c 0E000000 		.4byte	.LFE42-.LFB42
 3753 0050 00000000 		.4byte	.LFB48
 3754 0054 08000000 		.4byte	.LFE48-.LFB48
 3755 0058 00000000 		.4byte	.LFB49
ARM GAS  /tmp/cc08iglp.s 			page 67


 3756 005c 40000000 		.4byte	.LFE49-.LFB49
 3757 0060 00000000 		.4byte	.LFB50
 3758 0064 12000000 		.4byte	.LFE50-.LFB50
 3759 0068 00000000 		.4byte	.LFB51
 3760 006c 26000000 		.4byte	.LFE51-.LFB51
 3761 0070 00000000 		.4byte	.LFB52
 3762 0074 3C000000 		.4byte	.LFE52-.LFB52
 3763 0078 00000000 		.4byte	.LFB53
 3764 007c 1C000000 		.4byte	.LFE53-.LFB53
 3765 0080 00000000 		.4byte	0
 3766 0084 00000000 		.4byte	0
 3767              		.section	.debug_ranges,"",%progbits
 3768              	.Ldebug_ranges0:
 3769 0000 00000000 		.4byte	.LFB47
 3770 0004 0A000000 		.4byte	.LFE47
 3771 0008 00000000 		.4byte	.LFB41
 3772 000c 0E000000 		.4byte	.LFE41
 3773 0010 00000000 		.4byte	.LFB46
 3774 0014 0A000000 		.4byte	.LFE46
 3775 0018 00000000 		.4byte	.LFB40
 3776 001c 0E000000 		.4byte	.LFE40
 3777 0020 00000000 		.4byte	.LFB45
 3778 0024 0A000000 		.4byte	.LFE45
 3779 0028 00000000 		.4byte	.LFB43
 3780 002c 0E000000 		.4byte	.LFE43
 3781 0030 00000000 		.4byte	.LFB44
 3782 0034 0A000000 		.4byte	.LFE44
 3783 0038 00000000 		.4byte	.LFB42
 3784 003c 0E000000 		.4byte	.LFE42
 3785 0040 00000000 		.4byte	.LFB48
 3786 0044 08000000 		.4byte	.LFE48
 3787 0048 00000000 		.4byte	.LFB49
 3788 004c 40000000 		.4byte	.LFE49
 3789 0050 00000000 		.4byte	.LFB50
 3790 0054 12000000 		.4byte	.LFE50
 3791 0058 00000000 		.4byte	.LFB51
 3792 005c 26000000 		.4byte	.LFE51
 3793 0060 00000000 		.4byte	.LFB52
 3794 0064 3C000000 		.4byte	.LFE52
 3795 0068 00000000 		.4byte	.LFB53
 3796 006c 1C000000 		.4byte	.LFE53
 3797 0070 00000000 		.4byte	0
 3798 0074 00000000 		.4byte	0
 3799              		.section	.debug_line,"",%progbits
 3800              	.Ldebug_line0:
 3801 0000 08030000 		.section	.debug_str,"MS",%progbits,1
 3801      0200E701 
 3801      00000201 
 3801      FB0E0D00 
 3801      01010101 
 3802              	.LASF50:
 3803 0000 54687265 		.ascii	"ThreadsList\000"
 3803      6164734C 
 3803      69737400 
 3804              	.LASF42:
 3805 000c 705F7761 		.ascii	"p_waiting\000"
 3805      6974696E 
ARM GAS  /tmp/cc08iglp.s 			page 68


 3805      6700
 3806              	.LASF95:
 3807 0016 53657269 		.ascii	"SerialDriver\000"
 3807      616C4472 
 3807      69766572 
 3807      00
 3808              	.LASF113:
 3809 0023 7364496E 		.ascii	"sdInit\000"
 3809      697400
 3810              	.LASF41:
 3811 002a 705F7469 		.ascii	"p_time\000"
 3811      6D6500
 3812              	.LASF123:
 3813 0031 63684951 		.ascii	"chIQGetTimeout\000"
 3813      47657454 
 3813      696D656F 
 3813      757400
 3814              	.LASF51:
 3815 0040 72656761 		.ascii	"regarm_t\000"
 3815      726D5F74 
 3815      00
 3816              	.LASF32:
 3817 0049 705F7072 		.ascii	"p_prio\000"
 3817      696F00
 3818              	.LASF138:
 3819 0050 2F686F6D 		.ascii	"/home/ece497/vbox-shared/mplayer/ChibiOS-RT-stable_"
 3819      652F6563 
 3819      65343937 
 3819      2F76626F 
 3819      782D7368 
 3820 0083 322E362E 		.ascii	"2.6.x/demos/ARMCM0-STM32F051-DISCOVERY\000"
 3820      782F6465 
 3820      6D6F732F 
 3820      41524D43 
 3820      4D302D53 
 3821              	.LASF28:
 3822 00aa 73797374 		.ascii	"systime_t\000"
 3822      696D655F 
 3822      7400
 3823              	.LASF57:
 3824 00b4 6D5F6F77 		.ascii	"m_owner\000"
 3824      6E657200 
 3825              	.LASF43:
 3826 00bc 705F6D73 		.ascii	"p_msgqueue\000"
 3826      67717565 
 3826      756500
 3827              	.LASF0:
 3828 00c7 756E7369 		.ascii	"unsigned int\000"
 3828      676E6564 
 3828      20696E74 
 3828      00
 3829              	.LASF121:
 3830 00d4 63684951 		.ascii	"chIQReadTimeout\000"
 3830      52656164 
 3830      54696D65 
 3830      6F757400 
 3831              	.LASF125:
ARM GAS  /tmp/cc08iglp.s 			page 69


 3832 00e4 63684951 		.ascii	"chIQInit\000"
 3832      496E6974 
 3832      00
 3833              	.LASF77:
 3834 00ed 715F7264 		.ascii	"q_rdptr\000"
 3834      70747200 
 3835              	.LASF8:
 3836 00f5 5F5F696E 		.ascii	"__int32_t\000"
 3836      7433325F 
 3836      7400
 3837              	.LASF80:
 3838 00ff 716E6F74 		.ascii	"qnotify_t\000"
 3838      6966795F 
 3838      7400
 3839              	.LASF62:
 3840 0109 656C5F6D 		.ascii	"el_mask\000"
 3840      61736B00 
 3841              	.LASF68:
 3842 0111 77746F62 		.ascii	"wtobjp\000"
 3842      6A7000
 3843              	.LASF79:
 3844 0118 715F6C69 		.ascii	"q_link\000"
 3844      6E6B00
 3845              	.LASF114:
 3846 011f 73644F62 		.ascii	"sdObjectInit\000"
 3846      6A656374 
 3846      496E6974 
 3846      00
 3847              	.LASF69:
 3848 012c 65776D61 		.ascii	"ewmask\000"
 3848      736B00
 3849              	.LASF120:
 3850 0133 7364496E 		.ascii	"sdIncomingDataI\000"
 3850      636F6D69 
 3850      6E674461 
 3850      74614900 
 3851              	.LASF102:
 3852 0143 73706565 		.ascii	"speed\000"
 3852      6400
 3853              	.LASF109:
 3854 0149 77726974 		.ascii	"writet\000"
 3854      657400
 3855              	.LASF84:
 3856 0150 47545052 		.ascii	"GTPR\000"
 3856      00
 3857              	.LASF98:
 3858 0155 69717565 		.ascii	"iqueue\000"
 3858      756500
 3859              	.LASF17:
 3860 015c 75696E74 		.ascii	"uint32_t\000"
 3860      33325F74 
 3860      00
 3861              	.LASF130:
 3862 0165 63684951 		.ascii	"chIQResetI\000"
 3862      52657365 
 3862      744900
 3863              	.LASF139:
ARM GAS  /tmp/cc08iglp.s 			page 70


 3864 0170 73645265 		.ascii	"sdRequestDataI\000"
 3864      71756573 
 3864      74446174 
 3864      614900
 3865              	.LASF26:
 3866 017f 6576656E 		.ascii	"eventmask_t\000"
 3866      746D6173 
 3866      6B5F7400 
 3867              	.LASF103:
 3868 018b 53657269 		.ascii	"SerialConfig\000"
 3868      616C436F 
 3868      6E666967 
 3868      00
 3869              	.LASF94:
 3870 0198 73647374 		.ascii	"sdstate_t\000"
 3870      6174655F 
 3870      7400
 3871              	.LASF96:
 3872 01a2 6576656E 		.ascii	"event\000"
 3872      7400
 3873              	.LASF24:
 3874 01a8 74707269 		.ascii	"tprio_t\000"
 3874      6F5F7400 
 3875              	.LASF13:
 3876 01b0 6C6F6E67 		.ascii	"long long unsigned int\000"
 3876      206C6F6E 
 3876      6720756E 
 3876      7369676E 
 3876      65642069 
 3877              	.LASF137:
 3878 01c7 2E2E2F2E 		.ascii	"../../os/hal/src/serial.c\000"
 3878      2E2F6F73 
 3878      2F68616C 
 3878      2F737263 
 3878      2F736572 
 3879              	.LASF122:
 3880 01e1 63684F51 		.ascii	"chOQWriteTimeout\000"
 3880      57726974 
 3880      6554696D 
 3880      656F7574 
 3880      00
 3881              	.LASF6:
 3882 01f2 5F5F7569 		.ascii	"__uint16_t\000"
 3882      6E743136 
 3882      5F7400
 3883              	.LASF117:
 3884 01fd 73645374 		.ascii	"sdStart\000"
 3884      61727400 
 3885              	.LASF111:
 3886 0205 74696D65 		.ascii	"time\000"
 3886      00
 3887              	.LASF34:
 3888 020a 705F6E65 		.ascii	"p_newer\000"
 3888      77657200 
 3889              	.LASF72:
 3890 0212 715F7761 		.ascii	"q_waiting\000"
 3890      6974696E 
ARM GAS  /tmp/cc08iglp.s 			page 71


 3890      6700
 3891              	.LASF136:
 3892 021c 474E5520 		.ascii	"GNU C 4.8.2 -mcpu=cortex-m0 -mno-thumb-interwork -m"
 3892      4320342E 
 3892      382E3220 
 3892      2D6D6370 
 3892      753D636F 
 3893 024f 7468756D 		.ascii	"thumb -ggdb -O2 -fomit-frame-pointer -falign-functi"
 3893      62202D67 
 3893      67646220 
 3893      2D4F3220 
 3893      2D666F6D 
 3894 0282 6F6E733D 		.ascii	"ons=16 -ffunction-sections -fdata-sections -fno-com"
 3894      3136202D 
 3894      6666756E 
 3894      6374696F 
 3894      6E2D7365 
 3895 02b5 6D6F6E00 		.ascii	"mon\000"
 3896              	.LASF107:
 3897 02b9 70757474 		.ascii	"putt\000"
 3897      00
 3898              	.LASF64:
 3899 02be 4576656E 		.ascii	"EventSource\000"
 3899      74536F75 
 3899      72636500 
 3900              	.LASF2:
 3901 02ca 73697A65 		.ascii	"size_t\000"
 3901      5F7400
 3902              	.LASF66:
 3903 02d1 7264796D 		.ascii	"rdymsg\000"
 3903      736700
 3904              	.LASF115:
 3905 02d8 696E6F74 		.ascii	"inotify\000"
 3905      69667900 
 3906              	.LASF18:
 3907 02e0 626F6F6C 		.ascii	"bool_t\000"
 3907      5F7400
 3908              	.LASF19:
 3909 02e7 5F426F6F 		.ascii	"_Bool\000"
 3909      6C00
 3910              	.LASF92:
 3911 02ed 53445F53 		.ascii	"SD_STOP\000"
 3911      544F5000 
 3912              	.LASF90:
 3913 02f5 55534152 		.ascii	"USART_TypeDef\000"
 3913      545F5479 
 3913      70654465 
 3913      6600
 3914              	.LASF132:
 3915 0303 63685363 		.ascii	"chSchRescheduleS\000"
 3915      68526573 
 3915      63686564 
 3915      756C6553 
 3915      00
 3916              	.LASF55:
 3917 0314 4D757465 		.ascii	"Mutex\000"
 3917      7800
ARM GAS  /tmp/cc08iglp.s 			page 72


 3918              	.LASF82:
 3919 031a 4F757470 		.ascii	"OutputQueue\000"
 3919      75745175 
 3919      65756500 
 3920              	.LASF78:
 3921 0326 715F6E6F 		.ascii	"q_notify\000"
 3921      74696679 
 3921      00
 3922              	.LASF101:
 3923 032f 636C6F63 		.ascii	"clock\000"
 3923      6B00
 3924              	.LASF36:
 3925 0335 705F6E61 		.ascii	"p_name\000"
 3925      6D6500
 3926              	.LASF81:
 3927 033c 496E7075 		.ascii	"InputQueue\000"
 3927      74517565 
 3927      756500
 3928              	.LASF49:
 3929 0347 54687265 		.ascii	"ThreadsQueue\000"
 3929      61647351 
 3929      75657565 
 3929      00
 3930              	.LASF70:
 3931 0354 63686172 		.ascii	"char\000"
 3931      00
 3932              	.LASF76:
 3933 0359 715F7772 		.ascii	"q_wrptr\000"
 3933      70747200 
 3934              	.LASF29:
 3935 0361 54687265 		.ascii	"Thread\000"
 3935      616400
 3936              	.LASF21:
 3937 0368 74737461 		.ascii	"tstate_t\000"
 3937      74655F74 
 3937      00
 3938              	.LASF134:
 3939 0371 63684576 		.ascii	"chEvtBroadcastFlagsI\000"
 3939      7442726F 
 3939      61646361 
 3939      7374466C 
 3939      61677349 
 3940              	.LASF35:
 3941 0386 705F6F6C 		.ascii	"p_older\000"
 3941      64657200 
 3942              	.LASF37:
 3943 038e 705F7374 		.ascii	"p_state\000"
 3943      61746500 
 3944              	.LASF14:
 3945 0396 75696E74 		.ascii	"uint8_t\000"
 3945      385F7400 
 3946              	.LASF27:
 3947 039e 666C6167 		.ascii	"flagsmask_t\000"
 3947      736D6173 
 3947      6B5F7400 
 3948              	.LASF86:
 3949 03aa 52544F52 		.ascii	"RTOR\000"
ARM GAS  /tmp/cc08iglp.s 			page 73


 3949      00
 3950              	.LASF48:
 3951 03af 705F6D70 		.ascii	"p_mpool\000"
 3951      6F6F6C00 
 3952              	.LASF46:
 3953 03b7 705F6D74 		.ascii	"p_mtxlist\000"
 3953      786C6973 
 3953      7400
 3954              	.LASF100:
 3955 03c1 75736172 		.ascii	"usart\000"
 3955      7400
 3956              	.LASF12:
 3957 03c7 6C6F6E67 		.ascii	"long long int\000"
 3957      206C6F6E 
 3957      6720696E 
 3957      7400
 3958              	.LASF105:
 3959 03d5 77726974 		.ascii	"write\000"
 3959      6500
 3960              	.LASF74:
 3961 03db 715F6275 		.ascii	"q_buffer\000"
 3961      66666572 
 3961      00
 3962              	.LASF25:
 3963 03e4 6D73675F 		.ascii	"msg_t\000"
 3963      7400
 3964              	.LASF128:
 3965 03ea 73645F6C 		.ascii	"sd_lld_stop\000"
 3965      6C645F73 
 3965      746F7000 
 3966              	.LASF53:
 3967 03f6 636F6E74 		.ascii	"context\000"
 3967      65787400 
 3968              	.LASF38:
 3969 03fe 705F666C 		.ascii	"p_flags\000"
 3969      61677300 
 3970              	.LASF119:
 3971 0406 73645374 		.ascii	"sdStop\000"
 3971      6F7000
 3972              	.LASF23:
 3973 040d 74736C69 		.ascii	"tslices_t\000"
 3973      6365735F 
 3973      7400
 3974              	.LASF133:
 3975 0417 63684951 		.ascii	"chIQPutI\000"
 3975      50757449 
 3975      00
 3976              	.LASF127:
 3977 0420 73645F6C 		.ascii	"sd_lld_start\000"
 3977      6C645F73 
 3977      74617274 
 3977      00
 3978              	.LASF60:
 3979 042d 656C5F6E 		.ascii	"el_next\000"
 3979      65787400 
 3980              	.LASF44:
 3981 0435 705F6D73 		.ascii	"p_msg\000"
ARM GAS  /tmp/cc08iglp.s 			page 74


 3981      6700
 3982              	.LASF20:
 3983 043b 746D6F64 		.ascii	"tmode_t\000"
 3983      655F7400 
 3984              	.LASF71:
 3985 0443 47656E65 		.ascii	"GenericQueue\000"
 3985      72696351 
 3985      75657565 
 3985      00
 3986              	.LASF99:
 3987 0450 6F717565 		.ascii	"oqueue\000"
 3987      756500
 3988              	.LASF15:
 3989 0457 75696E74 		.ascii	"uint16_t\000"
 3989      31365F74 
 3989      00
 3990              	.LASF52:
 3991 0460 696E7463 		.ascii	"intctx\000"
 3991      747800
 3992              	.LASF93:
 3993 0467 53445F52 		.ascii	"SD_READY\000"
 3993      45414459 
 3993      00
 3994              	.LASF104:
 3995 0470 53657269 		.ascii	"SerialDriverVMT\000"
 3995      616C4472 
 3995      69766572 
 3995      564D5400 
 3996              	.LASF118:
 3997 0480 636F6E66 		.ascii	"config\000"
 3997      696700
 3998              	.LASF47:
 3999 0487 705F7265 		.ascii	"p_realprio\000"
 3999      616C7072 
 3999      696F00
 4000              	.LASF83:
 4001 0492 52455345 		.ascii	"RESERVED1\000"
 4001      52564544 
 4001      3100
 4002              	.LASF85:
 4003 049c 52455345 		.ascii	"RESERVED2\000"
 4003      52564544 
 4003      3200
 4004              	.LASF87:
 4005 04a6 52455345 		.ascii	"RESERVED3\000"
 4005      52564544 
 4005      3300
 4006              	.LASF88:
 4007 04b0 52455345 		.ascii	"RESERVED4\000"
 4007      52564544 
 4007      3400
 4008              	.LASF89:
 4009 04ba 52455345 		.ascii	"RESERVED5\000"
 4009      52564544 
 4009      3500
 4010              	.LASF5:
 4011 04c4 73686F72 		.ascii	"short int\000"
ARM GAS  /tmp/cc08iglp.s 			page 75


 4011      7420696E 
 4011      7400
 4012              	.LASF45:
 4013 04ce 705F6570 		.ascii	"p_epending\000"
 4013      656E6469 
 4013      6E6700
 4014              	.LASF56:
 4015 04d9 6D5F7175 		.ascii	"m_queue\000"
 4015      65756500 
 4016              	.LASF9:
 4017 04e1 6C6F6E67 		.ascii	"long int\000"
 4017      20696E74 
 4017      00
 4018              	.LASF116:
 4019 04ea 6F6E6F74 		.ascii	"onotify\000"
 4019      69667900 
 4020              	.LASF30:
 4021 04f2 705F6E65 		.ascii	"p_next\000"
 4021      787400
 4022              	.LASF33:
 4023 04f9 705F6374 		.ascii	"p_ctx\000"
 4023      7800
 4024              	.LASF3:
 4025 04ff 5F5F7569 		.ascii	"__uint8_t\000"
 4025      6E74385F 
 4025      7400
 4026              	.LASF106:
 4027 0509 72656164 		.ascii	"read\000"
 4027      00
 4028              	.LASF61:
 4029 050e 656C5F6C 		.ascii	"el_listener\000"
 4029      69737465 
 4029      6E657200 
 4030              	.LASF91:
 4031 051a 53445F55 		.ascii	"SD_UNINIT\000"
 4031      4E494E49 
 4031      5400
 4032              	.LASF135:
 4033 0524 63684F51 		.ascii	"chOQGetI\000"
 4033      47657449 
 4033      00
 4034              	.LASF73:
 4035 052d 715F636F 		.ascii	"q_counter\000"
 4035      756E7465 
 4035      7200
 4036              	.LASF108:
 4037 0537 67657474 		.ascii	"gett\000"
 4037      00
 4038              	.LASF75:
 4039 053c 715F746F 		.ascii	"q_top\000"
 4039      7000
 4040              	.LASF31:
 4041 0542 705F7072 		.ascii	"p_prev\000"
 4041      657600
 4042              	.LASF54:
 4043 0549 73697A65 		.ascii	"sizetype\000"
 4043      74797065 
ARM GAS  /tmp/cc08iglp.s 			page 76


 4043      00
 4044              	.LASF22:
 4045 0552 74726566 		.ascii	"trefs_t\000"
 4045      735F7400 
 4046              	.LASF59:
 4047 055a 4576656E 		.ascii	"EventListener\000"
 4047      744C6973 
 4047      74656E65 
 4047      7200
 4048              	.LASF11:
 4049 0568 6C6F6E67 		.ascii	"long unsigned int\000"
 4049      20756E73 
 4049      69676E65 
 4049      6420696E 
 4049      7400
 4050              	.LASF16:
 4051 057a 696E7433 		.ascii	"int32_t\000"
 4051      325F7400 
 4052              	.LASF126:
 4053 0582 63684F51 		.ascii	"chOQInit\000"
 4053      496E6974 
 4053      00
 4054              	.LASF4:
 4055 058b 756E7369 		.ascii	"unsigned char\000"
 4055      676E6564 
 4055      20636861 
 4055      7200
 4056              	.LASF10:
 4057 0599 5F5F7569 		.ascii	"__uint32_t\000"
 4057      6E743332 
 4057      5F7400
 4058              	.LASF39:
 4059 05a4 705F7265 		.ascii	"p_refs\000"
 4059      667300
 4060              	.LASF112:
 4061 05ab 74696D65 		.ascii	"timeout\000"
 4061      6F757400 
 4062              	.LASF124:
 4063 05b3 63684F51 		.ascii	"chOQPutTimeout\000"
 4063      50757454 
 4063      696D656F 
 4063      757400
 4064              	.LASF40:
 4065 05c2 705F7072 		.ascii	"p_preempt\000"
 4065      65656D70 
 4065      7400
 4066              	.LASF65:
 4067 05cc 65735F6E 		.ascii	"es_next\000"
 4067      65787400 
 4068              	.LASF97:
 4069 05d4 73746174 		.ascii	"state\000"
 4069      6500
 4070              	.LASF58:
 4071 05da 6D5F6E65 		.ascii	"m_next\000"
 4071      787400
 4072              	.LASF1:
 4073 05e1 7369676E 		.ascii	"signed char\000"
ARM GAS  /tmp/cc08iglp.s 			page 77


 4073      65642063 
 4073      68617200 
 4074              	.LASF110:
 4075 05ed 72656164 		.ascii	"readt\000"
 4075      7400
 4076              	.LASF7:
 4077 05f3 73686F72 		.ascii	"short unsigned int\000"
 4077      7420756E 
 4077      7369676E 
 4077      65642069 
 4077      6E7400
 4078              	.LASF129:
 4079 0606 63684F51 		.ascii	"chOQResetI\000"
 4079      52657365 
 4079      744900
 4080              	.LASF131:
 4081 0611 73645F6C 		.ascii	"sd_lld_init\000"
 4081      6C645F69 
 4081      6E697400 
 4082              	.LASF63:
 4083 061d 656C5F66 		.ascii	"el_flags\000"
 4083      6C616773 
 4083      00
 4084              	.LASF67:
 4085 0626 65786974 		.ascii	"exitcode\000"
 4085      636F6465 
 4085      00
 4086              		.ident	"GCC: (Arch Repository) 4.8.2"
ARM GAS  /tmp/cc08iglp.s 			page 78


DEFINED SYMBOLS
                            *ABS*:0000000000000000 serial.c
     /tmp/cc08iglp.s:18     .text.readt:0000000000000000 $t
     /tmp/cc08iglp.s:23     .text.readt:0000000000000000 readt
     /tmp/cc08iglp.s:45     .text.read:0000000000000000 $t
     /tmp/cc08iglp.s:50     .text.read:0000000000000000 read
     /tmp/cc08iglp.s:73     .text.writet:0000000000000000 $t
     /tmp/cc08iglp.s:78     .text.writet:0000000000000000 writet
     /tmp/cc08iglp.s:99     .text.write:0000000000000000 $t
     /tmp/cc08iglp.s:104    .text.write:0000000000000000 write
     /tmp/cc08iglp.s:127    .text.gett:0000000000000000 $t
     /tmp/cc08iglp.s:132    .text.gett:0000000000000000 gett
     /tmp/cc08iglp.s:153    .text.get:0000000000000000 $t
     /tmp/cc08iglp.s:158    .text.get:0000000000000000 get
     /tmp/cc08iglp.s:181    .text.putt:0000000000000000 $t
     /tmp/cc08iglp.s:186    .text.putt:0000000000000000 putt
     /tmp/cc08iglp.s:207    .text.put:0000000000000000 $t
     /tmp/cc08iglp.s:212    .text.put:0000000000000000 put
     /tmp/cc08iglp.s:235    .text.sdInit:0000000000000000 $t
     /tmp/cc08iglp.s:241    .text.sdInit:0000000000000000 sdInit
     /tmp/cc08iglp.s:259    .text.sdObjectInit:0000000000000000 $t
     /tmp/cc08iglp.s:265    .text.sdObjectInit:0000000000000000 sdObjectInit
     /tmp/cc08iglp.s:325    .text.sdObjectInit:000000000000003c $d
     /tmp/cc08iglp.s:330    .text.sdStart:0000000000000000 $t
     /tmp/cc08iglp.s:336    .text.sdStart:0000000000000000 sdStart
     /tmp/cc08iglp.s:371    .text.sdStop:0000000000000000 $t
     /tmp/cc08iglp.s:377    .text.sdStop:0000000000000000 sdStop
     /tmp/cc08iglp.s:427    .text.sdIncomingDataI:0000000000000000 $t
     /tmp/cc08iglp.s:433    .text.sdIncomingDataI:0000000000000000 sdIncomingDataI
     /tmp/cc08iglp.s:495    .text.sdRequestDataI:0000000000000000 $t
     /tmp/cc08iglp.s:501    .text.sdRequestDataI:0000000000000000 sdRequestDataI
     /tmp/cc08iglp.s:544    .rodata.vmt:0000000000000000 $d
     /tmp/cc08iglp.s:548    .rodata.vmt:0000000000000000 vmt
                     .debug_frame:0000000000000010 $d

UNDEFINED SYMBOLS
chIQReadTimeout
chOQWriteTimeout
chIQGetTimeout
chOQPutTimeout
sd_lld_init
chIQInit
chOQInit
sd_lld_start
sd_lld_stop
chOQResetI
chIQResetI
chSchRescheduleS
chIQPutI
chEvtBroadcastFlagsI
chOQGetI
