ARM GAS  /tmp/ccrU0Ftr.s 			page 1


   1              		.cpu cortex-m0
   2              		.fpu softvfp
   3              		.eabi_attribute 20, 1
   4              		.eabi_attribute 21, 1
   5              		.eabi_attribute 23, 3
   6              		.eabi_attribute 24, 1
   7              		.eabi_attribute 25, 1
   8              		.eabi_attribute 26, 1
   9              		.eabi_attribute 30, 2
  10              		.eabi_attribute 34, 0
  11              		.eabi_attribute 18, 4
  12              		.code	16
  13              		.file	"testsem.c"
  14              		.text
  15              	.Ltext0:
  16              		.cfi_sections	.debug_frame
  17              		.section	.text.sem1_execute,"ax",%progbits
  18              		.align	2
  19              		.p2align 4,,15
  20              		.code	16
  21              		.thumb_func
  22              		.type	sem1_execute, %function
  23              	sem1_execute:
  24              	.LFB9:
  25              		.file 1 "../../test/testsem.c"
  26              		.loc 1 84 0
  27              		.cfi_startproc
  28 0000 F0B5     		push	{r4, r5, r6, r7, lr}
  29              		.cfi_def_cfa_offset 20
  30              		.cfi_offset 4, -20
  31              		.cfi_offset 5, -16
  32              		.cfi_offset 6, -12
  33              		.cfi_offset 7, -8
  34              		.cfi_offset 14, -4
  35 0002 4746     		mov	r7, r8
  36 0004 80B4     		push	{r7}
  37              		.cfi_def_cfa_offset 24
  38              		.cfi_offset 8, -24
  39              		.loc 1 86 0
  40 0006 434C     		ldr	r4, .L4
  41 0008 434F     		ldr	r7, .L4+4
  42 000a 2368     		ldr	r3, [r4]
  43              		.loc 1 84 0
  44 000c 84B0     		sub	sp, sp, #16
  45              		.cfi_def_cfa_offset 40
  46              		.loc 1 86 0
  47 000e 0393     		str	r3, [sp, #12]
  48 0010 BB69     		ldr	r3, [r7, #24]
  49 0012 424E     		ldr	r6, .L4+8
  50 0014 9A68     		ldr	r2, [r3, #8]
  51 0016 424B     		ldr	r3, .L4+12
  52 0018 9821     		mov	r1, #152
  53 001a 0532     		add	r2, r2, #5
  54 001c 0093     		str	r3, [sp]
  55 001e 4900     		lsl	r1, r1, #1
  56 0020 9846     		mov	r8, r3
  57 0022 0398     		ldr	r0, [sp, #12]
ARM GAS  /tmp/ccrU0Ftr.s 			page 2


  58 0024 331C     		mov	r3, r6
  59 0026 FFF7FEFF 		bl	chThdCreateStatic
  60              	.LVL0:
  61              		.loc 1 87 0
  62 002a 6368     		ldr	r3, [r4, #4]
  63              		.loc 1 86 0
  64 002c 3D4D     		ldr	r5, .L4+16
  65              		.loc 1 87 0
  66 002e 0293     		str	r3, [sp, #8]
  67 0030 BB69     		ldr	r3, [r7, #24]
  68 0032 9821     		mov	r1, #152
  69 0034 9A68     		ldr	r2, [r3, #8]
  70 0036 3C4B     		ldr	r3, .L4+20
  71              		.loc 1 86 0
  72 0038 2860     		str	r0, [r5]
  73              		.loc 1 87 0
  74 003a 0132     		add	r2, r2, #1
  75 003c 0093     		str	r3, [sp]
  76 003e 4900     		lsl	r1, r1, #1
  77 0040 331C     		mov	r3, r6
  78 0042 0298     		ldr	r0, [sp, #8]
  79 0044 FFF7FEFF 		bl	chThdCreateStatic
  80              	.LVL1:
  81              		.loc 1 88 0
  82 0048 A368     		ldr	r3, [r4, #8]
  83 004a 9821     		mov	r1, #152
  84 004c 0293     		str	r3, [sp, #8]
  85 004e BB69     		ldr	r3, [r7, #24]
  86              		.loc 1 87 0
  87 0050 6860     		str	r0, [r5, #4]
  88              		.loc 1 88 0
  89 0052 9A68     		ldr	r2, [r3, #8]
  90 0054 354B     		ldr	r3, .L4+24
  91 0056 0332     		add	r2, r2, #3
  92 0058 0093     		str	r3, [sp]
  93 005a 4900     		lsl	r1, r1, #1
  94 005c 331C     		mov	r3, r6
  95 005e 0298     		ldr	r0, [sp, #8]
  96 0060 FFF7FEFF 		bl	chThdCreateStatic
  97              	.LVL2:
  98              		.loc 1 89 0
  99 0064 E368     		ldr	r3, [r4, #12]
 100 0066 9821     		mov	r1, #152
 101 0068 0293     		str	r3, [sp, #8]
 102 006a BB69     		ldr	r3, [r7, #24]
 103              		.loc 1 88 0
 104 006c A860     		str	r0, [r5, #8]
 105              		.loc 1 89 0
 106 006e 9A68     		ldr	r2, [r3, #8]
 107 0070 2F4B     		ldr	r3, .L4+28
 108 0072 0432     		add	r2, r2, #4
 109 0074 0093     		str	r3, [sp]
 110 0076 4900     		lsl	r1, r1, #1
 111 0078 331C     		mov	r3, r6
 112 007a 0298     		ldr	r0, [sp, #8]
 113 007c FFF7FEFF 		bl	chThdCreateStatic
 114              	.LVL3:
ARM GAS  /tmp/ccrU0Ftr.s 			page 3


 115              		.loc 1 90 0
 116 0080 BB69     		ldr	r3, [r7, #24]
 117 0082 2469     		ldr	r4, [r4, #16]
 118 0084 9A68     		ldr	r2, [r3, #8]
 119 0086 2B4B     		ldr	r3, .L4+32
 120 0088 9821     		mov	r1, #152
 121 008a 4900     		lsl	r1, r1, #1
 122 008c 0232     		add	r2, r2, #2
 123              		.loc 1 89 0
 124 008e E860     		str	r0, [r5, #12]
 125              		.loc 1 90 0
 126 0090 0093     		str	r3, [sp]
 127 0092 201C     		mov	r0, r4
 128 0094 331C     		mov	r3, r6
 129 0096 0294     		str	r4, [sp, #8]
 130 0098 FFF7FEFF 		bl	chThdCreateStatic
 131              	.LVL4:
 132              		.loc 1 91 0
 133 009c 264C     		ldr	r4, .L4+36
 134              		.loc 1 90 0
 135 009e 2861     		str	r0, [r5, #16]
 136              		.loc 1 91 0
 137 00a0 201C     		mov	r0, r4
 138 00a2 FFF7FEFF 		bl	chSemSignal
 139              	.LVL5:
 140              		.loc 1 92 0
 141 00a6 201C     		mov	r0, r4
 142 00a8 FFF7FEFF 		bl	chSemSignal
 143              	.LVL6:
 144              		.loc 1 93 0
 145 00ac 201C     		mov	r0, r4
 146 00ae FFF7FEFF 		bl	chSemSignal
 147              	.LVL7:
 148              		.loc 1 94 0
 149 00b2 201C     		mov	r0, r4
 150 00b4 FFF7FEFF 		bl	chSemSignal
 151              	.LVL8:
 152              		.loc 1 95 0
 153 00b8 201C     		mov	r0, r4
 154 00ba FFF7FEFF 		bl	chSemSignal
 155              	.LVL9:
 156              		.loc 1 96 0
 157 00be FFF7FEFF 		bl	test_wait_threads
 158              	.LVL10:
 159              		.loc 1 100 0
 160 00c2 0120     		mov	r0, #1
 161 00c4 1D49     		ldr	r1, .L4+40
 162 00c6 FFF7FEFF 		bl	_test_assert_sequence
 163              	.LVL11:
 164 00ca 0028     		cmp	r0, #0
 165 00cc 1ED1     		bne	.L1
 166              		.loc 1 102 0
 167 00ce BB69     		ldr	r3, [r7, #24]
 168 00d0 9821     		mov	r1, #152
 169 00d2 9A68     		ldr	r2, [r3, #8]
 170 00d4 4346     		mov	r3, r8
 171 00d6 0093     		str	r3, [sp]
ARM GAS  /tmp/ccrU0Ftr.s 			page 4


 172 00d8 0532     		add	r2, r2, #5
 173 00da 0398     		ldr	r0, [sp, #12]
 174 00dc 4900     		lsl	r1, r1, #1
 175 00de 331C     		mov	r3, r6
 176 00e0 FFF7FEFF 		bl	chThdCreateStatic
 177              	.LVL12:
 178 00e4 2860     		str	r0, [r5]
 179              		.loc 1 103 0
 180              	@ 103 "../../test/testsem.c" 1
 181 00e6 72B6     		cpsid   i
 182              	@ 0 "" 2
 183              		.loc 1 104 0
 184              		.code	16
 185 00e8 0221     		mov	r1, #2
 186 00ea 201C     		mov	r0, r4
 187 00ec FFF7FEFF 		bl	chSemAddCounterI
 188              	.LVL13:
 189              		.loc 1 105 0
 190 00f0 FFF7FEFF 		bl	chSchRescheduleS
 191              	.LVL14:
 192              		.loc 1 106 0
 193              	@ 106 "../../test/testsem.c" 1
 194 00f4 62B6     		cpsie   i
 195              	@ 0 "" 2
 196              		.loc 1 107 0
 197              		.code	16
 198 00f6 FFF7FEFF 		bl	test_wait_threads
 199              	.LVL15:
 200              		.loc 1 108 0
 201 00fa 0F4B     		ldr	r3, .L4+36
 202 00fc 0220     		mov	r0, #2
 203 00fe 9968     		ldr	r1, [r3, #8]
 204 0100 0139     		sub	r1, r1, #1
 205 0102 4B42     		neg	r3, r1
 206 0104 5941     		adc	r1, r1, r3
 207 0106 C9B2     		uxtb	r1, r1
 208 0108 FFF7FEFF 		bl	_test_assert
 209              	.LVL16:
 210              	.L1:
 211              		.loc 1 109 0
 212 010c 04B0     		add	sp, sp, #16
 213              		@ sp needed
 214 010e 04BC     		pop	{r2}
 215 0110 9046     		mov	r8, r2
 216 0112 F0BD     		pop	{r4, r5, r6, r7, pc}
 217              	.L5:
 218              		.align	2
 219              	.L4:
 220 0114 00000000 		.word	wa
 221 0118 00000000 		.word	rlist
 222 011c 00000000 		.word	thread1
 223 0120 00000000 		.word	.LC3
 224 0124 00000000 		.word	threads
 225 0128 04000000 		.word	.LC6
 226 012c 08000000 		.word	.LC8
 227 0130 0C000000 		.word	.LC10
 228 0134 10000000 		.word	.LC12
ARM GAS  /tmp/ccrU0Ftr.s 			page 5


 229 0138 00000000 		.word	.LANCHOR0
 230 013c 14000000 		.word	.LC15
 231              		.cfi_endproc
 232              	.LFE9:
 233              		.size	sem1_execute, .-sem1_execute
 234              		.section	.text.thread3,"ax",%progbits
 235              		.align	2
 236              		.p2align 4,,15
 237              		.code	16
 238              		.thumb_func
 239              		.type	thread3, %function
 240              	thread3:
 241              	.LFB14:
 242              		.loc 1 210 0
 243              		.cfi_startproc
 244              	.LVL17:
 245 0000 10B5     		push	{r4, lr}
 246              		.cfi_def_cfa_offset 8
 247              		.cfi_offset 4, -8
 248              		.cfi_offset 14, -4
 249              		.loc 1 213 0
 250 0002 044C     		ldr	r4, .L7
 251              		.loc 1 216 0
 252              		@ sp needed
 253              		.loc 1 213 0
 254 0004 201C     		mov	r0, r4
 255              	.LVL18:
 256 0006 FFF7FEFF 		bl	chSemWait
 257              	.LVL19:
 258              		.loc 1 214 0
 259 000a 201C     		mov	r0, r4
 260 000c FFF7FEFF 		bl	chSemSignal
 261              	.LVL20:
 262              		.loc 1 216 0
 263 0010 0020     		mov	r0, #0
 264 0012 10BD     		pop	{r4, pc}
 265              	.L8:
 266              		.align	2
 267              	.L7:
 268 0014 00000000 		.word	.LANCHOR0
 269              		.cfi_endproc
 270              	.LFE14:
 271              		.size	thread3, .-thread3
 272 0018 C046C046 		.section	.text.thread1,"ax",%progbits
 272      C046C046 
 273              		.align	2
 274              		.p2align 4,,15
 275              		.code	16
 276              		.thumb_func
 277              		.type	thread1, %function
 278              	thread1:
 279              	.LFB8:
 280              		.loc 1 77 0
 281              		.cfi_startproc
 282              	.LVL21:
 283 0000 10B5     		push	{r4, lr}
 284              		.cfi_def_cfa_offset 8
ARM GAS  /tmp/ccrU0Ftr.s 			page 6


 285              		.cfi_offset 4, -8
 286              		.cfi_offset 14, -4
 287              		.loc 1 77 0
 288 0002 041C     		mov	r4, r0
 289              		.loc 1 79 0
 290 0004 0348     		ldr	r0, .L10
 291              	.LVL22:
 292 0006 FFF7FEFF 		bl	chSemWait
 293              	.LVL23:
 294              		.loc 1 80 0
 295 000a 2078     		ldrb	r0, [r4]
 296 000c FFF7FEFF 		bl	test_emit_token
 297              	.LVL24:
 298              		.loc 1 82 0
 299              		@ sp needed
 300 0010 0020     		mov	r0, #0
 301              	.LVL25:
 302 0012 10BD     		pop	{r4, pc}
 303              	.L11:
 304              		.align	2
 305              	.L10:
 306 0014 00000000 		.word	.LANCHOR0
 307              		.cfi_endproc
 308              	.LFE8:
 309              		.size	thread1, .-thread1
 310 0018 C046C046 		.section	.text.sem1_setup,"ax",%progbits
 310      C046C046 
 311              		.align	2
 312              		.p2align 4,,15
 313              		.code	16
 314              		.thumb_func
 315              		.type	sem1_setup, %function
 316              	sem1_setup:
 317              	.LFB7:
 318              		.loc 1 72 0
 319              		.cfi_startproc
 320 0000 08B5     		push	{r3, lr}
 321              		.cfi_def_cfa_offset 8
 322              		.cfi_offset 3, -8
 323              		.cfi_offset 14, -4
 324              		.loc 1 74 0
 325 0002 0248     		ldr	r0, .L13
 326 0004 0021     		mov	r1, #0
 327 0006 FFF7FEFF 		bl	chSemInit
 328              	.LVL26:
 329              		.loc 1 75 0
 330              		@ sp needed
 331 000a 08BD     		pop	{r3, pc}
 332              	.L14:
 333              		.align	2
 334              	.L13:
 335 000c 00000000 		.word	.LANCHOR0
 336              		.cfi_endproc
 337              	.LFE7:
 338              		.size	sem1_setup, .-sem1_setup
 339              		.section	.text.sem2_setup,"ax",%progbits
 340              		.align	2
ARM GAS  /tmp/ccrU0Ftr.s 			page 7


 341              		.p2align 4,,15
 342              		.code	16
 343              		.thumb_func
 344              		.type	sem2_setup, %function
 345              	sem2_setup:
 346              	.LFB10:
 347              		.loc 1 129 0
 348              		.cfi_startproc
 349 0000 08B5     		push	{r3, lr}
 350              		.cfi_def_cfa_offset 8
 351              		.cfi_offset 3, -8
 352              		.cfi_offset 14, -4
 353              		.loc 1 131 0
 354 0002 0248     		ldr	r0, .L16
 355 0004 0021     		mov	r1, #0
 356 0006 FFF7FEFF 		bl	chSemInit
 357              	.LVL27:
 358              		.loc 1 132 0
 359              		@ sp needed
 360 000a 08BD     		pop	{r3, pc}
 361              	.L17:
 362              		.align	2
 363              	.L16:
 364 000c 00000000 		.word	.LANCHOR0
 365              		.cfi_endproc
 366              	.LFE10:
 367              		.size	sem2_setup, .-sem2_setup
 368              		.section	.text.sem3_setup,"ax",%progbits
 369              		.align	2
 370              		.p2align 4,,15
 371              		.code	16
 372              		.thumb_func
 373              		.type	sem3_setup, %function
 374              	sem3_setup:
 375              	.LFB13:
 376              		.loc 1 205 0
 377              		.cfi_startproc
 378 0000 08B5     		push	{r3, lr}
 379              		.cfi_def_cfa_offset 8
 380              		.cfi_offset 3, -8
 381              		.cfi_offset 14, -4
 382              		.loc 1 207 0
 383 0002 0248     		ldr	r0, .L19
 384 0004 0021     		mov	r1, #0
 385 0006 FFF7FEFF 		bl	chSemInit
 386              	.LVL28:
 387              		.loc 1 208 0
 388              		@ sp needed
 389 000a 08BD     		pop	{r3, pc}
 390              	.L20:
 391              		.align	2
 392              	.L19:
 393 000c 00000000 		.word	.LANCHOR0
 394              		.cfi_endproc
 395              	.LFE13:
 396              		.size	sem3_setup, .-sem3_setup
 397              		.section	.text.thread2,"ax",%progbits
ARM GAS  /tmp/ccrU0Ftr.s 			page 8


 398              		.align	2
 399              		.p2align 4,,15
 400              		.code	16
 401              		.thumb_func
 402              		.type	thread2, %function
 403              	thread2:
 404              	.LFB11:
 405              		.loc 1 134 0
 406              		.cfi_startproc
 407              	.LVL29:
 408 0000 08B5     		push	{r3, lr}
 409              		.cfi_def_cfa_offset 8
 410              		.cfi_offset 3, -8
 411              		.cfi_offset 14, -4
 412              		.loc 1 137 0
 413 0002 3220     		mov	r0, #50
 414              	.LVL30:
 415 0004 FFF7FEFF 		bl	chThdSleep
 416              	.LVL31:
 417              		.loc 1 138 0
 418              	@ 138 "../../test/testsem.c" 1
 419 0008 72B6     		cpsid   i
 420              	@ 0 "" 2
 421              		.loc 1 139 0
 422              		.code	16
 423 000a 0448     		ldr	r0, .L22
 424 000c FFF7FEFF 		bl	chSemSignalI
 425              	.LVL32:
 426              		.loc 1 140 0
 427 0010 FFF7FEFF 		bl	chSchRescheduleS
 428              	.LVL33:
 429              		.loc 1 141 0
 430              	@ 141 "../../test/testsem.c" 1
 431 0014 62B6     		cpsie   i
 432              	@ 0 "" 2
 433              		.loc 1 143 0
 434              		.code	16
 435 0016 0020     		mov	r0, #0
 436              		@ sp needed
 437 0018 08BD     		pop	{r3, pc}
 438              	.L23:
 439 001a C046     		.align	2
 440              	.L22:
 441 001c 00000000 		.word	.LANCHOR0
 442              		.cfi_endproc
 443              	.LFE11:
 444              		.size	thread2, .-thread2
 445              		.section	.text.thread4,"ax",%progbits
 446              		.align	2
 447              		.p2align 4,,15
 448              		.code	16
 449              		.thumb_func
 450              		.type	thread4, %function
 451              	thread4:
 452              	.LFB16:
 453              		.loc 1 246 0
 454              		.cfi_startproc
ARM GAS  /tmp/ccrU0Ftr.s 			page 9


 455              	.LVL34:
 456 0000 08B5     		push	{r3, lr}
 457              		.cfi_def_cfa_offset 8
 458              		.cfi_offset 3, -8
 459              		.cfi_offset 14, -4
 460              		.loc 1 248 0
 461              	@ 248 "../../test/testsem.c" 1
 462 0002 72B6     		cpsid   i
 463              	@ 0 "" 2
 464              		.code	16
 465 0004 8368     		ldr	r3, [r0, #8]
 466 0006 002B     		cmp	r3, #0
 467 0008 04DD     		ble	.L26
 468              	.LVL35:
 469              	.L25:
 470              		.loc 1 248 0 is_stmt 0 discriminator 2
 471 000a FFF7FEFF 		bl	chSchRescheduleS
 472              	.LVL36:
 473              	@ 248 "../../test/testsem.c" 1
 474 000e 62B6     		cpsie   i
 475              	@ 0 "" 2
 476              		.loc 1 250 0 is_stmt 1 discriminator 2
 477              		.code	16
 478 0010 0020     		mov	r0, #0
 479              		@ sp needed
 480 0012 08BD     		pop	{r3, pc}
 481              	.LVL37:
 482              	.L26:
 483              		.loc 1 248 0 discriminator 1
 484 0014 FFF7FEFF 		bl	chSemSignalI
 485              	.LVL38:
 486 0018 F7E7     		b	.L25
 487              		.cfi_endproc
 488              	.LFE16:
 489              		.size	thread4, .-thread4
 490 001a C046C046 		.section	.text.sem4_execute,"ax",%progbits
 490      C046
 491              		.align	2
 492              		.p2align 4,,15
 493              		.code	16
 494              		.thumb_func
 495              		.type	sem4_execute, %function
 496              	sem4_execute:
 497              	.LFB17:
 498              		.loc 1 252 0
 499              		.cfi_startproc
 500 0000 00B5     		push	{lr}
 501              		.cfi_def_cfa_offset 4
 502              		.cfi_offset 14, -4
 503 0002 87B0     		sub	sp, sp, #28
 504              		.cfi_def_cfa_offset 32
 505              		.loc 1 256 0
 506 0004 03A8     		add	r0, sp, #12
 507 0006 0021     		mov	r1, #0
 508 0008 FFF7FEFF 		bl	chSemInit
 509              	.LVL39:
 510              		.loc 1 257 0
ARM GAS  /tmp/ccrU0Ftr.s 			page 10


 511 000c 03A8     		add	r0, sp, #12
 512 000e 0021     		mov	r1, #0
 513 0010 FFF7FEFF 		bl	chSemReset
 514              	.LVL40:
 515              		.loc 1 258 0
 516 0014 059B     		ldr	r3, [sp, #20]
 517 0016 0120     		mov	r0, #1
 518 0018 591E     		sub	r1, r3, #1
 519 001a 0B43     		orr	r3, r1
 520 001c D90F     		lsr	r1, r3, #31
 521 001e FFF7FEFF 		bl	_test_assert
 522              	.LVL41:
 523 0022 0028     		cmp	r0, #0
 524 0024 01D0     		beq	.L32
 525              	.L27:
 526              		.loc 1 280 0
 527 0026 07B0     		add	sp, sp, #28
 528              		@ sp needed
 529 0028 00BD     		pop	{pc}
 530              	.L32:
 531              		.loc 1 262 0
 532 002a 2B4B     		ldr	r3, .L35
 533              		.loc 1 261 0
 534 002c 9821     		mov	r1, #152
 535              		.loc 1 262 0
 536 002e 9B69     		ldr	r3, [r3, #24]
 537              		.loc 1 261 0
 538 0030 4900     		lsl	r1, r1, #1
 539 0032 9A68     		ldr	r2, [r3, #8]
 540 0034 03AB     		add	r3, sp, #12
 541 0036 0093     		str	r3, [sp]
 542 0038 284B     		ldr	r3, .L35+4
 543 003a 013A     		sub	r2, r2, #1
 544 003c 1868     		ldr	r0, [r3]
 545 003e 284B     		ldr	r3, .L35+8
 546 0040 FFF7FEFF 		bl	chThdCreateStatic
 547              	.LVL42:
 548 0044 274B     		ldr	r3, .L35+12
 549 0046 1860     		str	r0, [r3]
 550              		.loc 1 265 0
 551 0048 03A8     		add	r0, sp, #12
 552 004a FFF7FEFF 		bl	chSemWait
 553              	.LVL43:
 554              		.loc 1 268 0
 555 004e 059B     		ldr	r3, [sp, #20]
 556 0050 0220     		mov	r0, #2
 557 0052 591E     		sub	r1, r3, #1
 558 0054 0B43     		orr	r3, r1
 559 0056 D90F     		lsr	r1, r3, #31
 560 0058 FFF7FEFF 		bl	_test_assert
 561              	.LVL44:
 562 005c 0028     		cmp	r0, #0
 563 005e E2D1     		bne	.L27
 564              		.loc 1 272 0
 565              	@ 272 "../../test/testsem.c" 1
 566 0060 72B6     		cpsid   i
 567              	@ 0 "" 2
ARM GAS  /tmp/ccrU0Ftr.s 			page 11


 568              		.code	16
 569 0062 059B     		ldr	r3, [sp, #20]
 570 0064 002B     		cmp	r3, #0
 571 0066 2EDD     		ble	.L33
 572              	.L29:
 573              		.loc 1 272 0 is_stmt 0 discriminator 2
 574 0068 FFF7FEFF 		bl	chSchRescheduleS
 575              	.LVL45:
 576              	@ 272 "../../test/testsem.c" 1
 577 006c 62B6     		cpsie   i
 578              	@ 0 "" 2
 579              		.loc 1 273 0 is_stmt 1 discriminator 2
 580              		.code	16
 581 006e 059B     		ldr	r3, [sp, #20]
 582 0070 0320     		mov	r0, #3
 583 0072 D917     		asr	r1, r3, #31
 584 0074 CB1A     		sub	r3, r1, r3
 585 0076 D90F     		lsr	r1, r3, #31
 586 0078 FFF7FEFF 		bl	_test_assert
 587              	.LVL46:
 588 007c 0028     		cmp	r0, #0
 589 007e D2D1     		bne	.L27
 590              		.loc 1 274 0
 591 0080 0599     		ldr	r1, [sp, #20]
 592 0082 0420     		mov	r0, #4
 593 0084 0139     		sub	r1, r1, #1
 594 0086 4B42     		neg	r3, r1
 595 0088 5941     		adc	r1, r1, r3
 596 008a C9B2     		uxtb	r1, r1
 597 008c FFF7FEFF 		bl	_test_assert
 598              	.LVL47:
 599 0090 0028     		cmp	r0, #0
 600 0092 C8D1     		bne	.L27
 601              		.loc 1 277 0
 602              	@ 277 "../../test/testsem.c" 1
 603 0094 72B6     		cpsid   i
 604              	@ 0 "" 2
 605              		.code	16
 606 0096 059B     		ldr	r3, [sp, #20]
 607 0098 002B     		cmp	r3, #0
 608 009a 18DD     		ble	.L34
 609              	.L30:
 610              		.loc 1 277 0 is_stmt 0 discriminator 2
 611 009c FFF7FEFF 		bl	chSchRescheduleS
 612              	.LVL48:
 613              	@ 277 "../../test/testsem.c" 1
 614 00a0 62B6     		cpsie   i
 615              	@ 0 "" 2
 616              		.loc 1 278 0 is_stmt 1 discriminator 2
 617              		.code	16
 618 00a2 059B     		ldr	r3, [sp, #20]
 619 00a4 0320     		mov	r0, #3
 620 00a6 D917     		asr	r1, r3, #31
 621 00a8 CB1A     		sub	r3, r1, r3
 622 00aa D90F     		lsr	r1, r3, #31
 623 00ac FFF7FEFF 		bl	_test_assert
 624              	.LVL49:
ARM GAS  /tmp/ccrU0Ftr.s 			page 12


 625 00b0 0028     		cmp	r0, #0
 626 00b2 B8D1     		bne	.L27
 627              		.loc 1 279 0
 628 00b4 0599     		ldr	r1, [sp, #20]
 629 00b6 0520     		mov	r0, #5
 630 00b8 0139     		sub	r1, r1, #1
 631 00ba 4B42     		neg	r3, r1
 632 00bc 5941     		adc	r1, r1, r3
 633 00be C9B2     		uxtb	r1, r1
 634 00c0 FFF7FEFF 		bl	_test_assert
 635              	.LVL50:
 636 00c4 AFE7     		b	.L27
 637              	.L33:
 638              		.loc 1 272 0 discriminator 1
 639 00c6 03A8     		add	r0, sp, #12
 640 00c8 FFF7FEFF 		bl	chSemSignalI
 641              	.LVL51:
 642 00cc CCE7     		b	.L29
 643              	.L34:
 644              		.loc 1 277 0 discriminator 1
 645 00ce 03A8     		add	r0, sp, #12
 646 00d0 FFF7FEFF 		bl	chSemSignalI
 647              	.LVL52:
 648 00d4 E2E7     		b	.L30
 649              	.L36:
 650 00d6 C046     		.align	2
 651              	.L35:
 652 00d8 00000000 		.word	rlist
 653 00dc 00000000 		.word	wa
 654 00e0 00000000 		.word	thread4
 655 00e4 00000000 		.word	threads
 656              		.cfi_endproc
 657              	.LFE17:
 658              		.size	sem4_execute, .-sem4_execute
 659 00e8 C046C046 		.section	.text.sem2_execute,"ax",%progbits
 659      C046C046 
 660              		.align	2
 661              		.p2align 4,,15
 662              		.code	16
 663              		.thumb_func
 664              		.type	sem2_execute, %function
 665              	sem2_execute:
 666              	.LFB12:
 667              		.loc 1 145 0
 668              		.cfi_startproc
 669 0000 70B5     		push	{r4, r5, r6, lr}
 670              		.cfi_def_cfa_offset 16
 671              		.cfi_offset 4, -16
 672              		.cfi_offset 5, -12
 673              		.cfi_offset 6, -8
 674              		.cfi_offset 14, -4
 675              		.loc 1 153 0
 676 0002 494C     		ldr	r4, .L44
 677              		.loc 1 145 0
 678 0004 82B0     		sub	sp, sp, #8
 679              		.cfi_def_cfa_offset 24
 680              		.loc 1 153 0
ARM GAS  /tmp/ccrU0Ftr.s 			page 13


 681 0006 0021     		mov	r1, #0
 682 0008 201C     		mov	r0, r4
 683 000a FFF7FEFF 		bl	chSemWaitTimeout
 684              	.LVL53:
 685              		.loc 1 154 0
 686 000e 411C     		add	r1, r0, #1
 687 0010 4B42     		neg	r3, r1
 688 0012 5941     		adc	r1, r1, r3
 689 0014 C9B2     		uxtb	r1, r1
 690 0016 0120     		mov	r0, #1
 691              	.LVL54:
 692 0018 FFF7FEFF 		bl	_test_assert
 693              	.LVL55:
 694 001c 0028     		cmp	r0, #0
 695 001e 01D0     		beq	.L43
 696              	.L37:
 697              		.loc 1 183 0
 698 0020 02B0     		add	sp, sp, #8
 699              		@ sp needed
 700 0022 70BD     		pop	{r4, r5, r6, pc}
 701              	.L43:
 702              		.loc 1 155 0
 703 0024 2268     		ldr	r2, [r4]
 704 0026 0220     		mov	r0, #2
 705 0028 111B     		sub	r1, r2, r4
 706 002a 4B42     		neg	r3, r1
 707 002c 5941     		adc	r1, r1, r3
 708 002e C9B2     		uxtb	r1, r1
 709 0030 FFF7FEFF 		bl	_test_assert
 710              	.LVL56:
 711 0034 0028     		cmp	r0, #0
 712 0036 F3D1     		bne	.L37
 713              		.loc 1 156 0
 714 0038 A268     		ldr	r2, [r4, #8]
 715 003a 0320     		mov	r0, #3
 716 003c 5142     		neg	r1, r2
 717 003e 5141     		adc	r1, r1, r2
 718 0040 C9B2     		uxtb	r1, r1
 719 0042 FFF7FEFF 		bl	_test_assert
 720              	.LVL57:
 721 0046 0028     		cmp	r0, #0
 722 0048 EAD1     		bne	.L37
 723              	.LBB4:
 724              	.LBB5:
 725              		.loc 1 161 0
 726 004a 384B     		ldr	r3, .L44+4
 727 004c 9821     		mov	r1, #152
 728 004e 9B69     		ldr	r3, [r3, #24]
 729 0050 4900     		lsl	r1, r1, #1
 730 0052 9A68     		ldr	r2, [r3, #8]
 731 0054 364B     		ldr	r3, .L44+8
 732 0056 013A     		sub	r2, r2, #1
 733 0058 0090     		str	r0, [sp]
 734 005a 1868     		ldr	r0, [r3]
 735 005c 354B     		ldr	r3, .L44+12
 736 005e FFF7FEFF 		bl	chThdCreateStatic
 737              	.LVL58:
ARM GAS  /tmp/ccrU0Ftr.s 			page 14


 738 0062 354B     		ldr	r3, .L44+16
 739              		.loc 1 163 0
 740 0064 FA21     		mov	r1, #250
 741              		.loc 1 161 0
 742 0066 1860     		str	r0, [r3]
 743              		.loc 1 163 0
 744 0068 4900     		lsl	r1, r1, #1
 745 006a 201C     		mov	r0, r4
 746 006c FFF7FEFF 		bl	chSemWaitTimeout
 747              	.LVL59:
 748 0070 051C     		mov	r5, r0
 749              	.LVL60:
 750              		.loc 1 164 0
 751 0072 FFF7FEFF 		bl	test_wait_threads
 752              	.LVL61:
 753              		.loc 1 165 0
 754 0076 6942     		neg	r1, r5
 755 0078 6941     		adc	r1, r1, r5
 756              	.LVL62:
 757 007a C9B2     		uxtb	r1, r1
 758 007c 0420     		mov	r0, #4
 759 007e FFF7FEFF 		bl	_test_assert
 760              	.LVL63:
 761 0082 0028     		cmp	r0, #0
 762 0084 CCD1     		bne	.L37
 763              		.loc 1 166 0
 764 0086 2368     		ldr	r3, [r4]
 765 0088 0520     		mov	r0, #5
 766 008a 191B     		sub	r1, r3, r4
 767 008c 4B42     		neg	r3, r1
 768 008e 5941     		adc	r1, r1, r3
 769 0090 C9B2     		uxtb	r1, r1
 770 0092 FFF7FEFF 		bl	_test_assert
 771              	.LVL64:
 772 0096 0028     		cmp	r0, #0
 773 0098 C2D1     		bne	.L37
 774              		.loc 1 167 0
 775 009a A268     		ldr	r2, [r4, #8]
 776 009c 0620     		mov	r0, #6
 777 009e 5142     		neg	r1, r2
 778 00a0 5141     		adc	r1, r1, r2
 779 00a2 C9B2     		uxtb	r1, r1
 780 00a4 FFF7FEFF 		bl	_test_assert
 781              	.LVL65:
 782 00a8 0028     		cmp	r0, #0
 783 00aa B9D1     		bne	.L37
 784              		.loc 1 172 0
 785 00ac FFF7FEFF 		bl	test_wait_tick
 786              	.LVL66:
 787              		.loc 1 173 0
 788 00b0 224B     		ldr	r3, .L44+20
 789 00b2 4125     		mov	r5, #65
 790 00b4 DE68     		ldr	r6, [r3, #12]
 791              	.LVL67:
 792              	.L42:
 793              		.loc 1 175 0
 794 00b6 281C     		mov	r0, r5
ARM GAS  /tmp/ccrU0Ftr.s 			page 15


 795 00b8 FFF7FEFF 		bl	test_emit_token
 796              	.LVL68:
 797              		.loc 1 176 0
 798 00bc FA21     		mov	r1, #250
 799 00be 4900     		lsl	r1, r1, #1
 800 00c0 201C     		mov	r0, r4
 801 00c2 FFF7FEFF 		bl	chSemWaitTimeout
 802              	.LVL69:
 803              		.loc 1 177 0
 804 00c6 411C     		add	r1, r0, #1
 805 00c8 4B42     		neg	r3, r1
 806 00ca 5941     		adc	r1, r1, r3
 807 00cc C9B2     		uxtb	r1, r1
 808 00ce 0720     		mov	r0, #7
 809              	.LVL70:
 810 00d0 FFF7FEFF 		bl	_test_assert
 811              	.LVL71:
 812 00d4 0028     		cmp	r0, #0
 813 00d6 A3D1     		bne	.L37
 814              		.loc 1 178 0
 815 00d8 2368     		ldr	r3, [r4]
 816 00da 0820     		mov	r0, #8
 817 00dc 191B     		sub	r1, r3, r4
 818 00de 4B42     		neg	r3, r1
 819 00e0 5941     		adc	r1, r1, r3
 820 00e2 C9B2     		uxtb	r1, r1
 821 00e4 FFF7FEFF 		bl	_test_assert
 822              	.LVL72:
 823 00e8 0028     		cmp	r0, #0
 824 00ea 99D1     		bne	.L37
 825              		.loc 1 179 0
 826 00ec A268     		ldr	r2, [r4, #8]
 827 00ee 0920     		mov	r0, #9
 828 00f0 5142     		neg	r1, r2
 829 00f2 5141     		adc	r1, r1, r2
 830 00f4 C9B2     		uxtb	r1, r1
 831 00f6 FFF7FEFF 		bl	_test_assert
 832              	.LVL73:
 833 00fa 0028     		cmp	r0, #0
 834 00fc 00D0     		beq	.LCB679
 835 00fe 8FE7     		b	.L37	@long jump
 836              	.LCB679:
 837 0100 0135     		add	r5, r5, #1
 838 0102 EDB2     		uxtb	r5, r5
 839              		.loc 1 174 0
 840 0104 462D     		cmp	r5, #70
 841 0106 D6D1     		bne	.L42
 842              		.loc 1 181 0
 843 0108 0A20     		mov	r0, #10
 844 010a 0D49     		ldr	r1, .L44+24
 845 010c FFF7FEFF 		bl	_test_assert_sequence
 846              	.LVL74:
 847 0110 0028     		cmp	r0, #0
 848 0112 00D0     		beq	.LCB690
 849 0114 84E7     		b	.L37	@long jump
 850              	.LCB690:
 851              		.loc 1 173 0
ARM GAS  /tmp/ccrU0Ftr.s 			page 16


 852 0116 0B4B     		ldr	r3, .L44+28
 853              		.loc 1 182 0
 854 0118 0B20     		mov	r0, #11
 855              		.loc 1 173 0
 856 011a F118     		add	r1, r6, r3
 857              		.loc 1 182 0
 858 011c 0A4B     		ldr	r3, .L44+32
 859 011e F218     		add	r2, r6, r3
 860 0120 FFF7FEFF 		bl	_test_assert_time_window
 861              	.LVL75:
 862 0124 7CE7     		b	.L37
 863              	.L45:
 864 0126 C046     		.align	2
 865              	.L44:
 866 0128 00000000 		.word	.LANCHOR0
 867 012c 00000000 		.word	rlist
 868 0130 00000000 		.word	wa
 869 0134 00000000 		.word	thread2
 870 0138 00000000 		.word	threads
 871 013c 00000000 		.word	vtlist
 872 0140 14000000 		.word	.LC15
 873 0144 C4090000 		.word	2500
 874 0148 C9090000 		.word	2505
 875              	.LBE5:
 876              	.LBE4:
 877              		.cfi_endproc
 878              	.LFE12:
 879              		.size	sem2_execute, .-sem2_execute
 880 014c C046C046 		.section	.text.sem3_execute,"ax",%progbits
 881              		.align	2
 882              		.p2align 4,,15
 883              		.code	16
 884              		.thumb_func
 885              		.type	sem3_execute, %function
 886              	sem3_execute:
 887              	.LFB15:
 888              		.loc 1 218 0
 889              		.cfi_startproc
 890 0000 10B5     		push	{r4, lr}
 891              		.cfi_def_cfa_offset 8
 892              		.cfi_offset 4, -8
 893              		.cfi_offset 14, -4
 894              		.loc 1 220 0
 895 0002 204B     		ldr	r3, .L51
 896              		.loc 1 218 0
 897 0004 82B0     		sub	sp, sp, #8
 898              		.cfi_def_cfa_offset 16
 899              		.loc 1 220 0
 900 0006 9B69     		ldr	r3, [r3, #24]
 901 0008 9821     		mov	r1, #152
 902 000a 9A68     		ldr	r2, [r3, #8]
 903 000c 0023     		mov	r3, #0
 904 000e 0093     		str	r3, [sp]
 905 0010 1D4B     		ldr	r3, .L51+4
 906 0012 0132     		add	r2, r2, #1
 907 0014 1868     		ldr	r0, [r3]
 908 0016 4900     		lsl	r1, r1, #1
ARM GAS  /tmp/ccrU0Ftr.s 			page 17


 909 0018 1C4B     		ldr	r3, .L51+8
 910 001a FFF7FEFF 		bl	chThdCreateStatic
 911              	.LVL76:
 912              		.loc 1 221 0
 913 001e 1C4C     		ldr	r4, .L51+12
 914              		.loc 1 220 0
 915 0020 1C4B     		ldr	r3, .L51+16
 916              		.loc 1 221 0
 917 0022 211C     		mov	r1, r4
 918              		.loc 1 220 0
 919 0024 1860     		str	r0, [r3]
 920              		.loc 1 221 0
 921 0026 201C     		mov	r0, r4
 922 0028 FFF7FEFF 		bl	chSemSignalWait
 923              	.LVL77:
 924              		.loc 1 222 0
 925 002c 2268     		ldr	r2, [r4]
 926 002e 0120     		mov	r0, #1
 927 0030 111B     		sub	r1, r2, r4
 928 0032 4B42     		neg	r3, r1
 929 0034 5941     		adc	r1, r1, r3
 930 0036 C9B2     		uxtb	r1, r1
 931 0038 FFF7FEFF 		bl	_test_assert
 932              	.LVL78:
 933 003c 0028     		cmp	r0, #0
 934 003e 01D0     		beq	.L50
 935              	.L46:
 936              		.loc 1 228 0
 937 0040 02B0     		add	sp, sp, #8
 938              		@ sp needed
 939 0042 10BD     		pop	{r4, pc}
 940              	.L50:
 941              		.loc 1 223 0
 942 0044 A268     		ldr	r2, [r4, #8]
 943 0046 0220     		mov	r0, #2
 944 0048 5142     		neg	r1, r2
 945 004a 5141     		adc	r1, r1, r2
 946 004c C9B2     		uxtb	r1, r1
 947 004e FFF7FEFF 		bl	_test_assert
 948              	.LVL79:
 949 0052 0028     		cmp	r0, #0
 950 0054 F4D1     		bne	.L46
 951              	.LBB8:
 952              	.LBB9:
 953              		.loc 1 225 0
 954 0056 211C     		mov	r1, r4
 955 0058 201C     		mov	r0, r4
 956 005a FFF7FEFF 		bl	chSemSignalWait
 957              	.LVL80:
 958              		.loc 1 226 0
 959 005e 2368     		ldr	r3, [r4]
 960 0060 0320     		mov	r0, #3
 961 0062 191B     		sub	r1, r3, r4
 962 0064 4B42     		neg	r3, r1
 963 0066 5941     		adc	r1, r1, r3
 964 0068 C9B2     		uxtb	r1, r1
 965 006a FFF7FEFF 		bl	_test_assert
ARM GAS  /tmp/ccrU0Ftr.s 			page 18


 966              	.LVL81:
 967 006e 0028     		cmp	r0, #0
 968 0070 E6D1     		bne	.L46
 969              		.loc 1 227 0
 970 0072 A168     		ldr	r1, [r4, #8]
 971 0074 0420     		mov	r0, #4
 972 0076 4B42     		neg	r3, r1
 973 0078 5941     		adc	r1, r1, r3
 974 007a C9B2     		uxtb	r1, r1
 975 007c FFF7FEFF 		bl	_test_assert
 976              	.LVL82:
 977 0080 DEE7     		b	.L46
 978              	.L52:
 979 0082 C046     		.align	2
 980              	.L51:
 981 0084 00000000 		.word	rlist
 982 0088 00000000 		.word	wa
 983 008c 00000000 		.word	thread3
 984 0090 00000000 		.word	.LANCHOR0
 985 0094 00000000 		.word	threads
 986              	.LBE9:
 987              	.LBE8:
 988              		.cfi_endproc
 989              	.LFE15:
 990              		.size	sem3_execute, .-sem3_execute
 991              		.global	patternsem
 992              		.global	testsem4
 993              		.global	testsem3
 994              		.global	testsem2
 995              		.global	testsem1
 996 0098 C046C046 		.section	.rodata.testsem1,"a",%progbits
 996      C046C046 
 997              		.align	2
 998              		.type	testsem1, %object
 999              		.size	testsem1, 16
 1000              	testsem1:
 1001 0000 74000000 		.word	.LC42
 1002 0004 00000000 		.word	sem1_setup
 1003 0008 00000000 		.word	0
 1004 000c 00000000 		.word	sem1_execute
 1005              		.section	.rodata.testsem2,"a",%progbits
 1006              		.align	2
 1007              		.type	testsem2, %object
 1008              		.size	testsem2, 16
 1009              	testsem2:
 1010 0000 60000000 		.word	.LC41
 1011 0004 00000000 		.word	sem2_setup
 1012 0008 00000000 		.word	0
 1013 000c 00000000 		.word	sem2_execute
 1014              		.section	.rodata.testsem3,"a",%progbits
 1015              		.align	2
 1016              		.type	testsem3, %object
 1017              		.size	testsem3, 16
 1018              	testsem3:
 1019 0000 40000000 		.word	.LC40
 1020 0004 00000000 		.word	sem3_setup
 1021 0008 00000000 		.word	0
ARM GAS  /tmp/ccrU0Ftr.s 			page 19


 1022 000c 00000000 		.word	sem3_execute
 1023              		.section	.rodata.testsem4,"a",%progbits
 1024              		.align	2
 1025              		.type	testsem4, %object
 1026              		.size	testsem4, 16
 1027              	testsem4:
 1028 0000 1C000000 		.word	.LC39
 1029 0004 00000000 		.word	0
 1030 0008 00000000 		.word	0
 1031 000c 00000000 		.word	sem4_execute
 1032              		.section	.data.sem1,"aw",%progbits
 1033              		.align	2
 1034              		.set	.LANCHOR0,. + 0
 1035              		.type	sem1, %object
 1036              		.size	sem1, 12
 1037              	sem1:
 1038 0000 00000000 		.word	sem1
 1039 0004 00000000 		.word	sem1
 1040 0008 00000000 		.word	0
 1041              		.section	.rodata.patternsem,"a",%progbits
 1042              		.align	2
 1043              		.type	patternsem, %object
 1044              		.size	patternsem, 20
 1045              	patternsem:
 1046 0000 00000000 		.word	testsem1
 1047 0004 00000000 		.word	testsem2
 1048 0008 00000000 		.word	testsem3
 1049 000c 00000000 		.word	testsem4
 1050 0010 00000000 		.word	0
 1051              		.section	.rodata.str1.4,"aMS",%progbits,1
 1052              		.align	2
 1053              	.LC3:
 1054 0000 4100     		.ascii	"A\000"
 1055 0002 0000     		.space	2
 1056              	.LC6:
 1057 0004 4200     		.ascii	"B\000"
 1058 0006 0000     		.space	2
 1059              	.LC8:
 1060 0008 4300     		.ascii	"C\000"
 1061 000a 0000     		.space	2
 1062              	.LC10:
 1063 000c 4400     		.ascii	"D\000"
 1064 000e 0000     		.space	2
 1065              	.LC12:
 1066 0010 4500     		.ascii	"E\000"
 1067 0012 0000     		.space	2
 1068              	.LC15:
 1069 0014 41424344 		.ascii	"ABCDE\000"
 1069      4500
 1070 001a 0000     		.space	2
 1071              	.LC39:
 1072 001c 42696E61 		.ascii	"Binary Semaphores, functionality\000"
 1072      72792053 
 1072      656D6170 
 1072      686F7265 
 1072      732C2066 
 1073 003d 000000   		.space	3
ARM GAS  /tmp/ccrU0Ftr.s 			page 20


 1074              	.LC40:
 1075 0040 53656D61 		.ascii	"Semaphores, atomic signal-wait\000"
 1075      70686F72 
 1075      65732C20 
 1075      61746F6D 
 1075      69632073 
 1076 005f 00       		.space	1
 1077              	.LC41:
 1078 0060 53656D61 		.ascii	"Semaphores, timeout\000"
 1078      70686F72 
 1078      65732C20 
 1078      74696D65 
 1078      6F757400 
 1079              	.LC42:
 1080 0074 53656D61 		.ascii	"Semaphores, enqueuing\000"
 1080      70686F72 
 1080      65732C20 
 1080      656E7175 
 1080      6575696E 
 1081 008a 0000     		.text
 1082              	.Letext0:
 1083              		.file 2 "/usr/lib/gcc/arm-none-eabi/4.8.2/include/stddef.h"
 1084              		.file 3 "/usr/arm-none-eabi/include/machine/_default_types.h"
 1085              		.file 4 "/usr/arm-none-eabi/include/stdint.h"
 1086              		.file 5 "../../os/ports/GCC/ARMCMx/chtypes.h"
 1087              		.file 6 "../../os/kernel/include/chlists.h"
 1088              		.file 7 "../../os/kernel/include/chthreads.h"
 1089              		.file 8 "../../os/ports/GCC/ARMCMx/chcore_v6m.h"
 1090              		.file 9 "../../os/kernel/include/chvt.h"
 1091              		.file 10 "../../os/kernel/include/chschd.h"
 1092              		.file 11 "../../os/kernel/include/chsem.h"
 1093              		.file 12 "../../os/kernel/include/chbsem.h"
 1094              		.file 13 "../../os/kernel/include/chmtx.h"
 1095              		.file 14 "../../test/test.h"