ARM GAS  /tmp/ccA5jpNf.s 			page 1


   1              		.cpu cortex-m0
   2              		.fpu softvfp
   3              		.eabi_attribute 20, 1
   4              		.eabi_attribute 21, 1
   5              		.eabi_attribute 23, 3
   6              		.eabi_attribute 24, 1
   7              		.eabi_attribute 25, 1
   8              		.eabi_attribute 26, 1
   9              		.eabi_attribute 30, 2
  10              		.eabi_attribute 34, 0
  11              		.eabi_attribute 18, 4
  12              		.code	16
  13              		.file	"testqueues.c"
  14              		.text
  15              	.Ltext0:
  16              		.cfi_sections	.debug_frame
  17              		.section	.text.notify,"ax",%progbits
  18              		.align	2
  19              		.p2align 4,,15
  20              		.code	16
  21              		.thumb_func
  22              		.type	notify, %function
  23              	notify:
  24              	.LFB7:
  25              		.file 1 "../../test/testqueues.c"
  26              		.loc 1 57 0
  27              		.cfi_startproc
  28              	.LVL0:
  29              		.loc 1 59 0
  30              		@ sp needed
  31 0000 7047     		bx	lr
  32              		.cfi_endproc
  33              	.LFE7:
  34              		.size	notify, .-notify
  35 0002 C046C046 		.section	.text.thread1,"ax",%progbits
  35      C046C046 
  35      C046C046 
  35      C046
  36              		.align	2
  37              		.p2align 4,,15
  38              		.code	16
  39              		.thumb_func
  40              		.type	thread1, %function
  41              	thread1:
  42              	.LFB9:
  43              		.loc 1 83 0
  44              		.cfi_startproc
  45              	.LVL1:
  46 0000 08B5     		push	{r3, lr}
  47              		.cfi_def_cfa_offset 8
  48              		.cfi_offset 3, -8
  49              		.cfi_offset 14, -4
  50              		.loc 1 86 0
  51 0002 0348     		ldr	r0, .L3
  52              	.LVL2:
  53 0004 C821     		mov	r1, #200
  54 0006 FFF7FEFF 		bl	chIQGetTimeout
ARM GAS  /tmp/ccA5jpNf.s 			page 2


  55              	.LVL3:
  56              		.loc 1 88 0
  57              		@ sp needed
  58 000a 0020     		mov	r0, #0
  59 000c 08BD     		pop	{r3, pc}
  60              	.L4:
  61 000e C046     		.align	2
  62              	.L3:
  63 0010 00000000 		.word	.LANCHOR0
  64              		.cfi_endproc
  65              	.LFE9:
  66              		.size	thread1, .-thread1
  67 0014 C046C046 		.section	.text.queues1_setup,"ax",%progbits
  67      C046C046 
  67      C046C046 
  68              		.align	2
  69              		.p2align 4,,15
  70              		.code	16
  71              		.thumb_func
  72              		.type	queues1_setup, %function
  73              	queues1_setup:
  74              	.LFB8:
  75              		.loc 1 78 0
  76              		.cfi_startproc
  77 0000 00B5     		push	{lr}
  78              		.cfi_def_cfa_offset 4
  79              		.cfi_offset 14, -4
  80              		.loc 1 80 0
  81 0002 064B     		ldr	r3, .L6
  82              		.loc 1 78 0
  83 0004 83B0     		sub	sp, sp, #12
  84              		.cfi_def_cfa_offset 16
  85              		.loc 1 80 0
  86 0006 1968     		ldr	r1, [r3]
  87 0008 0023     		mov	r3, #0
  88 000a 0093     		str	r3, [sp]
  89 000c 0448     		ldr	r0, .L6+4
  90 000e 0422     		mov	r2, #4
  91 0010 044B     		ldr	r3, .L6+8
  92 0012 FFF7FEFF 		bl	chIQInit
  93              	.LVL4:
  94              		.loc 1 81 0
  95 0016 03B0     		add	sp, sp, #12
  96              		@ sp needed
  97 0018 00BD     		pop	{pc}
  98              	.L7:
  99 001a C046     		.align	2
 100              	.L6:
 101 001c 00000000 		.word	wa
 102 0020 00000000 		.word	.LANCHOR0
 103 0024 00000000 		.word	notify
 104              		.cfi_endproc
 105              	.LFE8:
 106              		.size	queues1_setup, .-queues1_setup
 107 0028 C046C046 		.section	.text.thread2,"ax",%progbits
 107      C046C046 
 108              		.align	2
ARM GAS  /tmp/ccA5jpNf.s 			page 3


 109              		.p2align 4,,15
 110              		.code	16
 111              		.thumb_func
 112              		.type	thread2, %function
 113              	thread2:
 114              	.LFB12:
 115              		.loc 1 170 0
 116              		.cfi_startproc
 117              	.LVL5:
 118 0000 08B5     		push	{r3, lr}
 119              		.cfi_def_cfa_offset 8
 120              		.cfi_offset 3, -8
 121              		.cfi_offset 14, -4
 122              		.loc 1 173 0
 123 0002 0348     		ldr	r0, .L9
 124              	.LVL6:
 125 0004 0021     		mov	r1, #0
 126 0006 C822     		mov	r2, #200
 127 0008 FFF7FEFF 		bl	chOQPutTimeout
 128              	.LVL7:
 129              		.loc 1 175 0
 130              		@ sp needed
 131 000c 0020     		mov	r0, #0
 132 000e 08BD     		pop	{r3, pc}
 133              	.L10:
 134              		.align	2
 135              	.L9:
 136 0010 00000000 		.word	.LANCHOR1
 137              		.cfi_endproc
 138              	.LFE12:
 139              		.size	thread2, .-thread2
 140 0014 C046C046 		.section	.text.queues2_setup,"ax",%progbits
 140      C046C046 
 140      C046C046 
 141              		.align	2
 142              		.p2align 4,,15
 143              		.code	16
 144              		.thumb_func
 145              		.type	queues2_setup, %function
 146              	queues2_setup:
 147              	.LFB11:
 148              		.loc 1 165 0
 149              		.cfi_startproc
 150 0000 00B5     		push	{lr}
 151              		.cfi_def_cfa_offset 4
 152              		.cfi_offset 14, -4
 153              		.loc 1 167 0
 154 0002 064B     		ldr	r3, .L12
 155              		.loc 1 165 0
 156 0004 83B0     		sub	sp, sp, #12
 157              		.cfi_def_cfa_offset 16
 158              		.loc 1 167 0
 159 0006 1968     		ldr	r1, [r3]
 160 0008 0023     		mov	r3, #0
 161 000a 0093     		str	r3, [sp]
 162 000c 0448     		ldr	r0, .L12+4
 163 000e 0422     		mov	r2, #4
ARM GAS  /tmp/ccA5jpNf.s 			page 4


 164 0010 044B     		ldr	r3, .L12+8
 165 0012 FFF7FEFF 		bl	chOQInit
 166              	.LVL8:
 167              		.loc 1 168 0
 168 0016 03B0     		add	sp, sp, #12
 169              		@ sp needed
 170 0018 00BD     		pop	{pc}
 171              	.L13:
 172 001a C046     		.align	2
 173              	.L12:
 174 001c 00000000 		.word	wa
 175 0020 00000000 		.word	.LANCHOR1
 176 0024 00000000 		.word	notify
 177              		.cfi_endproc
 178              	.LFE11:
 179              		.size	queues2_setup, .-queues2_setup
 180 0028 C046C046 		.section	.text.queues1_execute,"ax",%progbits
 180      C046C046 
 181              		.align	2
 182              		.p2align 4,,15
 183              		.code	16
 184              		.thumb_func
 185              		.type	queues1_execute, %function
 186              	queues1_execute:
 187              	.LFB10:
 188              		.loc 1 90 0
 189              		.cfi_startproc
 190 0000 70B5     		push	{r4, r5, r6, lr}
 191              		.cfi_def_cfa_offset 16
 192              		.cfi_offset 4, -16
 193              		.cfi_offset 5, -12
 194              		.cfi_offset 6, -8
 195              		.cfi_offset 14, -4
 196 0002 84B0     		sub	sp, sp, #16
 197              		.cfi_def_cfa_offset 32
 198              		.loc 1 95 0
 199              	@ 95 "../../test/testqueues.c" 1
 200 0004 72B6     		cpsid   i
 201              	@ 0 "" 2
 202              		.code	16
 203 0006 7C4D     		ldr	r5, .L38
 204 0008 0120     		mov	r0, #1
 205 000a AA68     		ldr	r2, [r5, #8]
 206 000c 5142     		neg	r1, r2
 207 000e 5141     		adc	r1, r1, r2
 208 0010 C9B2     		uxtb	r1, r1
 209 0012 FFF7FEFF 		bl	_test_assert
 210              	.LVL9:
 211 0016 061E     		sub	r6, r0, #0
 212 0018 17D1     		bne	.L35
 213              		.loc 1 95 0 is_stmt 0 discriminator 2
 214              	@ 95 "../../test/testqueues.c" 1
 215 001a 62B6     		cpsie   i
 216              	@ 0 "" 2
 217              		.loc 1 98 0 is_stmt 1 discriminator 2
 218              	@ 98 "../../test/testqueues.c" 1
 219 001c 72B6     		cpsid   i
ARM GAS  /tmp/ccA5jpNf.s 			page 5


 220              	@ 0 "" 2
 221              	.LVL10:
 222              		.code	16
 223 001e 4124     		mov	r4, #65
 224              	.LVL11:
 225              	.L18:
 226              		.loc 1 100 0 discriminator 2
 227 0020 211C     		mov	r1, r4
 228 0022 0134     		add	r4, r4, #1
 229 0024 281C     		mov	r0, r5
 230 0026 E4B2     		uxtb	r4, r4
 231 0028 FFF7FEFF 		bl	chIQPutI
 232              	.LVL12:
 233              		.loc 1 99 0 discriminator 2
 234 002c 452C     		cmp	r4, #69
 235 002e F7D1     		bne	.L18
 236              		.loc 1 101 0
 237              	@ 101 "../../test/testqueues.c" 1
 238 0030 62B6     		cpsie   i
 239              	@ 0 "" 2
 240              		.loc 1 102 0
 241              	@ 102 "../../test/testqueues.c" 1
 242 0032 72B6     		cpsid   i
 243              	@ 0 "" 2
 244              		.code	16
 245 0034 6B69     		ldr	r3, [r5, #20]
 246 0036 AA69     		ldr	r2, [r5, #24]
 247 0038 9342     		cmp	r3, r2
 248 003a 00D1     		bne	.LCB179
 249 003c D6E0     		b	.L37	@long jump
 250              	.LCB179:
 251              	.L19:
 252              		.loc 1 102 0 is_stmt 0 discriminator 4
 253 003e 0220     		mov	r0, #2
 254 0040 311C     		mov	r1, r6
 255 0042 FFF7FEFF 		bl	_test_assert
 256              	.LVL13:
 257 0046 0028     		cmp	r0, #0
 258 0048 02D0     		beq	.L20
 259              	.L35:
 260              	.LBB5:
 261              	.LBB6:
 262              		.loc 1 142 0 is_stmt 1
 263              	@ 142 "../../test/testqueues.c" 1
 264 004a 62B6     		cpsie   i
 265              	@ 0 "" 2
 266              		.code	16
 267              	.L14:
 268              	.LBE6:
 269              	.LBE5:
 270              		.loc 1 147 0
 271 004c 04B0     		add	sp, sp, #16
 272              		@ sp needed
 273 004e 70BD     		pop	{r4, r5, r6, pc}
 274              	.L20:
 275              	.LBB8:
 276              	.LBB7:
ARM GAS  /tmp/ccA5jpNf.s 			page 6


 277              		.loc 1 102 0
 278              	@ 102 "../../test/testqueues.c" 1
 279 0050 62B6     		cpsie   i
 280              	@ 0 "" 2
 281              		.loc 1 103 0
 282              	@ 103 "../../test/testqueues.c" 1
 283 0052 72B6     		cpsid   i
 284              	@ 0 "" 2
 285              		.code	16
 286 0054 0021     		mov	r1, #0
 287 0056 281C     		mov	r0, r5
 288 0058 FFF7FEFF 		bl	chIQPutI
 289              	.LVL14:
 290 005c 011D     		add	r1, r0, #4
 291 005e 4B42     		neg	r3, r1
 292 0060 5941     		adc	r1, r1, r3
 293 0062 C9B2     		uxtb	r1, r1
 294 0064 0320     		mov	r0, #3
 295 0066 FFF7FEFF 		bl	_test_assert
 296              	.LVL15:
 297 006a 0028     		cmp	r0, #0
 298 006c EDD1     		bne	.L35
 299              	@ 103 "../../test/testqueues.c" 1
 300 006e 62B6     		cpsie   i
 301              	@ 0 "" 2
 302              	.LVL16:
 303              		.code	16
 304 0070 0424     		mov	r4, #4
 305              	.LVL17:
 306              	.L23:
 307              		.loc 1 107 0
 308 0072 0121     		mov	r1, #1
 309 0074 4942     		neg	r1, r1
 310 0076 281C     		mov	r0, r5
 311 0078 FFF7FEFF 		bl	chIQGetTimeout
 312              	.LVL18:
 313 007c 013C     		sub	r4, r4, #1
 314              	.LVL19:
 315 007e C0B2     		uxtb	r0, r0
 316 0080 FFF7FEFF 		bl	test_emit_token
 317              	.LVL20:
 318              		.loc 1 106 0
 319 0084 002C     		cmp	r4, #0
 320 0086 F4D1     		bne	.L23
 321              		.loc 1 108 0
 322              	@ 108 "../../test/testqueues.c" 1
 323 0088 72B6     		cpsid   i
 324              	@ 0 "" 2
 325              		.code	16
 326 008a AA68     		ldr	r2, [r5, #8]
 327 008c 0420     		mov	r0, #4
 328 008e 5142     		neg	r1, r2
 329 0090 5141     		adc	r1, r1, r2
 330 0092 C9B2     		uxtb	r1, r1
 331 0094 FFF7FEFF 		bl	_test_assert
 332              	.LVL21:
 333 0098 0028     		cmp	r0, #0
ARM GAS  /tmp/ccA5jpNf.s 			page 7


 334 009a D6D1     		bne	.L35
 335              	@ 108 "../../test/testqueues.c" 1
 336 009c 62B6     		cpsie   i
 337              	@ 0 "" 2
 338              		.loc 1 109 0
 339              		.code	16
 340 009e 0520     		mov	r0, #5
 341 00a0 5649     		ldr	r1, .L38+4
 342 00a2 FFF7FEFF 		bl	_test_assert_sequence
 343              	.LVL22:
 344 00a6 0028     		cmp	r0, #0
 345 00a8 D0D1     		bne	.L14
 346              		.loc 1 112 0
 347              	@ 112 "../../test/testqueues.c" 1
 348 00aa 72B6     		cpsid   i
 349              	@ 0 "" 2
 350              	.LVL23:
 351              		.code	16
 352 00ac 4124     		mov	r4, #65
 353              	.LVL24:
 354              	.L27:
 355              		.loc 1 114 0
 356 00ae 211C     		mov	r1, r4
 357 00b0 0134     		add	r4, r4, #1
 358 00b2 281C     		mov	r0, r5
 359 00b4 E4B2     		uxtb	r4, r4
 360 00b6 FFF7FEFF 		bl	chIQPutI
 361              	.LVL25:
 362              		.loc 1 113 0
 363 00ba 452C     		cmp	r4, #69
 364 00bc F7D1     		bne	.L27
 365              		.loc 1 115 0
 366              	@ 115 "../../test/testqueues.c" 1
 367 00be 62B6     		cpsie   i
 368              	@ 0 "" 2
 369              		.loc 1 118 0
 370              		.code	16
 371 00c0 4F4E     		ldr	r6, .L38+8
 372 00c2 281C     		mov	r0, r5
 373 00c4 7368     		ldr	r3, [r6, #4]
 374 00c6 0822     		mov	r2, #8
 375 00c8 191C     		mov	r1, r3
 376 00ca 0393     		str	r3, [sp, #12]
 377 00cc 0023     		mov	r3, #0
 378 00ce FFF7FEFF 		bl	chIQReadTimeout
 379              	.LVL26:
 380              		.loc 1 119 0
 381 00d2 011F     		sub	r1, r0, #4
 382 00d4 4B42     		neg	r3, r1
 383 00d6 5941     		adc	r1, r1, r3
 384 00d8 C9B2     		uxtb	r1, r1
 385 00da 0620     		mov	r0, #6
 386              	.LVL27:
 387 00dc FFF7FEFF 		bl	_test_assert
 388              	.LVL28:
 389 00e0 0028     		cmp	r0, #0
 390 00e2 B3D1     		bne	.L14
ARM GAS  /tmp/ccA5jpNf.s 			page 8


 391              		.loc 1 120 0
 392              	@ 120 "../../test/testqueues.c" 1
 393 00e4 72B6     		cpsid   i
 394              	@ 0 "" 2
 395              		.code	16
 396 00e6 AA68     		ldr	r2, [r5, #8]
 397 00e8 0720     		mov	r0, #7
 398 00ea 5142     		neg	r1, r2
 399 00ec 5141     		adc	r1, r1, r2
 400 00ee C9B2     		uxtb	r1, r1
 401 00f0 FFF7FEFF 		bl	_test_assert
 402              	.LVL29:
 403 00f4 0028     		cmp	r0, #0
 404 00f6 A8D1     		bne	.L35
 405              	@ 120 "../../test/testqueues.c" 1
 406 00f8 62B6     		cpsie   i
 407              	@ 0 "" 2
 408              		.loc 1 123 0
 409              	@ 123 "../../test/testqueues.c" 1
 410 00fa 72B6     		cpsid   i
 411              	@ 0 "" 2
 412              	.LVL30:
 413              		.code	16
 414 00fc 4124     		mov	r4, #65
 415              	.LVL31:
 416              	.L31:
 417              		.loc 1 125 0
 418 00fe 211C     		mov	r1, r4
 419 0100 0134     		add	r4, r4, #1
 420 0102 281C     		mov	r0, r5
 421 0104 E4B2     		uxtb	r4, r4
 422 0106 FFF7FEFF 		bl	chIQPutI
 423              	.LVL32:
 424              		.loc 1 124 0
 425 010a 452C     		cmp	r4, #69
 426 010c F7D1     		bne	.L31
 427              		.loc 1 126 0
 428              	@ 126 "../../test/testqueues.c" 1
 429 010e 62B6     		cpsie   i
 430              	@ 0 "" 2
 431              		.loc 1 129 0
 432              		.code	16
 433 0110 7368     		ldr	r3, [r6, #4]
 434 0112 281C     		mov	r0, r5
 435 0114 191C     		mov	r1, r3
 436 0116 0393     		str	r3, [sp, #12]
 437 0118 0222     		mov	r2, #2
 438 011a 0023     		mov	r3, #0
 439 011c FFF7FEFF 		bl	chIQReadTimeout
 440              	.LVL33:
 441              		.loc 1 130 0
 442 0120 811E     		sub	r1, r0, #2
 443 0122 4B42     		neg	r3, r1
 444 0124 5941     		adc	r1, r1, r3
 445 0126 C9B2     		uxtb	r1, r1
 446 0128 0820     		mov	r0, #8
 447              	.LVL34:
ARM GAS  /tmp/ccA5jpNf.s 			page 9


 448 012a FFF7FEFF 		bl	_test_assert
 449              	.LVL35:
 450 012e 0028     		cmp	r0, #0
 451 0130 00D0     		beq	.LCB340
 452 0132 8BE7     		b	.L14	@long jump
 453              	.LCB340:
 454              		.loc 1 131 0
 455 0134 0399     		ldr	r1, [sp, #12]
 456 0136 0023     		mov	r3, #0
 457 0138 281C     		mov	r0, r5
 458 013a 0222     		mov	r2, #2
 459 013c FFF7FEFF 		bl	chIQReadTimeout
 460              	.LVL36:
 461              		.loc 1 132 0
 462 0140 811E     		sub	r1, r0, #2
 463 0142 4B42     		neg	r3, r1
 464 0144 5941     		adc	r1, r1, r3
 465 0146 C9B2     		uxtb	r1, r1
 466 0148 0920     		mov	r0, #9
 467              	.LVL37:
 468 014a FFF7FEFF 		bl	_test_assert
 469              	.LVL38:
 470 014e 0028     		cmp	r0, #0
 471 0150 00D0     		beq	.LCB356
 472 0152 7BE7     		b	.L14	@long jump
 473              	.LCB356:
 474              		.loc 1 133 0
 475              	@ 133 "../../test/testqueues.c" 1
 476 0154 72B6     		cpsid   i
 477              	@ 0 "" 2
 478              		.code	16
 479 0156 AA68     		ldr	r2, [r5, #8]
 480 0158 0A20     		mov	r0, #10
 481 015a 5142     		neg	r1, r2
 482 015c 5141     		adc	r1, r1, r2
 483 015e C9B2     		uxtb	r1, r1
 484 0160 FFF7FEFF 		bl	_test_assert
 485              	.LVL39:
 486 0164 0028     		cmp	r0, #0
 487 0166 00D0     		beq	.LCB366
 488 0168 6FE7     		b	.L35	@long jump
 489              	.LCB366:
 490              	@ 133 "../../test/testqueues.c" 1
 491 016a 62B6     		cpsie   i
 492              	@ 0 "" 2
 493              		.loc 1 136 0
 494              	@ 136 "../../test/testqueues.c" 1
 495 016c 72B6     		cpsid   i
 496              	@ 0 "" 2
 497              		.loc 1 137 0
 498              		.code	16
 499 016e 0021     		mov	r1, #0
 500 0170 281C     		mov	r0, r5
 501 0172 FFF7FEFF 		bl	chIQPutI
 502              	.LVL40:
 503              		.loc 1 138 0
 504 0176 281C     		mov	r0, r5
ARM GAS  /tmp/ccA5jpNf.s 			page 10


 505 0178 FFF7FEFF 		bl	chIQResetI
 506              	.LVL41:
 507              		.loc 1 139 0
 508              	@ 139 "../../test/testqueues.c" 1
 509 017c 62B6     		cpsie   i
 510              	@ 0 "" 2
 511              		.loc 1 140 0
 512              	@ 140 "../../test/testqueues.c" 1
 513 017e 72B6     		cpsid   i
 514              	@ 0 "" 2
 515              		.code	16
 516 0180 1D4D     		ldr	r5, .L38
 517 0182 0B20     		mov	r0, #11
 518 0184 AA68     		ldr	r2, [r5, #8]
 519 0186 5142     		neg	r1, r2
 520 0188 5141     		adc	r1, r1, r2
 521 018a C9B2     		uxtb	r1, r1
 522 018c FFF7FEFF 		bl	_test_assert
 523              	.LVL42:
 524 0190 0028     		cmp	r0, #0
 525 0192 00D0     		beq	.LCB387
 526 0194 59E7     		b	.L35	@long jump
 527              	.LCB387:
 528              	@ 140 "../../test/testqueues.c" 1
 529 0196 62B6     		cpsie   i
 530              	@ 0 "" 2
 531              		.loc 1 141 0
 532              		.code	16
 533 0198 1A4B     		ldr	r3, .L38+12
 534 019a 3668     		ldr	r6, [r6]
 535 019c 9B69     		ldr	r3, [r3, #24]
 536 019e 9821     		mov	r1, #152
 537 01a0 9A68     		ldr	r2, [r3, #8]
 538 01a2 0023     		mov	r3, #0
 539 01a4 0093     		str	r3, [sp]
 540 01a6 0132     		add	r2, r2, #1
 541 01a8 301C     		mov	r0, r6
 542 01aa 4900     		lsl	r1, r1, #1
 543 01ac 164B     		ldr	r3, .L38+16
 544 01ae 0396     		str	r6, [sp, #12]
 545 01b0 FFF7FEFF 		bl	chThdCreateStatic
 546              	.LVL43:
 547 01b4 154B     		ldr	r3, .L38+20
 548 01b6 1860     		str	r0, [r3]
 549              		.loc 1 142 0
 550              	@ 142 "../../test/testqueues.c" 1
 551 01b8 72B6     		cpsid   i
 552              	@ 0 "" 2
 553              		.code	16
 554 01ba AA68     		ldr	r2, [r5, #8]
 555 01bc 0C20     		mov	r0, #12
 556 01be 5142     		neg	r1, r2
 557 01c0 5141     		adc	r1, r1, r2
 558 01c2 C9B2     		uxtb	r1, r1
 559 01c4 FFF7FEFF 		bl	_test_assert
 560              	.LVL44:
 561 01c8 0028     		cmp	r0, #0
ARM GAS  /tmp/ccA5jpNf.s 			page 11


 562 01ca 00D0     		beq	.LCB414
 563 01cc 3DE7     		b	.L35	@long jump
 564              	.LCB414:
 565              	@ 142 "../../test/testqueues.c" 1
 566 01ce 62B6     		cpsie   i
 567              	@ 0 "" 2
 568              		.loc 1 143 0
 569              		.code	16
 570 01d0 FFF7FEFF 		bl	test_wait_threads
 571              	.LVL45:
 572              		.loc 1 146 0
 573 01d4 281C     		mov	r0, r5
 574 01d6 0A21     		mov	r1, #10
 575 01d8 FFF7FEFF 		bl	chIQGetTimeout
 576              	.LVL46:
 577 01dc 411C     		add	r1, r0, #1
 578 01de 4B42     		neg	r3, r1
 579 01e0 5941     		adc	r1, r1, r3
 580 01e2 C9B2     		uxtb	r1, r1
 581 01e4 0D20     		mov	r0, #13
 582 01e6 FFF7FEFF 		bl	_test_assert
 583              	.LVL47:
 584 01ea 2FE7     		b	.L14
 585              	.L37:
 586              	.LBE7:
 587              	.LBE8:
 588              		.loc 1 102 0 discriminator 1
 589 01ec AE68     		ldr	r6, [r5, #8]
 590 01ee 731E     		sub	r3, r6, #1
 591 01f0 9E41     		sbc	r6, r6, r3
 592 01f2 F6B2     		uxtb	r6, r6
 593 01f4 23E7     		b	.L19
 594              	.L39:
 595 01f6 C046     		.align	2
 596              	.L38:
 597 01f8 00000000 		.word	.LANCHOR0
 598 01fc 00000000 		.word	.LC9
 599 0200 00000000 		.word	wa
 600 0204 00000000 		.word	rlist
 601 0208 00000000 		.word	thread1
 602 020c 00000000 		.word	threads
 603              		.cfi_endproc
 604              	.LFE10:
 605              		.size	queues1_execute, .-queues1_execute
 606              		.section	.text.queues2_execute,"ax",%progbits
 607              		.align	2
 608              		.p2align 4,,15
 609              		.code	16
 610              		.thumb_func
 611              		.type	queues2_execute, %function
 612              	queues2_execute:
 613              	.LFB13:
 614              		.loc 1 177 0
 615              		.cfi_startproc
 616 0000 70B5     		push	{r4, r5, r6, lr}
 617              		.cfi_def_cfa_offset 16
 618              		.cfi_offset 4, -16
ARM GAS  /tmp/ccA5jpNf.s 			page 12


 619              		.cfi_offset 5, -12
 620              		.cfi_offset 6, -8
 621              		.cfi_offset 14, -4
 622 0002 84B0     		sub	sp, sp, #16
 623              		.cfi_def_cfa_offset 32
 624              		.loc 1 182 0
 625              	@ 182 "../../test/testqueues.c" 1
 626 0004 72B6     		cpsid   i
 627              	@ 0 "" 2
 628              		.code	16
 629 0006 754D     		ldr	r5, .L62
 630 0008 0021     		mov	r1, #0
 631 000a 6A69     		ldr	r2, [r5, #20]
 632 000c AB69     		ldr	r3, [r5, #24]
 633 000e 9A42     		cmp	r2, r3
 634 0010 00D1     		bne	.LCB474
 635 0012 D9E0     		b	.L60	@long jump
 636              	.LCB474:
 637              	.L41:
 638              		.loc 1 182 0 is_stmt 0 discriminator 4
 639 0014 0120     		mov	r0, #1
 640 0016 FFF7FEFF 		bl	_test_assert
 641              	.LVL48:
 642 001a 0028     		cmp	r0, #0
 643 001c 2ED1     		bne	.L59
 644              		.loc 1 182 0 discriminator 2
 645              	@ 182 "../../test/testqueues.c" 1
 646 001e 62B6     		cpsie   i
 647              	@ 0 "" 2
 648              	.LVL49:
 649              		.code	16
 650 0020 4124     		mov	r4, #65
 651              	.LVL50:
 652              	.L45:
 653              		.loc 1 186 0 is_stmt 1 discriminator 2
 654 0022 211C     		mov	r1, r4
 655 0024 0122     		mov	r2, #1
 656 0026 0134     		add	r4, r4, #1
 657 0028 281C     		mov	r0, r5
 658 002a 5242     		neg	r2, r2
 659 002c E4B2     		uxtb	r4, r4
 660 002e FFF7FEFF 		bl	chOQPutTimeout
 661              	.LVL51:
 662              		.loc 1 185 0 discriminator 2
 663 0032 452C     		cmp	r4, #69
 664 0034 F5D1     		bne	.L45
 665              		.loc 1 187 0
 666              	@ 187 "../../test/testqueues.c" 1
 667 0036 72B6     		cpsid   i
 668              	@ 0 "" 2
 669              		.code	16
 670 0038 AA68     		ldr	r2, [r5, #8]
 671 003a 0220     		mov	r0, #2
 672 003c 5142     		neg	r1, r2
 673 003e 5141     		adc	r1, r1, r2
 674 0040 C9B2     		uxtb	r1, r1
 675 0042 FFF7FEFF 		bl	_test_assert
ARM GAS  /tmp/ccA5jpNf.s 			page 13


 676              	.LVL52:
 677 0046 061E     		sub	r6, r0, #0
 678 0048 18D1     		bne	.L59
 679              	.LBB12:
 680              	.LBB13:
 681              	@ 187 "../../test/testqueues.c" 1
 682 004a 62B6     		cpsie   i
 683              	@ 0 "" 2
 684              	.LVL53:
 685              		.code	16
 686 004c 0424     		mov	r4, #4
 687              	.LVL54:
 688              	.L48:
 689              	.LBB14:
 690              		.loc 1 193 0
 691              	@ 193 "../../test/testqueues.c" 1
 692 004e 72B6     		cpsid   i
 693              	@ 0 "" 2
 694              		.loc 1 194 0
 695              		.code	16
 696 0050 281C     		mov	r0, r5
 697 0052 FFF7FEFF 		bl	chOQGetI
 698              	.LVL55:
 699              		.loc 1 195 0
 700              	@ 195 "../../test/testqueues.c" 1
 701 0056 62B6     		cpsie   i
 702              	@ 0 "" 2
 703              		.loc 1 196 0
 704              		.code	16
 705 0058 C0B2     		uxtb	r0, r0
 706              	.LVL56:
 707 005a 013C     		sub	r4, r4, #1
 708              	.LVL57:
 709 005c FFF7FEFF 		bl	test_emit_token
 710              	.LVL58:
 711              	.LBE14:
 712              		.loc 1 190 0
 713 0060 002C     		cmp	r4, #0
 714 0062 F4D1     		bne	.L48
 715              		.loc 1 198 0
 716              	@ 198 "../../test/testqueues.c" 1
 717 0064 72B6     		cpsid   i
 718              	@ 0 "" 2
 719              		.code	16
 720 0066 6B69     		ldr	r3, [r5, #20]
 721 0068 AA69     		ldr	r2, [r5, #24]
 722 006a 9342     		cmp	r3, r2
 723 006c 00D1     		bne	.LCB541
 724 006e B0E0     		b	.L61	@long jump
 725              	.LCB541:
 726              	.L49:
 727 0070 0320     		mov	r0, #3
 728 0072 311C     		mov	r1, r6
 729 0074 FFF7FEFF 		bl	_test_assert
 730              	.LVL59:
 731 0078 0028     		cmp	r0, #0
 732 007a 02D0     		beq	.L50
ARM GAS  /tmp/ccA5jpNf.s 			page 14


 733              	.L59:
 734              		.loc 1 221 0
 735              	@ 221 "../../test/testqueues.c" 1
 736 007c 62B6     		cpsie   i
 737              	@ 0 "" 2
 738              		.code	16
 739              	.L40:
 740              	.LBE13:
 741              	.LBE12:
 742              		.loc 1 225 0
 743 007e 04B0     		add	sp, sp, #16
 744              		@ sp needed
 745 0080 70BD     		pop	{r4, r5, r6, pc}
 746              	.L50:
 747              	.LBB17:
 748              	.LBB15:
 749              		.loc 1 198 0
 750              	@ 198 "../../test/testqueues.c" 1
 751 0082 62B6     		cpsie   i
 752              	@ 0 "" 2
 753              		.loc 1 199 0
 754              		.code	16
 755 0084 0420     		mov	r0, #4
 756 0086 5649     		ldr	r1, .L62+4
 757 0088 FFF7FEFF 		bl	_test_assert_sequence
 758              	.LVL60:
 759 008c 0028     		cmp	r0, #0
 760 008e F6D1     		bne	.L40
 761              		.loc 1 200 0
 762              	@ 200 "../../test/testqueues.c" 1
 763 0090 72B6     		cpsid   i
 764              	@ 0 "" 2
 765              		.code	16
 766 0092 281C     		mov	r0, r5
 767 0094 FFF7FEFF 		bl	chOQGetI
 768              	.LVL61:
 769 0098 C11C     		add	r1, r0, #3
 770 009a 4B42     		neg	r3, r1
 771 009c 5941     		adc	r1, r1, r3
 772 009e C9B2     		uxtb	r1, r1
 773 00a0 0520     		mov	r0, #5
 774 00a2 FFF7FEFF 		bl	_test_assert
 775              	.LVL62:
 776 00a6 0028     		cmp	r0, #0
 777 00a8 E8D1     		bne	.L59
 778              	@ 200 "../../test/testqueues.c" 1
 779 00aa 62B6     		cpsie   i
 780              	@ 0 "" 2
 781              		.loc 1 203 0
 782              		.code	16
 783 00ac 4D4C     		ldr	r4, .L62+8
 784 00ae 281C     		mov	r0, r5
 785 00b0 6368     		ldr	r3, [r4, #4]
 786 00b2 0822     		mov	r2, #8
 787 00b4 191C     		mov	r1, r3
 788 00b6 0393     		str	r3, [sp, #12]
 789 00b8 0023     		mov	r3, #0
ARM GAS  /tmp/ccA5jpNf.s 			page 15


 790 00ba FFF7FEFF 		bl	chOQWriteTimeout
 791              	.LVL63:
 792              		.loc 1 204 0
 793 00be 011F     		sub	r1, r0, #4
 794 00c0 4B42     		neg	r3, r1
 795 00c2 5941     		adc	r1, r1, r3
 796 00c4 C9B2     		uxtb	r1, r1
 797 00c6 0620     		mov	r0, #6
 798              	.LVL64:
 799 00c8 FFF7FEFF 		bl	_test_assert
 800              	.LVL65:
 801 00cc 0028     		cmp	r0, #0
 802 00ce D6D1     		bne	.L40
 803              		.loc 1 205 0
 804              	@ 205 "../../test/testqueues.c" 1
 805 00d0 72B6     		cpsid   i
 806              	@ 0 "" 2
 807              		.code	16
 808 00d2 AA68     		ldr	r2, [r5, #8]
 809 00d4 0720     		mov	r0, #7
 810 00d6 5142     		neg	r1, r2
 811 00d8 5141     		adc	r1, r1, r2
 812 00da C9B2     		uxtb	r1, r1
 813 00dc FFF7FEFF 		bl	_test_assert
 814              	.LVL66:
 815 00e0 0028     		cmp	r0, #0
 816 00e2 CBD1     		bne	.L59
 817              	@ 205 "../../test/testqueues.c" 1
 818 00e4 62B6     		cpsie   i
 819              	@ 0 "" 2
 820              		.loc 1 206 0
 821              		.code	16
 822 00e6 2368     		ldr	r3, [r4]
 823 00e8 9821     		mov	r1, #152
 824 00ea 0393     		str	r3, [sp, #12]
 825 00ec 3E4B     		ldr	r3, .L62+12
 826 00ee 0398     		ldr	r0, [sp, #12]
 827 00f0 9B69     		ldr	r3, [r3, #24]
 828 00f2 4900     		lsl	r1, r1, #1
 829 00f4 9A68     		ldr	r2, [r3, #8]
 830 00f6 0023     		mov	r3, #0
 831 00f8 0093     		str	r3, [sp]
 832 00fa 0132     		add	r2, r2, #1
 833 00fc 3B4B     		ldr	r3, .L62+16
 834 00fe FFF7FEFF 		bl	chThdCreateStatic
 835              	.LVL67:
 836 0102 3B4B     		ldr	r3, .L62+20
 837 0104 1860     		str	r0, [r3]
 838              		.loc 1 207 0
 839              	@ 207 "../../test/testqueues.c" 1
 840 0106 72B6     		cpsid   i
 841              	@ 0 "" 2
 842              		.code	16
 843 0108 2A69     		ldr	r2, [r5, #16]
 844 010a EB68     		ldr	r3, [r5, #12]
 845 010c 0820     		mov	r0, #8
 846 010e D11A     		sub	r1, r2, r3
ARM GAS  /tmp/ccA5jpNf.s 			page 16


 847 0110 AA68     		ldr	r2, [r5, #8]
 848 0112 891A     		sub	r1, r1, r2
 849 0114 0439     		sub	r1, r1, #4
 850 0116 4B42     		neg	r3, r1
 851 0118 5941     		adc	r1, r1, r3
 852 011a C9B2     		uxtb	r1, r1
 853 011c FFF7FEFF 		bl	_test_assert
 854              	.LVL68:
 855 0120 0028     		cmp	r0, #0
 856 0122 ABD1     		bne	.L59
 857              	@ 207 "../../test/testqueues.c" 1
 858 0124 62B6     		cpsie   i
 859              	@ 0 "" 2
 860              		.loc 1 208 0
 861              		.code	16
 862 0126 FFF7FEFF 		bl	test_wait_threads
 863              	.LVL69:
 864              		.loc 1 211 0
 865              	@ 211 "../../test/testqueues.c" 1
 866 012a 72B6     		cpsid   i
 867              	@ 0 "" 2
 868              		.loc 1 212 0
 869              		.code	16
 870 012c 281C     		mov	r0, r5
 871 012e FFF7FEFF 		bl	chOQResetI
 872              	.LVL70:
 873              		.loc 1 213 0
 874              	@ 213 "../../test/testqueues.c" 1
 875 0132 62B6     		cpsie   i
 876              	@ 0 "" 2
 877              		.loc 1 214 0
 878              	@ 214 "../../test/testqueues.c" 1
 879 0134 72B6     		cpsid   i
 880              	@ 0 "" 2
 881              		.code	16
 882 0136 294D     		ldr	r5, .L62
 883 0138 0920     		mov	r0, #9
 884 013a 2B69     		ldr	r3, [r5, #16]
 885 013c EA68     		ldr	r2, [r5, #12]
 886 013e 991A     		sub	r1, r3, r2
 887 0140 AB68     		ldr	r3, [r5, #8]
 888 0142 C91A     		sub	r1, r1, r3
 889 0144 4B42     		neg	r3, r1
 890 0146 5941     		adc	r1, r1, r3
 891 0148 C9B2     		uxtb	r1, r1
 892 014a FFF7FEFF 		bl	_test_assert
 893              	.LVL71:
 894 014e 0028     		cmp	r0, #0
 895 0150 00D0     		beq	.LCB681
 896 0152 93E7     		b	.L59	@long jump
 897              	.LCB681:
 898              	@ 214 "../../test/testqueues.c" 1
 899 0154 62B6     		cpsie   i
 900              	@ 0 "" 2
 901              		.loc 1 217 0
 902              		.code	16
 903 0156 6468     		ldr	r4, [r4, #4]
ARM GAS  /tmp/ccA5jpNf.s 			page 17


 904 0158 0023     		mov	r3, #0
 905 015a 211C     		mov	r1, r4
 906 015c 0222     		mov	r2, #2
 907 015e 281C     		mov	r0, r5
 908 0160 FFF7FEFF 		bl	chOQWriteTimeout
 909              	.LVL72:
 910              		.loc 1 218 0
 911 0164 811E     		sub	r1, r0, #2
 912 0166 4B42     		neg	r3, r1
 913 0168 5941     		adc	r1, r1, r3
 914 016a C9B2     		uxtb	r1, r1
 915 016c 0A20     		mov	r0, #10
 916              	.LVL73:
 917 016e FFF7FEFF 		bl	_test_assert
 918              	.LVL74:
 919 0172 031E     		sub	r3, r0, #0
 920 0174 00D0     		beq	.LCB700
 921 0176 82E7     		b	.L40	@long jump
 922              	.LCB700:
 923              		.loc 1 219 0
 924 0178 211C     		mov	r1, r4
 925 017a 281C     		mov	r0, r5
 926 017c 0222     		mov	r2, #2
 927 017e FFF7FEFF 		bl	chOQWriteTimeout
 928              	.LVL75:
 929              		.loc 1 220 0
 930 0182 811E     		sub	r1, r0, #2
 931 0184 4B42     		neg	r3, r1
 932 0186 5941     		adc	r1, r1, r3
 933 0188 C9B2     		uxtb	r1, r1
 934 018a 0B20     		mov	r0, #11
 935              	.LVL76:
 936 018c FFF7FEFF 		bl	_test_assert
 937              	.LVL77:
 938 0190 0028     		cmp	r0, #0
 939 0192 00D0     		beq	.LCB715
 940 0194 73E7     		b	.L40	@long jump
 941              	.LCB715:
 942              		.loc 1 221 0
 943              	@ 221 "../../test/testqueues.c" 1
 944 0196 72B6     		cpsid   i
 945              	@ 0 "" 2
 946              		.code	16
 947 0198 AA68     		ldr	r2, [r5, #8]
 948 019a 0C20     		mov	r0, #12
 949 019c 5142     		neg	r1, r2
 950 019e 5141     		adc	r1, r1, r2
 951 01a0 C9B2     		uxtb	r1, r1
 952 01a2 FFF7FEFF 		bl	_test_assert
 953              	.LVL78:
 954 01a6 0028     		cmp	r0, #0
 955 01a8 00D0     		beq	.LCB725
 956 01aa 67E7     		b	.L59	@long jump
 957              	.LCB725:
 958              	@ 221 "../../test/testqueues.c" 1
 959 01ac 62B6     		cpsie   i
 960              	@ 0 "" 2
ARM GAS  /tmp/ccA5jpNf.s 			page 18


 961              		.loc 1 224 0
 962              		.code	16
 963 01ae 0021     		mov	r1, #0
 964 01b0 281C     		mov	r0, r5
 965 01b2 0A22     		mov	r2, #10
 966 01b4 FFF7FEFF 		bl	chOQPutTimeout
 967              	.LVL79:
 968 01b8 411C     		add	r1, r0, #1
 969 01ba 4B42     		neg	r3, r1
 970 01bc 5941     		adc	r1, r1, r3
 971 01be C9B2     		uxtb	r1, r1
 972 01c0 0D20     		mov	r0, #13
 973 01c2 FFF7FEFF 		bl	_test_assert
 974              	.LVL80:
 975 01c6 5AE7     		b	.L40
 976              	.L60:
 977              	.LBE15:
 978              	.LBE17:
 979              		.loc 1 182 0 discriminator 1
 980 01c8 A968     		ldr	r1, [r5, #8]
 981 01ca 4B1E     		sub	r3, r1, #1
 982 01cc 9941     		sbc	r1, r1, r3
 983 01ce C9B2     		uxtb	r1, r1
 984 01d0 20E7     		b	.L41
 985              	.L61:
 986              	.LBB18:
 987              	.LBB16:
 988              		.loc 1 198 0
 989 01d2 AE68     		ldr	r6, [r5, #8]
 990 01d4 731E     		sub	r3, r6, #1
 991 01d6 9E41     		sbc	r6, r6, r3
 992 01d8 F6B2     		uxtb	r6, r6
 993 01da 49E7     		b	.L49
 994              	.L63:
 995              		.align	2
 996              	.L62:
 997 01dc 00000000 		.word	.LANCHOR1
 998 01e0 00000000 		.word	.LC9
 999 01e4 00000000 		.word	wa
 1000 01e8 00000000 		.word	rlist
 1001 01ec 00000000 		.word	thread2
 1002 01f0 00000000 		.word	threads
 1003              	.LBE16:
 1004              	.LBE18:
 1005              		.cfi_endproc
 1006              	.LFE13:
 1007              		.size	queues2_execute, .-queues2_execute
 1008              		.global	patternqueues
 1009              		.global	testqueues2
 1010              		.global	testqueues1
 1011 01f4 C046C046 		.section	.rodata.testqueues1,"a",%progbits
 1011      C046C046 
 1011      C046C046 
 1012              		.align	2
 1013              		.type	testqueues1, %object
 1014              		.size	testqueues1, 16
 1015              	testqueues1:
ARM GAS  /tmp/ccA5jpNf.s 			page 19


 1016 0000 20000000 		.word	.LC22
 1017 0004 00000000 		.word	queues1_setup
 1018 0008 00000000 		.word	0
 1019 000c 00000000 		.word	queues1_execute
 1020              		.section	.rodata.testqueues2,"a",%progbits
 1021              		.align	2
 1022              		.type	testqueues2, %object
 1023              		.size	testqueues2, 16
 1024              	testqueues2:
 1025 0000 08000000 		.word	.LC21
 1026 0004 00000000 		.word	queues2_setup
 1027 0008 00000000 		.word	0
 1028 000c 00000000 		.word	queues2_execute
 1029              		.section	.rodata.str1.4,"aMS",%progbits,1
 1030              		.align	2
 1031              	.LC9:
 1032 0000 41424344 		.ascii	"ABCD\000"
 1032      00
 1033 0005 000000   		.space	3
 1034              	.LC21:
 1035 0008 51756575 		.ascii	"Queues, output queues\000"
 1035      65732C20 
 1035      6F757470 
 1035      75742071 
 1035      75657565 
 1036 001e 0000     		.space	2
 1037              	.LC22:
 1038 0020 51756575 		.ascii	"Queues, input queues\000"
 1038      65732C20 
 1038      696E7075 
 1038      74207175 
 1038      65756573 
 1039 0035 000000   		.section	.rodata.patternqueues,"a",%progbits
 1040              		.align	2
 1041              		.type	patternqueues, %object
 1042              		.size	patternqueues, 12
 1043              	patternqueues:
 1044 0000 00000000 		.word	testqueues1
 1045 0004 00000000 		.word	testqueues2
 1046 0008 00000000 		.word	0
 1047              		.section	.data.oq,"aw",%progbits
 1048              		.align	2
 1049              		.set	.LANCHOR1,. + 0
 1050              		.type	oq, %object
 1051              		.size	oq, 36
 1052              	oq:
 1053 0000 00000000 		.word	oq
 1054 0004 00000000 		.word	oq
 1055 0008 04000000 		.word	4
 1056 000c 30010000 		.word	test+304
 1057 0010 34010000 		.word	test+308
 1058 0014 30010000 		.word	test+304
 1059 0018 30010000 		.word	test+304
 1060 001c 00000000 		.word	notify
 1061 0020 00000000 		.word	0
 1062              		.section	.data.iq,"aw",%progbits
 1063              		.align	2
ARM GAS  /tmp/ccA5jpNf.s 			page 20


 1064              		.set	.LANCHOR0,. + 0
 1065              		.type	iq, %object
 1066              		.size	iq, 36
 1067              	iq:
 1068 0000 00000000 		.word	iq
 1069 0004 00000000 		.word	iq
 1070 0008 00000000 		.word	0
 1071 000c 00000000 		.word	test
 1072 0010 04000000 		.word	test+4
 1073 0014 00000000 		.word	test
 1074 0018 00000000 		.word	test
 1075 001c 00000000 		.word	notify
 1076 0020 00000000 		.word	0
 1077              		.text
 1078              	.Letext0:
 1079              		.file 2 "/usr/lib/gcc/arm-none-eabi/4.8.2/include/stddef.h"
 1080              		.file 3 "/usr/arm-none-eabi/include/machine/_default_types.h"
 1081              		.file 4 "/usr/arm-none-eabi/include/stdint.h"
 1082              		.file 5 "../../os/ports/GCC/ARMCMx/chtypes.h"
 1083              		.file 6 "../../os/kernel/include/chlists.h"
 1084              		.file 7 "../../os/kernel/include/chthreads.h"
 1085              		.file 8 "../../os/ports/GCC/ARMCMx/chcore_v6m.h"
 1086              		.file 9 "../../os/kernel/include/chschd.h"
 1087              		.file 10 "../../os/kernel/include/chmtx.h"
 1088              		.file 11 "../../os/kernel/include/chqueues.h"
 1089              		.file 12 "../../test/test.h"