ARM GAS  /tmp/ccv3kRpi.s 			page 1


   1              		.cpu cortex-m0
   2              		.fpu softvfp
   3              		.eabi_attribute 20, 1
   4              		.eabi_attribute 21, 1
   5              		.eabi_attribute 23, 3
   6              		.eabi_attribute 24, 1
   7              		.eabi_attribute 25, 1
   8              		.eabi_attribute 26, 1
   9              		.eabi_attribute 30, 2
  10              		.eabi_attribute 34, 0
  11              		.eabi_attribute 18, 4
  12              		.code	16
  13              		.file	"testthd.c"
  14              		.text
  15              	.Ltext0:
  16              		.cfi_sections	.debug_frame
  17              		.section	.text.thd1_execute,"ax",%progbits
  18              		.align	2
  19              		.p2align 4,,15
  20              		.code	16
  21              		.thumb_func
  22              		.type	thd1_execute, %function
  23              	thd1_execute:
  24              	.LFB8:
  25              		.file 1 "../../test/testthd.c"
  26              		.loc 1 66 0
  27              		.cfi_startproc
  28 0000 F0B5     		push	{r4, r5, r6, r7, lr}
  29              		.cfi_def_cfa_offset 20
  30              		.cfi_offset 4, -20
  31              		.cfi_offset 5, -16
  32              		.cfi_offset 6, -12
  33              		.cfi_offset 7, -8
  34              		.cfi_offset 14, -4
  35 0002 4746     		mov	r7, r8
  36 0004 80B4     		push	{r7}
  37              		.cfi_def_cfa_offset 24
  38              		.cfi_offset 8, -24
  39              		.loc 1 68 0
  40 0006 274F     		ldr	r7, .L2
  41 0008 274A     		ldr	r2, .L2+4
  42 000a BB69     		ldr	r3, [r7, #24]
  43 000c 9046     		mov	r8, r2
  44 000e 9A68     		ldr	r2, [r3, #8]
  45 0010 264B     		ldr	r3, .L2+8
  46              		.loc 1 66 0
  47 0012 82B0     		sub	sp, sp, #8
  48              		.cfi_def_cfa_offset 32
  49              		.loc 1 68 0
  50 0014 264D     		ldr	r5, .L2+12
  51 0016 9826     		mov	r6, #152
  52 0018 7600     		lsl	r6, r6, #1
  53 001a 0093     		str	r3, [sp]
  54 001c 4346     		mov	r3, r8
  55 001e 311C     		mov	r1, r6
  56 0020 053A     		sub	r2, r2, #5
  57 0022 1868     		ldr	r0, [r3]
ARM GAS  /tmp/ccv3kRpi.s 			page 2


  58 0024 2B1C     		mov	r3, r5
  59 0026 FFF7FEFF 		bl	chThdCreateStatic
  60              	.LVL0:
  61              		.loc 1 69 0
  62 002a BB69     		ldr	r3, [r7, #24]
  63              		.loc 1 68 0
  64 002c 214C     		ldr	r4, .L2+16
  65              		.loc 1 69 0
  66 002e 9A68     		ldr	r2, [r3, #8]
  67 0030 214B     		ldr	r3, .L2+20
  68              		.loc 1 68 0
  69 0032 2060     		str	r0, [r4]
  70              		.loc 1 69 0
  71 0034 0093     		str	r3, [sp]
  72 0036 4346     		mov	r3, r8
  73 0038 311C     		mov	r1, r6
  74 003a 043A     		sub	r2, r2, #4
  75 003c 5868     		ldr	r0, [r3, #4]
  76 003e 2B1C     		mov	r3, r5
  77 0040 FFF7FEFF 		bl	chThdCreateStatic
  78              	.LVL1:
  79              		.loc 1 70 0
  80 0044 BB69     		ldr	r3, [r7, #24]
  81              		.loc 1 69 0
  82 0046 6060     		str	r0, [r4, #4]
  83              		.loc 1 70 0
  84 0048 9A68     		ldr	r2, [r3, #8]
  85 004a 1C4B     		ldr	r3, .L2+24
  86 004c 311C     		mov	r1, r6
  87 004e 0093     		str	r3, [sp]
  88 0050 4346     		mov	r3, r8
  89 0052 033A     		sub	r2, r2, #3
  90 0054 9868     		ldr	r0, [r3, #8]
  91 0056 2B1C     		mov	r3, r5
  92 0058 FFF7FEFF 		bl	chThdCreateStatic
  93              	.LVL2:
  94              		.loc 1 71 0
  95 005c BB69     		ldr	r3, [r7, #24]
  96              		.loc 1 70 0
  97 005e A060     		str	r0, [r4, #8]
  98              		.loc 1 71 0
  99 0060 9A68     		ldr	r2, [r3, #8]
 100 0062 174B     		ldr	r3, .L2+28
 101 0064 311C     		mov	r1, r6
 102 0066 0093     		str	r3, [sp]
 103 0068 4346     		mov	r3, r8
 104 006a 023A     		sub	r2, r2, #2
 105 006c D868     		ldr	r0, [r3, #12]
 106 006e 2B1C     		mov	r3, r5
 107 0070 FFF7FEFF 		bl	chThdCreateStatic
 108              	.LVL3:
 109              		.loc 1 72 0
 110 0074 BB69     		ldr	r3, [r7, #24]
 111 0076 4246     		mov	r2, r8
 112              		.loc 1 71 0
 113 0078 E060     		str	r0, [r4, #12]
 114              		.loc 1 72 0
ARM GAS  /tmp/ccv3kRpi.s 			page 3


 115 007a 1069     		ldr	r0, [r2, #16]
 116 007c 9A68     		ldr	r2, [r3, #8]
 117 007e 114B     		ldr	r3, .L2+32
 118 0080 013A     		sub	r2, r2, #1
 119 0082 311C     		mov	r1, r6
 120 0084 0093     		str	r3, [sp]
 121 0086 2B1C     		mov	r3, r5
 122 0088 FFF7FEFF 		bl	chThdCreateStatic
 123              	.LVL4:
 124 008c 2061     		str	r0, [r4, #16]
 125              		.loc 1 73 0
 126 008e FFF7FEFF 		bl	test_wait_threads
 127              	.LVL5:
 128              		.loc 1 74 0
 129 0092 0D49     		ldr	r1, .L2+36
 130 0094 0120     		mov	r0, #1
 131 0096 FFF7FEFF 		bl	_test_assert_sequence
 132              	.LVL6:
 133              		.loc 1 75 0
 134 009a 02B0     		add	sp, sp, #8
 135              		@ sp needed
 136 009c 04BC     		pop	{r2}
 137 009e 9046     		mov	r8, r2
 138 00a0 F0BD     		pop	{r4, r5, r6, r7, pc}
 139              	.L3:
 140 00a2 C046     		.align	2
 141              	.L2:
 142 00a4 00000000 		.word	rlist
 143 00a8 00000000 		.word	wa
 144 00ac 00000000 		.word	.LC3
 145 00b0 00000000 		.word	thread
 146 00b4 00000000 		.word	threads
 147 00b8 04000000 		.word	.LC6
 148 00bc 08000000 		.word	.LC8
 149 00c0 0C000000 		.word	.LC10
 150 00c4 10000000 		.word	.LC12
 151 00c8 14000000 		.word	.LC14
 152              		.cfi_endproc
 153              	.LFE8:
 154              		.size	thd1_execute, .-thd1_execute
 155 00cc C046C046 		.section	.text.thread,"ax",%progbits
 156              		.align	2
 157              		.p2align 4,,15
 158              		.code	16
 159              		.thumb_func
 160              		.type	thread, %function
 161              	thread:
 162              	.LFB7:
 163              		.loc 1 60 0
 164              		.cfi_startproc
 165              	.LVL7:
 166 0000 08B5     		push	{r3, lr}
 167              		.cfi_def_cfa_offset 8
 168              		.cfi_offset 3, -8
 169              		.cfi_offset 14, -4
 170              		.loc 1 62 0
 171 0002 0078     		ldrb	r0, [r0]
ARM GAS  /tmp/ccv3kRpi.s 			page 4


 172              	.LVL8:
 173 0004 FFF7FEFF 		bl	test_emit_token
 174              	.LVL9:
 175              		.loc 1 64 0
 176              		@ sp needed
 177 0008 0020     		mov	r0, #0
 178 000a 08BD     		pop	{r3, pc}
 179              		.cfi_endproc
 180              	.LFE7:
 181              		.size	thread, .-thread
 182 000c C046C046 		.section	.text.thd2_execute,"ax",%progbits
 183              		.align	2
 184              		.p2align 4,,15
 185              		.code	16
 186              		.thumb_func
 187              		.type	thd2_execute, %function
 188              	thd2_execute:
 189              	.LFB9:
 190              		.loc 1 94 0
 191              		.cfi_startproc
 192 0000 F0B5     		push	{r4, r5, r6, r7, lr}
 193              		.cfi_def_cfa_offset 20
 194              		.cfi_offset 4, -20
 195              		.cfi_offset 5, -16
 196              		.cfi_offset 6, -12
 197              		.cfi_offset 7, -8
 198              		.cfi_offset 14, -4
 199 0002 4746     		mov	r7, r8
 200 0004 80B4     		push	{r7}
 201              		.cfi_def_cfa_offset 24
 202              		.cfi_offset 8, -24
 203              		.loc 1 96 0
 204 0006 2B4F     		ldr	r7, .L6
 205 0008 2B4A     		ldr	r2, .L6+4
 206 000a BB69     		ldr	r3, [r7, #24]
 207 000c 9046     		mov	r8, r2
 208 000e 9A68     		ldr	r2, [r3, #8]
 209 0010 2A4B     		ldr	r3, .L6+8
 210              		.loc 1 94 0
 211 0012 82B0     		sub	sp, sp, #8
 212              		.cfi_def_cfa_offset 32
 213              		.loc 1 96 0
 214 0014 2A4D     		ldr	r5, .L6+12
 215 0016 9826     		mov	r6, #152
 216 0018 7600     		lsl	r6, r6, #1
 217 001a 0093     		str	r3, [sp]
 218 001c 4346     		mov	r3, r8
 219 001e 311C     		mov	r1, r6
 220 0020 043A     		sub	r2, r2, #4
 221 0022 5868     		ldr	r0, [r3, #4]
 222 0024 2B1C     		mov	r3, r5
 223 0026 FFF7FEFF 		bl	chThdCreateStatic
 224              	.LVL10:
 225              		.loc 1 97 0
 226 002a BB69     		ldr	r3, [r7, #24]
 227              		.loc 1 96 0
 228 002c 254C     		ldr	r4, .L6+16
ARM GAS  /tmp/ccv3kRpi.s 			page 5


 229              		.loc 1 97 0
 230 002e 9A68     		ldr	r2, [r3, #8]
 231 0030 254B     		ldr	r3, .L6+20
 232              		.loc 1 96 0
 233 0032 6060     		str	r0, [r4, #4]
 234              		.loc 1 97 0
 235 0034 0093     		str	r3, [sp]
 236 0036 4346     		mov	r3, r8
 237 0038 311C     		mov	r1, r6
 238 003a 053A     		sub	r2, r2, #5
 239 003c 1868     		ldr	r0, [r3]
 240 003e 2B1C     		mov	r3, r5
 241 0040 FFF7FEFF 		bl	chThdCreateStatic
 242              	.LVL11:
 243              		.loc 1 98 0
 244 0044 BB69     		ldr	r3, [r7, #24]
 245              		.loc 1 97 0
 246 0046 2060     		str	r0, [r4]
 247              		.loc 1 98 0
 248 0048 9A68     		ldr	r2, [r3, #8]
 249 004a 204B     		ldr	r3, .L6+24
 250 004c 311C     		mov	r1, r6
 251 004e 0093     		str	r3, [sp]
 252 0050 4346     		mov	r3, r8
 253 0052 013A     		sub	r2, r2, #1
 254 0054 1869     		ldr	r0, [r3, #16]
 255 0056 2B1C     		mov	r3, r5
 256 0058 FFF7FEFF 		bl	chThdCreateStatic
 257              	.LVL12:
 258              		.loc 1 99 0
 259 005c BB69     		ldr	r3, [r7, #24]
 260 005e 4246     		mov	r2, r8
 261              		.loc 1 98 0
 262 0060 2061     		str	r0, [r4, #16]
 263              		.loc 1 99 0
 264 0062 D068     		ldr	r0, [r2, #12]
 265 0064 9A68     		ldr	r2, [r3, #8]
 266 0066 1A4B     		ldr	r3, .L6+28
 267 0068 023A     		sub	r2, r2, #2
 268 006a 0093     		str	r3, [sp]
 269 006c 311C     		mov	r1, r6
 270 006e 2B1C     		mov	r3, r5
 271 0070 FFF7FEFF 		bl	chThdCreateStatic
 272              	.LVL13:
 273 0074 E060     		str	r0, [r4, #12]
 274              		.loc 1 101 0
 275              	@ 101 "../../test/testthd.c" 1
 276 0076 72B6     		cpsid   i
 277              	@ 0 "" 2
 278              		.loc 1 102 0
 279              		.code	16
 280 0078 0F4B     		ldr	r3, .L6+4
 281 007a 9821     		mov	r1, #152
 282 007c 9868     		ldr	r0, [r3, #8]
 283 007e 0D4B     		ldr	r3, .L6
 284 0080 4900     		lsl	r1, r1, #1
 285 0082 9B69     		ldr	r3, [r3, #24]
ARM GAS  /tmp/ccv3kRpi.s 			page 6


 286 0084 9A68     		ldr	r2, [r3, #8]
 287 0086 134B     		ldr	r3, .L6+32
 288 0088 033A     		sub	r2, r2, #3
 289 008a 0093     		str	r3, [sp]
 290 008c 0C4B     		ldr	r3, .L6+12
 291 008e FFF7FEFF 		bl	chThdCreateI
 292              	.LVL14:
 293 0092 0C4B     		ldr	r3, .L6+16
 294 0094 9860     		str	r0, [r3, #8]
 295              		.loc 1 103 0
 296              	@ 103 "../../test/testthd.c" 1
 297 0096 62B6     		cpsie   i
 298              	@ 0 "" 2
 299              		.loc 1 104 0
 300              		.code	16
 301 0098 0A4B     		ldr	r3, .L6+16
 302 009a 9868     		ldr	r0, [r3, #8]
 303 009c FFF7FEFF 		bl	chThdResume
 304              	.LVL15:
 305              		.loc 1 105 0
 306 00a0 FFF7FEFF 		bl	test_wait_threads
 307              	.LVL16:
 308              		.loc 1 106 0
 309 00a4 0C49     		ldr	r1, .L6+36
 310 00a6 0120     		mov	r0, #1
 311 00a8 FFF7FEFF 		bl	_test_assert_sequence
 312              	.LVL17:
 313              		.loc 1 107 0
 314 00ac 02B0     		add	sp, sp, #8
 315              		@ sp needed
 316 00ae 04BC     		pop	{r2}
 317 00b0 9046     		mov	r8, r2
 318 00b2 F0BD     		pop	{r4, r5, r6, r7, pc}
 319              	.L7:
 320              		.align	2
 321              	.L6:
 322 00b4 00000000 		.word	rlist
 323 00b8 00000000 		.word	wa
 324 00bc 04000000 		.word	.LC6
 325 00c0 00000000 		.word	thread
 326 00c4 00000000 		.word	threads
 327 00c8 00000000 		.word	.LC3
 328 00cc 10000000 		.word	.LC12
 329 00d0 0C000000 		.word	.LC10
 330 00d4 08000000 		.word	.LC8
 331 00d8 14000000 		.word	.LC14
 332              		.cfi_endproc
 333              	.LFE9:
 334              		.size	thd2_execute, .-thd2_execute
 335 00dc C046C046 		.section	.text.thd3_execute,"ax",%progbits
 336              		.align	2
 337              		.p2align 4,,15
 338              		.code	16
 339              		.thumb_func
 340              		.type	thd3_execute, %function
 341              	thd3_execute:
 342              	.LFB10:
ARM GAS  /tmp/ccv3kRpi.s 			page 7


 343              		.loc 1 126 0
 344              		.cfi_startproc
 345 0000 F8B5     		push	{r3, r4, r5, r6, r7, lr}
 346              		.cfi_def_cfa_offset 24
 347              		.cfi_offset 3, -24
 348              		.cfi_offset 4, -20
 349              		.cfi_offset 5, -16
 350              		.cfi_offset 6, -12
 351              		.cfi_offset 7, -8
 352              		.cfi_offset 14, -4
 353              		.loc 1 129 0
 354 0002 4A4E     		ldr	r6, .L14
 355 0004 B369     		ldr	r3, [r6, #24]
 356 0006 9C68     		ldr	r4, [r3, #8]
 357              	.LVL18:
 358              		.loc 1 130 0
 359 0008 651C     		add	r5, r4, #1
 360 000a 281C     		mov	r0, r5
 361 000c FFF7FEFF 		bl	chThdSetPriority
 362              	.LVL19:
 363              		.loc 1 131 0
 364 0010 011B     		sub	r1, r0, r4
 365 0012 4B42     		neg	r3, r1
 366 0014 5941     		adc	r1, r1, r3
 367              		.loc 1 130 0
 368 0016 071C     		mov	r7, r0
 369              	.LVL20:
 370              		.loc 1 131 0
 371 0018 C9B2     		uxtb	r1, r1
 372 001a 0120     		mov	r0, #1
 373              	.LVL21:
 374 001c FFF7FEFF 		bl	_test_assert
 375              	.LVL22:
 376 0020 0028     		cmp	r0, #0
 377 0022 00D0     		beq	.L13
 378              	.LVL23:
 379              	.L8:
 380              		.loc 1 172 0
 381              		@ sp needed
 382              	.LVL24:
 383 0024 F8BD     		pop	{r3, r4, r5, r6, r7, pc}
 384              	.LVL25:
 385              	.L13:
 386              		.loc 1 133 0
 387 0026 B369     		ldr	r3, [r6, #24]
 388 0028 0220     		mov	r0, #2
 389 002a 9968     		ldr	r1, [r3, #8]
 390 002c 691A     		sub	r1, r5, r1
 391 002e 4B42     		neg	r3, r1
 392 0030 5941     		adc	r1, r1, r3
 393 0032 C9B2     		uxtb	r1, r1
 394 0034 FFF7FEFF 		bl	_test_assert
 395              	.LVL26:
 396 0038 0028     		cmp	r0, #0
 397 003a F3D1     		bne	.L8
 398              		.loc 1 135 0
 399 003c 381C     		mov	r0, r7
ARM GAS  /tmp/ccv3kRpi.s 			page 8


 400 003e FFF7FEFF 		bl	chThdSetPriority
 401              	.LVL27:
 402              		.loc 1 136 0
 403 0042 291A     		sub	r1, r5, r0
 404 0044 4B42     		neg	r3, r1
 405 0046 5941     		adc	r1, r1, r3
 406 0048 C9B2     		uxtb	r1, r1
 407 004a 0320     		mov	r0, #3
 408              	.LVL28:
 409 004c FFF7FEFF 		bl	_test_assert
 410              	.LVL29:
 411 0050 0028     		cmp	r0, #0
 412 0052 E7D1     		bne	.L8
 413              		.loc 1 138 0
 414 0054 B369     		ldr	r3, [r6, #24]
 415 0056 0420     		mov	r0, #4
 416 0058 9968     		ldr	r1, [r3, #8]
 417 005a 091B     		sub	r1, r1, r4
 418 005c 4B42     		neg	r3, r1
 419 005e 5941     		adc	r1, r1, r3
 420 0060 C9B2     		uxtb	r1, r1
 421 0062 FFF7FEFF 		bl	_test_assert
 422              	.LVL30:
 423 0066 0028     		cmp	r0, #0
 424 0068 DCD1     		bne	.L8
 425              		.loc 1 143 0
 426              	@ 143 "../../test/testthd.c" 1
 427 006a 72B6     		cpsid   i
 428              	@ 0 "" 2
 429              		.loc 1 144 0
 430              		.code	16
 431 006c B369     		ldr	r3, [r6, #24]
 432 006e 9A68     		ldr	r2, [r3, #8]
 433 0070 0232     		add	r2, r2, #2
 434 0072 9A60     		str	r2, [r3, #8]
 435              		.loc 1 145 0
 436              	@ 145 "../../test/testthd.c" 1
 437 0074 62B6     		cpsie   i
 438              	@ 0 "" 2
 439              		.loc 1 146 0
 440              		.code	16
 441 0076 2D4E     		ldr	r6, .L14
 442 0078 A71C     		add	r7, r4, #2
 443 007a B369     		ldr	r3, [r6, #24]
 444 007c 0520     		mov	r0, #5
 445 007e 9968     		ldr	r1, [r3, #8]
 446 0080 C91B     		sub	r1, r1, r7
 447 0082 4B42     		neg	r3, r1
 448 0084 5941     		adc	r1, r1, r3
 449 0086 C9B2     		uxtb	r1, r1
 450 0088 FFF7FEFF 		bl	_test_assert
 451              	.LVL31:
 452 008c 0028     		cmp	r0, #0
 453 008e C9D1     		bne	.L8
 454              		.loc 1 150 0
 455 0090 281C     		mov	r0, r5
 456 0092 FFF7FEFF 		bl	chThdSetPriority
ARM GAS  /tmp/ccv3kRpi.s 			page 9


 457              	.LVL32:
 458              		.loc 1 151 0
 459 0096 011B     		sub	r1, r0, r4
 460 0098 4B42     		neg	r3, r1
 461 009a 5941     		adc	r1, r1, r3
 462 009c C9B2     		uxtb	r1, r1
 463 009e 0620     		mov	r0, #6
 464              	.LVL33:
 465 00a0 FFF7FEFF 		bl	_test_assert
 466              	.LVL34:
 467 00a4 0028     		cmp	r0, #0
 468 00a6 BDD1     		bne	.L8
 469              		.loc 1 153 0
 470 00a8 B369     		ldr	r3, [r6, #24]
 471 00aa 0720     		mov	r0, #7
 472 00ac 9968     		ldr	r1, [r3, #8]
 473 00ae 791A     		sub	r1, r7, r1
 474 00b0 4F42     		neg	r7, r1
 475 00b2 7941     		adc	r1, r1, r7
 476 00b4 C9B2     		uxtb	r1, r1
 477 00b6 FFF7FEFF 		bl	_test_assert
 478              	.LVL35:
 479 00ba 0028     		cmp	r0, #0
 480 00bc B2D1     		bne	.L8
 481              		.loc 1 155 0
 482 00be B369     		ldr	r3, [r6, #24]
 483 00c0 0820     		mov	r0, #8
 484 00c2 196C     		ldr	r1, [r3, #64]
 485 00c4 691A     		sub	r1, r5, r1
 486 00c6 4B42     		neg	r3, r1
 487 00c8 5941     		adc	r1, r1, r3
 488 00ca C9B2     		uxtb	r1, r1
 489 00cc FFF7FEFF 		bl	_test_assert
 490              	.LVL36:
 491 00d0 0028     		cmp	r0, #0
 492 00d2 A7D1     		bne	.L8
 493              		.loc 1 159 0
 494 00d4 E71C     		add	r7, r4, #3
 495 00d6 381C     		mov	r0, r7
 496 00d8 FFF7FEFF 		bl	chThdSetPriority
 497              	.LVL37:
 498              		.loc 1 160 0
 499 00dc 291A     		sub	r1, r5, r0
 500 00de 4D42     		neg	r5, r1
 501 00e0 6941     		adc	r1, r1, r5
 502 00e2 C9B2     		uxtb	r1, r1
 503 00e4 0920     		mov	r0, #9
 504              	.LVL38:
 505 00e6 FFF7FEFF 		bl	_test_assert
 506              	.LVL39:
 507 00ea 0028     		cmp	r0, #0
 508 00ec 9AD1     		bne	.L8
 509              		.loc 1 162 0
 510 00ee B369     		ldr	r3, [r6, #24]
 511 00f0 0A20     		mov	r0, #10
 512 00f2 9968     		ldr	r1, [r3, #8]
 513 00f4 791A     		sub	r1, r7, r1
ARM GAS  /tmp/ccv3kRpi.s 			page 10


 514 00f6 4B42     		neg	r3, r1
 515 00f8 5941     		adc	r1, r1, r3
 516 00fa C9B2     		uxtb	r1, r1
 517 00fc FFF7FEFF 		bl	_test_assert
 518              	.LVL40:
 519 0100 0028     		cmp	r0, #0
 520 0102 00D0     		beq	.LCB424
 521 0104 8EE7     		b	.L8	@long jump
 522              	.LCB424:
 523              		.loc 1 164 0
 524 0106 B369     		ldr	r3, [r6, #24]
 525 0108 0B20     		mov	r0, #11
 526 010a 196C     		ldr	r1, [r3, #64]
 527 010c 791A     		sub	r1, r7, r1
 528 010e 4F42     		neg	r7, r1
 529 0110 7941     		adc	r1, r1, r7
 530 0112 C9B2     		uxtb	r1, r1
 531 0114 FFF7FEFF 		bl	_test_assert
 532              	.LVL41:
 533 0118 0028     		cmp	r0, #0
 534 011a 00D0     		beq	.LCB434
 535 011c 82E7     		b	.L8	@long jump
 536              	.LCB434:
 537              		.loc 1 167 0
 538              	@ 167 "../../test/testthd.c" 1
 539 011e 72B6     		cpsid   i
 540              	@ 0 "" 2
 541              		.loc 1 168 0
 542              		.code	16
 543 0120 B369     		ldr	r3, [r6, #24]
 544 0122 9C60     		str	r4, [r3, #8]
 545              		.loc 1 169 0
 546 0124 1C64     		str	r4, [r3, #64]
 547              		.loc 1 170 0
 548              	@ 170 "../../test/testthd.c" 1
 549 0126 62B6     		cpsie   i
 550              	@ 0 "" 2
 551              		.code	16
 552 0128 7CE7     		b	.L8
 553              	.L15:
 554 012a C046     		.align	2
 555              	.L14:
 556 012c 00000000 		.word	rlist
 557              		.cfi_endproc
 558              	.LFE10:
 559              		.size	thd3_execute, .-thd3_execute
 560              		.section	.text.thd4_execute,"ax",%progbits
 561              		.align	2
 562              		.p2align 4,,15
 563              		.code	16
 564              		.thumb_func
 565              		.type	thd4_execute, %function
 566              	thd4_execute:
 567              	.LFB11:
 568              		.loc 1 189 0
 569              		.cfi_startproc
 570 0000 38B5     		push	{r3, r4, r5, lr}
ARM GAS  /tmp/ccv3kRpi.s 			page 11


 571              		.cfi_def_cfa_offset 16
 572              		.cfi_offset 3, -16
 573              		.cfi_offset 4, -12
 574              		.cfi_offset 5, -8
 575              		.cfi_offset 14, -4
 576              		.loc 1 192 0
 577 0002 FFF7FEFF 		bl	test_wait_tick
 578              	.LVL42:
 579              		.loc 1 195 0
 580 0006 1C4D     		ldr	r5, .L21
 581              		.loc 1 196 0
 582 0008 6420     		mov	r0, #100
 583              		.loc 1 195 0
 584 000a EC68     		ldr	r4, [r5, #12]
 585              	.LVL43:
 586              		.loc 1 196 0
 587 000c FFF7FEFF 		bl	chThdSleep
 588              	.LVL44:
 589              		.loc 1 197 0
 590 0010 211C     		mov	r1, r4
 591 0012 221C     		mov	r2, r4
 592 0014 6431     		add	r1, r1, #100
 593 0016 6532     		add	r2, r2, #101
 594 0018 0120     		mov	r0, #1
 595 001a FFF7FEFF 		bl	_test_assert_time_window
 596              	.LVL45:
 597 001e 0028     		cmp	r0, #0
 598 0020 00D0     		beq	.L20
 599              	.LVL46:
 600              	.L16:
 601              		.loc 1 213 0
 602              		@ sp needed
 603 0022 38BD     		pop	{r3, r4, r5, pc}
 604              	.LVL47:
 605              	.L20:
 606              		.loc 1 200 0
 607 0024 EC68     		ldr	r4, [r5, #12]
 608              	.LVL48:
 609              		.loc 1 201 0
 610 0026 6420     		mov	r0, #100
 611 0028 FFF7FEFF 		bl	chThdSleep
 612              	.LVL49:
 613              		.loc 1 202 0
 614 002c 211C     		mov	r1, r4
 615 002e 221C     		mov	r2, r4
 616 0030 6431     		add	r1, r1, #100
 617 0032 6532     		add	r2, r2, #101
 618 0034 0220     		mov	r0, #2
 619 0036 FFF7FEFF 		bl	_test_assert_time_window
 620              	.LVL50:
 621 003a 0028     		cmp	r0, #0
 622 003c F1D1     		bne	.L16
 623              	.LBB4:
 624              	.LBB5:
 625              		.loc 1 206 0
 626 003e FA20     		mov	r0, #250
 627 0040 8000     		lsl	r0, r0, #2
ARM GAS  /tmp/ccv3kRpi.s 			page 12


 628              		.loc 1 205 0
 629 0042 EC68     		ldr	r4, [r5, #12]
 630              	.LVL51:
 631              		.loc 1 206 0
 632 0044 FFF7FEFF 		bl	chThdSleep
 633              	.LVL52:
 634              		.loc 1 207 0
 635 0048 FA23     		mov	r3, #250
 636 004a 9B00     		lsl	r3, r3, #2
 637 004c E118     		add	r1, r4, r3
 638 004e 0B4B     		ldr	r3, .L21+4
 639 0050 0320     		mov	r0, #3
 640 0052 E218     		add	r2, r4, r3
 641 0054 FFF7FEFF 		bl	_test_assert_time_window
 642              	.LVL53:
 643 0058 0028     		cmp	r0, #0
 644 005a E2D1     		bne	.L16
 645              		.loc 1 210 0
 646 005c ED68     		ldr	r5, [r5, #12]
 647 005e 2C1C     		mov	r4, r5
 648              	.LVL54:
 649 0060 6434     		add	r4, r4, #100
 650              	.LVL55:
 651              		.loc 1 211 0
 652 0062 201C     		mov	r0, r4
 653 0064 FFF7FEFF 		bl	chThdSleepUntil
 654              	.LVL56:
 655              		.loc 1 212 0
 656 0068 2A1C     		mov	r2, r5
 657 006a 6532     		add	r2, r2, #101
 658 006c 211C     		mov	r1, r4
 659 006e 0420     		mov	r0, #4
 660 0070 FFF7FEFF 		bl	_test_assert_time_window
 661              	.LVL57:
 662 0074 D5E7     		b	.L16
 663              	.L22:
 664 0076 C046     		.align	2
 665              	.L21:
 666 0078 00000000 		.word	vtlist
 667 007c E9030000 		.word	1001
 668              	.LBE5:
 669              	.LBE4:
 670              		.cfi_endproc
 671              	.LFE11:
 672              		.size	thd4_execute, .-thd4_execute
 673              		.global	patternthd
 674              		.global	testthd4
 675              		.global	testthd3
 676              		.global	testthd2
 677              		.global	testthd1
 678              		.section	.rodata.testthd1,"a",%progbits
 679              		.align	2
 680              		.type	testthd1, %object
 681              		.size	testthd1, 16
 682              	testthd1:
 683 0000 64000000 		.word	.LC31
 684 0004 00000000 		.word	0
ARM GAS  /tmp/ccv3kRpi.s 			page 13


 685 0008 00000000 		.word	0
 686 000c 00000000 		.word	thd1_execute
 687              		.section	.rodata.testthd2,"a",%progbits
 688              		.align	2
 689              		.type	testthd2, %object
 690              		.size	testthd2, 16
 691              	testthd2:
 692 0000 48000000 		.word	.LC30
 693 0004 00000000 		.word	0
 694 0008 00000000 		.word	0
 695 000c 00000000 		.word	thd2_execute
 696              		.section	.rodata.testthd3,"a",%progbits
 697              		.align	2
 698              		.type	testthd3, %object
 699              		.size	testthd3, 16
 700              	testthd3:
 701 0000 2C000000 		.word	.LC29
 702 0004 00000000 		.word	0
 703 0008 00000000 		.word	0
 704 000c 00000000 		.word	thd3_execute
 705              		.section	.rodata.testthd4,"a",%progbits
 706              		.align	2
 707              		.type	testthd4, %object
 708              		.size	testthd4, 16
 709              	testthd4:
 710 0000 1C000000 		.word	.LC28
 711 0004 00000000 		.word	0
 712 0008 00000000 		.word	0
 713 000c 00000000 		.word	thd4_execute
 714              		.section	.rodata.patternthd,"a",%progbits
 715              		.align	2
 716              		.type	patternthd, %object
 717              		.size	patternthd, 20
 718              	patternthd:
 719 0000 00000000 		.word	testthd1
 720 0004 00000000 		.word	testthd2
 721 0008 00000000 		.word	testthd3
 722 000c 00000000 		.word	testthd4
 723 0010 00000000 		.word	0
 724              		.section	.rodata.str1.4,"aMS",%progbits,1
 725              		.align	2
 726              	.LC3:
 727 0000 4500     		.ascii	"E\000"
 728 0002 0000     		.space	2
 729              	.LC6:
 730 0004 4400     		.ascii	"D\000"
 731 0006 0000     		.space	2
 732              	.LC8:
 733 0008 4300     		.ascii	"C\000"
 734 000a 0000     		.space	2
 735              	.LC10:
 736 000c 4200     		.ascii	"B\000"
 737 000e 0000     		.space	2
 738              	.LC12:
 739 0010 4100     		.ascii	"A\000"
 740 0012 0000     		.space	2
 741              	.LC14:
ARM GAS  /tmp/ccv3kRpi.s 			page 14


 742 0014 41424344 		.ascii	"ABCDE\000"
 742      4500
 743 001a 0000     		.space	2
 744              	.LC28:
 745 001c 54687265 		.ascii	"Threads, delays\000"
 745      6164732C 
 745      2064656C 
 745      61797300 
 746              	.LC29:
 747 002c 54687265 		.ascii	"Threads, priority change\000"
 747      6164732C 
 747      20707269 
 747      6F726974 
 747      79206368 
 748 0045 000000   		.space	3
 749              	.LC30:
 750 0048 54687265 		.ascii	"Threads, enqueuing test #2\000"
 750      6164732C 
 750      20656E71 
 750      75657569 
 750      6E672074 
 751 0063 00       		.space	1
 752              	.LC31:
 753 0064 54687265 		.ascii	"Threads, enqueuing test #1\000"
 753      6164732C 
 753      20656E71 
 753      75657569 
 753      6E672074 
 754 007f 00       		.text
 755              	.Letext0:
 756              		.file 2 "/usr/lib/gcc/arm-none-eabi/4.8.2/include/stddef.h"
 757              		.file 3 "/usr/arm-none-eabi/include/machine/_default_types.h"
 758              		.file 4 "/usr/arm-none-eabi/include/stdint.h"
 759              		.file 5 "../../os/ports/GCC/ARMCMx/chtypes.h"
 760              		.file 6 "../../os/kernel/include/chlists.h"
 761              		.file 7 "../../os/kernel/include/chthreads.h"
 762              		.file 8 "../../os/ports/GCC/ARMCMx/chcore_v6m.h"
 763              		.file 9 "../../os/kernel/include/chvt.h"
 764              		.file 10 "../../os/kernel/include/chschd.h"
 765              		.file 11 "../../os/kernel/include/chmtx.h"
 766              		.file 12 "../../test/test.h"
 767              		.section	.debug_info,"",%progbits
 768              	.Ldebug_info0:
 769 0000 DD0B0000 		.4byte	0xbdd
 770 0004 0400     		.2byte	0x4
 771 0006 00000000 		.4byte	.Ldebug_abbrev0
 772 000a 04       		.byte	0x4
 773 000b 01       		.uleb128 0x1
 774 000c F5000000 		.4byte	.LASF105
 775 0010 01       		.byte	0x1
 776 0011 7A030000 		.4byte	.LASF106
 777 0015 F9020000 		.4byte	.LASF107
 778 0019 00000000 		.4byte	.Ldebug_ranges0+0
 779 001d 00000000 		.4byte	0
 780 0021 00000000 		.4byte	.Ldebug_line0
 781 0025 02       		.uleb128 0x2
 782 0026 04       		.byte	0x4
ARM GAS  /tmp/ccv3kRpi.s 			page 15


 783 0027 05       		.byte	0x5
 784 0028 696E7400 		.ascii	"int\000"
 785 002c 03       		.uleb128 0x3
 786 002d 0E000000 		.4byte	.LASF2
 787 0031 02       		.byte	0x2
 788 0032 D4       		.byte	0xd4
 789 0033 37000000 		.4byte	0x37
 790 0037 04       		.uleb128 0x4
 791 0038 04       		.byte	0x4
 792 0039 07       		.byte	0x7
 793 003a D1010000 		.4byte	.LASF0
 794 003e 04       		.uleb128 0x4
 795 003f 01       		.byte	0x1
 796 0040 06       		.byte	0x6
 797 0041 67000000 		.4byte	.LASF1
 798 0045 03       		.uleb128 0x3
 799 0046 21000000 		.4byte	.LASF3
 800 004a 03       		.byte	0x3
 801 004b 1C       		.byte	0x1c
 802 004c 50000000 		.4byte	0x50
 803 0050 04       		.uleb128 0x4
 804 0051 01       		.byte	0x1
 805 0052 08       		.byte	0x8
 806 0053 D0030000 		.4byte	.LASF4
 807 0057 04       		.uleb128 0x4
 808 0058 02       		.byte	0x2
 809 0059 05       		.byte	0x5
 810 005a F7030000 		.4byte	.LASF5
 811 005e 04       		.uleb128 0x4
 812 005f 02       		.byte	0x2
 813 0060 07       		.byte	0x7
 814 0061 17020000 		.4byte	.LASF6
 815 0065 03       		.uleb128 0x3
 816 0066 AA040000 		.4byte	.LASF7
 817 006a 03       		.byte	0x3
 818 006b 37       		.byte	0x37
 819 006c 70000000 		.4byte	0x70
 820 0070 04       		.uleb128 0x4
 821 0071 04       		.byte	0x4
 822 0072 05       		.byte	0x5
 823 0073 B1000000 		.4byte	.LASF8
 824 0077 03       		.uleb128 0x3
 825 0078 92010000 		.4byte	.LASF9
 826 007c 03       		.byte	0x3
 827 007d 38       		.byte	0x38
 828 007e 82000000 		.4byte	0x82
 829 0082 04       		.uleb128 0x4
 830 0083 04       		.byte	0x4
 831 0084 07       		.byte	0x7
 832 0085 E6010000 		.4byte	.LASF10
 833 0089 04       		.uleb128 0x4
 834 008a 08       		.byte	0x8
 835 008b 05       		.byte	0x5
 836 008c 59000000 		.4byte	.LASF11
 837 0090 04       		.uleb128 0x4
 838 0091 08       		.byte	0x8
 839 0092 07       		.byte	0x7
ARM GAS  /tmp/ccv3kRpi.s 			page 16


 840 0093 32000000 		.4byte	.LASF12
 841 0097 03       		.uleb128 0x3
 842 0098 F6040000 		.4byte	.LASF13
 843 009c 04       		.byte	0x4
 844 009d 2A       		.byte	0x2a
 845 009e 45000000 		.4byte	0x45
 846 00a2 03       		.uleb128 0x3
 847 00a3 C8030000 		.4byte	.LASF14
 848 00a7 04       		.byte	0x4
 849 00a8 41       		.byte	0x41
 850 00a9 65000000 		.4byte	0x65
 851 00ad 03       		.uleb128 0x3
 852 00ae 53040000 		.4byte	.LASF15
 853 00b2 04       		.byte	0x4
 854 00b3 42       		.byte	0x42
 855 00b4 77000000 		.4byte	0x77
 856 00b8 03       		.uleb128 0x3
 857 00b9 7B000000 		.4byte	.LASF16
 858 00bd 05       		.byte	0x5
 859 00be 2B       		.byte	0x2b
 860 00bf C3000000 		.4byte	0xc3
 861 00c3 04       		.uleb128 0x4
 862 00c4 01       		.byte	0x1
 863 00c5 02       		.byte	0x2
 864 00c6 C2030000 		.4byte	.LASF17
 865 00ca 03       		.uleb128 0x3
 866 00cb 38020000 		.4byte	.LASF18
 867 00cf 05       		.byte	0x5
 868 00d0 2C       		.byte	0x2c
 869 00d1 97000000 		.4byte	0x97
 870 00d5 03       		.uleb128 0x3
 871 00d6 BA000000 		.4byte	.LASF19
 872 00da 05       		.byte	0x5
 873 00db 2D       		.byte	0x2d
 874 00dc 97000000 		.4byte	0x97
 875 00e0 03       		.uleb128 0x3
 876 00e1 8F030000 		.4byte	.LASF20
 877 00e5 05       		.byte	0x5
 878 00e6 2E       		.byte	0x2e
 879 00e7 97000000 		.4byte	0x97
 880 00eb 03       		.uleb128 0x3
 881 00ec 9A000000 		.4byte	.LASF21
 882 00f0 05       		.byte	0x5
 883 00f1 2F       		.byte	0x2f
 884 00f2 97000000 		.4byte	0x97
 885 00f6 03       		.uleb128 0x3
 886 00f7 B3030000 		.4byte	.LASF22
 887 00fb 05       		.byte	0x5
 888 00fc 30       		.byte	0x30
 889 00fd AD000000 		.4byte	0xad
 890 0101 03       		.uleb128 0x3
 891 0102 2A020000 		.4byte	.LASF23
 892 0106 05       		.byte	0x5
 893 0107 31       		.byte	0x31
 894 0108 A2000000 		.4byte	0xa2
 895 010c 03       		.uleb128 0x3
 896 010d 4C020000 		.4byte	.LASF24
ARM GAS  /tmp/ccv3kRpi.s 			page 17


 897 0111 05       		.byte	0x5
 898 0112 33       		.byte	0x33
 899 0113 AD000000 		.4byte	0xad
 900 0117 03       		.uleb128 0x3
 901 0118 95040000 		.4byte	.LASF25
 902 011c 05       		.byte	0x5
 903 011d 35       		.byte	0x35
 904 011e AD000000 		.4byte	0xad
 905 0122 03       		.uleb128 0x3
 906 0123 38040000 		.4byte	.LASF26
 907 0127 06       		.byte	0x6
 908 0128 2A       		.byte	0x2a
 909 0129 2D010000 		.4byte	0x12d
 910 012d 05       		.uleb128 0x5
 911 012e 38040000 		.4byte	.LASF26
 912 0132 48       		.byte	0x48
 913 0133 07       		.byte	0x7
 914 0134 5E       		.byte	0x5e
 915 0135 2A020000 		.4byte	0x22a
 916 0139 06       		.uleb128 0x6
 917 013a 29040000 		.4byte	.LASF27
 918 013e 07       		.byte	0x7
 919 013f 5F       		.byte	0x5f
 920 0140 4B020000 		.4byte	0x24b
 921 0144 00       		.byte	0
 922 0145 06       		.uleb128 0x6
 923 0146 A4030000 		.4byte	.LASF28
 924 014a 07       		.byte	0x7
 925 014b 61       		.byte	0x61
 926 014c 4B020000 		.4byte	0x24b
 927 0150 04       		.byte	0x4
 928 0151 06       		.uleb128 0x6
 929 0152 52000000 		.4byte	.LASF29
 930 0156 07       		.byte	0x7
 931 0157 63       		.byte	0x63
 932 0158 F6000000 		.4byte	0xf6
 933 015c 08       		.byte	0x8
 934 015d 06       		.uleb128 0x6
 935 015e 33050000 		.4byte	.LASF30
 936 0162 07       		.byte	0x7
 937 0163 64       		.byte	0x64
 938 0164 FB020000 		.4byte	0x2fb
 939 0168 0C       		.byte	0xc
 940 0169 06       		.uleb128 0x6
 941 016a DC000000 		.4byte	.LASF31
 942 016e 07       		.byte	0x7
 943 016f 66       		.byte	0x66
 944 0170 4B020000 		.4byte	0x24b
 945 0174 10       		.byte	0x10
 946 0175 06       		.uleb128 0x6
 947 0176 D8020000 		.4byte	.LASF32
 948 017a 07       		.byte	0x7
 949 017b 67       		.byte	0x67
 950 017c 4B020000 		.4byte	0x24b
 951 0180 14       		.byte	0x14
 952 0181 06       		.uleb128 0x6
 953 0182 05050000 		.4byte	.LASF33
ARM GAS  /tmp/ccv3kRpi.s 			page 18


 954 0186 07       		.byte	0x7
 955 0187 6E       		.byte	0x6e
 956 0188 B3040000 		.4byte	0x4b3
 957 018c 18       		.byte	0x18
 958 018d 06       		.uleb128 0x6
 959 018e 01040000 		.4byte	.LASF34
 960 0192 07       		.byte	0x7
 961 0193 79       		.byte	0x79
 962 0194 D5000000 		.4byte	0xd5
 963 0198 1C       		.byte	0x1c
 964 0199 06       		.uleb128 0x6
 965 019a 30040000 		.4byte	.LASF35
 966 019e 07       		.byte	0x7
 967 019f 7D       		.byte	0x7d
 968 01a0 CA000000 		.4byte	0xca
 969 01a4 1D       		.byte	0x1d
 970 01a5 06       		.uleb128 0x6
 971 01a6 DF040000 		.4byte	.LASF36
 972 01aa 07       		.byte	0x7
 973 01ab 82       		.byte	0x82
 974 01ac E0000000 		.4byte	0xe0
 975 01b0 1E       		.byte	0x1e
 976 01b1 06       		.uleb128 0x6
 977 01b2 09040000 		.4byte	.LASF37
 978 01b6 07       		.byte	0x7
 979 01b7 88       		.byte	0x88
 980 01b8 EB000000 		.4byte	0xeb
 981 01bc 1F       		.byte	0x1f
 982 01bd 06       		.uleb128 0x6
 983 01be B4040000 		.4byte	.LASF38
 984 01c2 07       		.byte	0x7
 985 01c3 8F       		.byte	0x8f
 986 01c4 D0030000 		.4byte	0x3d0
 987 01c8 20       		.byte	0x20
 988 01c9 07       		.uleb128 0x7
 989 01ca 705F7500 		.ascii	"p_u\000"
 990 01ce 07       		.byte	0x7
 991 01cf B4       		.byte	0xb4
 992 01d0 7E040000 		.4byte	0x47e
 993 01d4 24       		.byte	0x24
 994 01d5 06       		.uleb128 0x6
 995 01d6 39050000 		.4byte	.LASF39
 996 01da 07       		.byte	0x7
 997 01db B9       		.byte	0xb9
 998 01dc 71020000 		.4byte	0x271
 999 01e0 28       		.byte	0x28
 1000 01e1 06       		.uleb128 0x6
 1001 01e2 C2040000 		.4byte	.LASF40
 1002 01e6 07       		.byte	0x7
 1003 01e7 BF       		.byte	0xbf
 1004 01e8 51020000 		.4byte	0x251
 1005 01ec 2C       		.byte	0x2c
 1006 01ed 06       		.uleb128 0x6
 1007 01ee 08000000 		.4byte	.LASF41
 1008 01f2 07       		.byte	0x7
 1009 01f3 C3       		.byte	0xc3
 1010 01f4 01010000 		.4byte	0x101
ARM GAS  /tmp/ccv3kRpi.s 			page 19


 1011 01f8 34       		.byte	0x34
 1012 01f9 06       		.uleb128 0x6
 1013 01fa 48040000 		.4byte	.LASF42
 1014 01fe 07       		.byte	0x7
 1015 01ff C9       		.byte	0xc9
 1016 0200 0C010000 		.4byte	0x10c
 1017 0204 38       		.byte	0x38
 1018 0205 06       		.uleb128 0x6
 1019 0206 ED030000 		.4byte	.LASF43
 1020 020a 07       		.byte	0x7
 1021 020b D0       		.byte	0xd0
 1022 020c C5040000 		.4byte	0x4c5
 1023 0210 3C       		.byte	0x3c
 1024 0211 06       		.uleb128 0x6
 1025 0212 9F040000 		.4byte	.LASF44
 1026 0216 07       		.byte	0x7
 1027 0217 D4       		.byte	0xd4
 1028 0218 F6000000 		.4byte	0xf6
 1029 021c 40       		.byte	0x40
 1030 021d 06       		.uleb128 0x6
 1031 021e 73000000 		.4byte	.LASF45
 1032 0222 07       		.byte	0x7
 1033 0223 DA       		.byte	0xda
 1034 0224 87020000 		.4byte	0x287
 1035 0228 44       		.byte	0x44
 1036 0229 00       		.byte	0
 1037 022a 08       		.uleb128 0x8
 1038 022b 08       		.byte	0x8
 1039 022c 06       		.byte	0x6
 1040 022d 61       		.byte	0x61
 1041 022e 4B020000 		.4byte	0x24b
 1042 0232 06       		.uleb128 0x6
 1043 0233 29040000 		.4byte	.LASF27
 1044 0237 06       		.byte	0x6
 1045 0238 62       		.byte	0x62
 1046 0239 4B020000 		.4byte	0x24b
 1047 023d 00       		.byte	0
 1048 023e 06       		.uleb128 0x6
 1049 023f A4030000 		.4byte	.LASF28
 1050 0243 06       		.byte	0x6
 1051 0244 64       		.byte	0x64
 1052 0245 4B020000 		.4byte	0x24b
 1053 0249 04       		.byte	0x4
 1054 024a 00       		.byte	0
 1055 024b 09       		.uleb128 0x9
 1056 024c 04       		.byte	0x4
 1057 024d 22010000 		.4byte	0x122
 1058 0251 03       		.uleb128 0x3
 1059 0252 E6020000 		.4byte	.LASF46
 1060 0256 06       		.byte	0x6
 1061 0257 66       		.byte	0x66
 1062 0258 2A020000 		.4byte	0x22a
 1063 025c 08       		.uleb128 0x8
 1064 025d 04       		.byte	0x4
 1065 025e 06       		.byte	0x6
 1066 025f 6B       		.byte	0x6b
 1067 0260 71020000 		.4byte	0x271
ARM GAS  /tmp/ccv3kRpi.s 			page 20


 1068 0264 06       		.uleb128 0x6
 1069 0265 29040000 		.4byte	.LASF27
 1070 0269 06       		.byte	0x6
 1071 026a 6D       		.byte	0x6d
 1072 026b 4B020000 		.4byte	0x24b
 1073 026f 00       		.byte	0
 1074 0270 00       		.byte	0
 1075 0271 03       		.uleb128 0x3
 1076 0272 40020000 		.4byte	.LASF47
 1077 0276 06       		.byte	0x6
 1078 0277 70       		.byte	0x70
 1079 0278 5C020000 		.4byte	0x25c
 1080 027c 03       		.uleb128 0x3
 1081 027d 9D010000 		.4byte	.LASF48
 1082 0281 08       		.byte	0x8
 1083 0282 A7       		.byte	0xa7
 1084 0283 87020000 		.4byte	0x287
 1085 0287 0A       		.uleb128 0xa
 1086 0288 04       		.byte	0x4
 1087 0289 05       		.uleb128 0x5
 1088 028a BB040000 		.4byte	.LASF49
 1089 028e 24       		.byte	0x24
 1090 028f 08       		.byte	0x8
 1091 0290 BA       		.byte	0xba
 1092 0291 FB020000 		.4byte	0x2fb
 1093 0295 07       		.uleb128 0x7
 1094 0296 723800   		.ascii	"r8\000"
 1095 0299 08       		.byte	0x8
 1096 029a BB       		.byte	0xbb
 1097 029b 7C020000 		.4byte	0x27c
 1098 029f 00       		.byte	0
 1099 02a0 07       		.uleb128 0x7
 1100 02a1 723900   		.ascii	"r9\000"
 1101 02a4 08       		.byte	0x8
 1102 02a5 BC       		.byte	0xbc
 1103 02a6 7C020000 		.4byte	0x27c
 1104 02aa 04       		.byte	0x4
 1105 02ab 07       		.uleb128 0x7
 1106 02ac 72313000 		.ascii	"r10\000"
 1107 02b0 08       		.byte	0x8
 1108 02b1 BD       		.byte	0xbd
 1109 02b2 7C020000 		.4byte	0x27c
 1110 02b6 08       		.byte	0x8
 1111 02b7 07       		.uleb128 0x7
 1112 02b8 72313100 		.ascii	"r11\000"
 1113 02bc 08       		.byte	0x8
 1114 02bd BE       		.byte	0xbe
 1115 02be 7C020000 		.4byte	0x27c
 1116 02c2 0C       		.byte	0xc
 1117 02c3 07       		.uleb128 0x7
 1118 02c4 723400   		.ascii	"r4\000"
 1119 02c7 08       		.byte	0x8
 1120 02c8 BF       		.byte	0xbf
 1121 02c9 7C020000 		.4byte	0x27c
 1122 02cd 10       		.byte	0x10
 1123 02ce 07       		.uleb128 0x7
 1124 02cf 723500   		.ascii	"r5\000"
ARM GAS  /tmp/ccv3kRpi.s 			page 21


 1125 02d2 08       		.byte	0x8
 1126 02d3 C0       		.byte	0xc0
 1127 02d4 7C020000 		.4byte	0x27c
 1128 02d8 14       		.byte	0x14
 1129 02d9 07       		.uleb128 0x7
 1130 02da 723600   		.ascii	"r6\000"
 1131 02dd 08       		.byte	0x8
 1132 02de C1       		.byte	0xc1
 1133 02df 7C020000 		.4byte	0x27c
 1134 02e3 18       		.byte	0x18
 1135 02e4 07       		.uleb128 0x7
 1136 02e5 723700   		.ascii	"r7\000"
 1137 02e8 08       		.byte	0x8
 1138 02e9 C2       		.byte	0xc2
 1139 02ea 7C020000 		.4byte	0x27c
 1140 02ee 1C       		.byte	0x1c
 1141 02ef 07       		.uleb128 0x7
 1142 02f0 6C7200   		.ascii	"lr\000"
 1143 02f3 08       		.byte	0x8
 1144 02f4 C3       		.byte	0xc3
 1145 02f5 7C020000 		.4byte	0x27c
 1146 02f9 20       		.byte	0x20
 1147 02fa 00       		.byte	0
 1148 02fb 05       		.uleb128 0x5
 1149 02fc 0F020000 		.4byte	.LASF50
 1150 0300 04       		.byte	0x4
 1151 0301 08       		.byte	0x8
 1152 0302 CD       		.byte	0xcd
 1153 0303 14030000 		.4byte	0x314
 1154 0307 07       		.uleb128 0x7
 1155 0308 72313300 		.ascii	"r13\000"
 1156 030c 08       		.byte	0x8
 1157 030d CE       		.byte	0xce
 1158 030e 14030000 		.4byte	0x314
 1159 0312 00       		.byte	0
 1160 0313 00       		.byte	0
 1161 0314 09       		.uleb128 0x9
 1162 0315 04       		.byte	0x4
 1163 0316 89020000 		.4byte	0x289
 1164 031a 04       		.uleb128 0x4
 1165 031b 04       		.byte	0x4
 1166 031c 07       		.byte	0x7
 1167 031d 85020000 		.4byte	.LASF51
 1168 0321 03       		.uleb128 0x3
 1169 0322 01020000 		.4byte	.LASF52
 1170 0326 09       		.byte	0x9
 1171 0327 58       		.byte	0x58
 1172 0328 2C030000 		.4byte	0x32c
 1173 032c 09       		.uleb128 0x9
 1174 032d 04       		.byte	0x4
 1175 032e 32030000 		.4byte	0x332
 1176 0332 0B       		.uleb128 0xb
 1177 0333 3D030000 		.4byte	0x33d
 1178 0337 0C       		.uleb128 0xc
 1179 0338 87020000 		.4byte	0x287
 1180 033c 00       		.byte	0
 1181 033d 03       		.uleb128 0x3
ARM GAS  /tmp/ccv3kRpi.s 			page 22


 1182 033e 64040000 		.4byte	.LASF53
 1183 0342 09       		.byte	0x9
 1184 0343 5D       		.byte	0x5d
 1185 0344 48030000 		.4byte	0x348
 1186 0348 05       		.uleb128 0x5
 1187 0349 64040000 		.4byte	.LASF53
 1188 034d 14       		.byte	0x14
 1189 034e 09       		.byte	0x9
 1190 034f 64       		.byte	0x64
 1191 0350 91030000 		.4byte	0x391
 1192 0354 06       		.uleb128 0x6
 1193 0355 DE010000 		.4byte	.LASF54
 1194 0359 09       		.byte	0x9
 1195 035a 65       		.byte	0x65
 1196 035b 91030000 		.4byte	0x391
 1197 035f 00       		.byte	0
 1198 0360 06       		.uleb128 0x6
 1199 0361 A6010000 		.4byte	.LASF55
 1200 0365 09       		.byte	0x9
 1201 0366 67       		.byte	0x67
 1202 0367 91030000 		.4byte	0x391
 1203 036b 04       		.byte	0x4
 1204 036c 06       		.uleb128 0x6
 1205 036d 7D020000 		.4byte	.LASF56
 1206 0371 09       		.byte	0x9
 1207 0372 69       		.byte	0x69
 1208 0373 17010000 		.4byte	0x117
 1209 0377 08       		.byte	0x8
 1210 0378 06       		.uleb128 0x6
 1211 0379 B2020000 		.4byte	.LASF57
 1212 037d 09       		.byte	0x9
 1213 037e 6A       		.byte	0x6a
 1214 037f 21030000 		.4byte	0x321
 1215 0383 0C       		.byte	0xc
 1216 0384 06       		.uleb128 0x6
 1217 0385 CD040000 		.4byte	.LASF58
 1218 0389 09       		.byte	0x9
 1219 038a 6C       		.byte	0x6c
 1220 038b 87020000 		.4byte	0x287
 1221 038f 10       		.byte	0x10
 1222 0390 00       		.byte	0
 1223 0391 09       		.uleb128 0x9
 1224 0392 04       		.byte	0x4
 1225 0393 3D030000 		.4byte	0x33d
 1226 0397 08       		.uleb128 0x8
 1227 0398 10       		.byte	0x10
 1228 0399 09       		.byte	0x9
 1229 039a 76       		.byte	0x76
 1230 039b D0030000 		.4byte	0x3d0
 1231 039f 06       		.uleb128 0x6
 1232 03a0 DE010000 		.4byte	.LASF54
 1233 03a4 09       		.byte	0x9
 1234 03a5 77       		.byte	0x77
 1235 03a6 91030000 		.4byte	0x391
 1236 03aa 00       		.byte	0
 1237 03ab 06       		.uleb128 0x6
 1238 03ac A6010000 		.4byte	.LASF55
ARM GAS  /tmp/ccv3kRpi.s 			page 23


 1239 03b0 09       		.byte	0x9
 1240 03b1 79       		.byte	0x79
 1241 03b2 91030000 		.4byte	0x391
 1242 03b6 04       		.byte	0x4
 1243 03b7 06       		.uleb128 0x6
 1244 03b8 7D020000 		.4byte	.LASF56
 1245 03bc 09       		.byte	0x9
 1246 03bd 7B       		.byte	0x7b
 1247 03be 17010000 		.4byte	0x117
 1248 03c2 08       		.byte	0x8
 1249 03c3 06       		.uleb128 0x6
 1250 03c4 19050000 		.4byte	.LASF59
 1251 03c8 09       		.byte	0x9
 1252 03c9 7C       		.byte	0x7c
 1253 03ca D0030000 		.4byte	0x3d0
 1254 03ce 0C       		.byte	0xc
 1255 03cf 00       		.byte	0
 1256 03d0 0D       		.uleb128 0xd
 1257 03d1 17010000 		.4byte	0x117
 1258 03d5 03       		.uleb128 0x3
 1259 03d6 24050000 		.4byte	.LASF60
 1260 03da 09       		.byte	0x9
 1261 03db 7D       		.byte	0x7d
 1262 03dc 97030000 		.4byte	0x397
 1263 03e0 08       		.uleb128 0x8
 1264 03e1 1C       		.byte	0x1c
 1265 03e2 0A       		.byte	0xa
 1266 03e3 5E       		.byte	0x5e
 1267 03e4 31040000 		.4byte	0x431
 1268 03e8 06       		.uleb128 0x6
 1269 03e9 5C040000 		.4byte	.LASF61
 1270 03ed 0A       		.byte	0xa
 1271 03ee 5F       		.byte	0x5f
 1272 03ef 51020000 		.4byte	0x251
 1273 03f3 00       		.byte	0
 1274 03f4 06       		.uleb128 0x6
 1275 03f5 1B040000 		.4byte	.LASF62
 1276 03f9 0A       		.byte	0xa
 1277 03fa 60       		.byte	0x60
 1278 03fb F6000000 		.4byte	0xf6
 1279 03ff 08       		.byte	0x8
 1280 0400 06       		.uleb128 0x6
 1281 0401 E0020000 		.4byte	.LASF63
 1282 0405 0A       		.byte	0xa
 1283 0406 62       		.byte	0x62
 1284 0407 FB020000 		.4byte	0x2fb
 1285 040b 0C       		.byte	0xc
 1286 040c 06       		.uleb128 0x6
 1287 040d 30020000 		.4byte	.LASF64
 1288 0411 0A       		.byte	0xa
 1289 0412 65       		.byte	0x65
 1290 0413 4B020000 		.4byte	0x24b
 1291 0417 10       		.byte	0x10
 1292 0418 06       		.uleb128 0x6
 1293 0419 62030000 		.4byte	.LASF65
 1294 041d 0A       		.byte	0xa
 1295 041e 66       		.byte	0x66
ARM GAS  /tmp/ccv3kRpi.s 			page 24


 1296 041f 4B020000 		.4byte	0x24b
 1297 0423 14       		.byte	0x14
 1298 0424 06       		.uleb128 0x6
 1299 0425 58030000 		.4byte	.LASF66
 1300 0429 0A       		.byte	0xa
 1301 042a 69       		.byte	0x69
 1302 042b 4B020000 		.4byte	0x24b
 1303 042f 18       		.byte	0x18
 1304 0430 00       		.byte	0
 1305 0431 03       		.uleb128 0x3
 1306 0432 E6040000 		.4byte	.LASF67
 1307 0436 0A       		.byte	0xa
 1308 0437 6B       		.byte	0x6b
 1309 0438 E0030000 		.4byte	0x3e0
 1310 043c 05       		.uleb128 0x5
 1311 043d 58020000 		.4byte	.LASF68
 1312 0441 10       		.byte	0x10
 1313 0442 0B       		.byte	0xb
 1314 0443 2C       		.byte	0x2c
 1315 0444 6D040000 		.4byte	0x46d
 1316 0448 06       		.uleb128 0x6
 1317 0449 82000000 		.4byte	.LASF69
 1318 044d 0B       		.byte	0xb
 1319 044e 2D       		.byte	0x2d
 1320 044f 51020000 		.4byte	0x251
 1321 0453 00       		.byte	0
 1322 0454 06       		.uleb128 0x6
 1323 0455 2B050000 		.4byte	.LASF70
 1324 0459 0B       		.byte	0xb
 1325 045a 2F       		.byte	0x2f
 1326 045b 4B020000 		.4byte	0x24b
 1327 045f 08       		.byte	0x8
 1328 0460 06       		.uleb128 0x6
 1329 0461 8E040000 		.4byte	.LASF71
 1330 0465 0B       		.byte	0xb
 1331 0466 31       		.byte	0x31
 1332 0467 6D040000 		.4byte	0x46d
 1333 046b 0C       		.byte	0xc
 1334 046c 00       		.byte	0
 1335 046d 09       		.uleb128 0x9
 1336 046e 04       		.byte	0x4
 1337 046f 3C040000 		.4byte	0x43c
 1338 0473 03       		.uleb128 0x3
 1339 0474 58020000 		.4byte	.LASF68
 1340 0478 0B       		.byte	0xb
 1341 0479 33       		.byte	0x33
 1342 047a 3C040000 		.4byte	0x43c
 1343 047e 0E       		.uleb128 0xe
 1344 047f 04       		.byte	0x4
 1345 0480 07       		.byte	0x7
 1346 0481 96       		.byte	0x96
 1347 0482 B3040000 		.4byte	0x4b3
 1348 0486 0F       		.uleb128 0xf
 1349 0487 1A000000 		.4byte	.LASF72
 1350 048b 07       		.byte	0x7
 1351 048c 9D       		.byte	0x9d
 1352 048d 01010000 		.4byte	0x101
ARM GAS  /tmp/ccv3kRpi.s 			page 25


 1353 0491 0F       		.uleb128 0xf
 1354 0492 49000000 		.4byte	.LASF73
 1355 0496 07       		.byte	0x7
 1356 0497 A4       		.byte	0xa4
 1357 0498 01010000 		.4byte	0x101
 1358 049c 0F       		.uleb128 0xf
 1359 049d FE040000 		.4byte	.LASF74
 1360 04a1 07       		.byte	0x7
 1361 04a2 AB       		.byte	0xab
 1362 04a3 87020000 		.4byte	0x287
 1363 04a7 0F       		.uleb128 0xf
 1364 04a8 22040000 		.4byte	.LASF75
 1365 04ac 07       		.byte	0x7
 1366 04ad B2       		.byte	0xb2
 1367 04ae 0C010000 		.4byte	0x10c
 1368 04b2 00       		.byte	0
 1369 04b3 09       		.uleb128 0x9
 1370 04b4 04       		.byte	0x4
 1371 04b5 B9040000 		.4byte	0x4b9
 1372 04b9 10       		.uleb128 0x10
 1373 04ba BE040000 		.4byte	0x4be
 1374 04be 04       		.uleb128 0x4
 1375 04bf 01       		.byte	0x1
 1376 04c0 08       		.byte	0x8
 1377 04c1 71040000 		.4byte	.LASF76
 1378 04c5 09       		.uleb128 0x9
 1379 04c6 04       		.byte	0x4
 1380 04c7 73040000 		.4byte	0x473
 1381 04cb 03       		.uleb128 0x3
 1382 04cc 00000000 		.4byte	.LASF77
 1383 04d0 07       		.byte	0x7
 1384 04d1 E5       		.byte	0xe5
 1385 04d2 D6040000 		.4byte	0x4d6
 1386 04d6 09       		.uleb128 0x9
 1387 04d7 04       		.byte	0x4
 1388 04d8 DC040000 		.4byte	0x4dc
 1389 04dc 11       		.uleb128 0x11
 1390 04dd 01010000 		.4byte	0x101
 1391 04e1 EB040000 		.4byte	0x4eb
 1392 04e5 0C       		.uleb128 0xc
 1393 04e6 87020000 		.4byte	0x287
 1394 04ea 00       		.byte	0
 1395 04eb 05       		.uleb128 0x5
 1396 04ec 3F040000 		.4byte	.LASF78
 1397 04f0 10       		.byte	0x10
 1398 04f1 0C       		.byte	0xc
 1399 04f2 3B       		.byte	0x3b
 1400 04f3 28050000 		.4byte	0x528
 1401 04f7 06       		.uleb128 0x6
 1402 04f8 0A020000 		.4byte	.LASF79
 1403 04fc 0C       		.byte	0xc
 1404 04fd 3C       		.byte	0x3c
 1405 04fe B3040000 		.4byte	0x4b3
 1406 0502 00       		.byte	0
 1407 0503 06       		.uleb128 0x6
 1408 0504 F3020000 		.4byte	.LASF80
 1409 0508 0C       		.byte	0xc
ARM GAS  /tmp/ccv3kRpi.s 			page 26


 1410 0509 3D       		.byte	0x3d
 1411 050a 29050000 		.4byte	0x529
 1412 050e 04       		.byte	0x4
 1413 050f 06       		.uleb128 0x6
 1414 0510 F8010000 		.4byte	.LASF81
 1415 0514 0C       		.byte	0xc
 1416 0515 3E       		.byte	0x3e
 1417 0516 29050000 		.4byte	0x529
 1418 051a 08       		.byte	0x8
 1419 051b 06       		.uleb128 0x6
 1420 051c AB030000 		.4byte	.LASF82
 1421 0520 0C       		.byte	0xc
 1422 0521 3F       		.byte	0x3f
 1423 0522 29050000 		.4byte	0x529
 1424 0526 0C       		.byte	0xc
 1425 0527 00       		.byte	0
 1426 0528 12       		.uleb128 0x12
 1427 0529 09       		.uleb128 0x9
 1428 052a 04       		.byte	0x4
 1429 052b 28050000 		.4byte	0x528
 1430 052f 13       		.uleb128 0x13
 1431 0530 76040000 		.4byte	.LASF108
 1432 0534 01       		.byte	0x1
 1433 0535 BD       		.byte	0xbd
 1434 0536 01       		.byte	0x1
 1435 0537 47050000 		.4byte	0x547
 1436 053b 14       		.uleb128 0x14
 1437 053c 53030000 		.4byte	.LASF109
 1438 0540 01       		.byte	0x1
 1439 0541 BE       		.byte	0xbe
 1440 0542 17010000 		.4byte	0x117
 1441 0546 00       		.byte	0
 1442 0547 15       		.uleb128 0x15
 1443 0548 C4010000 		.4byte	.LASF83
 1444 054c 01       		.byte	0x1
 1445 054d 42       		.byte	0x42
 1446 054e 00000000 		.4byte	.LFB8
 1447 0552 CC000000 		.4byte	.LFE8-.LFB8
 1448 0556 01       		.uleb128 0x1
 1449 0557 9C       		.byte	0x9c
 1450 0558 55060000 		.4byte	0x655
 1451 055c 16       		.uleb128 0x16
 1452 055d 2A000000 		.4byte	.LVL0
 1453 0561 C00A0000 		.4byte	0xac0
 1454 0565 87050000 		.4byte	0x587
 1455 0569 17       		.uleb128 0x17
 1456 056a 01       		.uleb128 0x1
 1457 056b 53       		.byte	0x53
 1458 056c 02       		.uleb128 0x2
 1459 056d 75       		.byte	0x75
 1460 056e 00       		.sleb128 0
 1461 056f 17       		.uleb128 0x17
 1462 0570 01       		.uleb128 0x1
 1463 0571 51       		.byte	0x51
 1464 0572 02       		.uleb128 0x2
 1465 0573 76       		.byte	0x76
 1466 0574 00       		.sleb128 0
ARM GAS  /tmp/ccv3kRpi.s 			page 27


 1467 0575 17       		.uleb128 0x17
 1468 0576 01       		.uleb128 0x1
 1469 0577 50       		.byte	0x50
 1470 0578 03       		.uleb128 0x3
 1471 0579 78       		.byte	0x78
 1472 057a 00       		.sleb128 0
 1473 057b 06       		.byte	0x6
 1474 057c 17       		.uleb128 0x17
 1475 057d 02       		.uleb128 0x2
 1476 057e 7D       		.byte	0x7d
 1477 057f 00       		.sleb128 0
 1478 0580 05       		.uleb128 0x5
 1479 0581 03       		.byte	0x3
 1480 0582 00000000 		.4byte	.LC3
 1481 0586 00       		.byte	0
 1482 0587 16       		.uleb128 0x16
 1483 0588 44000000 		.4byte	.LVL1
 1484 058c C00A0000 		.4byte	0xac0
 1485 0590 B2050000 		.4byte	0x5b2
 1486 0594 17       		.uleb128 0x17
 1487 0595 01       		.uleb128 0x1
 1488 0596 53       		.byte	0x53
 1489 0597 02       		.uleb128 0x2
 1490 0598 75       		.byte	0x75
 1491 0599 00       		.sleb128 0
 1492 059a 17       		.uleb128 0x17
 1493 059b 01       		.uleb128 0x1
 1494 059c 51       		.byte	0x51
 1495 059d 02       		.uleb128 0x2
 1496 059e 76       		.byte	0x76
 1497 059f 00       		.sleb128 0
 1498 05a0 17       		.uleb128 0x17
 1499 05a1 01       		.uleb128 0x1
 1500 05a2 50       		.byte	0x50
 1501 05a3 03       		.uleb128 0x3
 1502 05a4 78       		.byte	0x78
 1503 05a5 04       		.sleb128 4
 1504 05a6 06       		.byte	0x6
 1505 05a7 17       		.uleb128 0x17
 1506 05a8 02       		.uleb128 0x2
 1507 05a9 7D       		.byte	0x7d
 1508 05aa 00       		.sleb128 0
 1509 05ab 05       		.uleb128 0x5
 1510 05ac 03       		.byte	0x3
 1511 05ad 04000000 		.4byte	.LC6
 1512 05b1 00       		.byte	0
 1513 05b2 16       		.uleb128 0x16
 1514 05b3 5C000000 		.4byte	.LVL2
 1515 05b7 C00A0000 		.4byte	0xac0
 1516 05bb DD050000 		.4byte	0x5dd
 1517 05bf 17       		.uleb128 0x17
 1518 05c0 01       		.uleb128 0x1
 1519 05c1 53       		.byte	0x53
 1520 05c2 02       		.uleb128 0x2
 1521 05c3 75       		.byte	0x75
 1522 05c4 00       		.sleb128 0
 1523 05c5 17       		.uleb128 0x17
ARM GAS  /tmp/ccv3kRpi.s 			page 28


 1524 05c6 01       		.uleb128 0x1
 1525 05c7 51       		.byte	0x51
 1526 05c8 02       		.uleb128 0x2
 1527 05c9 76       		.byte	0x76
 1528 05ca 00       		.sleb128 0
 1529 05cb 17       		.uleb128 0x17
 1530 05cc 01       		.uleb128 0x1
 1531 05cd 50       		.byte	0x50
 1532 05ce 03       		.uleb128 0x3
 1533 05cf 78       		.byte	0x78
 1534 05d0 08       		.sleb128 8
 1535 05d1 06       		.byte	0x6
 1536 05d2 17       		.uleb128 0x17
 1537 05d3 02       		.uleb128 0x2
 1538 05d4 7D       		.byte	0x7d
 1539 05d5 00       		.sleb128 0
 1540 05d6 05       		.uleb128 0x5
 1541 05d7 03       		.byte	0x3
 1542 05d8 08000000 		.4byte	.LC8
 1543 05dc 00       		.byte	0
 1544 05dd 16       		.uleb128 0x16
 1545 05de 74000000 		.4byte	.LVL3
 1546 05e2 C00A0000 		.4byte	0xac0
 1547 05e6 08060000 		.4byte	0x608
 1548 05ea 17       		.uleb128 0x17
 1549 05eb 01       		.uleb128 0x1
 1550 05ec 53       		.byte	0x53
 1551 05ed 02       		.uleb128 0x2
 1552 05ee 75       		.byte	0x75
 1553 05ef 00       		.sleb128 0
 1554 05f0 17       		.uleb128 0x17
 1555 05f1 01       		.uleb128 0x1
 1556 05f2 51       		.byte	0x51
 1557 05f3 02       		.uleb128 0x2
 1558 05f4 76       		.byte	0x76
 1559 05f5 00       		.sleb128 0
 1560 05f6 17       		.uleb128 0x17
 1561 05f7 01       		.uleb128 0x1
 1562 05f8 50       		.byte	0x50
 1563 05f9 03       		.uleb128 0x3
 1564 05fa 78       		.byte	0x78
 1565 05fb 0C       		.sleb128 12
 1566 05fc 06       		.byte	0x6
 1567 05fd 17       		.uleb128 0x17
 1568 05fe 02       		.uleb128 0x2
 1569 05ff 7D       		.byte	0x7d
 1570 0600 00       		.sleb128 0
 1571 0601 05       		.uleb128 0x5
 1572 0602 03       		.byte	0x3
 1573 0603 0C000000 		.4byte	.LC10
 1574 0607 00       		.byte	0
 1575 0608 16       		.uleb128 0x16
 1576 0609 8C000000 		.4byte	.LVL4
 1577 060d C00A0000 		.4byte	0xac0
 1578 0611 33060000 		.4byte	0x633
 1579 0615 17       		.uleb128 0x17
 1580 0616 01       		.uleb128 0x1
ARM GAS  /tmp/ccv3kRpi.s 			page 29


 1581 0617 53       		.byte	0x53
 1582 0618 02       		.uleb128 0x2
 1583 0619 75       		.byte	0x75
 1584 061a 00       		.sleb128 0
 1585 061b 17       		.uleb128 0x17
 1586 061c 01       		.uleb128 0x1
 1587 061d 51       		.byte	0x51
 1588 061e 02       		.uleb128 0x2
 1589 061f 76       		.byte	0x76
 1590 0620 00       		.sleb128 0
 1591 0621 17       		.uleb128 0x17
 1592 0622 01       		.uleb128 0x1
 1593 0623 50       		.byte	0x50
 1594 0624 03       		.uleb128 0x3
 1595 0625 78       		.byte	0x78
 1596 0626 10       		.sleb128 16
 1597 0627 06       		.byte	0x6
 1598 0628 17       		.uleb128 0x17
 1599 0629 02       		.uleb128 0x2
 1600 062a 7D       		.byte	0x7d
 1601 062b 00       		.sleb128 0
 1602 062c 05       		.uleb128 0x5
 1603 062d 03       		.byte	0x3
 1604 062e 10000000 		.4byte	.LC12
 1605 0632 00       		.byte	0
 1606 0633 18       		.uleb128 0x18
 1607 0634 92000000 		.4byte	.LVL5
 1608 0638 EA0A0000 		.4byte	0xaea
 1609 063c 19       		.uleb128 0x19
 1610 063d 9A000000 		.4byte	.LVL6
 1611 0641 F10A0000 		.4byte	0xaf1
 1612 0645 17       		.uleb128 0x17
 1613 0646 01       		.uleb128 0x1
 1614 0647 51       		.byte	0x51
 1615 0648 05       		.uleb128 0x5
 1616 0649 03       		.byte	0x3
 1617 064a 14000000 		.4byte	.LC14
 1618 064e 17       		.uleb128 0x17
 1619 064f 01       		.uleb128 0x1
 1620 0650 50       		.byte	0x50
 1621 0651 01       		.uleb128 0x1
 1622 0652 31       		.byte	0x31
 1623 0653 00       		.byte	0
 1624 0654 00       		.byte	0
 1625 0655 1A       		.uleb128 0x1a
 1626 0656 BB030000 		.4byte	.LASF110
 1627 065a 01       		.byte	0x1
 1628 065b 3C       		.byte	0x3c
 1629 065c 01010000 		.4byte	0x101
 1630 0660 00000000 		.4byte	.LFB7
 1631 0664 0C000000 		.4byte	.LFE7-.LFB7
 1632 0668 01       		.uleb128 0x1
 1633 0669 9C       		.byte	0x9c
 1634 066a 85060000 		.4byte	0x685
 1635 066e 1B       		.uleb128 0x1b
 1636 066f 7000     		.ascii	"p\000"
 1637 0671 01       		.byte	0x1
ARM GAS  /tmp/ccv3kRpi.s 			page 30


 1638 0672 3C       		.byte	0x3c
 1639 0673 87020000 		.4byte	0x287
 1640 0677 00000000 		.4byte	.LLST0
 1641 067b 18       		.uleb128 0x18
 1642 067c 08000000 		.4byte	.LVL9
 1643 0680 110B0000 		.4byte	0xb11
 1644 0684 00       		.byte	0
 1645 0685 15       		.uleb128 0x15
 1646 0686 5E020000 		.4byte	.LASF84
 1647 068a 01       		.byte	0x1
 1648 068b 5E       		.byte	0x5e
 1649 068c 00000000 		.4byte	.LFB9
 1650 0690 DC000000 		.4byte	.LFE9-.LFB9
 1651 0694 01       		.uleb128 0x1
 1652 0695 9C       		.byte	0x9c
 1653 0696 9C070000 		.4byte	0x79c
 1654 069a 16       		.uleb128 0x16
 1655 069b 2A000000 		.4byte	.LVL10
 1656 069f C00A0000 		.4byte	0xac0
 1657 06a3 C5060000 		.4byte	0x6c5
 1658 06a7 17       		.uleb128 0x17
 1659 06a8 01       		.uleb128 0x1
 1660 06a9 53       		.byte	0x53
 1661 06aa 02       		.uleb128 0x2
 1662 06ab 75       		.byte	0x75
 1663 06ac 00       		.sleb128 0
 1664 06ad 17       		.uleb128 0x17
 1665 06ae 01       		.uleb128 0x1
 1666 06af 51       		.byte	0x51
 1667 06b0 02       		.uleb128 0x2
 1668 06b1 76       		.byte	0x76
 1669 06b2 00       		.sleb128 0
 1670 06b3 17       		.uleb128 0x17
 1671 06b4 01       		.uleb128 0x1
 1672 06b5 50       		.byte	0x50
 1673 06b6 03       		.uleb128 0x3
 1674 06b7 78       		.byte	0x78
 1675 06b8 04       		.sleb128 4
 1676 06b9 06       		.byte	0x6
 1677 06ba 17       		.uleb128 0x17
 1678 06bb 02       		.uleb128 0x2
 1679 06bc 7D       		.byte	0x7d
 1680 06bd 00       		.sleb128 0
 1681 06be 05       		.uleb128 0x5
 1682 06bf 03       		.byte	0x3
 1683 06c0 04000000 		.4byte	.LC6
 1684 06c4 00       		.byte	0
 1685 06c5 16       		.uleb128 0x16
 1686 06c6 44000000 		.4byte	.LVL11
 1687 06ca C00A0000 		.4byte	0xac0
 1688 06ce F0060000 		.4byte	0x6f0
 1689 06d2 17       		.uleb128 0x17
 1690 06d3 01       		.uleb128 0x1
 1691 06d4 53       		.byte	0x53
 1692 06d5 02       		.uleb128 0x2
 1693 06d6 75       		.byte	0x75
 1694 06d7 00       		.sleb128 0
ARM GAS  /tmp/ccv3kRpi.s 			page 31


 1695 06d8 17       		.uleb128 0x17
 1696 06d9 01       		.uleb128 0x1
 1697 06da 51       		.byte	0x51
 1698 06db 02       		.uleb128 0x2
 1699 06dc 76       		.byte	0x76
 1700 06dd 00       		.sleb128 0
 1701 06de 17       		.uleb128 0x17
 1702 06df 01       		.uleb128 0x1
 1703 06e0 50       		.byte	0x50
 1704 06e1 03       		.uleb128 0x3
 1705 06e2 78       		.byte	0x78
 1706 06e3 00       		.sleb128 0
 1707 06e4 06       		.byte	0x6
 1708 06e5 17       		.uleb128 0x17
 1709 06e6 02       		.uleb128 0x2
 1710 06e7 7D       		.byte	0x7d
 1711 06e8 00       		.sleb128 0
 1712 06e9 05       		.uleb128 0x5
 1713 06ea 03       		.byte	0x3
 1714 06eb 00000000 		.4byte	.LC3
 1715 06ef 00       		.byte	0
 1716 06f0 16       		.uleb128 0x16
 1717 06f1 5C000000 		.4byte	.LVL12
 1718 06f5 C00A0000 		.4byte	0xac0
 1719 06f9 1B070000 		.4byte	0x71b
 1720 06fd 17       		.uleb128 0x17
 1721 06fe 01       		.uleb128 0x1
 1722 06ff 53       		.byte	0x53
 1723 0700 02       		.uleb128 0x2
 1724 0701 75       		.byte	0x75
 1725 0702 00       		.sleb128 0
 1726 0703 17       		.uleb128 0x17
 1727 0704 01       		.uleb128 0x1
 1728 0705 51       		.byte	0x51
 1729 0706 02       		.uleb128 0x2
 1730 0707 76       		.byte	0x76
 1731 0708 00       		.sleb128 0
 1732 0709 17       		.uleb128 0x17
 1733 070a 01       		.uleb128 0x1
 1734 070b 50       		.byte	0x50
 1735 070c 03       		.uleb128 0x3
 1736 070d 78       		.byte	0x78
 1737 070e 10       		.sleb128 16
 1738 070f 06       		.byte	0x6
 1739 0710 17       		.uleb128 0x17
 1740 0711 02       		.uleb128 0x2
 1741 0712 7D       		.byte	0x7d
 1742 0713 00       		.sleb128 0
 1743 0714 05       		.uleb128 0x5
 1744 0715 03       		.byte	0x3
 1745 0716 10000000 		.4byte	.LC12
 1746 071a 00       		.byte	0
 1747 071b 16       		.uleb128 0x16
 1748 071c 74000000 		.4byte	.LVL13
 1749 0720 C00A0000 		.4byte	0xac0
 1750 0724 46070000 		.4byte	0x746
 1751 0728 17       		.uleb128 0x17
ARM GAS  /tmp/ccv3kRpi.s 			page 32


 1752 0729 01       		.uleb128 0x1
 1753 072a 53       		.byte	0x53
 1754 072b 02       		.uleb128 0x2
 1755 072c 75       		.byte	0x75
 1756 072d 00       		.sleb128 0
 1757 072e 17       		.uleb128 0x17
 1758 072f 01       		.uleb128 0x1
 1759 0730 51       		.byte	0x51
 1760 0731 02       		.uleb128 0x2
 1761 0732 76       		.byte	0x76
 1762 0733 00       		.sleb128 0
 1763 0734 17       		.uleb128 0x17
 1764 0735 01       		.uleb128 0x1
 1765 0736 50       		.byte	0x50
 1766 0737 03       		.uleb128 0x3
 1767 0738 78       		.byte	0x78
 1768 0739 0C       		.sleb128 12
 1769 073a 06       		.byte	0x6
 1770 073b 17       		.uleb128 0x17
 1771 073c 02       		.uleb128 0x2
 1772 073d 7D       		.byte	0x7d
 1773 073e 00       		.sleb128 0
 1774 073f 05       		.uleb128 0x5
 1775 0740 03       		.byte	0x3
 1776 0741 0C000000 		.4byte	.LC10
 1777 0745 00       		.byte	0
 1778 0746 16       		.uleb128 0x16
 1779 0747 92000000 		.4byte	.LVL14
 1780 074b 220B0000 		.4byte	0xb22
 1781 074f 71070000 		.4byte	0x771
 1782 0753 17       		.uleb128 0x17
 1783 0754 01       		.uleb128 0x1
 1784 0755 53       		.byte	0x53
 1785 0756 02       		.uleb128 0x2
 1786 0757 75       		.byte	0x75
 1787 0758 00       		.sleb128 0
 1788 0759 17       		.uleb128 0x17
 1789 075a 01       		.uleb128 0x1
 1790 075b 51       		.byte	0x51
 1791 075c 02       		.uleb128 0x2
 1792 075d 76       		.byte	0x76
 1793 075e 00       		.sleb128 0
 1794 075f 17       		.uleb128 0x17
 1795 0760 01       		.uleb128 0x1
 1796 0761 50       		.byte	0x50
 1797 0762 03       		.uleb128 0x3
 1798 0763 78       		.byte	0x78
 1799 0764 08       		.sleb128 8
 1800 0765 06       		.byte	0x6
 1801 0766 17       		.uleb128 0x17
 1802 0767 02       		.uleb128 0x2
 1803 0768 7D       		.byte	0x7d
 1804 0769 00       		.sleb128 0
 1805 076a 05       		.uleb128 0x5
 1806 076b 03       		.byte	0x3
 1807 076c 08000000 		.4byte	.LC8
 1808 0770 00       		.byte	0
ARM GAS  /tmp/ccv3kRpi.s 			page 33


 1809 0771 18       		.uleb128 0x18
 1810 0772 A0000000 		.4byte	.LVL15
 1811 0776 4C0B0000 		.4byte	0xb4c
 1812 077a 18       		.uleb128 0x18
 1813 077b A4000000 		.4byte	.LVL16
 1814 077f EA0A0000 		.4byte	0xaea
 1815 0783 19       		.uleb128 0x19
 1816 0784 AC000000 		.4byte	.LVL17
 1817 0788 F10A0000 		.4byte	0xaf1
 1818 078c 17       		.uleb128 0x17
 1819 078d 01       		.uleb128 0x1
 1820 078e 51       		.byte	0x51
 1821 078f 05       		.uleb128 0x5
 1822 0790 03       		.byte	0x3
 1823 0791 14000000 		.4byte	.LC14
 1824 0795 17       		.uleb128 0x17
 1825 0796 01       		.uleb128 0x1
 1826 0797 50       		.byte	0x50
 1827 0798 01       		.uleb128 0x1
 1828 0799 31       		.byte	0x31
 1829 079a 00       		.byte	0
 1830 079b 00       		.byte	0
 1831 079c 15       		.uleb128 0x15
 1832 079d 97030000 		.4byte	.LASF85
 1833 07a1 01       		.byte	0x1
 1834 07a2 7E       		.byte	0x7e
 1835 07a3 00000000 		.4byte	.LFB10
 1836 07a7 30010000 		.4byte	.LFE10-.LFB10
 1837 07ab 01       		.uleb128 0x1
 1838 07ac 9C       		.byte	0x9c
 1839 07ad F7080000 		.4byte	0x8f7
 1840 07b1 1C       		.uleb128 0x1c
 1841 07b2 15000000 		.4byte	.LASF86
 1842 07b6 01       		.byte	0x1
 1843 07b7 7F       		.byte	0x7f
 1844 07b8 F6000000 		.4byte	0xf6
 1845 07bc 21000000 		.4byte	.LLST1
 1846 07c0 1D       		.uleb128 0x1d
 1847 07c1 703100   		.ascii	"p1\000"
 1848 07c4 01       		.byte	0x1
 1849 07c5 7F       		.byte	0x7f
 1850 07c6 F6000000 		.4byte	0xf6
 1851 07ca 3F000000 		.4byte	.LLST2
 1852 07ce 16       		.uleb128 0x16
 1853 07cf 10000000 		.4byte	.LVL19
 1854 07d3 620B0000 		.4byte	0xb62
 1855 07d7 E2070000 		.4byte	0x7e2
 1856 07db 17       		.uleb128 0x17
 1857 07dc 01       		.uleb128 0x1
 1858 07dd 50       		.byte	0x50
 1859 07de 02       		.uleb128 0x2
 1860 07df 75       		.byte	0x75
 1861 07e0 00       		.sleb128 0
 1862 07e1 00       		.byte	0
 1863 07e2 16       		.uleb128 0x16
 1864 07e3 20000000 		.4byte	.LVL22
 1865 07e7 780B0000 		.4byte	0xb78
ARM GAS  /tmp/ccv3kRpi.s 			page 34


 1866 07eb 00080000 		.4byte	0x800
 1867 07ef 17       		.uleb128 0x17
 1868 07f0 01       		.uleb128 0x1
 1869 07f1 51       		.byte	0x51
 1870 07f2 07       		.uleb128 0x7
 1871 07f3 77       		.byte	0x77
 1872 07f4 00       		.sleb128 0
 1873 07f5 74       		.byte	0x74
 1874 07f6 00       		.sleb128 0
 1875 07f7 1C       		.byte	0x1c
 1876 07f8 30       		.byte	0x30
 1877 07f9 29       		.byte	0x29
 1878 07fa 17       		.uleb128 0x17
 1879 07fb 01       		.uleb128 0x1
 1880 07fc 50       		.byte	0x50
 1881 07fd 01       		.uleb128 0x1
 1882 07fe 31       		.byte	0x31
 1883 07ff 00       		.byte	0
 1884 0800 16       		.uleb128 0x16
 1885 0801 38000000 		.4byte	.LVL26
 1886 0805 780B0000 		.4byte	0xb78
 1887 0809 13080000 		.4byte	0x813
 1888 080d 17       		.uleb128 0x17
 1889 080e 01       		.uleb128 0x1
 1890 080f 50       		.byte	0x50
 1891 0810 01       		.uleb128 0x1
 1892 0811 32       		.byte	0x32
 1893 0812 00       		.byte	0
 1894 0813 16       		.uleb128 0x16
 1895 0814 42000000 		.4byte	.LVL27
 1896 0818 620B0000 		.4byte	0xb62
 1897 081c 27080000 		.4byte	0x827
 1898 0820 17       		.uleb128 0x17
 1899 0821 01       		.uleb128 0x1
 1900 0822 50       		.byte	0x50
 1901 0823 02       		.uleb128 0x2
 1902 0824 77       		.byte	0x77
 1903 0825 00       		.sleb128 0
 1904 0826 00       		.byte	0
 1905 0827 16       		.uleb128 0x16
 1906 0828 50000000 		.4byte	.LVL29
 1907 082c 780B0000 		.4byte	0xb78
 1908 0830 3A080000 		.4byte	0x83a
 1909 0834 17       		.uleb128 0x17
 1910 0835 01       		.uleb128 0x1
 1911 0836 50       		.byte	0x50
 1912 0837 01       		.uleb128 0x1
 1913 0838 33       		.byte	0x33
 1914 0839 00       		.byte	0
 1915 083a 16       		.uleb128 0x16
 1916 083b 66000000 		.4byte	.LVL30
 1917 083f 780B0000 		.4byte	0xb78
 1918 0843 4D080000 		.4byte	0x84d
 1919 0847 17       		.uleb128 0x17
 1920 0848 01       		.uleb128 0x1
 1921 0849 50       		.byte	0x50
 1922 084a 01       		.uleb128 0x1
ARM GAS  /tmp/ccv3kRpi.s 			page 35


 1923 084b 34       		.byte	0x34
 1924 084c 00       		.byte	0
 1925 084d 16       		.uleb128 0x16
 1926 084e 8C000000 		.4byte	.LVL31
 1927 0852 780B0000 		.4byte	0xb78
 1928 0856 60080000 		.4byte	0x860
 1929 085a 17       		.uleb128 0x17
 1930 085b 01       		.uleb128 0x1
 1931 085c 50       		.byte	0x50
 1932 085d 01       		.uleb128 0x1
 1933 085e 35       		.byte	0x35
 1934 085f 00       		.byte	0
 1935 0860 16       		.uleb128 0x16
 1936 0861 96000000 		.4byte	.LVL32
 1937 0865 620B0000 		.4byte	0xb62
 1938 0869 74080000 		.4byte	0x874
 1939 086d 17       		.uleb128 0x17
 1940 086e 01       		.uleb128 0x1
 1941 086f 50       		.byte	0x50
 1942 0870 02       		.uleb128 0x2
 1943 0871 75       		.byte	0x75
 1944 0872 00       		.sleb128 0
 1945 0873 00       		.byte	0
 1946 0874 16       		.uleb128 0x16
 1947 0875 A4000000 		.4byte	.LVL34
 1948 0879 780B0000 		.4byte	0xb78
 1949 087d 87080000 		.4byte	0x887
 1950 0881 17       		.uleb128 0x17
 1951 0882 01       		.uleb128 0x1
 1952 0883 50       		.byte	0x50
 1953 0884 01       		.uleb128 0x1
 1954 0885 36       		.byte	0x36
 1955 0886 00       		.byte	0
 1956 0887 16       		.uleb128 0x16
 1957 0888 BA000000 		.4byte	.LVL35
 1958 088c 780B0000 		.4byte	0xb78
 1959 0890 9A080000 		.4byte	0x89a
 1960 0894 17       		.uleb128 0x17
 1961 0895 01       		.uleb128 0x1
 1962 0896 50       		.byte	0x50
 1963 0897 01       		.uleb128 0x1
 1964 0898 37       		.byte	0x37
 1965 0899 00       		.byte	0
 1966 089a 16       		.uleb128 0x16
 1967 089b D0000000 		.4byte	.LVL36
 1968 089f 780B0000 		.4byte	0xb78
 1969 08a3 AD080000 		.4byte	0x8ad
 1970 08a7 17       		.uleb128 0x17
 1971 08a8 01       		.uleb128 0x1
 1972 08a9 50       		.byte	0x50
 1973 08aa 01       		.uleb128 0x1
 1974 08ab 38       		.byte	0x38
 1975 08ac 00       		.byte	0
 1976 08ad 16       		.uleb128 0x16
 1977 08ae DC000000 		.4byte	.LVL37
 1978 08b2 620B0000 		.4byte	0xb62
 1979 08b6 C1080000 		.4byte	0x8c1
ARM GAS  /tmp/ccv3kRpi.s 			page 36


 1980 08ba 17       		.uleb128 0x17
 1981 08bb 01       		.uleb128 0x1
 1982 08bc 50       		.byte	0x50
 1983 08bd 02       		.uleb128 0x2
 1984 08be 77       		.byte	0x77
 1985 08bf 00       		.sleb128 0
 1986 08c0 00       		.byte	0
 1987 08c1 16       		.uleb128 0x16
 1988 08c2 EA000000 		.4byte	.LVL39
 1989 08c6 780B0000 		.4byte	0xb78
 1990 08ca D4080000 		.4byte	0x8d4
 1991 08ce 17       		.uleb128 0x17
 1992 08cf 01       		.uleb128 0x1
 1993 08d0 50       		.byte	0x50
 1994 08d1 01       		.uleb128 0x1
 1995 08d2 39       		.byte	0x39
 1996 08d3 00       		.byte	0
 1997 08d4 16       		.uleb128 0x16
 1998 08d5 00010000 		.4byte	.LVL40
 1999 08d9 780B0000 		.4byte	0xb78
 2000 08dd E7080000 		.4byte	0x8e7
 2001 08e1 17       		.uleb128 0x17
 2002 08e2 01       		.uleb128 0x1
 2003 08e3 50       		.byte	0x50
 2004 08e4 01       		.uleb128 0x1
 2005 08e5 3A       		.byte	0x3a
 2006 08e6 00       		.byte	0
 2007 08e7 19       		.uleb128 0x19
 2008 08e8 18010000 		.4byte	.LVL41
 2009 08ec 780B0000 		.4byte	0xb78
 2010 08f0 17       		.uleb128 0x17
 2011 08f1 01       		.uleb128 0x1
 2012 08f2 50       		.byte	0x50
 2013 08f3 01       		.uleb128 0x1
 2014 08f4 3B       		.byte	0x3b
 2015 08f5 00       		.byte	0
 2016 08f6 00       		.byte	0
 2017 08f7 1E       		.uleb128 0x1e
 2018 08f8 2F050000 		.4byte	0x52f
 2019 08fc 00000000 		.4byte	.LFB11
 2020 0900 80000000 		.4byte	.LFE11-.LFB11
 2021 0904 01       		.uleb128 0x1
 2022 0905 9C       		.byte	0x9c
 2023 0906 000A0000 		.4byte	0xa00
 2024 090a 1F       		.uleb128 0x1f
 2025 090b 3B050000 		.4byte	0x53b
 2026 090f 89000000 		.4byte	.LLST3
 2027 0913 20       		.uleb128 0x20
 2028 0914 3E000000 		.4byte	.LBB5
 2029 0918 42000000 		.4byte	.LBE5-.LBB5
 2030 091c 90090000 		.4byte	0x990
 2031 0920 1F       		.uleb128 0x1f
 2032 0921 3B050000 		.4byte	0x53b
 2033 0925 A7000000 		.4byte	.LLST4
 2034 0929 16       		.uleb128 0x16
 2035 092a 48000000 		.4byte	.LVL52
 2036 092e 920B0000 		.4byte	0xb92
ARM GAS  /tmp/ccv3kRpi.s 			page 37


 2037 0932 3E090000 		.4byte	0x93e
 2038 0936 17       		.uleb128 0x17
 2039 0937 01       		.uleb128 0x1
 2040 0938 50       		.byte	0x50
 2041 0939 03       		.uleb128 0x3
 2042 093a 0A       		.byte	0xa
 2043 093b E803     		.2byte	0x3e8
 2044 093d 00       		.byte	0
 2045 093e 16       		.uleb128 0x16
 2046 093f 58000000 		.4byte	.LVL53
 2047 0943 A40B0000 		.4byte	0xba4
 2048 0947 5F090000 		.4byte	0x95f
 2049 094b 17       		.uleb128 0x17
 2050 094c 01       		.uleb128 0x1
 2051 094d 52       		.byte	0x52
 2052 094e 03       		.uleb128 0x3
 2053 094f 74       		.byte	0x74
 2054 0950 E907     		.sleb128 1001
 2055 0952 17       		.uleb128 0x17
 2056 0953 01       		.uleb128 0x1
 2057 0954 51       		.byte	0x51
 2058 0955 03       		.uleb128 0x3
 2059 0956 74       		.byte	0x74
 2060 0957 E807     		.sleb128 1000
 2061 0959 17       		.uleb128 0x17
 2062 095a 01       		.uleb128 0x1
 2063 095b 50       		.byte	0x50
 2064 095c 01       		.uleb128 0x1
 2065 095d 33       		.byte	0x33
 2066 095e 00       		.byte	0
 2067 095f 16       		.uleb128 0x16
 2068 0960 68000000 		.4byte	.LVL56
 2069 0964 C30B0000 		.4byte	0xbc3
 2070 0968 73090000 		.4byte	0x973
 2071 096c 17       		.uleb128 0x17
 2072 096d 01       		.uleb128 0x1
 2073 096e 50       		.byte	0x50
 2074 096f 02       		.uleb128 0x2
 2075 0970 74       		.byte	0x74
 2076 0971 00       		.sleb128 0
 2077 0972 00       		.byte	0
 2078 0973 19       		.uleb128 0x19
 2079 0974 74000000 		.4byte	.LVL57
 2080 0978 A40B0000 		.4byte	0xba4
 2081 097c 17       		.uleb128 0x17
 2082 097d 01       		.uleb128 0x1
 2083 097e 52       		.byte	0x52
 2084 097f 03       		.uleb128 0x3
 2085 0980 75       		.byte	0x75
 2086 0981 E500     		.sleb128 101
 2087 0983 17       		.uleb128 0x17
 2088 0984 01       		.uleb128 0x1
 2089 0985 51       		.byte	0x51
 2090 0986 02       		.uleb128 0x2
 2091 0987 74       		.byte	0x74
 2092 0988 00       		.sleb128 0
 2093 0989 17       		.uleb128 0x17
ARM GAS  /tmp/ccv3kRpi.s 			page 38


 2094 098a 01       		.uleb128 0x1
 2095 098b 50       		.byte	0x50
 2096 098c 01       		.uleb128 0x1
 2097 098d 34       		.byte	0x34
 2098 098e 00       		.byte	0
 2099 098f 00       		.byte	0
 2100 0990 18       		.uleb128 0x18
 2101 0991 06000000 		.4byte	.LVL42
 2102 0995 D50B0000 		.4byte	0xbd5
 2103 0999 16       		.uleb128 0x16
 2104 099a 10000000 		.4byte	.LVL44
 2105 099e 920B0000 		.4byte	0xb92
 2106 09a2 AD090000 		.4byte	0x9ad
 2107 09a6 17       		.uleb128 0x17
 2108 09a7 01       		.uleb128 0x1
 2109 09a8 50       		.byte	0x50
 2110 09a9 02       		.uleb128 0x2
 2111 09aa 08       		.byte	0x8
 2112 09ab 64       		.byte	0x64
 2113 09ac 00       		.byte	0
 2114 09ad 16       		.uleb128 0x16
 2115 09ae 1E000000 		.4byte	.LVL45
 2116 09b2 A40B0000 		.4byte	0xba4
 2117 09b6 CE090000 		.4byte	0x9ce
 2118 09ba 17       		.uleb128 0x17
 2119 09bb 01       		.uleb128 0x1
 2120 09bc 52       		.byte	0x52
 2121 09bd 03       		.uleb128 0x3
 2122 09be 74       		.byte	0x74
 2123 09bf E500     		.sleb128 101
 2124 09c1 17       		.uleb128 0x17
 2125 09c2 01       		.uleb128 0x1
 2126 09c3 51       		.byte	0x51
 2127 09c4 03       		.uleb128 0x3
 2128 09c5 74       		.byte	0x74
 2129 09c6 E400     		.sleb128 100
 2130 09c8 17       		.uleb128 0x17
 2131 09c9 01       		.uleb128 0x1
 2132 09ca 50       		.byte	0x50
 2133 09cb 01       		.uleb128 0x1
 2134 09cc 31       		.byte	0x31
 2135 09cd 00       		.byte	0
 2136 09ce 16       		.uleb128 0x16
 2137 09cf 2C000000 		.4byte	.LVL49
 2138 09d3 920B0000 		.4byte	0xb92
 2139 09d7 E2090000 		.4byte	0x9e2
 2140 09db 17       		.uleb128 0x17
 2141 09dc 01       		.uleb128 0x1
 2142 09dd 50       		.byte	0x50
 2143 09de 02       		.uleb128 0x2
 2144 09df 08       		.byte	0x8
 2145 09e0 64       		.byte	0x64
 2146 09e1 00       		.byte	0
 2147 09e2 19       		.uleb128 0x19
 2148 09e3 3A000000 		.4byte	.LVL50
 2149 09e7 A40B0000 		.4byte	0xba4
 2150 09eb 17       		.uleb128 0x17
ARM GAS  /tmp/ccv3kRpi.s 			page 39


 2151 09ec 01       		.uleb128 0x1
 2152 09ed 52       		.byte	0x52
 2153 09ee 03       		.uleb128 0x3
 2154 09ef 74       		.byte	0x74
 2155 09f0 E500     		.sleb128 101
 2156 09f2 17       		.uleb128 0x17
 2157 09f3 01       		.uleb128 0x1
 2158 09f4 51       		.byte	0x51
 2159 09f5 03       		.uleb128 0x3
 2160 09f6 74       		.byte	0x74
 2161 09f7 E400     		.sleb128 100
 2162 09f9 17       		.uleb128 0x17
 2163 09fa 01       		.uleb128 0x1
 2164 09fb 50       		.byte	0x50
 2165 09fc 01       		.uleb128 0x1
 2166 09fd 32       		.byte	0x32
 2167 09fe 00       		.byte	0
 2168 09ff 00       		.byte	0
 2169 0a00 21       		.uleb128 0x21
 2170 0a01 2B000000 		.4byte	.LASF87
 2171 0a05 09       		.byte	0x9
 2172 0a06 F5       		.byte	0xf5
 2173 0a07 D5030000 		.4byte	0x3d5
 2174 0a0b 21       		.uleb128 0x21
 2175 0a0c F0040000 		.4byte	.LASF88
 2176 0a10 0A       		.byte	0xa
 2177 0a11 6F       		.byte	0x6f
 2178 0a12 31040000 		.4byte	0x431
 2179 0a16 22       		.uleb128 0x22
 2180 0a17 4B020000 		.4byte	0x24b
 2181 0a1b 260A0000 		.4byte	0xa26
 2182 0a1f 23       		.uleb128 0x23
 2183 0a20 1A030000 		.4byte	0x31a
 2184 0a24 04       		.byte	0x4
 2185 0a25 00       		.byte	0
 2186 0a26 21       		.uleb128 0x21
 2187 0a27 13040000 		.4byte	.LASF89
 2188 0a2b 0C       		.byte	0xc
 2189 0a2c A5       		.byte	0xa5
 2190 0a2d 160A0000 		.4byte	0xa16
 2191 0a31 22       		.uleb128 0x22
 2192 0a32 87020000 		.4byte	0x287
 2193 0a36 3C0A0000 		.4byte	0xa3c
 2194 0a3a 24       		.uleb128 0x24
 2195 0a3b 00       		.byte	0
 2196 0a3c 25       		.uleb128 0x25
 2197 0a3d 776100   		.ascii	"wa\000"
 2198 0a40 0C       		.byte	0xc
 2199 0a41 A7       		.byte	0xa7
 2200 0a42 460A0000 		.4byte	0xa46
 2201 0a46 10       		.uleb128 0x10
 2202 0a47 310A0000 		.4byte	0xa31
 2203 0a4b 26       		.uleb128 0x26
 2204 0a4c 8E020000 		.4byte	.LASF90
 2205 0a50 01       		.byte	0x1
 2206 0a51 4D       		.byte	0x4d
 2207 0a52 5C0A0000 		.4byte	0xa5c
ARM GAS  /tmp/ccv3kRpi.s 			page 40


 2208 0a56 05       		.uleb128 0x5
 2209 0a57 03       		.byte	0x3
 2210 0a58 00000000 		.4byte	testthd1
 2211 0a5c 10       		.uleb128 0x10
 2212 0a5d EB040000 		.4byte	0x4eb
 2213 0a61 26       		.uleb128 0x26
 2214 0a62 97020000 		.4byte	.LASF91
 2215 0a66 01       		.byte	0x1
 2216 0a67 6D       		.byte	0x6d
 2217 0a68 5C0A0000 		.4byte	0xa5c
 2218 0a6c 05       		.uleb128 0x5
 2219 0a6d 03       		.byte	0x3
 2220 0a6e 00000000 		.4byte	testthd2
 2221 0a72 26       		.uleb128 0x26
 2222 0a73 A0020000 		.4byte	.LASF92
 2223 0a77 01       		.byte	0x1
 2224 0a78 AE       		.byte	0xae
 2225 0a79 5C0A0000 		.4byte	0xa5c
 2226 0a7d 05       		.uleb128 0x5
 2227 0a7e 03       		.byte	0x3
 2228 0a7f 00000000 		.4byte	testthd3
 2229 0a83 26       		.uleb128 0x26
 2230 0a84 A9020000 		.4byte	.LASF93
 2231 0a88 01       		.byte	0x1
 2232 0a89 D7       		.byte	0xd7
 2233 0a8a 5C0A0000 		.4byte	0xa5c
 2234 0a8e 05       		.uleb128 0x5
 2235 0a8f 03       		.byte	0x3
 2236 0a90 00000000 		.4byte	testthd4
 2237 0a94 22       		.uleb128 0x22
 2238 0a95 A40A0000 		.4byte	0xaa4
 2239 0a99 A40A0000 		.4byte	0xaa4
 2240 0a9d 23       		.uleb128 0x23
 2241 0a9e 1A030000 		.4byte	0x31a
 2242 0aa2 04       		.byte	0x4
 2243 0aa3 00       		.byte	0
 2244 0aa4 09       		.uleb128 0x9
 2245 0aa5 04       		.byte	0x4
 2246 0aa6 5C0A0000 		.4byte	0xa5c
 2247 0aaa 26       		.uleb128 0x26
 2248 0aab 83040000 		.4byte	.LASF94
 2249 0aaf 01       		.byte	0x1
 2250 0ab0 E1       		.byte	0xe1
 2251 0ab1 BB0A0000 		.4byte	0xabb
 2252 0ab5 05       		.uleb128 0x5
 2253 0ab6 03       		.byte	0x3
 2254 0ab7 00000000 		.4byte	patternthd
 2255 0abb 10       		.uleb128 0x10
 2256 0abc 940A0000 		.4byte	0xa94
 2257 0ac0 27       		.uleb128 0x27
 2258 0ac1 6B020000 		.4byte	.LASF95
 2259 0ac5 07       		.byte	0x7
 2260 0ac6 7001     		.2byte	0x170
 2261 0ac8 4B020000 		.4byte	0x24b
 2262 0acc EA0A0000 		.4byte	0xaea
 2263 0ad0 0C       		.uleb128 0xc
 2264 0ad1 87020000 		.4byte	0x287
ARM GAS  /tmp/ccv3kRpi.s 			page 41


 2265 0ad5 0C       		.uleb128 0xc
 2266 0ad6 2C000000 		.4byte	0x2c
 2267 0ada 0C       		.uleb128 0xc
 2268 0adb F6000000 		.4byte	0xf6
 2269 0adf 0C       		.uleb128 0xc
 2270 0ae0 CB040000 		.4byte	0x4cb
 2271 0ae4 0C       		.uleb128 0xc
 2272 0ae5 87020000 		.4byte	0x287
 2273 0ae9 00       		.byte	0
 2274 0aea 28       		.uleb128 0x28
 2275 0aeb C6020000 		.4byte	.LASF111
 2276 0aef 0C       		.byte	0xc
 2277 0af0 5C       		.byte	0x5c
 2278 0af1 29       		.uleb128 0x29
 2279 0af2 AE010000 		.4byte	.LASF96
 2280 0af6 0C       		.byte	0xc
 2281 0af7 59       		.byte	0x59
 2282 0af8 B8000000 		.4byte	0xb8
 2283 0afc 0B0B0000 		.4byte	0xb0b
 2284 0b00 0C       		.uleb128 0xc
 2285 0b01 37000000 		.4byte	0x37
 2286 0b05 0C       		.uleb128 0xc
 2287 0b06 0B0B0000 		.4byte	0xb0b
 2288 0b0a 00       		.byte	0
 2289 0b0b 09       		.uleb128 0x9
 2290 0b0c 04       		.byte	0x4
 2291 0b0d BE040000 		.4byte	0x4be
 2292 0b11 2A       		.uleb128 0x2a
 2293 0b12 8A000000 		.4byte	.LASF101
 2294 0b16 0C       		.byte	0xc
 2295 0b17 56       		.byte	0x56
 2296 0b18 220B0000 		.4byte	0xb22
 2297 0b1c 0C       		.uleb128 0xc
 2298 0b1d BE040000 		.4byte	0x4be
 2299 0b21 00       		.byte	0
 2300 0b22 27       		.uleb128 0x27
 2301 0b23 A4000000 		.4byte	.LASF97
 2302 0b27 07       		.byte	0x7
 2303 0b28 6E01     		.2byte	0x16e
 2304 0b2a 4B020000 		.4byte	0x24b
 2305 0b2e 4C0B0000 		.4byte	0xb4c
 2306 0b32 0C       		.uleb128 0xc
 2307 0b33 87020000 		.4byte	0x287
 2308 0b37 0C       		.uleb128 0xc
 2309 0b38 2C000000 		.4byte	0x2c
 2310 0b3c 0C       		.uleb128 0xc
 2311 0b3d F6000000 		.4byte	0xf6
 2312 0b41 0C       		.uleb128 0xc
 2313 0b42 CB040000 		.4byte	0x4cb
 2314 0b46 0C       		.uleb128 0xc
 2315 0b47 87020000 		.4byte	0x287
 2316 0b4b 00       		.byte	0
 2317 0b4c 27       		.uleb128 0x27
 2318 0b4d BA020000 		.4byte	.LASF98
 2319 0b51 07       		.byte	0x7
 2320 0b52 7301     		.2byte	0x173
 2321 0b54 4B020000 		.4byte	0x24b
ARM GAS  /tmp/ccv3kRpi.s 			page 42


 2322 0b58 620B0000 		.4byte	0xb62
 2323 0b5c 0C       		.uleb128 0xc
 2324 0b5d 4B020000 		.4byte	0x24b
 2325 0b61 00       		.byte	0
 2326 0b62 27       		.uleb128 0x27
 2327 0b63 E4000000 		.4byte	.LASF99
 2328 0b67 07       		.byte	0x7
 2329 0b68 7201     		.2byte	0x172
 2330 0b6a F6000000 		.4byte	0xf6
 2331 0b6e 780B0000 		.4byte	0xb78
 2332 0b72 0C       		.uleb128 0xc
 2333 0b73 F6000000 		.4byte	0xf6
 2334 0b77 00       		.byte	0
 2335 0b78 29       		.uleb128 0x29
 2336 0b79 0C050000 		.4byte	.LASF100
 2337 0b7d 0C       		.byte	0xc
 2338 0b7e 58       		.byte	0x58
 2339 0b7f B8000000 		.4byte	0xb8
 2340 0b83 920B0000 		.4byte	0xb92
 2341 0b87 0C       		.uleb128 0xc
 2342 0b88 37000000 		.4byte	0x37
 2343 0b8c 0C       		.uleb128 0xc
 2344 0b8d B8000000 		.4byte	0xb8
 2345 0b91 00       		.byte	0
 2346 0b92 2B       		.uleb128 0x2b
 2347 0b93 D4040000 		.4byte	.LASF102
 2348 0b97 07       		.byte	0x7
 2349 0b98 7501     		.2byte	0x175
 2350 0b9a A40B0000 		.4byte	0xba4
 2351 0b9e 0C       		.uleb128 0xc
 2352 0b9f 17010000 		.4byte	0x117
 2353 0ba3 00       		.byte	0
 2354 0ba4 29       		.uleb128 0x29
 2355 0ba5 C3000000 		.4byte	.LASF103
 2356 0ba9 0C       		.byte	0xc
 2357 0baa 5A       		.byte	0x5a
 2358 0bab B8000000 		.4byte	0xb8
 2359 0baf C30B0000 		.4byte	0xbc3
 2360 0bb3 0C       		.uleb128 0xc
 2361 0bb4 37000000 		.4byte	0x37
 2362 0bb8 0C       		.uleb128 0xc
 2363 0bb9 17010000 		.4byte	0x117
 2364 0bbd 0C       		.uleb128 0xc
 2365 0bbe 17010000 		.4byte	0x117
 2366 0bc2 00       		.byte	0
 2367 0bc3 2B       		.uleb128 0x2b
 2368 0bc4 6A030000 		.4byte	.LASF104
 2369 0bc8 07       		.byte	0x7
 2370 0bc9 7601     		.2byte	0x176
 2371 0bcb D50B0000 		.4byte	0xbd5
 2372 0bcf 0C       		.uleb128 0xc
 2373 0bd0 17010000 		.4byte	0x117
 2374 0bd4 00       		.byte	0
 2375 0bd5 2C       		.uleb128 0x2c
 2376 0bd6 DE030000 		.4byte	.LASF112
 2377 0bda 0C       		.byte	0xc
 2378 0bdb 5D       		.byte	0x5d
ARM GAS  /tmp/ccv3kRpi.s 			page 43


 2379 0bdc 17010000 		.4byte	0x117
 2380 0be0 00       		.byte	0
 2381              		.section	.debug_abbrev,"",%progbits
 2382              	.Ldebug_abbrev0:
 2383 0000 01       		.uleb128 0x1
 2384 0001 11       		.uleb128 0x11
 2385 0002 01       		.byte	0x1
 2386 0003 25       		.uleb128 0x25
 2387 0004 0E       		.uleb128 0xe
 2388 0005 13       		.uleb128 0x13
 2389 0006 0B       		.uleb128 0xb
 2390 0007 03       		.uleb128 0x3
 2391 0008 0E       		.uleb128 0xe
 2392 0009 1B       		.uleb128 0x1b
 2393 000a 0E       		.uleb128 0xe
 2394 000b 55       		.uleb128 0x55
 2395 000c 17       		.uleb128 0x17
 2396 000d 11       		.uleb128 0x11
 2397 000e 01       		.uleb128 0x1
 2398 000f 10       		.uleb128 0x10
 2399 0010 17       		.uleb128 0x17
 2400 0011 00       		.byte	0
 2401 0012 00       		.byte	0
 2402 0013 02       		.uleb128 0x2
 2403 0014 24       		.uleb128 0x24
 2404 0015 00       		.byte	0
 2405 0016 0B       		.uleb128 0xb
 2406 0017 0B       		.uleb128 0xb
 2407 0018 3E       		.uleb128 0x3e
 2408 0019 0B       		.uleb128 0xb
 2409 001a 03       		.uleb128 0x3
 2410 001b 08       		.uleb128 0x8
 2411 001c 00       		.byte	0
 2412 001d 00       		.byte	0
 2413 001e 03       		.uleb128 0x3
 2414 001f 16       		.uleb128 0x16
 2415 0020 00       		.byte	0
 2416 0021 03       		.uleb128 0x3
 2417 0022 0E       		.uleb128 0xe
 2418 0023 3A       		.uleb128 0x3a
 2419 0024 0B       		.uleb128 0xb
 2420 0025 3B       		.uleb128 0x3b
 2421 0026 0B       		.uleb128 0xb
 2422 0027 49       		.uleb128 0x49
 2423 0028 13       		.uleb128 0x13
 2424 0029 00       		.byte	0
 2425 002a 00       		.byte	0
 2426 002b 04       		.uleb128 0x4
 2427 002c 24       		.uleb128 0x24
 2428 002d 00       		.byte	0
 2429 002e 0B       		.uleb128 0xb
 2430 002f 0B       		.uleb128 0xb
 2431 0030 3E       		.uleb128 0x3e
 2432 0031 0B       		.uleb128 0xb
 2433 0032 03       		.uleb128 0x3
 2434 0033 0E       		.uleb128 0xe
 2435 0034 00       		.byte	0
ARM GAS  /tmp/ccv3kRpi.s 			page 44


 2436 0035 00       		.byte	0
 2437 0036 05       		.uleb128 0x5
 2438 0037 13       		.uleb128 0x13
 2439 0038 01       		.byte	0x1
 2440 0039 03       		.uleb128 0x3
 2441 003a 0E       		.uleb128 0xe
 2442 003b 0B       		.uleb128 0xb
 2443 003c 0B       		.uleb128 0xb
 2444 003d 3A       		.uleb128 0x3a
 2445 003e 0B       		.uleb128 0xb
 2446 003f 3B       		.uleb128 0x3b
 2447 0040 0B       		.uleb128 0xb
 2448 0041 01       		.uleb128 0x1
 2449 0042 13       		.uleb128 0x13
 2450 0043 00       		.byte	0
 2451 0044 00       		.byte	0
 2452 0045 06       		.uleb128 0x6
 2453 0046 0D       		.uleb128 0xd
 2454 0047 00       		.byte	0
 2455 0048 03       		.uleb128 0x3
 2456 0049 0E       		.uleb128 0xe
 2457 004a 3A       		.uleb128 0x3a
 2458 004b 0B       		.uleb128 0xb
 2459 004c 3B       		.uleb128 0x3b
 2460 004d 0B       		.uleb128 0xb
 2461 004e 49       		.uleb128 0x49
 2462 004f 13       		.uleb128 0x13
 2463 0050 38       		.uleb128 0x38
 2464 0051 0B       		.uleb128 0xb
 2465 0052 00       		.byte	0
 2466 0053 00       		.byte	0
 2467 0054 07       		.uleb128 0x7
 2468 0055 0D       		.uleb128 0xd
 2469 0056 00       		.byte	0
 2470 0057 03       		.uleb128 0x3
 2471 0058 08       		.uleb128 0x8
 2472 0059 3A       		.uleb128 0x3a
 2473 005a 0B       		.uleb128 0xb
 2474 005b 3B       		.uleb128 0x3b
 2475 005c 0B       		.uleb128 0xb
 2476 005d 49       		.uleb128 0x49
 2477 005e 13       		.uleb128 0x13
 2478 005f 38       		.uleb128 0x38
 2479 0060 0B       		.uleb128 0xb
 2480 0061 00       		.byte	0
 2481 0062 00       		.byte	0
 2482 0063 08       		.uleb128 0x8
 2483 0064 13       		.uleb128 0x13
 2484 0065 01       		.byte	0x1
 2485 0066 0B       		.uleb128 0xb
 2486 0067 0B       		.uleb128 0xb
 2487 0068 3A       		.uleb128 0x3a
 2488 0069 0B       		.uleb128 0xb
 2489 006a 3B       		.uleb128 0x3b
 2490 006b 0B       		.uleb128 0xb
 2491 006c 01       		.uleb128 0x1
 2492 006d 13       		.uleb128 0x13
ARM GAS  /tmp/ccv3kRpi.s 			page 45


 2493 006e 00       		.byte	0
 2494 006f 00       		.byte	0
 2495 0070 09       		.uleb128 0x9
 2496 0071 0F       		.uleb128 0xf
 2497 0072 00       		.byte	0
 2498 0073 0B       		.uleb128 0xb
 2499 0074 0B       		.uleb128 0xb
 2500 0075 49       		.uleb128 0x49
 2501 0076 13       		.uleb128 0x13
 2502 0077 00       		.byte	0
 2503 0078 00       		.byte	0
 2504 0079 0A       		.uleb128 0xa
 2505 007a 0F       		.uleb128 0xf
 2506 007b 00       		.byte	0
 2507 007c 0B       		.uleb128 0xb
 2508 007d 0B       		.uleb128 0xb
 2509 007e 00       		.byte	0
 2510 007f 00       		.byte	0
 2511 0080 0B       		.uleb128 0xb
 2512 0081 15       		.uleb128 0x15
 2513 0082 01       		.byte	0x1
 2514 0083 27       		.uleb128 0x27
 2515 0084 19       		.uleb128 0x19
 2516 0085 01       		.uleb128 0x1
 2517 0086 13       		.uleb128 0x13
 2518 0087 00       		.byte	0
 2519 0088 00       		.byte	0
 2520 0089 0C       		.uleb128 0xc
 2521 008a 05       		.uleb128 0x5
 2522 008b 00       		.byte	0
 2523 008c 49       		.uleb128 0x49
 2524 008d 13       		.uleb128 0x13
 2525 008e 00       		.byte	0
 2526 008f 00       		.byte	0
 2527 0090 0D       		.uleb128 0xd
 2528 0091 35       		.uleb128 0x35
 2529 0092 00       		.byte	0
 2530 0093 49       		.uleb128 0x49
 2531 0094 13       		.uleb128 0x13
 2532 0095 00       		.byte	0
 2533 0096 00       		.byte	0
 2534 0097 0E       		.uleb128 0xe
 2535 0098 17       		.uleb128 0x17
 2536 0099 01       		.byte	0x1
 2537 009a 0B       		.uleb128 0xb
 2538 009b 0B       		.uleb128 0xb
 2539 009c 3A       		.uleb128 0x3a
 2540 009d 0B       		.uleb128 0xb
 2541 009e 3B       		.uleb128 0x3b
 2542 009f 0B       		.uleb128 0xb
 2543 00a0 01       		.uleb128 0x1
 2544 00a1 13       		.uleb128 0x13
 2545 00a2 00       		.byte	0
 2546 00a3 00       		.byte	0
 2547 00a4 0F       		.uleb128 0xf
 2548 00a5 0D       		.uleb128 0xd
 2549 00a6 00       		.byte	0
ARM GAS  /tmp/ccv3kRpi.s 			page 46


 2550 00a7 03       		.uleb128 0x3
 2551 00a8 0E       		.uleb128 0xe
 2552 00a9 3A       		.uleb128 0x3a
 2553 00aa 0B       		.uleb128 0xb
 2554 00ab 3B       		.uleb128 0x3b
 2555 00ac 0B       		.uleb128 0xb
 2556 00ad 49       		.uleb128 0x49
 2557 00ae 13       		.uleb128 0x13
 2558 00af 00       		.byte	0
 2559 00b0 00       		.byte	0
 2560 00b1 10       		.uleb128 0x10
 2561 00b2 26       		.uleb128 0x26
 2562 00b3 00       		.byte	0
 2563 00b4 49       		.uleb128 0x49
 2564 00b5 13       		.uleb128 0x13
 2565 00b6 00       		.byte	0
 2566 00b7 00       		.byte	0
 2567 00b8 11       		.uleb128 0x11
 2568 00b9 15       		.uleb128 0x15
 2569 00ba 01       		.byte	0x1
 2570 00bb 27       		.uleb128 0x27
 2571 00bc 19       		.uleb128 0x19
 2572 00bd 49       		.uleb128 0x49
 2573 00be 13       		.uleb128 0x13
 2574 00bf 01       		.uleb128 0x1
 2575 00c0 13       		.uleb128 0x13
 2576 00c1 00       		.byte	0
 2577 00c2 00       		.byte	0
 2578 00c3 12       		.uleb128 0x12
 2579 00c4 15       		.uleb128 0x15
 2580 00c5 00       		.byte	0
 2581 00c6 27       		.uleb128 0x27
 2582 00c7 19       		.uleb128 0x19
 2583 00c8 00       		.byte	0
 2584 00c9 00       		.byte	0
 2585 00ca 13       		.uleb128 0x13
 2586 00cb 2E       		.uleb128 0x2e
 2587 00cc 01       		.byte	0x1
 2588 00cd 03       		.uleb128 0x3
 2589 00ce 0E       		.uleb128 0xe
 2590 00cf 3A       		.uleb128 0x3a
 2591 00d0 0B       		.uleb128 0xb
 2592 00d1 3B       		.uleb128 0x3b
 2593 00d2 0B       		.uleb128 0xb
 2594 00d3 27       		.uleb128 0x27
 2595 00d4 19       		.uleb128 0x19
 2596 00d5 20       		.uleb128 0x20
 2597 00d6 0B       		.uleb128 0xb
 2598 00d7 01       		.uleb128 0x1
 2599 00d8 13       		.uleb128 0x13
 2600 00d9 00       		.byte	0
 2601 00da 00       		.byte	0
 2602 00db 14       		.uleb128 0x14
 2603 00dc 34       		.uleb128 0x34
 2604 00dd 00       		.byte	0
 2605 00de 03       		.uleb128 0x3
 2606 00df 0E       		.uleb128 0xe
ARM GAS  /tmp/ccv3kRpi.s 			page 47


 2607 00e0 3A       		.uleb128 0x3a
 2608 00e1 0B       		.uleb128 0xb
 2609 00e2 3B       		.uleb128 0x3b
 2610 00e3 0B       		.uleb128 0xb
 2611 00e4 49       		.uleb128 0x49
 2612 00e5 13       		.uleb128 0x13
 2613 00e6 00       		.byte	0
 2614 00e7 00       		.byte	0
 2615 00e8 15       		.uleb128 0x15
 2616 00e9 2E       		.uleb128 0x2e
 2617 00ea 01       		.byte	0x1
 2618 00eb 03       		.uleb128 0x3
 2619 00ec 0E       		.uleb128 0xe
 2620 00ed 3A       		.uleb128 0x3a
 2621 00ee 0B       		.uleb128 0xb
 2622 00ef 3B       		.uleb128 0x3b
 2623 00f0 0B       		.uleb128 0xb
 2624 00f1 27       		.uleb128 0x27
 2625 00f2 19       		.uleb128 0x19
 2626 00f3 11       		.uleb128 0x11
 2627 00f4 01       		.uleb128 0x1
 2628 00f5 12       		.uleb128 0x12
 2629 00f6 06       		.uleb128 0x6
 2630 00f7 40       		.uleb128 0x40
 2631 00f8 18       		.uleb128 0x18
 2632 00f9 9742     		.uleb128 0x2117
 2633 00fb 19       		.uleb128 0x19
 2634 00fc 01       		.uleb128 0x1
 2635 00fd 13       		.uleb128 0x13
 2636 00fe 00       		.byte	0
 2637 00ff 00       		.byte	0
 2638 0100 16       		.uleb128 0x16
 2639 0101 898201   		.uleb128 0x4109
 2640 0104 01       		.byte	0x1
 2641 0105 11       		.uleb128 0x11
 2642 0106 01       		.uleb128 0x1
 2643 0107 31       		.uleb128 0x31
 2644 0108 13       		.uleb128 0x13
 2645 0109 01       		.uleb128 0x1
 2646 010a 13       		.uleb128 0x13
 2647 010b 00       		.byte	0
 2648 010c 00       		.byte	0
 2649 010d 17       		.uleb128 0x17
 2650 010e 8A8201   		.uleb128 0x410a
 2651 0111 00       		.byte	0
 2652 0112 02       		.uleb128 0x2
 2653 0113 18       		.uleb128 0x18
 2654 0114 9142     		.uleb128 0x2111
 2655 0116 18       		.uleb128 0x18
 2656 0117 00       		.byte	0
 2657 0118 00       		.byte	0
 2658 0119 18       		.uleb128 0x18
 2659 011a 898201   		.uleb128 0x4109
 2660 011d 00       		.byte	0
 2661 011e 11       		.uleb128 0x11
 2662 011f 01       		.uleb128 0x1
 2663 0120 31       		.uleb128 0x31
ARM GAS  /tmp/ccv3kRpi.s 			page 48


 2664 0121 13       		.uleb128 0x13
 2665 0122 00       		.byte	0
 2666 0123 00       		.byte	0
 2667 0124 19       		.uleb128 0x19
 2668 0125 898201   		.uleb128 0x4109
 2669 0128 01       		.byte	0x1
 2670 0129 11       		.uleb128 0x11
 2671 012a 01       		.uleb128 0x1
 2672 012b 31       		.uleb128 0x31
 2673 012c 13       		.uleb128 0x13
 2674 012d 00       		.byte	0
 2675 012e 00       		.byte	0
 2676 012f 1A       		.uleb128 0x1a
 2677 0130 2E       		.uleb128 0x2e
 2678 0131 01       		.byte	0x1
 2679 0132 03       		.uleb128 0x3
 2680 0133 0E       		.uleb128 0xe
 2681 0134 3A       		.uleb128 0x3a
 2682 0135 0B       		.uleb128 0xb
 2683 0136 3B       		.uleb128 0x3b
 2684 0137 0B       		.uleb128 0xb
 2685 0138 27       		.uleb128 0x27
 2686 0139 19       		.uleb128 0x19
 2687 013a 49       		.uleb128 0x49
 2688 013b 13       		.uleb128 0x13
 2689 013c 11       		.uleb128 0x11
 2690 013d 01       		.uleb128 0x1
 2691 013e 12       		.uleb128 0x12
 2692 013f 06       		.uleb128 0x6
 2693 0140 40       		.uleb128 0x40
 2694 0141 18       		.uleb128 0x18
 2695 0142 9742     		.uleb128 0x2117
 2696 0144 19       		.uleb128 0x19
 2697 0145 01       		.uleb128 0x1
 2698 0146 13       		.uleb128 0x13
 2699 0147 00       		.byte	0
 2700 0148 00       		.byte	0
 2701 0149 1B       		.uleb128 0x1b
 2702 014a 05       		.uleb128 0x5
 2703 014b 00       		.byte	0
 2704 014c 03       		.uleb128 0x3
 2705 014d 08       		.uleb128 0x8
 2706 014e 3A       		.uleb128 0x3a
 2707 014f 0B       		.uleb128 0xb
 2708 0150 3B       		.uleb128 0x3b
 2709 0151 0B       		.uleb128 0xb
 2710 0152 49       		.uleb128 0x49
 2711 0153 13       		.uleb128 0x13
 2712 0154 02       		.uleb128 0x2
 2713 0155 17       		.uleb128 0x17
 2714 0156 00       		.byte	0
 2715 0157 00       		.byte	0
 2716 0158 1C       		.uleb128 0x1c
 2717 0159 34       		.uleb128 0x34
 2718 015a 00       		.byte	0
 2719 015b 03       		.uleb128 0x3
 2720 015c 0E       		.uleb128 0xe
ARM GAS  /tmp/ccv3kRpi.s 			page 49


 2721 015d 3A       		.uleb128 0x3a
 2722 015e 0B       		.uleb128 0xb
 2723 015f 3B       		.uleb128 0x3b
 2724 0160 0B       		.uleb128 0xb
 2725 0161 49       		.uleb128 0x49
 2726 0162 13       		.uleb128 0x13
 2727 0163 02       		.uleb128 0x2
 2728 0164 17       		.uleb128 0x17
 2729 0165 00       		.byte	0
 2730 0166 00       		.byte	0
 2731 0167 1D       		.uleb128 0x1d
 2732 0168 34       		.uleb128 0x34
 2733 0169 00       		.byte	0
 2734 016a 03       		.uleb128 0x3
 2735 016b 08       		.uleb128 0x8
 2736 016c 3A       		.uleb128 0x3a
 2737 016d 0B       		.uleb128 0xb
 2738 016e 3B       		.uleb128 0x3b
 2739 016f 0B       		.uleb128 0xb
 2740 0170 49       		.uleb128 0x49
 2741 0171 13       		.uleb128 0x13
 2742 0172 02       		.uleb128 0x2
 2743 0173 17       		.uleb128 0x17
 2744 0174 00       		.byte	0
 2745 0175 00       		.byte	0
 2746 0176 1E       		.uleb128 0x1e
 2747 0177 2E       		.uleb128 0x2e
 2748 0178 01       		.byte	0x1
 2749 0179 31       		.uleb128 0x31
 2750 017a 13       		.uleb128 0x13
 2751 017b 11       		.uleb128 0x11
 2752 017c 01       		.uleb128 0x1
 2753 017d 12       		.uleb128 0x12
 2754 017e 06       		.uleb128 0x6
 2755 017f 40       		.uleb128 0x40
 2756 0180 18       		.uleb128 0x18
 2757 0181 9742     		.uleb128 0x2117
 2758 0183 19       		.uleb128 0x19
 2759 0184 01       		.uleb128 0x1
 2760 0185 13       		.uleb128 0x13
 2761 0186 00       		.byte	0
 2762 0187 00       		.byte	0
 2763 0188 1F       		.uleb128 0x1f
 2764 0189 34       		.uleb128 0x34
 2765 018a 00       		.byte	0
 2766 018b 31       		.uleb128 0x31
 2767 018c 13       		.uleb128 0x13
 2768 018d 02       		.uleb128 0x2
 2769 018e 17       		.uleb128 0x17
 2770 018f 00       		.byte	0
 2771 0190 00       		.byte	0
 2772 0191 20       		.uleb128 0x20
 2773 0192 0B       		.uleb128 0xb
 2774 0193 01       		.byte	0x1
 2775 0194 11       		.uleb128 0x11
 2776 0195 01       		.uleb128 0x1
 2777 0196 12       		.uleb128 0x12
ARM GAS  /tmp/ccv3kRpi.s 			page 50


 2778 0197 06       		.uleb128 0x6
 2779 0198 01       		.uleb128 0x1
 2780 0199 13       		.uleb128 0x13
 2781 019a 00       		.byte	0
 2782 019b 00       		.byte	0
 2783 019c 21       		.uleb128 0x21
 2784 019d 34       		.uleb128 0x34
 2785 019e 00       		.byte	0
 2786 019f 03       		.uleb128 0x3
 2787 01a0 0E       		.uleb128 0xe
 2788 01a1 3A       		.uleb128 0x3a
 2789 01a2 0B       		.uleb128 0xb
 2790 01a3 3B       		.uleb128 0x3b
 2791 01a4 0B       		.uleb128 0xb
 2792 01a5 49       		.uleb128 0x49
 2793 01a6 13       		.uleb128 0x13
 2794 01a7 3F       		.uleb128 0x3f
 2795 01a8 19       		.uleb128 0x19
 2796 01a9 3C       		.uleb128 0x3c
 2797 01aa 19       		.uleb128 0x19
 2798 01ab 00       		.byte	0
 2799 01ac 00       		.byte	0
 2800 01ad 22       		.uleb128 0x22
 2801 01ae 01       		.uleb128 0x1
 2802 01af 01       		.byte	0x1
 2803 01b0 49       		.uleb128 0x49
 2804 01b1 13       		.uleb128 0x13
 2805 01b2 01       		.uleb128 0x1
 2806 01b3 13       		.uleb128 0x13
 2807 01b4 00       		.byte	0
 2808 01b5 00       		.byte	0
 2809 01b6 23       		.uleb128 0x23
 2810 01b7 21       		.uleb128 0x21
 2811 01b8 00       		.byte	0
 2812 01b9 49       		.uleb128 0x49
 2813 01ba 13       		.uleb128 0x13
 2814 01bb 2F       		.uleb128 0x2f
 2815 01bc 0B       		.uleb128 0xb
 2816 01bd 00       		.byte	0
 2817 01be 00       		.byte	0
 2818 01bf 24       		.uleb128 0x24
 2819 01c0 21       		.uleb128 0x21
 2820 01c1 00       		.byte	0
 2821 01c2 00       		.byte	0
 2822 01c3 00       		.byte	0
 2823 01c4 25       		.uleb128 0x25
 2824 01c5 34       		.uleb128 0x34
 2825 01c6 00       		.byte	0
 2826 01c7 03       		.uleb128 0x3
 2827 01c8 08       		.uleb128 0x8
 2828 01c9 3A       		.uleb128 0x3a
 2829 01ca 0B       		.uleb128 0xb
 2830 01cb 3B       		.uleb128 0x3b
 2831 01cc 0B       		.uleb128 0xb
 2832 01cd 49       		.uleb128 0x49
 2833 01ce 13       		.uleb128 0x13
 2834 01cf 3F       		.uleb128 0x3f
ARM GAS  /tmp/ccv3kRpi.s 			page 51


 2835 01d0 19       		.uleb128 0x19
 2836 01d1 3C       		.uleb128 0x3c
 2837 01d2 19       		.uleb128 0x19
 2838 01d3 00       		.byte	0
 2839 01d4 00       		.byte	0
 2840 01d5 26       		.uleb128 0x26
 2841 01d6 34       		.uleb128 0x34
 2842 01d7 00       		.byte	0
 2843 01d8 03       		.uleb128 0x3
 2844 01d9 0E       		.uleb128 0xe
 2845 01da 3A       		.uleb128 0x3a
 2846 01db 0B       		.uleb128 0xb
 2847 01dc 3B       		.uleb128 0x3b
 2848 01dd 0B       		.uleb128 0xb
 2849 01de 49       		.uleb128 0x49
 2850 01df 13       		.uleb128 0x13
 2851 01e0 3F       		.uleb128 0x3f
 2852 01e1 19       		.uleb128 0x19
 2853 01e2 02       		.uleb128 0x2
 2854 01e3 18       		.uleb128 0x18
 2855 01e4 00       		.byte	0
 2856 01e5 00       		.byte	0
 2857 01e6 27       		.uleb128 0x27
 2858 01e7 2E       		.uleb128 0x2e
 2859 01e8 01       		.byte	0x1
 2860 01e9 3F       		.uleb128 0x3f
 2861 01ea 19       		.uleb128 0x19
 2862 01eb 03       		.uleb128 0x3
 2863 01ec 0E       		.uleb128 0xe
 2864 01ed 3A       		.uleb128 0x3a
 2865 01ee 0B       		.uleb128 0xb
 2866 01ef 3B       		.uleb128 0x3b
 2867 01f0 05       		.uleb128 0x5
 2868 01f1 27       		.uleb128 0x27
 2869 01f2 19       		.uleb128 0x19
 2870 01f3 49       		.uleb128 0x49
 2871 01f4 13       		.uleb128 0x13
 2872 01f5 3C       		.uleb128 0x3c
 2873 01f6 19       		.uleb128 0x19
 2874 01f7 01       		.uleb128 0x1
 2875 01f8 13       		.uleb128 0x13
 2876 01f9 00       		.byte	0
 2877 01fa 00       		.byte	0
 2878 01fb 28       		.uleb128 0x28
 2879 01fc 2E       		.uleb128 0x2e
 2880 01fd 00       		.byte	0
 2881 01fe 3F       		.uleb128 0x3f
 2882 01ff 19       		.uleb128 0x19
 2883 0200 03       		.uleb128 0x3
 2884 0201 0E       		.uleb128 0xe
 2885 0202 3A       		.uleb128 0x3a
 2886 0203 0B       		.uleb128 0xb
 2887 0204 3B       		.uleb128 0x3b
 2888 0205 0B       		.uleb128 0xb
 2889 0206 27       		.uleb128 0x27
 2890 0207 19       		.uleb128 0x19
 2891 0208 3C       		.uleb128 0x3c
ARM GAS  /tmp/ccv3kRpi.s 			page 52


 2892 0209 19       		.uleb128 0x19
 2893 020a 00       		.byte	0
 2894 020b 00       		.byte	0
 2895 020c 29       		.uleb128 0x29
 2896 020d 2E       		.uleb128 0x2e
 2897 020e 01       		.byte	0x1
 2898 020f 3F       		.uleb128 0x3f
 2899 0210 19       		.uleb128 0x19
 2900 0211 03       		.uleb128 0x3
 2901 0212 0E       		.uleb128 0xe
 2902 0213 3A       		.uleb128 0x3a
 2903 0214 0B       		.uleb128 0xb
 2904 0215 3B       		.uleb128 0x3b
 2905 0216 0B       		.uleb128 0xb
 2906 0217 27       		.uleb128 0x27
 2907 0218 19       		.uleb128 0x19
 2908 0219 49       		.uleb128 0x49
 2909 021a 13       		.uleb128 0x13
 2910 021b 3C       		.uleb128 0x3c
 2911 021c 19       		.uleb128 0x19
 2912 021d 01       		.uleb128 0x1
 2913 021e 13       		.uleb128 0x13
 2914 021f 00       		.byte	0
 2915 0220 00       		.byte	0
 2916 0221 2A       		.uleb128 0x2a
 2917 0222 2E       		.uleb128 0x2e
 2918 0223 01       		.byte	0x1
 2919 0224 3F       		.uleb128 0x3f
 2920 0225 19       		.uleb128 0x19
 2921 0226 03       		.uleb128 0x3
 2922 0227 0E       		.uleb128 0xe
 2923 0228 3A       		.uleb128 0x3a
 2924 0229 0B       		.uleb128 0xb
 2925 022a 3B       		.uleb128 0x3b
 2926 022b 0B       		.uleb128 0xb
 2927 022c 27       		.uleb128 0x27
 2928 022d 19       		.uleb128 0x19
 2929 022e 3C       		.uleb128 0x3c
 2930 022f 19       		.uleb128 0x19
 2931 0230 01       		.uleb128 0x1
 2932 0231 13       		.uleb128 0x13
 2933 0232 00       		.byte	0
 2934 0233 00       		.byte	0
 2935 0234 2B       		.uleb128 0x2b
 2936 0235 2E       		.uleb128 0x2e
 2937 0236 01       		.byte	0x1
 2938 0237 3F       		.uleb128 0x3f
 2939 0238 19       		.uleb128 0x19
 2940 0239 03       		.uleb128 0x3
 2941 023a 0E       		.uleb128 0xe
 2942 023b 3A       		.uleb128 0x3a
 2943 023c 0B       		.uleb128 0xb
 2944 023d 3B       		.uleb128 0x3b
 2945 023e 05       		.uleb128 0x5
 2946 023f 27       		.uleb128 0x27
 2947 0240 19       		.uleb128 0x19
 2948 0241 3C       		.uleb128 0x3c
ARM GAS  /tmp/ccv3kRpi.s 			page 53


 2949 0242 19       		.uleb128 0x19
 2950 0243 01       		.uleb128 0x1
 2951 0244 13       		.uleb128 0x13
 2952 0245 00       		.byte	0
 2953 0246 00       		.byte	0
 2954 0247 2C       		.uleb128 0x2c
 2955 0248 2E       		.uleb128 0x2e
 2956 0249 00       		.byte	0
 2957 024a 3F       		.uleb128 0x3f
 2958 024b 19       		.uleb128 0x19
 2959 024c 03       		.uleb128 0x3
 2960 024d 0E       		.uleb128 0xe
 2961 024e 3A       		.uleb128 0x3a
 2962 024f 0B       		.uleb128 0xb
 2963 0250 3B       		.uleb128 0x3b
 2964 0251 0B       		.uleb128 0xb
 2965 0252 27       		.uleb128 0x27
 2966 0253 19       		.uleb128 0x19
 2967 0254 49       		.uleb128 0x49
 2968 0255 13       		.uleb128 0x13
 2969 0256 3C       		.uleb128 0x3c
 2970 0257 19       		.uleb128 0x19
 2971 0258 00       		.byte	0
 2972 0259 00       		.byte	0
 2973 025a 00       		.byte	0
 2974              		.section	.debug_loc,"",%progbits
 2975              	.Ldebug_loc0:
 2976              	.LLST0:
 2977 0000 00000000 		.4byte	.LVL7
 2978 0004 04000000 		.4byte	.LVL8
 2979 0008 0100     		.2byte	0x1
 2980 000a 50       		.byte	0x50
 2981 000b 04000000 		.4byte	.LVL8
 2982 000f 0C000000 		.4byte	.LFE7
 2983 0013 0400     		.2byte	0x4
 2984 0015 F3       		.byte	0xf3
 2985 0016 01       		.uleb128 0x1
 2986 0017 50       		.byte	0x50
 2987 0018 9F       		.byte	0x9f
 2988 0019 00000000 		.4byte	0
 2989 001d 00000000 		.4byte	0
 2990              	.LLST1:
 2991 0021 08000000 		.4byte	.LVL18
 2992 0025 24000000 		.4byte	.LVL24
 2993 0029 0100     		.2byte	0x1
 2994 002b 54       		.byte	0x54
 2995 002c 26000000 		.4byte	.LVL25
 2996 0030 30010000 		.4byte	.LFE10
 2997 0034 0100     		.2byte	0x1
 2998 0036 54       		.byte	0x54
 2999 0037 00000000 		.4byte	0
 3000 003b 00000000 		.4byte	0
 3001              	.LLST2:
 3002 003f 18000000 		.4byte	.LVL20
 3003 0043 1C000000 		.4byte	.LVL21
 3004 0047 0100     		.2byte	0x1
 3005 0049 50       		.byte	0x50
ARM GAS  /tmp/ccv3kRpi.s 			page 54


 3006 004a 1C000000 		.4byte	.LVL21
 3007 004e 24000000 		.4byte	.LVL23
 3008 0052 0100     		.2byte	0x1
 3009 0054 57       		.byte	0x57
 3010 0055 26000000 		.4byte	.LVL25
 3011 0059 42000000 		.4byte	.LVL27
 3012 005d 0100     		.2byte	0x1
 3013 005f 57       		.byte	0x57
 3014 0060 42000000 		.4byte	.LVL27
 3015 0064 4C000000 		.4byte	.LVL28
 3016 0068 0100     		.2byte	0x1
 3017 006a 50       		.byte	0x50
 3018 006b 96000000 		.4byte	.LVL32
 3019 006f A0000000 		.4byte	.LVL33
 3020 0073 0100     		.2byte	0x1
 3021 0075 50       		.byte	0x50
 3022 0076 DC000000 		.4byte	.LVL37
 3023 007a E6000000 		.4byte	.LVL38
 3024 007e 0100     		.2byte	0x1
 3025 0080 50       		.byte	0x50
 3026 0081 00000000 		.4byte	0
 3027 0085 00000000 		.4byte	0
 3028              	.LLST3:
 3029 0089 0C000000 		.4byte	.LVL43
 3030 008d 22000000 		.4byte	.LVL46
 3031 0091 0100     		.2byte	0x1
 3032 0093 54       		.byte	0x54
 3033 0094 24000000 		.4byte	.LVL47
 3034 0098 44000000 		.4byte	.LVL51
 3035 009c 0100     		.2byte	0x1
 3036 009e 54       		.byte	0x54
 3037 009f 00000000 		.4byte	0
 3038 00a3 00000000 		.4byte	0
 3039              	.LLST4:
 3040 00a7 44000000 		.4byte	.LVL51
 3041 00ab 60000000 		.4byte	.LVL54
 3042 00af 0100     		.2byte	0x1
 3043 00b1 54       		.byte	0x54
 3044 00b2 62000000 		.4byte	.LVL55
 3045 00b6 80000000 		.4byte	.LFE11
 3046 00ba 0100     		.2byte	0x1
 3047 00bc 54       		.byte	0x54
 3048 00bd 00000000 		.4byte	0
 3049 00c1 00000000 		.4byte	0
 3050              		.section	.debug_aranges,"",%progbits
 3051 0000 3C000000 		.4byte	0x3c
 3052 0004 0200     		.2byte	0x2
 3053 0006 00000000 		.4byte	.Ldebug_info0
 3054 000a 04       		.byte	0x4
 3055 000b 00       		.byte	0
 3056 000c 0000     		.2byte	0
 3057 000e 0000     		.2byte	0
 3058 0010 00000000 		.4byte	.LFB8
 3059 0014 CC000000 		.4byte	.LFE8-.LFB8
 3060 0018 00000000 		.4byte	.LFB7
 3061 001c 0C000000 		.4byte	.LFE7-.LFB7
 3062 0020 00000000 		.4byte	.LFB9
ARM GAS  /tmp/ccv3kRpi.s 			page 55


 3063 0024 DC000000 		.4byte	.LFE9-.LFB9
 3064 0028 00000000 		.4byte	.LFB10
 3065 002c 30010000 		.4byte	.LFE10-.LFB10
 3066 0030 00000000 		.4byte	.LFB11
 3067 0034 80000000 		.4byte	.LFE11-.LFB11
 3068 0038 00000000 		.4byte	0
 3069 003c 00000000 		.4byte	0
 3070              		.section	.debug_ranges,"",%progbits
 3071              	.Ldebug_ranges0:
 3072 0000 00000000 		.4byte	.LFB8
 3073 0004 CC000000 		.4byte	.LFE8
 3074 0008 00000000 		.4byte	.LFB7
 3075 000c 0C000000 		.4byte	.LFE7
 3076 0010 00000000 		.4byte	.LFB9
 3077 0014 DC000000 		.4byte	.LFE9
 3078 0018 00000000 		.4byte	.LFB10
 3079 001c 30010000 		.4byte	.LFE10
 3080 0020 00000000 		.4byte	.LFB11
 3081 0024 80000000 		.4byte	.LFE11
 3082 0028 00000000 		.4byte	0
 3083 002c 00000000 		.4byte	0
 3084              		.section	.debug_line,"",%progbits
 3085              	.Ldebug_line0:
 3086 0000 07020000 		.section	.debug_str,"MS",%progbits,1
 3086      02005401 
 3086      00000201 
 3086      FB0E0D00 
 3086      01010101 
 3087              	.LASF77:
 3088 0000 7466756E 		.ascii	"tfunc_t\000"
 3088      635F7400 
 3089              	.LASF41:
 3090 0008 705F6D73 		.ascii	"p_msg\000"
 3090      6700
 3091              	.LASF2:
 3092 000e 73697A65 		.ascii	"size_t\000"
 3092      5F7400
 3093              	.LASF86:
 3094 0015 7072696F 		.ascii	"prio\000"
 3094      00
 3095              	.LASF72:
 3096 001a 7264796D 		.ascii	"rdymsg\000"
 3096      736700
 3097              	.LASF3:
 3098 0021 5F5F7569 		.ascii	"__uint8_t\000"
 3098      6E74385F 
 3098      7400
 3099              	.LASF87:
 3100 002b 76746C69 		.ascii	"vtlist\000"
 3100      737400
 3101              	.LASF12:
 3102 0032 6C6F6E67 		.ascii	"long long unsigned int\000"
 3102      206C6F6E 
 3102      6720756E 
 3102      7369676E 
 3102      65642069 
 3103              	.LASF73:
ARM GAS  /tmp/ccv3kRpi.s 			page 56


 3104 0049 65786974 		.ascii	"exitcode\000"
 3104      636F6465 
 3104      00
 3105              	.LASF29:
 3106 0052 705F7072 		.ascii	"p_prio\000"
 3106      696F00
 3107              	.LASF11:
 3108 0059 6C6F6E67 		.ascii	"long long int\000"
 3108      206C6F6E 
 3108      6720696E 
 3108      7400
 3109              	.LASF1:
 3110 0067 7369676E 		.ascii	"signed char\000"
 3110      65642063 
 3110      68617200 
 3111              	.LASF45:
 3112 0073 705F6D70 		.ascii	"p_mpool\000"
 3112      6F6F6C00 
 3113              	.LASF16:
 3114 007b 626F6F6C 		.ascii	"bool_t\000"
 3114      5F7400
 3115              	.LASF69:
 3116 0082 6D5F7175 		.ascii	"m_queue\000"
 3116      65756500 
 3117              	.LASF101:
 3118 008a 74657374 		.ascii	"test_emit_token\000"
 3118      5F656D69 
 3118      745F746F 
 3118      6B656E00 
 3119              	.LASF21:
 3120 009a 74736C69 		.ascii	"tslices_t\000"
 3120      6365735F 
 3120      7400
 3121              	.LASF97:
 3122 00a4 63685468 		.ascii	"chThdCreateI\000"
 3122      64437265 
 3122      61746549 
 3122      00
 3123              	.LASF8:
 3124 00b1 6C6F6E67 		.ascii	"long int\000"
 3124      20696E74 
 3124      00
 3125              	.LASF19:
 3126 00ba 74737461 		.ascii	"tstate_t\000"
 3126      74655F74 
 3126      00
 3127              	.LASF103:
 3128 00c3 5F746573 		.ascii	"_test_assert_time_window\000"
 3128      745F6173 
 3128      73657274 
 3128      5F74696D 
 3128      655F7769 
 3129              	.LASF31:
 3130 00dc 705F6E65 		.ascii	"p_newer\000"
 3130      77657200 
 3131              	.LASF99:
 3132 00e4 63685468 		.ascii	"chThdSetPriority\000"
ARM GAS  /tmp/ccv3kRpi.s 			page 57


 3132      64536574 
 3132      5072696F 
 3132      72697479 
 3132      00
 3133              	.LASF105:
 3134 00f5 474E5520 		.ascii	"GNU C 4.8.2 -mcpu=cortex-m0 -mno-thumb-interwork -m"
 3134      4320342E 
 3134      382E3220 
 3134      2D6D6370 
 3134      753D636F 
 3135 0128 7468756D 		.ascii	"thumb -ggdb -O2 -fomit-frame-pointer -falign-functi"
 3135      62202D67 
 3135      67646220 
 3135      2D4F3220 
 3135      2D666F6D 
 3136 015b 6F6E733D 		.ascii	"ons=16 -ffunction-sections -fdata-sections -fno-com"
 3136      3136202D 
 3136      6666756E 
 3136      6374696F 
 3136      6E2D7365 
 3137 018e 6D6F6E00 		.ascii	"mon\000"
 3138              	.LASF9:
 3139 0192 5F5F7569 		.ascii	"__uint32_t\000"
 3139      6E743332 
 3139      5F7400
 3140              	.LASF48:
 3141 019d 72656761 		.ascii	"regarm_t\000"
 3141      726D5F74 
 3141      00
 3142              	.LASF55:
 3143 01a6 76745F70 		.ascii	"vt_prev\000"
 3143      72657600 
 3144              	.LASF96:
 3145 01ae 5F746573 		.ascii	"_test_assert_sequence\000"
 3145      745F6173 
 3145      73657274 
 3145      5F736571 
 3145      75656E63 
 3146              	.LASF83:
 3147 01c4 74686431 		.ascii	"thd1_execute\000"
 3147      5F657865 
 3147      63757465 
 3147      00
 3148              	.LASF0:
 3149 01d1 756E7369 		.ascii	"unsigned int\000"
 3149      676E6564 
 3149      20696E74 
 3149      00
 3150              	.LASF54:
 3151 01de 76745F6E 		.ascii	"vt_next\000"
 3151      65787400 
 3152              	.LASF10:
 3153 01e6 6C6F6E67 		.ascii	"long unsigned int\000"
 3153      20756E73 
 3153      69676E65 
 3153      6420696E 
 3153      7400
ARM GAS  /tmp/ccv3kRpi.s 			page 58


 3154              	.LASF81:
 3155 01f8 74656172 		.ascii	"teardown\000"
 3155      646F776E 
 3155      00
 3156              	.LASF52:
 3157 0201 76746675 		.ascii	"vtfunc_t\000"
 3157      6E635F74 
 3157      00
 3158              	.LASF79:
 3159 020a 6E616D65 		.ascii	"name\000"
 3159      00
 3160              	.LASF50:
 3161 020f 636F6E74 		.ascii	"context\000"
 3161      65787400 
 3162              	.LASF6:
 3163 0217 73686F72 		.ascii	"short unsigned int\000"
 3163      7420756E 
 3163      7369676E 
 3163      65642069 
 3163      6E7400
 3164              	.LASF23:
 3165 022a 6D73675F 		.ascii	"msg_t\000"
 3165      7400
 3166              	.LASF64:
 3167 0230 725F6E65 		.ascii	"r_newer\000"
 3167      77657200 
 3168              	.LASF18:
 3169 0238 746D6F64 		.ascii	"tmode_t\000"
 3169      655F7400 
 3170              	.LASF47:
 3171 0240 54687265 		.ascii	"ThreadsList\000"
 3171      6164734C 
 3171      69737400 
 3172              	.LASF24:
 3173 024c 6576656E 		.ascii	"eventmask_t\000"
 3173      746D6173 
 3173      6B5F7400 
 3174              	.LASF68:
 3175 0258 4D757465 		.ascii	"Mutex\000"
 3175      7800
 3176              	.LASF84:
 3177 025e 74686432 		.ascii	"thd2_execute\000"
 3177      5F657865 
 3177      63757465 
 3177      00
 3178              	.LASF95:
 3179 026b 63685468 		.ascii	"chThdCreateStatic\000"
 3179      64437265 
 3179      61746553 
 3179      74617469 
 3179      6300
 3180              	.LASF56:
 3181 027d 76745F74 		.ascii	"vt_time\000"
 3181      696D6500 
 3182              	.LASF51:
 3183 0285 73697A65 		.ascii	"sizetype\000"
 3183      74797065 
ARM GAS  /tmp/ccv3kRpi.s 			page 59


 3183      00
 3184              	.LASF90:
 3185 028e 74657374 		.ascii	"testthd1\000"
 3185      74686431 
 3185      00
 3186              	.LASF91:
 3187 0297 74657374 		.ascii	"testthd2\000"
 3187      74686432 
 3187      00
 3188              	.LASF92:
 3189 02a0 74657374 		.ascii	"testthd3\000"
 3189      74686433 
 3189      00
 3190              	.LASF93:
 3191 02a9 74657374 		.ascii	"testthd4\000"
 3191      74686434 
 3191      00
 3192              	.LASF57:
 3193 02b2 76745F66 		.ascii	"vt_func\000"
 3193      756E6300 
 3194              	.LASF98:
 3195 02ba 63685468 		.ascii	"chThdResume\000"
 3195      64526573 
 3195      756D6500 
 3196              	.LASF111:
 3197 02c6 74657374 		.ascii	"test_wait_threads\000"
 3197      5F776169 
 3197      745F7468 
 3197      72656164 
 3197      7300
 3198              	.LASF32:
 3199 02d8 705F6F6C 		.ascii	"p_older\000"
 3199      64657200 
 3200              	.LASF63:
 3201 02e0 725F6374 		.ascii	"r_ctx\000"
 3201      7800
 3202              	.LASF46:
 3203 02e6 54687265 		.ascii	"ThreadsQueue\000"
 3203      61647351 
 3203      75657565 
 3203      00
 3204              	.LASF80:
 3205 02f3 73657475 		.ascii	"setup\000"
 3205      7000
 3206              	.LASF107:
 3207 02f9 2F686F6D 		.ascii	"/home/ece497/vbox-shared/mplayer/ChibiOS-RT-stable_"
 3207      652F6563 
 3207      65343937 
 3207      2F76626F 
 3207      782D7368 
 3208 032c 322E362E 		.ascii	"2.6.x/demos/ARMCM0-STM32F051-DISCOVERY\000"
 3208      782F6465 
 3208      6D6F732F 
 3208      41524D43 
 3208      4D302D53 
 3209              	.LASF109:
 3210 0353 74696D65 		.ascii	"time\000"
ARM GAS  /tmp/ccv3kRpi.s 			page 60


 3210      00
 3211              	.LASF66:
 3212 0358 725F6375 		.ascii	"r_current\000"
 3212      7272656E 
 3212      7400
 3213              	.LASF65:
 3214 0362 725F6F6C 		.ascii	"r_older\000"
 3214      64657200 
 3215              	.LASF104:
 3216 036a 63685468 		.ascii	"chThdSleepUntil\000"
 3216      64536C65 
 3216      6570556E 
 3216      74696C00 
 3217              	.LASF106:
 3218 037a 2E2E2F2E 		.ascii	"../../test/testthd.c\000"
 3218      2E2F7465 
 3218      73742F74 
 3218      65737474 
 3218      68642E63 
 3219              	.LASF20:
 3220 038f 74726566 		.ascii	"trefs_t\000"
 3220      735F7400 
 3221              	.LASF85:
 3222 0397 74686433 		.ascii	"thd3_execute\000"
 3222      5F657865 
 3222      63757465 
 3222      00
 3223              	.LASF28:
 3224 03a4 705F7072 		.ascii	"p_prev\000"
 3224      657600
 3225              	.LASF82:
 3226 03ab 65786563 		.ascii	"execute\000"
 3226      75746500 
 3227              	.LASF22:
 3228 03b3 74707269 		.ascii	"tprio_t\000"
 3228      6F5F7400 
 3229              	.LASF110:
 3230 03bb 74687265 		.ascii	"thread\000"
 3230      616400
 3231              	.LASF17:
 3232 03c2 5F426F6F 		.ascii	"_Bool\000"
 3232      6C00
 3233              	.LASF14:
 3234 03c8 696E7433 		.ascii	"int32_t\000"
 3234      325F7400 
 3235              	.LASF4:
 3236 03d0 756E7369 		.ascii	"unsigned char\000"
 3236      676E6564 
 3236      20636861 
 3236      7200
 3237              	.LASF112:
 3238 03de 74657374 		.ascii	"test_wait_tick\000"
 3238      5F776169 
 3238      745F7469 
 3238      636B00
 3239              	.LASF43:
 3240 03ed 705F6D74 		.ascii	"p_mtxlist\000"
ARM GAS  /tmp/ccv3kRpi.s 			page 61


 3240      786C6973 
 3240      7400
 3241              	.LASF5:
 3242 03f7 73686F72 		.ascii	"short int\000"
 3242      7420696E 
 3242      7400
 3243              	.LASF34:
 3244 0401 705F7374 		.ascii	"p_state\000"
 3244      61746500 
 3245              	.LASF37:
 3246 0409 705F7072 		.ascii	"p_preempt\000"
 3246      65656D70 
 3246      7400
 3247              	.LASF89:
 3248 0413 74687265 		.ascii	"threads\000"
 3248      61647300 
 3249              	.LASF62:
 3250 041b 725F7072 		.ascii	"r_prio\000"
 3250      696F00
 3251              	.LASF75:
 3252 0422 65776D61 		.ascii	"ewmask\000"
 3252      736B00
 3253              	.LASF27:
 3254 0429 705F6E65 		.ascii	"p_next\000"
 3254      787400
 3255              	.LASF35:
 3256 0430 705F666C 		.ascii	"p_flags\000"
 3256      61677300 
 3257              	.LASF26:
 3258 0438 54687265 		.ascii	"Thread\000"
 3258      616400
 3259              	.LASF78:
 3260 043f 74657374 		.ascii	"testcase\000"
 3260      63617365 
 3260      00
 3261              	.LASF42:
 3262 0448 705F6570 		.ascii	"p_epending\000"
 3262      656E6469 
 3262      6E6700
 3263              	.LASF15:
 3264 0453 75696E74 		.ascii	"uint32_t\000"
 3264      33325F74 
 3264      00
 3265              	.LASF61:
 3266 045c 725F7175 		.ascii	"r_queue\000"
 3266      65756500 
 3267              	.LASF53:
 3268 0464 56697274 		.ascii	"VirtualTimer\000"
 3268      75616C54 
 3268      696D6572 
 3268      00
 3269              	.LASF76:
 3270 0471 63686172 		.ascii	"char\000"
 3270      00
 3271              	.LASF108:
 3272 0476 74686434 		.ascii	"thd4_execute\000"
 3272      5F657865 
ARM GAS  /tmp/ccv3kRpi.s 			page 62


 3272      63757465 
 3272      00
 3273              	.LASF94:
 3274 0483 70617474 		.ascii	"patternthd\000"
 3274      65726E74 
 3274      686400
 3275              	.LASF71:
 3276 048e 6D5F6E65 		.ascii	"m_next\000"
 3276      787400
 3277              	.LASF25:
 3278 0495 73797374 		.ascii	"systime_t\000"
 3278      696D655F 
 3278      7400
 3279              	.LASF44:
 3280 049f 705F7265 		.ascii	"p_realprio\000"
 3280      616C7072 
 3280      696F00
 3281              	.LASF7:
 3282 04aa 5F5F696E 		.ascii	"__int32_t\000"
 3282      7433325F 
 3282      7400
 3283              	.LASF38:
 3284 04b4 705F7469 		.ascii	"p_time\000"
 3284      6D6500
 3285              	.LASF49:
 3286 04bb 696E7463 		.ascii	"intctx\000"
 3286      747800
 3287              	.LASF40:
 3288 04c2 705F6D73 		.ascii	"p_msgqueue\000"
 3288      67717565 
 3288      756500
 3289              	.LASF58:
 3290 04cd 76745F70 		.ascii	"vt_par\000"
 3290      617200
 3291              	.LASF102:
 3292 04d4 63685468 		.ascii	"chThdSleep\000"
 3292      64536C65 
 3292      657000
 3293              	.LASF36:
 3294 04df 705F7265 		.ascii	"p_refs\000"
 3294      667300
 3295              	.LASF67:
 3296 04e6 52656164 		.ascii	"ReadyList\000"
 3296      794C6973 
 3296      7400
 3297              	.LASF88:
 3298 04f0 726C6973 		.ascii	"rlist\000"
 3298      7400
 3299              	.LASF13:
 3300 04f6 75696E74 		.ascii	"uint8_t\000"
 3300      385F7400 
 3301              	.LASF74:
 3302 04fe 77746F62 		.ascii	"wtobjp\000"
 3302      6A7000
 3303              	.LASF33:
 3304 0505 705F6E61 		.ascii	"p_name\000"
 3304      6D6500
ARM GAS  /tmp/ccv3kRpi.s 			page 63


 3305              	.LASF100:
 3306 050c 5F746573 		.ascii	"_test_assert\000"
 3306      745F6173 
 3306      73657274 
 3306      00
 3307              	.LASF59:
 3308 0519 76745F73 		.ascii	"vt_systime\000"
 3308      79737469 
 3308      6D6500
 3309              	.LASF60:
 3310 0524 56544C69 		.ascii	"VTList\000"
 3310      737400
 3311              	.LASF70:
 3312 052b 6D5F6F77 		.ascii	"m_owner\000"
 3312      6E657200 
 3313              	.LASF30:
 3314 0533 705F6374 		.ascii	"p_ctx\000"
 3314      7800
 3315              	.LASF39:
 3316 0539 705F7761 		.ascii	"p_waiting\000"
 3316      6974696E 
 3316      6700
 3317              		.ident	"GCC: (Arch Repository) 4.8.2"
ARM GAS  /tmp/ccv3kRpi.s 			page 64


DEFINED SYMBOLS
                            *ABS*:0000000000000000 testthd.c
     /tmp/ccv3kRpi.s:18     .text.thd1_execute:0000000000000000 $t
     /tmp/ccv3kRpi.s:23     .text.thd1_execute:0000000000000000 thd1_execute
     /tmp/ccv3kRpi.s:142    .text.thd1_execute:00000000000000a4 $d
     /tmp/ccv3kRpi.s:161    .text.thread:0000000000000000 thread
     /tmp/ccv3kRpi.s:156    .text.thread:0000000000000000 $t
     /tmp/ccv3kRpi.s:183    .text.thd2_execute:0000000000000000 $t
     /tmp/ccv3kRpi.s:188    .text.thd2_execute:0000000000000000 thd2_execute
     /tmp/ccv3kRpi.s:322    .text.thd2_execute:00000000000000b4 $d
     /tmp/ccv3kRpi.s:336    .text.thd3_execute:0000000000000000 $t
     /tmp/ccv3kRpi.s:341    .text.thd3_execute:0000000000000000 thd3_execute
     /tmp/ccv3kRpi.s:556    .text.thd3_execute:000000000000012c $d
     /tmp/ccv3kRpi.s:561    .text.thd4_execute:0000000000000000 $t
     /tmp/ccv3kRpi.s:566    .text.thd4_execute:0000000000000000 thd4_execute
     /tmp/ccv3kRpi.s:666    .text.thd4_execute:0000000000000078 $d
     /tmp/ccv3kRpi.s:718    .rodata.patternthd:0000000000000000 patternthd
     /tmp/ccv3kRpi.s:709    .rodata.testthd4:0000000000000000 testthd4
     /tmp/ccv3kRpi.s:700    .rodata.testthd3:0000000000000000 testthd3
     /tmp/ccv3kRpi.s:691    .rodata.testthd2:0000000000000000 testthd2
     /tmp/ccv3kRpi.s:682    .rodata.testthd1:0000000000000000 testthd1
     /tmp/ccv3kRpi.s:679    .rodata.testthd1:0000000000000000 $d
     /tmp/ccv3kRpi.s:688    .rodata.testthd2:0000000000000000 $d
     /tmp/ccv3kRpi.s:697    .rodata.testthd3:0000000000000000 $d
     /tmp/ccv3kRpi.s:706    .rodata.testthd4:0000000000000000 $d
     /tmp/ccv3kRpi.s:715    .rodata.patternthd:0000000000000000 $d
     /tmp/ccv3kRpi.s:725    .rodata.str1.4:0000000000000000 $d
                     .debug_frame:0000000000000010 $d
     /tmp/ccv3kRpi.s:155    .text.thd1_execute:00000000000000cc $t
     /tmp/ccv3kRpi.s:335    .text.thd2_execute:00000000000000dc $t

UNDEFINED SYMBOLS
chThdCreateStatic
test_wait_threads
_test_assert_sequence
rlist
wa
threads
test_emit_token
chThdCreateI
chThdResume
chThdSetPriority
_test_assert
test_wait_tick
chThdSleep
_test_assert_time_window
chThdSleepUntil
vtlist
