ARM GAS  /tmp/ccrU0Ftr.s 			page 1


   1              		.cpu cortex-m0
   2              		.fpu softvfp
   3              		.eabi_attribute 20, 1
   4              		.eabi_attribute 21, 1
   5              		.eabi_attribute 23, 3
   6              		.eabi_attribute 24, 1
   7              		.eabi_attribute 25, 1
   8              		.eabi_attribute 26, 1
   9              		.eabi_attribute 30, 2
  10              		.eabi_attribute 34, 0
  11              		.eabi_attribute 18, 4
  12              		.code	16
  13              		.file	"testsem.c"
  14              		.text
  15              	.Ltext0:
  16              		.cfi_sections	.debug_frame
  17              		.section	.text.sem1_execute,"ax",%progbits
  18              		.align	2
  19              		.p2align 4,,15
  20              		.code	16
  21              		.thumb_func
  22              		.type	sem1_execute, %function
  23              	sem1_execute:
  24              	.LFB9:
  25              		.file 1 "../../test/testsem.c"
  26              		.loc 1 84 0
  27              		.cfi_startproc
  28 0000 F0B5     		push	{r4, r5, r6, r7, lr}
  29              		.cfi_def_cfa_offset 20
  30              		.cfi_offset 4, -20
  31              		.cfi_offset 5, -16
  32              		.cfi_offset 6, -12
  33              		.cfi_offset 7, -8
  34              		.cfi_offset 14, -4
  35 0002 4746     		mov	r7, r8
  36 0004 80B4     		push	{r7}
  37              		.cfi_def_cfa_offset 24
  38              		.cfi_offset 8, -24
  39              		.loc 1 86 0
  40 0006 434C     		ldr	r4, .L4
  41 0008 434F     		ldr	r7, .L4+4
  42 000a 2368     		ldr	r3, [r4]
  43              		.loc 1 84 0
  44 000c 84B0     		sub	sp, sp, #16
  45              		.cfi_def_cfa_offset 40
  46              		.loc 1 86 0
  47 000e 0393     		str	r3, [sp, #12]
  48 0010 BB69     		ldr	r3, [r7, #24]
  49 0012 424E     		ldr	r6, .L4+8
  50 0014 9A68     		ldr	r2, [r3, #8]
  51 0016 424B     		ldr	r3, .L4+12
  52 0018 9821     		mov	r1, #152
  53 001a 0532     		add	r2, r2, #5
  54 001c 0093     		str	r3, [sp]
  55 001e 4900     		lsl	r1, r1, #1
  56 0020 9846     		mov	r8, r3
  57 0022 0398     		ldr	r0, [sp, #12]
ARM GAS  /tmp/ccrU0Ftr.s 			page 2


  58 0024 331C     		mov	r3, r6
  59 0026 FFF7FEFF 		bl	chThdCreateStatic
  60              	.LVL0:
  61              		.loc 1 87 0
  62 002a 6368     		ldr	r3, [r4, #4]
  63              		.loc 1 86 0
  64 002c 3D4D     		ldr	r5, .L4+16
  65              		.loc 1 87 0
  66 002e 0293     		str	r3, [sp, #8]
  67 0030 BB69     		ldr	r3, [r7, #24]
  68 0032 9821     		mov	r1, #152
  69 0034 9A68     		ldr	r2, [r3, #8]
  70 0036 3C4B     		ldr	r3, .L4+20
  71              		.loc 1 86 0
  72 0038 2860     		str	r0, [r5]
  73              		.loc 1 87 0
  74 003a 0132     		add	r2, r2, #1
  75 003c 0093     		str	r3, [sp]
  76 003e 4900     		lsl	r1, r1, #1
  77 0040 331C     		mov	r3, r6
  78 0042 0298     		ldr	r0, [sp, #8]
  79 0044 FFF7FEFF 		bl	chThdCreateStatic
  80              	.LVL1:
  81              		.loc 1 88 0
  82 0048 A368     		ldr	r3, [r4, #8]
  83 004a 9821     		mov	r1, #152
  84 004c 0293     		str	r3, [sp, #8]
  85 004e BB69     		ldr	r3, [r7, #24]
  86              		.loc 1 87 0
  87 0050 6860     		str	r0, [r5, #4]
  88              		.loc 1 88 0
  89 0052 9A68     		ldr	r2, [r3, #8]
  90 0054 354B     		ldr	r3, .L4+24
  91 0056 0332     		add	r2, r2, #3
  92 0058 0093     		str	r3, [sp]
  93 005a 4900     		lsl	r1, r1, #1
  94 005c 331C     		mov	r3, r6
  95 005e 0298     		ldr	r0, [sp, #8]
  96 0060 FFF7FEFF 		bl	chThdCreateStatic
  97              	.LVL2:
  98              		.loc 1 89 0
  99 0064 E368     		ldr	r3, [r4, #12]
 100 0066 9821     		mov	r1, #152
 101 0068 0293     		str	r3, [sp, #8]
 102 006a BB69     		ldr	r3, [r7, #24]
 103              		.loc 1 88 0
 104 006c A860     		str	r0, [r5, #8]
 105              		.loc 1 89 0
 106 006e 9A68     		ldr	r2, [r3, #8]
 107 0070 2F4B     		ldr	r3, .L4+28
 108 0072 0432     		add	r2, r2, #4
 109 0074 0093     		str	r3, [sp]
 110 0076 4900     		lsl	r1, r1, #1
 111 0078 331C     		mov	r3, r6
 112 007a 0298     		ldr	r0, [sp, #8]
 113 007c FFF7FEFF 		bl	chThdCreateStatic
 114              	.LVL3:
ARM GAS  /tmp/ccrU0Ftr.s 			page 3


 115              		.loc 1 90 0
 116 0080 BB69     		ldr	r3, [r7, #24]
 117 0082 2469     		ldr	r4, [r4, #16]
 118 0084 9A68     		ldr	r2, [r3, #8]
 119 0086 2B4B     		ldr	r3, .L4+32
 120 0088 9821     		mov	r1, #152
 121 008a 4900     		lsl	r1, r1, #1
 122 008c 0232     		add	r2, r2, #2
 123              		.loc 1 89 0
 124 008e E860     		str	r0, [r5, #12]
 125              		.loc 1 90 0
 126 0090 0093     		str	r3, [sp]
 127 0092 201C     		mov	r0, r4
 128 0094 331C     		mov	r3, r6
 129 0096 0294     		str	r4, [sp, #8]
 130 0098 FFF7FEFF 		bl	chThdCreateStatic
 131              	.LVL4:
 132              		.loc 1 91 0
 133 009c 264C     		ldr	r4, .L4+36
 134              		.loc 1 90 0
 135 009e 2861     		str	r0, [r5, #16]
 136              		.loc 1 91 0
 137 00a0 201C     		mov	r0, r4
 138 00a2 FFF7FEFF 		bl	chSemSignal
 139              	.LVL5:
 140              		.loc 1 92 0
 141 00a6 201C     		mov	r0, r4
 142 00a8 FFF7FEFF 		bl	chSemSignal
 143              	.LVL6:
 144              		.loc 1 93 0
 145 00ac 201C     		mov	r0, r4
 146 00ae FFF7FEFF 		bl	chSemSignal
 147              	.LVL7:
 148              		.loc 1 94 0
 149 00b2 201C     		mov	r0, r4
 150 00b4 FFF7FEFF 		bl	chSemSignal
 151              	.LVL8:
 152              		.loc 1 95 0
 153 00b8 201C     		mov	r0, r4
 154 00ba FFF7FEFF 		bl	chSemSignal
 155              	.LVL9:
 156              		.loc 1 96 0
 157 00be FFF7FEFF 		bl	test_wait_threads
 158              	.LVL10:
 159              		.loc 1 100 0
 160 00c2 0120     		mov	r0, #1
 161 00c4 1D49     		ldr	r1, .L4+40
 162 00c6 FFF7FEFF 		bl	_test_assert_sequence
 163              	.LVL11:
 164 00ca 0028     		cmp	r0, #0
 165 00cc 1ED1     		bne	.L1
 166              		.loc 1 102 0
 167 00ce BB69     		ldr	r3, [r7, #24]
 168 00d0 9821     		mov	r1, #152
 169 00d2 9A68     		ldr	r2, [r3, #8]
 170 00d4 4346     		mov	r3, r8
 171 00d6 0093     		str	r3, [sp]
ARM GAS  /tmp/ccrU0Ftr.s 			page 4


 172 00d8 0532     		add	r2, r2, #5
 173 00da 0398     		ldr	r0, [sp, #12]
 174 00dc 4900     		lsl	r1, r1, #1
 175 00de 331C     		mov	r3, r6
 176 00e0 FFF7FEFF 		bl	chThdCreateStatic
 177              	.LVL12:
 178 00e4 2860     		str	r0, [r5]
 179              		.loc 1 103 0
 180              	@ 103 "../../test/testsem.c" 1
 181 00e6 72B6     		cpsid   i
 182              	@ 0 "" 2
 183              		.loc 1 104 0
 184              		.code	16
 185 00e8 0221     		mov	r1, #2
 186 00ea 201C     		mov	r0, r4
 187 00ec FFF7FEFF 		bl	chSemAddCounterI
 188              	.LVL13:
 189              		.loc 1 105 0
 190 00f0 FFF7FEFF 		bl	chSchRescheduleS
 191              	.LVL14:
 192              		.loc 1 106 0
 193              	@ 106 "../../test/testsem.c" 1
 194 00f4 62B6     		cpsie   i
 195              	@ 0 "" 2
 196              		.loc 1 107 0
 197              		.code	16
 198 00f6 FFF7FEFF 		bl	test_wait_threads
 199              	.LVL15:
 200              		.loc 1 108 0
 201 00fa 0F4B     		ldr	r3, .L4+36
 202 00fc 0220     		mov	r0, #2
 203 00fe 9968     		ldr	r1, [r3, #8]
 204 0100 0139     		sub	r1, r1, #1
 205 0102 4B42     		neg	r3, r1
 206 0104 5941     		adc	r1, r1, r3
 207 0106 C9B2     		uxtb	r1, r1
 208 0108 FFF7FEFF 		bl	_test_assert
 209              	.LVL16:
 210              	.L1:
 211              		.loc 1 109 0
 212 010c 04B0     		add	sp, sp, #16
 213              		@ sp needed
 214 010e 04BC     		pop	{r2}
 215 0110 9046     		mov	r8, r2
 216 0112 F0BD     		pop	{r4, r5, r6, r7, pc}
 217              	.L5:
 218              		.align	2
 219              	.L4:
 220 0114 00000000 		.word	wa
 221 0118 00000000 		.word	rlist
 222 011c 00000000 		.word	thread1
 223 0120 00000000 		.word	.LC3
 224 0124 00000000 		.word	threads
 225 0128 04000000 		.word	.LC6
 226 012c 08000000 		.word	.LC8
 227 0130 0C000000 		.word	.LC10
 228 0134 10000000 		.word	.LC12
ARM GAS  /tmp/ccrU0Ftr.s 			page 5


 229 0138 00000000 		.word	.LANCHOR0
 230 013c 14000000 		.word	.LC15
 231              		.cfi_endproc
 232              	.LFE9:
 233              		.size	sem1_execute, .-sem1_execute
 234              		.section	.text.thread3,"ax",%progbits
 235              		.align	2
 236              		.p2align 4,,15
 237              		.code	16
 238              		.thumb_func
 239              		.type	thread3, %function
 240              	thread3:
 241              	.LFB14:
 242              		.loc 1 210 0
 243              		.cfi_startproc
 244              	.LVL17:
 245 0000 10B5     		push	{r4, lr}
 246              		.cfi_def_cfa_offset 8
 247              		.cfi_offset 4, -8
 248              		.cfi_offset 14, -4
 249              		.loc 1 213 0
 250 0002 044C     		ldr	r4, .L7
 251              		.loc 1 216 0
 252              		@ sp needed
 253              		.loc 1 213 0
 254 0004 201C     		mov	r0, r4
 255              	.LVL18:
 256 0006 FFF7FEFF 		bl	chSemWait
 257              	.LVL19:
 258              		.loc 1 214 0
 259 000a 201C     		mov	r0, r4
 260 000c FFF7FEFF 		bl	chSemSignal
 261              	.LVL20:
 262              		.loc 1 216 0
 263 0010 0020     		mov	r0, #0
 264 0012 10BD     		pop	{r4, pc}
 265              	.L8:
 266              		.align	2
 267              	.L7:
 268 0014 00000000 		.word	.LANCHOR0
 269              		.cfi_endproc
 270              	.LFE14:
 271              		.size	thread3, .-thread3
 272 0018 C046C046 		.section	.text.thread1,"ax",%progbits
 272      C046C046 
 273              		.align	2
 274              		.p2align 4,,15
 275              		.code	16
 276              		.thumb_func
 277              		.type	thread1, %function
 278              	thread1:
 279              	.LFB8:
 280              		.loc 1 77 0
 281              		.cfi_startproc
 282              	.LVL21:
 283 0000 10B5     		push	{r4, lr}
 284              		.cfi_def_cfa_offset 8
ARM GAS  /tmp/ccrU0Ftr.s 			page 6


 285              		.cfi_offset 4, -8
 286              		.cfi_offset 14, -4
 287              		.loc 1 77 0
 288 0002 041C     		mov	r4, r0
 289              		.loc 1 79 0
 290 0004 0348     		ldr	r0, .L10
 291              	.LVL22:
 292 0006 FFF7FEFF 		bl	chSemWait
 293              	.LVL23:
 294              		.loc 1 80 0
 295 000a 2078     		ldrb	r0, [r4]
 296 000c FFF7FEFF 		bl	test_emit_token
 297              	.LVL24:
 298              		.loc 1 82 0
 299              		@ sp needed
 300 0010 0020     		mov	r0, #0
 301              	.LVL25:
 302 0012 10BD     		pop	{r4, pc}
 303              	.L11:
 304              		.align	2
 305              	.L10:
 306 0014 00000000 		.word	.LANCHOR0
 307              		.cfi_endproc
 308              	.LFE8:
 309              		.size	thread1, .-thread1
 310 0018 C046C046 		.section	.text.sem1_setup,"ax",%progbits
 310      C046C046 
 311              		.align	2
 312              		.p2align 4,,15
 313              		.code	16
 314              		.thumb_func
 315              		.type	sem1_setup, %function
 316              	sem1_setup:
 317              	.LFB7:
 318              		.loc 1 72 0
 319              		.cfi_startproc
 320 0000 08B5     		push	{r3, lr}
 321              		.cfi_def_cfa_offset 8
 322              		.cfi_offset 3, -8
 323              		.cfi_offset 14, -4
 324              		.loc 1 74 0
 325 0002 0248     		ldr	r0, .L13
 326 0004 0021     		mov	r1, #0
 327 0006 FFF7FEFF 		bl	chSemInit
 328              	.LVL26:
 329              		.loc 1 75 0
 330              		@ sp needed
 331 000a 08BD     		pop	{r3, pc}
 332              	.L14:
 333              		.align	2
 334              	.L13:
 335 000c 00000000 		.word	.LANCHOR0
 336              		.cfi_endproc
 337              	.LFE7:
 338              		.size	sem1_setup, .-sem1_setup
 339              		.section	.text.sem2_setup,"ax",%progbits
 340              		.align	2
ARM GAS  /tmp/ccrU0Ftr.s 			page 7


 341              		.p2align 4,,15
 342              		.code	16
 343              		.thumb_func
 344              		.type	sem2_setup, %function
 345              	sem2_setup:
 346              	.LFB10:
 347              		.loc 1 129 0
 348              		.cfi_startproc
 349 0000 08B5     		push	{r3, lr}
 350              		.cfi_def_cfa_offset 8
 351              		.cfi_offset 3, -8
 352              		.cfi_offset 14, -4
 353              		.loc 1 131 0
 354 0002 0248     		ldr	r0, .L16
 355 0004 0021     		mov	r1, #0
 356 0006 FFF7FEFF 		bl	chSemInit
 357              	.LVL27:
 358              		.loc 1 132 0
 359              		@ sp needed
 360 000a 08BD     		pop	{r3, pc}
 361              	.L17:
 362              		.align	2
 363              	.L16:
 364 000c 00000000 		.word	.LANCHOR0
 365              		.cfi_endproc
 366              	.LFE10:
 367              		.size	sem2_setup, .-sem2_setup
 368              		.section	.text.sem3_setup,"ax",%progbits
 369              		.align	2
 370              		.p2align 4,,15
 371              		.code	16
 372              		.thumb_func
 373              		.type	sem3_setup, %function
 374              	sem3_setup:
 375              	.LFB13:
 376              		.loc 1 205 0
 377              		.cfi_startproc
 378 0000 08B5     		push	{r3, lr}
 379              		.cfi_def_cfa_offset 8
 380              		.cfi_offset 3, -8
 381              		.cfi_offset 14, -4
 382              		.loc 1 207 0
 383 0002 0248     		ldr	r0, .L19
 384 0004 0021     		mov	r1, #0
 385 0006 FFF7FEFF 		bl	chSemInit
 386              	.LVL28:
 387              		.loc 1 208 0
 388              		@ sp needed
 389 000a 08BD     		pop	{r3, pc}
 390              	.L20:
 391              		.align	2
 392              	.L19:
 393 000c 00000000 		.word	.LANCHOR0
 394              		.cfi_endproc
 395              	.LFE13:
 396              		.size	sem3_setup, .-sem3_setup
 397              		.section	.text.thread2,"ax",%progbits
ARM GAS  /tmp/ccrU0Ftr.s 			page 8


 398              		.align	2
 399              		.p2align 4,,15
 400              		.code	16
 401              		.thumb_func
 402              		.type	thread2, %function
 403              	thread2:
 404              	.LFB11:
 405              		.loc 1 134 0
 406              		.cfi_startproc
 407              	.LVL29:
 408 0000 08B5     		push	{r3, lr}
 409              		.cfi_def_cfa_offset 8
 410              		.cfi_offset 3, -8
 411              		.cfi_offset 14, -4
 412              		.loc 1 137 0
 413 0002 3220     		mov	r0, #50
 414              	.LVL30:
 415 0004 FFF7FEFF 		bl	chThdSleep
 416              	.LVL31:
 417              		.loc 1 138 0
 418              	@ 138 "../../test/testsem.c" 1
 419 0008 72B6     		cpsid   i
 420              	@ 0 "" 2
 421              		.loc 1 139 0
 422              		.code	16
 423 000a 0448     		ldr	r0, .L22
 424 000c FFF7FEFF 		bl	chSemSignalI
 425              	.LVL32:
 426              		.loc 1 140 0
 427 0010 FFF7FEFF 		bl	chSchRescheduleS
 428              	.LVL33:
 429              		.loc 1 141 0
 430              	@ 141 "../../test/testsem.c" 1
 431 0014 62B6     		cpsie   i
 432              	@ 0 "" 2
 433              		.loc 1 143 0
 434              		.code	16
 435 0016 0020     		mov	r0, #0
 436              		@ sp needed
 437 0018 08BD     		pop	{r3, pc}
 438              	.L23:
 439 001a C046     		.align	2
 440              	.L22:
 441 001c 00000000 		.word	.LANCHOR0
 442              		.cfi_endproc
 443              	.LFE11:
 444              		.size	thread2, .-thread2
 445              		.section	.text.thread4,"ax",%progbits
 446              		.align	2
 447              		.p2align 4,,15
 448              		.code	16
 449              		.thumb_func
 450              		.type	thread4, %function
 451              	thread4:
 452              	.LFB16:
 453              		.loc 1 246 0
 454              		.cfi_startproc
ARM GAS  /tmp/ccrU0Ftr.s 			page 9


 455              	.LVL34:
 456 0000 08B5     		push	{r3, lr}
 457              		.cfi_def_cfa_offset 8
 458              		.cfi_offset 3, -8
 459              		.cfi_offset 14, -4
 460              		.loc 1 248 0
 461              	@ 248 "../../test/testsem.c" 1
 462 0002 72B6     		cpsid   i
 463              	@ 0 "" 2
 464              		.code	16
 465 0004 8368     		ldr	r3, [r0, #8]
 466 0006 002B     		cmp	r3, #0
 467 0008 04DD     		ble	.L26
 468              	.LVL35:
 469              	.L25:
 470              		.loc 1 248 0 is_stmt 0 discriminator 2
 471 000a FFF7FEFF 		bl	chSchRescheduleS
 472              	.LVL36:
 473              	@ 248 "../../test/testsem.c" 1
 474 000e 62B6     		cpsie   i
 475              	@ 0 "" 2
 476              		.loc 1 250 0 is_stmt 1 discriminator 2
 477              		.code	16
 478 0010 0020     		mov	r0, #0
 479              		@ sp needed
 480 0012 08BD     		pop	{r3, pc}
 481              	.LVL37:
 482              	.L26:
 483              		.loc 1 248 0 discriminator 1
 484 0014 FFF7FEFF 		bl	chSemSignalI
 485              	.LVL38:
 486 0018 F7E7     		b	.L25
 487              		.cfi_endproc
 488              	.LFE16:
 489              		.size	thread4, .-thread4
 490 001a C046C046 		.section	.text.sem4_execute,"ax",%progbits
 490      C046
 491              		.align	2
 492              		.p2align 4,,15
 493              		.code	16
 494              		.thumb_func
 495              		.type	sem4_execute, %function
 496              	sem4_execute:
 497              	.LFB17:
 498              		.loc 1 252 0
 499              		.cfi_startproc
 500 0000 00B5     		push	{lr}
 501              		.cfi_def_cfa_offset 4
 502              		.cfi_offset 14, -4
 503 0002 87B0     		sub	sp, sp, #28
 504              		.cfi_def_cfa_offset 32
 505              		.loc 1 256 0
 506 0004 03A8     		add	r0, sp, #12
 507 0006 0021     		mov	r1, #0
 508 0008 FFF7FEFF 		bl	chSemInit
 509              	.LVL39:
 510              		.loc 1 257 0
ARM GAS  /tmp/ccrU0Ftr.s 			page 10


 511 000c 03A8     		add	r0, sp, #12
 512 000e 0021     		mov	r1, #0
 513 0010 FFF7FEFF 		bl	chSemReset
 514              	.LVL40:
 515              		.loc 1 258 0
 516 0014 059B     		ldr	r3, [sp, #20]
 517 0016 0120     		mov	r0, #1
 518 0018 591E     		sub	r1, r3, #1
 519 001a 0B43     		orr	r3, r1
 520 001c D90F     		lsr	r1, r3, #31
 521 001e FFF7FEFF 		bl	_test_assert
 522              	.LVL41:
 523 0022 0028     		cmp	r0, #0
 524 0024 01D0     		beq	.L32
 525              	.L27:
 526              		.loc 1 280 0
 527 0026 07B0     		add	sp, sp, #28
 528              		@ sp needed
 529 0028 00BD     		pop	{pc}
 530              	.L32:
 531              		.loc 1 262 0
 532 002a 2B4B     		ldr	r3, .L35
 533              		.loc 1 261 0
 534 002c 9821     		mov	r1, #152
 535              		.loc 1 262 0
 536 002e 9B69     		ldr	r3, [r3, #24]
 537              		.loc 1 261 0
 538 0030 4900     		lsl	r1, r1, #1
 539 0032 9A68     		ldr	r2, [r3, #8]
 540 0034 03AB     		add	r3, sp, #12
 541 0036 0093     		str	r3, [sp]
 542 0038 284B     		ldr	r3, .L35+4
 543 003a 013A     		sub	r2, r2, #1
 544 003c 1868     		ldr	r0, [r3]
 545 003e 284B     		ldr	r3, .L35+8
 546 0040 FFF7FEFF 		bl	chThdCreateStatic
 547              	.LVL42:
 548 0044 274B     		ldr	r3, .L35+12
 549 0046 1860     		str	r0, [r3]
 550              		.loc 1 265 0
 551 0048 03A8     		add	r0, sp, #12
 552 004a FFF7FEFF 		bl	chSemWait
 553              	.LVL43:
 554              		.loc 1 268 0
 555 004e 059B     		ldr	r3, [sp, #20]
 556 0050 0220     		mov	r0, #2
 557 0052 591E     		sub	r1, r3, #1
 558 0054 0B43     		orr	r3, r1
 559 0056 D90F     		lsr	r1, r3, #31
 560 0058 FFF7FEFF 		bl	_test_assert
 561              	.LVL44:
 562 005c 0028     		cmp	r0, #0
 563 005e E2D1     		bne	.L27
 564              		.loc 1 272 0
 565              	@ 272 "../../test/testsem.c" 1
 566 0060 72B6     		cpsid   i
 567              	@ 0 "" 2
ARM GAS  /tmp/ccrU0Ftr.s 			page 11


 568              		.code	16
 569 0062 059B     		ldr	r3, [sp, #20]
 570 0064 002B     		cmp	r3, #0
 571 0066 2EDD     		ble	.L33
 572              	.L29:
 573              		.loc 1 272 0 is_stmt 0 discriminator 2
 574 0068 FFF7FEFF 		bl	chSchRescheduleS
 575              	.LVL45:
 576              	@ 272 "../../test/testsem.c" 1
 577 006c 62B6     		cpsie   i
 578              	@ 0 "" 2
 579              		.loc 1 273 0 is_stmt 1 discriminator 2
 580              		.code	16
 581 006e 059B     		ldr	r3, [sp, #20]
 582 0070 0320     		mov	r0, #3
 583 0072 D917     		asr	r1, r3, #31
 584 0074 CB1A     		sub	r3, r1, r3
 585 0076 D90F     		lsr	r1, r3, #31
 586 0078 FFF7FEFF 		bl	_test_assert
 587              	.LVL46:
 588 007c 0028     		cmp	r0, #0
 589 007e D2D1     		bne	.L27
 590              		.loc 1 274 0
 591 0080 0599     		ldr	r1, [sp, #20]
 592 0082 0420     		mov	r0, #4
 593 0084 0139     		sub	r1, r1, #1
 594 0086 4B42     		neg	r3, r1
 595 0088 5941     		adc	r1, r1, r3
 596 008a C9B2     		uxtb	r1, r1
 597 008c FFF7FEFF 		bl	_test_assert
 598              	.LVL47:
 599 0090 0028     		cmp	r0, #0
 600 0092 C8D1     		bne	.L27
 601              		.loc 1 277 0
 602              	@ 277 "../../test/testsem.c" 1
 603 0094 72B6     		cpsid   i
 604              	@ 0 "" 2
 605              		.code	16
 606 0096 059B     		ldr	r3, [sp, #20]
 607 0098 002B     		cmp	r3, #0
 608 009a 18DD     		ble	.L34
 609              	.L30:
 610              		.loc 1 277 0 is_stmt 0 discriminator 2
 611 009c FFF7FEFF 		bl	chSchRescheduleS
 612              	.LVL48:
 613              	@ 277 "../../test/testsem.c" 1
 614 00a0 62B6     		cpsie   i
 615              	@ 0 "" 2
 616              		.loc 1 278 0 is_stmt 1 discriminator 2
 617              		.code	16
 618 00a2 059B     		ldr	r3, [sp, #20]
 619 00a4 0320     		mov	r0, #3
 620 00a6 D917     		asr	r1, r3, #31
 621 00a8 CB1A     		sub	r3, r1, r3
 622 00aa D90F     		lsr	r1, r3, #31
 623 00ac FFF7FEFF 		bl	_test_assert
 624              	.LVL49:
ARM GAS  /tmp/ccrU0Ftr.s 			page 12


 625 00b0 0028     		cmp	r0, #0
 626 00b2 B8D1     		bne	.L27
 627              		.loc 1 279 0
 628 00b4 0599     		ldr	r1, [sp, #20]
 629 00b6 0520     		mov	r0, #5
 630 00b8 0139     		sub	r1, r1, #1
 631 00ba 4B42     		neg	r3, r1
 632 00bc 5941     		adc	r1, r1, r3
 633 00be C9B2     		uxtb	r1, r1
 634 00c0 FFF7FEFF 		bl	_test_assert
 635              	.LVL50:
 636 00c4 AFE7     		b	.L27
 637              	.L33:
 638              		.loc 1 272 0 discriminator 1
 639 00c6 03A8     		add	r0, sp, #12
 640 00c8 FFF7FEFF 		bl	chSemSignalI
 641              	.LVL51:
 642 00cc CCE7     		b	.L29
 643              	.L34:
 644              		.loc 1 277 0 discriminator 1
 645 00ce 03A8     		add	r0, sp, #12
 646 00d0 FFF7FEFF 		bl	chSemSignalI
 647              	.LVL52:
 648 00d4 E2E7     		b	.L30
 649              	.L36:
 650 00d6 C046     		.align	2
 651              	.L35:
 652 00d8 00000000 		.word	rlist
 653 00dc 00000000 		.word	wa
 654 00e0 00000000 		.word	thread4
 655 00e4 00000000 		.word	threads
 656              		.cfi_endproc
 657              	.LFE17:
 658              		.size	sem4_execute, .-sem4_execute
 659 00e8 C046C046 		.section	.text.sem2_execute,"ax",%progbits
 659      C046C046 
 660              		.align	2
 661              		.p2align 4,,15
 662              		.code	16
 663              		.thumb_func
 664              		.type	sem2_execute, %function
 665              	sem2_execute:
 666              	.LFB12:
 667              		.loc 1 145 0
 668              		.cfi_startproc
 669 0000 70B5     		push	{r4, r5, r6, lr}
 670              		.cfi_def_cfa_offset 16
 671              		.cfi_offset 4, -16
 672              		.cfi_offset 5, -12
 673              		.cfi_offset 6, -8
 674              		.cfi_offset 14, -4
 675              		.loc 1 153 0
 676 0002 494C     		ldr	r4, .L44
 677              		.loc 1 145 0
 678 0004 82B0     		sub	sp, sp, #8
 679              		.cfi_def_cfa_offset 24
 680              		.loc 1 153 0
ARM GAS  /tmp/ccrU0Ftr.s 			page 13


 681 0006 0021     		mov	r1, #0
 682 0008 201C     		mov	r0, r4
 683 000a FFF7FEFF 		bl	chSemWaitTimeout
 684              	.LVL53:
 685              		.loc 1 154 0
 686 000e 411C     		add	r1, r0, #1
 687 0010 4B42     		neg	r3, r1
 688 0012 5941     		adc	r1, r1, r3
 689 0014 C9B2     		uxtb	r1, r1
 690 0016 0120     		mov	r0, #1
 691              	.LVL54:
 692 0018 FFF7FEFF 		bl	_test_assert
 693              	.LVL55:
 694 001c 0028     		cmp	r0, #0
 695 001e 01D0     		beq	.L43
 696              	.L37:
 697              		.loc 1 183 0
 698 0020 02B0     		add	sp, sp, #8
 699              		@ sp needed
 700 0022 70BD     		pop	{r4, r5, r6, pc}
 701              	.L43:
 702              		.loc 1 155 0
 703 0024 2268     		ldr	r2, [r4]
 704 0026 0220     		mov	r0, #2
 705 0028 111B     		sub	r1, r2, r4
 706 002a 4B42     		neg	r3, r1
 707 002c 5941     		adc	r1, r1, r3
 708 002e C9B2     		uxtb	r1, r1
 709 0030 FFF7FEFF 		bl	_test_assert
 710              	.LVL56:
 711 0034 0028     		cmp	r0, #0
 712 0036 F3D1     		bne	.L37
 713              		.loc 1 156 0
 714 0038 A268     		ldr	r2, [r4, #8]
 715 003a 0320     		mov	r0, #3
 716 003c 5142     		neg	r1, r2
 717 003e 5141     		adc	r1, r1, r2
 718 0040 C9B2     		uxtb	r1, r1
 719 0042 FFF7FEFF 		bl	_test_assert
 720              	.LVL57:
 721 0046 0028     		cmp	r0, #0
 722 0048 EAD1     		bne	.L37
 723              	.LBB4:
 724              	.LBB5:
 725              		.loc 1 161 0
 726 004a 384B     		ldr	r3, .L44+4
 727 004c 9821     		mov	r1, #152
 728 004e 9B69     		ldr	r3, [r3, #24]
 729 0050 4900     		lsl	r1, r1, #1
 730 0052 9A68     		ldr	r2, [r3, #8]
 731 0054 364B     		ldr	r3, .L44+8
 732 0056 013A     		sub	r2, r2, #1
 733 0058 0090     		str	r0, [sp]
 734 005a 1868     		ldr	r0, [r3]
 735 005c 354B     		ldr	r3, .L44+12
 736 005e FFF7FEFF 		bl	chThdCreateStatic
 737              	.LVL58:
ARM GAS  /tmp/ccrU0Ftr.s 			page 14


 738 0062 354B     		ldr	r3, .L44+16
 739              		.loc 1 163 0
 740 0064 FA21     		mov	r1, #250
 741              		.loc 1 161 0
 742 0066 1860     		str	r0, [r3]
 743              		.loc 1 163 0
 744 0068 4900     		lsl	r1, r1, #1
 745 006a 201C     		mov	r0, r4
 746 006c FFF7FEFF 		bl	chSemWaitTimeout
 747              	.LVL59:
 748 0070 051C     		mov	r5, r0
 749              	.LVL60:
 750              		.loc 1 164 0
 751 0072 FFF7FEFF 		bl	test_wait_threads
 752              	.LVL61:
 753              		.loc 1 165 0
 754 0076 6942     		neg	r1, r5
 755 0078 6941     		adc	r1, r1, r5
 756              	.LVL62:
 757 007a C9B2     		uxtb	r1, r1
 758 007c 0420     		mov	r0, #4
 759 007e FFF7FEFF 		bl	_test_assert
 760              	.LVL63:
 761 0082 0028     		cmp	r0, #0
 762 0084 CCD1     		bne	.L37
 763              		.loc 1 166 0
 764 0086 2368     		ldr	r3, [r4]
 765 0088 0520     		mov	r0, #5
 766 008a 191B     		sub	r1, r3, r4
 767 008c 4B42     		neg	r3, r1
 768 008e 5941     		adc	r1, r1, r3
 769 0090 C9B2     		uxtb	r1, r1
 770 0092 FFF7FEFF 		bl	_test_assert
 771              	.LVL64:
 772 0096 0028     		cmp	r0, #0
 773 0098 C2D1     		bne	.L37
 774              		.loc 1 167 0
 775 009a A268     		ldr	r2, [r4, #8]
 776 009c 0620     		mov	r0, #6
 777 009e 5142     		neg	r1, r2
 778 00a0 5141     		adc	r1, r1, r2
 779 00a2 C9B2     		uxtb	r1, r1
 780 00a4 FFF7FEFF 		bl	_test_assert
 781              	.LVL65:
 782 00a8 0028     		cmp	r0, #0
 783 00aa B9D1     		bne	.L37
 784              		.loc 1 172 0
 785 00ac FFF7FEFF 		bl	test_wait_tick
 786              	.LVL66:
 787              		.loc 1 173 0
 788 00b0 224B     		ldr	r3, .L44+20
 789 00b2 4125     		mov	r5, #65
 790 00b4 DE68     		ldr	r6, [r3, #12]
 791              	.LVL67:
 792              	.L42:
 793              		.loc 1 175 0
 794 00b6 281C     		mov	r0, r5
ARM GAS  /tmp/ccrU0Ftr.s 			page 15


 795 00b8 FFF7FEFF 		bl	test_emit_token
 796              	.LVL68:
 797              		.loc 1 176 0
 798 00bc FA21     		mov	r1, #250
 799 00be 4900     		lsl	r1, r1, #1
 800 00c0 201C     		mov	r0, r4
 801 00c2 FFF7FEFF 		bl	chSemWaitTimeout
 802              	.LVL69:
 803              		.loc 1 177 0
 804 00c6 411C     		add	r1, r0, #1
 805 00c8 4B42     		neg	r3, r1
 806 00ca 5941     		adc	r1, r1, r3
 807 00cc C9B2     		uxtb	r1, r1
 808 00ce 0720     		mov	r0, #7
 809              	.LVL70:
 810 00d0 FFF7FEFF 		bl	_test_assert
 811              	.LVL71:
 812 00d4 0028     		cmp	r0, #0
 813 00d6 A3D1     		bne	.L37
 814              		.loc 1 178 0
 815 00d8 2368     		ldr	r3, [r4]
 816 00da 0820     		mov	r0, #8
 817 00dc 191B     		sub	r1, r3, r4
 818 00de 4B42     		neg	r3, r1
 819 00e0 5941     		adc	r1, r1, r3
 820 00e2 C9B2     		uxtb	r1, r1
 821 00e4 FFF7FEFF 		bl	_test_assert
 822              	.LVL72:
 823 00e8 0028     		cmp	r0, #0
 824 00ea 99D1     		bne	.L37
 825              		.loc 1 179 0
 826 00ec A268     		ldr	r2, [r4, #8]
 827 00ee 0920     		mov	r0, #9
 828 00f0 5142     		neg	r1, r2
 829 00f2 5141     		adc	r1, r1, r2
 830 00f4 C9B2     		uxtb	r1, r1
 831 00f6 FFF7FEFF 		bl	_test_assert
 832              	.LVL73:
 833 00fa 0028     		cmp	r0, #0
 834 00fc 00D0     		beq	.LCB679
 835 00fe 8FE7     		b	.L37	@long jump
 836              	.LCB679:
 837 0100 0135     		add	r5, r5, #1
 838 0102 EDB2     		uxtb	r5, r5
 839              		.loc 1 174 0
 840 0104 462D     		cmp	r5, #70
 841 0106 D6D1     		bne	.L42
 842              		.loc 1 181 0
 843 0108 0A20     		mov	r0, #10
 844 010a 0D49     		ldr	r1, .L44+24
 845 010c FFF7FEFF 		bl	_test_assert_sequence
 846              	.LVL74:
 847 0110 0028     		cmp	r0, #0
 848 0112 00D0     		beq	.LCB690
 849 0114 84E7     		b	.L37	@long jump
 850              	.LCB690:
 851              		.loc 1 173 0
ARM GAS  /tmp/ccrU0Ftr.s 			page 16


 852 0116 0B4B     		ldr	r3, .L44+28
 853              		.loc 1 182 0
 854 0118 0B20     		mov	r0, #11
 855              		.loc 1 173 0
 856 011a F118     		add	r1, r6, r3
 857              		.loc 1 182 0
 858 011c 0A4B     		ldr	r3, .L44+32
 859 011e F218     		add	r2, r6, r3
 860 0120 FFF7FEFF 		bl	_test_assert_time_window
 861              	.LVL75:
 862 0124 7CE7     		b	.L37
 863              	.L45:
 864 0126 C046     		.align	2
 865              	.L44:
 866 0128 00000000 		.word	.LANCHOR0
 867 012c 00000000 		.word	rlist
 868 0130 00000000 		.word	wa
 869 0134 00000000 		.word	thread2
 870 0138 00000000 		.word	threads
 871 013c 00000000 		.word	vtlist
 872 0140 14000000 		.word	.LC15
 873 0144 C4090000 		.word	2500
 874 0148 C9090000 		.word	2505
 875              	.LBE5:
 876              	.LBE4:
 877              		.cfi_endproc
 878              	.LFE12:
 879              		.size	sem2_execute, .-sem2_execute
 880 014c C046C046 		.section	.text.sem3_execute,"ax",%progbits
 881              		.align	2
 882              		.p2align 4,,15
 883              		.code	16
 884              		.thumb_func
 885              		.type	sem3_execute, %function
 886              	sem3_execute:
 887              	.LFB15:
 888              		.loc 1 218 0
 889              		.cfi_startproc
 890 0000 10B5     		push	{r4, lr}
 891              		.cfi_def_cfa_offset 8
 892              		.cfi_offset 4, -8
 893              		.cfi_offset 14, -4
 894              		.loc 1 220 0
 895 0002 204B     		ldr	r3, .L51
 896              		.loc 1 218 0
 897 0004 82B0     		sub	sp, sp, #8
 898              		.cfi_def_cfa_offset 16
 899              		.loc 1 220 0
 900 0006 9B69     		ldr	r3, [r3, #24]
 901 0008 9821     		mov	r1, #152
 902 000a 9A68     		ldr	r2, [r3, #8]
 903 000c 0023     		mov	r3, #0
 904 000e 0093     		str	r3, [sp]
 905 0010 1D4B     		ldr	r3, .L51+4
 906 0012 0132     		add	r2, r2, #1
 907 0014 1868     		ldr	r0, [r3]
 908 0016 4900     		lsl	r1, r1, #1
ARM GAS  /tmp/ccrU0Ftr.s 			page 17


 909 0018 1C4B     		ldr	r3, .L51+8
 910 001a FFF7FEFF 		bl	chThdCreateStatic
 911              	.LVL76:
 912              		.loc 1 221 0
 913 001e 1C4C     		ldr	r4, .L51+12
 914              		.loc 1 220 0
 915 0020 1C4B     		ldr	r3, .L51+16
 916              		.loc 1 221 0
 917 0022 211C     		mov	r1, r4
 918              		.loc 1 220 0
 919 0024 1860     		str	r0, [r3]
 920              		.loc 1 221 0
 921 0026 201C     		mov	r0, r4
 922 0028 FFF7FEFF 		bl	chSemSignalWait
 923              	.LVL77:
 924              		.loc 1 222 0
 925 002c 2268     		ldr	r2, [r4]
 926 002e 0120     		mov	r0, #1
 927 0030 111B     		sub	r1, r2, r4
 928 0032 4B42     		neg	r3, r1
 929 0034 5941     		adc	r1, r1, r3
 930 0036 C9B2     		uxtb	r1, r1
 931 0038 FFF7FEFF 		bl	_test_assert
 932              	.LVL78:
 933 003c 0028     		cmp	r0, #0
 934 003e 01D0     		beq	.L50
 935              	.L46:
 936              		.loc 1 228 0
 937 0040 02B0     		add	sp, sp, #8
 938              		@ sp needed
 939 0042 10BD     		pop	{r4, pc}
 940              	.L50:
 941              		.loc 1 223 0
 942 0044 A268     		ldr	r2, [r4, #8]
 943 0046 0220     		mov	r0, #2
 944 0048 5142     		neg	r1, r2
 945 004a 5141     		adc	r1, r1, r2
 946 004c C9B2     		uxtb	r1, r1
 947 004e FFF7FEFF 		bl	_test_assert
 948              	.LVL79:
 949 0052 0028     		cmp	r0, #0
 950 0054 F4D1     		bne	.L46
 951              	.LBB8:
 952              	.LBB9:
 953              		.loc 1 225 0
 954 0056 211C     		mov	r1, r4
 955 0058 201C     		mov	r0, r4
 956 005a FFF7FEFF 		bl	chSemSignalWait
 957              	.LVL80:
 958              		.loc 1 226 0
 959 005e 2368     		ldr	r3, [r4]
 960 0060 0320     		mov	r0, #3
 961 0062 191B     		sub	r1, r3, r4
 962 0064 4B42     		neg	r3, r1
 963 0066 5941     		adc	r1, r1, r3
 964 0068 C9B2     		uxtb	r1, r1
 965 006a FFF7FEFF 		bl	_test_assert
ARM GAS  /tmp/ccrU0Ftr.s 			page 18


 966              	.LVL81:
 967 006e 0028     		cmp	r0, #0
 968 0070 E6D1     		bne	.L46
 969              		.loc 1 227 0
 970 0072 A168     		ldr	r1, [r4, #8]
 971 0074 0420     		mov	r0, #4
 972 0076 4B42     		neg	r3, r1
 973 0078 5941     		adc	r1, r1, r3
 974 007a C9B2     		uxtb	r1, r1
 975 007c FFF7FEFF 		bl	_test_assert
 976              	.LVL82:
 977 0080 DEE7     		b	.L46
 978              	.L52:
 979 0082 C046     		.align	2
 980              	.L51:
 981 0084 00000000 		.word	rlist
 982 0088 00000000 		.word	wa
 983 008c 00000000 		.word	thread3
 984 0090 00000000 		.word	.LANCHOR0
 985 0094 00000000 		.word	threads
 986              	.LBE9:
 987              	.LBE8:
 988              		.cfi_endproc
 989              	.LFE15:
 990              		.size	sem3_execute, .-sem3_execute
 991              		.global	patternsem
 992              		.global	testsem4
 993              		.global	testsem3
 994              		.global	testsem2
 995              		.global	testsem1
 996 0098 C046C046 		.section	.rodata.testsem1,"a",%progbits
 996      C046C046 
 997              		.align	2
 998              		.type	testsem1, %object
 999              		.size	testsem1, 16
 1000              	testsem1:
 1001 0000 74000000 		.word	.LC42
 1002 0004 00000000 		.word	sem1_setup
 1003 0008 00000000 		.word	0
 1004 000c 00000000 		.word	sem1_execute
 1005              		.section	.rodata.testsem2,"a",%progbits
 1006              		.align	2
 1007              		.type	testsem2, %object
 1008              		.size	testsem2, 16
 1009              	testsem2:
 1010 0000 60000000 		.word	.LC41
 1011 0004 00000000 		.word	sem2_setup
 1012 0008 00000000 		.word	0
 1013 000c 00000000 		.word	sem2_execute
 1014              		.section	.rodata.testsem3,"a",%progbits
 1015              		.align	2
 1016              		.type	testsem3, %object
 1017              		.size	testsem3, 16
 1018              	testsem3:
 1019 0000 40000000 		.word	.LC40
 1020 0004 00000000 		.word	sem3_setup
 1021 0008 00000000 		.word	0
ARM GAS  /tmp/ccrU0Ftr.s 			page 19


 1022 000c 00000000 		.word	sem3_execute
 1023              		.section	.rodata.testsem4,"a",%progbits
 1024              		.align	2
 1025              		.type	testsem4, %object
 1026              		.size	testsem4, 16
 1027              	testsem4:
 1028 0000 1C000000 		.word	.LC39
 1029 0004 00000000 		.word	0
 1030 0008 00000000 		.word	0
 1031 000c 00000000 		.word	sem4_execute
 1032              		.section	.data.sem1,"aw",%progbits
 1033              		.align	2
 1034              		.set	.LANCHOR0,. + 0
 1035              		.type	sem1, %object
 1036              		.size	sem1, 12
 1037              	sem1:
 1038 0000 00000000 		.word	sem1
 1039 0004 00000000 		.word	sem1
 1040 0008 00000000 		.word	0
 1041              		.section	.rodata.patternsem,"a",%progbits
 1042              		.align	2
 1043              		.type	patternsem, %object
 1044              		.size	patternsem, 20
 1045              	patternsem:
 1046 0000 00000000 		.word	testsem1
 1047 0004 00000000 		.word	testsem2
 1048 0008 00000000 		.word	testsem3
 1049 000c 00000000 		.word	testsem4
 1050 0010 00000000 		.word	0
 1051              		.section	.rodata.str1.4,"aMS",%progbits,1
 1052              		.align	2
 1053              	.LC3:
 1054 0000 4100     		.ascii	"A\000"
 1055 0002 0000     		.space	2
 1056              	.LC6:
 1057 0004 4200     		.ascii	"B\000"
 1058 0006 0000     		.space	2
 1059              	.LC8:
 1060 0008 4300     		.ascii	"C\000"
 1061 000a 0000     		.space	2
 1062              	.LC10:
 1063 000c 4400     		.ascii	"D\000"
 1064 000e 0000     		.space	2
 1065              	.LC12:
 1066 0010 4500     		.ascii	"E\000"
 1067 0012 0000     		.space	2
 1068              	.LC15:
 1069 0014 41424344 		.ascii	"ABCDE\000"
 1069      4500
 1070 001a 0000     		.space	2
 1071              	.LC39:
 1072 001c 42696E61 		.ascii	"Binary Semaphores, functionality\000"
 1072      72792053 
 1072      656D6170 
 1072      686F7265 
 1072      732C2066 
 1073 003d 000000   		.space	3
ARM GAS  /tmp/ccrU0Ftr.s 			page 20


 1074              	.LC40:
 1075 0040 53656D61 		.ascii	"Semaphores, atomic signal-wait\000"
 1075      70686F72 
 1075      65732C20 
 1075      61746F6D 
 1075      69632073 
 1076 005f 00       		.space	1
 1077              	.LC41:
 1078 0060 53656D61 		.ascii	"Semaphores, timeout\000"
 1078      70686F72 
 1078      65732C20 
 1078      74696D65 
 1078      6F757400 
 1079              	.LC42:
 1080 0074 53656D61 		.ascii	"Semaphores, enqueuing\000"
 1080      70686F72 
 1080      65732C20 
 1080      656E7175 
 1080      6575696E 
 1081 008a 0000     		.text
 1082              	.Letext0:
 1083              		.file 2 "/usr/lib/gcc/arm-none-eabi/4.8.2/include/stddef.h"
 1084              		.file 3 "/usr/arm-none-eabi/include/machine/_default_types.h"
 1085              		.file 4 "/usr/arm-none-eabi/include/stdint.h"
 1086              		.file 5 "../../os/ports/GCC/ARMCMx/chtypes.h"
 1087              		.file 6 "../../os/kernel/include/chlists.h"
 1088              		.file 7 "../../os/kernel/include/chthreads.h"
 1089              		.file 8 "../../os/ports/GCC/ARMCMx/chcore_v6m.h"
 1090              		.file 9 "../../os/kernel/include/chvt.h"
 1091              		.file 10 "../../os/kernel/include/chschd.h"
 1092              		.file 11 "../../os/kernel/include/chsem.h"
 1093              		.file 12 "../../os/kernel/include/chbsem.h"
 1094              		.file 13 "../../os/kernel/include/chmtx.h"
 1095              		.file 14 "../../test/test.h"
 1096              		.section	.debug_info,"",%progbits
 1097              	.Ldebug_info0:
 1098 0000 310F0000 		.4byte	0xf31
 1099 0004 0400     		.2byte	0x4
 1100 0006 00000000 		.4byte	.Ldebug_abbrev0
 1101 000a 04       		.byte	0x4
 1102 000b 01       		.uleb128 0x1
 1103 000c 53010000 		.4byte	.LASF125
 1104 0010 01       		.byte	0x1
 1105 0011 80040000 		.4byte	.LASF126
 1106 0015 B5030000 		.4byte	.LASF127
 1107 0019 00000000 		.4byte	.Ldebug_ranges0+0
 1108 001d 00000000 		.4byte	0
 1109 0021 00000000 		.4byte	.Ldebug_line0
 1110 0025 02       		.uleb128 0x2
 1111 0026 04       		.byte	0x4
 1112 0027 05       		.byte	0x5
 1113 0028 696E7400 		.ascii	"int\000"
 1114 002c 03       		.uleb128 0x3
 1115 002d 1B000000 		.4byte	.LASF2
 1116 0031 02       		.byte	0x2
 1117 0032 D4       		.byte	0xd4
 1118 0033 37000000 		.4byte	0x37
ARM GAS  /tmp/ccrU0Ftr.s 			page 21


 1119 0037 04       		.uleb128 0x4
 1120 0038 04       		.byte	0x4
 1121 0039 07       		.byte	0x7
 1122 003a 38020000 		.4byte	.LASF0
 1123 003e 04       		.uleb128 0x4
 1124 003f 01       		.byte	0x1
 1125 0040 06       		.byte	0x6
 1126 0041 8D000000 		.4byte	.LASF1
 1127 0045 03       		.uleb128 0x3
 1128 0046 36000000 		.4byte	.LASF3
 1129 004a 03       		.byte	0x3
 1130 004b 1C       		.byte	0x1c
 1131 004c 50000000 		.4byte	0x50
 1132 0050 04       		.uleb128 0x4
 1133 0051 01       		.byte	0x1
 1134 0052 08       		.byte	0x8
 1135 0053 59040000 		.4byte	.LASF4
 1136 0057 04       		.uleb128 0x4
 1137 0058 02       		.byte	0x2
 1138 0059 05       		.byte	0x5
 1139 005a 17030000 		.4byte	.LASF5
 1140 005e 04       		.uleb128 0x4
 1141 005f 02       		.byte	0x2
 1142 0060 07       		.byte	0x7
 1143 0061 C6020000 		.4byte	.LASF6
 1144 0065 03       		.uleb128 0x3
 1145 0066 36050000 		.4byte	.LASF7
 1146 006a 03       		.byte	0x3
 1147 006b 37       		.byte	0x37
 1148 006c 70000000 		.4byte	0x70
 1149 0070 04       		.uleb128 0x4
 1150 0071 04       		.byte	0x4
 1151 0072 05       		.byte	0x5
 1152 0073 EF000000 		.4byte	.LASF8
 1153 0077 03       		.uleb128 0x3
 1154 0078 F0010000 		.4byte	.LASF9
 1155 007c 03       		.byte	0x3
 1156 007d 38       		.byte	0x38
 1157 007e 82000000 		.4byte	0x82
 1158 0082 04       		.uleb128 0x4
 1159 0083 04       		.byte	0x4
 1160 0084 07       		.byte	0x7
 1161 0085 8F020000 		.4byte	.LASF10
 1162 0089 04       		.uleb128 0x4
 1163 008a 08       		.byte	0x8
 1164 008b 05       		.byte	0x5
 1165 008c 7F000000 		.4byte	.LASF11
 1166 0090 04       		.uleb128 0x4
 1167 0091 08       		.byte	0x8
 1168 0092 07       		.byte	0x7
 1169 0093 47000000 		.4byte	.LASF12
 1170 0097 03       		.uleb128 0x3
 1171 0098 A1050000 		.4byte	.LASF13
 1172 009c 04       		.byte	0x4
 1173 009d 2A       		.byte	0x2a
 1174 009e 45000000 		.4byte	0x45
 1175 00a2 03       		.uleb128 0x3
ARM GAS  /tmp/ccrU0Ftr.s 			page 22


 1176 00a3 51040000 		.4byte	.LASF14
 1177 00a7 04       		.byte	0x4
 1178 00a8 41       		.byte	0x41
 1179 00a9 65000000 		.4byte	0x65
 1180 00ad 03       		.uleb128 0x3
 1181 00ae E7040000 		.4byte	.LASF15
 1182 00b2 04       		.byte	0x4
 1183 00b3 42       		.byte	0x42
 1184 00b4 77000000 		.4byte	0x77
 1185 00b8 03       		.uleb128 0x3
 1186 00b9 B1000000 		.4byte	.LASF16
 1187 00bd 05       		.byte	0x5
 1188 00be 2B       		.byte	0x2b
 1189 00bf C3000000 		.4byte	0xc3
 1190 00c3 04       		.uleb128 0x4
 1191 00c4 01       		.byte	0x1
 1192 00c5 02       		.byte	0x2
 1193 00c6 4B040000 		.4byte	.LASF17
 1194 00ca 03       		.uleb128 0x3
 1195 00cb F7020000 		.4byte	.LASF18
 1196 00cf 05       		.byte	0x5
 1197 00d0 2C       		.byte	0x2c
 1198 00d1 97000000 		.4byte	0x97
 1199 00d5 03       		.uleb128 0x3
 1200 00d6 04010000 		.4byte	.LASF19
 1201 00da 05       		.byte	0x5
 1202 00db 2D       		.byte	0x2d
 1203 00dc 97000000 		.4byte	0x97
 1204 00e0 03       		.uleb128 0x3
 1205 00e1 2C040000 		.4byte	.LASF20
 1206 00e5 05       		.byte	0x5
 1207 00e6 2E       		.byte	0x2e
 1208 00e7 97000000 		.4byte	0x97
 1209 00eb 03       		.uleb128 0x3
 1210 00ec D8000000 		.4byte	.LASF21
 1211 00f0 05       		.byte	0x5
 1212 00f1 2F       		.byte	0x2f
 1213 00f2 97000000 		.4byte	0x97
 1214 00f6 03       		.uleb128 0x3
 1215 00f7 43040000 		.4byte	.LASF22
 1216 00fb 05       		.byte	0x5
 1217 00fc 30       		.byte	0x30
 1218 00fd AD000000 		.4byte	0xad
 1219 0101 03       		.uleb128 0x3
 1220 0102 E9020000 		.4byte	.LASF23
 1221 0106 05       		.byte	0x5
 1222 0107 31       		.byte	0x31
 1223 0108 A2000000 		.4byte	0xa2
 1224 010c 03       		.uleb128 0x3
 1225 010d 0B030000 		.4byte	.LASF24
 1226 0111 05       		.byte	0x5
 1227 0112 33       		.byte	0x33
 1228 0113 AD000000 		.4byte	0xad
 1229 0117 03       		.uleb128 0x3
 1230 0118 21050000 		.4byte	.LASF25
 1231 011c 05       		.byte	0x5
 1232 011d 35       		.byte	0x35
ARM GAS  /tmp/ccrU0Ftr.s 			page 23


 1233 011e AD000000 		.4byte	0xad
 1234 0122 03       		.uleb128 0x3
 1235 0123 32020000 		.4byte	.LASF26
 1236 0127 05       		.byte	0x5
 1237 0128 36       		.byte	0x36
 1238 0129 A2000000 		.4byte	0xa2
 1239 012d 03       		.uleb128 0x3
 1240 012e CC040000 		.4byte	.LASF27
 1241 0132 06       		.byte	0x6
 1242 0133 2A       		.byte	0x2a
 1243 0134 38010000 		.4byte	0x138
 1244 0138 05       		.uleb128 0x5
 1245 0139 CC040000 		.4byte	.LASF27
 1246 013d 48       		.byte	0x48
 1247 013e 07       		.byte	0x7
 1248 013f 5E       		.byte	0x5e
 1249 0140 35020000 		.4byte	0x235
 1250 0144 06       		.uleb128 0x6
 1251 0145 BD040000 		.4byte	.LASF28
 1252 0149 07       		.byte	0x7
 1253 014a 5F       		.byte	0x5f
 1254 014b 56020000 		.4byte	0x256
 1255 014f 00       		.byte	0
 1256 0150 06       		.uleb128 0x6
 1257 0151 34040000 		.4byte	.LASF29
 1258 0155 07       		.byte	0x7
 1259 0156 61       		.byte	0x61
 1260 0157 56020000 		.4byte	0x256
 1261 015b 04       		.byte	0x4
 1262 015c 06       		.uleb128 0x6
 1263 015d 78000000 		.4byte	.LASF30
 1264 0161 07       		.byte	0x7
 1265 0162 63       		.byte	0x63
 1266 0163 F6000000 		.4byte	0xf6
 1267 0167 08       		.byte	0x8
 1268 0168 06       		.uleb128 0x6
 1269 0169 E5050000 		.4byte	.LASF31
 1270 016d 07       		.byte	0x7
 1271 016e 64       		.byte	0x64
 1272 016f 06030000 		.4byte	0x306
 1273 0173 0C       		.byte	0xc
 1274 0174 06       		.uleb128 0x6
 1275 0175 32010000 		.4byte	.LASF32
 1276 0179 07       		.byte	0x7
 1277 017a 66       		.byte	0x66
 1278 017b 56020000 		.4byte	0x256
 1279 017f 10       		.byte	0x10
 1280 0180 06       		.uleb128 0x6
 1281 0181 7C030000 		.4byte	.LASF33
 1282 0185 07       		.byte	0x7
 1283 0186 67       		.byte	0x67
 1284 0187 56020000 		.4byte	0x256
 1285 018b 14       		.byte	0x14
 1286 018c 06       		.uleb128 0x6
 1287 018d B0050000 		.4byte	.LASF34
 1288 0191 07       		.byte	0x7
 1289 0192 6E       		.byte	0x6e
ARM GAS  /tmp/ccrU0Ftr.s 			page 24


 1290 0193 0E050000 		.4byte	0x50e
 1291 0197 18       		.byte	0x18
 1292 0198 06       		.uleb128 0x6
 1293 0199 95040000 		.4byte	.LASF35
 1294 019d 07       		.byte	0x7
 1295 019e 79       		.byte	0x79
 1296 019f D5000000 		.4byte	0xd5
 1297 01a3 1C       		.byte	0x1c
 1298 01a4 06       		.uleb128 0x6
 1299 01a5 C4040000 		.4byte	.LASF36
 1300 01a9 07       		.byte	0x7
 1301 01aa 7D       		.byte	0x7d
 1302 01ab CA000000 		.4byte	0xca
 1303 01af 1D       		.byte	0x1d
 1304 01b0 06       		.uleb128 0x6
 1305 01b1 8A050000 		.4byte	.LASF37
 1306 01b5 07       		.byte	0x7
 1307 01b6 82       		.byte	0x82
 1308 01b7 E0000000 		.4byte	0xe0
 1309 01bb 1E       		.byte	0x1e
 1310 01bc 06       		.uleb128 0x6
 1311 01bd 9D040000 		.4byte	.LASF38
 1312 01c1 07       		.byte	0x7
 1313 01c2 88       		.byte	0x88
 1314 01c3 EB000000 		.4byte	0xeb
 1315 01c7 1F       		.byte	0x1f
 1316 01c8 06       		.uleb128 0x6
 1317 01c9 4A050000 		.4byte	.LASF39
 1318 01cd 07       		.byte	0x7
 1319 01ce 8F       		.byte	0x8f
 1320 01cf DB030000 		.4byte	0x3db
 1321 01d3 20       		.byte	0x20
 1322 01d4 07       		.uleb128 0x7
 1323 01d5 705F7500 		.ascii	"p_u\000"
 1324 01d9 07       		.byte	0x7
 1325 01da B4       		.byte	0xb4
 1326 01db D9040000 		.4byte	0x4d9
 1327 01df 24       		.byte	0x24
 1328 01e0 06       		.uleb128 0x6
 1329 01e1 EB050000 		.4byte	.LASF40
 1330 01e5 07       		.byte	0x7
 1331 01e6 B9       		.byte	0xb9
 1332 01e7 7C020000 		.4byte	0x27c
 1333 01eb 28       		.byte	0x28
 1334 01ec 06       		.uleb128 0x6
 1335 01ed 58050000 		.4byte	.LASF41
 1336 01f1 07       		.byte	0x7
 1337 01f2 BF       		.byte	0xbf
 1338 01f3 5C020000 		.4byte	0x25c
 1339 01f7 2C       		.byte	0x2c
 1340 01f8 06       		.uleb128 0x6
 1341 01f9 08000000 		.4byte	.LASF42
 1342 01fd 07       		.byte	0x7
 1343 01fe C3       		.byte	0xc3
 1344 01ff 01010000 		.4byte	0x101
 1345 0203 34       		.byte	0x34
 1346 0204 06       		.uleb128 0x6
ARM GAS  /tmp/ccrU0Ftr.s 			page 25


 1347 0205 DC040000 		.4byte	.LASF43
 1348 0209 07       		.byte	0x7
 1349 020a C9       		.byte	0xc9
 1350 020b 0C010000 		.4byte	0x10c
 1351 020f 38       		.byte	0x38
 1352 0210 06       		.uleb128 0x6
 1353 0211 76040000 		.4byte	.LASF44
 1354 0215 07       		.byte	0x7
 1355 0216 D0       		.byte	0xd0
 1356 0217 20050000 		.4byte	0x520
 1357 021b 3C       		.byte	0x3c
 1358 021c 06       		.uleb128 0x6
 1359 021d 2B050000 		.4byte	.LASF45
 1360 0221 07       		.byte	0x7
 1361 0222 D4       		.byte	0xd4
 1362 0223 F6000000 		.4byte	0xf6
 1363 0227 40       		.byte	0x40
 1364 0228 06       		.uleb128 0x6
 1365 0229 A9000000 		.4byte	.LASF46
 1366 022d 07       		.byte	0x7
 1367 022e DA       		.byte	0xda
 1368 022f 92020000 		.4byte	0x292
 1369 0233 44       		.byte	0x44
 1370 0234 00       		.byte	0
 1371 0235 08       		.uleb128 0x8
 1372 0236 08       		.byte	0x8
 1373 0237 06       		.byte	0x6
 1374 0238 61       		.byte	0x61
 1375 0239 56020000 		.4byte	0x256
 1376 023d 06       		.uleb128 0x6
 1377 023e BD040000 		.4byte	.LASF28
 1378 0242 06       		.byte	0x6
 1379 0243 62       		.byte	0x62
 1380 0244 56020000 		.4byte	0x256
 1381 0248 00       		.byte	0
 1382 0249 06       		.uleb128 0x6
 1383 024a 34040000 		.4byte	.LASF29
 1384 024e 06       		.byte	0x6
 1385 024f 64       		.byte	0x64
 1386 0250 56020000 		.4byte	0x256
 1387 0254 04       		.byte	0x4
 1388 0255 00       		.byte	0
 1389 0256 09       		.uleb128 0x9
 1390 0257 04       		.byte	0x4
 1391 0258 2D010000 		.4byte	0x12d
 1392 025c 03       		.uleb128 0x3
 1393 025d A2030000 		.4byte	.LASF47
 1394 0261 06       		.byte	0x6
 1395 0262 66       		.byte	0x66
 1396 0263 35020000 		.4byte	0x235
 1397 0267 08       		.uleb128 0x8
 1398 0268 04       		.byte	0x4
 1399 0269 06       		.byte	0x6
 1400 026a 6B       		.byte	0x6b
 1401 026b 7C020000 		.4byte	0x27c
 1402 026f 06       		.uleb128 0x6
 1403 0270 BD040000 		.4byte	.LASF28
ARM GAS  /tmp/ccrU0Ftr.s 			page 26


 1404 0274 06       		.byte	0x6
 1405 0275 6D       		.byte	0x6d
 1406 0276 56020000 		.4byte	0x256
 1407 027a 00       		.byte	0
 1408 027b 00       		.byte	0
 1409 027c 03       		.uleb128 0x3
 1410 027d FF020000 		.4byte	.LASF48
 1411 0281 06       		.byte	0x6
 1412 0282 70       		.byte	0x70
 1413 0283 67020000 		.4byte	0x267
 1414 0287 03       		.uleb128 0x3
 1415 0288 FB010000 		.4byte	.LASF49
 1416 028c 08       		.byte	0x8
 1417 028d A7       		.byte	0xa7
 1418 028e 92020000 		.4byte	0x292
 1419 0292 0A       		.uleb128 0xa
 1420 0293 04       		.byte	0x4
 1421 0294 05       		.uleb128 0x5
 1422 0295 51050000 		.4byte	.LASF50
 1423 0299 24       		.byte	0x24
 1424 029a 08       		.byte	0x8
 1425 029b BA       		.byte	0xba
 1426 029c 06030000 		.4byte	0x306
 1427 02a0 07       		.uleb128 0x7
 1428 02a1 723800   		.ascii	"r8\000"
 1429 02a4 08       		.byte	0x8
 1430 02a5 BB       		.byte	0xbb
 1431 02a6 87020000 		.4byte	0x287
 1432 02aa 00       		.byte	0
 1433 02ab 07       		.uleb128 0x7
 1434 02ac 723900   		.ascii	"r9\000"
 1435 02af 08       		.byte	0x8
 1436 02b0 BC       		.byte	0xbc
 1437 02b1 87020000 		.4byte	0x287
 1438 02b5 04       		.byte	0x4
 1439 02b6 07       		.uleb128 0x7
 1440 02b7 72313000 		.ascii	"r10\000"
 1441 02bb 08       		.byte	0x8
 1442 02bc BD       		.byte	0xbd
 1443 02bd 87020000 		.4byte	0x287
 1444 02c1 08       		.byte	0x8
 1445 02c2 07       		.uleb128 0x7
 1446 02c3 72313100 		.ascii	"r11\000"
 1447 02c7 08       		.byte	0x8
 1448 02c8 BE       		.byte	0xbe
 1449 02c9 87020000 		.4byte	0x287
 1450 02cd 0C       		.byte	0xc
 1451 02ce 07       		.uleb128 0x7
 1452 02cf 723400   		.ascii	"r4\000"
 1453 02d2 08       		.byte	0x8
 1454 02d3 BF       		.byte	0xbf
 1455 02d4 87020000 		.4byte	0x287
 1456 02d8 10       		.byte	0x10
 1457 02d9 07       		.uleb128 0x7
 1458 02da 723500   		.ascii	"r5\000"
 1459 02dd 08       		.byte	0x8
 1460 02de C0       		.byte	0xc0
ARM GAS  /tmp/ccrU0Ftr.s 			page 27


 1461 02df 87020000 		.4byte	0x287
 1462 02e3 14       		.byte	0x14
 1463 02e4 07       		.uleb128 0x7
 1464 02e5 723600   		.ascii	"r6\000"
 1465 02e8 08       		.byte	0x8
 1466 02e9 C1       		.byte	0xc1
 1467 02ea 87020000 		.4byte	0x287
 1468 02ee 18       		.byte	0x18
 1469 02ef 07       		.uleb128 0x7
 1470 02f0 723700   		.ascii	"r7\000"
 1471 02f3 08       		.byte	0x8
 1472 02f4 C2       		.byte	0xc2
 1473 02f5 87020000 		.4byte	0x287
 1474 02f9 1C       		.byte	0x1c
 1475 02fa 07       		.uleb128 0x7
 1476 02fb 6C7200   		.ascii	"lr\000"
 1477 02fe 08       		.byte	0x8
 1478 02ff C3       		.byte	0xc3
 1479 0300 87020000 		.4byte	0x287
 1480 0304 20       		.byte	0x20
 1481 0305 00       		.byte	0
 1482 0306 05       		.uleb128 0x5
 1483 0307 BE020000 		.4byte	.LASF51
 1484 030b 04       		.byte	0x4
 1485 030c 08       		.byte	0x8
 1486 030d CD       		.byte	0xcd
 1487 030e 1F030000 		.4byte	0x31f
 1488 0312 07       		.uleb128 0x7
 1489 0313 72313300 		.ascii	"r13\000"
 1490 0317 08       		.byte	0x8
 1491 0318 CE       		.byte	0xce
 1492 0319 1F030000 		.4byte	0x31f
 1493 031d 00       		.byte	0
 1494 031e 00       		.byte	0
 1495 031f 09       		.uleb128 0x9
 1496 0320 04       		.byte	0x4
 1497 0321 94020000 		.4byte	0x294
 1498 0325 04       		.uleb128 0x4
 1499 0326 04       		.byte	0x4
 1500 0327 07       		.byte	0x7
 1501 0328 4E030000 		.4byte	.LASF52
 1502 032c 03       		.uleb128 0x3
 1503 032d AA020000 		.4byte	.LASF53
 1504 0331 09       		.byte	0x9
 1505 0332 58       		.byte	0x58
 1506 0333 37030000 		.4byte	0x337
 1507 0337 09       		.uleb128 0x9
 1508 0338 04       		.byte	0x4
 1509 0339 3D030000 		.4byte	0x33d
 1510 033d 0B       		.uleb128 0xb
 1511 033e 48030000 		.4byte	0x348
 1512 0342 0C       		.uleb128 0xc
 1513 0343 92020000 		.4byte	0x292
 1514 0347 00       		.byte	0
 1515 0348 03       		.uleb128 0x3
 1516 0349 F8040000 		.4byte	.LASF54
 1517 034d 09       		.byte	0x9
ARM GAS  /tmp/ccrU0Ftr.s 			page 28


 1518 034e 5D       		.byte	0x5d
 1519 034f 53030000 		.4byte	0x353
 1520 0353 05       		.uleb128 0x5
 1521 0354 F8040000 		.4byte	.LASF54
 1522 0358 14       		.byte	0x14
 1523 0359 09       		.byte	0x9
 1524 035a 64       		.byte	0x64
 1525 035b 9C030000 		.4byte	0x39c
 1526 035f 06       		.uleb128 0x6
 1527 0360 56020000 		.4byte	.LASF55
 1528 0364 09       		.byte	0x9
 1529 0365 65       		.byte	0x65
 1530 0366 9C030000 		.4byte	0x39c
 1531 036a 00       		.byte	0
 1532 036b 06       		.uleb128 0x6
 1533 036c 04020000 		.4byte	.LASF56
 1534 0370 09       		.byte	0x9
 1535 0371 67       		.byte	0x67
 1536 0372 9C030000 		.4byte	0x39c
 1537 0376 04       		.byte	0x4
 1538 0377 06       		.uleb128 0x6
 1539 0378 46030000 		.4byte	.LASF57
 1540 037c 09       		.byte	0x9
 1541 037d 69       		.byte	0x69
 1542 037e 17010000 		.4byte	0x117
 1543 0382 08       		.byte	0x8
 1544 0383 06       		.uleb128 0x6
 1545 0384 57030000 		.4byte	.LASF58
 1546 0388 09       		.byte	0x9
 1547 0389 6A       		.byte	0x6a
 1548 038a 2C030000 		.4byte	0x32c
 1549 038e 0C       		.byte	0xc
 1550 038f 06       		.uleb128 0x6
 1551 0390 63050000 		.4byte	.LASF59
 1552 0394 09       		.byte	0x9
 1553 0395 6C       		.byte	0x6c
 1554 0396 92020000 		.4byte	0x292
 1555 039a 10       		.byte	0x10
 1556 039b 00       		.byte	0
 1557 039c 09       		.uleb128 0x9
 1558 039d 04       		.byte	0x4
 1559 039e 48030000 		.4byte	0x348
 1560 03a2 08       		.uleb128 0x8
 1561 03a3 10       		.byte	0x10
 1562 03a4 09       		.byte	0x9
 1563 03a5 76       		.byte	0x76
 1564 03a6 DB030000 		.4byte	0x3db
 1565 03aa 06       		.uleb128 0x6
 1566 03ab 56020000 		.4byte	.LASF55
 1567 03af 09       		.byte	0x9
 1568 03b0 77       		.byte	0x77
 1569 03b1 9C030000 		.4byte	0x39c
 1570 03b5 00       		.byte	0
 1571 03b6 06       		.uleb128 0x6
 1572 03b7 04020000 		.4byte	.LASF56
 1573 03bb 09       		.byte	0x9
 1574 03bc 79       		.byte	0x79
ARM GAS  /tmp/ccrU0Ftr.s 			page 29


 1575 03bd 9C030000 		.4byte	0x39c
 1576 03c1 04       		.byte	0x4
 1577 03c2 06       		.uleb128 0x6
 1578 03c3 46030000 		.4byte	.LASF57
 1579 03c7 09       		.byte	0x9
 1580 03c8 7B       		.byte	0x7b
 1581 03c9 17010000 		.4byte	0x117
 1582 03cd 08       		.byte	0x8
 1583 03ce 06       		.uleb128 0x6
 1584 03cf C4050000 		.4byte	.LASF60
 1585 03d3 09       		.byte	0x9
 1586 03d4 7C       		.byte	0x7c
 1587 03d5 DB030000 		.4byte	0x3db
 1588 03d9 0C       		.byte	0xc
 1589 03da 00       		.byte	0
 1590 03db 0D       		.uleb128 0xd
 1591 03dc 17010000 		.4byte	0x117
 1592 03e0 03       		.uleb128 0x3
 1593 03e1 D6050000 		.4byte	.LASF61
 1594 03e5 09       		.byte	0x9
 1595 03e6 7D       		.byte	0x7d
 1596 03e7 A2030000 		.4byte	0x3a2
 1597 03eb 08       		.uleb128 0x8
 1598 03ec 1C       		.byte	0x1c
 1599 03ed 0A       		.byte	0xa
 1600 03ee 5E       		.byte	0x5e
 1601 03ef 3C040000 		.4byte	0x43c
 1602 03f3 06       		.uleb128 0x6
 1603 03f4 F0040000 		.4byte	.LASF62
 1604 03f8 0A       		.byte	0xa
 1605 03f9 5F       		.byte	0x5f
 1606 03fa 5C020000 		.4byte	0x25c
 1607 03fe 00       		.byte	0
 1608 03ff 06       		.uleb128 0x6
 1609 0400 AF040000 		.4byte	.LASF63
 1610 0404 0A       		.byte	0xa
 1611 0405 60       		.byte	0x60
 1612 0406 F6000000 		.4byte	0xf6
 1613 040a 08       		.byte	0x8
 1614 040b 06       		.uleb128 0x6
 1615 040c 94030000 		.4byte	.LASF64
 1616 0410 0A       		.byte	0xa
 1617 0411 62       		.byte	0x62
 1618 0412 06030000 		.4byte	0x306
 1619 0416 0C       		.byte	0xc
 1620 0417 06       		.uleb128 0x6
 1621 0418 EF020000 		.4byte	.LASF65
 1622 041c 0A       		.byte	0xa
 1623 041d 65       		.byte	0x65
 1624 041e 56020000 		.4byte	0x256
 1625 0422 10       		.byte	0x10
 1626 0423 06       		.uleb128 0x6
 1627 0424 19040000 		.4byte	.LASF66
 1628 0428 0A       		.byte	0xa
 1629 0429 66       		.byte	0x66
 1630 042a 56020000 		.4byte	0x256
 1631 042e 14       		.byte	0x14
ARM GAS  /tmp/ccrU0Ftr.s 			page 30


 1632 042f 06       		.uleb128 0x6
 1633 0430 0F040000 		.4byte	.LASF67
 1634 0434 0A       		.byte	0xa
 1635 0435 69       		.byte	0x69
 1636 0436 56020000 		.4byte	0x256
 1637 043a 18       		.byte	0x18
 1638 043b 00       		.byte	0
 1639 043c 03       		.uleb128 0x3
 1640 043d 91050000 		.4byte	.LASF68
 1641 0441 0A       		.byte	0xa
 1642 0442 6B       		.byte	0x6b
 1643 0443 EB030000 		.4byte	0x3eb
 1644 0447 05       		.uleb128 0x5
 1645 0448 6A050000 		.4byte	.LASF69
 1646 044c 0C       		.byte	0xc
 1647 044d 0B       		.byte	0xb
 1648 044e 2C       		.byte	0x2c
 1649 044f 6C040000 		.4byte	0x46c
 1650 0453 06       		.uleb128 0x6
 1651 0454 3A010000 		.4byte	.LASF70
 1652 0458 0B       		.byte	0xb
 1653 0459 2D       		.byte	0x2d
 1654 045a 5C020000 		.4byte	0x25c
 1655 045e 00       		.byte	0
 1656 045f 06       		.uleb128 0x6
 1657 0460 B3020000 		.4byte	.LASF71
 1658 0464 0B       		.byte	0xb
 1659 0465 2F       		.byte	0x2f
 1660 0466 22010000 		.4byte	0x122
 1661 046a 08       		.byte	0x8
 1662 046b 00       		.byte	0
 1663 046c 03       		.uleb128 0x3
 1664 046d 6A050000 		.4byte	.LASF69
 1665 0471 0B       		.byte	0xb
 1666 0472 30       		.byte	0x30
 1667 0473 47040000 		.4byte	0x447
 1668 0477 08       		.uleb128 0x8
 1669 0478 0C       		.byte	0xc
 1670 0479 0C       		.byte	0xc
 1671 047a 44       		.byte	0x44
 1672 047b 8C040000 		.4byte	0x48c
 1673 047f 06       		.uleb128 0x6
 1674 0480 CF050000 		.4byte	.LASF72
 1675 0484 0C       		.byte	0xc
 1676 0485 45       		.byte	0x45
 1677 0486 6C040000 		.4byte	0x46c
 1678 048a 00       		.byte	0
 1679 048b 00       		.byte	0
 1680 048c 03       		.uleb128 0x3
 1681 048d 0A050000 		.4byte	.LASF73
 1682 0491 0C       		.byte	0xc
 1683 0492 46       		.byte	0x46
 1684 0493 77040000 		.4byte	0x477
 1685 0497 05       		.uleb128 0x5
 1686 0498 21030000 		.4byte	.LASF74
 1687 049c 10       		.byte	0x10
 1688 049d 0D       		.byte	0xd
ARM GAS  /tmp/ccrU0Ftr.s 			page 31


 1689 049e 2C       		.byte	0x2c
 1690 049f C8040000 		.4byte	0x4c8
 1691 04a3 06       		.uleb128 0x6
 1692 04a4 B8000000 		.4byte	.LASF75
 1693 04a8 0D       		.byte	0xd
 1694 04a9 2D       		.byte	0x2d
 1695 04aa 5C020000 		.4byte	0x25c
 1696 04ae 00       		.byte	0
 1697 04af 06       		.uleb128 0x6
 1698 04b0 DD050000 		.4byte	.LASF76
 1699 04b4 0D       		.byte	0xd
 1700 04b5 2F       		.byte	0x2f
 1701 04b6 56020000 		.4byte	0x256
 1702 04ba 08       		.byte	0x8
 1703 04bb 06       		.uleb128 0x6
 1704 04bc 1A050000 		.4byte	.LASF77
 1705 04c0 0D       		.byte	0xd
 1706 04c1 31       		.byte	0x31
 1707 04c2 C8040000 		.4byte	0x4c8
 1708 04c6 0C       		.byte	0xc
 1709 04c7 00       		.byte	0
 1710 04c8 09       		.uleb128 0x9
 1711 04c9 04       		.byte	0x4
 1712 04ca 97040000 		.4byte	0x497
 1713 04ce 03       		.uleb128 0x3
 1714 04cf 21030000 		.4byte	.LASF74
 1715 04d3 0D       		.byte	0xd
 1716 04d4 33       		.byte	0x33
 1717 04d5 97040000 		.4byte	0x497
 1718 04d9 0E       		.uleb128 0xe
 1719 04da 04       		.byte	0x4
 1720 04db 07       		.byte	0x7
 1721 04dc 96       		.byte	0x96
 1722 04dd 0E050000 		.4byte	0x50e
 1723 04e1 0F       		.uleb128 0xf
 1724 04e2 22000000 		.4byte	.LASF78
 1725 04e6 07       		.byte	0x7
 1726 04e7 9D       		.byte	0x9d
 1727 04e8 01010000 		.4byte	0x101
 1728 04ec 0F       		.uleb128 0xf
 1729 04ed 5E000000 		.4byte	.LASF79
 1730 04f1 07       		.byte	0x7
 1731 04f2 A4       		.byte	0xa4
 1732 04f3 01010000 		.4byte	0x101
 1733 04f7 0F       		.uleb128 0xf
 1734 04f8 A9050000 		.4byte	.LASF80
 1735 04fc 07       		.byte	0x7
 1736 04fd AB       		.byte	0xab
 1737 04fe 92020000 		.4byte	0x292
 1738 0502 0F       		.uleb128 0xf
 1739 0503 B6040000 		.4byte	.LASF81
 1740 0507 07       		.byte	0x7
 1741 0508 B2       		.byte	0xb2
 1742 0509 0C010000 		.4byte	0x10c
 1743 050d 00       		.byte	0
 1744 050e 09       		.uleb128 0x9
 1745 050f 04       		.byte	0x4
ARM GAS  /tmp/ccrU0Ftr.s 			page 32


 1746 0510 14050000 		.4byte	0x514
 1747 0514 10       		.uleb128 0x10
 1748 0515 19050000 		.4byte	0x519
 1749 0519 04       		.uleb128 0x4
 1750 051a 01       		.byte	0x1
 1751 051b 08       		.byte	0x8
 1752 051c 05050000 		.4byte	.LASF82
 1753 0520 09       		.uleb128 0x9
 1754 0521 04       		.byte	0x4
 1755 0522 CE040000 		.4byte	0x4ce
 1756 0526 03       		.uleb128 0x3
 1757 0527 00000000 		.4byte	.LASF83
 1758 052b 07       		.byte	0x7
 1759 052c E5       		.byte	0xe5
 1760 052d 31050000 		.4byte	0x531
 1761 0531 09       		.uleb128 0x9
 1762 0532 04       		.byte	0x4
 1763 0533 37050000 		.4byte	0x537
 1764 0537 11       		.uleb128 0x11
 1765 0538 01010000 		.4byte	0x101
 1766 053c 46050000 		.4byte	0x546
 1767 0540 0C       		.uleb128 0xc
 1768 0541 92020000 		.4byte	0x292
 1769 0545 00       		.byte	0
 1770 0546 05       		.uleb128 0x5
 1771 0547 D3040000 		.4byte	.LASF84
 1772 054b 10       		.byte	0x10
 1773 054c 0E       		.byte	0xe
 1774 054d 3B       		.byte	0x3b
 1775 054e 83050000 		.4byte	0x583
 1776 0552 06       		.uleb128 0x6
 1777 0553 B9020000 		.4byte	.LASF85
 1778 0557 0E       		.byte	0xe
 1779 0558 3C       		.byte	0x3c
 1780 0559 0E050000 		.4byte	0x50e
 1781 055d 00       		.byte	0
 1782 055e 06       		.uleb128 0x6
 1783 055f AF030000 		.4byte	.LASF86
 1784 0563 0E       		.byte	0xe
 1785 0564 3D       		.byte	0x3d
 1786 0565 84050000 		.4byte	0x584
 1787 0569 04       		.byte	0x4
 1788 056a 06       		.uleb128 0x6
 1789 056b A1020000 		.4byte	.LASF87
 1790 056f 0E       		.byte	0xe
 1791 0570 3E       		.byte	0x3e
 1792 0571 84050000 		.4byte	0x584
 1793 0575 08       		.byte	0x8
 1794 0576 06       		.uleb128 0x6
 1795 0577 3B040000 		.4byte	.LASF88
 1796 057b 0E       		.byte	0xe
 1797 057c 3F       		.byte	0x3f
 1798 057d 84050000 		.4byte	0x584
 1799 0581 0C       		.byte	0xc
 1800 0582 00       		.byte	0
 1801 0583 12       		.uleb128 0x12
 1802 0584 09       		.uleb128 0x9
ARM GAS  /tmp/ccrU0Ftr.s 			page 33


 1803 0585 04       		.byte	0x4
 1804 0586 83050000 		.4byte	0x583
 1805 058a 13       		.uleb128 0x13
 1806 058b E2000000 		.4byte	.LASF128
 1807 058f 01       		.byte	0x1
 1808 0590 91       		.byte	0x91
 1809 0591 01       		.byte	0x1
 1810 0592 B6050000 		.4byte	0x5b6
 1811 0596 14       		.uleb128 0x14
 1812 0597 6900     		.ascii	"i\000"
 1813 0599 01       		.byte	0x1
 1814 059a 92       		.byte	0x92
 1815 059b 25000000 		.4byte	0x25
 1816 059f 15       		.uleb128 0x15
 1817 05a0 F8000000 		.4byte	.LASF89
 1818 05a4 01       		.byte	0x1
 1819 05a5 93       		.byte	0x93
 1820 05a6 17010000 		.4byte	0x117
 1821 05aa 14       		.uleb128 0x14
 1822 05ab 6D736700 		.ascii	"msg\000"
 1823 05af 01       		.byte	0x1
 1824 05b0 94       		.byte	0x94
 1825 05b1 01010000 		.4byte	0x101
 1826 05b5 00       		.byte	0
 1827 05b6 16       		.uleb128 0x16
 1828 05b7 5E020000 		.4byte	.LASF129
 1829 05bb 01       		.byte	0x1
 1830 05bc DA       		.byte	0xda
 1831 05bd 01       		.byte	0x1
 1832 05be 17       		.uleb128 0x17
 1833 05bf 29000000 		.4byte	.LASF92
 1834 05c3 01       		.byte	0x1
 1835 05c4 54       		.byte	0x54
 1836 05c5 00000000 		.4byte	.LFB9
 1837 05c9 40010000 		.4byte	.LFE9-.LFB9
 1838 05cd 01       		.uleb128 0x1
 1839 05ce 9C       		.byte	0x9c
 1840 05cf 98070000 		.4byte	0x798
 1841 05d3 18       		.uleb128 0x18
 1842 05d4 2A000000 		.4byte	.LVL0
 1843 05d8 C60D0000 		.4byte	0xdc6
 1844 05dc FC050000 		.4byte	0x5fc
 1845 05e0 19       		.uleb128 0x19
 1846 05e1 01       		.uleb128 0x1
 1847 05e2 53       		.byte	0x53
 1848 05e3 02       		.uleb128 0x2
 1849 05e4 76       		.byte	0x76
 1850 05e5 00       		.sleb128 0
 1851 05e6 19       		.uleb128 0x19
 1852 05e7 01       		.uleb128 0x1
 1853 05e8 51       		.byte	0x51
 1854 05e9 03       		.uleb128 0x3
 1855 05ea 0A       		.byte	0xa
 1856 05eb 3001     		.2byte	0x130
 1857 05ed 19       		.uleb128 0x19
 1858 05ee 01       		.uleb128 0x1
 1859 05ef 50       		.byte	0x50
ARM GAS  /tmp/ccrU0Ftr.s 			page 34


 1860 05f0 03       		.uleb128 0x3
 1861 05f1 74       		.byte	0x74
 1862 05f2 00       		.sleb128 0
 1863 05f3 06       		.byte	0x6
 1864 05f4 19       		.uleb128 0x19
 1865 05f5 02       		.uleb128 0x2
 1866 05f6 7D       		.byte	0x7d
 1867 05f7 00       		.sleb128 0
 1868 05f8 02       		.uleb128 0x2
 1869 05f9 78       		.byte	0x78
 1870 05fa 00       		.sleb128 0
 1871 05fb 00       		.byte	0
 1872 05fc 18       		.uleb128 0x18
 1873 05fd 48000000 		.4byte	.LVL1
 1874 0601 C60D0000 		.4byte	0xdc6
 1875 0605 28060000 		.4byte	0x628
 1876 0609 19       		.uleb128 0x19
 1877 060a 01       		.uleb128 0x1
 1878 060b 53       		.byte	0x53
 1879 060c 02       		.uleb128 0x2
 1880 060d 76       		.byte	0x76
 1881 060e 00       		.sleb128 0
 1882 060f 19       		.uleb128 0x19
 1883 0610 01       		.uleb128 0x1
 1884 0611 51       		.byte	0x51
 1885 0612 03       		.uleb128 0x3
 1886 0613 0A       		.byte	0xa
 1887 0614 3001     		.2byte	0x130
 1888 0616 19       		.uleb128 0x19
 1889 0617 01       		.uleb128 0x1
 1890 0618 50       		.byte	0x50
 1891 0619 03       		.uleb128 0x3
 1892 061a 74       		.byte	0x74
 1893 061b 04       		.sleb128 4
 1894 061c 06       		.byte	0x6
 1895 061d 19       		.uleb128 0x19
 1896 061e 02       		.uleb128 0x2
 1897 061f 7D       		.byte	0x7d
 1898 0620 00       		.sleb128 0
 1899 0621 05       		.uleb128 0x5
 1900 0622 03       		.byte	0x3
 1901 0623 04000000 		.4byte	.LC6
 1902 0627 00       		.byte	0
 1903 0628 18       		.uleb128 0x18
 1904 0629 64000000 		.4byte	.LVL2
 1905 062d C60D0000 		.4byte	0xdc6
 1906 0631 54060000 		.4byte	0x654
 1907 0635 19       		.uleb128 0x19
 1908 0636 01       		.uleb128 0x1
 1909 0637 53       		.byte	0x53
 1910 0638 02       		.uleb128 0x2
 1911 0639 76       		.byte	0x76
 1912 063a 00       		.sleb128 0
 1913 063b 19       		.uleb128 0x19
 1914 063c 01       		.uleb128 0x1
 1915 063d 51       		.byte	0x51
 1916 063e 03       		.uleb128 0x3
ARM GAS  /tmp/ccrU0Ftr.s 			page 35


 1917 063f 0A       		.byte	0xa
 1918 0640 3001     		.2byte	0x130
 1919 0642 19       		.uleb128 0x19
 1920 0643 01       		.uleb128 0x1
 1921 0644 50       		.byte	0x50
 1922 0645 03       		.uleb128 0x3
 1923 0646 91       		.byte	0x91
 1924 0647 60       		.sleb128 -32
 1925 0648 06       		.byte	0x6
 1926 0649 19       		.uleb128 0x19
 1927 064a 02       		.uleb128 0x2
 1928 064b 7D       		.byte	0x7d
 1929 064c 00       		.sleb128 0
 1930 064d 05       		.uleb128 0x5
 1931 064e 03       		.byte	0x3
 1932 064f 08000000 		.4byte	.LC8
 1933 0653 00       		.byte	0
 1934 0654 18       		.uleb128 0x18
 1935 0655 80000000 		.4byte	.LVL3
 1936 0659 C60D0000 		.4byte	0xdc6
 1937 065d 80060000 		.4byte	0x680
 1938 0661 19       		.uleb128 0x19
 1939 0662 01       		.uleb128 0x1
 1940 0663 53       		.byte	0x53
 1941 0664 02       		.uleb128 0x2
 1942 0665 76       		.byte	0x76
 1943 0666 00       		.sleb128 0
 1944 0667 19       		.uleb128 0x19
 1945 0668 01       		.uleb128 0x1
 1946 0669 51       		.byte	0x51
 1947 066a 03       		.uleb128 0x3
 1948 066b 0A       		.byte	0xa
 1949 066c 3001     		.2byte	0x130
 1950 066e 19       		.uleb128 0x19
 1951 066f 01       		.uleb128 0x1
 1952 0670 50       		.byte	0x50
 1953 0671 03       		.uleb128 0x3
 1954 0672 91       		.byte	0x91
 1955 0673 60       		.sleb128 -32
 1956 0674 06       		.byte	0x6
 1957 0675 19       		.uleb128 0x19
 1958 0676 02       		.uleb128 0x2
 1959 0677 7D       		.byte	0x7d
 1960 0678 00       		.sleb128 0
 1961 0679 05       		.uleb128 0x5
 1962 067a 03       		.byte	0x3
 1963 067b 0C000000 		.4byte	.LC10
 1964 067f 00       		.byte	0
 1965 0680 18       		.uleb128 0x18
 1966 0681 9C000000 		.4byte	.LVL4
 1967 0685 C60D0000 		.4byte	0xdc6
 1968 0689 AB060000 		.4byte	0x6ab
 1969 068d 19       		.uleb128 0x19
 1970 068e 01       		.uleb128 0x1
 1971 068f 53       		.byte	0x53
 1972 0690 02       		.uleb128 0x2
 1973 0691 76       		.byte	0x76
ARM GAS  /tmp/ccrU0Ftr.s 			page 36


 1974 0692 00       		.sleb128 0
 1975 0693 19       		.uleb128 0x19
 1976 0694 01       		.uleb128 0x1
 1977 0695 51       		.byte	0x51
 1978 0696 03       		.uleb128 0x3
 1979 0697 0A       		.byte	0xa
 1980 0698 3001     		.2byte	0x130
 1981 069a 19       		.uleb128 0x19
 1982 069b 01       		.uleb128 0x1
 1983 069c 50       		.byte	0x50
 1984 069d 02       		.uleb128 0x2
 1985 069e 74       		.byte	0x74
 1986 069f 00       		.sleb128 0
 1987 06a0 19       		.uleb128 0x19
 1988 06a1 02       		.uleb128 0x2
 1989 06a2 7D       		.byte	0x7d
 1990 06a3 00       		.sleb128 0
 1991 06a4 05       		.uleb128 0x5
 1992 06a5 03       		.byte	0x3
 1993 06a6 10000000 		.4byte	.LC12
 1994 06aa 00       		.byte	0
 1995 06ab 18       		.uleb128 0x18
 1996 06ac A6000000 		.4byte	.LVL5
 1997 06b0 F00D0000 		.4byte	0xdf0
 1998 06b4 BF060000 		.4byte	0x6bf
 1999 06b8 19       		.uleb128 0x19
 2000 06b9 01       		.uleb128 0x1
 2001 06ba 50       		.byte	0x50
 2002 06bb 02       		.uleb128 0x2
 2003 06bc 74       		.byte	0x74
 2004 06bd 00       		.sleb128 0
 2005 06be 00       		.byte	0
 2006 06bf 18       		.uleb128 0x18
 2007 06c0 AC000000 		.4byte	.LVL6
 2008 06c4 F00D0000 		.4byte	0xdf0
 2009 06c8 D3060000 		.4byte	0x6d3
 2010 06cc 19       		.uleb128 0x19
 2011 06cd 01       		.uleb128 0x1
 2012 06ce 50       		.byte	0x50
 2013 06cf 02       		.uleb128 0x2
 2014 06d0 74       		.byte	0x74
 2015 06d1 00       		.sleb128 0
 2016 06d2 00       		.byte	0
 2017 06d3 18       		.uleb128 0x18
 2018 06d4 B2000000 		.4byte	.LVL7
 2019 06d8 F00D0000 		.4byte	0xdf0
 2020 06dc E7060000 		.4byte	0x6e7
 2021 06e0 19       		.uleb128 0x19
 2022 06e1 01       		.uleb128 0x1
 2023 06e2 50       		.byte	0x50
 2024 06e3 02       		.uleb128 0x2
 2025 06e4 74       		.byte	0x74
 2026 06e5 00       		.sleb128 0
 2027 06e6 00       		.byte	0
 2028 06e7 18       		.uleb128 0x18
 2029 06e8 B8000000 		.4byte	.LVL8
 2030 06ec F00D0000 		.4byte	0xdf0
ARM GAS  /tmp/ccrU0Ftr.s 			page 37


 2031 06f0 FB060000 		.4byte	0x6fb
 2032 06f4 19       		.uleb128 0x19
 2033 06f5 01       		.uleb128 0x1
 2034 06f6 50       		.byte	0x50
 2035 06f7 02       		.uleb128 0x2
 2036 06f8 74       		.byte	0x74
 2037 06f9 00       		.sleb128 0
 2038 06fa 00       		.byte	0
 2039 06fb 18       		.uleb128 0x18
 2040 06fc BE000000 		.4byte	.LVL9
 2041 0700 F00D0000 		.4byte	0xdf0
 2042 0704 0F070000 		.4byte	0x70f
 2043 0708 19       		.uleb128 0x19
 2044 0709 01       		.uleb128 0x1
 2045 070a 50       		.byte	0x50
 2046 070b 02       		.uleb128 0x2
 2047 070c 74       		.byte	0x74
 2048 070d 00       		.sleb128 0
 2049 070e 00       		.byte	0
 2050 070f 1A       		.uleb128 0x1a
 2051 0710 C2000000 		.4byte	.LVL10
 2052 0714 070E0000 		.4byte	0xe07
 2053 0718 18       		.uleb128 0x18
 2054 0719 CA000000 		.4byte	.LVL11
 2055 071d 0E0E0000 		.4byte	0xe0e
 2056 0721 34070000 		.4byte	0x734
 2057 0725 19       		.uleb128 0x19
 2058 0726 01       		.uleb128 0x1
 2059 0727 51       		.byte	0x51
 2060 0728 05       		.uleb128 0x5
 2061 0729 03       		.byte	0x3
 2062 072a 14000000 		.4byte	.LC15
 2063 072e 19       		.uleb128 0x19
 2064 072f 01       		.uleb128 0x1
 2065 0730 50       		.byte	0x50
 2066 0731 01       		.uleb128 0x1
 2067 0732 31       		.byte	0x31
 2068 0733 00       		.byte	0
 2069 0734 18       		.uleb128 0x18
 2070 0735 E4000000 		.4byte	.LVL12
 2071 0739 C60D0000 		.4byte	0xdc6
 2072 073d 5D070000 		.4byte	0x75d
 2073 0741 19       		.uleb128 0x19
 2074 0742 01       		.uleb128 0x1
 2075 0743 53       		.byte	0x53
 2076 0744 02       		.uleb128 0x2
 2077 0745 76       		.byte	0x76
 2078 0746 00       		.sleb128 0
 2079 0747 19       		.uleb128 0x19
 2080 0748 01       		.uleb128 0x1
 2081 0749 51       		.byte	0x51
 2082 074a 03       		.uleb128 0x3
 2083 074b 0A       		.byte	0xa
 2084 074c 3001     		.2byte	0x130
 2085 074e 19       		.uleb128 0x19
 2086 074f 01       		.uleb128 0x1
 2087 0750 50       		.byte	0x50
ARM GAS  /tmp/ccrU0Ftr.s 			page 38


 2088 0751 03       		.uleb128 0x3
 2089 0752 91       		.byte	0x91
 2090 0753 64       		.sleb128 -28
 2091 0754 06       		.byte	0x6
 2092 0755 19       		.uleb128 0x19
 2093 0756 02       		.uleb128 0x2
 2094 0757 7D       		.byte	0x7d
 2095 0758 00       		.sleb128 0
 2096 0759 02       		.uleb128 0x2
 2097 075a 78       		.byte	0x78
 2098 075b 00       		.sleb128 0
 2099 075c 00       		.byte	0
 2100 075d 18       		.uleb128 0x18
 2101 075e F0000000 		.4byte	.LVL13
 2102 0762 2E0E0000 		.4byte	0xe2e
 2103 0766 76070000 		.4byte	0x776
 2104 076a 19       		.uleb128 0x19
 2105 076b 01       		.uleb128 0x1
 2106 076c 51       		.byte	0x51
 2107 076d 01       		.uleb128 0x1
 2108 076e 32       		.byte	0x32
 2109 076f 19       		.uleb128 0x19
 2110 0770 01       		.uleb128 0x1
 2111 0771 50       		.byte	0x50
 2112 0772 02       		.uleb128 0x2
 2113 0773 74       		.byte	0x74
 2114 0774 00       		.sleb128 0
 2115 0775 00       		.byte	0
 2116 0776 1A       		.uleb128 0x1a
 2117 0777 F4000000 		.4byte	.LVL14
 2118 077b 440E0000 		.4byte	0xe44
 2119 077f 1A       		.uleb128 0x1a
 2120 0780 FA000000 		.4byte	.LVL15
 2121 0784 070E0000 		.4byte	0xe07
 2122 0788 1B       		.uleb128 0x1b
 2123 0789 0C010000 		.4byte	.LVL16
 2124 078d 4B0E0000 		.4byte	0xe4b
 2125 0791 19       		.uleb128 0x19
 2126 0792 01       		.uleb128 0x1
 2127 0793 50       		.byte	0x50
 2128 0794 01       		.uleb128 0x1
 2129 0795 32       		.byte	0x32
 2130 0796 00       		.byte	0
 2131 0797 00       		.byte	0
 2132 0798 1C       		.uleb128 0x1c
 2133 0799 C0000000 		.4byte	.LASF90
 2134 079d 01       		.byte	0x1
 2135 079e D2       		.byte	0xd2
 2136 079f 01010000 		.4byte	0x101
 2137 07a3 00000000 		.4byte	.LFB14
 2138 07a7 18000000 		.4byte	.LFE14-.LFB14
 2139 07ab 01       		.uleb128 0x1
 2140 07ac 9C       		.byte	0x9c
 2141 07ad E3070000 		.4byte	0x7e3
 2142 07b1 1D       		.uleb128 0x1d
 2143 07b2 7000     		.ascii	"p\000"
 2144 07b4 01       		.byte	0x1
ARM GAS  /tmp/ccrU0Ftr.s 			page 39


 2145 07b5 D2       		.byte	0xd2
 2146 07b6 92020000 		.4byte	0x292
 2147 07ba 00000000 		.4byte	.LLST0
 2148 07be 18       		.uleb128 0x18
 2149 07bf 0A000000 		.4byte	.LVL19
 2150 07c3 650E0000 		.4byte	0xe65
 2151 07c7 D2070000 		.4byte	0x7d2
 2152 07cb 19       		.uleb128 0x19
 2153 07cc 01       		.uleb128 0x1
 2154 07cd 50       		.byte	0x50
 2155 07ce 02       		.uleb128 0x2
 2156 07cf 74       		.byte	0x74
 2157 07d0 00       		.sleb128 0
 2158 07d1 00       		.byte	0
 2159 07d2 1B       		.uleb128 0x1b
 2160 07d3 10000000 		.4byte	.LVL20
 2161 07d7 F00D0000 		.4byte	0xdf0
 2162 07db 19       		.uleb128 0x19
 2163 07dc 01       		.uleb128 0x1
 2164 07dd 50       		.byte	0x50
 2165 07de 02       		.uleb128 0x2
 2166 07df 74       		.byte	0x74
 2167 07e0 00       		.sleb128 0
 2168 07e1 00       		.byte	0
 2169 07e2 00       		.byte	0
 2170 07e3 1C       		.uleb128 0x1c
 2171 07e4 84030000 		.4byte	.LASF91
 2172 07e8 01       		.byte	0x1
 2173 07e9 4D       		.byte	0x4d
 2174 07ea 01010000 		.4byte	0x101
 2175 07ee 00000000 		.4byte	.LFB8
 2176 07f2 18000000 		.4byte	.LFE8-.LFB8
 2177 07f6 01       		.uleb128 0x1
 2178 07f7 9C       		.byte	0x9c
 2179 07f8 2A080000 		.4byte	0x82a
 2180 07fc 1D       		.uleb128 0x1d
 2181 07fd 7000     		.ascii	"p\000"
 2182 07ff 01       		.byte	0x1
 2183 0800 4D       		.byte	0x4d
 2184 0801 92020000 		.4byte	0x292
 2185 0805 21000000 		.4byte	.LLST1
 2186 0809 18       		.uleb128 0x18
 2187 080a 0A000000 		.4byte	.LVL23
 2188 080e 650E0000 		.4byte	0xe65
 2189 0812 20080000 		.4byte	0x820
 2190 0816 19       		.uleb128 0x19
 2191 0817 01       		.uleb128 0x1
 2192 0818 50       		.byte	0x50
 2193 0819 05       		.uleb128 0x5
 2194 081a 03       		.byte	0x3
 2195 081b 00000000 		.4byte	.LANCHOR0
 2196 081f 00       		.byte	0
 2197 0820 1A       		.uleb128 0x1a
 2198 0821 10000000 		.4byte	.LVL24
 2199 0825 7A0E0000 		.4byte	0xe7a
 2200 0829 00       		.byte	0
 2201 082a 17       		.uleb128 0x17
ARM GAS  /tmp/ccrU0Ftr.s 			page 40


 2202 082b 5F030000 		.4byte	.LASF93
 2203 082f 01       		.byte	0x1
 2204 0830 48       		.byte	0x48
 2205 0831 00000000 		.4byte	.LFB7
 2206 0835 10000000 		.4byte	.LFE7-.LFB7
 2207 0839 01       		.uleb128 0x1
 2208 083a 9C       		.byte	0x9c
 2209 083b 58080000 		.4byte	0x858
 2210 083f 1B       		.uleb128 0x1b
 2211 0840 0A000000 		.4byte	.LVL26
 2212 0844 8B0E0000 		.4byte	0xe8b
 2213 0848 19       		.uleb128 0x19
 2214 0849 01       		.uleb128 0x1
 2215 084a 51       		.byte	0x51
 2216 084b 01       		.uleb128 0x1
 2217 084c 30       		.byte	0x30
 2218 084d 19       		.uleb128 0x19
 2219 084e 01       		.uleb128 0x1
 2220 084f 50       		.byte	0x50
 2221 0850 05       		.uleb128 0x5
 2222 0851 03       		.byte	0x3
 2223 0852 00000000 		.4byte	.LANCHOR0
 2224 0856 00       		.byte	0
 2225 0857 00       		.byte	0
 2226 0858 17       		.uleb128 0x17
 2227 0859 0C020000 		.4byte	.LASF94
 2228 085d 01       		.byte	0x1
 2229 085e 81       		.byte	0x81
 2230 085f 00000000 		.4byte	.LFB10
 2231 0863 10000000 		.4byte	.LFE10-.LFB10
 2232 0867 01       		.uleb128 0x1
 2233 0868 9C       		.byte	0x9c
 2234 0869 86080000 		.4byte	0x886
 2235 086d 1B       		.uleb128 0x1b
 2236 086e 0A000000 		.4byte	.LVL27
 2237 0872 8B0E0000 		.4byte	0xe8b
 2238 0876 19       		.uleb128 0x19
 2239 0877 01       		.uleb128 0x1
 2240 0878 51       		.byte	0x51
 2241 0879 01       		.uleb128 0x1
 2242 087a 30       		.byte	0x30
 2243 087b 19       		.uleb128 0x19
 2244 087c 01       		.uleb128 0x1
 2245 087d 50       		.byte	0x50
 2246 087e 05       		.uleb128 0x5
 2247 087f 03       		.byte	0x3
 2248 0880 00000000 		.4byte	.LANCHOR0
 2249 0884 00       		.byte	0
 2250 0885 00       		.byte	0
 2251 0886 17       		.uleb128 0x17
 2252 0887 74050000 		.4byte	.LASF95
 2253 088b 01       		.byte	0x1
 2254 088c CD       		.byte	0xcd
 2255 088d 00000000 		.4byte	.LFB13
 2256 0891 10000000 		.4byte	.LFE13-.LFB13
 2257 0895 01       		.uleb128 0x1
 2258 0896 9C       		.byte	0x9c
ARM GAS  /tmp/ccrU0Ftr.s 			page 41


 2259 0897 B4080000 		.4byte	0x8b4
 2260 089b 1B       		.uleb128 0x1b
 2261 089c 0A000000 		.4byte	.LVL28
 2262 08a0 8B0E0000 		.4byte	0xe8b
 2263 08a4 19       		.uleb128 0x19
 2264 08a5 01       		.uleb128 0x1
 2265 08a6 51       		.byte	0x51
 2266 08a7 01       		.uleb128 0x1
 2267 08a8 30       		.byte	0x30
 2268 08a9 19       		.uleb128 0x19
 2269 08aa 01       		.uleb128 0x1
 2270 08ab 50       		.byte	0x50
 2271 08ac 05       		.uleb128 0x5
 2272 08ad 03       		.byte	0x3
 2273 08ae 00000000 		.4byte	.LANCHOR0
 2274 08b2 00       		.byte	0
 2275 08b3 00       		.byte	0
 2276 08b4 1C       		.uleb128 0x1c
 2277 08b5 8C030000 		.4byte	.LASF96
 2278 08b9 01       		.byte	0x1
 2279 08ba 86       		.byte	0x86
 2280 08bb 01010000 		.4byte	0x101
 2281 08bf 00000000 		.4byte	.LFB11
 2282 08c3 20000000 		.4byte	.LFE11-.LFB11
 2283 08c7 01       		.uleb128 0x1
 2284 08c8 9C       		.byte	0x9c
 2285 08c9 0F090000 		.4byte	0x90f
 2286 08cd 1D       		.uleb128 0x1d
 2287 08ce 7000     		.ascii	"p\000"
 2288 08d0 01       		.byte	0x1
 2289 08d1 86       		.byte	0x86
 2290 08d2 92020000 		.4byte	0x292
 2291 08d6 4D000000 		.4byte	.LLST2
 2292 08da 18       		.uleb128 0x18
 2293 08db 08000000 		.4byte	.LVL31
 2294 08df A10E0000 		.4byte	0xea1
 2295 08e3 EE080000 		.4byte	0x8ee
 2296 08e7 19       		.uleb128 0x19
 2297 08e8 01       		.uleb128 0x1
 2298 08e9 50       		.byte	0x50
 2299 08ea 02       		.uleb128 0x2
 2300 08eb 08       		.byte	0x8
 2301 08ec 32       		.byte	0x32
 2302 08ed 00       		.byte	0
 2303 08ee 18       		.uleb128 0x18
 2304 08ef 10000000 		.4byte	.LVL32
 2305 08f3 B30E0000 		.4byte	0xeb3
 2306 08f7 05090000 		.4byte	0x905
 2307 08fb 19       		.uleb128 0x19
 2308 08fc 01       		.uleb128 0x1
 2309 08fd 50       		.byte	0x50
 2310 08fe 05       		.uleb128 0x5
 2311 08ff 03       		.byte	0x3
 2312 0900 00000000 		.4byte	.LANCHOR0
 2313 0904 00       		.byte	0
 2314 0905 1A       		.uleb128 0x1a
 2315 0906 14000000 		.4byte	.LVL33
ARM GAS  /tmp/ccrU0Ftr.s 			page 42


 2316 090a 440E0000 		.4byte	0xe44
 2317 090e 00       		.byte	0
 2318 090f 1C       		.uleb128 0x1c
 2319 0910 9A030000 		.4byte	.LASF97
 2320 0914 01       		.byte	0x1
 2321 0915 F6       		.byte	0xf6
 2322 0916 01010000 		.4byte	0x101
 2323 091a 00000000 		.4byte	.LFB16
 2324 091e 1A000000 		.4byte	.LFE16-.LFB16
 2325 0922 01       		.uleb128 0x1
 2326 0923 9C       		.byte	0x9c
 2327 0924 48090000 		.4byte	0x948
 2328 0928 1D       		.uleb128 0x1d
 2329 0929 7000     		.ascii	"p\000"
 2330 092b 01       		.byte	0x1
 2331 092c F6       		.byte	0xf6
 2332 092d 92020000 		.4byte	0x292
 2333 0931 6E000000 		.4byte	.LLST3
 2334 0935 1A       		.uleb128 0x1a
 2335 0936 0E000000 		.4byte	.LVL36
 2336 093a 440E0000 		.4byte	0xe44
 2337 093e 1A       		.uleb128 0x1a
 2338 093f 18000000 		.4byte	.LVL38
 2339 0943 B30E0000 		.4byte	0xeb3
 2340 0947 00       		.byte	0
 2341 0948 17       		.uleb128 0x17
 2342 0949 39030000 		.4byte	.LASF98
 2343 094d 01       		.byte	0x1
 2344 094e FC       		.byte	0xfc
 2345 094f 00000000 		.4byte	.LFB17
 2346 0953 E8000000 		.4byte	.LFE17-.LFB17
 2347 0957 01       		.uleb128 0x1
 2348 0958 9C       		.byte	0x9c
 2349 0959 7F0A0000 		.4byte	0xa7f
 2350 095d 1E       		.uleb128 0x1e
 2351 095e E4020000 		.4byte	.LASF99
 2352 0962 01       		.byte	0x1
 2353 0963 FD       		.byte	0xfd
 2354 0964 8C040000 		.4byte	0x48c
 2355 0968 02       		.uleb128 0x2
 2356 0969 91       		.byte	0x91
 2357 096a 6C       		.sleb128 -20
 2358 096b 18       		.uleb128 0x18
 2359 096c 0C000000 		.4byte	.LVL39
 2360 0970 8B0E0000 		.4byte	0xe8b
 2361 0974 84090000 		.4byte	0x984
 2362 0978 19       		.uleb128 0x19
 2363 0979 01       		.uleb128 0x1
 2364 097a 51       		.byte	0x51
 2365 097b 01       		.uleb128 0x1
 2366 097c 30       		.byte	0x30
 2367 097d 19       		.uleb128 0x19
 2368 097e 01       		.uleb128 0x1
 2369 097f 50       		.byte	0x50
 2370 0980 02       		.uleb128 0x2
 2371 0981 91       		.byte	0x91
 2372 0982 6C       		.sleb128 -20
ARM GAS  /tmp/ccrU0Ftr.s 			page 43


 2373 0983 00       		.byte	0
 2374 0984 18       		.uleb128 0x18
 2375 0985 14000000 		.4byte	.LVL40
 2376 0989 C40E0000 		.4byte	0xec4
 2377 098d 9D090000 		.4byte	0x99d
 2378 0991 19       		.uleb128 0x19
 2379 0992 01       		.uleb128 0x1
 2380 0993 51       		.byte	0x51
 2381 0994 01       		.uleb128 0x1
 2382 0995 30       		.byte	0x30
 2383 0996 19       		.uleb128 0x19
 2384 0997 01       		.uleb128 0x1
 2385 0998 50       		.byte	0x50
 2386 0999 02       		.uleb128 0x2
 2387 099a 91       		.byte	0x91
 2388 099b 6C       		.sleb128 -20
 2389 099c 00       		.byte	0
 2390 099d 18       		.uleb128 0x18
 2391 099e 22000000 		.4byte	.LVL41
 2392 09a2 4B0E0000 		.4byte	0xe4b
 2393 09a6 B0090000 		.4byte	0x9b0
 2394 09aa 19       		.uleb128 0x19
 2395 09ab 01       		.uleb128 0x1
 2396 09ac 50       		.byte	0x50
 2397 09ad 01       		.uleb128 0x1
 2398 09ae 31       		.byte	0x31
 2399 09af 00       		.byte	0
 2400 09b0 18       		.uleb128 0x18
 2401 09b1 44000000 		.4byte	.LVL42
 2402 09b5 C60D0000 		.4byte	0xdc6
 2403 09b9 D5090000 		.4byte	0x9d5
 2404 09bd 19       		.uleb128 0x19
 2405 09be 01       		.uleb128 0x1
 2406 09bf 53       		.byte	0x53
 2407 09c0 05       		.uleb128 0x5
 2408 09c1 03       		.byte	0x3
 2409 09c2 00000000 		.4byte	thread4
 2410 09c6 19       		.uleb128 0x19
 2411 09c7 01       		.uleb128 0x1
 2412 09c8 51       		.byte	0x51
 2413 09c9 03       		.uleb128 0x3
 2414 09ca 0A       		.byte	0xa
 2415 09cb 3001     		.2byte	0x130
 2416 09cd 19       		.uleb128 0x19
 2417 09ce 02       		.uleb128 0x2
 2418 09cf 7D       		.byte	0x7d
 2419 09d0 00       		.sleb128 0
 2420 09d1 02       		.uleb128 0x2
 2421 09d2 91       		.byte	0x91
 2422 09d3 6C       		.sleb128 -20
 2423 09d4 00       		.byte	0
 2424 09d5 18       		.uleb128 0x18
 2425 09d6 4E000000 		.4byte	.LVL43
 2426 09da 650E0000 		.4byte	0xe65
 2427 09de E9090000 		.4byte	0x9e9
 2428 09e2 19       		.uleb128 0x19
 2429 09e3 01       		.uleb128 0x1
ARM GAS  /tmp/ccrU0Ftr.s 			page 44


 2430 09e4 50       		.byte	0x50
 2431 09e5 02       		.uleb128 0x2
 2432 09e6 91       		.byte	0x91
 2433 09e7 6C       		.sleb128 -20
 2434 09e8 00       		.byte	0
 2435 09e9 18       		.uleb128 0x18
 2436 09ea 5C000000 		.4byte	.LVL44
 2437 09ee 4B0E0000 		.4byte	0xe4b
 2438 09f2 FC090000 		.4byte	0x9fc
 2439 09f6 19       		.uleb128 0x19
 2440 09f7 01       		.uleb128 0x1
 2441 09f8 50       		.byte	0x50
 2442 09f9 01       		.uleb128 0x1
 2443 09fa 32       		.byte	0x32
 2444 09fb 00       		.byte	0
 2445 09fc 1A       		.uleb128 0x1a
 2446 09fd 6C000000 		.4byte	.LVL45
 2447 0a01 440E0000 		.4byte	0xe44
 2448 0a05 18       		.uleb128 0x18
 2449 0a06 7C000000 		.4byte	.LVL46
 2450 0a0a 4B0E0000 		.4byte	0xe4b
 2451 0a0e 180A0000 		.4byte	0xa18
 2452 0a12 19       		.uleb128 0x19
 2453 0a13 01       		.uleb128 0x1
 2454 0a14 50       		.byte	0x50
 2455 0a15 01       		.uleb128 0x1
 2456 0a16 33       		.byte	0x33
 2457 0a17 00       		.byte	0
 2458 0a18 18       		.uleb128 0x18
 2459 0a19 90000000 		.4byte	.LVL47
 2460 0a1d 4B0E0000 		.4byte	0xe4b
 2461 0a21 2B0A0000 		.4byte	0xa2b
 2462 0a25 19       		.uleb128 0x19
 2463 0a26 01       		.uleb128 0x1
 2464 0a27 50       		.byte	0x50
 2465 0a28 01       		.uleb128 0x1
 2466 0a29 34       		.byte	0x34
 2467 0a2a 00       		.byte	0
 2468 0a2b 1A       		.uleb128 0x1a
 2469 0a2c A0000000 		.4byte	.LVL48
 2470 0a30 440E0000 		.4byte	0xe44
 2471 0a34 18       		.uleb128 0x18
 2472 0a35 B0000000 		.4byte	.LVL49
 2473 0a39 4B0E0000 		.4byte	0xe4b
 2474 0a3d 470A0000 		.4byte	0xa47
 2475 0a41 19       		.uleb128 0x19
 2476 0a42 01       		.uleb128 0x1
 2477 0a43 50       		.byte	0x50
 2478 0a44 01       		.uleb128 0x1
 2479 0a45 33       		.byte	0x33
 2480 0a46 00       		.byte	0
 2481 0a47 18       		.uleb128 0x18
 2482 0a48 C4000000 		.4byte	.LVL50
 2483 0a4c 4B0E0000 		.4byte	0xe4b
 2484 0a50 5A0A0000 		.4byte	0xa5a
 2485 0a54 19       		.uleb128 0x19
 2486 0a55 01       		.uleb128 0x1
ARM GAS  /tmp/ccrU0Ftr.s 			page 45


 2487 0a56 50       		.byte	0x50
 2488 0a57 01       		.uleb128 0x1
 2489 0a58 35       		.byte	0x35
 2490 0a59 00       		.byte	0
 2491 0a5a 18       		.uleb128 0x18
 2492 0a5b CC000000 		.4byte	.LVL51
 2493 0a5f B30E0000 		.4byte	0xeb3
 2494 0a63 6E0A0000 		.4byte	0xa6e
 2495 0a67 19       		.uleb128 0x19
 2496 0a68 01       		.uleb128 0x1
 2497 0a69 50       		.byte	0x50
 2498 0a6a 02       		.uleb128 0x2
 2499 0a6b 91       		.byte	0x91
 2500 0a6c 6C       		.sleb128 -20
 2501 0a6d 00       		.byte	0
 2502 0a6e 1B       		.uleb128 0x1b
 2503 0a6f D4000000 		.4byte	.LVL52
 2504 0a73 B30E0000 		.4byte	0xeb3
 2505 0a77 19       		.uleb128 0x19
 2506 0a78 01       		.uleb128 0x1
 2507 0a79 50       		.byte	0x50
 2508 0a7a 02       		.uleb128 0x2
 2509 0a7b 91       		.byte	0x91
 2510 0a7c 6C       		.sleb128 -20
 2511 0a7d 00       		.byte	0
 2512 0a7e 00       		.byte	0
 2513 0a7f 1F       		.uleb128 0x1f
 2514 0a80 8A050000 		.4byte	0x58a
 2515 0a84 00000000 		.4byte	.LFB12
 2516 0a88 4C010000 		.4byte	.LFE12-.LFB12
 2517 0a8c 01       		.uleb128 0x1
 2518 0a8d 9C       		.byte	0x9c
 2519 0a8e 3F0C0000 		.4byte	0xc3f
 2520 0a92 20       		.uleb128 0x20
 2521 0a93 96050000 		.4byte	0x596
 2522 0a97 20       		.uleb128 0x20
 2523 0a98 9F050000 		.4byte	0x59f
 2524 0a9c 21       		.uleb128 0x21
 2525 0a9d AA050000 		.4byte	0x5aa
 2526 0aa1 A8000000 		.4byte	.LLST4
 2527 0aa5 22       		.uleb128 0x22
 2528 0aa6 4A000000 		.4byte	.LBB5
 2529 0aaa 02010000 		.4byte	.LBE5-.LBB5
 2530 0aae F00B0000 		.4byte	0xbf0
 2531 0ab2 20       		.uleb128 0x20
 2532 0ab3 96050000 		.4byte	0x596
 2533 0ab7 23       		.uleb128 0x23
 2534 0ab8 9F050000 		.4byte	0x59f
 2535 0abc 04       		.uleb128 0x4
 2536 0abd 76       		.byte	0x76
 2537 0abe C413     		.sleb128 2500
 2538 0ac0 9F       		.byte	0x9f
 2539 0ac1 21       		.uleb128 0x21
 2540 0ac2 AA050000 		.4byte	0x5aa
 2541 0ac6 BB000000 		.4byte	.LLST5
 2542 0aca 18       		.uleb128 0x18
 2543 0acb 62000000 		.4byte	.LVL58
ARM GAS  /tmp/ccrU0Ftr.s 			page 46


 2544 0acf C60D0000 		.4byte	0xdc6
 2545 0ad3 E80A0000 		.4byte	0xae8
 2546 0ad7 19       		.uleb128 0x19
 2547 0ad8 01       		.uleb128 0x1
 2548 0ad9 53       		.byte	0x53
 2549 0ada 05       		.uleb128 0x5
 2550 0adb 03       		.byte	0x3
 2551 0adc 00000000 		.4byte	thread2
 2552 0ae0 19       		.uleb128 0x19
 2553 0ae1 01       		.uleb128 0x1
 2554 0ae2 51       		.byte	0x51
 2555 0ae3 03       		.uleb128 0x3
 2556 0ae4 0A       		.byte	0xa
 2557 0ae5 3001     		.2byte	0x130
 2558 0ae7 00       		.byte	0
 2559 0ae8 18       		.uleb128 0x18
 2560 0ae9 70000000 		.4byte	.LVL59
 2561 0aed DA0E0000 		.4byte	0xeda
 2562 0af1 030B0000 		.4byte	0xb03
 2563 0af5 19       		.uleb128 0x19
 2564 0af6 01       		.uleb128 0x1
 2565 0af7 51       		.byte	0x51
 2566 0af8 03       		.uleb128 0x3
 2567 0af9 0A       		.byte	0xa
 2568 0afa F401     		.2byte	0x1f4
 2569 0afc 19       		.uleb128 0x19
 2570 0afd 01       		.uleb128 0x1
 2571 0afe 50       		.byte	0x50
 2572 0aff 02       		.uleb128 0x2
 2573 0b00 74       		.byte	0x74
 2574 0b01 00       		.sleb128 0
 2575 0b02 00       		.byte	0
 2576 0b03 1A       		.uleb128 0x1a
 2577 0b04 76000000 		.4byte	.LVL61
 2578 0b08 070E0000 		.4byte	0xe07
 2579 0b0c 18       		.uleb128 0x18
 2580 0b0d 82000000 		.4byte	.LVL63
 2581 0b11 4B0E0000 		.4byte	0xe4b
 2582 0b15 1F0B0000 		.4byte	0xb1f
 2583 0b19 19       		.uleb128 0x19
 2584 0b1a 01       		.uleb128 0x1
 2585 0b1b 50       		.byte	0x50
 2586 0b1c 01       		.uleb128 0x1
 2587 0b1d 34       		.byte	0x34
 2588 0b1e 00       		.byte	0
 2589 0b1f 18       		.uleb128 0x18
 2590 0b20 96000000 		.4byte	.LVL64
 2591 0b24 4B0E0000 		.4byte	0xe4b
 2592 0b28 320B0000 		.4byte	0xb32
 2593 0b2c 19       		.uleb128 0x19
 2594 0b2d 01       		.uleb128 0x1
 2595 0b2e 50       		.byte	0x50
 2596 0b2f 01       		.uleb128 0x1
 2597 0b30 35       		.byte	0x35
 2598 0b31 00       		.byte	0
 2599 0b32 18       		.uleb128 0x18
 2600 0b33 A8000000 		.4byte	.LVL65
ARM GAS  /tmp/ccrU0Ftr.s 			page 47


 2601 0b37 4B0E0000 		.4byte	0xe4b
 2602 0b3b 450B0000 		.4byte	0xb45
 2603 0b3f 19       		.uleb128 0x19
 2604 0b40 01       		.uleb128 0x1
 2605 0b41 50       		.byte	0x50
 2606 0b42 01       		.uleb128 0x1
 2607 0b43 36       		.byte	0x36
 2608 0b44 00       		.byte	0
 2609 0b45 1A       		.uleb128 0x1a
 2610 0b46 B0000000 		.4byte	.LVL66
 2611 0b4a F40E0000 		.4byte	0xef4
 2612 0b4e 18       		.uleb128 0x18
 2613 0b4f BC000000 		.4byte	.LVL68
 2614 0b53 7A0E0000 		.4byte	0xe7a
 2615 0b57 620B0000 		.4byte	0xb62
 2616 0b5b 19       		.uleb128 0x19
 2617 0b5c 01       		.uleb128 0x1
 2618 0b5d 50       		.byte	0x50
 2619 0b5e 02       		.uleb128 0x2
 2620 0b5f 75       		.byte	0x75
 2621 0b60 00       		.sleb128 0
 2622 0b61 00       		.byte	0
 2623 0b62 18       		.uleb128 0x18
 2624 0b63 C6000000 		.4byte	.LVL69
 2625 0b67 DA0E0000 		.4byte	0xeda
 2626 0b6b 7D0B0000 		.4byte	0xb7d
 2627 0b6f 19       		.uleb128 0x19
 2628 0b70 01       		.uleb128 0x1
 2629 0b71 51       		.byte	0x51
 2630 0b72 03       		.uleb128 0x3
 2631 0b73 0A       		.byte	0xa
 2632 0b74 F401     		.2byte	0x1f4
 2633 0b76 19       		.uleb128 0x19
 2634 0b77 01       		.uleb128 0x1
 2635 0b78 50       		.byte	0x50
 2636 0b79 02       		.uleb128 0x2
 2637 0b7a 74       		.byte	0x74
 2638 0b7b 00       		.sleb128 0
 2639 0b7c 00       		.byte	0
 2640 0b7d 18       		.uleb128 0x18
 2641 0b7e D4000000 		.4byte	.LVL71
 2642 0b82 4B0E0000 		.4byte	0xe4b
 2643 0b86 900B0000 		.4byte	0xb90
 2644 0b8a 19       		.uleb128 0x19
 2645 0b8b 01       		.uleb128 0x1
 2646 0b8c 50       		.byte	0x50
 2647 0b8d 01       		.uleb128 0x1
 2648 0b8e 37       		.byte	0x37
 2649 0b8f 00       		.byte	0
 2650 0b90 18       		.uleb128 0x18
 2651 0b91 E8000000 		.4byte	.LVL72
 2652 0b95 4B0E0000 		.4byte	0xe4b
 2653 0b99 A30B0000 		.4byte	0xba3
 2654 0b9d 19       		.uleb128 0x19
 2655 0b9e 01       		.uleb128 0x1
 2656 0b9f 50       		.byte	0x50
 2657 0ba0 01       		.uleb128 0x1
ARM GAS  /tmp/ccrU0Ftr.s 			page 48


 2658 0ba1 38       		.byte	0x38
 2659 0ba2 00       		.byte	0
 2660 0ba3 18       		.uleb128 0x18
 2661 0ba4 FA000000 		.4byte	.LVL73
 2662 0ba8 4B0E0000 		.4byte	0xe4b
 2663 0bac B60B0000 		.4byte	0xbb6
 2664 0bb0 19       		.uleb128 0x19
 2665 0bb1 01       		.uleb128 0x1
 2666 0bb2 50       		.byte	0x50
 2667 0bb3 01       		.uleb128 0x1
 2668 0bb4 39       		.byte	0x39
 2669 0bb5 00       		.byte	0
 2670 0bb6 18       		.uleb128 0x18
 2671 0bb7 10010000 		.4byte	.LVL74
 2672 0bbb 0E0E0000 		.4byte	0xe0e
 2673 0bbf D20B0000 		.4byte	0xbd2
 2674 0bc3 19       		.uleb128 0x19
 2675 0bc4 01       		.uleb128 0x1
 2676 0bc5 51       		.byte	0x51
 2677 0bc6 05       		.uleb128 0x5
 2678 0bc7 03       		.byte	0x3
 2679 0bc8 14000000 		.4byte	.LC15
 2680 0bcc 19       		.uleb128 0x19
 2681 0bcd 01       		.uleb128 0x1
 2682 0bce 50       		.byte	0x50
 2683 0bcf 01       		.uleb128 0x1
 2684 0bd0 3A       		.byte	0x3a
 2685 0bd1 00       		.byte	0
 2686 0bd2 1B       		.uleb128 0x1b
 2687 0bd3 24010000 		.4byte	.LVL75
 2688 0bd7 FF0E0000 		.4byte	0xeff
 2689 0bdb 19       		.uleb128 0x19
 2690 0bdc 01       		.uleb128 0x1
 2691 0bdd 52       		.byte	0x52
 2692 0bde 03       		.uleb128 0x3
 2693 0bdf 76       		.byte	0x76
 2694 0be0 C913     		.sleb128 2505
 2695 0be2 19       		.uleb128 0x19
 2696 0be3 01       		.uleb128 0x1
 2697 0be4 51       		.byte	0x51
 2698 0be5 03       		.uleb128 0x3
 2699 0be6 76       		.byte	0x76
 2700 0be7 C413     		.sleb128 2500
 2701 0be9 19       		.uleb128 0x19
 2702 0bea 01       		.uleb128 0x1
 2703 0beb 50       		.byte	0x50
 2704 0bec 01       		.uleb128 0x1
 2705 0bed 3B       		.byte	0x3b
 2706 0bee 00       		.byte	0
 2707 0bef 00       		.byte	0
 2708 0bf0 18       		.uleb128 0x18
 2709 0bf1 0E000000 		.4byte	.LVL53
 2710 0bf5 DA0E0000 		.4byte	0xeda
 2711 0bf9 090C0000 		.4byte	0xc09
 2712 0bfd 19       		.uleb128 0x19
 2713 0bfe 01       		.uleb128 0x1
 2714 0bff 51       		.byte	0x51
ARM GAS  /tmp/ccrU0Ftr.s 			page 49


 2715 0c00 01       		.uleb128 0x1
 2716 0c01 30       		.byte	0x30
 2717 0c02 19       		.uleb128 0x19
 2718 0c03 01       		.uleb128 0x1
 2719 0c04 50       		.byte	0x50
 2720 0c05 02       		.uleb128 0x2
 2721 0c06 74       		.byte	0x74
 2722 0c07 00       		.sleb128 0
 2723 0c08 00       		.byte	0
 2724 0c09 18       		.uleb128 0x18
 2725 0c0a 1C000000 		.4byte	.LVL55
 2726 0c0e 4B0E0000 		.4byte	0xe4b
 2727 0c12 1C0C0000 		.4byte	0xc1c
 2728 0c16 19       		.uleb128 0x19
 2729 0c17 01       		.uleb128 0x1
 2730 0c18 50       		.byte	0x50
 2731 0c19 01       		.uleb128 0x1
 2732 0c1a 31       		.byte	0x31
 2733 0c1b 00       		.byte	0
 2734 0c1c 18       		.uleb128 0x18
 2735 0c1d 34000000 		.4byte	.LVL56
 2736 0c21 4B0E0000 		.4byte	0xe4b
 2737 0c25 2F0C0000 		.4byte	0xc2f
 2738 0c29 19       		.uleb128 0x19
 2739 0c2a 01       		.uleb128 0x1
 2740 0c2b 50       		.byte	0x50
 2741 0c2c 01       		.uleb128 0x1
 2742 0c2d 32       		.byte	0x32
 2743 0c2e 00       		.byte	0
 2744 0c2f 1B       		.uleb128 0x1b
 2745 0c30 46000000 		.4byte	.LVL57
 2746 0c34 4B0E0000 		.4byte	0xe4b
 2747 0c38 19       		.uleb128 0x19
 2748 0c39 01       		.uleb128 0x1
 2749 0c3a 50       		.byte	0x50
 2750 0c3b 01       		.uleb128 0x1
 2751 0c3c 33       		.byte	0x33
 2752 0c3d 00       		.byte	0
 2753 0c3e 00       		.byte	0
 2754 0c3f 1F       		.uleb128 0x1f
 2755 0c40 B6050000 		.4byte	0x5b6
 2756 0c44 00000000 		.4byte	.LFB15
 2757 0c48 98000000 		.4byte	.LFE15-.LFB15
 2758 0c4c 01       		.uleb128 0x1
 2759 0c4d 9C       		.byte	0x9c
 2760 0c4e F30C0000 		.4byte	0xcf3
 2761 0c52 18       		.uleb128 0x18
 2762 0c53 1E000000 		.4byte	.LVL76
 2763 0c57 C60D0000 		.4byte	0xdc6
 2764 0c5b 760C0000 		.4byte	0xc76
 2765 0c5f 19       		.uleb128 0x19
 2766 0c60 01       		.uleb128 0x1
 2767 0c61 53       		.byte	0x53
 2768 0c62 05       		.uleb128 0x5
 2769 0c63 03       		.byte	0x3
 2770 0c64 00000000 		.4byte	thread3
 2771 0c68 19       		.uleb128 0x19
ARM GAS  /tmp/ccrU0Ftr.s 			page 50


 2772 0c69 01       		.uleb128 0x1
 2773 0c6a 51       		.byte	0x51
 2774 0c6b 03       		.uleb128 0x3
 2775 0c6c 0A       		.byte	0xa
 2776 0c6d 3001     		.2byte	0x130
 2777 0c6f 19       		.uleb128 0x19
 2778 0c70 02       		.uleb128 0x2
 2779 0c71 7D       		.byte	0x7d
 2780 0c72 00       		.sleb128 0
 2781 0c73 01       		.uleb128 0x1
 2782 0c74 30       		.byte	0x30
 2783 0c75 00       		.byte	0
 2784 0c76 18       		.uleb128 0x18
 2785 0c77 2C000000 		.4byte	.LVL77
 2786 0c7b 1E0F0000 		.4byte	0xf1e
 2787 0c7f 900C0000 		.4byte	0xc90
 2788 0c83 19       		.uleb128 0x19
 2789 0c84 01       		.uleb128 0x1
 2790 0c85 51       		.byte	0x51
 2791 0c86 02       		.uleb128 0x2
 2792 0c87 74       		.byte	0x74
 2793 0c88 00       		.sleb128 0
 2794 0c89 19       		.uleb128 0x19
 2795 0c8a 01       		.uleb128 0x1
 2796 0c8b 50       		.byte	0x50
 2797 0c8c 02       		.uleb128 0x2
 2798 0c8d 74       		.byte	0x74
 2799 0c8e 00       		.sleb128 0
 2800 0c8f 00       		.byte	0
 2801 0c90 18       		.uleb128 0x18
 2802 0c91 3C000000 		.4byte	.LVL78
 2803 0c95 4B0E0000 		.4byte	0xe4b
 2804 0c99 A30C0000 		.4byte	0xca3
 2805 0c9d 19       		.uleb128 0x19
 2806 0c9e 01       		.uleb128 0x1
 2807 0c9f 50       		.byte	0x50
 2808 0ca0 01       		.uleb128 0x1
 2809 0ca1 31       		.byte	0x31
 2810 0ca2 00       		.byte	0
 2811 0ca3 18       		.uleb128 0x18
 2812 0ca4 52000000 		.4byte	.LVL79
 2813 0ca8 4B0E0000 		.4byte	0xe4b
 2814 0cac B60C0000 		.4byte	0xcb6
 2815 0cb0 19       		.uleb128 0x19
 2816 0cb1 01       		.uleb128 0x1
 2817 0cb2 50       		.byte	0x50
 2818 0cb3 01       		.uleb128 0x1
 2819 0cb4 32       		.byte	0x32
 2820 0cb5 00       		.byte	0
 2821 0cb6 18       		.uleb128 0x18
 2822 0cb7 5E000000 		.4byte	.LVL80
 2823 0cbb 1E0F0000 		.4byte	0xf1e
 2824 0cbf D00C0000 		.4byte	0xcd0
 2825 0cc3 19       		.uleb128 0x19
 2826 0cc4 01       		.uleb128 0x1
 2827 0cc5 51       		.byte	0x51
 2828 0cc6 02       		.uleb128 0x2
ARM GAS  /tmp/ccrU0Ftr.s 			page 51


 2829 0cc7 74       		.byte	0x74
 2830 0cc8 00       		.sleb128 0
 2831 0cc9 19       		.uleb128 0x19
 2832 0cca 01       		.uleb128 0x1
 2833 0ccb 50       		.byte	0x50
 2834 0ccc 02       		.uleb128 0x2
 2835 0ccd 74       		.byte	0x74
 2836 0cce 00       		.sleb128 0
 2837 0ccf 00       		.byte	0
 2838 0cd0 18       		.uleb128 0x18
 2839 0cd1 6E000000 		.4byte	.LVL81
 2840 0cd5 4B0E0000 		.4byte	0xe4b
 2841 0cd9 E30C0000 		.4byte	0xce3
 2842 0cdd 19       		.uleb128 0x19
 2843 0cde 01       		.uleb128 0x1
 2844 0cdf 50       		.byte	0x50
 2845 0ce0 01       		.uleb128 0x1
 2846 0ce1 33       		.byte	0x33
 2847 0ce2 00       		.byte	0
 2848 0ce3 1B       		.uleb128 0x1b
 2849 0ce4 80000000 		.4byte	.LVL82
 2850 0ce8 4B0E0000 		.4byte	0xe4b
 2851 0cec 19       		.uleb128 0x19
 2852 0ced 01       		.uleb128 0x1
 2853 0cee 50       		.byte	0x50
 2854 0cef 01       		.uleb128 0x1
 2855 0cf0 34       		.byte	0x34
 2856 0cf1 00       		.byte	0
 2857 0cf2 00       		.byte	0
 2858 0cf3 1E       		.uleb128 0x1e
 2859 0cf4 17020000 		.4byte	.LASF100
 2860 0cf8 01       		.byte	0x1
 2861 0cf9 3B       		.byte	0x3b
 2862 0cfa 6C040000 		.4byte	0x46c
 2863 0cfe 05       		.uleb128 0x5
 2864 0cff 03       		.byte	0x3
 2865 0d00 00000000 		.4byte	sem1
 2866 0d04 24       		.uleb128 0x24
 2867 0d05 40000000 		.4byte	.LASF101
 2868 0d09 09       		.byte	0x9
 2869 0d0a F5       		.byte	0xf5
 2870 0d0b E0030000 		.4byte	0x3e0
 2871 0d0f 24       		.uleb128 0x24
 2872 0d10 9B050000 		.4byte	.LASF102
 2873 0d14 0A       		.byte	0xa
 2874 0d15 6F       		.byte	0x6f
 2875 0d16 3C040000 		.4byte	0x43c
 2876 0d1a 25       		.uleb128 0x25
 2877 0d1b 56020000 		.4byte	0x256
 2878 0d1f 2A0D0000 		.4byte	0xd2a
 2879 0d23 26       		.uleb128 0x26
 2880 0d24 25030000 		.4byte	0x325
 2881 0d28 04       		.byte	0x4
 2882 0d29 00       		.byte	0
 2883 0d2a 24       		.uleb128 0x24
 2884 0d2b A7040000 		.4byte	.LASF103
 2885 0d2f 0E       		.byte	0xe
ARM GAS  /tmp/ccrU0Ftr.s 			page 52


 2886 0d30 A5       		.byte	0xa5
 2887 0d31 1A0D0000 		.4byte	0xd1a
 2888 0d35 25       		.uleb128 0x25
 2889 0d36 92020000 		.4byte	0x292
 2890 0d3a 400D0000 		.4byte	0xd40
 2891 0d3e 27       		.uleb128 0x27
 2892 0d3f 00       		.byte	0
 2893 0d40 28       		.uleb128 0x28
 2894 0d41 776100   		.ascii	"wa\000"
 2895 0d44 0E       		.byte	0xe
 2896 0d45 A7       		.byte	0xa7
 2897 0d46 4A0D0000 		.4byte	0xd4a
 2898 0d4a 10       		.uleb128 0x10
 2899 0d4b 350D0000 		.4byte	0xd35
 2900 0d4f 29       		.uleb128 0x29
 2901 0d50 6B020000 		.4byte	.LASF104
 2902 0d54 01       		.byte	0x1
 2903 0d55 6F       		.byte	0x6f
 2904 0d56 600D0000 		.4byte	0xd60
 2905 0d5a 05       		.uleb128 0x5
 2906 0d5b 03       		.byte	0x3
 2907 0d5c 00000000 		.4byte	testsem1
 2908 0d60 10       		.uleb128 0x10
 2909 0d61 46050000 		.4byte	0x546
 2910 0d65 29       		.uleb128 0x29
 2911 0d66 74020000 		.4byte	.LASF105
 2912 0d6a 01       		.byte	0x1
 2913 0d6b B9       		.byte	0xb9
 2914 0d6c 600D0000 		.4byte	0xd60
 2915 0d70 05       		.uleb128 0x5
 2916 0d71 03       		.byte	0x3
 2917 0d72 00000000 		.4byte	testsem2
 2918 0d76 29       		.uleb128 0x29
 2919 0d77 7D020000 		.4byte	.LASF106
 2920 0d7b 01       		.byte	0x1
 2921 0d7c E6       		.byte	0xe6
 2922 0d7d 600D0000 		.4byte	0xd60
 2923 0d81 05       		.uleb128 0x5
 2924 0d82 03       		.byte	0x3
 2925 0d83 00000000 		.4byte	testsem3
 2926 0d87 2A       		.uleb128 0x2a
 2927 0d88 86020000 		.4byte	.LASF107
 2928 0d8c 01       		.byte	0x1
 2929 0d8d 1A01     		.2byte	0x11a
 2930 0d8f 600D0000 		.4byte	0xd60
 2931 0d93 05       		.uleb128 0x5
 2932 0d94 03       		.byte	0x3
 2933 0d95 00000000 		.4byte	testsem4
 2934 0d99 25       		.uleb128 0x25
 2935 0d9a A90D0000 		.4byte	0xda9
 2936 0d9e A90D0000 		.4byte	0xda9
 2937 0da2 26       		.uleb128 0x26
 2938 0da3 25030000 		.4byte	0x325
 2939 0da7 04       		.byte	0x4
 2940 0da8 00       		.byte	0
 2941 0da9 09       		.uleb128 0x9
 2942 0daa 04       		.byte	0x4
ARM GAS  /tmp/ccrU0Ftr.s 			page 53


 2943 0dab 600D0000 		.4byte	0xd60
 2944 0daf 2A       		.uleb128 0x2a
 2945 0db0 21040000 		.4byte	.LASF108
 2946 0db4 01       		.byte	0x1
 2947 0db5 2501     		.2byte	0x125
 2948 0db7 C10D0000 		.4byte	0xdc1
 2949 0dbb 05       		.uleb128 0x5
 2950 0dbc 03       		.byte	0x3
 2951 0dbd 00000000 		.4byte	patternsem
 2952 0dc1 10       		.uleb128 0x10
 2953 0dc2 990D0000 		.4byte	0xd99
 2954 0dc6 2B       		.uleb128 0x2b
 2955 0dc7 27030000 		.4byte	.LASF109
 2956 0dcb 07       		.byte	0x7
 2957 0dcc 7001     		.2byte	0x170
 2958 0dce 56020000 		.4byte	0x256
 2959 0dd2 F00D0000 		.4byte	0xdf0
 2960 0dd6 0C       		.uleb128 0xc
 2961 0dd7 92020000 		.4byte	0x292
 2962 0ddb 0C       		.uleb128 0xc
 2963 0ddc 2C000000 		.4byte	0x2c
 2964 0de0 0C       		.uleb128 0xc
 2965 0de1 F6000000 		.4byte	0xf6
 2966 0de5 0C       		.uleb128 0xc
 2967 0de6 26050000 		.4byte	0x526
 2968 0dea 0C       		.uleb128 0xc
 2969 0deb 92020000 		.4byte	0x292
 2970 0def 00       		.byte	0
 2971 0df0 2C       		.uleb128 0x2c
 2972 0df1 26010000 		.4byte	.LASF111
 2973 0df5 0B       		.byte	0xb
 2974 0df6 3C       		.byte	0x3c
 2975 0df7 010E0000 		.4byte	0xe01
 2976 0dfb 0C       		.uleb128 0xc
 2977 0dfc 010E0000 		.4byte	0xe01
 2978 0e00 00       		.byte	0
 2979 0e01 09       		.uleb128 0x9
 2980 0e02 04       		.byte	0x4
 2981 0e03 6C040000 		.4byte	0x46c
 2982 0e07 2D       		.uleb128 0x2d
 2983 0e08 6A030000 		.4byte	.LASF113
 2984 0e0c 0E       		.byte	0xe
 2985 0e0d 5C       		.byte	0x5c
 2986 0e0e 2E       		.uleb128 0x2e
 2987 0e0f 1C020000 		.4byte	.LASF110
 2988 0e13 0E       		.byte	0xe
 2989 0e14 59       		.byte	0x59
 2990 0e15 B8000000 		.4byte	0xb8
 2991 0e19 280E0000 		.4byte	0xe28
 2992 0e1d 0C       		.uleb128 0xc
 2993 0e1e 37000000 		.4byte	0x37
 2994 0e22 0C       		.uleb128 0xc
 2995 0e23 280E0000 		.4byte	0xe28
 2996 0e27 00       		.byte	0
 2997 0e28 09       		.uleb128 0x9
 2998 0e29 04       		.byte	0x4
 2999 0e2a 19050000 		.4byte	0x519
ARM GAS  /tmp/ccrU0Ftr.s 			page 54


 3000 0e2e 2C       		.uleb128 0x2c
 3001 0e2f 67000000 		.4byte	.LASF112
 3002 0e33 0B       		.byte	0xb
 3003 0e34 3E       		.byte	0x3e
 3004 0e35 440E0000 		.4byte	0xe44
 3005 0e39 0C       		.uleb128 0xc
 3006 0e3a 010E0000 		.4byte	0xe01
 3007 0e3e 0C       		.uleb128 0xc
 3008 0e3f 22010000 		.4byte	0x122
 3009 0e43 00       		.byte	0
 3010 0e44 2D       		.uleb128 0x2d
 3011 0e45 42010000 		.4byte	.LASF114
 3012 0e49 0A       		.byte	0xa
 3013 0e4a 9C       		.byte	0x9c
 3014 0e4b 2E       		.uleb128 0x2e
 3015 0e4c B7050000 		.4byte	.LASF115
 3016 0e50 0E       		.byte	0xe
 3017 0e51 58       		.byte	0x58
 3018 0e52 B8000000 		.4byte	0xb8
 3019 0e56 650E0000 		.4byte	0xe65
 3020 0e5a 0C       		.uleb128 0xc
 3021 0e5b 37000000 		.4byte	0x37
 3022 0e5f 0C       		.uleb128 0xc
 3023 0e60 B8000000 		.4byte	0xb8
 3024 0e64 00       		.byte	0
 3025 0e65 2E       		.uleb128 0x2e
 3026 0e66 40050000 		.4byte	.LASF116
 3027 0e6a 0B       		.byte	0xb
 3028 0e6b 38       		.byte	0x38
 3029 0e6c 01010000 		.4byte	0x101
 3030 0e70 7A0E0000 		.4byte	0xe7a
 3031 0e74 0C       		.uleb128 0xc
 3032 0e75 010E0000 		.4byte	0xe01
 3033 0e79 00       		.byte	0
 3034 0e7a 2C       		.uleb128 0x2c
 3035 0e7b C8000000 		.4byte	.LASF117
 3036 0e7f 0E       		.byte	0xe
 3037 0e80 56       		.byte	0x56
 3038 0e81 8B0E0000 		.4byte	0xe8b
 3039 0e85 0C       		.uleb128 0xc
 3040 0e86 19050000 		.4byte	0x519
 3041 0e8a 00       		.byte	0
 3042 0e8b 2C       		.uleb128 0x2c
 3043 0e8c F5050000 		.4byte	.LASF118
 3044 0e90 0B       		.byte	0xb
 3045 0e91 35       		.byte	0x35
 3046 0e92 A10E0000 		.4byte	0xea1
 3047 0e96 0C       		.uleb128 0xc
 3048 0e97 010E0000 		.4byte	0xe01
 3049 0e9b 0C       		.uleb128 0xc
 3050 0e9c 22010000 		.4byte	0x122
 3051 0ea0 00       		.byte	0
 3052 0ea1 2F       		.uleb128 0x2f
 3053 0ea2 7F050000 		.4byte	.LASF119
 3054 0ea6 07       		.byte	0x7
 3055 0ea7 7501     		.2byte	0x175
 3056 0ea9 B30E0000 		.4byte	0xeb3
ARM GAS  /tmp/ccrU0Ftr.s 			page 55


 3057 0ead 0C       		.uleb128 0xc
 3058 0eae 17010000 		.4byte	0x117
 3059 0eb2 00       		.byte	0
 3060 0eb3 2C       		.uleb128 0x2c
 3061 0eb4 0E000000 		.4byte	.LASF120
 3062 0eb8 0B       		.byte	0xb
 3063 0eb9 3D       		.byte	0x3d
 3064 0eba C40E0000 		.4byte	0xec4
 3065 0ebe 0C       		.uleb128 0xc
 3066 0ebf 010E0000 		.4byte	0xe01
 3067 0ec3 00       		.byte	0
 3068 0ec4 2C       		.uleb128 0x2c
 3069 0ec5 D9020000 		.4byte	.LASF121
 3070 0ec9 0B       		.byte	0xb
 3071 0eca 36       		.byte	0x36
 3072 0ecb DA0E0000 		.4byte	0xeda
 3073 0ecf 0C       		.uleb128 0xc
 3074 0ed0 010E0000 		.4byte	0xe01
 3075 0ed4 0C       		.uleb128 0xc
 3076 0ed5 22010000 		.4byte	0x122
 3077 0ed9 00       		.byte	0
 3078 0eda 2E       		.uleb128 0x2e
 3079 0edb 45020000 		.4byte	.LASF122
 3080 0edf 0B       		.byte	0xb
 3081 0ee0 3A       		.byte	0x3a
 3082 0ee1 01010000 		.4byte	0x101
 3083 0ee5 F40E0000 		.4byte	0xef4
 3084 0ee9 0C       		.uleb128 0xc
 3085 0eea 010E0000 		.4byte	0xe01
 3086 0eee 0C       		.uleb128 0xc
 3087 0eef 17010000 		.4byte	0x117
 3088 0ef3 00       		.byte	0
 3089 0ef4 30       		.uleb128 0x30
 3090 0ef5 67040000 		.4byte	.LASF130
 3091 0ef9 0E       		.byte	0xe
 3092 0efa 5D       		.byte	0x5d
 3093 0efb 17010000 		.4byte	0x117
 3094 0eff 2E       		.uleb128 0x2e
 3095 0f00 0D010000 		.4byte	.LASF123
 3096 0f04 0E       		.byte	0xe
 3097 0f05 5A       		.byte	0x5a
 3098 0f06 B8000000 		.4byte	0xb8
 3099 0f0a 1E0F0000 		.4byte	0xf1e
 3100 0f0e 0C       		.uleb128 0xc
 3101 0f0f 37000000 		.4byte	0x37
 3102 0f13 0C       		.uleb128 0xc
 3103 0f14 17010000 		.4byte	0x117
 3104 0f18 0C       		.uleb128 0xc
 3105 0f19 17010000 		.4byte	0x117
 3106 0f1d 00       		.byte	0
 3107 0f1e 31       		.uleb128 0x31
 3108 0f1f 99000000 		.4byte	.LASF124
 3109 0f23 0B       		.byte	0xb
 3110 0f24 40       		.byte	0x40
 3111 0f25 01010000 		.4byte	0x101
 3112 0f29 0C       		.uleb128 0xc
 3113 0f2a 010E0000 		.4byte	0xe01
ARM GAS  /tmp/ccrU0Ftr.s 			page 56


 3114 0f2e 0C       		.uleb128 0xc
 3115 0f2f 010E0000 		.4byte	0xe01
 3116 0f33 00       		.byte	0
 3117 0f34 00       		.byte	0
 3118              		.section	.debug_abbrev,"",%progbits
 3119              	.Ldebug_abbrev0:
 3120 0000 01       		.uleb128 0x1
 3121 0001 11       		.uleb128 0x11
 3122 0002 01       		.byte	0x1
 3123 0003 25       		.uleb128 0x25
 3124 0004 0E       		.uleb128 0xe
 3125 0005 13       		.uleb128 0x13
 3126 0006 0B       		.uleb128 0xb
 3127 0007 03       		.uleb128 0x3
 3128 0008 0E       		.uleb128 0xe
 3129 0009 1B       		.uleb128 0x1b
 3130 000a 0E       		.uleb128 0xe
 3131 000b 55       		.uleb128 0x55
 3132 000c 17       		.uleb128 0x17
 3133 000d 11       		.uleb128 0x11
 3134 000e 01       		.uleb128 0x1
 3135 000f 10       		.uleb128 0x10
 3136 0010 17       		.uleb128 0x17
 3137 0011 00       		.byte	0
 3138 0012 00       		.byte	0
 3139 0013 02       		.uleb128 0x2
 3140 0014 24       		.uleb128 0x24
 3141 0015 00       		.byte	0
 3142 0016 0B       		.uleb128 0xb
 3143 0017 0B       		.uleb128 0xb
 3144 0018 3E       		.uleb128 0x3e
 3145 0019 0B       		.uleb128 0xb
 3146 001a 03       		.uleb128 0x3
 3147 001b 08       		.uleb128 0x8
 3148 001c 00       		.byte	0
 3149 001d 00       		.byte	0
 3150 001e 03       		.uleb128 0x3
 3151 001f 16       		.uleb128 0x16
 3152 0020 00       		.byte	0
 3153 0021 03       		.uleb128 0x3
 3154 0022 0E       		.uleb128 0xe
 3155 0023 3A       		.uleb128 0x3a
 3156 0024 0B       		.uleb128 0xb
 3157 0025 3B       		.uleb128 0x3b
 3158 0026 0B       		.uleb128 0xb
 3159 0027 49       		.uleb128 0x49
 3160 0028 13       		.uleb128 0x13
 3161 0029 00       		.byte	0
 3162 002a 00       		.byte	0
 3163 002b 04       		.uleb128 0x4
 3164 002c 24       		.uleb128 0x24
 3165 002d 00       		.byte	0
 3166 002e 0B       		.uleb128 0xb
 3167 002f 0B       		.uleb128 0xb
 3168 0030 3E       		.uleb128 0x3e
 3169 0031 0B       		.uleb128 0xb
 3170 0032 03       		.uleb128 0x3
ARM GAS  /tmp/ccrU0Ftr.s 			page 57


 3171 0033 0E       		.uleb128 0xe
 3172 0034 00       		.byte	0
 3173 0035 00       		.byte	0
 3174 0036 05       		.uleb128 0x5
 3175 0037 13       		.uleb128 0x13
 3176 0038 01       		.byte	0x1
 3177 0039 03       		.uleb128 0x3
 3178 003a 0E       		.uleb128 0xe
 3179 003b 0B       		.uleb128 0xb
 3180 003c 0B       		.uleb128 0xb
 3181 003d 3A       		.uleb128 0x3a
 3182 003e 0B       		.uleb128 0xb
 3183 003f 3B       		.uleb128 0x3b
 3184 0040 0B       		.uleb128 0xb
 3185 0041 01       		.uleb128 0x1
 3186 0042 13       		.uleb128 0x13
 3187 0043 00       		.byte	0
 3188 0044 00       		.byte	0
 3189 0045 06       		.uleb128 0x6
 3190 0046 0D       		.uleb128 0xd
 3191 0047 00       		.byte	0
 3192 0048 03       		.uleb128 0x3
 3193 0049 0E       		.uleb128 0xe
 3194 004a 3A       		.uleb128 0x3a
 3195 004b 0B       		.uleb128 0xb
 3196 004c 3B       		.uleb128 0x3b
 3197 004d 0B       		.uleb128 0xb
 3198 004e 49       		.uleb128 0x49
 3199 004f 13       		.uleb128 0x13
 3200 0050 38       		.uleb128 0x38
 3201 0051 0B       		.uleb128 0xb
 3202 0052 00       		.byte	0
 3203 0053 00       		.byte	0
 3204 0054 07       		.uleb128 0x7
 3205 0055 0D       		.uleb128 0xd
 3206 0056 00       		.byte	0
 3207 0057 03       		.uleb128 0x3
 3208 0058 08       		.uleb128 0x8
 3209 0059 3A       		.uleb128 0x3a
 3210 005a 0B       		.uleb128 0xb
 3211 005b 3B       		.uleb128 0x3b
 3212 005c 0B       		.uleb128 0xb
 3213 005d 49       		.uleb128 0x49
 3214 005e 13       		.uleb128 0x13
 3215 005f 38       		.uleb128 0x38
 3216 0060 0B       		.uleb128 0xb
 3217 0061 00       		.byte	0
 3218 0062 00       		.byte	0
 3219 0063 08       		.uleb128 0x8
 3220 0064 13       		.uleb128 0x13
 3221 0065 01       		.byte	0x1
 3222 0066 0B       		.uleb128 0xb
 3223 0067 0B       		.uleb128 0xb
 3224 0068 3A       		.uleb128 0x3a
 3225 0069 0B       		.uleb128 0xb
 3226 006a 3B       		.uleb128 0x3b
 3227 006b 0B       		.uleb128 0xb
ARM GAS  /tmp/ccrU0Ftr.s 			page 58


 3228 006c 01       		.uleb128 0x1
 3229 006d 13       		.uleb128 0x13
 3230 006e 00       		.byte	0
 3231 006f 00       		.byte	0
 3232 0070 09       		.uleb128 0x9
 3233 0071 0F       		.uleb128 0xf
 3234 0072 00       		.byte	0
 3235 0073 0B       		.uleb128 0xb
 3236 0074 0B       		.uleb128 0xb
 3237 0075 49       		.uleb128 0x49
 3238 0076 13       		.uleb128 0x13
 3239 0077 00       		.byte	0
 3240 0078 00       		.byte	0
 3241 0079 0A       		.uleb128 0xa
 3242 007a 0F       		.uleb128 0xf
 3243 007b 00       		.byte	0
 3244 007c 0B       		.uleb128 0xb
 3245 007d 0B       		.uleb128 0xb
 3246 007e 00       		.byte	0
 3247 007f 00       		.byte	0
 3248 0080 0B       		.uleb128 0xb
 3249 0081 15       		.uleb128 0x15
 3250 0082 01       		.byte	0x1
 3251 0083 27       		.uleb128 0x27
 3252 0084 19       		.uleb128 0x19
 3253 0085 01       		.uleb128 0x1
 3254 0086 13       		.uleb128 0x13
 3255 0087 00       		.byte	0
 3256 0088 00       		.byte	0
 3257 0089 0C       		.uleb128 0xc
 3258 008a 05       		.uleb128 0x5
 3259 008b 00       		.byte	0
 3260 008c 49       		.uleb128 0x49
 3261 008d 13       		.uleb128 0x13
 3262 008e 00       		.byte	0
 3263 008f 00       		.byte	0
 3264 0090 0D       		.uleb128 0xd
 3265 0091 35       		.uleb128 0x35
 3266 0092 00       		.byte	0
 3267 0093 49       		.uleb128 0x49
 3268 0094 13       		.uleb128 0x13
 3269 0095 00       		.byte	0
 3270 0096 00       		.byte	0
 3271 0097 0E       		.uleb128 0xe
 3272 0098 17       		.uleb128 0x17
 3273 0099 01       		.byte	0x1
 3274 009a 0B       		.uleb128 0xb
 3275 009b 0B       		.uleb128 0xb
 3276 009c 3A       		.uleb128 0x3a
 3277 009d 0B       		.uleb128 0xb
 3278 009e 3B       		.uleb128 0x3b
 3279 009f 0B       		.uleb128 0xb
 3280 00a0 01       		.uleb128 0x1
 3281 00a1 13       		.uleb128 0x13
 3282 00a2 00       		.byte	0
 3283 00a3 00       		.byte	0
 3284 00a4 0F       		.uleb128 0xf
ARM GAS  /tmp/ccrU0Ftr.s 			page 59


 3285 00a5 0D       		.uleb128 0xd
 3286 00a6 00       		.byte	0
 3287 00a7 03       		.uleb128 0x3
 3288 00a8 0E       		.uleb128 0xe
 3289 00a9 3A       		.uleb128 0x3a
 3290 00aa 0B       		.uleb128 0xb
 3291 00ab 3B       		.uleb128 0x3b
 3292 00ac 0B       		.uleb128 0xb
 3293 00ad 49       		.uleb128 0x49
 3294 00ae 13       		.uleb128 0x13
 3295 00af 00       		.byte	0
 3296 00b0 00       		.byte	0
 3297 00b1 10       		.uleb128 0x10
 3298 00b2 26       		.uleb128 0x26
 3299 00b3 00       		.byte	0
 3300 00b4 49       		.uleb128 0x49
 3301 00b5 13       		.uleb128 0x13
 3302 00b6 00       		.byte	0
 3303 00b7 00       		.byte	0
 3304 00b8 11       		.uleb128 0x11
 3305 00b9 15       		.uleb128 0x15
 3306 00ba 01       		.byte	0x1
 3307 00bb 27       		.uleb128 0x27
 3308 00bc 19       		.uleb128 0x19
 3309 00bd 49       		.uleb128 0x49
 3310 00be 13       		.uleb128 0x13
 3311 00bf 01       		.uleb128 0x1
 3312 00c0 13       		.uleb128 0x13
 3313 00c1 00       		.byte	0
 3314 00c2 00       		.byte	0
 3315 00c3 12       		.uleb128 0x12
 3316 00c4 15       		.uleb128 0x15
 3317 00c5 00       		.byte	0
 3318 00c6 27       		.uleb128 0x27
 3319 00c7 19       		.uleb128 0x19
 3320 00c8 00       		.byte	0
 3321 00c9 00       		.byte	0
 3322 00ca 13       		.uleb128 0x13
 3323 00cb 2E       		.uleb128 0x2e
 3324 00cc 01       		.byte	0x1
 3325 00cd 03       		.uleb128 0x3
 3326 00ce 0E       		.uleb128 0xe
 3327 00cf 3A       		.uleb128 0x3a
 3328 00d0 0B       		.uleb128 0xb
 3329 00d1 3B       		.uleb128 0x3b
 3330 00d2 0B       		.uleb128 0xb
 3331 00d3 27       		.uleb128 0x27
 3332 00d4 19       		.uleb128 0x19
 3333 00d5 20       		.uleb128 0x20
 3334 00d6 0B       		.uleb128 0xb
 3335 00d7 01       		.uleb128 0x1
 3336 00d8 13       		.uleb128 0x13
 3337 00d9 00       		.byte	0
 3338 00da 00       		.byte	0
 3339 00db 14       		.uleb128 0x14
 3340 00dc 34       		.uleb128 0x34
 3341 00dd 00       		.byte	0
ARM GAS  /tmp/ccrU0Ftr.s 			page 60


 3342 00de 03       		.uleb128 0x3
 3343 00df 08       		.uleb128 0x8
 3344 00e0 3A       		.uleb128 0x3a
 3345 00e1 0B       		.uleb128 0xb
 3346 00e2 3B       		.uleb128 0x3b
 3347 00e3 0B       		.uleb128 0xb
 3348 00e4 49       		.uleb128 0x49
 3349 00e5 13       		.uleb128 0x13
 3350 00e6 00       		.byte	0
 3351 00e7 00       		.byte	0
 3352 00e8 15       		.uleb128 0x15
 3353 00e9 34       		.uleb128 0x34
 3354 00ea 00       		.byte	0
 3355 00eb 03       		.uleb128 0x3
 3356 00ec 0E       		.uleb128 0xe
 3357 00ed 3A       		.uleb128 0x3a
 3358 00ee 0B       		.uleb128 0xb
 3359 00ef 3B       		.uleb128 0x3b
 3360 00f0 0B       		.uleb128 0xb
 3361 00f1 49       		.uleb128 0x49
 3362 00f2 13       		.uleb128 0x13
 3363 00f3 00       		.byte	0
 3364 00f4 00       		.byte	0
 3365 00f5 16       		.uleb128 0x16
 3366 00f6 2E       		.uleb128 0x2e
 3367 00f7 00       		.byte	0
 3368 00f8 03       		.uleb128 0x3
 3369 00f9 0E       		.uleb128 0xe
 3370 00fa 3A       		.uleb128 0x3a
 3371 00fb 0B       		.uleb128 0xb
 3372 00fc 3B       		.uleb128 0x3b
 3373 00fd 0B       		.uleb128 0xb
 3374 00fe 27       		.uleb128 0x27
 3375 00ff 19       		.uleb128 0x19
 3376 0100 20       		.uleb128 0x20
 3377 0101 0B       		.uleb128 0xb
 3378 0102 00       		.byte	0
 3379 0103 00       		.byte	0
 3380 0104 17       		.uleb128 0x17
 3381 0105 2E       		.uleb128 0x2e
 3382 0106 01       		.byte	0x1
 3383 0107 03       		.uleb128 0x3
 3384 0108 0E       		.uleb128 0xe
 3385 0109 3A       		.uleb128 0x3a
 3386 010a 0B       		.uleb128 0xb
 3387 010b 3B       		.uleb128 0x3b
 3388 010c 0B       		.uleb128 0xb
 3389 010d 27       		.uleb128 0x27
 3390 010e 19       		.uleb128 0x19
 3391 010f 11       		.uleb128 0x11
 3392 0110 01       		.uleb128 0x1
 3393 0111 12       		.uleb128 0x12
 3394 0112 06       		.uleb128 0x6
 3395 0113 40       		.uleb128 0x40
 3396 0114 18       		.uleb128 0x18
 3397 0115 9742     		.uleb128 0x2117
 3398 0117 19       		.uleb128 0x19
ARM GAS  /tmp/ccrU0Ftr.s 			page 61


 3399 0118 01       		.uleb128 0x1
 3400 0119 13       		.uleb128 0x13
 3401 011a 00       		.byte	0
 3402 011b 00       		.byte	0
 3403 011c 18       		.uleb128 0x18
 3404 011d 898201   		.uleb128 0x4109
 3405 0120 01       		.byte	0x1
 3406 0121 11       		.uleb128 0x11
 3407 0122 01       		.uleb128 0x1
 3408 0123 31       		.uleb128 0x31
 3409 0124 13       		.uleb128 0x13
 3410 0125 01       		.uleb128 0x1
 3411 0126 13       		.uleb128 0x13
 3412 0127 00       		.byte	0
 3413 0128 00       		.byte	0
 3414 0129 19       		.uleb128 0x19
 3415 012a 8A8201   		.uleb128 0x410a
 3416 012d 00       		.byte	0
 3417 012e 02       		.uleb128 0x2
 3418 012f 18       		.uleb128 0x18
 3419 0130 9142     		.uleb128 0x2111
 3420 0132 18       		.uleb128 0x18
 3421 0133 00       		.byte	0
 3422 0134 00       		.byte	0
 3423 0135 1A       		.uleb128 0x1a
 3424 0136 898201   		.uleb128 0x4109
 3425 0139 00       		.byte	0
 3426 013a 11       		.uleb128 0x11
 3427 013b 01       		.uleb128 0x1
 3428 013c 31       		.uleb128 0x31
 3429 013d 13       		.uleb128 0x13
 3430 013e 00       		.byte	0
 3431 013f 00       		.byte	0
 3432 0140 1B       		.uleb128 0x1b
 3433 0141 898201   		.uleb128 0x4109
 3434 0144 01       		.byte	0x1
 3435 0145 11       		.uleb128 0x11
 3436 0146 01       		.uleb128 0x1
 3437 0147 31       		.uleb128 0x31
 3438 0148 13       		.uleb128 0x13
 3439 0149 00       		.byte	0
 3440 014a 00       		.byte	0
 3441 014b 1C       		.uleb128 0x1c
 3442 014c 2E       		.uleb128 0x2e
 3443 014d 01       		.byte	0x1
 3444 014e 03       		.uleb128 0x3
 3445 014f 0E       		.uleb128 0xe
 3446 0150 3A       		.uleb128 0x3a
 3447 0151 0B       		.uleb128 0xb
 3448 0152 3B       		.uleb128 0x3b
 3449 0153 0B       		.uleb128 0xb
 3450 0154 27       		.uleb128 0x27
 3451 0155 19       		.uleb128 0x19
 3452 0156 49       		.uleb128 0x49
 3453 0157 13       		.uleb128 0x13
 3454 0158 11       		.uleb128 0x11
 3455 0159 01       		.uleb128 0x1
ARM GAS  /tmp/ccrU0Ftr.s 			page 62


 3456 015a 12       		.uleb128 0x12
 3457 015b 06       		.uleb128 0x6
 3458 015c 40       		.uleb128 0x40
 3459 015d 18       		.uleb128 0x18
 3460 015e 9742     		.uleb128 0x2117
 3461 0160 19       		.uleb128 0x19
 3462 0161 01       		.uleb128 0x1
 3463 0162 13       		.uleb128 0x13
 3464 0163 00       		.byte	0
 3465 0164 00       		.byte	0
 3466 0165 1D       		.uleb128 0x1d
 3467 0166 05       		.uleb128 0x5
 3468 0167 00       		.byte	0
 3469 0168 03       		.uleb128 0x3
 3470 0169 08       		.uleb128 0x8
 3471 016a 3A       		.uleb128 0x3a
 3472 016b 0B       		.uleb128 0xb
 3473 016c 3B       		.uleb128 0x3b
 3474 016d 0B       		.uleb128 0xb
 3475 016e 49       		.uleb128 0x49
 3476 016f 13       		.uleb128 0x13
 3477 0170 02       		.uleb128 0x2
 3478 0171 17       		.uleb128 0x17
 3479 0172 00       		.byte	0
 3480 0173 00       		.byte	0
 3481 0174 1E       		.uleb128 0x1e
 3482 0175 34       		.uleb128 0x34
 3483 0176 00       		.byte	0
 3484 0177 03       		.uleb128 0x3
 3485 0178 0E       		.uleb128 0xe
 3486 0179 3A       		.uleb128 0x3a
 3487 017a 0B       		.uleb128 0xb
 3488 017b 3B       		.uleb128 0x3b
 3489 017c 0B       		.uleb128 0xb
 3490 017d 49       		.uleb128 0x49
 3491 017e 13       		.uleb128 0x13
 3492 017f 02       		.uleb128 0x2
 3493 0180 18       		.uleb128 0x18
 3494 0181 00       		.byte	0
 3495 0182 00       		.byte	0
 3496 0183 1F       		.uleb128 0x1f
 3497 0184 2E       		.uleb128 0x2e
 3498 0185 01       		.byte	0x1
 3499 0186 31       		.uleb128 0x31
 3500 0187 13       		.uleb128 0x13
 3501 0188 11       		.uleb128 0x11
 3502 0189 01       		.uleb128 0x1
 3503 018a 12       		.uleb128 0x12
 3504 018b 06       		.uleb128 0x6
 3505 018c 40       		.uleb128 0x40
 3506 018d 18       		.uleb128 0x18
 3507 018e 9742     		.uleb128 0x2117
 3508 0190 19       		.uleb128 0x19
 3509 0191 01       		.uleb128 0x1
 3510 0192 13       		.uleb128 0x13
 3511 0193 00       		.byte	0
 3512 0194 00       		.byte	0
ARM GAS  /tmp/ccrU0Ftr.s 			page 63


 3513 0195 20       		.uleb128 0x20
 3514 0196 34       		.uleb128 0x34
 3515 0197 00       		.byte	0
 3516 0198 31       		.uleb128 0x31
 3517 0199 13       		.uleb128 0x13
 3518 019a 00       		.byte	0
 3519 019b 00       		.byte	0
 3520 019c 21       		.uleb128 0x21
 3521 019d 34       		.uleb128 0x34
 3522 019e 00       		.byte	0
 3523 019f 31       		.uleb128 0x31
 3524 01a0 13       		.uleb128 0x13
 3525 01a1 02       		.uleb128 0x2
 3526 01a2 17       		.uleb128 0x17
 3527 01a3 00       		.byte	0
 3528 01a4 00       		.byte	0
 3529 01a5 22       		.uleb128 0x22
 3530 01a6 0B       		.uleb128 0xb
 3531 01a7 01       		.byte	0x1
 3532 01a8 11       		.uleb128 0x11
 3533 01a9 01       		.uleb128 0x1
 3534 01aa 12       		.uleb128 0x12
 3535 01ab 06       		.uleb128 0x6
 3536 01ac 01       		.uleb128 0x1
 3537 01ad 13       		.uleb128 0x13
 3538 01ae 00       		.byte	0
 3539 01af 00       		.byte	0
 3540 01b0 23       		.uleb128 0x23
 3541 01b1 34       		.uleb128 0x34
 3542 01b2 00       		.byte	0
 3543 01b3 31       		.uleb128 0x31
 3544 01b4 13       		.uleb128 0x13
 3545 01b5 02       		.uleb128 0x2
 3546 01b6 18       		.uleb128 0x18
 3547 01b7 00       		.byte	0
 3548 01b8 00       		.byte	0
 3549 01b9 24       		.uleb128 0x24
 3550 01ba 34       		.uleb128 0x34
 3551 01bb 00       		.byte	0
 3552 01bc 03       		.uleb128 0x3
 3553 01bd 0E       		.uleb128 0xe
 3554 01be 3A       		.uleb128 0x3a
 3555 01bf 0B       		.uleb128 0xb
 3556 01c0 3B       		.uleb128 0x3b
 3557 01c1 0B       		.uleb128 0xb
 3558 01c2 49       		.uleb128 0x49
 3559 01c3 13       		.uleb128 0x13
 3560 01c4 3F       		.uleb128 0x3f
 3561 01c5 19       		.uleb128 0x19
 3562 01c6 3C       		.uleb128 0x3c
 3563 01c7 19       		.uleb128 0x19
 3564 01c8 00       		.byte	0
 3565 01c9 00       		.byte	0
 3566 01ca 25       		.uleb128 0x25
 3567 01cb 01       		.uleb128 0x1
 3568 01cc 01       		.byte	0x1
 3569 01cd 49       		.uleb128 0x49
ARM GAS  /tmp/ccrU0Ftr.s 			page 64


 3570 01ce 13       		.uleb128 0x13
 3571 01cf 01       		.uleb128 0x1
 3572 01d0 13       		.uleb128 0x13
 3573 01d1 00       		.byte	0
 3574 01d2 00       		.byte	0
 3575 01d3 26       		.uleb128 0x26
 3576 01d4 21       		.uleb128 0x21
 3577 01d5 00       		.byte	0
 3578 01d6 49       		.uleb128 0x49
 3579 01d7 13       		.uleb128 0x13
 3580 01d8 2F       		.uleb128 0x2f
 3581 01d9 0B       		.uleb128 0xb
 3582 01da 00       		.byte	0
 3583 01db 00       		.byte	0
 3584 01dc 27       		.uleb128 0x27
 3585 01dd 21       		.uleb128 0x21
 3586 01de 00       		.byte	0
 3587 01df 00       		.byte	0
 3588 01e0 00       		.byte	0
 3589 01e1 28       		.uleb128 0x28
 3590 01e2 34       		.uleb128 0x34
 3591 01e3 00       		.byte	0
 3592 01e4 03       		.uleb128 0x3
 3593 01e5 08       		.uleb128 0x8
 3594 01e6 3A       		.uleb128 0x3a
 3595 01e7 0B       		.uleb128 0xb
 3596 01e8 3B       		.uleb128 0x3b
 3597 01e9 0B       		.uleb128 0xb
 3598 01ea 49       		.uleb128 0x49
 3599 01eb 13       		.uleb128 0x13
 3600 01ec 3F       		.uleb128 0x3f
 3601 01ed 19       		.uleb128 0x19
 3602 01ee 3C       		.uleb128 0x3c
 3603 01ef 19       		.uleb128 0x19
 3604 01f0 00       		.byte	0
 3605 01f1 00       		.byte	0
 3606 01f2 29       		.uleb128 0x29
 3607 01f3 34       		.uleb128 0x34
 3608 01f4 00       		.byte	0
 3609 01f5 03       		.uleb128 0x3
 3610 01f6 0E       		.uleb128 0xe
 3611 01f7 3A       		.uleb128 0x3a
 3612 01f8 0B       		.uleb128 0xb
 3613 01f9 3B       		.uleb128 0x3b
 3614 01fa 0B       		.uleb128 0xb
 3615 01fb 49       		.uleb128 0x49
 3616 01fc 13       		.uleb128 0x13
 3617 01fd 3F       		.uleb128 0x3f
 3618 01fe 19       		.uleb128 0x19
 3619 01ff 02       		.uleb128 0x2
 3620 0200 18       		.uleb128 0x18
 3621 0201 00       		.byte	0
 3622 0202 00       		.byte	0
 3623 0203 2A       		.uleb128 0x2a
 3624 0204 34       		.uleb128 0x34
 3625 0205 00       		.byte	0
 3626 0206 03       		.uleb128 0x3
ARM GAS  /tmp/ccrU0Ftr.s 			page 65


 3627 0207 0E       		.uleb128 0xe
 3628 0208 3A       		.uleb128 0x3a
 3629 0209 0B       		.uleb128 0xb
 3630 020a 3B       		.uleb128 0x3b
 3631 020b 05       		.uleb128 0x5
 3632 020c 49       		.uleb128 0x49
 3633 020d 13       		.uleb128 0x13
 3634 020e 3F       		.uleb128 0x3f
 3635 020f 19       		.uleb128 0x19
 3636 0210 02       		.uleb128 0x2
 3637 0211 18       		.uleb128 0x18
 3638 0212 00       		.byte	0
 3639 0213 00       		.byte	0
 3640 0214 2B       		.uleb128 0x2b
 3641 0215 2E       		.uleb128 0x2e
 3642 0216 01       		.byte	0x1
 3643 0217 3F       		.uleb128 0x3f
 3644 0218 19       		.uleb128 0x19
 3645 0219 03       		.uleb128 0x3
 3646 021a 0E       		.uleb128 0xe
 3647 021b 3A       		.uleb128 0x3a
 3648 021c 0B       		.uleb128 0xb
 3649 021d 3B       		.uleb128 0x3b
 3650 021e 05       		.uleb128 0x5
 3651 021f 27       		.uleb128 0x27
 3652 0220 19       		.uleb128 0x19
 3653 0221 49       		.uleb128 0x49
 3654 0222 13       		.uleb128 0x13
 3655 0223 3C       		.uleb128 0x3c
 3656 0224 19       		.uleb128 0x19
 3657 0225 01       		.uleb128 0x1
 3658 0226 13       		.uleb128 0x13
 3659 0227 00       		.byte	0
 3660 0228 00       		.byte	0
 3661 0229 2C       		.uleb128 0x2c
 3662 022a 2E       		.uleb128 0x2e
 3663 022b 01       		.byte	0x1
 3664 022c 3F       		.uleb128 0x3f
 3665 022d 19       		.uleb128 0x19
 3666 022e 03       		.uleb128 0x3
 3667 022f 0E       		.uleb128 0xe
 3668 0230 3A       		.uleb128 0x3a
 3669 0231 0B       		.uleb128 0xb
 3670 0232 3B       		.uleb128 0x3b
 3671 0233 0B       		.uleb128 0xb
 3672 0234 27       		.uleb128 0x27
 3673 0235 19       		.uleb128 0x19
 3674 0236 3C       		.uleb128 0x3c
 3675 0237 19       		.uleb128 0x19
 3676 0238 01       		.uleb128 0x1
 3677 0239 13       		.uleb128 0x13
 3678 023a 00       		.byte	0
 3679 023b 00       		.byte	0
 3680 023c 2D       		.uleb128 0x2d
 3681 023d 2E       		.uleb128 0x2e
 3682 023e 00       		.byte	0
 3683 023f 3F       		.uleb128 0x3f
ARM GAS  /tmp/ccrU0Ftr.s 			page 66


 3684 0240 19       		.uleb128 0x19
 3685 0241 03       		.uleb128 0x3
 3686 0242 0E       		.uleb128 0xe
 3687 0243 3A       		.uleb128 0x3a
 3688 0244 0B       		.uleb128 0xb
 3689 0245 3B       		.uleb128 0x3b
 3690 0246 0B       		.uleb128 0xb
 3691 0247 27       		.uleb128 0x27
 3692 0248 19       		.uleb128 0x19
 3693 0249 3C       		.uleb128 0x3c
 3694 024a 19       		.uleb128 0x19
 3695 024b 00       		.byte	0
 3696 024c 00       		.byte	0
 3697 024d 2E       		.uleb128 0x2e
 3698 024e 2E       		.uleb128 0x2e
 3699 024f 01       		.byte	0x1
 3700 0250 3F       		.uleb128 0x3f
 3701 0251 19       		.uleb128 0x19
 3702 0252 03       		.uleb128 0x3
 3703 0253 0E       		.uleb128 0xe
 3704 0254 3A       		.uleb128 0x3a
 3705 0255 0B       		.uleb128 0xb
 3706 0256 3B       		.uleb128 0x3b
 3707 0257 0B       		.uleb128 0xb
 3708 0258 27       		.uleb128 0x27
 3709 0259 19       		.uleb128 0x19
 3710 025a 49       		.uleb128 0x49
 3711 025b 13       		.uleb128 0x13
 3712 025c 3C       		.uleb128 0x3c
 3713 025d 19       		.uleb128 0x19
 3714 025e 01       		.uleb128 0x1
 3715 025f 13       		.uleb128 0x13
 3716 0260 00       		.byte	0
 3717 0261 00       		.byte	0
 3718 0262 2F       		.uleb128 0x2f
 3719 0263 2E       		.uleb128 0x2e
 3720 0264 01       		.byte	0x1
 3721 0265 3F       		.uleb128 0x3f
 3722 0266 19       		.uleb128 0x19
 3723 0267 03       		.uleb128 0x3
 3724 0268 0E       		.uleb128 0xe
 3725 0269 3A       		.uleb128 0x3a
 3726 026a 0B       		.uleb128 0xb
 3727 026b 3B       		.uleb128 0x3b
 3728 026c 05       		.uleb128 0x5
 3729 026d 27       		.uleb128 0x27
 3730 026e 19       		.uleb128 0x19
 3731 026f 3C       		.uleb128 0x3c
 3732 0270 19       		.uleb128 0x19
 3733 0271 01       		.uleb128 0x1
 3734 0272 13       		.uleb128 0x13
 3735 0273 00       		.byte	0
 3736 0274 00       		.byte	0
 3737 0275 30       		.uleb128 0x30
 3738 0276 2E       		.uleb128 0x2e
 3739 0277 00       		.byte	0
 3740 0278 3F       		.uleb128 0x3f
ARM GAS  /tmp/ccrU0Ftr.s 			page 67


 3741 0279 19       		.uleb128 0x19
 3742 027a 03       		.uleb128 0x3
 3743 027b 0E       		.uleb128 0xe
 3744 027c 3A       		.uleb128 0x3a
 3745 027d 0B       		.uleb128 0xb
 3746 027e 3B       		.uleb128 0x3b
 3747 027f 0B       		.uleb128 0xb
 3748 0280 27       		.uleb128 0x27
 3749 0281 19       		.uleb128 0x19
 3750 0282 49       		.uleb128 0x49
 3751 0283 13       		.uleb128 0x13
 3752 0284 3C       		.uleb128 0x3c
 3753 0285 19       		.uleb128 0x19
 3754 0286 00       		.byte	0
 3755 0287 00       		.byte	0
 3756 0288 31       		.uleb128 0x31
 3757 0289 2E       		.uleb128 0x2e
 3758 028a 01       		.byte	0x1
 3759 028b 3F       		.uleb128 0x3f
 3760 028c 19       		.uleb128 0x19
 3761 028d 03       		.uleb128 0x3
 3762 028e 0E       		.uleb128 0xe
 3763 028f 3A       		.uleb128 0x3a
 3764 0290 0B       		.uleb128 0xb
 3765 0291 3B       		.uleb128 0x3b
 3766 0292 0B       		.uleb128 0xb
 3767 0293 27       		.uleb128 0x27
 3768 0294 19       		.uleb128 0x19
 3769 0295 49       		.uleb128 0x49
 3770 0296 13       		.uleb128 0x13
 3771 0297 3C       		.uleb128 0x3c
 3772 0298 19       		.uleb128 0x19
 3773 0299 00       		.byte	0
 3774 029a 00       		.byte	0
 3775 029b 00       		.byte	0
 3776              		.section	.debug_loc,"",%progbits
 3777              	.Ldebug_loc0:
 3778              	.LLST0:
 3779 0000 00000000 		.4byte	.LVL17
 3780 0004 06000000 		.4byte	.LVL18
 3781 0008 0100     		.2byte	0x1
 3782 000a 50       		.byte	0x50
 3783 000b 06000000 		.4byte	.LVL18
 3784 000f 18000000 		.4byte	.LFE14
 3785 0013 0400     		.2byte	0x4
 3786 0015 F3       		.byte	0xf3
 3787 0016 01       		.uleb128 0x1
 3788 0017 50       		.byte	0x50
 3789 0018 9F       		.byte	0x9f
 3790 0019 00000000 		.4byte	0
 3791 001d 00000000 		.4byte	0
 3792              	.LLST1:
 3793 0021 00000000 		.4byte	.LVL21
 3794 0025 06000000 		.4byte	.LVL22
 3795 0029 0100     		.2byte	0x1
 3796 002b 50       		.byte	0x50
 3797 002c 06000000 		.4byte	.LVL22
ARM GAS  /tmp/ccrU0Ftr.s 			page 68


 3798 0030 12000000 		.4byte	.LVL25
 3799 0034 0100     		.2byte	0x1
 3800 0036 54       		.byte	0x54
 3801 0037 12000000 		.4byte	.LVL25
 3802 003b 18000000 		.4byte	.LFE8
 3803 003f 0400     		.2byte	0x4
 3804 0041 F3       		.byte	0xf3
 3805 0042 01       		.uleb128 0x1
 3806 0043 50       		.byte	0x50
 3807 0044 9F       		.byte	0x9f
 3808 0045 00000000 		.4byte	0
 3809 0049 00000000 		.4byte	0
 3810              	.LLST2:
 3811 004d 00000000 		.4byte	.LVL29
 3812 0051 04000000 		.4byte	.LVL30
 3813 0055 0100     		.2byte	0x1
 3814 0057 50       		.byte	0x50
 3815 0058 04000000 		.4byte	.LVL30
 3816 005c 20000000 		.4byte	.LFE11
 3817 0060 0400     		.2byte	0x4
 3818 0062 F3       		.byte	0xf3
 3819 0063 01       		.uleb128 0x1
 3820 0064 50       		.byte	0x50
 3821 0065 9F       		.byte	0x9f
 3822 0066 00000000 		.4byte	0
 3823 006a 00000000 		.4byte	0
 3824              	.LLST3:
 3825 006e 00000000 		.4byte	.LVL34
 3826 0072 0A000000 		.4byte	.LVL35
 3827 0076 0100     		.2byte	0x1
 3828 0078 50       		.byte	0x50
 3829 0079 0A000000 		.4byte	.LVL35
 3830 007d 14000000 		.4byte	.LVL37
 3831 0081 0400     		.2byte	0x4
 3832 0083 F3       		.byte	0xf3
 3833 0084 01       		.uleb128 0x1
 3834 0085 50       		.byte	0x50
 3835 0086 9F       		.byte	0x9f
 3836 0087 14000000 		.4byte	.LVL37
 3837 008b 17000000 		.4byte	.LVL38-1
 3838 008f 0100     		.2byte	0x1
 3839 0091 50       		.byte	0x50
 3840 0092 17000000 		.4byte	.LVL38-1
 3841 0096 1A000000 		.4byte	.LFE16
 3842 009a 0400     		.2byte	0x4
 3843 009c F3       		.byte	0xf3
 3844 009d 01       		.uleb128 0x1
 3845 009e 50       		.byte	0x50
 3846 009f 9F       		.byte	0x9f
 3847 00a0 00000000 		.4byte	0
 3848 00a4 00000000 		.4byte	0
 3849              	.LLST4:
 3850 00a8 0E000000 		.4byte	.LVL53
 3851 00ac 18000000 		.4byte	.LVL54
 3852 00b0 0100     		.2byte	0x1
 3853 00b2 50       		.byte	0x50
 3854 00b3 00000000 		.4byte	0
ARM GAS  /tmp/ccrU0Ftr.s 			page 69


 3855 00b7 00000000 		.4byte	0
 3856              	.LLST5:
 3857 00bb 72000000 		.4byte	.LVL60
 3858 00bf 75000000 		.4byte	.LVL61-1
 3859 00c3 0100     		.2byte	0x1
 3860 00c5 50       		.byte	0x50
 3861 00c6 75000000 		.4byte	.LVL61-1
 3862 00ca 7A000000 		.4byte	.LVL62
 3863 00ce 0100     		.2byte	0x1
 3864 00d0 55       		.byte	0x55
 3865 00d1 C6000000 		.4byte	.LVL69
 3866 00d5 D0000000 		.4byte	.LVL70
 3867 00d9 0100     		.2byte	0x1
 3868 00db 50       		.byte	0x50
 3869 00dc 00000000 		.4byte	0
 3870 00e0 00000000 		.4byte	0
 3871              		.section	.debug_aranges,"",%progbits
 3872 0000 6C000000 		.4byte	0x6c
 3873 0004 0200     		.2byte	0x2
 3874 0006 00000000 		.4byte	.Ldebug_info0
 3875 000a 04       		.byte	0x4
 3876 000b 00       		.byte	0
 3877 000c 0000     		.2byte	0
 3878 000e 0000     		.2byte	0
 3879 0010 00000000 		.4byte	.LFB9
 3880 0014 40010000 		.4byte	.LFE9-.LFB9
 3881 0018 00000000 		.4byte	.LFB14
 3882 001c 18000000 		.4byte	.LFE14-.LFB14
 3883 0020 00000000 		.4byte	.LFB8
 3884 0024 18000000 		.4byte	.LFE8-.LFB8
 3885 0028 00000000 		.4byte	.LFB7
 3886 002c 10000000 		.4byte	.LFE7-.LFB7
 3887 0030 00000000 		.4byte	.LFB10
 3888 0034 10000000 		.4byte	.LFE10-.LFB10
 3889 0038 00000000 		.4byte	.LFB13
 3890 003c 10000000 		.4byte	.LFE13-.LFB13
 3891 0040 00000000 		.4byte	.LFB11
 3892 0044 20000000 		.4byte	.LFE11-.LFB11
 3893 0048 00000000 		.4byte	.LFB16
 3894 004c 1A000000 		.4byte	.LFE16-.LFB16
 3895 0050 00000000 		.4byte	.LFB17
 3896 0054 E8000000 		.4byte	.LFE17-.LFB17
 3897 0058 00000000 		.4byte	.LFB12
 3898 005c 4C010000 		.4byte	.LFE12-.LFB12
 3899 0060 00000000 		.4byte	.LFB15
 3900 0064 98000000 		.4byte	.LFE15-.LFB15
 3901 0068 00000000 		.4byte	0
 3902 006c 00000000 		.4byte	0
 3903              		.section	.debug_ranges,"",%progbits
 3904              	.Ldebug_ranges0:
 3905 0000 00000000 		.4byte	.LFB9
 3906 0004 40010000 		.4byte	.LFE9
 3907 0008 00000000 		.4byte	.LFB14
 3908 000c 18000000 		.4byte	.LFE14
 3909 0010 00000000 		.4byte	.LFB8
 3910 0014 18000000 		.4byte	.LFE8
 3911 0018 00000000 		.4byte	.LFB7
ARM GAS  /tmp/ccrU0Ftr.s 			page 70


 3912 001c 10000000 		.4byte	.LFE7
 3913 0020 00000000 		.4byte	.LFB10
 3914 0024 10000000 		.4byte	.LFE10
 3915 0028 00000000 		.4byte	.LFB13
 3916 002c 10000000 		.4byte	.LFE13
 3917 0030 00000000 		.4byte	.LFB11
 3918 0034 20000000 		.4byte	.LFE11
 3919 0038 00000000 		.4byte	.LFB16
 3920 003c 1A000000 		.4byte	.LFE16
 3921 0040 00000000 		.4byte	.LFB17
 3922 0044 E8000000 		.4byte	.LFE17
 3923 0048 00000000 		.4byte	.LFB12
 3924 004c 4C010000 		.4byte	.LFE12
 3925 0050 00000000 		.4byte	.LFB15
 3926 0054 98000000 		.4byte	.LFE15
 3927 0058 00000000 		.4byte	0
 3928 005c 00000000 		.4byte	0
 3929              		.section	.debug_line,"",%progbits
 3930              	.Ldebug_line0:
 3931 0000 D8020000 		.section	.debug_str,"MS",%progbits,1
 3931      02006B01 
 3931      00000201 
 3931      FB0E0D00 
 3931      01010101 
 3932              	.LASF83:
 3933 0000 7466756E 		.ascii	"tfunc_t\000"
 3933      635F7400 
 3934              	.LASF42:
 3935 0008 705F6D73 		.ascii	"p_msg\000"
 3935      6700
 3936              	.LASF120:
 3937 000e 63685365 		.ascii	"chSemSignalI\000"
 3937      6D536967 
 3937      6E616C49 
 3937      00
 3938              	.LASF2:
 3939 001b 73697A65 		.ascii	"size_t\000"
 3939      5F7400
 3940              	.LASF78:
 3941 0022 7264796D 		.ascii	"rdymsg\000"
 3941      736700
 3942              	.LASF92:
 3943 0029 73656D31 		.ascii	"sem1_execute\000"
 3943      5F657865 
 3943      63757465 
 3943      00
 3944              	.LASF3:
 3945 0036 5F5F7569 		.ascii	"__uint8_t\000"
 3945      6E74385F 
 3945      7400
 3946              	.LASF101:
 3947 0040 76746C69 		.ascii	"vtlist\000"
 3947      737400
 3948              	.LASF12:
 3949 0047 6C6F6E67 		.ascii	"long long unsigned int\000"
 3949      206C6F6E 
 3949      6720756E 
ARM GAS  /tmp/ccrU0Ftr.s 			page 71


 3949      7369676E 
 3949      65642069 
 3950              	.LASF79:
 3951 005e 65786974 		.ascii	"exitcode\000"
 3951      636F6465 
 3951      00
 3952              	.LASF112:
 3953 0067 63685365 		.ascii	"chSemAddCounterI\000"
 3953      6D416464 
 3953      436F756E 
 3953      74657249 
 3953      00
 3954              	.LASF30:
 3955 0078 705F7072 		.ascii	"p_prio\000"
 3955      696F00
 3956              	.LASF11:
 3957 007f 6C6F6E67 		.ascii	"long long int\000"
 3957      206C6F6E 
 3957      6720696E 
 3957      7400
 3958              	.LASF1:
 3959 008d 7369676E 		.ascii	"signed char\000"
 3959      65642063 
 3959      68617200 
 3960              	.LASF124:
 3961 0099 63685365 		.ascii	"chSemSignalWait\000"
 3961      6D536967 
 3961      6E616C57 
 3961      61697400 
 3962              	.LASF46:
 3963 00a9 705F6D70 		.ascii	"p_mpool\000"
 3963      6F6F6C00 
 3964              	.LASF16:
 3965 00b1 626F6F6C 		.ascii	"bool_t\000"
 3965      5F7400
 3966              	.LASF75:
 3967 00b8 6D5F7175 		.ascii	"m_queue\000"
 3967      65756500 
 3968              	.LASF90:
 3969 00c0 74687265 		.ascii	"thread3\000"
 3969      61643300 
 3970              	.LASF117:
 3971 00c8 74657374 		.ascii	"test_emit_token\000"
 3971      5F656D69 
 3971      745F746F 
 3971      6B656E00 
 3972              	.LASF21:
 3973 00d8 74736C69 		.ascii	"tslices_t\000"
 3973      6365735F 
 3973      7400
 3974              	.LASF128:
 3975 00e2 73656D32 		.ascii	"sem2_execute\000"
 3975      5F657865 
 3975      63757465 
 3975      00
 3976              	.LASF8:
 3977 00ef 6C6F6E67 		.ascii	"long int\000"
ARM GAS  /tmp/ccrU0Ftr.s 			page 72


 3977      20696E74 
 3977      00
 3978              	.LASF89:
 3979 00f8 74617267 		.ascii	"target_time\000"
 3979      65745F74 
 3979      696D6500 
 3980              	.LASF19:
 3981 0104 74737461 		.ascii	"tstate_t\000"
 3981      74655F74 
 3981      00
 3982              	.LASF123:
 3983 010d 5F746573 		.ascii	"_test_assert_time_window\000"
 3983      745F6173 
 3983      73657274 
 3983      5F74696D 
 3983      655F7769 
 3984              	.LASF111:
 3985 0126 63685365 		.ascii	"chSemSignal\000"
 3985      6D536967 
 3985      6E616C00 
 3986              	.LASF32:
 3987 0132 705F6E65 		.ascii	"p_newer\000"
 3987      77657200 
 3988              	.LASF70:
 3989 013a 735F7175 		.ascii	"s_queue\000"
 3989      65756500 
 3990              	.LASF114:
 3991 0142 63685363 		.ascii	"chSchRescheduleS\000"
 3991      68526573 
 3991      63686564 
 3991      756C6553 
 3991      00
 3992              	.LASF125:
 3993 0153 474E5520 		.ascii	"GNU C 4.8.2 -mcpu=cortex-m0 -mno-thumb-interwork -m"
 3993      4320342E 
 3993      382E3220 
 3993      2D6D6370 
 3993      753D636F 
 3994 0186 7468756D 		.ascii	"thumb -ggdb -O2 -fomit-frame-pointer -falign-functi"
 3994      62202D67 
 3994      67646220 
 3994      2D4F3220 
 3994      2D666F6D 
 3995 01b9 6F6E733D 		.ascii	"ons=16 -ffunction-sections -fdata-sections -fno-com"
 3995      3136202D 
 3995      6666756E 
 3995      6374696F 
 3995      6E2D7365 
 3996 01ec 6D6F6E00 		.ascii	"mon\000"
 3997              	.LASF9:
 3998 01f0 5F5F7569 		.ascii	"__uint32_t\000"
 3998      6E743332 
 3998      5F7400
 3999              	.LASF49:
 4000 01fb 72656761 		.ascii	"regarm_t\000"
 4000      726D5F74 
 4000      00
ARM GAS  /tmp/ccrU0Ftr.s 			page 73


 4001              	.LASF56:
 4002 0204 76745F70 		.ascii	"vt_prev\000"
 4002      72657600 
 4003              	.LASF94:
 4004 020c 73656D32 		.ascii	"sem2_setup\000"
 4004      5F736574 
 4004      757000
 4005              	.LASF100:
 4006 0217 73656D31 		.ascii	"sem1\000"
 4006      00
 4007              	.LASF110:
 4008 021c 5F746573 		.ascii	"_test_assert_sequence\000"
 4008      745F6173 
 4008      73657274 
 4008      5F736571 
 4008      75656E63 
 4009              	.LASF26:
 4010 0232 636E745F 		.ascii	"cnt_t\000"
 4010      7400
 4011              	.LASF0:
 4012 0238 756E7369 		.ascii	"unsigned int\000"
 4012      676E6564 
 4012      20696E74 
 4012      00
 4013              	.LASF122:
 4014 0245 63685365 		.ascii	"chSemWaitTimeout\000"
 4014      6D576169 
 4014      7454696D 
 4014      656F7574 
 4014      00
 4015              	.LASF55:
 4016 0256 76745F6E 		.ascii	"vt_next\000"
 4016      65787400 
 4017              	.LASF129:
 4018 025e 73656D33 		.ascii	"sem3_execute\000"
 4018      5F657865 
 4018      63757465 
 4018      00
 4019              	.LASF104:
 4020 026b 74657374 		.ascii	"testsem1\000"
 4020      73656D31 
 4020      00
 4021              	.LASF105:
 4022 0274 74657374 		.ascii	"testsem2\000"
 4022      73656D32 
 4022      00
 4023              	.LASF106:
 4024 027d 74657374 		.ascii	"testsem3\000"
 4024      73656D33 
 4024      00
 4025              	.LASF107:
 4026 0286 74657374 		.ascii	"testsem4\000"
 4026      73656D34 
 4026      00
 4027              	.LASF10:
 4028 028f 6C6F6E67 		.ascii	"long unsigned int\000"
 4028      20756E73 
ARM GAS  /tmp/ccrU0Ftr.s 			page 74


 4028      69676E65 
 4028      6420696E 
 4028      7400
 4029              	.LASF87:
 4030 02a1 74656172 		.ascii	"teardown\000"
 4030      646F776E 
 4030      00
 4031              	.LASF53:
 4032 02aa 76746675 		.ascii	"vtfunc_t\000"
 4032      6E635F74 
 4032      00
 4033              	.LASF71:
 4034 02b3 735F636E 		.ascii	"s_cnt\000"
 4034      7400
 4035              	.LASF85:
 4036 02b9 6E616D65 		.ascii	"name\000"
 4036      00
 4037              	.LASF51:
 4038 02be 636F6E74 		.ascii	"context\000"
 4038      65787400 
 4039              	.LASF6:
 4040 02c6 73686F72 		.ascii	"short unsigned int\000"
 4040      7420756E 
 4040      7369676E 
 4040      65642069 
 4040      6E7400
 4041              	.LASF121:
 4042 02d9 63685365 		.ascii	"chSemReset\000"
 4042      6D526573 
 4042      657400
 4043              	.LASF99:
 4044 02e4 6273656D 		.ascii	"bsem\000"
 4044      00
 4045              	.LASF23:
 4046 02e9 6D73675F 		.ascii	"msg_t\000"
 4046      7400
 4047              	.LASF65:
 4048 02ef 725F6E65 		.ascii	"r_newer\000"
 4048      77657200 
 4049              	.LASF18:
 4050 02f7 746D6F64 		.ascii	"tmode_t\000"
 4050      655F7400 
 4051              	.LASF48:
 4052 02ff 54687265 		.ascii	"ThreadsList\000"
 4052      6164734C 
 4052      69737400 
 4053              	.LASF24:
 4054 030b 6576656E 		.ascii	"eventmask_t\000"
 4054      746D6173 
 4054      6B5F7400 
 4055              	.LASF5:
 4056 0317 73686F72 		.ascii	"short int\000"
 4056      7420696E 
 4056      7400
 4057              	.LASF74:
 4058 0321 4D757465 		.ascii	"Mutex\000"
 4058      7800
ARM GAS  /tmp/ccrU0Ftr.s 			page 75


 4059              	.LASF109:
 4060 0327 63685468 		.ascii	"chThdCreateStatic\000"
 4060      64437265 
 4060      61746553 
 4060      74617469 
 4060      6300
 4061              	.LASF98:
 4062 0339 73656D34 		.ascii	"sem4_execute\000"
 4062      5F657865 
 4062      63757465 
 4062      00
 4063              	.LASF57:
 4064 0346 76745F74 		.ascii	"vt_time\000"
 4064      696D6500 
 4065              	.LASF52:
 4066 034e 73697A65 		.ascii	"sizetype\000"
 4066      74797065 
 4066      00
 4067              	.LASF58:
 4068 0357 76745F66 		.ascii	"vt_func\000"
 4068      756E6300 
 4069              	.LASF93:
 4070 035f 73656D31 		.ascii	"sem1_setup\000"
 4070      5F736574 
 4070      757000
 4071              	.LASF113:
 4072 036a 74657374 		.ascii	"test_wait_threads\000"
 4072      5F776169 
 4072      745F7468 
 4072      72656164 
 4072      7300
 4073              	.LASF33:
 4074 037c 705F6F6C 		.ascii	"p_older\000"
 4074      64657200 
 4075              	.LASF91:
 4076 0384 74687265 		.ascii	"thread1\000"
 4076      61643100 
 4077              	.LASF96:
 4078 038c 74687265 		.ascii	"thread2\000"
 4078      61643200 
 4079              	.LASF64:
 4080 0394 725F6374 		.ascii	"r_ctx\000"
 4080      7800
 4081              	.LASF97:
 4082 039a 74687265 		.ascii	"thread4\000"
 4082      61643400 
 4083              	.LASF47:
 4084 03a2 54687265 		.ascii	"ThreadsQueue\000"
 4084      61647351 
 4084      75657565 
 4084      00
 4085              	.LASF86:
 4086 03af 73657475 		.ascii	"setup\000"
 4086      7000
 4087              	.LASF127:
 4088 03b5 2F686F6D 		.ascii	"/home/ece497/vbox-shared/mplayer/ChibiOS-RT-stable_"
 4088      652F6563 
ARM GAS  /tmp/ccrU0Ftr.s 			page 76


 4088      65343937 
 4088      2F76626F 
 4088      782D7368 
 4089 03e8 322E362E 		.ascii	"2.6.x/demos/ARMCM0-STM32F051-DISCOVERY\000"
 4089      782F6465 
 4089      6D6F732F 
 4089      41524D43 
 4089      4D302D53 
 4090              	.LASF67:
 4091 040f 725F6375 		.ascii	"r_current\000"
 4091      7272656E 
 4091      7400
 4092              	.LASF66:
 4093 0419 725F6F6C 		.ascii	"r_older\000"
 4093      64657200 
 4094              	.LASF108:
 4095 0421 70617474 		.ascii	"patternsem\000"
 4095      65726E73 
 4095      656D00
 4096              	.LASF20:
 4097 042c 74726566 		.ascii	"trefs_t\000"
 4097      735F7400 
 4098              	.LASF29:
 4099 0434 705F7072 		.ascii	"p_prev\000"
 4099      657600
 4100              	.LASF88:
 4101 043b 65786563 		.ascii	"execute\000"
 4101      75746500 
 4102              	.LASF22:
 4103 0443 74707269 		.ascii	"tprio_t\000"
 4103      6F5F7400 
 4104              	.LASF17:
 4105 044b 5F426F6F 		.ascii	"_Bool\000"
 4105      6C00
 4106              	.LASF14:
 4107 0451 696E7433 		.ascii	"int32_t\000"
 4107      325F7400 
 4108              	.LASF4:
 4109 0459 756E7369 		.ascii	"unsigned char\000"
 4109      676E6564 
 4109      20636861 
 4109      7200
 4110              	.LASF130:
 4111 0467 74657374 		.ascii	"test_wait_tick\000"
 4111      5F776169 
 4111      745F7469 
 4111      636B00
 4112              	.LASF44:
 4113 0476 705F6D74 		.ascii	"p_mtxlist\000"
 4113      786C6973 
 4113      7400
 4114              	.LASF126:
 4115 0480 2E2E2F2E 		.ascii	"../../test/testsem.c\000"
 4115      2E2F7465 
 4115      73742F74 
 4115      65737473 
 4115      656D2E63 
ARM GAS  /tmp/ccrU0Ftr.s 			page 77


 4116              	.LASF35:
 4117 0495 705F7374 		.ascii	"p_state\000"
 4117      61746500 
 4118              	.LASF38:
 4119 049d 705F7072 		.ascii	"p_preempt\000"
 4119      65656D70 
 4119      7400
 4120              	.LASF103:
 4121 04a7 74687265 		.ascii	"threads\000"
 4121      61647300 
 4122              	.LASF63:
 4123 04af 725F7072 		.ascii	"r_prio\000"
 4123      696F00
 4124              	.LASF81:
 4125 04b6 65776D61 		.ascii	"ewmask\000"
 4125      736B00
 4126              	.LASF28:
 4127 04bd 705F6E65 		.ascii	"p_next\000"
 4127      787400
 4128              	.LASF36:
 4129 04c4 705F666C 		.ascii	"p_flags\000"
 4129      61677300 
 4130              	.LASF27:
 4131 04cc 54687265 		.ascii	"Thread\000"
 4131      616400
 4132              	.LASF84:
 4133 04d3 74657374 		.ascii	"testcase\000"
 4133      63617365 
 4133      00
 4134              	.LASF43:
 4135 04dc 705F6570 		.ascii	"p_epending\000"
 4135      656E6469 
 4135      6E6700
 4136              	.LASF15:
 4137 04e7 75696E74 		.ascii	"uint32_t\000"
 4137      33325F74 
 4137      00
 4138              	.LASF62:
 4139 04f0 725F7175 		.ascii	"r_queue\000"
 4139      65756500 
 4140              	.LASF54:
 4141 04f8 56697274 		.ascii	"VirtualTimer\000"
 4141      75616C54 
 4141      696D6572 
 4141      00
 4142              	.LASF82:
 4143 0505 63686172 		.ascii	"char\000"
 4143      00
 4144              	.LASF73:
 4145 050a 42696E61 		.ascii	"BinarySemaphore\000"
 4145      72795365 
 4145      6D617068 
 4145      6F726500 
 4146              	.LASF77:
 4147 051a 6D5F6E65 		.ascii	"m_next\000"
 4147      787400
 4148              	.LASF25:
ARM GAS  /tmp/ccrU0Ftr.s 			page 78


 4149 0521 73797374 		.ascii	"systime_t\000"
 4149      696D655F 
 4149      7400
 4150              	.LASF45:
 4151 052b 705F7265 		.ascii	"p_realprio\000"
 4151      616C7072 
 4151      696F00
 4152              	.LASF7:
 4153 0536 5F5F696E 		.ascii	"__int32_t\000"
 4153      7433325F 
 4153      7400
 4154              	.LASF116:
 4155 0540 63685365 		.ascii	"chSemWait\000"
 4155      6D576169 
 4155      7400
 4156              	.LASF39:
 4157 054a 705F7469 		.ascii	"p_time\000"
 4157      6D6500
 4158              	.LASF50:
 4159 0551 696E7463 		.ascii	"intctx\000"
 4159      747800
 4160              	.LASF41:
 4161 0558 705F6D73 		.ascii	"p_msgqueue\000"
 4161      67717565 
 4161      756500
 4162              	.LASF59:
 4163 0563 76745F70 		.ascii	"vt_par\000"
 4163      617200
 4164              	.LASF69:
 4165 056a 53656D61 		.ascii	"Semaphore\000"
 4165      70686F72 
 4165      6500
 4166              	.LASF95:
 4167 0574 73656D33 		.ascii	"sem3_setup\000"
 4167      5F736574 
 4167      757000
 4168              	.LASF119:
 4169 057f 63685468 		.ascii	"chThdSleep\000"
 4169      64536C65 
 4169      657000
 4170              	.LASF37:
 4171 058a 705F7265 		.ascii	"p_refs\000"
 4171      667300
 4172              	.LASF68:
 4173 0591 52656164 		.ascii	"ReadyList\000"
 4173      794C6973 
 4173      7400
 4174              	.LASF102:
 4175 059b 726C6973 		.ascii	"rlist\000"
 4175      7400
 4176              	.LASF13:
 4177 05a1 75696E74 		.ascii	"uint8_t\000"
 4177      385F7400 
 4178              	.LASF80:
 4179 05a9 77746F62 		.ascii	"wtobjp\000"
 4179      6A7000
 4180              	.LASF34:
ARM GAS  /tmp/ccrU0Ftr.s 			page 79


 4181 05b0 705F6E61 		.ascii	"p_name\000"
 4181      6D6500
 4182              	.LASF115:
 4183 05b7 5F746573 		.ascii	"_test_assert\000"
 4183      745F6173 
 4183      73657274 
 4183      00
 4184              	.LASF60:
 4185 05c4 76745F73 		.ascii	"vt_systime\000"
 4185      79737469 
 4185      6D6500
 4186              	.LASF72:
 4187 05cf 62735F73 		.ascii	"bs_sem\000"
 4187      656D00
 4188              	.LASF61:
 4189 05d6 56544C69 		.ascii	"VTList\000"
 4189      737400
 4190              	.LASF76:
 4191 05dd 6D5F6F77 		.ascii	"m_owner\000"
 4191      6E657200 
 4192              	.LASF31:
 4193 05e5 705F6374 		.ascii	"p_ctx\000"
 4193      7800
 4194              	.LASF40:
 4195 05eb 705F7761 		.ascii	"p_waiting\000"
 4195      6974696E 
 4195      6700
 4196              	.LASF118:
 4197 05f5 63685365 		.ascii	"chSemInit\000"
 4197      6D496E69 
 4197      7400
 4198              		.ident	"GCC: (Arch Repository) 4.8.2"
ARM GAS  /tmp/ccrU0Ftr.s 			page 80


DEFINED SYMBOLS
                            *ABS*:0000000000000000 testsem.c
     /tmp/ccrU0Ftr.s:18     .text.sem1_execute:0000000000000000 $t
     /tmp/ccrU0Ftr.s:23     .text.sem1_execute:0000000000000000 sem1_execute
     /tmp/ccrU0Ftr.s:220    .text.sem1_execute:0000000000000114 $d
     /tmp/ccrU0Ftr.s:278    .text.thread1:0000000000000000 thread1
     /tmp/ccrU0Ftr.s:235    .text.thread3:0000000000000000 $t
     /tmp/ccrU0Ftr.s:240    .text.thread3:0000000000000000 thread3
     /tmp/ccrU0Ftr.s:268    .text.thread3:0000000000000014 $d
     /tmp/ccrU0Ftr.s:273    .text.thread1:0000000000000000 $t
     /tmp/ccrU0Ftr.s:306    .text.thread1:0000000000000014 $d
     /tmp/ccrU0Ftr.s:311    .text.sem1_setup:0000000000000000 $t
     /tmp/ccrU0Ftr.s:316    .text.sem1_setup:0000000000000000 sem1_setup
     /tmp/ccrU0Ftr.s:335    .text.sem1_setup:000000000000000c $d
     /tmp/ccrU0Ftr.s:340    .text.sem2_setup:0000000000000000 $t
     /tmp/ccrU0Ftr.s:345    .text.sem2_setup:0000000000000000 sem2_setup
     /tmp/ccrU0Ftr.s:364    .text.sem2_setup:000000000000000c $d
     /tmp/ccrU0Ftr.s:369    .text.sem3_setup:0000000000000000 $t
     /tmp/ccrU0Ftr.s:374    .text.sem3_setup:0000000000000000 sem3_setup
     /tmp/ccrU0Ftr.s:393    .text.sem3_setup:000000000000000c $d
     /tmp/ccrU0Ftr.s:398    .text.thread2:0000000000000000 $t
     /tmp/ccrU0Ftr.s:403    .text.thread2:0000000000000000 thread2
     /tmp/ccrU0Ftr.s:441    .text.thread2:000000000000001c $d
     /tmp/ccrU0Ftr.s:446    .text.thread4:0000000000000000 $t
     /tmp/ccrU0Ftr.s:451    .text.thread4:0000000000000000 thread4
     /tmp/ccrU0Ftr.s:491    .text.sem4_execute:0000000000000000 $t
     /tmp/ccrU0Ftr.s:496    .text.sem4_execute:0000000000000000 sem4_execute
     /tmp/ccrU0Ftr.s:652    .text.sem4_execute:00000000000000d8 $d
     /tmp/ccrU0Ftr.s:660    .text.sem2_execute:0000000000000000 $t
     /tmp/ccrU0Ftr.s:665    .text.sem2_execute:0000000000000000 sem2_execute
     /tmp/ccrU0Ftr.s:866    .text.sem2_execute:0000000000000128 $d
     /tmp/ccrU0Ftr.s:881    .text.sem3_execute:0000000000000000 $t
     /tmp/ccrU0Ftr.s:886    .text.sem3_execute:0000000000000000 sem3_execute
     /tmp/ccrU0Ftr.s:981    .text.sem3_execute:0000000000000084 $d
     /tmp/ccrU0Ftr.s:1045   .rodata.patternsem:0000000000000000 patternsem
     /tmp/ccrU0Ftr.s:1027   .rodata.testsem4:0000000000000000 testsem4
     /tmp/ccrU0Ftr.s:1018   .rodata.testsem3:0000000000000000 testsem3
     /tmp/ccrU0Ftr.s:1009   .rodata.testsem2:0000000000000000 testsem2
     /tmp/ccrU0Ftr.s:1000   .rodata.testsem1:0000000000000000 testsem1
     /tmp/ccrU0Ftr.s:997    .rodata.testsem1:0000000000000000 $d
     /tmp/ccrU0Ftr.s:1006   .rodata.testsem2:0000000000000000 $d
     /tmp/ccrU0Ftr.s:1015   .rodata.testsem3:0000000000000000 $d
     /tmp/ccrU0Ftr.s:1024   .rodata.testsem4:0000000000000000 $d
     /tmp/ccrU0Ftr.s:1033   .data.sem1:0000000000000000 $d
     /tmp/ccrU0Ftr.s:1037   .data.sem1:0000000000000000 sem1
     /tmp/ccrU0Ftr.s:1042   .rodata.patternsem:0000000000000000 $d
     /tmp/ccrU0Ftr.s:1052   .rodata.str1.4:0000000000000000 $d
                     .debug_frame:0000000000000010 $d
     /tmp/ccrU0Ftr.s:272    .text.thread3:0000000000000018 $t
     /tmp/ccrU0Ftr.s:310    .text.thread1:0000000000000018 $t
     /tmp/ccrU0Ftr.s:659    .text.sem4_execute:00000000000000e8 $t
     /tmp/ccrU0Ftr.s:880    .text.sem2_execute:000000000000014c $t
     /tmp/ccrU0Ftr.s:996    .text.sem3_execute:0000000000000098 $t

UNDEFINED SYMBOLS
chThdCreateStatic
chSemSignal
ARM GAS  /tmp/ccrU0Ftr.s 			page 81


test_wait_threads
_test_assert_sequence
chSemAddCounterI
chSchRescheduleS
_test_assert
wa
rlist
threads
chSemWait
test_emit_token
chSemInit
chThdSleep
chSemSignalI
chSemReset
chSemWaitTimeout
test_wait_tick
_test_assert_time_window
vtlist
chSemSignalWait
