ARM GAS  /tmp/ccdDyrs5.s 			page 1


   1              		.cpu cortex-m0
   2              		.fpu softvfp
   3              		.eabi_attribute 20, 1
   4              		.eabi_attribute 21, 1
   5              		.eabi_attribute 23, 3
   6              		.eabi_attribute 24, 1
   7              		.eabi_attribute 25, 1
   8              		.eabi_attribute 26, 1
   9              		.eabi_attribute 30, 2
  10              		.eabi_attribute 34, 0
  11              		.eabi_attribute 18, 4
  12              		.code	16
  13              		.file	"test.c"
  14              		.text
  15              	.Ltext0:
  16              		.cfi_sections	.debug_frame
  17              		.section	.text.tmr,"ax",%progbits
  18              		.align	2
  19              		.p2align 4,,15
  20              		.code	16
  21              		.thumb_func
  22              		.type	tmr, %function
  23              	tmr:
  24              	.LFB54:
  25              		.file 1 "../../test/test.c"
  26              		.loc 1 261 0
  27              		.cfi_startproc
  28              	.LVL0:
  29              		.loc 1 264 0
  30 0000 014B     		ldr	r3, .L2
  31 0002 0122     		mov	r2, #1
  32 0004 1A70     		strb	r2, [r3]
  33              		.loc 1 265 0
  34              		@ sp needed
  35 0006 7047     		bx	lr
  36              	.L3:
  37              		.align	2
  38              	.L2:
  39 0008 00000000 		.word	.LANCHOR0
  40              		.cfi_endproc
  41              	.LFE54:
  42              		.size	tmr, .-tmr
  43 000c C046C046 		.section	.text.print_line,"ax",%progbits
  44              		.align	2
  45              		.p2align 4,,15
  46              		.code	16
  47              		.thumb_func
  48              		.type	print_line, %function
  49              	print_line:
  50              	.LFB57:
  51              		.loc 1 300 0
  52              		.cfi_startproc
  53              	.LVL1:
  54 0000 38B5     		push	{r3, r4, r5, lr}
  55              		.cfi_def_cfa_offset 16
  56              		.cfi_offset 3, -16
  57              		.cfi_offset 4, -12
ARM GAS  /tmp/ccdDyrs5.s 			page 2


  58              		.cfi_offset 5, -8
  59              		.cfi_offset 14, -4
  60 0002 084D     		ldr	r5, .L8
  61              		.loc 1 300 0
  62 0004 4C24     		mov	r4, #76
  63              	.LVL2:
  64              	.L6:
  65              		.loc 1 304 0 discriminator 2
  66 0006 2868     		ldr	r0, [r5]
  67 0008 2D21     		mov	r1, #45
  68 000a 0368     		ldr	r3, [r0]
  69 000c 013C     		sub	r4, r4, #1
  70              	.LVL3:
  71 000e 9B68     		ldr	r3, [r3, #8]
  72 0010 9847     		blx	r3
  73              	.LVL4:
  74              		.loc 1 303 0 discriminator 2
  75 0012 002C     		cmp	r4, #0
  76 0014 F7D1     		bne	.L6
  77              		.loc 1 305 0
  78 0016 2868     		ldr	r0, [r5]
  79 0018 0349     		ldr	r1, .L8+4
  80 001a 0368     		ldr	r3, [r0]
  81 001c 0222     		mov	r2, #2
  82 001e 1B68     		ldr	r3, [r3]
  83 0020 9847     		blx	r3
  84              	.LVL5:
  85              		.loc 1 306 0
  86              		@ sp needed
  87 0022 38BD     		pop	{r3, r4, r5, pc}
  88              	.L9:
  89              		.align	2
  90              	.L8:
  91 0024 00000000 		.word	.LANCHOR1
  92 0028 00000000 		.word	.LC2
  93              		.cfi_endproc
  94              	.LFE57:
  95              		.size	print_line, .-print_line
  96              		.global	__aeabi_uidivmod
  97              		.global	__aeabi_uidiv
  98 002c C046C046 		.section	.text.test_printn,"ax",%progbits
  99              		.align	2
 100              		.p2align 4,,15
 101              		.global	test_printn
 102              		.code	16
 103              		.thumb_func
 104              		.type	test_printn, %function
 105              	test_printn:
 106              	.LFB40:
 107              		.loc 1 91 0
 108              		.cfi_startproc
 109              	.LVL6:
 110 0000 F0B5     		push	{r4, r5, r6, r7, lr}
 111              		.cfi_def_cfa_offset 20
 112              		.cfi_offset 4, -20
 113              		.cfi_offset 5, -16
 114              		.cfi_offset 6, -12
ARM GAS  /tmp/ccdDyrs5.s 			page 3


 115              		.cfi_offset 7, -8
 116              		.cfi_offset 14, -4
 117 0002 4746     		mov	r7, r8
 118 0004 80B4     		push	{r7}
 119              		.cfi_def_cfa_offset 24
 120              		.cfi_offset 8, -24
 121 0006 041C     		mov	r4, r0
 122 0008 84B0     		sub	sp, sp, #16
 123              		.cfi_def_cfa_offset 40
 124              		.loc 1 94 0
 125 000a 0028     		cmp	r0, #0
 126 000c 28D0     		beq	.L18
 127 000e 6F46     		mov	r7, sp
 128 0010 0137     		add	r7, r7, #1
 129 0012 3D1C     		mov	r5, r7
 130              	.L14:
 131              	.LVL7:
 132              		.loc 1 99 0
 133 0014 201C     		mov	r0, r4
 134 0016 0A21     		mov	r1, #10
 135 0018 FFF7FEFF 		bl	__aeabi_uidivmod
 136              	.LVL8:
 137 001c 0E1C     		mov	r6, r1
 138 001e 3036     		add	r6, r6, #48
 139 0020 6B1E     		sub	r3, r5, #1
 140              	.LVL9:
 141 0022 F6B2     		uxtb	r6, r6
 142 0024 201C     		mov	r0, r4
 143 0026 1E70     		strb	r6, [r3]
 144 0028 0A21     		mov	r1, #10
 145 002a FFF7FEFF 		bl	__aeabi_uidiv
 146              	.LVL10:
 147 002e A846     		mov	r8, r5
 148              	.LVL11:
 149 0030 041C     		mov	r4, r0
 150              	.LVL12:
 151 0032 0135     		add	r5, r5, #1
 152              	.LVL13:
 153              		.loc 1 98 0
 154 0034 0028     		cmp	r0, #0
 155 0036 EDD1     		bne	.L14
 156              		.loc 1 100 0 discriminator 1
 157 0038 6B46     		mov	r3, sp
 158 003a 9845     		cmp	r8, r3
 159 003c 0CD9     		bls	.L10
 160 003e 4446     		mov	r4, r8
 161 0040 0B4D     		ldr	r5, .L20
 162 0042 02E0     		b	.L17
 163              	.LVL14:
 164              	.L19:
 165 0044 A31E     		sub	r3, r4, #2
 166 0046 1E78     		ldrb	r6, [r3]
 167 0048 013C     		sub	r4, r4, #1
 168              	.LVL15:
 169              	.L17:
 170              		.loc 1 101 0
 171 004a 2868     		ldr	r0, [r5]
ARM GAS  /tmp/ccdDyrs5.s 			page 4


 172              	.LVL16:
 173 004c 311C     		mov	r1, r6
 174 004e 0368     		ldr	r3, [r0]
 175 0050 9B68     		ldr	r3, [r3, #8]
 176 0052 9847     		blx	r3
 177              	.LVL17:
 178              		.loc 1 100 0
 179 0054 A742     		cmp	r7, r4
 180 0056 F5D1     		bne	.L19
 181              	.LVL18:
 182              	.L10:
 183              		.loc 1 103 0
 184 0058 04B0     		add	sp, sp, #16
 185              		@ sp needed
 186 005a 04BC     		pop	{r2}
 187 005c 9046     		mov	r8, r2
 188 005e F0BD     		pop	{r4, r5, r6, r7, pc}
 189              	.LVL19:
 190              	.L18:
 191              	.LBB50:
 192              	.LBB51:
 193              		.loc 1 95 0
 194 0060 034B     		ldr	r3, .L20
 195 0062 3021     		mov	r1, #48
 196 0064 1868     		ldr	r0, [r3]
 197              	.LVL20:
 198 0066 0368     		ldr	r3, [r0]
 199 0068 9B68     		ldr	r3, [r3, #8]
 200 006a 9847     		blx	r3
 201              	.LVL21:
 202 006c F4E7     		b	.L10
 203              	.L21:
 204 006e C046     		.align	2
 205              	.L20:
 206 0070 00000000 		.word	.LANCHOR1
 207              	.LBE51:
 208              	.LBE50:
 209              		.cfi_endproc
 210              	.LFE40:
 211              		.size	test_printn, .-test_printn
 212 0074 C046C046 		.section	.text.test_print,"ax",%progbits
 212      C046C046 
 212      C046C046 
 213              		.align	2
 214              		.p2align 4,,15
 215              		.global	test_print
 216              		.code	16
 217              		.thumb_func
 218              		.type	test_print, %function
 219              	test_print:
 220              	.LFB41:
 221              		.loc 1 110 0
 222              		.cfi_startproc
 223              	.LVL22:
 224 0000 38B5     		push	{r3, r4, r5, lr}
 225              		.cfi_def_cfa_offset 16
 226              		.cfi_offset 3, -16
ARM GAS  /tmp/ccdDyrs5.s 			page 5


 227              		.cfi_offset 4, -12
 228              		.cfi_offset 5, -8
 229              		.cfi_offset 14, -4
 230              		.loc 1 112 0
 231 0002 0178     		ldrb	r1, [r0]
 232              		.loc 1 110 0
 233 0004 041C     		mov	r4, r0
 234              		.loc 1 112 0
 235 0006 0029     		cmp	r1, #0
 236 0008 08D0     		beq	.L22
 237 000a 054D     		ldr	r5, .L29
 238              	.LVL23:
 239              	.L25:
 240              		.loc 1 113 0
 241 000c 2868     		ldr	r0, [r5]
 242 000e 0134     		add	r4, r4, #1
 243              	.LVL24:
 244 0010 0368     		ldr	r3, [r0]
 245 0012 9B68     		ldr	r3, [r3, #8]
 246 0014 9847     		blx	r3
 247              	.LVL25:
 248              		.loc 1 112 0
 249 0016 2178     		ldrb	r1, [r4]
 250 0018 0029     		cmp	r1, #0
 251 001a F7D1     		bne	.L25
 252              	.L22:
 253              		.loc 1 114 0
 254              		@ sp needed
 255              	.LVL26:
 256 001c 38BD     		pop	{r3, r4, r5, pc}
 257              	.L30:
 258 001e C046     		.align	2
 259              	.L29:
 260 0020 00000000 		.word	.LANCHOR1
 261              		.cfi_endproc
 262              	.LFE41:
 263              		.size	test_print, .-test_print
 264 0024 C046C046 		.section	.text.test_println,"ax",%progbits
 264      C046C046 
 264      C046C046 
 265              		.align	2
 266              		.p2align 4,,15
 267              		.global	test_println
 268              		.code	16
 269              		.thumb_func
 270              		.type	test_println, %function
 271              	test_println:
 272              	.LFB42:
 273              		.loc 1 121 0
 274              		.cfi_startproc
 275              	.LVL27:
 276 0000 38B5     		push	{r3, r4, r5, lr}
 277              		.cfi_def_cfa_offset 16
 278              		.cfi_offset 3, -16
 279              		.cfi_offset 4, -12
 280              		.cfi_offset 5, -8
 281              		.cfi_offset 14, -4
ARM GAS  /tmp/ccdDyrs5.s 			page 6


 282              	.LBB52:
 283              	.LBB53:
 284              		.loc 1 112 0
 285 0002 0178     		ldrb	r1, [r0]
 286              	.LBE53:
 287              	.LBE52:
 288              		.loc 1 121 0
 289 0004 041C     		mov	r4, r0
 290 0006 094D     		ldr	r5, .L39
 291              	.LBB55:
 292              	.LBB54:
 293              		.loc 1 112 0
 294 0008 0029     		cmp	r1, #0
 295 000a 07D0     		beq	.L33
 296              	.LVL28:
 297              	.L34:
 298              		.loc 1 113 0
 299 000c 2868     		ldr	r0, [r5]
 300 000e 0134     		add	r4, r4, #1
 301              	.LVL29:
 302 0010 0368     		ldr	r3, [r0]
 303 0012 9B68     		ldr	r3, [r3, #8]
 304 0014 9847     		blx	r3
 305              	.LVL30:
 306              		.loc 1 112 0
 307 0016 2178     		ldrb	r1, [r4]
 308 0018 0029     		cmp	r1, #0
 309 001a F7D1     		bne	.L34
 310              	.L33:
 311              	.LBE54:
 312              	.LBE55:
 313              		.loc 1 124 0
 314 001c 2868     		ldr	r0, [r5]
 315 001e 0449     		ldr	r1, .L39+4
 316 0020 0368     		ldr	r3, [r0]
 317 0022 0222     		mov	r2, #2
 318 0024 1B68     		ldr	r3, [r3]
 319 0026 9847     		blx	r3
 320              	.LVL31:
 321              		.loc 1 125 0
 322              		@ sp needed
 323              	.LVL32:
 324 0028 38BD     		pop	{r3, r4, r5, pc}
 325              	.L40:
 326 002a C046     		.align	2
 327              	.L39:
 328 002c 00000000 		.word	.LANCHOR1
 329 0030 00000000 		.word	.LC2
 330              		.cfi_endproc
 331              	.LFE42:
 332              		.size	test_println, .-test_println
 333 0034 C046C046 		.section	.text.test_emit_token,"ax",%progbits
 333      C046C046 
 333      C046C046 
 334              		.align	2
 335              		.p2align 4,,15
 336              		.global	test_emit_token
ARM GAS  /tmp/ccdDyrs5.s 			page 7


 337              		.code	16
 338              		.thumb_func
 339              		.type	test_emit_token, %function
 340              	test_emit_token:
 341              	.LFB45:
 342              		.loc 1 147 0
 343              		.cfi_startproc
 344              	.LVL33:
 345              		.loc 1 149 0
 346              	@ 149 "../../test/test.c" 1
 347 0000 72B6     		cpsid   i
 348              	@ 0 "" 2
 349              		.loc 1 150 0
 350              		.code	16
 351 0002 034A     		ldr	r2, .L42
 352 0004 1368     		ldr	r3, [r2]
 353 0006 591C     		add	r1, r3, #1
 354 0008 1160     		str	r1, [r2]
 355 000a 1870     		strb	r0, [r3]
 356              		.loc 1 151 0
 357              	@ 151 "../../test/test.c" 1
 358 000c 62B6     		cpsie   i
 359              	@ 0 "" 2
 360              		.loc 1 152 0
 361              		.code	16
 362              		@ sp needed
 363 000e 7047     		bx	lr
 364              	.L43:
 365              		.align	2
 366              	.L42:
 367 0010 00000000 		.word	.LANCHOR2
 368              		.cfi_endproc
 369              	.LFE45:
 370              		.size	test_emit_token, .-test_emit_token
 371 0014 C046C046 		.section	.text._test_fail,"ax",%progbits
 371      C046C046 
 371      C046C046 
 372              		.align	2
 373              		.p2align 4,,15
 374              		.global	_test_fail
 375              		.code	16
 376              		.thumb_func
 377              		.type	_test_fail, %function
 378              	_test_fail:
 379              	.LFB46:
 380              		.loc 1 157 0
 381              		.cfi_startproc
 382              	.LVL34:
 383              		.loc 1 159 0
 384 0000 044A     		ldr	r2, .L45
 385 0002 0123     		mov	r3, #1
 386 0004 1370     		strb	r3, [r2]
 387              		.loc 1 160 0
 388 0006 044A     		ldr	r2, .L45+4
 389              		.loc 1 163 0
 390              		@ sp needed
 391              		.loc 1 160 0
ARM GAS  /tmp/ccdDyrs5.s 			page 8


 392 0008 1370     		strb	r3, [r2]
 393              		.loc 1 161 0
 394 000a 044B     		ldr	r3, .L45+8
 395 000c 1860     		str	r0, [r3]
 396              		.loc 1 163 0
 397 000e 0120     		mov	r0, #1
 398              	.LVL35:
 399 0010 7047     		bx	lr
 400              	.L46:
 401 0012 C046     		.align	2
 402              	.L45:
 403 0014 00000000 		.word	.LANCHOR3
 404 0018 00000000 		.word	.LANCHOR4
 405 001c 00000000 		.word	.LANCHOR5
 406              		.cfi_endproc
 407              	.LFE46:
 408              		.size	_test_fail, .-_test_fail
 409              		.section	.text._test_assert,"ax",%progbits
 410              		.align	2
 411              		.p2align 4,,15
 412              		.global	_test_assert
 413              		.code	16
 414              		.thumb_func
 415              		.type	_test_assert, %function
 416              	_test_assert:
 417              	.LFB47:
 418              		.loc 1 165 0
 419              		.cfi_startproc
 420              	.LVL36:
 421 0000 00B5     		push	{lr}
 422              		.cfi_def_cfa_offset 4
 423              		.cfi_offset 14, -4
 424              		.loc 1 169 0
 425 0002 0023     		mov	r3, #0
 426              		.loc 1 167 0
 427 0004 0029     		cmp	r1, #0
 428 0006 07D1     		bne	.L48
 429              	.LVL37:
 430              	.LBB56:
 431              	.LBB57:
 432              		.loc 1 159 0
 433 0008 044A     		ldr	r2, .L50
 434 000a 0123     		mov	r3, #1
 435 000c 1370     		strb	r3, [r2]
 436              		.loc 1 160 0
 437 000e 044A     		ldr	r2, .L50+4
 438 0010 1370     		strb	r3, [r2]
 439              		.loc 1 161 0
 440 0012 044B     		ldr	r3, .L50+8
 441 0014 1860     		str	r0, [r3]
 442              	.LBE57:
 443              	.LBE56:
 444              		.loc 1 168 0
 445 0016 0123     		mov	r3, #1
 446              	.LVL38:
 447              	.L48:
 448              		.loc 1 170 0
ARM GAS  /tmp/ccdDyrs5.s 			page 9


 449 0018 181C     		mov	r0, r3
 450              	.LVL39:
 451              		@ sp needed
 452 001a 00BD     		pop	{pc}
 453              	.L51:
 454              		.align	2
 455              	.L50:
 456 001c 00000000 		.word	.LANCHOR3
 457 0020 00000000 		.word	.LANCHOR4
 458 0024 00000000 		.word	.LANCHOR5
 459              		.cfi_endproc
 460              	.LFE47:
 461              		.size	_test_assert, .-_test_assert
 462 0028 C046C046 		.section	.text._test_assert_sequence,"ax",%progbits
 462      C046C046 
 463              		.align	2
 464              		.p2align 4,,15
 465              		.global	_test_assert_sequence
 466              		.code	16
 467              		.thumb_func
 468              		.type	_test_assert_sequence, %function
 469              	_test_assert_sequence:
 470              	.LFB48:
 471              		.loc 1 172 0
 472              		.cfi_startproc
 473              	.LVL40:
 474 0000 F0B5     		push	{r4, r5, r6, r7, lr}
 475              		.cfi_def_cfa_offset 20
 476              		.cfi_offset 4, -20
 477              		.cfi_offset 5, -16
 478              		.cfi_offset 6, -12
 479              		.cfi_offset 7, -8
 480              		.cfi_offset 14, -4
 481              		.loc 1 172 0
 482 0002 8446     		mov	ip, r0
 483              	.LVL41:
 484 0004 0F4F     		ldr	r7, .L58
 485 0006 1048     		ldr	r0, .L58+4
 486              	.LVL42:
 487 0008 3E68     		ldr	r6, [r7]
 488 000a 031C     		mov	r3, r0
 489              		.loc 1 174 0
 490 000c 05E0     		b	.L53
 491              	.LVL43:
 492              	.L56:
 493              		.loc 1 175 0
 494 000e 1578     		ldrb	r5, [r2]
 495 0010 2278     		ldrb	r2, [r4]
 496 0012 0131     		add	r1, r1, #1
 497              	.LVL44:
 498 0014 0133     		add	r3, r3, #1
 499 0016 9542     		cmp	r5, r2
 500 0018 09D1     		bne	.L57
 501              	.LVL45:
 502              	.L53:
 503 001a 0C1C     		mov	r4, r1
 504              	.LVL46:
ARM GAS  /tmp/ccdDyrs5.s 			page 10


 505 001c 1A1C     		mov	r2, r3
 506              		.loc 1 174 0 discriminator 1
 507 001e 9E42     		cmp	r6, r3
 508 0020 F5D8     		bhi	.L56
 509              	.LVL47:
 510              		.loc 1 178 0
 511 0022 0B78     		ldrb	r3, [r1]
 512 0024 002B     		cmp	r3, #0
 513 0026 02D1     		bne	.L57
 514              	.LBB58:
 515              	.LBB59:
 516              		.loc 1 132 0
 517 0028 3860     		str	r0, [r7]
 518              	.LBE59:
 519              	.LBE58:
 520              		.loc 1 181 0
 521 002a 0020     		mov	r0, #0
 522 002c 08E0     		b	.L55
 523              	.LVL48:
 524              	.L57:
 525              	.LBB60:
 526              	.LBB61:
 527              		.loc 1 159 0
 528 002e 074A     		ldr	r2, .L58+8
 529 0030 0123     		mov	r3, #1
 530 0032 1370     		strb	r3, [r2]
 531              		.loc 1 160 0
 532 0034 064A     		ldr	r2, .L58+12
 533              	.LBE61:
 534              	.LBE60:
 535              		.loc 1 176 0
 536 0036 0120     		mov	r0, #1
 537              	.LBB63:
 538              	.LBB62:
 539              		.loc 1 160 0
 540 0038 1370     		strb	r3, [r2]
 541              		.loc 1 161 0
 542 003a 064B     		ldr	r3, .L58+16
 543 003c 6246     		mov	r2, ip
 544 003e 1A60     		str	r2, [r3]
 545              	.LVL49:
 546              	.L55:
 547              	.LBE62:
 548              	.LBE63:
 549              		.loc 1 182 0
 550              		@ sp needed
 551 0040 F0BD     		pop	{r4, r5, r6, r7, pc}
 552              	.L59:
 553 0042 C046     		.align	2
 554              	.L58:
 555 0044 00000000 		.word	.LANCHOR2
 556 0048 00000000 		.word	.LANCHOR6
 557 004c 00000000 		.word	.LANCHOR3
 558 0050 00000000 		.word	.LANCHOR4
 559 0054 00000000 		.word	.LANCHOR5
 560              		.cfi_endproc
 561              	.LFE48:
ARM GAS  /tmp/ccdDyrs5.s 			page 11


 562              		.size	_test_assert_sequence, .-_test_assert_sequence
 563 0058 C046C046 		.section	.text._test_assert_time_window,"ax",%progbits
 563      C046C046 
 564              		.align	2
 565              		.p2align 4,,15
 566              		.global	_test_assert_time_window
 567              		.code	16
 568              		.thumb_func
 569              		.type	_test_assert_time_window, %function
 570              	_test_assert_time_window:
 571              	.LFB49:
 572              		.loc 1 184 0
 573              		.cfi_startproc
 574              	.LVL50:
 575              		.loc 1 186 0
 576 0000 084B     		ldr	r3, .L63
 577              		.loc 1 184 0
 578 0002 10B5     		push	{r4, lr}
 579              		.cfi_def_cfa_offset 8
 580              		.cfi_offset 4, -8
 581              		.cfi_offset 14, -4
 582              		.loc 1 186 0
 583 0004 DC68     		ldr	r4, [r3, #12]
 584              	.LVL51:
 585              	.LBB64:
 586              	.LBB65:
 587              		.loc 1 169 0
 588 0006 0023     		mov	r3, #0
 589              	.LBE65:
 590              	.LBE64:
 591              		.loc 1 186 0
 592 0008 641A     		sub	r4, r4, r1
 593              	.LVL52:
 594 000a 511A     		sub	r1, r2, r1
 595              	.LVL53:
 596              	.LBB69:
 597              	.LBB68:
 598              		.loc 1 167 0
 599 000c 8C42     		cmp	r4, r1
 600 000e 07D3     		bcc	.L61
 601              	.LVL54:
 602              	.LBB66:
 603              	.LBB67:
 604              		.loc 1 159 0
 605 0010 054A     		ldr	r2, .L63+4
 606              	.LVL55:
 607 0012 0123     		mov	r3, #1
 608 0014 1370     		strb	r3, [r2]
 609              		.loc 1 160 0
 610 0016 054A     		ldr	r2, .L63+8
 611 0018 1370     		strb	r3, [r2]
 612              		.loc 1 161 0
 613 001a 054B     		ldr	r3, .L63+12
 614 001c 1860     		str	r0, [r3]
 615              	.LBE67:
 616              	.LBE66:
 617              		.loc 1 168 0
ARM GAS  /tmp/ccdDyrs5.s 			page 12


 618 001e 0123     		mov	r3, #1
 619              	.LVL56:
 620              	.L61:
 621              	.LBE68:
 622              	.LBE69:
 623              		.loc 1 187 0
 624 0020 181C     		mov	r0, r3
 625              	.LVL57:
 626              		@ sp needed
 627 0022 10BD     		pop	{r4, pc}
 628              	.L64:
 629              		.align	2
 630              	.L63:
 631 0024 00000000 		.word	vtlist
 632 0028 00000000 		.word	.LANCHOR3
 633 002c 00000000 		.word	.LANCHOR4
 634 0030 00000000 		.word	.LANCHOR5
 635              		.cfi_endproc
 636              	.LFE49:
 637              		.size	_test_assert_time_window, .-_test_assert_time_window
 638 0034 C046C046 		.section	.text.test_terminate_threads,"ax",%progbits
 638      C046C046 
 638      C046C046 
 639              		.align	2
 640              		.p2align 4,,15
 641              		.global	test_terminate_threads
 642              		.code	16
 643              		.thumb_func
 644              		.type	test_terminate_threads, %function
 645              	test_terminate_threads:
 646              	.LFB50:
 647              		.loc 1 196 0
 648              		.cfi_startproc
 649              	.LVL58:
 650 0000 38B5     		push	{r3, r4, r5, lr}
 651              		.cfi_def_cfa_offset 16
 652              		.cfi_offset 3, -16
 653              		.cfi_offset 4, -12
 654              		.cfi_offset 5, -8
 655              		.cfi_offset 14, -4
 656 0002 064C     		ldr	r4, .L72
 657 0004 251C     		mov	r5, r4
 658 0006 1435     		add	r5, r5, #20
 659              	.LVL59:
 660              	.L68:
 661              		.loc 1 200 0
 662 0008 2068     		ldr	r0, [r4]
 663 000a 0028     		cmp	r0, #0
 664 000c 01D0     		beq	.L66
 665              		.loc 1 201 0
 666 000e FFF7FEFF 		bl	chThdTerminate
 667              	.LVL60:
 668              	.L66:
 669 0012 0434     		add	r4, r4, #4
 670              		.loc 1 199 0
 671 0014 AC42     		cmp	r4, r5
 672 0016 F7D1     		bne	.L68
ARM GAS  /tmp/ccdDyrs5.s 			page 13


 673              		.loc 1 202 0
 674              		@ sp needed
 675 0018 38BD     		pop	{r3, r4, r5, pc}
 676              	.L73:
 677 001a C046     		.align	2
 678              	.L72:
 679 001c 00000000 		.word	.LANCHOR7
 680              		.cfi_endproc
 681              	.LFE50:
 682              		.size	test_terminate_threads, .-test_terminate_threads
 683              		.section	.text.test_wait_threads,"ax",%progbits
 684              		.align	2
 685              		.p2align 4,,15
 686              		.global	test_wait_threads
 687              		.code	16
 688              		.thumb_func
 689              		.type	test_wait_threads, %function
 690              	test_wait_threads:
 691              	.LFB51:
 692              		.loc 1 207 0
 693              		.cfi_startproc
 694              	.LVL61:
 695 0000 70B5     		push	{r4, r5, r6, lr}
 696              		.cfi_def_cfa_offset 16
 697              		.cfi_offset 4, -16
 698              		.cfi_offset 5, -12
 699              		.cfi_offset 6, -8
 700              		.cfi_offset 14, -4
 701 0002 074C     		ldr	r4, .L81
 702              		.loc 1 213 0
 703 0004 0026     		mov	r6, #0
 704 0006 251C     		mov	r5, r4
 705 0008 1435     		add	r5, r5, #20
 706              	.LVL62:
 707              	.L77:
 708              		.loc 1 211 0
 709 000a 2068     		ldr	r0, [r4]
 710 000c 0028     		cmp	r0, #0
 711 000e 02D0     		beq	.L75
 712              		.loc 1 212 0
 713 0010 FFF7FEFF 		bl	chThdWait
 714              	.LVL63:
 715              		.loc 1 213 0
 716 0014 2660     		str	r6, [r4]
 717              	.L75:
 718 0016 0434     		add	r4, r4, #4
 719              		.loc 1 210 0
 720 0018 AC42     		cmp	r4, r5
 721 001a F6D1     		bne	.L77
 722              		.loc 1 215 0
 723              		@ sp needed
 724 001c 70BD     		pop	{r4, r5, r6, pc}
 725              	.L82:
 726 001e C046     		.align	2
 727              	.L81:
 728 0020 00000000 		.word	.LANCHOR7
 729              		.cfi_endproc
ARM GAS  /tmp/ccdDyrs5.s 			page 14


 730              	.LFE51:
 731              		.size	test_wait_threads, .-test_wait_threads
 732 0024 C046C046 		.section	.text.test_cpu_pulse,"ax",%progbits
 732      C046C046 
 732      C046C046 
 733              		.align	2
 734              		.p2align 4,,15
 735              		.global	test_cpu_pulse
 736              		.code	16
 737              		.thumb_func
 738              		.type	test_cpu_pulse, %function
 739              	test_cpu_pulse:
 740              	.LFB52:
 741              		.loc 1 224 0
 742              		.cfi_startproc
 743              	.LVL64:
 744              		.loc 1 228 0
 745 0000 FA21     		mov	r1, #250
 746 0002 8900     		lsl	r1, r1, #2
 747 0004 4843     		mul	r0, r1
 748              	.LVL65:
 749              		.loc 1 227 0
 750 0006 0D4B     		ldr	r3, .L96
 751              		.loc 1 224 0
 752 0008 70B5     		push	{r4, r5, r6, lr}
 753              		.cfi_def_cfa_offset 16
 754              		.cfi_offset 4, -16
 755              		.cfi_offset 5, -12
 756              		.cfi_offset 6, -8
 757              		.cfi_offset 14, -4
 758              		.loc 1 228 0
 759 000a 0138     		sub	r0, r0, #1
 760              		.loc 1 227 0
 761 000c 9D69     		ldr	r5, [r3, #24]
 762              		.loc 1 228 0
 763 000e FFF7FEFF 		bl	__aeabi_uidiv
 764              	.LVL66:
 765              		.loc 1 227 0
 766 0012 2C6A     		ldr	r4, [r5, #32]
 767              	.LVL67:
 768              		.loc 1 228 0
 769 0014 661C     		add	r6, r4, #1
 770 0016 3018     		add	r0, r6, r0
 771              	.LVL68:
 772 0018 07E0     		b	.L89
 773              	.LVL69:
 774              	.L95:
 775 001a 0022     		mov	r2, #0
 776              		.loc 1 235 0 discriminator 1
 777 001c 9C42     		cmp	r4, r3
 778 001e 02D8     		bhi	.L87
 779              	.L92:
 780              		.loc 1 236 0 discriminator 2
 781 0020 8342     		cmp	r3, r0
 782 0022 9B41     		sbc	r3, r3, r3
 783              	.LVL70:
 784 0024 5A42     		neg	r2, r3
ARM GAS  /tmp/ccdDyrs5.s 			page 15


 785              	.L87:
 786              		.loc 1 236 0 is_stmt 0
 787 0026 002A     		cmp	r2, #0
 788 0028 07D0     		beq	.L94
 789              	.L89:
 790              		.loc 1 230 0 is_stmt 1
 791 002a 2B6A     		ldr	r3, [r5, #32]
 792              	.LVL71:
 793              		.loc 1 235 0
 794 002c 8442     		cmp	r4, r0
 795 002e F4D3     		bcc	.L95
 796 0030 0122     		mov	r2, #1
 797              		.loc 1 236 0
 798 0032 9C42     		cmp	r4, r3
 799 0034 F4D8     		bhi	.L92
 800 0036 002A     		cmp	r2, #0
 801 0038 F7D1     		bne	.L89
 802              	.LVL72:
 803              	.L94:
 804              		.loc 1 237 0
 805              		@ sp needed
 806              	.LVL73:
 807              	.LVL74:
 808 003a 70BD     		pop	{r4, r5, r6, pc}
 809              	.L97:
 810              		.align	2
 811              	.L96:
 812 003c 00000000 		.word	rlist
 813              		.cfi_endproc
 814              	.LFE52:
 815              		.size	test_cpu_pulse, .-test_cpu_pulse
 816              		.section	.text.test_wait_tick,"ax",%progbits
 817              		.align	2
 818              		.p2align 4,,15
 819              		.global	test_wait_tick
 820              		.code	16
 821              		.thumb_func
 822              		.type	test_wait_tick, %function
 823              	test_wait_tick:
 824              	.LFB53:
 825              		.loc 1 245 0
 826              		.cfi_startproc
 827 0000 08B5     		push	{r3, lr}
 828              		.cfi_def_cfa_offset 8
 829              		.cfi_offset 3, -8
 830              		.cfi_offset 14, -4
 831              		.loc 1 247 0
 832 0002 0120     		mov	r0, #1
 833 0004 FFF7FEFF 		bl	chThdSleep
 834              	.LVL75:
 835              		.loc 1 248 0
 836 0008 014B     		ldr	r3, .L99
 837              		.loc 1 249 0
 838              		@ sp needed
 839              		.loc 1 248 0
 840 000a D868     		ldr	r0, [r3, #12]
 841              		.loc 1 249 0
ARM GAS  /tmp/ccdDyrs5.s 			page 16


 842 000c 08BD     		pop	{r3, pc}
 843              	.L100:
 844 000e C046     		.align	2
 845              	.L99:
 846 0010 00000000 		.word	vtlist
 847              		.cfi_endproc
 848              	.LFE53:
 849              		.size	test_wait_tick, .-test_wait_tick
 850 0014 C046C046 		.section	.text.test_start_timer,"ax",%progbits
 850      C046C046 
 850      C046C046 
 851              		.align	2
 852              		.p2align 4,,15
 853              		.global	test_start_timer
 854              		.code	16
 855              		.thumb_func
 856              		.type	test_start_timer, %function
 857              	test_start_timer:
 858              	.LFB55:
 859              		.loc 1 272 0
 860              		.cfi_startproc
 861              	.LVL76:
 862 0000 08B5     		push	{r3, lr}
 863              		.cfi_def_cfa_offset 8
 864              		.cfi_offset 3, -8
 865              		.cfi_offset 14, -4
 866              		.loc 1 275 0
 867 0002 094B     		ldr	r3, .L102
 868 0004 0022     		mov	r2, #0
 869 0006 1A70     		strb	r2, [r3]
 870              		.loc 1 276 0
 871              	@ 276 "../../test/test.c" 1
 872 0008 72B6     		cpsid   i
 873              	@ 0 "" 2
 874              		.loc 1 274 0
 875              		.code	16
 876 000a FA21     		mov	r1, #250
 877 000c 8900     		lsl	r1, r1, #2
 878 000e 4843     		mul	r0, r1
 879              	.LVL77:
 880 0010 0138     		sub	r0, r0, #1
 881 0012 FFF7FEFF 		bl	__aeabi_uidiv
 882              	.LVL78:
 883              		.loc 1 276 0
 884 0016 054A     		ldr	r2, .L102+4
 885              		.loc 1 274 0
 886 0018 411C     		add	r1, r0, #1
 887              		.loc 1 276 0
 888 001a 0023     		mov	r3, #0
 889 001c 0448     		ldr	r0, .L102+8
 890 001e FFF7FEFF 		bl	chVTSetI
 891              	.LVL79:
 892              	@ 276 "../../test/test.c" 1
 893 0022 62B6     		cpsie   i
 894              	@ 0 "" 2
 895              		.loc 1 277 0
 896              		.code	16
ARM GAS  /tmp/ccdDyrs5.s 			page 17


 897              		@ sp needed
 898 0024 08BD     		pop	{r3, pc}
 899              	.L103:
 900 0026 C046     		.align	2
 901              	.L102:
 902 0028 00000000 		.word	.LANCHOR0
 903 002c 00000000 		.word	tmr
 904 0030 00000000 		.word	.LANCHOR8
 905              		.cfi_endproc
 906              	.LFE55:
 907              		.size	test_start_timer, .-test_start_timer
 908 0034 C046C046 		.section	.text.TestThread,"ax",%progbits
 908      C046C046 
 908      C046C046 
 909              		.align	2
 910              		.p2align 4,,15
 911              		.global	TestThread
 912              		.code	16
 913              		.thumb_func
 914              		.type	TestThread, %function
 915              	TestThread:
 916              	.LFB58:
 917              		.loc 1 314 0
 918              		.cfi_startproc
 919              	.LVL80:
 920 0000 F8B5     		push	{r3, r4, r5, r6, r7, lr}
 921              		.cfi_def_cfa_offset 24
 922              		.cfi_offset 3, -24
 923              		.cfi_offset 4, -20
 924              		.cfi_offset 5, -16
 925              		.cfi_offset 6, -12
 926              		.cfi_offset 7, -8
 927              		.cfi_offset 14, -4
 928 0002 4D46     		mov	r5, r9
 929 0004 4446     		mov	r4, r8
 930 0006 5F46     		mov	r7, fp
 931 0008 5646     		mov	r6, r10
 932 000a F0B4     		push	{r4, r5, r6, r7}
 933              		.cfi_def_cfa_offset 40
 934              		.cfi_offset 8, -40
 935              		.cfi_offset 9, -36
 936              		.cfi_offset 10, -32
 937              		.cfi_offset 11, -28
 938              		.loc 1 317 0
 939 000c A44C     		ldr	r4, .L176
 940 000e 2060     		str	r0, [r4]
 941              		.loc 1 318 0
 942 0010 A448     		ldr	r0, .L176+4
 943              	.LVL81:
 944 0012 FFF7FEFF 		bl	test_println
 945              	.LVL82:
 946              		.loc 1 319 0
 947 0016 A448     		ldr	r0, .L176+8
 948 0018 FFF7FEFF 		bl	test_println
 949              	.LVL83:
 950              		.loc 1 320 0
 951 001c A348     		ldr	r0, .L176+12
ARM GAS  /tmp/ccdDyrs5.s 			page 18


 952 001e FFF7FEFF 		bl	test_println
 953              	.LVL84:
 954 0022 A34D     		ldr	r5, .L176+16
 955              	.LBB106:
 956              	.LBB107:
 957              		.loc 1 112 0
 958 0024 2A21     		mov	r1, #42
 959              	.LVL85:
 960              	.L106:
 961              		.loc 1 113 0
 962 0026 2068     		ldr	r0, [r4]
 963              	.LVL86:
 964 0028 0135     		add	r5, r5, #1
 965              	.LVL87:
 966 002a 0368     		ldr	r3, [r0]
 967 002c 9B68     		ldr	r3, [r3, #8]
 968 002e 9847     		blx	r3
 969              	.LVL88:
 970 0030 6B1E     		sub	r3, r5, #1
 971              		.loc 1 112 0
 972 0032 1978     		ldrb	r1, [r3]
 973 0034 0029     		cmp	r1, #0
 974 0036 F6D1     		bne	.L106
 975              	.LBE107:
 976              	.LBE106:
 977              		.loc 1 322 0
 978 0038 9E48     		ldr	r0, .L176+20
 979 003a FFF7FEFF 		bl	test_println
 980              	.LVL89:
 981 003e 9E4D     		ldr	r5, .L176+24
 982              	.LVL90:
 983              	.LBB108:
 984              	.LBB109:
 985              		.loc 1 112 0
 986 0040 2A21     		mov	r1, #42
 987              	.LVL91:
 988              	.L144:
 989              		.loc 1 113 0
 990 0042 2068     		ldr	r0, [r4]
 991              	.LVL92:
 992 0044 0135     		add	r5, r5, #1
 993              	.LVL93:
 994 0046 0368     		ldr	r3, [r0]
 995 0048 9B68     		ldr	r3, [r3, #8]
 996 004a 9847     		blx	r3
 997              	.LVL94:
 998 004c 6B1E     		sub	r3, r5, #1
 999              		.loc 1 112 0
 1000 004e 1978     		ldrb	r1, [r3]
 1001 0050 0029     		cmp	r1, #0
 1002 0052 F6D1     		bne	.L144
 1003              	.LBE109:
 1004              	.LBE108:
 1005              		.loc 1 324 0
 1006 0054 9948     		ldr	r0, .L176+28
 1007 0056 FFF7FEFF 		bl	test_println
 1008              	.LVL95:
ARM GAS  /tmp/ccdDyrs5.s 			page 19


 1009 005a 994D     		ldr	r5, .L176+32
 1010              	.LVL96:
 1011              	.LBB110:
 1012              	.LBB111:
 1013              		.loc 1 112 0
 1014 005c 2A21     		mov	r1, #42
 1015              	.LVL97:
 1016              	.L145:
 1017              		.loc 1 113 0
 1018 005e 2068     		ldr	r0, [r4]
 1019              	.LVL98:
 1020 0060 0135     		add	r5, r5, #1
 1021              	.LVL99:
 1022 0062 0368     		ldr	r3, [r0]
 1023 0064 9B68     		ldr	r3, [r3, #8]
 1024 0066 9847     		blx	r3
 1025              	.LVL100:
 1026 0068 6B1E     		sub	r3, r5, #1
 1027              		.loc 1 112 0
 1028 006a 1978     		ldrb	r1, [r3]
 1029 006c 0029     		cmp	r1, #0
 1030 006e F6D1     		bne	.L145
 1031              	.LBE111:
 1032              	.LBE110:
 1033              		.loc 1 327 0
 1034 0070 9448     		ldr	r0, .L176+36
 1035 0072 FFF7FEFF 		bl	test_println
 1036              	.LVL101:
 1037 0076 944D     		ldr	r5, .L176+40
 1038              	.LVL102:
 1039              	.LBB112:
 1040              	.LBB113:
 1041              		.loc 1 112 0
 1042 0078 2A21     		mov	r1, #42
 1043              	.LVL103:
 1044              	.L146:
 1045              		.loc 1 113 0
 1046 007a 2068     		ldr	r0, [r4]
 1047              	.LVL104:
 1048 007c 0135     		add	r5, r5, #1
 1049              	.LVL105:
 1050 007e 0368     		ldr	r3, [r0]
 1051 0080 9B68     		ldr	r3, [r3, #8]
 1052 0082 9847     		blx	r3
 1053              	.LVL106:
 1054 0084 6B1E     		sub	r3, r5, #1
 1055              		.loc 1 112 0
 1056 0086 1978     		ldrb	r1, [r3]
 1057 0088 0029     		cmp	r1, #0
 1058 008a F6D1     		bne	.L146
 1059              	.LBE113:
 1060              	.LBE112:
 1061              		.loc 1 330 0
 1062 008c 8F48     		ldr	r0, .L176+44
 1063 008e FFF7FEFF 		bl	test_println
 1064              	.LVL107:
 1065 0092 8F4D     		ldr	r5, .L176+48
ARM GAS  /tmp/ccdDyrs5.s 			page 20


 1066              	.LVL108:
 1067              	.LBB114:
 1068              	.LBB115:
 1069              		.loc 1 112 0
 1070 0094 2A21     		mov	r1, #42
 1071              	.LVL109:
 1072              	.L147:
 1073              		.loc 1 113 0
 1074 0096 2068     		ldr	r0, [r4]
 1075              	.LVL110:
 1076 0098 0135     		add	r5, r5, #1
 1077              	.LVL111:
 1078 009a 0368     		ldr	r3, [r0]
 1079 009c 9B68     		ldr	r3, [r3, #8]
 1080 009e 9847     		blx	r3
 1081              	.LVL112:
 1082 00a0 6B1E     		sub	r3, r5, #1
 1083              		.loc 1 112 0
 1084 00a2 1978     		ldrb	r1, [r3]
 1085 00a4 0029     		cmp	r1, #0
 1086 00a6 F6D1     		bne	.L147
 1087              	.LBE115:
 1088              	.LBE114:
 1089              		.loc 1 333 0
 1090 00a8 8A48     		ldr	r0, .L176+52
 1091 00aa FFF7FEFF 		bl	test_println
 1092              	.LVL113:
 1093 00ae 8A4D     		ldr	r5, .L176+56
 1094              	.LVL114:
 1095              	.LBB116:
 1096              	.LBB117:
 1097              		.loc 1 112 0
 1098 00b0 2A21     		mov	r1, #42
 1099              	.LVL115:
 1100              	.L148:
 1101              		.loc 1 113 0
 1102 00b2 2068     		ldr	r0, [r4]
 1103              	.LVL116:
 1104 00b4 0135     		add	r5, r5, #1
 1105              	.LVL117:
 1106 00b6 0368     		ldr	r3, [r0]
 1107 00b8 9B68     		ldr	r3, [r3, #8]
 1108 00ba 9847     		blx	r3
 1109              	.LVL118:
 1110 00bc 6B1E     		sub	r3, r5, #1
 1111              		.loc 1 112 0
 1112 00be 1978     		ldrb	r1, [r3]
 1113 00c0 0029     		cmp	r1, #0
 1114 00c2 F6D1     		bne	.L148
 1115              	.LBE117:
 1116              	.LBE116:
 1117              		.loc 1 337 0
 1118 00c4 8548     		ldr	r0, .L176+60
 1119 00c6 FFF7FEFF 		bl	test_println
 1120              	.LVL119:
 1121 00ca 854D     		ldr	r5, .L176+64
 1122              	.LVL120:
ARM GAS  /tmp/ccdDyrs5.s 			page 21


 1123              	.LBB118:
 1124              	.LBB119:
 1125              		.loc 1 112 0
 1126 00cc 2A21     		mov	r1, #42
 1127              	.LVL121:
 1128              	.L149:
 1129              		.loc 1 113 0
 1130 00ce 2068     		ldr	r0, [r4]
 1131              	.LVL122:
 1132 00d0 0135     		add	r5, r5, #1
 1133              	.LVL123:
 1134 00d2 0368     		ldr	r3, [r0]
 1135 00d4 9B68     		ldr	r3, [r3, #8]
 1136 00d6 9847     		blx	r3
 1137              	.LVL124:
 1138 00d8 6B1E     		sub	r3, r5, #1
 1139              		.loc 1 112 0
 1140 00da 1978     		ldrb	r1, [r3]
 1141 00dc 0029     		cmp	r1, #0
 1142 00de F6D1     		bne	.L149
 1143              	.LBE119:
 1144              	.LBE118:
 1145              		.loc 1 341 0
 1146 00e0 8048     		ldr	r0, .L176+68
 1147 00e2 FFF7FEFF 		bl	test_println
 1148              	.LVL125:
 1149              	.LBB120:
 1150              	.LBB121:
 1151              		.loc 1 112 0
 1152 00e6 2A25     		mov	r5, #42
 1153              	.LVL126:
 1154 00e8 7F4E     		ldr	r6, .L176+72
 1155 00ea 291C     		mov	r1, r5
 1156              	.LVL127:
 1157              	.L150:
 1158              		.loc 1 113 0
 1159 00ec 2068     		ldr	r0, [r4]
 1160              	.LVL128:
 1161 00ee 0136     		add	r6, r6, #1
 1162              	.LVL129:
 1163 00f0 0368     		ldr	r3, [r0]
 1164 00f2 9B68     		ldr	r3, [r3, #8]
 1165 00f4 9847     		blx	r3
 1166              	.LVL130:
 1167 00f6 731E     		sub	r3, r6, #1
 1168              		.loc 1 112 0
 1169 00f8 1978     		ldrb	r1, [r3]
 1170 00fa 0029     		cmp	r1, #0
 1171 00fc F6D1     		bne	.L150
 1172              	.LBE121:
 1173              	.LBE120:
 1174              		.loc 1 345 0
 1175 00fe 7B48     		ldr	r0, .L176+76
 1176 0100 0D1C     		mov	r5, r1
 1177 0102 FFF7FEFF 		bl	test_println
 1178              	.LVL131:
 1179              		.loc 1 347 0
ARM GAS  /tmp/ccdDyrs5.s 			page 22


 1180 0106 6748     		ldr	r0, .L176+4
 1181 0108 FFF7FEFF 		bl	test_println
 1182              	.LVL132:
 1183              		.loc 1 349 0
 1184 010c 784A     		ldr	r2, .L176+80
 1185 010e 794B     		ldr	r3, .L176+84
 1186 0110 1570     		strb	r5, [r2]
 1187              	.LVL133:
 1188              		.loc 1 350 0
 1189 0112 0022     		mov	r2, #0
 1190 0114 9346     		mov	fp, r2
 1191              	.LBB122:
 1192              	.LBB123:
 1193              	.LBB124:
 1194              	.LBB125:
 1195              		.loc 1 132 0
 1196 0116 784A     		ldr	r2, .L176+88
 1197 0118 1E1C     		mov	r6, r3
 1198              	.LVL134:
 1199 011a 9246     		mov	r10, r2
 1200              	.LVL135:
 1201              	.L151:
 1202 011c 0123     		mov	r3, #1
 1203 011e 9B44     		add	fp, fp, r3
 1204              	.LVL136:
 1205              	.LBE125:
 1206              	.LBE124:
 1207              	.LBE123:
 1208              	.LBE122:
 1209              		.loc 1 353 0 discriminator 1
 1210 0120 3368     		ldr	r3, [r6]
 1211              	.LBB132:
 1212              	.LBB133:
 1213              		.loc 1 112 0 discriminator 1
 1214 0122 0022     		mov	r2, #0
 1215 0124 9046     		mov	r8, r2
 1216              	.LVL137:
 1217              	.LBE133:
 1218              	.LBE132:
 1219              		.loc 1 353 0 discriminator 1
 1220 0126 002B     		cmp	r3, #0
 1221 0128 00D1     		bne	.LCB1110
 1222 012a 89E0     		b	.L173	@long jump
 1223              	.LCB1110:
 1224              	.LVL138:
 1225              	.L138:
 1226              		.loc 1 354 0
 1227 012c FFF7FEFF 		bl	print_line
 1228              	.LVL139:
 1229 0130 724D     		ldr	r5, .L176+92
 1230              	.LBB135:
 1231              	.LBB136:
 1232              		.loc 1 112 0
 1233 0132 2D21     		mov	r1, #45
 1234              	.LVL140:
 1235              	.L122:
 1236              		.loc 1 113 0
ARM GAS  /tmp/ccdDyrs5.s 			page 23


 1237 0134 2068     		ldr	r0, [r4]
 1238              	.LVL141:
 1239 0136 0135     		add	r5, r5, #1
 1240              	.LVL142:
 1241 0138 0368     		ldr	r3, [r0]
 1242 013a 9B68     		ldr	r3, [r3, #8]
 1243 013c 9847     		blx	r3
 1244              	.LVL143:
 1245 013e 6B1E     		sub	r3, r5, #1
 1246              		.loc 1 112 0
 1247 0140 1978     		ldrb	r1, [r3]
 1248 0142 0029     		cmp	r1, #0
 1249 0144 F6D1     		bne	.L122
 1250              	.LBE136:
 1251              	.LBE135:
 1252              		.loc 1 356 0
 1253 0146 5846     		mov	r0, fp
 1254 0148 FFF7FEFF 		bl	test_printn
 1255              	.LVL144:
 1256              	.LBB137:
 1257              	.LBB138:
 1258              		.loc 1 113 0
 1259 014c 2068     		ldr	r0, [r4]
 1260              	.LVL145:
 1261 014e 2E21     		mov	r1, #46
 1262 0150 0368     		ldr	r3, [r0]
 1263 0152 9B68     		ldr	r3, [r3, #8]
 1264 0154 9847     		blx	r3
 1265              	.LVL146:
 1266              	.LBE138:
 1267              	.LBE137:
 1268              		.loc 1 358 0
 1269 0156 0123     		mov	r3, #1
 1270 0158 9844     		add	r8, r8, r3
 1271              	.LVL147:
 1272 015a 4046     		mov	r0, r8
 1273 015c FFF7FEFF 		bl	test_printn
 1274              	.LVL148:
 1275 0160 674D     		ldr	r5, .L176+96
 1276              	.LVL149:
 1277              	.LBB139:
 1278              	.LBB140:
 1279              		.loc 1 112 0
 1280 0162 2021     		mov	r1, #32
 1281              	.LVL150:
 1282              	.L152:
 1283              		.loc 1 113 0
 1284 0164 2068     		ldr	r0, [r4]
 1285              	.LVL151:
 1286 0166 0135     		add	r5, r5, #1
 1287              	.LVL152:
 1288 0168 0368     		ldr	r3, [r0]
 1289 016a 9B68     		ldr	r3, [r3, #8]
 1290 016c 9847     		blx	r3
 1291              	.LVL153:
 1292 016e 6B1E     		sub	r3, r5, #1
 1293              		.loc 1 112 0
ARM GAS  /tmp/ccdDyrs5.s 			page 24


 1294 0170 1978     		ldrb	r1, [r3]
 1295 0172 0029     		cmp	r1, #0
 1296 0174 F6D1     		bne	.L152
 1297              	.LBE140:
 1298              	.LBE139:
 1299              		.loc 1 360 0
 1300 0176 3368     		ldr	r3, [r6]
 1301 0178 1D68     		ldr	r5, [r3]
 1302              	.LVL154:
 1303              	.LBB141:
 1304              	.LBB142:
 1305              		.loc 1 112 0
 1306 017a 2978     		ldrb	r1, [r5]
 1307 017c 0029     		cmp	r1, #0
 1308 017e 07D0     		beq	.L127
 1309              	.L159:
 1310              		.loc 1 113 0
 1311 0180 2068     		ldr	r0, [r4]
 1312 0182 0135     		add	r5, r5, #1
 1313              	.LVL155:
 1314 0184 0368     		ldr	r3, [r0]
 1315 0186 9B68     		ldr	r3, [r3, #8]
 1316 0188 9847     		blx	r3
 1317              	.LVL156:
 1318              		.loc 1 112 0
 1319 018a 2978     		ldrb	r1, [r5]
 1320 018c 0029     		cmp	r1, #0
 1321 018e F7D1     		bne	.L159
 1322              	.L127:
 1323              	.LBE142:
 1324              	.LBE141:
 1325              		.loc 1 361 0
 1326 0190 5C48     		ldr	r0, .L176+100
 1327 0192 FFF7FEFF 		bl	test_println
 1328              	.LVL157:
 1329              		.loc 1 363 0
 1330 0196 C820     		mov	r0, #200
 1331 0198 FFF7FEFF 		bl	chThdSleep
 1332              	.LVL158:
 1333              	.LBB143:
 1334              	.LBB130:
 1335              		.loc 1 287 0
 1336 019c 5A4B     		ldr	r3, .L176+104
 1337              	.LBB128:
 1338              	.LBB126:
 1339              		.loc 1 132 0
 1340 019e 5B4F     		ldr	r7, .L176+108
 1341 01a0 5246     		mov	r2, r10
 1342              	.LBE126:
 1343              	.LBE128:
 1344              		.loc 1 287 0
 1345 01a2 9946     		mov	r9, r3
 1346              	.LBB129:
 1347              	.LBB127:
 1348              		.loc 1 132 0
 1349 01a4 3A60     		str	r2, [r7]
 1350              	.LBE127:
ARM GAS  /tmp/ccdDyrs5.s 			page 25


 1351              	.LBE129:
 1352              		.loc 1 287 0
 1353 01a6 0023     		mov	r3, #0
 1354 01a8 4A46     		mov	r2, r9
 1355 01aa 1370     		strb	r3, [r2]
 1356              		.loc 1 289 0
 1357 01ac 584A     		ldr	r2, .L176+112
 1358              	.LBE130:
 1359              	.LBE143:
 1360              		.loc 1 365 0
 1361 01ae 3568     		ldr	r5, [r6]
 1362              	.LVL159:
 1363              	.LBB144:
 1364              	.LBB131:
 1365              		.loc 1 289 0
 1366 01b0 1360     		str	r3, [r2]
 1367              	.LVL160:
 1368 01b2 5360     		str	r3, [r2, #4]
 1369              	.LVL161:
 1370 01b4 9360     		str	r3, [r2, #8]
 1371              	.LVL162:
 1372 01b6 D360     		str	r3, [r2, #12]
 1373              	.LVL163:
 1374 01b8 1361     		str	r3, [r2, #16]
 1375              	.LVL164:
 1376              		.loc 1 291 0
 1377 01ba 6B68     		ldr	r3, [r5, #4]
 1378 01bc 002B     		cmp	r3, #0
 1379 01be 00D0     		beq	.L126
 1380              		.loc 1 292 0
 1381 01c0 9847     		blx	r3
 1382              	.LVL165:
 1383              	.L126:
 1384              		.loc 1 293 0
 1385 01c2 EB68     		ldr	r3, [r5, #12]
 1386 01c4 9847     		blx	r3
 1387              	.LVL166:
 1388              		.loc 1 294 0
 1389 01c6 AB68     		ldr	r3, [r5, #8]
 1390 01c8 002B     		cmp	r3, #0
 1391 01ca 00D0     		beq	.L129
 1392              		.loc 1 295 0
 1393 01cc 9847     		blx	r3
 1394              	.LVL167:
 1395              	.L129:
 1396              		.loc 1 297 0
 1397 01ce FFF7FEFF 		bl	test_wait_threads
 1398              	.LVL168:
 1399              	.LBE131:
 1400              	.LBE144:
 1401              		.loc 1 366 0
 1402 01d2 4A46     		mov	r2, r9
 1403 01d4 1378     		ldrb	r3, [r2]
 1404 01d6 002B     		cmp	r3, #0
 1405 01d8 58D0     		beq	.L130
 1406 01da 4E4D     		ldr	r5, .L176+116
 1407              	.LVL169:
ARM GAS  /tmp/ccdDyrs5.s 			page 26


 1408              	.LBB145:
 1409              	.LBB146:
 1410              		.loc 1 112 0
 1411 01dc 2D21     		mov	r1, #45
 1412              	.L132:
 1413              	.LVL170:
 1414              		.loc 1 113 0
 1415 01de 2068     		ldr	r0, [r4]
 1416              	.LVL171:
 1417 01e0 0135     		add	r5, r5, #1
 1418              	.LVL172:
 1419 01e2 0368     		ldr	r3, [r0]
 1420 01e4 9B68     		ldr	r3, [r3, #8]
 1421 01e6 9847     		blx	r3
 1422              	.LVL173:
 1423 01e8 6B1E     		sub	r3, r5, #1
 1424              		.loc 1 112 0
 1425 01ea 1978     		ldrb	r1, [r3]
 1426 01ec 0029     		cmp	r1, #0
 1427 01ee F6D1     		bne	.L132
 1428              	.LBE146:
 1429              	.LBE145:
 1430              		.loc 1 368 0
 1431 01f0 494B     		ldr	r3, .L176+120
 1432 01f2 1868     		ldr	r0, [r3]
 1433 01f4 FFF7FEFF 		bl	test_printn
 1434              	.LVL174:
 1435 01f8 484D     		ldr	r5, .L176+124
 1436              	.LVL175:
 1437              	.LBB147:
 1438              	.LBB134:
 1439              		.loc 1 112 0
 1440 01fa 2021     		mov	r1, #32
 1441              	.LVL176:
 1442              	.L153:
 1443              		.loc 1 113 0
 1444 01fc 2068     		ldr	r0, [r4]
 1445              	.LVL177:
 1446 01fe 0135     		add	r5, r5, #1
 1447              	.LVL178:
 1448 0200 0368     		ldr	r3, [r0]
 1449 0202 9B68     		ldr	r3, [r3, #8]
 1450 0204 9847     		blx	r3
 1451              	.LVL179:
 1452 0206 6B1E     		sub	r3, r5, #1
 1453              		.loc 1 112 0
 1454 0208 1978     		ldrb	r1, [r3]
 1455 020a 0029     		cmp	r1, #0
 1456 020c F6D1     		bne	.L153
 1457              	.LVL180:
 1458              	.LBE134:
 1459              	.LBE147:
 1460              	.LBB148:
 1461              	.LBB149:
 1462              		.loc 1 138 0
 1463 020e 3B68     		ldr	r3, [r7]
 1464 0210 434D     		ldr	r5, .L176+128
ARM GAS  /tmp/ccdDyrs5.s 			page 27


 1465              	.LVL181:
 1466 0212 B146     		mov	r9, r6
 1467 0214 5345     		cmp	r3, r10
 1468 0216 0BD9     		bls	.L136
 1469              	.LVL182:
 1470              	.L160:
 1471              		.loc 1 139 0
 1472 0218 2068     		ldr	r0, [r4]
 1473 021a 6A1E     		sub	r2, r5, #1
 1474              	.LVL183:
 1475 021c 0368     		ldr	r3, [r0]
 1476 021e 1178     		ldrb	r1, [r2]
 1477 0220 9B68     		ldr	r3, [r3, #8]
 1478 0222 9847     		blx	r3
 1479              	.LVL184:
 1480              		.loc 1 138 0
 1481 0224 3A68     		ldr	r2, [r7]
 1482              		.loc 1 139 0
 1483 0226 2E1C     		mov	r6, r5
 1484              	.LVL185:
 1485 0228 0135     		add	r5, r5, #1
 1486              	.LVL186:
 1487              		.loc 1 138 0
 1488 022a 9642     		cmp	r6, r2
 1489 022c F4D3     		bcc	.L160
 1490 022e 4E46     		mov	r6, r9
 1491              	.LVL187:
 1492              	.L136:
 1493              	.LBE149:
 1494              	.LBE148:
 1495              		.loc 1 371 0
 1496 0230 3C48     		ldr	r0, .L176+132
 1497 0232 FFF7FEFF 		bl	test_println
 1498              	.LVL188:
 1499 0236 0436     		add	r6, r6, #4
 1500              	.L175:
 1501              	.LVL189:
 1502              		.loc 1 353 0
 1503 0238 3368     		ldr	r3, [r6]
 1504 023a 002B     		cmp	r3, #0
 1505 023c 00D0     		beq	.LCB1386
 1506 023e 75E7     		b	.L138	@long jump
 1507              	.LCB1386:
 1508              	.LVL190:
 1509              	.L173:
 1510 0240 5A46     		mov	r2, fp
 1511 0242 9300     		lsl	r3, r2, #2
 1512              		.loc 1 351 0
 1513 0244 384A     		ldr	r2, .L176+136
 1514 0246 D658     		ldr	r6, [r2, r3]
 1515 0248 002E     		cmp	r6, #0
 1516 024a 00D0     		beq	.LCB1402
 1517 024c 66E7     		b	.L151	@long jump
 1518              	.LCB1402:
 1519              		.loc 1 379 0
 1520 024e FFF7FEFF 		bl	print_line
 1521              	.LVL191:
ARM GAS  /tmp/ccdDyrs5.s 			page 28


 1522              		.loc 1 380 0
 1523 0252 1448     		ldr	r0, .L176+4
 1524 0254 FFF7FEFF 		bl	test_println
 1525              	.LVL192:
 1526 0258 344D     		ldr	r5, .L176+140
 1527              	.LBB150:
 1528              	.LBB151:
 1529              		.loc 1 112 0
 1530 025a 4621     		mov	r1, #70
 1531              	.LVL193:
 1532              	.L154:
 1533              		.loc 1 113 0
 1534 025c 2068     		ldr	r0, [r4]
 1535              	.LVL194:
 1536 025e 0135     		add	r5, r5, #1
 1537              	.LVL195:
 1538 0260 0368     		ldr	r3, [r0]
 1539 0262 9B68     		ldr	r3, [r3, #8]
 1540 0264 9847     		blx	r3
 1541              	.LVL196:
 1542 0266 6B1E     		sub	r3, r5, #1
 1543              		.loc 1 112 0
 1544 0268 1978     		ldrb	r1, [r3]
 1545 026a 0029     		cmp	r1, #0
 1546 026c F6D1     		bne	.L154
 1547              	.LBE151:
 1548              	.LBE150:
 1549              		.loc 1 382 0
 1550 026e 204A     		ldr	r2, .L176+80
 1551 0270 1378     		ldrb	r3, [r2]
 1552 0272 002B     		cmp	r3, #0
 1553 0274 0FD1     		bne	.L174
 1554              		.loc 1 385 0
 1555 0276 2E48     		ldr	r0, .L176+144
 1556 0278 FFF7FEFF 		bl	test_println
 1557              	.LVL197:
 1558              	.L143:
 1559              		.loc 1 387 0
 1560 027c 1C4B     		ldr	r3, .L176+80
 1561              		.loc 1 388 0
 1562              		@ sp needed
 1563              		.loc 1 387 0
 1564 027e 1878     		ldrb	r0, [r3]
 1565              	.LVL198:
 1566              	.LVL199:
 1567              	.LVL200:
 1568              		.loc 1 388 0
 1569 0280 3CBC     		pop	{r2, r3, r4, r5}
 1570 0282 9046     		mov	r8, r2
 1571 0284 9946     		mov	r9, r3
 1572 0286 A246     		mov	r10, r4
 1573 0288 AB46     		mov	fp, r5
 1574 028a F8BD     		pop	{r3, r4, r5, r6, r7, pc}
 1575              	.LVL201:
 1576              	.L130:
 1577              		.loc 1 374 0
 1578 028c 2948     		ldr	r0, .L176+148
ARM GAS  /tmp/ccdDyrs5.s 			page 29


 1579 028e FFF7FEFF 		bl	test_println
 1580              	.LVL202:
 1581 0292 0436     		add	r6, r6, #4
 1582 0294 D0E7     		b	.L175
 1583              	.LVL203:
 1584              	.L174:
 1585              		.loc 1 383 0
 1586 0296 2848     		ldr	r0, .L176+152
 1587 0298 FFF7FEFF 		bl	test_println
 1588              	.LVL204:
 1589 029c EEE7     		b	.L143
 1590              	.L177:
 1591 029e C046     		.align	2
 1592              	.L176:
 1593 02a0 00000000 		.word	.LANCHOR1
 1594 02a4 04000000 		.word	.LC39
 1595 02a8 08000000 		.word	.LC41
 1596 02ac 24000000 		.word	.LC43
 1597 02b0 01000000 		.word	.LC45+1
 1598 02b4 90000000 		.word	.LC67
 1599 02b8 01000000 		.word	.LC69+1
 1600 02bc AC000000 		.word	.LC71
 1601 02c0 01000000 		.word	.LC73+1
 1602 02c4 D8000000 		.word	.LC75
 1603 02c8 01000000 		.word	.LC77+1
 1604 02cc F8000000 		.word	.LC79
 1605 02d0 01000000 		.word	.LC81+1
 1606 02d4 14010000 		.word	.LC83
 1607 02d8 01000000 		.word	.LC85+1
 1608 02dc 34010000 		.word	.LC87
 1609 02e0 01000000 		.word	.LC89+1
 1610 02e4 60010000 		.word	.LC91
 1611 02e8 01000000 		.word	.LC93+1
 1612 02ec AC010000 		.word	.LC95
 1613 02f0 00000000 		.word	.LANCHOR4
 1614 02f4 00000000 		.word	patternthd
 1615 02f8 00000000 		.word	.LANCHOR6
 1616 02fc 01000000 		.word	.LC47+1
 1617 0300 01000000 		.word	.LC97+1
 1618 0304 4C000000 		.word	.LC49
 1619 0308 00000000 		.word	.LANCHOR3
 1620 030c 00000000 		.word	.LANCHOR2
 1621 0310 00000000 		.word	.LANCHOR7
 1622 0314 01000000 		.word	.LC55+1
 1623 0318 00000000 		.word	.LANCHOR5
 1624 031c 01000000 		.word	.LC100+1
 1625 0320 01000000 		.word	.LANCHOR6+1
 1626 0324 68000000 		.word	.LC57
 1627 0328 00000000 		.word	.LANCHOR9
 1628 032c 01000000 		.word	.LC102+1
 1629 0330 88000000 		.word	.LC65
 1630 0334 6C000000 		.word	.LC59
 1631 0338 80000000 		.word	.LC63
 1632              		.cfi_endproc
 1633              	.LFE58:
 1634              		.size	TestThread, .-TestThread
 1635              		.global	test_timer_done
ARM GAS  /tmp/ccdDyrs5.s 			page 30


 1636              		.global	wa
 1637              		.global	threads
 1638              		.global	test
 1639 033c C046C046 		.section	.bss.test,"aw",%nobits
 1640              		.align	3
 1641              		.type	test, %object
 1642              		.size	test, 1520
 1643              	test:
 1644 0000 00000000 		.space	1520
 1644      00000000 
 1644      00000000 
 1644      00000000 
 1644      00000000 
 1645              		.section	.bss.failpoint,"aw",%nobits
 1646              		.align	2
 1647              		.set	.LANCHOR5,. + 0
 1648              		.type	failpoint, %object
 1649              		.size	failpoint, 4
 1650              	failpoint:
 1651 0000 00000000 		.space	4
 1652              		.section	.bss.local_fail,"aw",%nobits
 1653              		.set	.LANCHOR3,. + 0
 1654              		.type	local_fail, %object
 1655              		.size	local_fail, 1
 1656              	local_fail:
 1657 0000 00       		.space	1
 1658              		.section	.bss.test_timer_done,"aw",%nobits
 1659              		.set	.LANCHOR0,. + 0
 1660              		.type	test_timer_done, %object
 1661              		.size	test_timer_done, 1
 1662              	test_timer_done:
 1663 0000 00       		.space	1
 1664              		.section	.rodata.wa,"a",%progbits
 1665              		.align	2
 1666              		.type	wa, %object
 1667              		.size	wa, 20
 1668              	wa:
 1669 0000 00000000 		.word	test
 1670 0004 30010000 		.word	test+304
 1671 0008 60020000 		.word	test+608
 1672 000c 90030000 		.word	test+912
 1673 0010 C0040000 		.word	test+1216
 1674              		.section	.bss.tokp,"aw",%nobits
 1675              		.align	2
 1676              		.set	.LANCHOR2,. + 0
 1677              		.type	tokp, %object
 1678              		.size	tokp, 4
 1679              	tokp:
 1680 0000 00000000 		.space	4
 1681              		.section	.bss.global_fail,"aw",%nobits
 1682              		.set	.LANCHOR4,. + 0
 1683              		.type	global_fail, %object
 1684              		.size	global_fail, 1
 1685              	global_fail:
 1686 0000 00       		.space	1
 1687              		.section	.rodata.str1.4,"aMS",%progbits,1
 1688              		.align	2
ARM GAS  /tmp/ccdDyrs5.s 			page 31


 1689              	.LC2:
 1690 0000 0D0A00   		.ascii	"\015\012\000"
 1691 0003 00       		.space	1
 1692              	.LC39:
 1693 0004 00       		.ascii	"\000"
 1694 0005 000000   		.space	3
 1695              	.LC41:
 1696 0008 2A2A2A20 		.ascii	"*** ChibiOS/RT test suite\000"
 1696      43686962 
 1696      694F532F 
 1696      52542074 
 1696      65737420 
 1697 0022 0000     		.space	2
 1698              	.LC43:
 1699 0024 2A2A2A00 		.ascii	"***\000"
 1700              	.LC45:
 1701 0028 2A2A2A20 		.ascii	"*** Kernel:       \000"
 1701      4B65726E 
 1701      656C3A20 
 1701      20202020 
 1701      202000
 1702 003b 00       		.space	1
 1703              	.LC47:
 1704 003c 2D2D2D20 		.ascii	"--- Test Case \000"
 1704      54657374 
 1704      20436173 
 1704      652000
 1705 004b 00       		.space	1
 1706              	.LC49:
 1707 004c 2900     		.ascii	")\000"
 1708 004e 0000     		.space	2
 1709              	.LC55:
 1710 0050 2D2D2D20 		.ascii	"--- Result: FAILURE (#\000"
 1710      52657375 
 1710      6C743A20 
 1710      4641494C 
 1710      55524520 
 1711 0067 00       		.space	1
 1712              	.LC57:
 1713 0068 5D2900   		.ascii	"])\000"
 1714 006b 00       		.space	1
 1715              	.LC59:
 1716 006c 2D2D2D20 		.ascii	"--- Result: SUCCESS\000"
 1716      52657375 
 1716      6C743A20 
 1716      53554343 
 1716      45535300 
 1717              	.LC63:
 1718 0080 4641494C 		.ascii	"FAILURE\000"
 1718      55524500 
 1719              	.LC65:
 1720 0088 53554343 		.ascii	"SUCCESS\000"
 1720      45535300 
 1721              	.LC67:
 1722 0090 322E362E 		.ascii	"2.6.3\000"
 1722      3300
 1723 0096 0000     		.space	2
ARM GAS  /tmp/ccdDyrs5.s 			page 32


 1724              	.LC69:
 1725 0098 2A2A2A20 		.ascii	"*** Compiled:     \000"
 1725      436F6D70 
 1725      696C6564 
 1725      3A202020 
 1725      202000
 1726 00ab 00       		.space	1
 1727              	.LC71:
 1728 00ac 41707220 		.ascii	"Apr  7 2014 - 22:56:43\000"
 1728      20372032 
 1728      30313420 
 1728      2D203232 
 1728      3A35363A 
 1729 00c3 00       		.space	1
 1730              	.LC73:
 1731 00c4 2A2A2A20 		.ascii	"*** Compiler:     \000"
 1731      436F6D70 
 1731      696C6572 
 1731      3A202020 
 1731      202000
 1732 00d7 00       		.space	1
 1733              	.LC75:
 1734 00d8 47434320 		.ascii	"GCC 4.8.2\000"
 1734      342E382E 
 1734      3200
 1735 00e2 0000     		.space	2
 1736              	.LC77:
 1737 00e4 2A2A2A20 		.ascii	"*** Architecture: \000"
 1737      41726368 
 1737      69746563 
 1737      74757265 
 1737      3A2000
 1738 00f7 00       		.space	1
 1739              	.LC79:
 1740 00f8 41524D76 		.ascii	"ARMv6-M\000"
 1740      362D4D00 
 1741              	.LC81:
 1742 0100 2A2A2A20 		.ascii	"*** Core Variant: \000"
 1742      436F7265 
 1742      20566172 
 1742      69616E74 
 1742      3A2000
 1743 0113 00       		.space	1
 1744              	.LC83:
 1745 0114 436F7274 		.ascii	"Cortex-M0\000"
 1745      65782D4D 
 1745      3000
 1746 011e 0000     		.space	2
 1747              	.LC85:
 1748 0120 2A2A2A20 		.ascii	"*** Port Info:    \000"
 1748      506F7274 
 1748      20496E66 
 1748      6F3A2020 
 1748      202000
 1749 0133 00       		.space	1
 1750              	.LC87:
 1751 0134 50726565 		.ascii	"Preemption through NMI\000"
ARM GAS  /tmp/ccdDyrs5.s 			page 33


 1751      6D707469 
 1751      6F6E2074 
 1751      68726F75 
 1751      6768204E 
 1752 014b 00       		.space	1
 1753              	.LC89:
 1754 014c 2A2A2A20 		.ascii	"*** Platform:     \000"
 1754      506C6174 
 1754      666F726D 
 1754      3A202020 
 1754      202000
 1755 015f 00       		.space	1
 1756              	.LC91:
 1757 0160 53544D33 		.ascii	"STM32F051xx/F061xx Entry Level Medium Density devic"
 1757      32463035 
 1757      3178782F 
 1757      46303631 
 1757      78782045 
 1758 0193 657300   		.ascii	"es\000"
 1759 0196 0000     		.space	2
 1760              	.LC93:
 1761 0198 2A2A2A20 		.ascii	"*** Test Board:   \000"
 1761      54657374 
 1761      20426F61 
 1761      72643A20 
 1761      202000
 1762 01ab 00       		.space	1
 1763              	.LC95:
 1764 01ac 53542053 		.ascii	"ST STM32F0-Discovery\000"
 1764      544D3332 
 1764      46302D44 
 1764      6973636F 
 1764      76657279 
 1765 01c1 000000   		.space	3
 1766              	.LC97:
 1767 01c4 202800   		.ascii	" (\000"
 1768 01c7 00       		.space	1
 1769              	.LC100:
 1770 01c8 205B00   		.ascii	" [\000"
 1771 01cb 00       		.space	1
 1772              	.LC102:
 1773 01cc 46696E61 		.ascii	"Final result: \000"
 1773      6C207265 
 1773      73756C74 
 1773      3A2000
 1774 01db 00       		.section	.bss.vt,"aw",%nobits
 1775              		.align	2
 1776              		.set	.LANCHOR8,. + 0
 1777              		.type	vt, %object
 1778              		.size	vt, 20
 1779              	vt:
 1780 0000 00000000 		.space	20
 1780      00000000 
 1780      00000000 
 1780      00000000 
 1780      00000000 
 1781              		.section	.bss.threads,"aw",%nobits
ARM GAS  /tmp/ccdDyrs5.s 			page 34


 1782              		.align	2
 1783              		.set	.LANCHOR7,. + 0
 1784              		.type	threads, %object
 1785              		.size	threads, 20
 1786              	threads:
 1787 0000 00000000 		.space	20
 1787      00000000 
 1787      00000000 
 1787      00000000 
 1787      00000000 
 1788              		.section	.rodata.patterns,"a",%progbits
 1789              		.align	2
 1790              		.set	.LANCHOR9,. + 0
 1791              		.type	patterns, %object
 1792              		.size	patterns, 48
 1793              	patterns:
 1794 0000 00000000 		.word	patternthd
 1795 0004 00000000 		.word	patternsem
 1796 0008 00000000 		.word	patternmtx
 1797 000c 00000000 		.word	patternmsg
 1798 0010 00000000 		.word	patternmbox
 1799 0014 00000000 		.word	patternevt
 1800 0018 00000000 		.word	patternheap
 1801 001c 00000000 		.word	patternpools
 1802 0020 00000000 		.word	patterndyn
 1803 0024 00000000 		.word	patternqueues
 1804 0028 00000000 		.word	patternbmk
 1805 002c 00000000 		.word	0
 1806              		.section	.bss.chp,"aw",%nobits
 1807              		.align	2
 1808              		.set	.LANCHOR1,. + 0
 1809              		.type	chp, %object
 1810              		.size	chp, 4
 1811              	chp:
 1812 0000 00000000 		.space	4
 1813              		.section	.bss.tokens_buffer,"aw",%nobits
 1814              		.align	2
 1815              		.set	.LANCHOR6,. + 0
 1816              		.type	tokens_buffer, %object
 1817              		.size	tokens_buffer, 16
 1818              	tokens_buffer:
 1819 0000 00000000 		.space	16
 1819      00000000 
 1819      00000000 
 1819      00000000 
 1820              		.text
 1821              	.Letext0:
 1822              		.file 2 "/usr/lib/gcc/arm-none-eabi/4.8.2/include/stddef.h"
 1823              		.file 3 "/usr/arm-none-eabi/include/machine/_default_types.h"
 1824              		.file 4 "/usr/arm-none-eabi/include/stdint.h"
 1825              		.file 5 "../../os/ports/GCC/ARMCMx/chtypes.h"
 1826              		.file 6 "../../os/kernel/include/chlists.h"
 1827              		.file 7 "../../os/kernel/include/chthreads.h"
 1828              		.file 8 "../../os/ports/GCC/ARMCMx/chcore_v6m.h"
 1829              		.file 9 "../../os/kernel/include/chvt.h"
 1830              		.file 10 "../../os/kernel/include/chschd.h"
 1831              		.file 11 "../../os/kernel/include/chmtx.h"
ARM GAS  /tmp/ccdDyrs5.s 			page 35


 1832              		.file 12 "../../os/kernel/include/chstreams.h"
 1833              		.file 13 "../../test/test.h"
 1834              		.file 14 "../../test/testthd.h"
 1835              		.file 15 "../../test/testsem.h"
 1836              		.file 16 "../../test/testmtx.h"
 1837              		.file 17 "../../test/testmsg.h"
 1838              		.file 18 "../../test/testmbox.h"
 1839              		.file 19 "../../test/testevt.h"
 1840              		.file 20 "../../test/testheap.h"
 1841              		.file 21 "../../test/testpools.h"
 1842              		.file 22 "../../test/testdyn.h"
 1843              		.file 23 "../../test/testqueues.h"
 1844              		.file 24 "../../test/testbmk.h"