ARM GAS  /tmp/ccWW49QZ.s 			page 1


   1              		.cpu cortex-m0
   2              		.fpu softvfp
   3              		.eabi_attribute 20, 1
   4              		.eabi_attribute 21, 1
   5              		.eabi_attribute 23, 3
   6              		.eabi_attribute 24, 1
   7              		.eabi_attribute 25, 1
   8              		.eabi_attribute 26, 1
   9              		.eabi_attribute 30, 2
  10              		.eabi_attribute 34, 0
  11              		.eabi_attribute 18, 4
  12              		.code	16
  13              		.file	"testheap.c"
  14              		.text
  15              	.Ltext0:
  16              		.cfi_sections	.debug_frame
  17              		.section	.text.heap1_execute,"ax",%progbits
  18              		.align	2
  19              		.p2align 4,,15
  20              		.code	16
  21              		.thumb_func
  22              		.type	heap1_execute, %function
  23              	heap1_execute:
  24              	.LFB8:
  25              		.file 1 "../../test/testheap.c"
  26              		.loc 1 69 0
  27              		.cfi_startproc
  28 0000 F0B5     		push	{r4, r5, r6, r7, lr}
  29              		.cfi_def_cfa_offset 20
  30              		.cfi_offset 4, -20
  31              		.cfi_offset 5, -16
  32              		.cfi_offset 6, -12
  33              		.cfi_offset 7, -8
  34              		.cfi_offset 14, -4
  35 0002 83B0     		sub	sp, sp, #12
  36              		.cfi_def_cfa_offset 32
  37              		.loc 1 74 0
  38 0004 FFF7FEFF 		bl	chCoreStatus
  39              	.LVL0:
  40              		.loc 1 80 0
  41 0008 01A9     		add	r1, sp, #4
  42 000a 0020     		mov	r0, #0
  43 000c FFF7FEFF 		bl	chHeapStatus
  44              	.LVL1:
  45              		.loc 1 81 0
  46 0010 1021     		mov	r1, #16
  47 0012 0020     		mov	r0, #0
  48 0014 FFF7FEFF 		bl	chHeapAlloc
  49              	.LVL2:
  50              		.loc 1 82 0
  51 0018 011C     		mov	r1, r0
  52 001a 4B1E     		sub	r3, r1, #1
  53 001c 9941     		sbc	r1, r1, r3
  54              		.loc 1 81 0
  55 001e 041C     		mov	r4, r0
  56              	.LVL3:
  57              		.loc 1 82 0
ARM GAS  /tmp/ccWW49QZ.s 			page 2


  58 0020 C9B2     		uxtb	r1, r1
  59 0022 0120     		mov	r0, #1
  60              	.LVL4:
  61 0024 FFF7FEFF 		bl	_test_assert
  62              	.LVL5:
  63 0028 0028     		cmp	r0, #0
  64 002a 01D0     		beq	.L8
  65              	.LVL6:
  66              	.L1:
  67              		.loc 1 140 0
  68 002c 03B0     		add	sp, sp, #12
  69              		@ sp needed
  70 002e F0BD     		pop	{r4, r5, r6, r7, pc}
  71              	.LVL7:
  72              	.L8:
  73              		.loc 1 83 0
  74 0030 201C     		mov	r0, r4
  75 0032 FFF7FEFF 		bl	chHeapFree
  76              	.LVL8:
  77              		.loc 1 84 0
  78 0036 8249     		ldr	r1, .L9
  79 0038 0020     		mov	r0, #0
  80 003a FFF7FEFF 		bl	chHeapAlloc
  81              	.LVL9:
  82              		.loc 1 85 0
  83 003e 4142     		neg	r1, r0
  84 0040 4141     		adc	r1, r1, r0
  85              	.LVL10:
  86 0042 C9B2     		uxtb	r1, r1
  87 0044 0220     		mov	r0, #2
  88 0046 FFF7FEFF 		bl	_test_assert
  89              	.LVL11:
  90 004a 0028     		cmp	r0, #0
  91 004c EED1     		bne	.L1
  92              		.loc 1 88 0
  93 004e 7D4C     		ldr	r4, .L9+4
  94 0050 01A9     		add	r1, sp, #4
  95 0052 201C     		mov	r0, r4
  96 0054 FFF7FEFF 		bl	chHeapStatus
  97              	.LVL12:
  98              		.loc 1 91 0
  99 0058 1021     		mov	r1, #16
 100 005a 201C     		mov	r0, r4
 101 005c FFF7FEFF 		bl	chHeapAlloc
 102              	.LVL13:
 103              		.loc 1 92 0
 104 0060 1021     		mov	r1, #16
 105              		.loc 1 91 0
 106 0062 071C     		mov	r7, r0
 107              	.LVL14:
 108              		.loc 1 92 0
 109 0064 201C     		mov	r0, r4
 110              	.LVL15:
 111 0066 FFF7FEFF 		bl	chHeapAlloc
 112              	.LVL16:
 113              		.loc 1 93 0
 114 006a 1021     		mov	r1, #16
ARM GAS  /tmp/ccWW49QZ.s 			page 3


 115              		.loc 1 92 0
 116 006c 061C     		mov	r6, r0
 117              	.LVL17:
 118              		.loc 1 93 0
 119 006e 201C     		mov	r0, r4
 120              	.LVL18:
 121 0070 FFF7FEFF 		bl	chHeapAlloc
 122              	.LVL19:
 123 0074 051C     		mov	r5, r0
 124              	.LVL20:
 125              		.loc 1 94 0
 126 0076 381C     		mov	r0, r7
 127              	.LVL21:
 128 0078 FFF7FEFF 		bl	chHeapFree
 129              	.LVL22:
 130              		.loc 1 95 0
 131 007c 301C     		mov	r0, r6
 132 007e FFF7FEFF 		bl	chHeapFree
 133              	.LVL23:
 134              		.loc 1 96 0
 135 0082 281C     		mov	r0, r5
 136 0084 FFF7FEFF 		bl	chHeapFree
 137              	.LVL24:
 138              		.loc 1 97 0
 139 0088 6946     		mov	r1, sp
 140 008a 201C     		mov	r0, r4
 141 008c FFF7FEFF 		bl	chHeapStatus
 142              	.LVL25:
 143 0090 411E     		sub	r1, r0, #1
 144 0092 4B42     		neg	r3, r1
 145 0094 5941     		adc	r1, r1, r3
 146 0096 C9B2     		uxtb	r1, r1
 147 0098 0320     		mov	r0, #3
 148 009a FFF7FEFF 		bl	_test_assert
 149              	.LVL26:
 150 009e 0028     		cmp	r0, #0
 151 00a0 C4D1     		bne	.L1
 152              		.loc 1 100 0
 153 00a2 1021     		mov	r1, #16
 154 00a4 201C     		mov	r0, r4
 155 00a6 FFF7FEFF 		bl	chHeapAlloc
 156              	.LVL27:
 157              		.loc 1 101 0
 158 00aa 1021     		mov	r1, #16
 159              		.loc 1 100 0
 160 00ac 051C     		mov	r5, r0
 161              	.LVL28:
 162              		.loc 1 101 0
 163 00ae 201C     		mov	r0, r4
 164              	.LVL29:
 165 00b0 FFF7FEFF 		bl	chHeapAlloc
 166              	.LVL30:
 167              		.loc 1 102 0
 168 00b4 1021     		mov	r1, #16
 169              		.loc 1 101 0
 170 00b6 061C     		mov	r6, r0
 171              	.LVL31:
ARM GAS  /tmp/ccWW49QZ.s 			page 4


 172              		.loc 1 102 0
 173 00b8 201C     		mov	r0, r4
 174              	.LVL32:
 175 00ba FFF7FEFF 		bl	chHeapAlloc
 176              	.LVL33:
 177              		.loc 1 103 0
 178 00be FFF7FEFF 		bl	chHeapFree
 179              	.LVL34:
 180              		.loc 1 104 0
 181 00c2 301C     		mov	r0, r6
 182 00c4 FFF7FEFF 		bl	chHeapFree
 183              	.LVL35:
 184              		.loc 1 105 0
 185 00c8 281C     		mov	r0, r5
 186 00ca FFF7FEFF 		bl	chHeapFree
 187              	.LVL36:
 188              		.loc 1 106 0
 189 00ce 6946     		mov	r1, sp
 190 00d0 201C     		mov	r0, r4
 191 00d2 FFF7FEFF 		bl	chHeapStatus
 192              	.LVL37:
 193 00d6 411E     		sub	r1, r0, #1
 194 00d8 4B42     		neg	r3, r1
 195 00da 5941     		adc	r1, r1, r3
 196 00dc C9B2     		uxtb	r1, r1
 197 00de 0420     		mov	r0, #4
 198 00e0 FFF7FEFF 		bl	_test_assert
 199              	.LVL38:
 200 00e4 0028     		cmp	r0, #0
 201 00e6 A1D1     		bne	.L1
 202              		.loc 1 109 0
 203 00e8 1121     		mov	r1, #17
 204 00ea 201C     		mov	r0, r4
 205 00ec FFF7FEFF 		bl	chHeapAlloc
 206              	.LVL39:
 207              		.loc 1 110 0
 208 00f0 1021     		mov	r1, #16
 209              		.loc 1 109 0
 210 00f2 051C     		mov	r5, r0
 211              	.LVL40:
 212              		.loc 1 110 0
 213 00f4 201C     		mov	r0, r4
 214              	.LVL41:
 215 00f6 FFF7FEFF 		bl	chHeapAlloc
 216              	.LVL42:
 217 00fa 061C     		mov	r6, r0
 218              	.LVL43:
 219              		.loc 1 111 0
 220 00fc 281C     		mov	r0, r5
 221              	.LVL44:
 222 00fe FFF7FEFF 		bl	chHeapFree
 223              	.LVL45:
 224              		.loc 1 112 0
 225 0102 6946     		mov	r1, sp
 226 0104 201C     		mov	r0, r4
 227 0106 FFF7FEFF 		bl	chHeapStatus
 228              	.LVL46:
ARM GAS  /tmp/ccWW49QZ.s 			page 5


 229 010a 811E     		sub	r1, r0, #2
 230 010c 4B42     		neg	r3, r1
 231 010e 5941     		adc	r1, r1, r3
 232 0110 C9B2     		uxtb	r1, r1
 233 0112 0520     		mov	r0, #5
 234 0114 FFF7FEFF 		bl	_test_assert
 235              	.LVL47:
 236 0118 0028     		cmp	r0, #0
 237 011a 00D0     		beq	.LCB186
 238 011c 86E7     		b	.L1	@long jump
 239              	.LCB186:
 240              		.loc 1 113 0
 241 011e 1021     		mov	r1, #16
 242 0120 201C     		mov	r0, r4
 243 0122 FFF7FEFF 		bl	chHeapAlloc
 244              	.LVL48:
 245              		.loc 1 116 0
 246 0126 6946     		mov	r1, sp
 247              		.loc 1 113 0
 248 0128 051C     		mov	r5, r0
 249              	.LVL49:
 250              		.loc 1 116 0
 251 012a 201C     		mov	r0, r4
 252              	.LVL50:
 253 012c FFF7FEFF 		bl	chHeapStatus
 254              	.LVL51:
 255 0130 0121     		mov	r1, #1
 256 0132 0128     		cmp	r0, #1
 257 0134 07D0     		beq	.L3
 258              		.loc 1 116 0 is_stmt 0 discriminator 2
 259 0136 6946     		mov	r1, sp
 260 0138 201C     		mov	r0, r4
 261 013a FFF7FEFF 		bl	chHeapStatus
 262              	.LVL52:
 263 013e 811E     		sub	r1, r0, #2
 264 0140 4B42     		neg	r3, r1
 265 0142 5941     		adc	r1, r1, r3
 266 0144 C9B2     		uxtb	r1, r1
 267              	.L3:
 268              		.loc 1 116 0 discriminator 4
 269 0146 0620     		mov	r0, #6
 270 0148 FFF7FEFF 		bl	_test_assert
 271              	.LVL53:
 272 014c 0028     		cmp	r0, #0
 273 014e 00D0     		beq	.LCB215
 274 0150 6CE7     		b	.L1	@long jump
 275              	.LCB215:
 276              		.loc 1 118 0 is_stmt 1
 277 0152 301C     		mov	r0, r6
 278 0154 FFF7FEFF 		bl	chHeapFree
 279              	.LVL54:
 280              		.loc 1 119 0
 281 0158 281C     		mov	r0, r5
 282 015a FFF7FEFF 		bl	chHeapFree
 283              	.LVL55:
 284              		.loc 1 120 0
 285 015e 6946     		mov	r1, sp
ARM GAS  /tmp/ccWW49QZ.s 			page 6


 286 0160 201C     		mov	r0, r4
 287 0162 FFF7FEFF 		bl	chHeapStatus
 288              	.LVL56:
 289 0166 411E     		sub	r1, r0, #1
 290 0168 4B42     		neg	r3, r1
 291 016a 5941     		adc	r1, r1, r3
 292 016c C9B2     		uxtb	r1, r1
 293 016e 0720     		mov	r0, #7
 294 0170 FFF7FEFF 		bl	_test_assert
 295              	.LVL57:
 296 0174 0028     		cmp	r0, #0
 297 0176 00D0     		beq	.LCB233
 298 0178 58E7     		b	.L1	@long jump
 299              	.LCB233:
 300              		.loc 1 123 0
 301 017a 1021     		mov	r1, #16
 302 017c 201C     		mov	r0, r4
 303 017e FFF7FEFF 		bl	chHeapAlloc
 304              	.LVL58:
 305              		.loc 1 124 0
 306 0182 1021     		mov	r1, #16
 307              		.loc 1 123 0
 308 0184 061C     		mov	r6, r0
 309              	.LVL59:
 310              		.loc 1 124 0
 311 0186 201C     		mov	r0, r4
 312              	.LVL60:
 313 0188 FFF7FEFF 		bl	chHeapAlloc
 314              	.LVL61:
 315 018c 051C     		mov	r5, r0
 316              	.LVL62:
 317              		.loc 1 125 0
 318 018e 301C     		mov	r0, r6
 319              	.LVL63:
 320 0190 FFF7FEFF 		bl	chHeapFree
 321              	.LVL64:
 322              		.loc 1 126 0
 323 0194 6946     		mov	r1, sp
 324 0196 201C     		mov	r0, r4
 325 0198 FFF7FEFF 		bl	chHeapStatus
 326              	.LVL65:
 327 019c 811E     		sub	r1, r0, #2
 328 019e 4B42     		neg	r3, r1
 329 01a0 5941     		adc	r1, r1, r3
 330 01a2 C9B2     		uxtb	r1, r1
 331 01a4 0820     		mov	r0, #8
 332 01a6 FFF7FEFF 		bl	_test_assert
 333              	.LVL66:
 334 01aa 0028     		cmp	r0, #0
 335 01ac 00D0     		beq	.LCB263
 336 01ae 3DE7     		b	.L1	@long jump
 337              	.LCB263:
 338              		.loc 1 127 0
 339 01b0 2021     		mov	r1, #32
 340 01b2 201C     		mov	r0, r4
 341 01b4 FFF7FEFF 		bl	chHeapAlloc
 342              	.LVL67:
ARM GAS  /tmp/ccWW49QZ.s 			page 7


 343              		.loc 1 128 0
 344 01b8 FFF7FEFF 		bl	chHeapFree
 345              	.LVL68:
 346              		.loc 1 129 0
 347 01bc 281C     		mov	r0, r5
 348 01be FFF7FEFF 		bl	chHeapFree
 349              	.LVL69:
 350              		.loc 1 130 0
 351 01c2 6946     		mov	r1, sp
 352 01c4 201C     		mov	r0, r4
 353 01c6 FFF7FEFF 		bl	chHeapStatus
 354              	.LVL70:
 355 01ca 411E     		sub	r1, r0, #1
 356 01cc 4B42     		neg	r3, r1
 357 01ce 5941     		adc	r1, r1, r3
 358 01d0 C9B2     		uxtb	r1, r1
 359 01d2 0920     		mov	r0, #9
 360 01d4 FFF7FEFF 		bl	_test_assert
 361              	.LVL71:
 362 01d8 0028     		cmp	r0, #0
 363 01da 00D0     		beq	.LCB286
 364 01dc 26E7     		b	.L1	@long jump
 365              	.LCB286:
 366              		.loc 1 133 0
 367 01de 6946     		mov	r1, sp
 368 01e0 201C     		mov	r0, r4
 369 01e2 FFF7FEFF 		bl	chHeapStatus
 370              	.LVL72:
 371              		.loc 1 134 0
 372 01e6 0099     		ldr	r1, [sp]
 373 01e8 201C     		mov	r0, r4
 374 01ea FFF7FEFF 		bl	chHeapAlloc
 375              	.LVL73:
 376              		.loc 1 135 0
 377 01ee 6946     		mov	r1, sp
 378              		.loc 1 134 0
 379 01f0 051C     		mov	r5, r0
 380              	.LVL74:
 381              		.loc 1 135 0
 382 01f2 201C     		mov	r0, r4
 383              	.LVL75:
 384 01f4 FFF7FEFF 		bl	chHeapStatus
 385              	.LVL76:
 386 01f8 4142     		neg	r1, r0
 387 01fa 4141     		adc	r1, r1, r0
 388 01fc C9B2     		uxtb	r1, r1
 389 01fe 0A20     		mov	r0, #10
 390 0200 FFF7FEFF 		bl	_test_assert
 391              	.LVL77:
 392 0204 0028     		cmp	r0, #0
 393 0206 00D0     		beq	.LCB309
 394 0208 10E7     		b	.L1	@long jump
 395              	.LCB309:
 396              		.loc 1 136 0
 397 020a 281C     		mov	r0, r5
 398 020c FFF7FEFF 		bl	chHeapFree
 399              	.LVL78:
ARM GAS  /tmp/ccWW49QZ.s 			page 8


 400              		.loc 1 138 0
 401 0210 6946     		mov	r1, sp
 402 0212 201C     		mov	r0, r4
 403 0214 FFF7FEFF 		bl	chHeapStatus
 404              	.LVL79:
 405 0218 411E     		sub	r1, r0, #1
 406 021a 4B42     		neg	r3, r1
 407 021c 5941     		adc	r1, r1, r3
 408 021e C9B2     		uxtb	r1, r1
 409 0220 0B20     		mov	r0, #11
 410 0222 FFF7FEFF 		bl	_test_assert
 411              	.LVL80:
 412 0226 0028     		cmp	r0, #0
 413 0228 00D0     		beq	.LCB324
 414 022a FFE6     		b	.L1	@long jump
 415              	.LCB324:
 416              		.loc 1 139 0
 417 022c 019B     		ldr	r3, [sp, #4]
 418 022e 009A     		ldr	r2, [sp]
 419 0230 0C20     		mov	r0, #12
 420 0232 D11A     		sub	r1, r2, r3
 421 0234 4B42     		neg	r3, r1
 422 0236 5941     		adc	r1, r1, r3
 423 0238 C9B2     		uxtb	r1, r1
 424 023a FFF7FEFF 		bl	_test_assert
 425              	.LVL81:
 426 023e F5E6     		b	.L1
 427              	.L10:
 428              		.align	2
 429              	.L9:
 430 0240 00FFFFFF 		.word	-256
 431 0244 00000000 		.word	.LANCHOR0
 432              		.cfi_endproc
 433              	.LFE8:
 434              		.size	heap1_execute, .-heap1_execute
 435 0248 C046C046 		.section	.text.heap1_setup,"ax",%progbits
 435      C046C046 
 436              		.align	2
 437              		.p2align 4,,15
 438              		.code	16
 439              		.thumb_func
 440              		.type	heap1_setup, %function
 441              	heap1_setup:
 442              	.LFB7:
 443              		.loc 1 64 0
 444              		.cfi_startproc
 445 0000 08B5     		push	{r3, lr}
 446              		.cfi_def_cfa_offset 8
 447              		.cfi_offset 3, -8
 448              		.cfi_offset 14, -4
 449              		.loc 1 66 0
 450 0002 BE22     		mov	r2, #190
 451 0004 0248     		ldr	r0, .L12
 452 0006 0349     		ldr	r1, .L12+4
 453 0008 D200     		lsl	r2, r2, #3
 454 000a FFF7FEFF 		bl	chHeapInit
 455              	.LVL82:
ARM GAS  /tmp/ccWW49QZ.s 			page 9


 456              		.loc 1 67 0
 457              		@ sp needed
 458 000e 08BD     		pop	{r3, pc}
 459              	.L13:
 460              		.align	2
 461              	.L12:
 462 0010 00000000 		.word	.LANCHOR0
 463 0014 00000000 		.word	test
 464              		.cfi_endproc
 465              	.LFE7:
 466              		.size	heap1_setup, .-heap1_setup
 467              		.global	patternheap
 468              		.global	testheap1
 469 0018 C046C046 		.section	.rodata.patternheap,"a",%progbits
 469      C046C046 
 470              		.align	2
 471              		.type	patternheap, %object
 472              		.size	patternheap, 8
 473              	patternheap:
 474 0000 00000000 		.word	testheap1
 475 0004 00000000 		.word	0
 476              		.section	.rodata.str1.4,"aMS",%progbits,1
 477              		.align	2
 478              	.LC3:
 479 0000 48656170 		.ascii	"Heap, allocation and fragmentation test\000"
 479      2C20616C 
 479      6C6F6361 
 479      74696F6E 
 479      20616E64 
 480              		.section	.rodata.testheap1,"a",%progbits
 481              		.align	2
 482              		.type	testheap1, %object
 483              		.size	testheap1, 16
 484              	testheap1:
 485 0000 00000000 		.word	.LC3
 486 0004 00000000 		.word	heap1_setup
 487 0008 00000000 		.word	0
 488 000c 00000000 		.word	heap1_execute
 489              		.section	.bss.test_heap,"aw",%nobits
 490              		.align	3
 491              		.set	.LANCHOR0,. + 0
 492              		.type	test_heap, %object
 493              		.size	test_heap, 32
 494              	test_heap:
 495 0000 00000000 		.space	32
 495      00000000 
 495      00000000 
 495      00000000 
 495      00000000 
 496              		.text
 497              	.Letext0:
 498              		.file 2 "/usr/lib/gcc/arm-none-eabi/4.8.2/include/stddef.h"
 499              		.file 3 "/usr/arm-none-eabi/include/machine/_default_types.h"
 500              		.file 4 "/usr/arm-none-eabi/include/stdint.h"
 501              		.file 5 "../../os/ports/GCC/ARMCMx/chtypes.h"
 502              		.file 6 "../../os/kernel/include/chlists.h"
 503              		.file 7 "../../os/kernel/include/chthreads.h"
ARM GAS  /tmp/ccWW49QZ.s 			page 10


 504              		.file 8 "../../os/ports/GCC/ARMCMx/chcore_v6m.h"
 505              		.file 9 "../../os/kernel/include/chmtx.h"
 506              		.file 10 "../../os/kernel/include/chmemcore.h"
 507              		.file 11 "../../os/kernel/include/chheap.h"
 508              		.file 12 "../../test/test.h"
 509              		.section	.debug_info,"",%progbits
 510              	.Ldebug_info0:
 511 0000 8C0B0000 		.4byte	0xb8c
 512 0004 0400     		.2byte	0x4
 513 0006 00000000 		.4byte	.Ldebug_abbrev0
 514 000a 04       		.byte	0x4
 515 000b 01       		.uleb128 0x1
 516 000c FC000000 		.4byte	.LASF91
 517 0010 01       		.byte	0x1
 518 0011 0F030000 		.4byte	.LASF92
 519 0015 80020000 		.4byte	.LASF93
 520 0019 00000000 		.4byte	.Ldebug_ranges0+0
 521 001d 00000000 		.4byte	0
 522 0021 00000000 		.4byte	.Ldebug_line0
 523 0025 02       		.uleb128 0x2
 524 0026 04       		.byte	0x4
 525 0027 05       		.byte	0x5
 526 0028 696E7400 		.ascii	"int\000"
 527 002c 03       		.uleb128 0x3
 528 002d 06000000 		.4byte	.LASF2
 529 0031 02       		.byte	0x2
 530 0032 D4       		.byte	0xd4
 531 0033 37000000 		.4byte	0x37
 532 0037 04       		.uleb128 0x4
 533 0038 04       		.byte	0x4
 534 0039 07       		.byte	0x7
 535 003a C1010000 		.4byte	.LASF0
 536 003e 04       		.uleb128 0x4
 537 003f 01       		.byte	0x1
 538 0040 06       		.byte	0x6
 539 0041 91000000 		.4byte	.LASF1
 540 0045 03       		.uleb128 0x3
 541 0046 1D000000 		.4byte	.LASF3
 542 004a 03       		.byte	0x3
 543 004b 1C       		.byte	0x1c
 544 004c 50000000 		.4byte	0x50
 545 0050 04       		.uleb128 0x4
 546 0051 01       		.byte	0x1
 547 0052 08       		.byte	0x8
 548 0053 33030000 		.4byte	.LASF4
 549 0057 04       		.uleb128 0x4
 550 0058 02       		.byte	0x2
 551 0059 05       		.byte	0x5
 552 005a 56030000 		.4byte	.LASF5
 553 005e 04       		.uleb128 0x4
 554 005f 02       		.byte	0x2
 555 0060 07       		.byte	0x7
 556 0061 FB010000 		.4byte	.LASF6
 557 0065 03       		.uleb128 0x3
 558 0066 F7030000 		.4byte	.LASF7
 559 006a 03       		.byte	0x3
 560 006b 37       		.byte	0x37
ARM GAS  /tmp/ccWW49QZ.s 			page 11


 561 006c 70000000 		.4byte	0x70
 562 0070 04       		.uleb128 0x4
 563 0071 04       		.byte	0x4
 564 0072 05       		.byte	0x5
 565 0073 DB000000 		.4byte	.LASF8
 566 0077 03       		.uleb128 0x3
 567 0078 99010000 		.4byte	.LASF9
 568 007c 03       		.byte	0x3
 569 007d 38       		.byte	0x38
 570 007e 82000000 		.4byte	0x82
 571 0082 04       		.uleb128 0x4
 572 0083 04       		.byte	0x4
 573 0084 07       		.byte	0x7
 574 0085 CE010000 		.4byte	.LASF10
 575 0089 04       		.uleb128 0x4
 576 008a 08       		.byte	0x8
 577 008b 05       		.byte	0x5
 578 008c 83000000 		.4byte	.LASF11
 579 0090 03       		.uleb128 0x3
 580 0091 E5020000 		.4byte	.LASF12
 581 0095 03       		.byte	0x3
 582 0096 4E       		.byte	0x4e
 583 0097 9B000000 		.4byte	0x9b
 584 009b 04       		.uleb128 0x4
 585 009c 08       		.byte	0x8
 586 009d 07       		.byte	0x7
 587 009e 34000000 		.4byte	.LASF13
 588 00a2 03       		.uleb128 0x3
 589 00a3 2E040000 		.4byte	.LASF14
 590 00a7 04       		.byte	0x4
 591 00a8 2A       		.byte	0x2a
 592 00a9 45000000 		.4byte	0x45
 593 00ad 03       		.uleb128 0x3
 594 00ae 2B030000 		.4byte	.LASF15
 595 00b2 04       		.byte	0x4
 596 00b3 41       		.byte	0x41
 597 00b4 65000000 		.4byte	0x65
 598 00b8 03       		.uleb128 0x3
 599 00b9 BB030000 		.4byte	.LASF16
 600 00bd 04       		.byte	0x4
 601 00be 42       		.byte	0x42
 602 00bf 77000000 		.4byte	0x77
 603 00c3 03       		.uleb128 0x3
 604 00c4 14000000 		.4byte	.LASF17
 605 00c8 04       		.byte	0x4
 606 00c9 4E       		.byte	0x4e
 607 00ca 90000000 		.4byte	0x90
 608 00ce 03       		.uleb128 0x3
 609 00cf AB000000 		.4byte	.LASF18
 610 00d3 05       		.byte	0x5
 611 00d4 2B       		.byte	0x2b
 612 00d5 D9000000 		.4byte	0xd9
 613 00d9 04       		.uleb128 0x4
 614 00da 01       		.byte	0x1
 615 00db 02       		.byte	0x2
 616 00dc 25030000 		.4byte	.LASF19
 617 00e0 03       		.uleb128 0x3
ARM GAS  /tmp/ccWW49QZ.s 			page 12


 618 00e1 14020000 		.4byte	.LASF20
 619 00e5 05       		.byte	0x5
 620 00e6 2C       		.byte	0x2c
 621 00e7 A2000000 		.4byte	0xa2
 622 00eb 03       		.uleb128 0x3
 623 00ec E4000000 		.4byte	.LASF21
 624 00f0 05       		.byte	0x5
 625 00f1 2D       		.byte	0x2d
 626 00f2 A2000000 		.4byte	0xa2
 627 00f6 03       		.uleb128 0x3
 628 00f7 F0020000 		.4byte	.LASF22
 629 00fb 05       		.byte	0x5
 630 00fc 2E       		.byte	0x2e
 631 00fd A2000000 		.4byte	0xa2
 632 0101 03       		.uleb128 0x3
 633 0102 D1000000 		.4byte	.LASF23
 634 0106 05       		.byte	0x5
 635 0107 2F       		.byte	0x2f
 636 0108 A2000000 		.4byte	0xa2
 637 010c 03       		.uleb128 0x3
 638 010d 07030000 		.4byte	.LASF24
 639 0111 05       		.byte	0x5
 640 0112 30       		.byte	0x30
 641 0113 B8000000 		.4byte	0xb8
 642 0117 03       		.uleb128 0x3
 643 0118 0E020000 		.4byte	.LASF25
 644 011c 05       		.byte	0x5
 645 011d 31       		.byte	0x31
 646 011e AD000000 		.4byte	0xad
 647 0122 03       		.uleb128 0x3
 648 0123 28020000 		.4byte	.LASF26
 649 0127 05       		.byte	0x5
 650 0128 33       		.byte	0x33
 651 0129 B8000000 		.4byte	0xb8
 652 012d 03       		.uleb128 0x3
 653 012e E2030000 		.4byte	.LASF27
 654 0132 05       		.byte	0x5
 655 0133 35       		.byte	0x35
 656 0134 B8000000 		.4byte	0xb8
 657 0138 03       		.uleb128 0x3
 658 0139 94030000 		.4byte	.LASF28
 659 013d 06       		.byte	0x6
 660 013e 2A       		.byte	0x2a
 661 013f 43010000 		.4byte	0x143
 662 0143 05       		.uleb128 0x5
 663 0144 94030000 		.4byte	.LASF28
 664 0148 48       		.byte	0x48
 665 0149 07       		.byte	0x7
 666 014a 5E       		.byte	0x5e
 667 014b 40020000 		.4byte	0x240
 668 014f 06       		.uleb128 0x6
 669 0150 85030000 		.4byte	.LASF29
 670 0154 07       		.byte	0x7
 671 0155 5F       		.byte	0x5f
 672 0156 61020000 		.4byte	0x261
 673 015a 00       		.byte	0
 674 015b 06       		.uleb128 0x6
ARM GAS  /tmp/ccWW49QZ.s 			page 13


 675 015c F8020000 		.4byte	.LASF30
 676 0160 07       		.byte	0x7
 677 0161 61       		.byte	0x61
 678 0162 61020000 		.4byte	0x261
 679 0166 04       		.byte	0x4
 680 0167 06       		.uleb128 0x6
 681 0168 70000000 		.4byte	.LASF31
 682 016c 07       		.byte	0x7
 683 016d 63       		.byte	0x63
 684 016e 0C010000 		.4byte	0x10c
 685 0172 08       		.byte	0x8
 686 0173 06       		.uleb128 0x6
 687 0174 63040000 		.4byte	.LASF32
 688 0178 07       		.byte	0x7
 689 0179 64       		.byte	0x64
 690 017a 1C030000 		.4byte	0x31c
 691 017e 0C       		.byte	0xc
 692 017f 06       		.uleb128 0x6
 693 0180 F4000000 		.4byte	.LASF33
 694 0184 07       		.byte	0x7
 695 0185 66       		.byte	0x66
 696 0186 61020000 		.4byte	0x261
 697 018a 10       		.byte	0x10
 698 018b 06       		.uleb128 0x6
 699 018c 65020000 		.4byte	.LASF34
 700 0190 07       		.byte	0x7
 701 0191 67       		.byte	0x67
 702 0192 61020000 		.4byte	0x261
 703 0196 14       		.byte	0x14
 704 0197 06       		.uleb128 0x6
 705 0198 47040000 		.4byte	.LASF35
 706 019c 07       		.byte	0x7
 707 019d 6E       		.byte	0x6e
 708 019e 85040000 		.4byte	0x485
 709 01a2 18       		.byte	0x18
 710 01a3 06       		.uleb128 0x6
 711 01a4 60030000 		.4byte	.LASF36
 712 01a8 07       		.byte	0x7
 713 01a9 79       		.byte	0x79
 714 01aa EB000000 		.4byte	0xeb
 715 01ae 1C       		.byte	0x1c
 716 01af 06       		.uleb128 0x6
 717 01b0 8C030000 		.4byte	.LASF37
 718 01b4 07       		.byte	0x7
 719 01b5 7D       		.byte	0x7d
 720 01b6 E0000000 		.4byte	0xe0
 721 01ba 1D       		.byte	0x1d
 722 01bb 06       		.uleb128 0x6
 723 01bc 27040000 		.4byte	.LASF38
 724 01c0 07       		.byte	0x7
 725 01c1 82       		.byte	0x82
 726 01c2 F6000000 		.4byte	0xf6
 727 01c6 1E       		.byte	0x1e
 728 01c7 06       		.uleb128 0x6
 729 01c8 68030000 		.4byte	.LASF39
 730 01cc 07       		.byte	0x7
 731 01cd 88       		.byte	0x88
ARM GAS  /tmp/ccWW49QZ.s 			page 14


 732 01ce 01010000 		.4byte	0x101
 733 01d2 1F       		.byte	0x1f
 734 01d3 06       		.uleb128 0x6
 735 01d4 01040000 		.4byte	.LASF40
 736 01d8 07       		.byte	0x7
 737 01d9 8F       		.byte	0x8f
 738 01da 42030000 		.4byte	0x342
 739 01de 20       		.byte	0x20
 740 01df 07       		.uleb128 0x7
 741 01e0 705F7500 		.ascii	"p_u\000"
 742 01e4 07       		.byte	0x7
 743 01e5 B4       		.byte	0xb4
 744 01e6 50040000 		.4byte	0x450
 745 01ea 24       		.byte	0x24
 746 01eb 06       		.uleb128 0x6
 747 01ec 69040000 		.4byte	.LASF41
 748 01f0 07       		.byte	0x7
 749 01f1 B9       		.byte	0xb9
 750 01f2 87020000 		.4byte	0x287
 751 01f6 28       		.byte	0x28
 752 01f7 06       		.uleb128 0x6
 753 01f8 0F040000 		.4byte	.LASF42
 754 01fc 07       		.byte	0x7
 755 01fd BF       		.byte	0xbf
 756 01fe 67020000 		.4byte	0x267
 757 0202 2C       		.byte	0x2c
 758 0203 06       		.uleb128 0x6
 759 0204 00000000 		.4byte	.LASF43
 760 0208 07       		.byte	0x7
 761 0209 C3       		.byte	0xc3
 762 020a 17010000 		.4byte	0x117
 763 020e 34       		.byte	0x34
 764 020f 06       		.uleb128 0x6
 765 0210 B0030000 		.4byte	.LASF44
 766 0214 07       		.byte	0x7
 767 0215 C9       		.byte	0xc9
 768 0216 22010000 		.4byte	0x122
 769 021a 38       		.byte	0x38
 770 021b 06       		.uleb128 0x6
 771 021c 4C030000 		.4byte	.LASF45
 772 0220 07       		.byte	0x7
 773 0221 D0       		.byte	0xd0
 774 0222 97040000 		.4byte	0x497
 775 0226 3C       		.byte	0x3c
 776 0227 06       		.uleb128 0x6
 777 0228 EC030000 		.4byte	.LASF46
 778 022c 07       		.byte	0x7
 779 022d D4       		.byte	0xd4
 780 022e 0C010000 		.4byte	0x10c
 781 0232 40       		.byte	0x40
 782 0233 06       		.uleb128 0x6
 783 0234 A3000000 		.4byte	.LASF47
 784 0238 07       		.byte	0x7
 785 0239 DA       		.byte	0xda
 786 023a 9D020000 		.4byte	0x29d
 787 023e 44       		.byte	0x44
 788 023f 00       		.byte	0
ARM GAS  /tmp/ccWW49QZ.s 			page 15


 789 0240 08       		.uleb128 0x8
 790 0241 08       		.byte	0x8
 791 0242 06       		.byte	0x6
 792 0243 61       		.byte	0x61
 793 0244 61020000 		.4byte	0x261
 794 0248 06       		.uleb128 0x6
 795 0249 85030000 		.4byte	.LASF29
 796 024d 06       		.byte	0x6
 797 024e 62       		.byte	0x62
 798 024f 61020000 		.4byte	0x261
 799 0253 00       		.byte	0
 800 0254 06       		.uleb128 0x6
 801 0255 F8020000 		.4byte	.LASF30
 802 0259 06       		.byte	0x6
 803 025a 64       		.byte	0x64
 804 025b 61020000 		.4byte	0x261
 805 025f 04       		.byte	0x4
 806 0260 00       		.byte	0
 807 0261 09       		.uleb128 0x9
 808 0262 04       		.byte	0x4
 809 0263 38010000 		.4byte	0x138
 810 0267 03       		.uleb128 0x3
 811 0268 6D020000 		.4byte	.LASF48
 812 026c 06       		.byte	0x6
 813 026d 66       		.byte	0x66
 814 026e 40020000 		.4byte	0x240
 815 0272 08       		.uleb128 0x8
 816 0273 04       		.byte	0x4
 817 0274 06       		.byte	0x6
 818 0275 6B       		.byte	0x6b
 819 0276 87020000 		.4byte	0x287
 820 027a 06       		.uleb128 0x6
 821 027b 85030000 		.4byte	.LASF29
 822 027f 06       		.byte	0x6
 823 0280 6D       		.byte	0x6d
 824 0281 61020000 		.4byte	0x261
 825 0285 00       		.byte	0
 826 0286 00       		.byte	0
 827 0287 03       		.uleb128 0x3
 828 0288 1C020000 		.4byte	.LASF49
 829 028c 06       		.byte	0x6
 830 028d 70       		.byte	0x70
 831 028e 72020000 		.4byte	0x272
 832 0292 03       		.uleb128 0x3
 833 0293 A4010000 		.4byte	.LASF50
 834 0297 08       		.byte	0x8
 835 0298 A7       		.byte	0xa7
 836 0299 9D020000 		.4byte	0x29d
 837 029d 0A       		.uleb128 0xa
 838 029e 04       		.byte	0x4
 839 029f 03       		.uleb128 0x3
 840 02a0 3A020000 		.4byte	.LASF51
 841 02a4 08       		.byte	0x8
 842 02a5 AD       		.byte	0xad
 843 02a6 C3000000 		.4byte	0xc3
 844 02aa 05       		.uleb128 0x5
 845 02ab 08040000 		.4byte	.LASF52
ARM GAS  /tmp/ccWW49QZ.s 			page 16


 846 02af 24       		.byte	0x24
 847 02b0 08       		.byte	0x8
 848 02b1 BA       		.byte	0xba
 849 02b2 1C030000 		.4byte	0x31c
 850 02b6 07       		.uleb128 0x7
 851 02b7 723800   		.ascii	"r8\000"
 852 02ba 08       		.byte	0x8
 853 02bb BB       		.byte	0xbb
 854 02bc 92020000 		.4byte	0x292
 855 02c0 00       		.byte	0
 856 02c1 07       		.uleb128 0x7
 857 02c2 723900   		.ascii	"r9\000"
 858 02c5 08       		.byte	0x8
 859 02c6 BC       		.byte	0xbc
 860 02c7 92020000 		.4byte	0x292
 861 02cb 04       		.byte	0x4
 862 02cc 07       		.uleb128 0x7
 863 02cd 72313000 		.ascii	"r10\000"
 864 02d1 08       		.byte	0x8
 865 02d2 BD       		.byte	0xbd
 866 02d3 92020000 		.4byte	0x292
 867 02d7 08       		.byte	0x8
 868 02d8 07       		.uleb128 0x7
 869 02d9 72313100 		.ascii	"r11\000"
 870 02dd 08       		.byte	0x8
 871 02de BE       		.byte	0xbe
 872 02df 92020000 		.4byte	0x292
 873 02e3 0C       		.byte	0xc
 874 02e4 07       		.uleb128 0x7
 875 02e5 723400   		.ascii	"r4\000"
 876 02e8 08       		.byte	0x8
 877 02e9 BF       		.byte	0xbf
 878 02ea 92020000 		.4byte	0x292
 879 02ee 10       		.byte	0x10
 880 02ef 07       		.uleb128 0x7
 881 02f0 723500   		.ascii	"r5\000"
 882 02f3 08       		.byte	0x8
 883 02f4 C0       		.byte	0xc0
 884 02f5 92020000 		.4byte	0x292
 885 02f9 14       		.byte	0x14
 886 02fa 07       		.uleb128 0x7
 887 02fb 723600   		.ascii	"r6\000"
 888 02fe 08       		.byte	0x8
 889 02ff C1       		.byte	0xc1
 890 0300 92020000 		.4byte	0x292
 891 0304 18       		.byte	0x18
 892 0305 07       		.uleb128 0x7
 893 0306 723700   		.ascii	"r7\000"
 894 0309 08       		.byte	0x8
 895 030a C2       		.byte	0xc2
 896 030b 92020000 		.4byte	0x292
 897 030f 1C       		.byte	0x1c
 898 0310 07       		.uleb128 0x7
 899 0311 6C7200   		.ascii	"lr\000"
 900 0314 08       		.byte	0x8
 901 0315 C3       		.byte	0xc3
 902 0316 92020000 		.4byte	0x292
ARM GAS  /tmp/ccWW49QZ.s 			page 17


 903 031a 20       		.byte	0x20
 904 031b 00       		.byte	0
 905 031c 05       		.uleb128 0x5
 906 031d EE010000 		.4byte	.LASF53
 907 0321 04       		.byte	0x4
 908 0322 08       		.byte	0x8
 909 0323 CD       		.byte	0xcd
 910 0324 35030000 		.4byte	0x335
 911 0328 07       		.uleb128 0x7
 912 0329 72313300 		.ascii	"r13\000"
 913 032d 08       		.byte	0x8
 914 032e CE       		.byte	0xce
 915 032f 35030000 		.4byte	0x335
 916 0333 00       		.byte	0
 917 0334 00       		.byte	0
 918 0335 09       		.uleb128 0x9
 919 0336 04       		.byte	0x4
 920 0337 AA020000 		.4byte	0x2aa
 921 033b 04       		.uleb128 0x4
 922 033c 04       		.byte	0x4
 923 033d 07       		.byte	0x7
 924 033e 4F020000 		.4byte	.LASF54
 925 0342 0B       		.uleb128 0xb
 926 0343 2D010000 		.4byte	0x12d
 927 0347 05       		.uleb128 0x5
 928 0348 34020000 		.4byte	.LASF55
 929 034c 10       		.byte	0x10
 930 034d 09       		.byte	0x9
 931 034e 2C       		.byte	0x2c
 932 034f 78030000 		.4byte	0x378
 933 0353 06       		.uleb128 0x6
 934 0354 B2000000 		.4byte	.LASF56
 935 0358 09       		.byte	0x9
 936 0359 2D       		.byte	0x2d
 937 035a 67020000 		.4byte	0x267
 938 035e 00       		.byte	0
 939 035f 06       		.uleb128 0x6
 940 0360 5B040000 		.4byte	.LASF57
 941 0364 09       		.byte	0x9
 942 0365 2F       		.byte	0x2f
 943 0366 61020000 		.4byte	0x261
 944 036a 08       		.byte	0x8
 945 036b 06       		.uleb128 0x6
 946 036c DB030000 		.4byte	.LASF58
 947 0370 09       		.byte	0x9
 948 0371 31       		.byte	0x31
 949 0372 78030000 		.4byte	0x378
 950 0376 0C       		.byte	0xc
 951 0377 00       		.byte	0
 952 0378 09       		.uleb128 0x9
 953 0379 04       		.byte	0x4
 954 037a 47030000 		.4byte	0x347
 955 037e 03       		.uleb128 0x3
 956 037f 34020000 		.4byte	.LASF55
 957 0383 09       		.byte	0x9
 958 0384 33       		.byte	0x33
 959 0385 47030000 		.4byte	0x347
ARM GAS  /tmp/ccWW49QZ.s 			page 18


 960 0389 03       		.uleb128 0x3
 961 038a 27000000 		.4byte	.LASF59
 962 038e 0A       		.byte	0xa
 963 038f 2C       		.byte	0x2c
 964 0390 94030000 		.4byte	0x394
 965 0394 09       		.uleb128 0x9
 966 0395 04       		.byte	0x4
 967 0396 9A030000 		.4byte	0x39a
 968 039a 0C       		.uleb128 0xc
 969 039b 9D020000 		.4byte	0x29d
 970 039f A9030000 		.4byte	0x3a9
 971 03a3 0D       		.uleb128 0xd
 972 03a4 2C000000 		.4byte	0x2c
 973 03a8 00       		.byte	0
 974 03a9 03       		.uleb128 0x3
 975 03aa DA020000 		.4byte	.LASF60
 976 03ae 0B       		.byte	0xb
 977 03af 34       		.byte	0x34
 978 03b0 B4030000 		.4byte	0x3b4
 979 03b4 05       		.uleb128 0x5
 980 03b5 73040000 		.4byte	.LASF61
 981 03b9 20       		.byte	0x20
 982 03ba 0B       		.byte	0xb
 983 03bb 47       		.byte	0x47
 984 03bc E5030000 		.4byte	0x3e5
 985 03c0 06       		.uleb128 0x6
 986 03c1 41030000 		.4byte	.LASF62
 987 03c5 0B       		.byte	0xb
 988 03c6 48       		.byte	0x48
 989 03c7 89030000 		.4byte	0x389
 990 03cb 00       		.byte	0
 991 03cc 06       		.uleb128 0x6
 992 03cd 54000000 		.4byte	.LASF63
 993 03d1 0B       		.byte	0xb
 994 03d2 4A       		.byte	0x4a
 995 03d3 04040000 		.4byte	0x404
 996 03d7 08       		.byte	0x8
 997 03d8 06       		.uleb128 0x6
 998 03d9 9D000000 		.4byte	.LASF64
 999 03dd 0B       		.byte	0xb
 1000 03de 4C       		.byte	0x4c
 1001 03df 7E030000 		.4byte	0x37e
 1002 03e3 10       		.byte	0x10
 1003 03e4 00       		.byte	0
 1004 03e5 0E       		.uleb128 0xe
 1005 03e6 04       		.byte	0x4
 1006 03e7 0B       		.byte	0xb
 1007 03e8 3C       		.byte	0x3c
 1008 03e9 04040000 		.4byte	0x404
 1009 03ed 0F       		.uleb128 0xf
 1010 03ee 6B000000 		.4byte	.LASF65
 1011 03f2 0B       		.byte	0xb
 1012 03f3 3D       		.byte	0x3d
 1013 03f4 25040000 		.4byte	0x425
 1014 03f8 0F       		.uleb128 0xf
 1015 03f9 C4030000 		.4byte	.LASF66
 1016 03fd 0B       		.byte	0xb
ARM GAS  /tmp/ccWW49QZ.s 			page 19


 1017 03fe 3E       		.byte	0x3e
 1018 03ff 2B040000 		.4byte	0x42b
 1019 0403 00       		.byte	0
 1020 0404 10       		.uleb128 0x10
 1021 0405 72030000 		.4byte	.LASF79
 1022 0409 08       		.byte	0x8
 1023 040a 0B       		.byte	0xb
 1024 040b 39       		.byte	0x39
 1025 040c 25040000 		.4byte	0x425
 1026 0410 0F       		.uleb128 0xf
 1027 0411 BB010000 		.4byte	.LASF67
 1028 0415 0B       		.byte	0xb
 1029 0416 3A       		.byte	0x3a
 1030 0417 9F020000 		.4byte	0x29f
 1031 041b 11       		.uleb128 0x11
 1032 041c 6800     		.ascii	"h\000"
 1033 041e 0B       		.byte	0xb
 1034 041f 41       		.byte	0x41
 1035 0420 31040000 		.4byte	0x431
 1036 0424 00       		.byte	0
 1037 0425 09       		.uleb128 0x9
 1038 0426 04       		.byte	0x4
 1039 0427 04040000 		.4byte	0x404
 1040 042b 09       		.uleb128 0x9
 1041 042c 04       		.byte	0x4
 1042 042d A9030000 		.4byte	0x3a9
 1043 0431 08       		.uleb128 0x8
 1044 0432 08       		.byte	0x8
 1045 0433 0B       		.byte	0xb
 1046 0434 3B       		.byte	0x3b
 1047 0435 50040000 		.4byte	0x450
 1048 0439 07       		.uleb128 0x7
 1049 043a 7500     		.ascii	"u\000"
 1050 043c 0B       		.byte	0xb
 1051 043d 3F       		.byte	0x3f
 1052 043e E5030000 		.4byte	0x3e5
 1053 0442 00       		.byte	0
 1054 0443 06       		.uleb128 0x6
 1055 0444 F6010000 		.4byte	.LASF68
 1056 0448 0B       		.byte	0xb
 1057 0449 40       		.byte	0x40
 1058 044a 2C000000 		.4byte	0x2c
 1059 044e 04       		.byte	0x4
 1060 044f 00       		.byte	0
 1061 0450 0E       		.uleb128 0xe
 1062 0451 04       		.byte	0x4
 1063 0452 07       		.byte	0x7
 1064 0453 96       		.byte	0x96
 1065 0454 85040000 		.4byte	0x485
 1066 0458 0F       		.uleb128 0xf
 1067 0459 0D000000 		.4byte	.LASF69
 1068 045d 07       		.byte	0x7
 1069 045e 9D       		.byte	0x9d
 1070 045f 17010000 		.4byte	0x117
 1071 0463 0F       		.uleb128 0xf
 1072 0464 4B000000 		.4byte	.LASF70
 1073 0468 07       		.byte	0x7
ARM GAS  /tmp/ccWW49QZ.s 			page 20


 1074 0469 A4       		.byte	0xa4
 1075 046a 17010000 		.4byte	0x117
 1076 046e 0F       		.uleb128 0xf
 1077 046f 40040000 		.4byte	.LASF71
 1078 0473 07       		.byte	0x7
 1079 0474 AB       		.byte	0xab
 1080 0475 9D020000 		.4byte	0x29d
 1081 0479 0F       		.uleb128 0xf
 1082 047a 7E030000 		.4byte	.LASF72
 1083 047e 07       		.byte	0x7
 1084 047f B2       		.byte	0xb2
 1085 0480 22010000 		.4byte	0x122
 1086 0484 00       		.byte	0
 1087 0485 09       		.uleb128 0x9
 1088 0486 04       		.byte	0x4
 1089 0487 8B040000 		.4byte	0x48b
 1090 048b 12       		.uleb128 0x12
 1091 048c 90040000 		.4byte	0x490
 1092 0490 04       		.uleb128 0x4
 1093 0491 01       		.byte	0x1
 1094 0492 08       		.byte	0x8
 1095 0493 C9030000 		.4byte	.LASF73
 1096 0497 09       		.uleb128 0x9
 1097 0498 04       		.byte	0x4
 1098 0499 7E030000 		.4byte	0x37e
 1099 049d 05       		.uleb128 0x5
 1100 049e A7030000 		.4byte	.LASF74
 1101 04a2 10       		.byte	0x10
 1102 04a3 0C       		.byte	0xc
 1103 04a4 3B       		.byte	0x3b
 1104 04a5 DA040000 		.4byte	0x4da
 1105 04a9 06       		.uleb128 0x6
 1106 04aa E9010000 		.4byte	.LASF75
 1107 04ae 0C       		.byte	0xc
 1108 04af 3C       		.byte	0x3c
 1109 04b0 85040000 		.4byte	0x485
 1110 04b4 00       		.byte	0
 1111 04b5 06       		.uleb128 0x6
 1112 04b6 7A020000 		.4byte	.LASF76
 1113 04ba 0C       		.byte	0xc
 1114 04bb 3D       		.byte	0x3d
 1115 04bc DB040000 		.4byte	0x4db
 1116 04c0 04       		.byte	0x4
 1117 04c1 06       		.uleb128 0x6
 1118 04c2 E0010000 		.4byte	.LASF77
 1119 04c6 0C       		.byte	0xc
 1120 04c7 3E       		.byte	0x3e
 1121 04c8 DB040000 		.4byte	0x4db
 1122 04cc 08       		.byte	0x8
 1123 04cd 06       		.uleb128 0x6
 1124 04ce FF020000 		.4byte	.LASF78
 1125 04d2 0C       		.byte	0xc
 1126 04d3 3F       		.byte	0x3f
 1127 04d4 DB040000 		.4byte	0x4db
 1128 04d8 0C       		.byte	0xc
 1129 04d9 00       		.byte	0
 1130 04da 13       		.uleb128 0x13
ARM GAS  /tmp/ccWW49QZ.s 			page 21


 1131 04db 09       		.uleb128 0x9
 1132 04dc 04       		.byte	0x4
 1133 04dd DA040000 		.4byte	0x4da
 1134 04e1 14       		.uleb128 0x14
 1135 04e2 F005     		.2byte	0x5f0
 1136 04e4 0C       		.byte	0xc
 1137 04e5 44       		.byte	0x44
 1138 04e6 26050000 		.4byte	0x526
 1139 04ea 07       		.uleb128 0x7
 1140 04eb 543000   		.ascii	"T0\000"
 1141 04ee 0C       		.byte	0xc
 1142 04ef 45       		.byte	0x45
 1143 04f0 26050000 		.4byte	0x526
 1144 04f4 00       		.byte	0
 1145 04f5 15       		.uleb128 0x15
 1146 04f6 543100   		.ascii	"T1\000"
 1147 04f9 0C       		.byte	0xc
 1148 04fa 46       		.byte	0x46
 1149 04fb 26050000 		.4byte	0x526
 1150 04ff 3001     		.2byte	0x130
 1151 0501 15       		.uleb128 0x15
 1152 0502 543200   		.ascii	"T2\000"
 1153 0505 0C       		.byte	0xc
 1154 0506 47       		.byte	0x47
 1155 0507 26050000 		.4byte	0x526
 1156 050b 6002     		.2byte	0x260
 1157 050d 15       		.uleb128 0x15
 1158 050e 543300   		.ascii	"T3\000"
 1159 0511 0C       		.byte	0xc
 1160 0512 48       		.byte	0x48
 1161 0513 26050000 		.4byte	0x526
 1162 0517 9003     		.2byte	0x390
 1163 0519 15       		.uleb128 0x15
 1164 051a 543400   		.ascii	"T4\000"
 1165 051d 0C       		.byte	0xc
 1166 051e 49       		.byte	0x49
 1167 051f 26050000 		.4byte	0x526
 1168 0523 C004     		.2byte	0x4c0
 1169 0525 00       		.byte	0
 1170 0526 16       		.uleb128 0x16
 1171 0527 9F020000 		.4byte	0x29f
 1172 052b 36050000 		.4byte	0x536
 1173 052f 17       		.uleb128 0x17
 1174 0530 3B030000 		.4byte	0x33b
 1175 0534 25       		.byte	0x25
 1176 0535 00       		.byte	0
 1177 0536 18       		.uleb128 0x18
 1178 0537 1A040000 		.4byte	.LASF80
 1179 053b F005     		.2byte	0x5f0
 1180 053d 0C       		.byte	0xc
 1181 053e 43       		.byte	0x43
 1182 053f 59050000 		.4byte	0x559
 1183 0543 11       		.uleb128 0x11
 1184 0544 776100   		.ascii	"wa\000"
 1185 0547 0C       		.byte	0xc
 1186 0548 4A       		.byte	0x4a
 1187 0549 E1040000 		.4byte	0x4e1
ARM GAS  /tmp/ccWW49QZ.s 			page 22


 1188 054d 0F       		.uleb128 0xf
 1189 054e ED000000 		.4byte	.LASF81
 1190 0552 0C       		.byte	0xc
 1191 0553 4B       		.byte	0x4b
 1192 0554 59050000 		.4byte	0x559
 1193 0558 00       		.byte	0
 1194 0559 16       		.uleb128 0x16
 1195 055a A2000000 		.4byte	0xa2
 1196 055e 6A050000 		.4byte	0x56a
 1197 0562 19       		.uleb128 0x19
 1198 0563 3B030000 		.4byte	0x33b
 1199 0567 EF05     		.2byte	0x5ef
 1200 0569 00       		.byte	0
 1201 056a 1A       		.uleb128 0x1a
 1202 056b AD010000 		.4byte	.LASF82
 1203 056f 01       		.byte	0x1
 1204 0570 45       		.byte	0x45
 1205 0571 00000000 		.4byte	.LFB8
 1206 0575 48020000 		.4byte	.LFE8-.LFB8
 1207 0579 01       		.uleb128 0x1
 1208 057a 9C       		.byte	0x9c
 1209 057b 7A0A0000 		.4byte	0xa7a
 1210 057f 1B       		.uleb128 0x1b
 1211 0580 703100   		.ascii	"p1\000"
 1212 0583 01       		.byte	0x1
 1213 0584 46       		.byte	0x46
 1214 0585 9D020000 		.4byte	0x29d
 1215 0589 00000000 		.4byte	.LLST0
 1216 058d 1B       		.uleb128 0x1b
 1217 058e 703200   		.ascii	"p2\000"
 1218 0591 01       		.byte	0x1
 1219 0592 46       		.byte	0x46
 1220 0593 9D020000 		.4byte	0x29d
 1221 0597 C3000000 		.4byte	.LLST1
 1222 059b 1B       		.uleb128 0x1b
 1223 059c 703300   		.ascii	"p3\000"
 1224 059f 01       		.byte	0x1
 1225 05a0 46       		.byte	0x46
 1226 05a1 9D020000 		.4byte	0x29d
 1227 05a5 23010000 		.4byte	.LLST2
 1228 05a9 1C       		.uleb128 0x1c
 1229 05aa 6E00     		.ascii	"n\000"
 1230 05ac 01       		.byte	0x1
 1231 05ad 47       		.byte	0x47
 1232 05ae 2C000000 		.4byte	0x2c
 1233 05b2 02       		.uleb128 0x2
 1234 05b3 91       		.byte	0x91
 1235 05b4 60       		.sleb128 -32
 1236 05b5 1C       		.uleb128 0x1c
 1237 05b6 737A00   		.ascii	"sz\000"
 1238 05b9 01       		.byte	0x1
 1239 05ba 47       		.byte	0x47
 1240 05bb 2C000000 		.4byte	0x2c
 1241 05bf 02       		.uleb128 0x2
 1242 05c0 91       		.byte	0x91
 1243 05c1 64       		.sleb128 -28
 1244 05c2 1D       		.uleb128 0x1d
ARM GAS  /tmp/ccWW49QZ.s 			page 23


 1245 05c3 08000000 		.4byte	.LVL0
 1246 05c7 080B0000 		.4byte	0xb08
 1247 05cb 1E       		.uleb128 0x1e
 1248 05cc 10000000 		.4byte	.LVL1
 1249 05d0 130B0000 		.4byte	0xb13
 1250 05d4 E4050000 		.4byte	0x5e4
 1251 05d8 1F       		.uleb128 0x1f
 1252 05d9 01       		.uleb128 0x1
 1253 05da 51       		.byte	0x51
 1254 05db 02       		.uleb128 0x2
 1255 05dc 91       		.byte	0x91
 1256 05dd 64       		.sleb128 -28
 1257 05de 1F       		.uleb128 0x1f
 1258 05df 01       		.uleb128 0x1
 1259 05e0 50       		.byte	0x50
 1260 05e1 01       		.uleb128 0x1
 1261 05e2 30       		.byte	0x30
 1262 05e3 00       		.byte	0
 1263 05e4 1E       		.uleb128 0x1e
 1264 05e5 18000000 		.4byte	.LVL2
 1265 05e9 330B0000 		.4byte	0xb33
 1266 05ed FC050000 		.4byte	0x5fc
 1267 05f1 1F       		.uleb128 0x1f
 1268 05f2 01       		.uleb128 0x1
 1269 05f3 51       		.byte	0x51
 1270 05f4 01       		.uleb128 0x1
 1271 05f5 40       		.byte	0x40
 1272 05f6 1F       		.uleb128 0x1f
 1273 05f7 01       		.uleb128 0x1
 1274 05f8 50       		.byte	0x50
 1275 05f9 01       		.uleb128 0x1
 1276 05fa 30       		.byte	0x30
 1277 05fb 00       		.byte	0
 1278 05fc 1E       		.uleb128 0x1e
 1279 05fd 28000000 		.4byte	.LVL5
 1280 0601 4D0B0000 		.4byte	0xb4d
 1281 0605 17060000 		.4byte	0x617
 1282 0609 1F       		.uleb128 0x1f
 1283 060a 01       		.uleb128 0x1
 1284 060b 51       		.byte	0x51
 1285 060c 04       		.uleb128 0x4
 1286 060d 74       		.byte	0x74
 1287 060e 00       		.sleb128 0
 1288 060f 30       		.byte	0x30
 1289 0610 2E       		.byte	0x2e
 1290 0611 1F       		.uleb128 0x1f
 1291 0612 01       		.uleb128 0x1
 1292 0613 50       		.byte	0x50
 1293 0614 01       		.uleb128 0x1
 1294 0615 31       		.byte	0x31
 1295 0616 00       		.byte	0
 1296 0617 1E       		.uleb128 0x1e
 1297 0618 36000000 		.4byte	.LVL8
 1298 061c 670B0000 		.4byte	0xb67
 1299 0620 2B060000 		.4byte	0x62b
 1300 0624 1F       		.uleb128 0x1f
 1301 0625 01       		.uleb128 0x1
ARM GAS  /tmp/ccWW49QZ.s 			page 24


 1302 0626 50       		.byte	0x50
 1303 0627 02       		.uleb128 0x2
 1304 0628 74       		.byte	0x74
 1305 0629 00       		.sleb128 0
 1306 062a 00       		.byte	0
 1307 062b 1E       		.uleb128 0x1e
 1308 062c 3E000000 		.4byte	.LVL9
 1309 0630 330B0000 		.4byte	0xb33
 1310 0634 45060000 		.4byte	0x645
 1311 0638 1F       		.uleb128 0x1f
 1312 0639 01       		.uleb128 0x1
 1313 063a 51       		.byte	0x51
 1314 063b 03       		.uleb128 0x3
 1315 063c 0B       		.byte	0xb
 1316 063d 00FF     		.2byte	0xff00
 1317 063f 1F       		.uleb128 0x1f
 1318 0640 01       		.uleb128 0x1
 1319 0641 50       		.byte	0x50
 1320 0642 01       		.uleb128 0x1
 1321 0643 30       		.byte	0x30
 1322 0644 00       		.byte	0
 1323 0645 1E       		.uleb128 0x1e
 1324 0646 4A000000 		.4byte	.LVL11
 1325 064a 4D0B0000 		.4byte	0xb4d
 1326 064e 58060000 		.4byte	0x658
 1327 0652 1F       		.uleb128 0x1f
 1328 0653 01       		.uleb128 0x1
 1329 0654 50       		.byte	0x50
 1330 0655 01       		.uleb128 0x1
 1331 0656 32       		.byte	0x32
 1332 0657 00       		.byte	0
 1333 0658 1E       		.uleb128 0x1e
 1334 0659 58000000 		.4byte	.LVL12
 1335 065d 130B0000 		.4byte	0xb13
 1336 0661 72060000 		.4byte	0x672
 1337 0665 1F       		.uleb128 0x1f
 1338 0666 01       		.uleb128 0x1
 1339 0667 51       		.byte	0x51
 1340 0668 02       		.uleb128 0x2
 1341 0669 91       		.byte	0x91
 1342 066a 64       		.sleb128 -28
 1343 066b 1F       		.uleb128 0x1f
 1344 066c 01       		.uleb128 0x1
 1345 066d 50       		.byte	0x50
 1346 066e 02       		.uleb128 0x2
 1347 066f 74       		.byte	0x74
 1348 0670 00       		.sleb128 0
 1349 0671 00       		.byte	0
 1350 0672 1E       		.uleb128 0x1e
 1351 0673 60000000 		.4byte	.LVL13
 1352 0677 330B0000 		.4byte	0xb33
 1353 067b 8B060000 		.4byte	0x68b
 1354 067f 1F       		.uleb128 0x1f
 1355 0680 01       		.uleb128 0x1
 1356 0681 51       		.byte	0x51
 1357 0682 01       		.uleb128 0x1
 1358 0683 40       		.byte	0x40
ARM GAS  /tmp/ccWW49QZ.s 			page 25


 1359 0684 1F       		.uleb128 0x1f
 1360 0685 01       		.uleb128 0x1
 1361 0686 50       		.byte	0x50
 1362 0687 02       		.uleb128 0x2
 1363 0688 74       		.byte	0x74
 1364 0689 00       		.sleb128 0
 1365 068a 00       		.byte	0
 1366 068b 1E       		.uleb128 0x1e
 1367 068c 6A000000 		.4byte	.LVL16
 1368 0690 330B0000 		.4byte	0xb33
 1369 0694 A4060000 		.4byte	0x6a4
 1370 0698 1F       		.uleb128 0x1f
 1371 0699 01       		.uleb128 0x1
 1372 069a 51       		.byte	0x51
 1373 069b 01       		.uleb128 0x1
 1374 069c 40       		.byte	0x40
 1375 069d 1F       		.uleb128 0x1f
 1376 069e 01       		.uleb128 0x1
 1377 069f 50       		.byte	0x50
 1378 06a0 02       		.uleb128 0x2
 1379 06a1 74       		.byte	0x74
 1380 06a2 00       		.sleb128 0
 1381 06a3 00       		.byte	0
 1382 06a4 1E       		.uleb128 0x1e
 1383 06a5 74000000 		.4byte	.LVL19
 1384 06a9 330B0000 		.4byte	0xb33
 1385 06ad BD060000 		.4byte	0x6bd
 1386 06b1 1F       		.uleb128 0x1f
 1387 06b2 01       		.uleb128 0x1
 1388 06b3 51       		.byte	0x51
 1389 06b4 01       		.uleb128 0x1
 1390 06b5 40       		.byte	0x40
 1391 06b6 1F       		.uleb128 0x1f
 1392 06b7 01       		.uleb128 0x1
 1393 06b8 50       		.byte	0x50
 1394 06b9 02       		.uleb128 0x2
 1395 06ba 74       		.byte	0x74
 1396 06bb 00       		.sleb128 0
 1397 06bc 00       		.byte	0
 1398 06bd 1E       		.uleb128 0x1e
 1399 06be 7C000000 		.4byte	.LVL22
 1400 06c2 670B0000 		.4byte	0xb67
 1401 06c6 D1060000 		.4byte	0x6d1
 1402 06ca 1F       		.uleb128 0x1f
 1403 06cb 01       		.uleb128 0x1
 1404 06cc 50       		.byte	0x50
 1405 06cd 02       		.uleb128 0x2
 1406 06ce 77       		.byte	0x77
 1407 06cf 00       		.sleb128 0
 1408 06d0 00       		.byte	0
 1409 06d1 1E       		.uleb128 0x1e
 1410 06d2 82000000 		.4byte	.LVL23
 1411 06d6 670B0000 		.4byte	0xb67
 1412 06da E5060000 		.4byte	0x6e5
 1413 06de 1F       		.uleb128 0x1f
 1414 06df 01       		.uleb128 0x1
 1415 06e0 50       		.byte	0x50
ARM GAS  /tmp/ccWW49QZ.s 			page 26


 1416 06e1 02       		.uleb128 0x2
 1417 06e2 76       		.byte	0x76
 1418 06e3 00       		.sleb128 0
 1419 06e4 00       		.byte	0
 1420 06e5 1E       		.uleb128 0x1e
 1421 06e6 88000000 		.4byte	.LVL24
 1422 06ea 670B0000 		.4byte	0xb67
 1423 06ee F9060000 		.4byte	0x6f9
 1424 06f2 1F       		.uleb128 0x1f
 1425 06f3 01       		.uleb128 0x1
 1426 06f4 50       		.byte	0x50
 1427 06f5 02       		.uleb128 0x2
 1428 06f6 75       		.byte	0x75
 1429 06f7 00       		.sleb128 0
 1430 06f8 00       		.byte	0
 1431 06f9 1E       		.uleb128 0x1e
 1432 06fa 90000000 		.4byte	.LVL25
 1433 06fe 130B0000 		.4byte	0xb13
 1434 0702 13070000 		.4byte	0x713
 1435 0706 1F       		.uleb128 0x1f
 1436 0707 01       		.uleb128 0x1
 1437 0708 51       		.byte	0x51
 1438 0709 02       		.uleb128 0x2
 1439 070a 7D       		.byte	0x7d
 1440 070b 00       		.sleb128 0
 1441 070c 1F       		.uleb128 0x1f
 1442 070d 01       		.uleb128 0x1
 1443 070e 50       		.byte	0x50
 1444 070f 02       		.uleb128 0x2
 1445 0710 74       		.byte	0x74
 1446 0711 00       		.sleb128 0
 1447 0712 00       		.byte	0
 1448 0713 1E       		.uleb128 0x1e
 1449 0714 9E000000 		.4byte	.LVL26
 1450 0718 4D0B0000 		.4byte	0xb4d
 1451 071c 26070000 		.4byte	0x726
 1452 0720 1F       		.uleb128 0x1f
 1453 0721 01       		.uleb128 0x1
 1454 0722 50       		.byte	0x50
 1455 0723 01       		.uleb128 0x1
 1456 0724 33       		.byte	0x33
 1457 0725 00       		.byte	0
 1458 0726 1E       		.uleb128 0x1e
 1459 0727 AA000000 		.4byte	.LVL27
 1460 072b 330B0000 		.4byte	0xb33
 1461 072f 3F070000 		.4byte	0x73f
 1462 0733 1F       		.uleb128 0x1f
 1463 0734 01       		.uleb128 0x1
 1464 0735 51       		.byte	0x51
 1465 0736 01       		.uleb128 0x1
 1466 0737 40       		.byte	0x40
 1467 0738 1F       		.uleb128 0x1f
 1468 0739 01       		.uleb128 0x1
 1469 073a 50       		.byte	0x50
 1470 073b 02       		.uleb128 0x2
 1471 073c 74       		.byte	0x74
 1472 073d 00       		.sleb128 0
ARM GAS  /tmp/ccWW49QZ.s 			page 27


 1473 073e 00       		.byte	0
 1474 073f 1E       		.uleb128 0x1e
 1475 0740 B4000000 		.4byte	.LVL30
 1476 0744 330B0000 		.4byte	0xb33
 1477 0748 58070000 		.4byte	0x758
 1478 074c 1F       		.uleb128 0x1f
 1479 074d 01       		.uleb128 0x1
 1480 074e 51       		.byte	0x51
 1481 074f 01       		.uleb128 0x1
 1482 0750 40       		.byte	0x40
 1483 0751 1F       		.uleb128 0x1f
 1484 0752 01       		.uleb128 0x1
 1485 0753 50       		.byte	0x50
 1486 0754 02       		.uleb128 0x2
 1487 0755 74       		.byte	0x74
 1488 0756 00       		.sleb128 0
 1489 0757 00       		.byte	0
 1490 0758 1E       		.uleb128 0x1e
 1491 0759 BE000000 		.4byte	.LVL33
 1492 075d 330B0000 		.4byte	0xb33
 1493 0761 71070000 		.4byte	0x771
 1494 0765 1F       		.uleb128 0x1f
 1495 0766 01       		.uleb128 0x1
 1496 0767 51       		.byte	0x51
 1497 0768 01       		.uleb128 0x1
 1498 0769 40       		.byte	0x40
 1499 076a 1F       		.uleb128 0x1f
 1500 076b 01       		.uleb128 0x1
 1501 076c 50       		.byte	0x50
 1502 076d 02       		.uleb128 0x2
 1503 076e 74       		.byte	0x74
 1504 076f 00       		.sleb128 0
 1505 0770 00       		.byte	0
 1506 0771 1D       		.uleb128 0x1d
 1507 0772 C2000000 		.4byte	.LVL34
 1508 0776 670B0000 		.4byte	0xb67
 1509 077a 1E       		.uleb128 0x1e
 1510 077b C8000000 		.4byte	.LVL35
 1511 077f 670B0000 		.4byte	0xb67
 1512 0783 8E070000 		.4byte	0x78e
 1513 0787 1F       		.uleb128 0x1f
 1514 0788 01       		.uleb128 0x1
 1515 0789 50       		.byte	0x50
 1516 078a 02       		.uleb128 0x2
 1517 078b 76       		.byte	0x76
 1518 078c 00       		.sleb128 0
 1519 078d 00       		.byte	0
 1520 078e 1E       		.uleb128 0x1e
 1521 078f CE000000 		.4byte	.LVL36
 1522 0793 670B0000 		.4byte	0xb67
 1523 0797 A2070000 		.4byte	0x7a2
 1524 079b 1F       		.uleb128 0x1f
 1525 079c 01       		.uleb128 0x1
 1526 079d 50       		.byte	0x50
 1527 079e 02       		.uleb128 0x2
 1528 079f 75       		.byte	0x75
 1529 07a0 00       		.sleb128 0
ARM GAS  /tmp/ccWW49QZ.s 			page 28


 1530 07a1 00       		.byte	0
 1531 07a2 1E       		.uleb128 0x1e
 1532 07a3 D6000000 		.4byte	.LVL37
 1533 07a7 130B0000 		.4byte	0xb13
 1534 07ab BC070000 		.4byte	0x7bc
 1535 07af 1F       		.uleb128 0x1f
 1536 07b0 01       		.uleb128 0x1
 1537 07b1 51       		.byte	0x51
 1538 07b2 02       		.uleb128 0x2
 1539 07b3 7D       		.byte	0x7d
 1540 07b4 00       		.sleb128 0
 1541 07b5 1F       		.uleb128 0x1f
 1542 07b6 01       		.uleb128 0x1
 1543 07b7 50       		.byte	0x50
 1544 07b8 02       		.uleb128 0x2
 1545 07b9 74       		.byte	0x74
 1546 07ba 00       		.sleb128 0
 1547 07bb 00       		.byte	0
 1548 07bc 1E       		.uleb128 0x1e
 1549 07bd E4000000 		.4byte	.LVL38
 1550 07c1 4D0B0000 		.4byte	0xb4d
 1551 07c5 CF070000 		.4byte	0x7cf
 1552 07c9 1F       		.uleb128 0x1f
 1553 07ca 01       		.uleb128 0x1
 1554 07cb 50       		.byte	0x50
 1555 07cc 01       		.uleb128 0x1
 1556 07cd 34       		.byte	0x34
 1557 07ce 00       		.byte	0
 1558 07cf 1E       		.uleb128 0x1e
 1559 07d0 F0000000 		.4byte	.LVL39
 1560 07d4 330B0000 		.4byte	0xb33
 1561 07d8 E8070000 		.4byte	0x7e8
 1562 07dc 1F       		.uleb128 0x1f
 1563 07dd 01       		.uleb128 0x1
 1564 07de 51       		.byte	0x51
 1565 07df 01       		.uleb128 0x1
 1566 07e0 41       		.byte	0x41
 1567 07e1 1F       		.uleb128 0x1f
 1568 07e2 01       		.uleb128 0x1
 1569 07e3 50       		.byte	0x50
 1570 07e4 02       		.uleb128 0x2
 1571 07e5 74       		.byte	0x74
 1572 07e6 00       		.sleb128 0
 1573 07e7 00       		.byte	0
 1574 07e8 1E       		.uleb128 0x1e
 1575 07e9 FA000000 		.4byte	.LVL42
 1576 07ed 330B0000 		.4byte	0xb33
 1577 07f1 01080000 		.4byte	0x801
 1578 07f5 1F       		.uleb128 0x1f
 1579 07f6 01       		.uleb128 0x1
 1580 07f7 51       		.byte	0x51
 1581 07f8 01       		.uleb128 0x1
 1582 07f9 40       		.byte	0x40
 1583 07fa 1F       		.uleb128 0x1f
 1584 07fb 01       		.uleb128 0x1
 1585 07fc 50       		.byte	0x50
 1586 07fd 02       		.uleb128 0x2
ARM GAS  /tmp/ccWW49QZ.s 			page 29


 1587 07fe 74       		.byte	0x74
 1588 07ff 00       		.sleb128 0
 1589 0800 00       		.byte	0
 1590 0801 1E       		.uleb128 0x1e
 1591 0802 02010000 		.4byte	.LVL45
 1592 0806 670B0000 		.4byte	0xb67
 1593 080a 15080000 		.4byte	0x815
 1594 080e 1F       		.uleb128 0x1f
 1595 080f 01       		.uleb128 0x1
 1596 0810 50       		.byte	0x50
 1597 0811 02       		.uleb128 0x2
 1598 0812 75       		.byte	0x75
 1599 0813 00       		.sleb128 0
 1600 0814 00       		.byte	0
 1601 0815 1E       		.uleb128 0x1e
 1602 0816 0A010000 		.4byte	.LVL46
 1603 081a 130B0000 		.4byte	0xb13
 1604 081e 2F080000 		.4byte	0x82f
 1605 0822 1F       		.uleb128 0x1f
 1606 0823 01       		.uleb128 0x1
 1607 0824 51       		.byte	0x51
 1608 0825 02       		.uleb128 0x2
 1609 0826 7D       		.byte	0x7d
 1610 0827 00       		.sleb128 0
 1611 0828 1F       		.uleb128 0x1f
 1612 0829 01       		.uleb128 0x1
 1613 082a 50       		.byte	0x50
 1614 082b 02       		.uleb128 0x2
 1615 082c 74       		.byte	0x74
 1616 082d 00       		.sleb128 0
 1617 082e 00       		.byte	0
 1618 082f 1E       		.uleb128 0x1e
 1619 0830 18010000 		.4byte	.LVL47
 1620 0834 4D0B0000 		.4byte	0xb4d
 1621 0838 42080000 		.4byte	0x842
 1622 083c 1F       		.uleb128 0x1f
 1623 083d 01       		.uleb128 0x1
 1624 083e 50       		.byte	0x50
 1625 083f 01       		.uleb128 0x1
 1626 0840 35       		.byte	0x35
 1627 0841 00       		.byte	0
 1628 0842 1E       		.uleb128 0x1e
 1629 0843 26010000 		.4byte	.LVL48
 1630 0847 330B0000 		.4byte	0xb33
 1631 084b 5B080000 		.4byte	0x85b
 1632 084f 1F       		.uleb128 0x1f
 1633 0850 01       		.uleb128 0x1
 1634 0851 51       		.byte	0x51
 1635 0852 01       		.uleb128 0x1
 1636 0853 40       		.byte	0x40
 1637 0854 1F       		.uleb128 0x1f
 1638 0855 01       		.uleb128 0x1
 1639 0856 50       		.byte	0x50
 1640 0857 02       		.uleb128 0x2
 1641 0858 74       		.byte	0x74
 1642 0859 00       		.sleb128 0
 1643 085a 00       		.byte	0
ARM GAS  /tmp/ccWW49QZ.s 			page 30


 1644 085b 1E       		.uleb128 0x1e
 1645 085c 30010000 		.4byte	.LVL51
 1646 0860 130B0000 		.4byte	0xb13
 1647 0864 75080000 		.4byte	0x875
 1648 0868 1F       		.uleb128 0x1f
 1649 0869 01       		.uleb128 0x1
 1650 086a 51       		.byte	0x51
 1651 086b 02       		.uleb128 0x2
 1652 086c 7D       		.byte	0x7d
 1653 086d 00       		.sleb128 0
 1654 086e 1F       		.uleb128 0x1f
 1655 086f 01       		.uleb128 0x1
 1656 0870 50       		.byte	0x50
 1657 0871 02       		.uleb128 0x2
 1658 0872 74       		.byte	0x74
 1659 0873 00       		.sleb128 0
 1660 0874 00       		.byte	0
 1661 0875 1E       		.uleb128 0x1e
 1662 0876 3E010000 		.4byte	.LVL52
 1663 087a 130B0000 		.4byte	0xb13
 1664 087e 8F080000 		.4byte	0x88f
 1665 0882 1F       		.uleb128 0x1f
 1666 0883 01       		.uleb128 0x1
 1667 0884 51       		.byte	0x51
 1668 0885 02       		.uleb128 0x2
 1669 0886 7D       		.byte	0x7d
 1670 0887 00       		.sleb128 0
 1671 0888 1F       		.uleb128 0x1f
 1672 0889 01       		.uleb128 0x1
 1673 088a 50       		.byte	0x50
 1674 088b 02       		.uleb128 0x2
 1675 088c 74       		.byte	0x74
 1676 088d 00       		.sleb128 0
 1677 088e 00       		.byte	0
 1678 088f 1E       		.uleb128 0x1e
 1679 0890 4C010000 		.4byte	.LVL53
 1680 0894 4D0B0000 		.4byte	0xb4d
 1681 0898 A2080000 		.4byte	0x8a2
 1682 089c 1F       		.uleb128 0x1f
 1683 089d 01       		.uleb128 0x1
 1684 089e 50       		.byte	0x50
 1685 089f 01       		.uleb128 0x1
 1686 08a0 36       		.byte	0x36
 1687 08a1 00       		.byte	0
 1688 08a2 1E       		.uleb128 0x1e
 1689 08a3 58010000 		.4byte	.LVL54
 1690 08a7 670B0000 		.4byte	0xb67
 1691 08ab B6080000 		.4byte	0x8b6
 1692 08af 1F       		.uleb128 0x1f
 1693 08b0 01       		.uleb128 0x1
 1694 08b1 50       		.byte	0x50
 1695 08b2 02       		.uleb128 0x2
 1696 08b3 76       		.byte	0x76
 1697 08b4 00       		.sleb128 0
 1698 08b5 00       		.byte	0
 1699 08b6 1E       		.uleb128 0x1e
 1700 08b7 5E010000 		.4byte	.LVL55
ARM GAS  /tmp/ccWW49QZ.s 			page 31


 1701 08bb 670B0000 		.4byte	0xb67
 1702 08bf CA080000 		.4byte	0x8ca
 1703 08c3 1F       		.uleb128 0x1f
 1704 08c4 01       		.uleb128 0x1
 1705 08c5 50       		.byte	0x50
 1706 08c6 02       		.uleb128 0x2
 1707 08c7 75       		.byte	0x75
 1708 08c8 00       		.sleb128 0
 1709 08c9 00       		.byte	0
 1710 08ca 1E       		.uleb128 0x1e
 1711 08cb 66010000 		.4byte	.LVL56
 1712 08cf 130B0000 		.4byte	0xb13
 1713 08d3 E4080000 		.4byte	0x8e4
 1714 08d7 1F       		.uleb128 0x1f
 1715 08d8 01       		.uleb128 0x1
 1716 08d9 51       		.byte	0x51
 1717 08da 02       		.uleb128 0x2
 1718 08db 7D       		.byte	0x7d
 1719 08dc 00       		.sleb128 0
 1720 08dd 1F       		.uleb128 0x1f
 1721 08de 01       		.uleb128 0x1
 1722 08df 50       		.byte	0x50
 1723 08e0 02       		.uleb128 0x2
 1724 08e1 74       		.byte	0x74
 1725 08e2 00       		.sleb128 0
 1726 08e3 00       		.byte	0
 1727 08e4 1E       		.uleb128 0x1e
 1728 08e5 74010000 		.4byte	.LVL57
 1729 08e9 4D0B0000 		.4byte	0xb4d
 1730 08ed F7080000 		.4byte	0x8f7
 1731 08f1 1F       		.uleb128 0x1f
 1732 08f2 01       		.uleb128 0x1
 1733 08f3 50       		.byte	0x50
 1734 08f4 01       		.uleb128 0x1
 1735 08f5 37       		.byte	0x37
 1736 08f6 00       		.byte	0
 1737 08f7 1E       		.uleb128 0x1e
 1738 08f8 82010000 		.4byte	.LVL58
 1739 08fc 330B0000 		.4byte	0xb33
 1740 0900 10090000 		.4byte	0x910
 1741 0904 1F       		.uleb128 0x1f
 1742 0905 01       		.uleb128 0x1
 1743 0906 51       		.byte	0x51
 1744 0907 01       		.uleb128 0x1
 1745 0908 40       		.byte	0x40
 1746 0909 1F       		.uleb128 0x1f
 1747 090a 01       		.uleb128 0x1
 1748 090b 50       		.byte	0x50
 1749 090c 02       		.uleb128 0x2
 1750 090d 74       		.byte	0x74
 1751 090e 00       		.sleb128 0
 1752 090f 00       		.byte	0
 1753 0910 1E       		.uleb128 0x1e
 1754 0911 8C010000 		.4byte	.LVL61
 1755 0915 330B0000 		.4byte	0xb33
 1756 0919 29090000 		.4byte	0x929
 1757 091d 1F       		.uleb128 0x1f
ARM GAS  /tmp/ccWW49QZ.s 			page 32


 1758 091e 01       		.uleb128 0x1
 1759 091f 51       		.byte	0x51
 1760 0920 01       		.uleb128 0x1
 1761 0921 40       		.byte	0x40
 1762 0922 1F       		.uleb128 0x1f
 1763 0923 01       		.uleb128 0x1
 1764 0924 50       		.byte	0x50
 1765 0925 02       		.uleb128 0x2
 1766 0926 74       		.byte	0x74
 1767 0927 00       		.sleb128 0
 1768 0928 00       		.byte	0
 1769 0929 1E       		.uleb128 0x1e
 1770 092a 94010000 		.4byte	.LVL64
 1771 092e 670B0000 		.4byte	0xb67
 1772 0932 3D090000 		.4byte	0x93d
 1773 0936 1F       		.uleb128 0x1f
 1774 0937 01       		.uleb128 0x1
 1775 0938 50       		.byte	0x50
 1776 0939 02       		.uleb128 0x2
 1777 093a 76       		.byte	0x76
 1778 093b 00       		.sleb128 0
 1779 093c 00       		.byte	0
 1780 093d 1E       		.uleb128 0x1e
 1781 093e 9C010000 		.4byte	.LVL65
 1782 0942 130B0000 		.4byte	0xb13
 1783 0946 57090000 		.4byte	0x957
 1784 094a 1F       		.uleb128 0x1f
 1785 094b 01       		.uleb128 0x1
 1786 094c 51       		.byte	0x51
 1787 094d 02       		.uleb128 0x2
 1788 094e 7D       		.byte	0x7d
 1789 094f 00       		.sleb128 0
 1790 0950 1F       		.uleb128 0x1f
 1791 0951 01       		.uleb128 0x1
 1792 0952 50       		.byte	0x50
 1793 0953 02       		.uleb128 0x2
 1794 0954 74       		.byte	0x74
 1795 0955 00       		.sleb128 0
 1796 0956 00       		.byte	0
 1797 0957 1E       		.uleb128 0x1e
 1798 0958 AA010000 		.4byte	.LVL66
 1799 095c 4D0B0000 		.4byte	0xb4d
 1800 0960 6A090000 		.4byte	0x96a
 1801 0964 1F       		.uleb128 0x1f
 1802 0965 01       		.uleb128 0x1
 1803 0966 50       		.byte	0x50
 1804 0967 01       		.uleb128 0x1
 1805 0968 38       		.byte	0x38
 1806 0969 00       		.byte	0
 1807 096a 1E       		.uleb128 0x1e
 1808 096b B8010000 		.4byte	.LVL67
 1809 096f 330B0000 		.4byte	0xb33
 1810 0973 84090000 		.4byte	0x984
 1811 0977 1F       		.uleb128 0x1f
 1812 0978 01       		.uleb128 0x1
 1813 0979 51       		.byte	0x51
 1814 097a 02       		.uleb128 0x2
ARM GAS  /tmp/ccWW49QZ.s 			page 33


 1815 097b 08       		.byte	0x8
 1816 097c 20       		.byte	0x20
 1817 097d 1F       		.uleb128 0x1f
 1818 097e 01       		.uleb128 0x1
 1819 097f 50       		.byte	0x50
 1820 0980 02       		.uleb128 0x2
 1821 0981 74       		.byte	0x74
 1822 0982 00       		.sleb128 0
 1823 0983 00       		.byte	0
 1824 0984 1D       		.uleb128 0x1d
 1825 0985 BC010000 		.4byte	.LVL68
 1826 0989 670B0000 		.4byte	0xb67
 1827 098d 1E       		.uleb128 0x1e
 1828 098e C2010000 		.4byte	.LVL69
 1829 0992 670B0000 		.4byte	0xb67
 1830 0996 A1090000 		.4byte	0x9a1
 1831 099a 1F       		.uleb128 0x1f
 1832 099b 01       		.uleb128 0x1
 1833 099c 50       		.byte	0x50
 1834 099d 02       		.uleb128 0x2
 1835 099e 75       		.byte	0x75
 1836 099f 00       		.sleb128 0
 1837 09a0 00       		.byte	0
 1838 09a1 1E       		.uleb128 0x1e
 1839 09a2 CA010000 		.4byte	.LVL70
 1840 09a6 130B0000 		.4byte	0xb13
 1841 09aa BB090000 		.4byte	0x9bb
 1842 09ae 1F       		.uleb128 0x1f
 1843 09af 01       		.uleb128 0x1
 1844 09b0 51       		.byte	0x51
 1845 09b1 02       		.uleb128 0x2
 1846 09b2 7D       		.byte	0x7d
 1847 09b3 00       		.sleb128 0
 1848 09b4 1F       		.uleb128 0x1f
 1849 09b5 01       		.uleb128 0x1
 1850 09b6 50       		.byte	0x50
 1851 09b7 02       		.uleb128 0x2
 1852 09b8 74       		.byte	0x74
 1853 09b9 00       		.sleb128 0
 1854 09ba 00       		.byte	0
 1855 09bb 1E       		.uleb128 0x1e
 1856 09bc D8010000 		.4byte	.LVL71
 1857 09c0 4D0B0000 		.4byte	0xb4d
 1858 09c4 CE090000 		.4byte	0x9ce
 1859 09c8 1F       		.uleb128 0x1f
 1860 09c9 01       		.uleb128 0x1
 1861 09ca 50       		.byte	0x50
 1862 09cb 01       		.uleb128 0x1
 1863 09cc 39       		.byte	0x39
 1864 09cd 00       		.byte	0
 1865 09ce 1E       		.uleb128 0x1e
 1866 09cf E6010000 		.4byte	.LVL72
 1867 09d3 130B0000 		.4byte	0xb13
 1868 09d7 E8090000 		.4byte	0x9e8
 1869 09db 1F       		.uleb128 0x1f
 1870 09dc 01       		.uleb128 0x1
 1871 09dd 51       		.byte	0x51
ARM GAS  /tmp/ccWW49QZ.s 			page 34


 1872 09de 02       		.uleb128 0x2
 1873 09df 7D       		.byte	0x7d
 1874 09e0 00       		.sleb128 0
 1875 09e1 1F       		.uleb128 0x1f
 1876 09e2 01       		.uleb128 0x1
 1877 09e3 50       		.byte	0x50
 1878 09e4 02       		.uleb128 0x2
 1879 09e5 74       		.byte	0x74
 1880 09e6 00       		.sleb128 0
 1881 09e7 00       		.byte	0
 1882 09e8 1E       		.uleb128 0x1e
 1883 09e9 EE010000 		.4byte	.LVL73
 1884 09ed 330B0000 		.4byte	0xb33
 1885 09f1 FC090000 		.4byte	0x9fc
 1886 09f5 1F       		.uleb128 0x1f
 1887 09f6 01       		.uleb128 0x1
 1888 09f7 50       		.byte	0x50
 1889 09f8 02       		.uleb128 0x2
 1890 09f9 74       		.byte	0x74
 1891 09fa 00       		.sleb128 0
 1892 09fb 00       		.byte	0
 1893 09fc 1E       		.uleb128 0x1e
 1894 09fd F8010000 		.4byte	.LVL76
 1895 0a01 130B0000 		.4byte	0xb13
 1896 0a05 160A0000 		.4byte	0xa16
 1897 0a09 1F       		.uleb128 0x1f
 1898 0a0a 01       		.uleb128 0x1
 1899 0a0b 51       		.byte	0x51
 1900 0a0c 02       		.uleb128 0x2
 1901 0a0d 7D       		.byte	0x7d
 1902 0a0e 00       		.sleb128 0
 1903 0a0f 1F       		.uleb128 0x1f
 1904 0a10 01       		.uleb128 0x1
 1905 0a11 50       		.byte	0x50
 1906 0a12 02       		.uleb128 0x2
 1907 0a13 74       		.byte	0x74
 1908 0a14 00       		.sleb128 0
 1909 0a15 00       		.byte	0
 1910 0a16 1E       		.uleb128 0x1e
 1911 0a17 04020000 		.4byte	.LVL77
 1912 0a1b 4D0B0000 		.4byte	0xb4d
 1913 0a1f 290A0000 		.4byte	0xa29
 1914 0a23 1F       		.uleb128 0x1f
 1915 0a24 01       		.uleb128 0x1
 1916 0a25 50       		.byte	0x50
 1917 0a26 01       		.uleb128 0x1
 1918 0a27 3A       		.byte	0x3a
 1919 0a28 00       		.byte	0
 1920 0a29 1E       		.uleb128 0x1e
 1921 0a2a 10020000 		.4byte	.LVL78
 1922 0a2e 670B0000 		.4byte	0xb67
 1923 0a32 3D0A0000 		.4byte	0xa3d
 1924 0a36 1F       		.uleb128 0x1f
 1925 0a37 01       		.uleb128 0x1
 1926 0a38 50       		.byte	0x50
 1927 0a39 02       		.uleb128 0x2
 1928 0a3a 75       		.byte	0x75
ARM GAS  /tmp/ccWW49QZ.s 			page 35


 1929 0a3b 00       		.sleb128 0
 1930 0a3c 00       		.byte	0
 1931 0a3d 1E       		.uleb128 0x1e
 1932 0a3e 18020000 		.4byte	.LVL79
 1933 0a42 130B0000 		.4byte	0xb13
 1934 0a46 570A0000 		.4byte	0xa57
 1935 0a4a 1F       		.uleb128 0x1f
 1936 0a4b 01       		.uleb128 0x1
 1937 0a4c 51       		.byte	0x51
 1938 0a4d 02       		.uleb128 0x2
 1939 0a4e 7D       		.byte	0x7d
 1940 0a4f 00       		.sleb128 0
 1941 0a50 1F       		.uleb128 0x1f
 1942 0a51 01       		.uleb128 0x1
 1943 0a52 50       		.byte	0x50
 1944 0a53 02       		.uleb128 0x2
 1945 0a54 74       		.byte	0x74
 1946 0a55 00       		.sleb128 0
 1947 0a56 00       		.byte	0
 1948 0a57 1E       		.uleb128 0x1e
 1949 0a58 26020000 		.4byte	.LVL80
 1950 0a5c 4D0B0000 		.4byte	0xb4d
 1951 0a60 6A0A0000 		.4byte	0xa6a
 1952 0a64 1F       		.uleb128 0x1f
 1953 0a65 01       		.uleb128 0x1
 1954 0a66 50       		.byte	0x50
 1955 0a67 01       		.uleb128 0x1
 1956 0a68 3B       		.byte	0x3b
 1957 0a69 00       		.byte	0
 1958 0a6a 20       		.uleb128 0x20
 1959 0a6b 3E020000 		.4byte	.LVL81
 1960 0a6f 4D0B0000 		.4byte	0xb4d
 1961 0a73 1F       		.uleb128 0x1f
 1962 0a74 01       		.uleb128 0x1
 1963 0a75 50       		.byte	0x50
 1964 0a76 01       		.uleb128 0x1
 1965 0a77 3C       		.byte	0x3c
 1966 0a78 00       		.byte	0
 1967 0a79 00       		.byte	0
 1968 0a7a 1A       		.uleb128 0x1a
 1969 0a7b C5000000 		.4byte	.LASF83
 1970 0a7f 01       		.byte	0x1
 1971 0a80 40       		.byte	0x40
 1972 0a81 00000000 		.4byte	.LFB7
 1973 0a85 18000000 		.4byte	.LFE7-.LFB7
 1974 0a89 01       		.uleb128 0x1
 1975 0a8a 9C       		.byte	0x9c
 1976 0a8b AA0A0000 		.4byte	0xaaa
 1977 0a8f 20       		.uleb128 0x20
 1978 0a90 0E000000 		.4byte	.LVL82
 1979 0a94 780B0000 		.4byte	0xb78
 1980 0a98 1F       		.uleb128 0x1f
 1981 0a99 01       		.uleb128 0x1
 1982 0a9a 52       		.byte	0x52
 1983 0a9b 03       		.uleb128 0x3
 1984 0a9c 0A       		.byte	0xa
 1985 0a9d F005     		.2byte	0x5f0
ARM GAS  /tmp/ccWW49QZ.s 			page 36


 1986 0a9f 1F       		.uleb128 0x1f
 1987 0aa0 01       		.uleb128 0x1
 1988 0aa1 50       		.byte	0x50
 1989 0aa2 05       		.uleb128 0x5
 1990 0aa3 03       		.byte	0x3
 1991 0aa4 00000000 		.4byte	.LANCHOR0
 1992 0aa8 00       		.byte	0
 1993 0aa9 00       		.byte	0
 1994 0aaa 21       		.uleb128 0x21
 1995 0aab 36040000 		.4byte	.LASF84
 1996 0aaf 01       		.byte	0x1
 1997 0ab0 33       		.byte	0x33
 1998 0ab1 A9030000 		.4byte	0x3a9
 1999 0ab5 05       		.uleb128 0x5
 2000 0ab6 03       		.byte	0x3
 2001 0ab7 00000000 		.4byte	test_heap
 2002 0abb 22       		.uleb128 0x22
 2003 0abc 5B000000 		.4byte	.LASF85
 2004 0ac0 0C       		.byte	0xc
 2005 0ac1 A6       		.byte	0xa6
 2006 0ac2 36050000 		.4byte	0x536
 2007 0ac6 23       		.uleb128 0x23
 2008 0ac7 45020000 		.4byte	.LASF86
 2009 0acb 01       		.byte	0x1
 2010 0acc 8E       		.byte	0x8e
 2011 0acd D70A0000 		.4byte	0xad7
 2012 0ad1 05       		.uleb128 0x5
 2013 0ad2 03       		.byte	0x3
 2014 0ad3 00000000 		.4byte	testheap1
 2015 0ad7 12       		.uleb128 0x12
 2016 0ad8 9D040000 		.4byte	0x49d
 2017 0adc 16       		.uleb128 0x16
 2018 0add EC0A0000 		.4byte	0xaec
 2019 0ae1 EC0A0000 		.4byte	0xaec
 2020 0ae5 17       		.uleb128 0x17
 2021 0ae6 3B030000 		.4byte	0x33b
 2022 0aea 01       		.byte	0x1
 2023 0aeb 00       		.byte	0
 2024 0aec 09       		.uleb128 0x9
 2025 0aed 04       		.byte	0x4
 2026 0aee D70A0000 		.4byte	0xad7
 2027 0af2 23       		.uleb128 0x23
 2028 0af3 77000000 		.4byte	.LASF87
 2029 0af7 01       		.byte	0x1
 2030 0af8 9A       		.byte	0x9a
 2031 0af9 030B0000 		.4byte	0xb03
 2032 0afd 05       		.uleb128 0x5
 2033 0afe 03       		.byte	0x3
 2034 0aff 00000000 		.4byte	patternheap
 2035 0b03 12       		.uleb128 0x12
 2036 0b04 DC0A0000 		.4byte	0xadc
 2037 0b08 24       		.uleb128 0x24
 2038 0b09 58020000 		.4byte	.LASF94
 2039 0b0d 0A       		.byte	0xa
 2040 0b0e 54       		.byte	0x54
 2041 0b0f 2C000000 		.4byte	0x2c
 2042 0b13 25       		.uleb128 0x25
ARM GAS  /tmp/ccWW49QZ.s 			page 37


 2043 0b14 CE030000 		.4byte	.LASF88
 2044 0b18 0B       		.byte	0xb
 2045 0b19 5B       		.byte	0x5b
 2046 0b1a 2C000000 		.4byte	0x2c
 2047 0b1e 2D0B0000 		.4byte	0xb2d
 2048 0b22 0D       		.uleb128 0xd
 2049 0b23 2B040000 		.4byte	0x42b
 2050 0b27 0D       		.uleb128 0xd
 2051 0b28 2D0B0000 		.4byte	0xb2d
 2052 0b2c 00       		.byte	0
 2053 0b2d 09       		.uleb128 0x9
 2054 0b2e 04       		.byte	0x4
 2055 0b2f 2C000000 		.4byte	0x2c
 2056 0b33 25       		.uleb128 0x25
 2057 0b34 9B030000 		.4byte	.LASF89
 2058 0b38 0B       		.byte	0xb
 2059 0b39 59       		.byte	0x59
 2060 0b3a 9D020000 		.4byte	0x29d
 2061 0b3e 4D0B0000 		.4byte	0xb4d
 2062 0b42 0D       		.uleb128 0xd
 2063 0b43 2B040000 		.4byte	0x42b
 2064 0b47 0D       		.uleb128 0xd
 2065 0b48 2C000000 		.4byte	0x2c
 2066 0b4c 00       		.byte	0
 2067 0b4d 25       		.uleb128 0x25
 2068 0b4e 4E040000 		.4byte	.LASF90
 2069 0b52 0C       		.byte	0xc
 2070 0b53 58       		.byte	0x58
 2071 0b54 CE000000 		.4byte	0xce
 2072 0b58 670B0000 		.4byte	0xb67
 2073 0b5c 0D       		.uleb128 0xd
 2074 0b5d 37000000 		.4byte	0x37
 2075 0b61 0D       		.uleb128 0xd
 2076 0b62 CE000000 		.4byte	0xce
 2077 0b66 00       		.byte	0
 2078 0b67 26       		.uleb128 0x26
 2079 0b68 BA000000 		.4byte	.LASF95
 2080 0b6c 0B       		.byte	0xb
 2081 0b6d 5A       		.byte	0x5a
 2082 0b6e 780B0000 		.4byte	0xb78
 2083 0b72 0D       		.uleb128 0xd
 2084 0b73 9D020000 		.4byte	0x29d
 2085 0b77 00       		.byte	0
 2086 0b78 27       		.uleb128 0x27
 2087 0b79 60000000 		.4byte	.LASF96
 2088 0b7d 0B       		.byte	0xb
 2089 0b7e 57       		.byte	0x57
 2090 0b7f 0D       		.uleb128 0xd
 2091 0b80 2B040000 		.4byte	0x42b
 2092 0b84 0D       		.uleb128 0xd
 2093 0b85 9D020000 		.4byte	0x29d
 2094 0b89 0D       		.uleb128 0xd
 2095 0b8a 2C000000 		.4byte	0x2c
 2096 0b8e 00       		.byte	0
 2097 0b8f 00       		.byte	0
 2098              		.section	.debug_abbrev,"",%progbits
 2099              	.Ldebug_abbrev0:
ARM GAS  /tmp/ccWW49QZ.s 			page 38


 2100 0000 01       		.uleb128 0x1
 2101 0001 11       		.uleb128 0x11
 2102 0002 01       		.byte	0x1
 2103 0003 25       		.uleb128 0x25
 2104 0004 0E       		.uleb128 0xe
 2105 0005 13       		.uleb128 0x13
 2106 0006 0B       		.uleb128 0xb
 2107 0007 03       		.uleb128 0x3
 2108 0008 0E       		.uleb128 0xe
 2109 0009 1B       		.uleb128 0x1b
 2110 000a 0E       		.uleb128 0xe
 2111 000b 55       		.uleb128 0x55
 2112 000c 17       		.uleb128 0x17
 2113 000d 11       		.uleb128 0x11
 2114 000e 01       		.uleb128 0x1
 2115 000f 10       		.uleb128 0x10
 2116 0010 17       		.uleb128 0x17
 2117 0011 00       		.byte	0
 2118 0012 00       		.byte	0
 2119 0013 02       		.uleb128 0x2
 2120 0014 24       		.uleb128 0x24
 2121 0015 00       		.byte	0
 2122 0016 0B       		.uleb128 0xb
 2123 0017 0B       		.uleb128 0xb
 2124 0018 3E       		.uleb128 0x3e
 2125 0019 0B       		.uleb128 0xb
 2126 001a 03       		.uleb128 0x3
 2127 001b 08       		.uleb128 0x8
 2128 001c 00       		.byte	0
 2129 001d 00       		.byte	0
 2130 001e 03       		.uleb128 0x3
 2131 001f 16       		.uleb128 0x16
 2132 0020 00       		.byte	0
 2133 0021 03       		.uleb128 0x3
 2134 0022 0E       		.uleb128 0xe
 2135 0023 3A       		.uleb128 0x3a
 2136 0024 0B       		.uleb128 0xb
 2137 0025 3B       		.uleb128 0x3b
 2138 0026 0B       		.uleb128 0xb
 2139 0027 49       		.uleb128 0x49
 2140 0028 13       		.uleb128 0x13
 2141 0029 00       		.byte	0
 2142 002a 00       		.byte	0
 2143 002b 04       		.uleb128 0x4
 2144 002c 24       		.uleb128 0x24
 2145 002d 00       		.byte	0
 2146 002e 0B       		.uleb128 0xb
 2147 002f 0B       		.uleb128 0xb
 2148 0030 3E       		.uleb128 0x3e
 2149 0031 0B       		.uleb128 0xb
 2150 0032 03       		.uleb128 0x3
 2151 0033 0E       		.uleb128 0xe
 2152 0034 00       		.byte	0
 2153 0035 00       		.byte	0
 2154 0036 05       		.uleb128 0x5
 2155 0037 13       		.uleb128 0x13
 2156 0038 01       		.byte	0x1
ARM GAS  /tmp/ccWW49QZ.s 			page 39


 2157 0039 03       		.uleb128 0x3
 2158 003a 0E       		.uleb128 0xe
 2159 003b 0B       		.uleb128 0xb
 2160 003c 0B       		.uleb128 0xb
 2161 003d 3A       		.uleb128 0x3a
 2162 003e 0B       		.uleb128 0xb
 2163 003f 3B       		.uleb128 0x3b
 2164 0040 0B       		.uleb128 0xb
 2165 0041 01       		.uleb128 0x1
 2166 0042 13       		.uleb128 0x13
 2167 0043 00       		.byte	0
 2168 0044 00       		.byte	0
 2169 0045 06       		.uleb128 0x6
 2170 0046 0D       		.uleb128 0xd
 2171 0047 00       		.byte	0
 2172 0048 03       		.uleb128 0x3
 2173 0049 0E       		.uleb128 0xe
 2174 004a 3A       		.uleb128 0x3a
 2175 004b 0B       		.uleb128 0xb
 2176 004c 3B       		.uleb128 0x3b
 2177 004d 0B       		.uleb128 0xb
 2178 004e 49       		.uleb128 0x49
 2179 004f 13       		.uleb128 0x13
 2180 0050 38       		.uleb128 0x38
 2181 0051 0B       		.uleb128 0xb
 2182 0052 00       		.byte	0
 2183 0053 00       		.byte	0
 2184 0054 07       		.uleb128 0x7
 2185 0055 0D       		.uleb128 0xd
 2186 0056 00       		.byte	0
 2187 0057 03       		.uleb128 0x3
 2188 0058 08       		.uleb128 0x8
 2189 0059 3A       		.uleb128 0x3a
 2190 005a 0B       		.uleb128 0xb
 2191 005b 3B       		.uleb128 0x3b
 2192 005c 0B       		.uleb128 0xb
 2193 005d 49       		.uleb128 0x49
 2194 005e 13       		.uleb128 0x13
 2195 005f 38       		.uleb128 0x38
 2196 0060 0B       		.uleb128 0xb
 2197 0061 00       		.byte	0
 2198 0062 00       		.byte	0
 2199 0063 08       		.uleb128 0x8
 2200 0064 13       		.uleb128 0x13
 2201 0065 01       		.byte	0x1
 2202 0066 0B       		.uleb128 0xb
 2203 0067 0B       		.uleb128 0xb
 2204 0068 3A       		.uleb128 0x3a
 2205 0069 0B       		.uleb128 0xb
 2206 006a 3B       		.uleb128 0x3b
 2207 006b 0B       		.uleb128 0xb
 2208 006c 01       		.uleb128 0x1
 2209 006d 13       		.uleb128 0x13
 2210 006e 00       		.byte	0
 2211 006f 00       		.byte	0
 2212 0070 09       		.uleb128 0x9
 2213 0071 0F       		.uleb128 0xf
ARM GAS  /tmp/ccWW49QZ.s 			page 40


 2214 0072 00       		.byte	0
 2215 0073 0B       		.uleb128 0xb
 2216 0074 0B       		.uleb128 0xb
 2217 0075 49       		.uleb128 0x49
 2218 0076 13       		.uleb128 0x13
 2219 0077 00       		.byte	0
 2220 0078 00       		.byte	0
 2221 0079 0A       		.uleb128 0xa
 2222 007a 0F       		.uleb128 0xf
 2223 007b 00       		.byte	0
 2224 007c 0B       		.uleb128 0xb
 2225 007d 0B       		.uleb128 0xb
 2226 007e 00       		.byte	0
 2227 007f 00       		.byte	0
 2228 0080 0B       		.uleb128 0xb
 2229 0081 35       		.uleb128 0x35
 2230 0082 00       		.byte	0
 2231 0083 49       		.uleb128 0x49
 2232 0084 13       		.uleb128 0x13
 2233 0085 00       		.byte	0
 2234 0086 00       		.byte	0
 2235 0087 0C       		.uleb128 0xc
 2236 0088 15       		.uleb128 0x15
 2237 0089 01       		.byte	0x1
 2238 008a 27       		.uleb128 0x27
 2239 008b 19       		.uleb128 0x19
 2240 008c 49       		.uleb128 0x49
 2241 008d 13       		.uleb128 0x13
 2242 008e 01       		.uleb128 0x1
 2243 008f 13       		.uleb128 0x13
 2244 0090 00       		.byte	0
 2245 0091 00       		.byte	0
 2246 0092 0D       		.uleb128 0xd
 2247 0093 05       		.uleb128 0x5
 2248 0094 00       		.byte	0
 2249 0095 49       		.uleb128 0x49
 2250 0096 13       		.uleb128 0x13
 2251 0097 00       		.byte	0
 2252 0098 00       		.byte	0
 2253 0099 0E       		.uleb128 0xe
 2254 009a 17       		.uleb128 0x17
 2255 009b 01       		.byte	0x1
 2256 009c 0B       		.uleb128 0xb
 2257 009d 0B       		.uleb128 0xb
 2258 009e 3A       		.uleb128 0x3a
 2259 009f 0B       		.uleb128 0xb
 2260 00a0 3B       		.uleb128 0x3b
 2261 00a1 0B       		.uleb128 0xb
 2262 00a2 01       		.uleb128 0x1
 2263 00a3 13       		.uleb128 0x13
 2264 00a4 00       		.byte	0
 2265 00a5 00       		.byte	0
 2266 00a6 0F       		.uleb128 0xf
 2267 00a7 0D       		.uleb128 0xd
 2268 00a8 00       		.byte	0
 2269 00a9 03       		.uleb128 0x3
 2270 00aa 0E       		.uleb128 0xe
ARM GAS  /tmp/ccWW49QZ.s 			page 41


 2271 00ab 3A       		.uleb128 0x3a
 2272 00ac 0B       		.uleb128 0xb
 2273 00ad 3B       		.uleb128 0x3b
 2274 00ae 0B       		.uleb128 0xb
 2275 00af 49       		.uleb128 0x49
 2276 00b0 13       		.uleb128 0x13
 2277 00b1 00       		.byte	0
 2278 00b2 00       		.byte	0
 2279 00b3 10       		.uleb128 0x10
 2280 00b4 17       		.uleb128 0x17
 2281 00b5 01       		.byte	0x1
 2282 00b6 03       		.uleb128 0x3
 2283 00b7 0E       		.uleb128 0xe
 2284 00b8 0B       		.uleb128 0xb
 2285 00b9 0B       		.uleb128 0xb
 2286 00ba 3A       		.uleb128 0x3a
 2287 00bb 0B       		.uleb128 0xb
 2288 00bc 3B       		.uleb128 0x3b
 2289 00bd 0B       		.uleb128 0xb
 2290 00be 01       		.uleb128 0x1
 2291 00bf 13       		.uleb128 0x13
 2292 00c0 00       		.byte	0
 2293 00c1 00       		.byte	0
 2294 00c2 11       		.uleb128 0x11
 2295 00c3 0D       		.uleb128 0xd
 2296 00c4 00       		.byte	0
 2297 00c5 03       		.uleb128 0x3
 2298 00c6 08       		.uleb128 0x8
 2299 00c7 3A       		.uleb128 0x3a
 2300 00c8 0B       		.uleb128 0xb
 2301 00c9 3B       		.uleb128 0x3b
 2302 00ca 0B       		.uleb128 0xb
 2303 00cb 49       		.uleb128 0x49
 2304 00cc 13       		.uleb128 0x13
 2305 00cd 00       		.byte	0
 2306 00ce 00       		.byte	0
 2307 00cf 12       		.uleb128 0x12
 2308 00d0 26       		.uleb128 0x26
 2309 00d1 00       		.byte	0
 2310 00d2 49       		.uleb128 0x49
 2311 00d3 13       		.uleb128 0x13
 2312 00d4 00       		.byte	0
 2313 00d5 00       		.byte	0
 2314 00d6 13       		.uleb128 0x13
 2315 00d7 15       		.uleb128 0x15
 2316 00d8 00       		.byte	0
 2317 00d9 27       		.uleb128 0x27
 2318 00da 19       		.uleb128 0x19
 2319 00db 00       		.byte	0
 2320 00dc 00       		.byte	0
 2321 00dd 14       		.uleb128 0x14
 2322 00de 13       		.uleb128 0x13
 2323 00df 01       		.byte	0x1
 2324 00e0 0B       		.uleb128 0xb
 2325 00e1 05       		.uleb128 0x5
 2326 00e2 3A       		.uleb128 0x3a
 2327 00e3 0B       		.uleb128 0xb
ARM GAS  /tmp/ccWW49QZ.s 			page 42


 2328 00e4 3B       		.uleb128 0x3b
 2329 00e5 0B       		.uleb128 0xb
 2330 00e6 01       		.uleb128 0x1
 2331 00e7 13       		.uleb128 0x13
 2332 00e8 00       		.byte	0
 2333 00e9 00       		.byte	0
 2334 00ea 15       		.uleb128 0x15
 2335 00eb 0D       		.uleb128 0xd
 2336 00ec 00       		.byte	0
 2337 00ed 03       		.uleb128 0x3
 2338 00ee 08       		.uleb128 0x8
 2339 00ef 3A       		.uleb128 0x3a
 2340 00f0 0B       		.uleb128 0xb
 2341 00f1 3B       		.uleb128 0x3b
 2342 00f2 0B       		.uleb128 0xb
 2343 00f3 49       		.uleb128 0x49
 2344 00f4 13       		.uleb128 0x13
 2345 00f5 38       		.uleb128 0x38
 2346 00f6 05       		.uleb128 0x5
 2347 00f7 00       		.byte	0
 2348 00f8 00       		.byte	0
 2349 00f9 16       		.uleb128 0x16
 2350 00fa 01       		.uleb128 0x1
 2351 00fb 01       		.byte	0x1
 2352 00fc 49       		.uleb128 0x49
 2353 00fd 13       		.uleb128 0x13
 2354 00fe 01       		.uleb128 0x1
 2355 00ff 13       		.uleb128 0x13
 2356 0100 00       		.byte	0
 2357 0101 00       		.byte	0
 2358 0102 17       		.uleb128 0x17
 2359 0103 21       		.uleb128 0x21
 2360 0104 00       		.byte	0
 2361 0105 49       		.uleb128 0x49
 2362 0106 13       		.uleb128 0x13
 2363 0107 2F       		.uleb128 0x2f
 2364 0108 0B       		.uleb128 0xb
 2365 0109 00       		.byte	0
 2366 010a 00       		.byte	0
 2367 010b 18       		.uleb128 0x18
 2368 010c 17       		.uleb128 0x17
 2369 010d 01       		.byte	0x1
 2370 010e 03       		.uleb128 0x3
 2371 010f 0E       		.uleb128 0xe
 2372 0110 0B       		.uleb128 0xb
 2373 0111 05       		.uleb128 0x5
 2374 0112 3A       		.uleb128 0x3a
 2375 0113 0B       		.uleb128 0xb
 2376 0114 3B       		.uleb128 0x3b
 2377 0115 0B       		.uleb128 0xb
 2378 0116 01       		.uleb128 0x1
 2379 0117 13       		.uleb128 0x13
 2380 0118 00       		.byte	0
 2381 0119 00       		.byte	0
 2382 011a 19       		.uleb128 0x19
 2383 011b 21       		.uleb128 0x21
 2384 011c 00       		.byte	0
ARM GAS  /tmp/ccWW49QZ.s 			page 43


 2385 011d 49       		.uleb128 0x49
 2386 011e 13       		.uleb128 0x13
 2387 011f 2F       		.uleb128 0x2f
 2388 0120 05       		.uleb128 0x5
 2389 0121 00       		.byte	0
 2390 0122 00       		.byte	0
 2391 0123 1A       		.uleb128 0x1a
 2392 0124 2E       		.uleb128 0x2e
 2393 0125 01       		.byte	0x1
 2394 0126 03       		.uleb128 0x3
 2395 0127 0E       		.uleb128 0xe
 2396 0128 3A       		.uleb128 0x3a
 2397 0129 0B       		.uleb128 0xb
 2398 012a 3B       		.uleb128 0x3b
 2399 012b 0B       		.uleb128 0xb
 2400 012c 27       		.uleb128 0x27
 2401 012d 19       		.uleb128 0x19
 2402 012e 11       		.uleb128 0x11
 2403 012f 01       		.uleb128 0x1
 2404 0130 12       		.uleb128 0x12
 2405 0131 06       		.uleb128 0x6
 2406 0132 40       		.uleb128 0x40
 2407 0133 18       		.uleb128 0x18
 2408 0134 9742     		.uleb128 0x2117
 2409 0136 19       		.uleb128 0x19
 2410 0137 01       		.uleb128 0x1
 2411 0138 13       		.uleb128 0x13
 2412 0139 00       		.byte	0
 2413 013a 00       		.byte	0
 2414 013b 1B       		.uleb128 0x1b
 2415 013c 34       		.uleb128 0x34
 2416 013d 00       		.byte	0
 2417 013e 03       		.uleb128 0x3
 2418 013f 08       		.uleb128 0x8
 2419 0140 3A       		.uleb128 0x3a
 2420 0141 0B       		.uleb128 0xb
 2421 0142 3B       		.uleb128 0x3b
 2422 0143 0B       		.uleb128 0xb
 2423 0144 49       		.uleb128 0x49
 2424 0145 13       		.uleb128 0x13
 2425 0146 02       		.uleb128 0x2
 2426 0147 17       		.uleb128 0x17
 2427 0148 00       		.byte	0
 2428 0149 00       		.byte	0
 2429 014a 1C       		.uleb128 0x1c
 2430 014b 34       		.uleb128 0x34
 2431 014c 00       		.byte	0
 2432 014d 03       		.uleb128 0x3
 2433 014e 08       		.uleb128 0x8
 2434 014f 3A       		.uleb128 0x3a
 2435 0150 0B       		.uleb128 0xb
 2436 0151 3B       		.uleb128 0x3b
 2437 0152 0B       		.uleb128 0xb
 2438 0153 49       		.uleb128 0x49
 2439 0154 13       		.uleb128 0x13
 2440 0155 02       		.uleb128 0x2
 2441 0156 18       		.uleb128 0x18
ARM GAS  /tmp/ccWW49QZ.s 			page 44


 2442 0157 00       		.byte	0
 2443 0158 00       		.byte	0
 2444 0159 1D       		.uleb128 0x1d
 2445 015a 898201   		.uleb128 0x4109
 2446 015d 00       		.byte	0
 2447 015e 11       		.uleb128 0x11
 2448 015f 01       		.uleb128 0x1
 2449 0160 31       		.uleb128 0x31
 2450 0161 13       		.uleb128 0x13
 2451 0162 00       		.byte	0
 2452 0163 00       		.byte	0
 2453 0164 1E       		.uleb128 0x1e
 2454 0165 898201   		.uleb128 0x4109
 2455 0168 01       		.byte	0x1
 2456 0169 11       		.uleb128 0x11
 2457 016a 01       		.uleb128 0x1
 2458 016b 31       		.uleb128 0x31
 2459 016c 13       		.uleb128 0x13
 2460 016d 01       		.uleb128 0x1
 2461 016e 13       		.uleb128 0x13
 2462 016f 00       		.byte	0
 2463 0170 00       		.byte	0
 2464 0171 1F       		.uleb128 0x1f
 2465 0172 8A8201   		.uleb128 0x410a
 2466 0175 00       		.byte	0
 2467 0176 02       		.uleb128 0x2
 2468 0177 18       		.uleb128 0x18
 2469 0178 9142     		.uleb128 0x2111
 2470 017a 18       		.uleb128 0x18
 2471 017b 00       		.byte	0
 2472 017c 00       		.byte	0
 2473 017d 20       		.uleb128 0x20
 2474 017e 898201   		.uleb128 0x4109
 2475 0181 01       		.byte	0x1
 2476 0182 11       		.uleb128 0x11
 2477 0183 01       		.uleb128 0x1
 2478 0184 31       		.uleb128 0x31
 2479 0185 13       		.uleb128 0x13
 2480 0186 00       		.byte	0
 2481 0187 00       		.byte	0
 2482 0188 21       		.uleb128 0x21
 2483 0189 34       		.uleb128 0x34
 2484 018a 00       		.byte	0
 2485 018b 03       		.uleb128 0x3
 2486 018c 0E       		.uleb128 0xe
 2487 018d 3A       		.uleb128 0x3a
 2488 018e 0B       		.uleb128 0xb
 2489 018f 3B       		.uleb128 0x3b
 2490 0190 0B       		.uleb128 0xb
 2491 0191 49       		.uleb128 0x49
 2492 0192 13       		.uleb128 0x13
 2493 0193 02       		.uleb128 0x2
 2494 0194 18       		.uleb128 0x18
 2495 0195 00       		.byte	0
 2496 0196 00       		.byte	0
 2497 0197 22       		.uleb128 0x22
 2498 0198 34       		.uleb128 0x34
ARM GAS  /tmp/ccWW49QZ.s 			page 45


 2499 0199 00       		.byte	0
 2500 019a 03       		.uleb128 0x3
 2501 019b 0E       		.uleb128 0xe
 2502 019c 3A       		.uleb128 0x3a
 2503 019d 0B       		.uleb128 0xb
 2504 019e 3B       		.uleb128 0x3b
 2505 019f 0B       		.uleb128 0xb
 2506 01a0 49       		.uleb128 0x49
 2507 01a1 13       		.uleb128 0x13
 2508 01a2 3F       		.uleb128 0x3f
 2509 01a3 19       		.uleb128 0x19
 2510 01a4 3C       		.uleb128 0x3c
 2511 01a5 19       		.uleb128 0x19
 2512 01a6 00       		.byte	0
 2513 01a7 00       		.byte	0
 2514 01a8 23       		.uleb128 0x23
 2515 01a9 34       		.uleb128 0x34
 2516 01aa 00       		.byte	0
 2517 01ab 03       		.uleb128 0x3
 2518 01ac 0E       		.uleb128 0xe
 2519 01ad 3A       		.uleb128 0x3a
 2520 01ae 0B       		.uleb128 0xb
 2521 01af 3B       		.uleb128 0x3b
 2522 01b0 0B       		.uleb128 0xb
 2523 01b1 49       		.uleb128 0x49
 2524 01b2 13       		.uleb128 0x13
 2525 01b3 3F       		.uleb128 0x3f
 2526 01b4 19       		.uleb128 0x19
 2527 01b5 02       		.uleb128 0x2
 2528 01b6 18       		.uleb128 0x18
 2529 01b7 00       		.byte	0
 2530 01b8 00       		.byte	0
 2531 01b9 24       		.uleb128 0x24
 2532 01ba 2E       		.uleb128 0x2e
 2533 01bb 00       		.byte	0
 2534 01bc 3F       		.uleb128 0x3f
 2535 01bd 19       		.uleb128 0x19
 2536 01be 03       		.uleb128 0x3
 2537 01bf 0E       		.uleb128 0xe
 2538 01c0 3A       		.uleb128 0x3a
 2539 01c1 0B       		.uleb128 0xb
 2540 01c2 3B       		.uleb128 0x3b
 2541 01c3 0B       		.uleb128 0xb
 2542 01c4 27       		.uleb128 0x27
 2543 01c5 19       		.uleb128 0x19
 2544 01c6 49       		.uleb128 0x49
 2545 01c7 13       		.uleb128 0x13
 2546 01c8 3C       		.uleb128 0x3c
 2547 01c9 19       		.uleb128 0x19
 2548 01ca 00       		.byte	0
 2549 01cb 00       		.byte	0
 2550 01cc 25       		.uleb128 0x25
 2551 01cd 2E       		.uleb128 0x2e
 2552 01ce 01       		.byte	0x1
 2553 01cf 3F       		.uleb128 0x3f
 2554 01d0 19       		.uleb128 0x19
 2555 01d1 03       		.uleb128 0x3
ARM GAS  /tmp/ccWW49QZ.s 			page 46


 2556 01d2 0E       		.uleb128 0xe
 2557 01d3 3A       		.uleb128 0x3a
 2558 01d4 0B       		.uleb128 0xb
 2559 01d5 3B       		.uleb128 0x3b
 2560 01d6 0B       		.uleb128 0xb
 2561 01d7 27       		.uleb128 0x27
 2562 01d8 19       		.uleb128 0x19
 2563 01d9 49       		.uleb128 0x49
 2564 01da 13       		.uleb128 0x13
 2565 01db 3C       		.uleb128 0x3c
 2566 01dc 19       		.uleb128 0x19
 2567 01dd 01       		.uleb128 0x1
 2568 01de 13       		.uleb128 0x13
 2569 01df 00       		.byte	0
 2570 01e0 00       		.byte	0
 2571 01e1 26       		.uleb128 0x26
 2572 01e2 2E       		.uleb128 0x2e
 2573 01e3 01       		.byte	0x1
 2574 01e4 3F       		.uleb128 0x3f
 2575 01e5 19       		.uleb128 0x19
 2576 01e6 03       		.uleb128 0x3
 2577 01e7 0E       		.uleb128 0xe
 2578 01e8 3A       		.uleb128 0x3a
 2579 01e9 0B       		.uleb128 0xb
 2580 01ea 3B       		.uleb128 0x3b
 2581 01eb 0B       		.uleb128 0xb
 2582 01ec 27       		.uleb128 0x27
 2583 01ed 19       		.uleb128 0x19
 2584 01ee 3C       		.uleb128 0x3c
 2585 01ef 19       		.uleb128 0x19
 2586 01f0 01       		.uleb128 0x1
 2587 01f1 13       		.uleb128 0x13
 2588 01f2 00       		.byte	0
 2589 01f3 00       		.byte	0
 2590 01f4 27       		.uleb128 0x27
 2591 01f5 2E       		.uleb128 0x2e
 2592 01f6 01       		.byte	0x1
 2593 01f7 3F       		.uleb128 0x3f
 2594 01f8 19       		.uleb128 0x19
 2595 01f9 03       		.uleb128 0x3
 2596 01fa 0E       		.uleb128 0xe
 2597 01fb 3A       		.uleb128 0x3a
 2598 01fc 0B       		.uleb128 0xb
 2599 01fd 3B       		.uleb128 0x3b
 2600 01fe 0B       		.uleb128 0xb
 2601 01ff 27       		.uleb128 0x27
 2602 0200 19       		.uleb128 0x19
 2603 0201 3C       		.uleb128 0x3c
 2604 0202 19       		.uleb128 0x19
 2605 0203 00       		.byte	0
 2606 0204 00       		.byte	0
 2607 0205 00       		.byte	0
 2608              		.section	.debug_loc,"",%progbits
 2609              	.Ldebug_loc0:
 2610              	.LLST0:
 2611 0000 20000000 		.4byte	.LVL3
 2612 0004 24000000 		.4byte	.LVL4
ARM GAS  /tmp/ccWW49QZ.s 			page 47


 2613 0008 0100     		.2byte	0x1
 2614 000a 50       		.byte	0x50
 2615 000b 24000000 		.4byte	.LVL4
 2616 000f 2C000000 		.4byte	.LVL6
 2617 0013 0100     		.2byte	0x1
 2618 0015 54       		.byte	0x54
 2619 0016 30000000 		.4byte	.LVL7
 2620 001a 3E000000 		.4byte	.LVL9
 2621 001e 0100     		.2byte	0x1
 2622 0020 54       		.byte	0x54
 2623 0021 3E000000 		.4byte	.LVL9
 2624 0025 42000000 		.4byte	.LVL10
 2625 0029 0100     		.2byte	0x1
 2626 002b 50       		.byte	0x50
 2627 002c 64000000 		.4byte	.LVL14
 2628 0030 66000000 		.4byte	.LVL15
 2629 0034 0100     		.2byte	0x1
 2630 0036 50       		.byte	0x50
 2631 0037 66000000 		.4byte	.LVL15
 2632 003b AE000000 		.4byte	.LVL28
 2633 003f 0100     		.2byte	0x1
 2634 0041 57       		.byte	0x57
 2635 0042 AE000000 		.4byte	.LVL28
 2636 0046 B0000000 		.4byte	.LVL29
 2637 004a 0100     		.2byte	0x1
 2638 004c 50       		.byte	0x50
 2639 004d B0000000 		.4byte	.LVL29
 2640 0051 F4000000 		.4byte	.LVL40
 2641 0055 0100     		.2byte	0x1
 2642 0057 55       		.byte	0x55
 2643 0058 F4000000 		.4byte	.LVL40
 2644 005c F6000000 		.4byte	.LVL41
 2645 0060 0100     		.2byte	0x1
 2646 0062 50       		.byte	0x50
 2647 0063 F6000000 		.4byte	.LVL41
 2648 0067 2A010000 		.4byte	.LVL49
 2649 006b 0100     		.2byte	0x1
 2650 006d 55       		.byte	0x55
 2651 006e 2A010000 		.4byte	.LVL49
 2652 0072 2C010000 		.4byte	.LVL50
 2653 0076 0100     		.2byte	0x1
 2654 0078 50       		.byte	0x50
 2655 0079 2C010000 		.4byte	.LVL50
 2656 007d 86010000 		.4byte	.LVL59
 2657 0081 0100     		.2byte	0x1
 2658 0083 55       		.byte	0x55
 2659 0084 86010000 		.4byte	.LVL59
 2660 0088 88010000 		.4byte	.LVL60
 2661 008c 0100     		.2byte	0x1
 2662 008e 50       		.byte	0x50
 2663 008f 88010000 		.4byte	.LVL60
 2664 0093 B8010000 		.4byte	.LVL67
 2665 0097 0100     		.2byte	0x1
 2666 0099 56       		.byte	0x56
 2667 009a B8010000 		.4byte	.LVL67
 2668 009e BB010000 		.4byte	.LVL68-1
 2669 00a2 0100     		.2byte	0x1
ARM GAS  /tmp/ccWW49QZ.s 			page 48


 2670 00a4 50       		.byte	0x50
 2671 00a5 F2010000 		.4byte	.LVL74
 2672 00a9 F4010000 		.4byte	.LVL75
 2673 00ad 0100     		.2byte	0x1
 2674 00af 50       		.byte	0x50
 2675 00b0 F4010000 		.4byte	.LVL75
 2676 00b4 48020000 		.4byte	.LFE8
 2677 00b8 0100     		.2byte	0x1
 2678 00ba 55       		.byte	0x55
 2679 00bb 00000000 		.4byte	0
 2680 00bf 00000000 		.4byte	0
 2681              	.LLST1:
 2682 00c3 6E000000 		.4byte	.LVL17
 2683 00c7 70000000 		.4byte	.LVL18
 2684 00cb 0100     		.2byte	0x1
 2685 00cd 50       		.byte	0x50
 2686 00ce 70000000 		.4byte	.LVL18
 2687 00d2 B8000000 		.4byte	.LVL31
 2688 00d6 0100     		.2byte	0x1
 2689 00d8 56       		.byte	0x56
 2690 00d9 B8000000 		.4byte	.LVL31
 2691 00dd BA000000 		.4byte	.LVL32
 2692 00e1 0100     		.2byte	0x1
 2693 00e3 50       		.byte	0x50
 2694 00e4 BA000000 		.4byte	.LVL32
 2695 00e8 FC000000 		.4byte	.LVL43
 2696 00ec 0100     		.2byte	0x1
 2697 00ee 56       		.byte	0x56
 2698 00ef FC000000 		.4byte	.LVL43
 2699 00f3 FE000000 		.4byte	.LVL44
 2700 00f7 0100     		.2byte	0x1
 2701 00f9 50       		.byte	0x50
 2702 00fa FE000000 		.4byte	.LVL44
 2703 00fe 86010000 		.4byte	.LVL59
 2704 0102 0100     		.2byte	0x1
 2705 0104 56       		.byte	0x56
 2706 0105 8E010000 		.4byte	.LVL62
 2707 0109 90010000 		.4byte	.LVL63
 2708 010d 0100     		.2byte	0x1
 2709 010f 50       		.byte	0x50
 2710 0110 90010000 		.4byte	.LVL63
 2711 0114 F2010000 		.4byte	.LVL74
 2712 0118 0100     		.2byte	0x1
 2713 011a 55       		.byte	0x55
 2714 011b 00000000 		.4byte	0
 2715 011f 00000000 		.4byte	0
 2716              	.LLST2:
 2717 0123 76000000 		.4byte	.LVL20
 2718 0127 78000000 		.4byte	.LVL21
 2719 012b 0100     		.2byte	0x1
 2720 012d 50       		.byte	0x50
 2721 012e 78000000 		.4byte	.LVL21
 2722 0132 AE000000 		.4byte	.LVL28
 2723 0136 0100     		.2byte	0x1
 2724 0138 55       		.byte	0x55
 2725 0139 BE000000 		.4byte	.LVL33
 2726 013d C1000000 		.4byte	.LVL34-1
ARM GAS  /tmp/ccWW49QZ.s 			page 49


 2727 0141 0100     		.2byte	0x1
 2728 0143 50       		.byte	0x50
 2729 0144 00000000 		.4byte	0
 2730 0148 00000000 		.4byte	0
 2731              		.section	.debug_aranges,"",%progbits
 2732 0000 24000000 		.4byte	0x24
 2733 0004 0200     		.2byte	0x2
 2734 0006 00000000 		.4byte	.Ldebug_info0
 2735 000a 04       		.byte	0x4
 2736 000b 00       		.byte	0
 2737 000c 0000     		.2byte	0
 2738 000e 0000     		.2byte	0
 2739 0010 00000000 		.4byte	.LFB8
 2740 0014 48020000 		.4byte	.LFE8-.LFB8
 2741 0018 00000000 		.4byte	.LFB7
 2742 001c 18000000 		.4byte	.LFE7-.LFB7
 2743 0020 00000000 		.4byte	0
 2744 0024 00000000 		.4byte	0
 2745              		.section	.debug_ranges,"",%progbits
 2746              	.Ldebug_ranges0:
 2747 0000 00000000 		.4byte	.LFB8
 2748 0004 48020000 		.4byte	.LFE8
 2749 0008 00000000 		.4byte	.LFB7
 2750 000c 18000000 		.4byte	.LFE7
 2751 0010 00000000 		.4byte	0
 2752 0014 00000000 		.4byte	0
 2753              		.section	.debug_line,"",%progbits
 2754              	.Ldebug_line0:
 2755 0000 D1010000 		.section	.debug_str,"MS",%progbits,1
 2755      02005A01 
 2755      00000201 
 2755      FB0E0D00 
 2755      01010101 
 2756              	.LASF43:
 2757 0000 705F6D73 		.ascii	"p_msg\000"
 2757      6700
 2758              	.LASF2:
 2759 0006 73697A65 		.ascii	"size_t\000"
 2759      5F7400
 2760              	.LASF69:
 2761 000d 7264796D 		.ascii	"rdymsg\000"
 2761      736700
 2762              	.LASF17:
 2763 0014 75696E74 		.ascii	"uint64_t\000"
 2763      36345F74 
 2763      00
 2764              	.LASF3:
 2765 001d 5F5F7569 		.ascii	"__uint8_t\000"
 2765      6E74385F 
 2765      7400
 2766              	.LASF59:
 2767 0027 6D656D67 		.ascii	"memgetfunc_t\000"
 2767      65746675 
 2767      6E635F74 
 2767      00
 2768              	.LASF13:
 2769 0034 6C6F6E67 		.ascii	"long long unsigned int\000"
ARM GAS  /tmp/ccWW49QZ.s 			page 50


 2769      206C6F6E 
 2769      6720756E 
 2769      7369676E 
 2769      65642069 
 2770              	.LASF70:
 2771 004b 65786974 		.ascii	"exitcode\000"
 2771      636F6465 
 2771      00
 2772              	.LASF63:
 2773 0054 685F6672 		.ascii	"h_free\000"
 2773      656500
 2774              	.LASF85:
 2775 005b 74657374 		.ascii	"test\000"
 2775      00
 2776              	.LASF96:
 2777 0060 63684865 		.ascii	"chHeapInit\000"
 2777      6170496E 
 2777      697400
 2778              	.LASF65:
 2779 006b 6E657874 		.ascii	"next\000"
 2779      00
 2780              	.LASF31:
 2781 0070 705F7072 		.ascii	"p_prio\000"
 2781      696F00
 2782              	.LASF87:
 2783 0077 70617474 		.ascii	"patternheap\000"
 2783      65726E68 
 2783      65617000 
 2784              	.LASF11:
 2785 0083 6C6F6E67 		.ascii	"long long int\000"
 2785      206C6F6E 
 2785      6720696E 
 2785      7400
 2786              	.LASF1:
 2787 0091 7369676E 		.ascii	"signed char\000"
 2787      65642063 
 2787      68617200 
 2788              	.LASF64:
 2789 009d 685F6D74 		.ascii	"h_mtx\000"
 2789      7800
 2790              	.LASF47:
 2791 00a3 705F6D70 		.ascii	"p_mpool\000"
 2791      6F6F6C00 
 2792              	.LASF18:
 2793 00ab 626F6F6C 		.ascii	"bool_t\000"
 2793      5F7400
 2794              	.LASF56:
 2795 00b2 6D5F7175 		.ascii	"m_queue\000"
 2795      65756500 
 2796              	.LASF95:
 2797 00ba 63684865 		.ascii	"chHeapFree\000"
 2797      61704672 
 2797      656500
 2798              	.LASF83:
 2799 00c5 68656170 		.ascii	"heap1_setup\000"
 2799      315F7365 
 2799      74757000 
ARM GAS  /tmp/ccWW49QZ.s 			page 51


 2800              	.LASF23:
 2801 00d1 74736C69 		.ascii	"tslices_t\000"
 2801      6365735F 
 2801      7400
 2802              	.LASF8:
 2803 00db 6C6F6E67 		.ascii	"long int\000"
 2803      20696E74 
 2803      00
 2804              	.LASF21:
 2805 00e4 74737461 		.ascii	"tstate_t\000"
 2805      74655F74 
 2805      00
 2806              	.LASF81:
 2807 00ed 62756666 		.ascii	"buffer\000"
 2807      657200
 2808              	.LASF33:
 2809 00f4 705F6E65 		.ascii	"p_newer\000"
 2809      77657200 
 2810              	.LASF91:
 2811 00fc 474E5520 		.ascii	"GNU C 4.8.2 -mcpu=cortex-m0 -mno-thumb-interwork -m"
 2811      4320342E 
 2811      382E3220 
 2811      2D6D6370 
 2811      753D636F 
 2812 012f 7468756D 		.ascii	"thumb -ggdb -O2 -fomit-frame-pointer -falign-functi"
 2812      62202D67 
 2812      67646220 
 2812      2D4F3220 
 2812      2D666F6D 
 2813 0162 6F6E733D 		.ascii	"ons=16 -ffunction-sections -fdata-sections -fno-com"
 2813      3136202D 
 2813      6666756E 
 2813      6374696F 
 2813      6E2D7365 
 2814 0195 6D6F6E00 		.ascii	"mon\000"
 2815              	.LASF9:
 2816 0199 5F5F7569 		.ascii	"__uint32_t\000"
 2816      6E743332 
 2816      5F7400
 2817              	.LASF50:
 2818 01a4 72656761 		.ascii	"regarm_t\000"
 2818      726D5F74 
 2818      00
 2819              	.LASF82:
 2820 01ad 68656170 		.ascii	"heap1_execute\000"
 2820      315F6578 
 2820      65637574 
 2820      6500
 2821              	.LASF67:
 2822 01bb 616C6967 		.ascii	"align\000"
 2822      6E00
 2823              	.LASF0:
 2824 01c1 756E7369 		.ascii	"unsigned int\000"
 2824      676E6564 
 2824      20696E74 
 2824      00
 2825              	.LASF10:
ARM GAS  /tmp/ccWW49QZ.s 			page 52


 2826 01ce 6C6F6E67 		.ascii	"long unsigned int\000"
 2826      20756E73 
 2826      69676E65 
 2826      6420696E 
 2826      7400
 2827              	.LASF77:
 2828 01e0 74656172 		.ascii	"teardown\000"
 2828      646F776E 
 2828      00
 2829              	.LASF75:
 2830 01e9 6E616D65 		.ascii	"name\000"
 2830      00
 2831              	.LASF53:
 2832 01ee 636F6E74 		.ascii	"context\000"
 2832      65787400 
 2833              	.LASF68:
 2834 01f6 73697A65 		.ascii	"size\000"
 2834      00
 2835              	.LASF6:
 2836 01fb 73686F72 		.ascii	"short unsigned int\000"
 2836      7420756E 
 2836      7369676E 
 2836      65642069 
 2836      6E7400
 2837              	.LASF25:
 2838 020e 6D73675F 		.ascii	"msg_t\000"
 2838      7400
 2839              	.LASF20:
 2840 0214 746D6F64 		.ascii	"tmode_t\000"
 2840      655F7400 
 2841              	.LASF49:
 2842 021c 54687265 		.ascii	"ThreadsList\000"
 2842      6164734C 
 2842      69737400 
 2843              	.LASF26:
 2844 0228 6576656E 		.ascii	"eventmask_t\000"
 2844      746D6173 
 2844      6B5F7400 
 2845              	.LASF55:
 2846 0234 4D757465 		.ascii	"Mutex\000"
 2846      7800
 2847              	.LASF51:
 2848 023a 73746B61 		.ascii	"stkalign_t\000"
 2848      6C69676E 
 2848      5F7400
 2849              	.LASF86:
 2850 0245 74657374 		.ascii	"testheap1\000"
 2850      68656170 
 2850      3100
 2851              	.LASF54:
 2852 024f 73697A65 		.ascii	"sizetype\000"
 2852      74797065 
 2852      00
 2853              	.LASF94:
 2854 0258 6368436F 		.ascii	"chCoreStatus\000"
 2854      72655374 
 2854      61747573 
ARM GAS  /tmp/ccWW49QZ.s 			page 53


 2854      00
 2855              	.LASF34:
 2856 0265 705F6F6C 		.ascii	"p_older\000"
 2856      64657200 
 2857              	.LASF48:
 2858 026d 54687265 		.ascii	"ThreadsQueue\000"
 2858      61647351 
 2858      75657565 
 2858      00
 2859              	.LASF76:
 2860 027a 73657475 		.ascii	"setup\000"
 2860      7000
 2861              	.LASF93:
 2862 0280 2F686F6D 		.ascii	"/home/ece497/vbox-shared/mplayer/ChibiOS-RT-stable_"
 2862      652F6563 
 2862      65343937 
 2862      2F76626F 
 2862      782D7368 
 2863 02b3 322E362E 		.ascii	"2.6.x/demos/ARMCM0-STM32F051-DISCOVERY\000"
 2863      782F6465 
 2863      6D6F732F 
 2863      41524D43 
 2863      4D302D53 
 2864              	.LASF60:
 2865 02da 4D656D6F 		.ascii	"MemoryHeap\000"
 2865      72794865 
 2865      617000
 2866              	.LASF12:
 2867 02e5 5F5F7569 		.ascii	"__uint64_t\000"
 2867      6E743634 
 2867      5F7400
 2868              	.LASF22:
 2869 02f0 74726566 		.ascii	"trefs_t\000"
 2869      735F7400 
 2870              	.LASF30:
 2871 02f8 705F7072 		.ascii	"p_prev\000"
 2871      657600
 2872              	.LASF78:
 2873 02ff 65786563 		.ascii	"execute\000"
 2873      75746500 
 2874              	.LASF24:
 2875 0307 74707269 		.ascii	"tprio_t\000"
 2875      6F5F7400 
 2876              	.LASF92:
 2877 030f 2E2E2F2E 		.ascii	"../../test/testheap.c\000"
 2877      2E2F7465 
 2877      73742F74 
 2877      65737468 
 2877      6561702E 
 2878              	.LASF19:
 2879 0325 5F426F6F 		.ascii	"_Bool\000"
 2879      6C00
 2880              	.LASF15:
 2881 032b 696E7433 		.ascii	"int32_t\000"
 2881      325F7400 
 2882              	.LASF4:
 2883 0333 756E7369 		.ascii	"unsigned char\000"
ARM GAS  /tmp/ccWW49QZ.s 			page 54


 2883      676E6564 
 2883      20636861 
 2883      7200
 2884              	.LASF62:
 2885 0341 685F7072 		.ascii	"h_provider\000"
 2885      6F766964 
 2885      657200
 2886              	.LASF45:
 2887 034c 705F6D74 		.ascii	"p_mtxlist\000"
 2887      786C6973 
 2887      7400
 2888              	.LASF5:
 2889 0356 73686F72 		.ascii	"short int\000"
 2889      7420696E 
 2889      7400
 2890              	.LASF36:
 2891 0360 705F7374 		.ascii	"p_state\000"
 2891      61746500 
 2892              	.LASF39:
 2893 0368 705F7072 		.ascii	"p_preempt\000"
 2893      65656D70 
 2893      7400
 2894              	.LASF79:
 2895 0372 68656170 		.ascii	"heap_header\000"
 2895      5F686561 
 2895      64657200 
 2896              	.LASF72:
 2897 037e 65776D61 		.ascii	"ewmask\000"
 2897      736B00
 2898              	.LASF29:
 2899 0385 705F6E65 		.ascii	"p_next\000"
 2899      787400
 2900              	.LASF37:
 2901 038c 705F666C 		.ascii	"p_flags\000"
 2901      61677300 
 2902              	.LASF28:
 2903 0394 54687265 		.ascii	"Thread\000"
 2903      616400
 2904              	.LASF89:
 2905 039b 63684865 		.ascii	"chHeapAlloc\000"
 2905      6170416C 
 2905      6C6F6300 
 2906              	.LASF74:
 2907 03a7 74657374 		.ascii	"testcase\000"
 2907      63617365 
 2907      00
 2908              	.LASF44:
 2909 03b0 705F6570 		.ascii	"p_epending\000"
 2909      656E6469 
 2909      6E6700
 2910              	.LASF16:
 2911 03bb 75696E74 		.ascii	"uint32_t\000"
 2911      33325F74 
 2911      00
 2912              	.LASF66:
 2913 03c4 68656170 		.ascii	"heap\000"
 2913      00
ARM GAS  /tmp/ccWW49QZ.s 			page 55


 2914              	.LASF73:
 2915 03c9 63686172 		.ascii	"char\000"
 2915      00
 2916              	.LASF88:
 2917 03ce 63684865 		.ascii	"chHeapStatus\000"
 2917      61705374 
 2917      61747573 
 2917      00
 2918              	.LASF58:
 2919 03db 6D5F6E65 		.ascii	"m_next\000"
 2919      787400
 2920              	.LASF27:
 2921 03e2 73797374 		.ascii	"systime_t\000"
 2921      696D655F 
 2921      7400
 2922              	.LASF46:
 2923 03ec 705F7265 		.ascii	"p_realprio\000"
 2923      616C7072 
 2923      696F00
 2924              	.LASF7:
 2925 03f7 5F5F696E 		.ascii	"__int32_t\000"
 2925      7433325F 
 2925      7400
 2926              	.LASF40:
 2927 0401 705F7469 		.ascii	"p_time\000"
 2927      6D6500
 2928              	.LASF52:
 2929 0408 696E7463 		.ascii	"intctx\000"
 2929      747800
 2930              	.LASF42:
 2931 040f 705F6D73 		.ascii	"p_msgqueue\000"
 2931      67717565 
 2931      756500
 2932              	.LASF80:
 2933 041a 74657374 		.ascii	"test_buffers\000"
 2933      5F627566 
 2933      66657273 
 2933      00
 2934              	.LASF38:
 2935 0427 705F7265 		.ascii	"p_refs\000"
 2935      667300
 2936              	.LASF14:
 2937 042e 75696E74 		.ascii	"uint8_t\000"
 2937      385F7400 
 2938              	.LASF84:
 2939 0436 74657374 		.ascii	"test_heap\000"
 2939      5F686561 
 2939      7000
 2940              	.LASF71:
 2941 0440 77746F62 		.ascii	"wtobjp\000"
 2941      6A7000
 2942              	.LASF35:
 2943 0447 705F6E61 		.ascii	"p_name\000"
 2943      6D6500
 2944              	.LASF90:
 2945 044e 5F746573 		.ascii	"_test_assert\000"
 2945      745F6173 
ARM GAS  /tmp/ccWW49QZ.s 			page 56


 2945      73657274 
 2945      00
 2946              	.LASF57:
 2947 045b 6D5F6F77 		.ascii	"m_owner\000"
 2947      6E657200 
 2948              	.LASF32:
 2949 0463 705F6374 		.ascii	"p_ctx\000"
 2949      7800
 2950              	.LASF41:
 2951 0469 705F7761 		.ascii	"p_waiting\000"
 2951      6974696E 
 2951      6700
 2952              	.LASF61:
 2953 0473 6D656D6F 		.ascii	"memory_heap\000"
 2953      72795F68 
 2953      65617000 
 2954              		.ident	"GCC: (Arch Repository) 4.8.2"
ARM GAS  /tmp/ccWW49QZ.s 			page 57


DEFINED SYMBOLS
                            *ABS*:0000000000000000 testheap.c
     /tmp/ccWW49QZ.s:18     .text.heap1_execute:0000000000000000 $t
     /tmp/ccWW49QZ.s:23     .text.heap1_execute:0000000000000000 heap1_execute
     /tmp/ccWW49QZ.s:430    .text.heap1_execute:0000000000000240 $d
     /tmp/ccWW49QZ.s:436    .text.heap1_setup:0000000000000000 $t
     /tmp/ccWW49QZ.s:441    .text.heap1_setup:0000000000000000 heap1_setup
     /tmp/ccWW49QZ.s:462    .text.heap1_setup:0000000000000010 $d
     /tmp/ccWW49QZ.s:473    .rodata.patternheap:0000000000000000 patternheap
     /tmp/ccWW49QZ.s:484    .rodata.testheap1:0000000000000000 testheap1
     /tmp/ccWW49QZ.s:470    .rodata.patternheap:0000000000000000 $d
     /tmp/ccWW49QZ.s:477    .rodata.str1.4:0000000000000000 $d
     /tmp/ccWW49QZ.s:481    .rodata.testheap1:0000000000000000 $d
     /tmp/ccWW49QZ.s:490    .bss.test_heap:0000000000000000 $d
     /tmp/ccWW49QZ.s:494    .bss.test_heap:0000000000000000 test_heap
                     .debug_frame:0000000000000010 $d
     /tmp/ccWW49QZ.s:435    .text.heap1_execute:0000000000000248 $t
     /tmp/ccWW49QZ.s:469    .text.heap1_setup:0000000000000018 $t

UNDEFINED SYMBOLS
chCoreStatus
chHeapStatus
chHeapAlloc
_test_assert
chHeapFree
chHeapInit
test
