ARM GAS  /tmp/ccWW49QZ.s 			page 1


   1              		.cpu cortex-m0
   2              		.fpu softvfp
   3              		.eabi_attribute 20, 1
   4              		.eabi_attribute 21, 1
   5              		.eabi_attribute 23, 3
   6              		.eabi_attribute 24, 1
   7              		.eabi_attribute 25, 1
   8              		.eabi_attribute 26, 1
   9              		.eabi_attribute 30, 2
  10              		.eabi_attribute 34, 0
  11              		.eabi_attribute 18, 4
  12              		.code	16
  13              		.file	"testheap.c"
  14              		.text
  15              	.Ltext0:
  16              		.cfi_sections	.debug_frame
  17              		.section	.text.heap1_execute,"ax",%progbits
  18              		.align	2
  19              		.p2align 4,,15
  20              		.code	16
  21              		.thumb_func
  22              		.type	heap1_execute, %function
  23              	heap1_execute:
  24              	.LFB8:
  25              		.file 1 "../../test/testheap.c"
  26              		.loc 1 69 0
  27              		.cfi_startproc
  28 0000 F0B5     		push	{r4, r5, r6, r7, lr}
  29              		.cfi_def_cfa_offset 20
  30              		.cfi_offset 4, -20
  31              		.cfi_offset 5, -16
  32              		.cfi_offset 6, -12
  33              		.cfi_offset 7, -8
  34              		.cfi_offset 14, -4
  35 0002 83B0     		sub	sp, sp, #12
  36              		.cfi_def_cfa_offset 32
  37              		.loc 1 74 0
  38 0004 FFF7FEFF 		bl	chCoreStatus
  39              	.LVL0:
  40              		.loc 1 80 0
  41 0008 01A9     		add	r1, sp, #4
  42 000a 0020     		mov	r0, #0
  43 000c FFF7FEFF 		bl	chHeapStatus
  44              	.LVL1:
  45              		.loc 1 81 0
  46 0010 1021     		mov	r1, #16
  47 0012 0020     		mov	r0, #0
  48 0014 FFF7FEFF 		bl	chHeapAlloc
  49              	.LVL2:
  50              		.loc 1 82 0
  51 0018 011C     		mov	r1, r0
  52 001a 4B1E     		sub	r3, r1, #1
  53 001c 9941     		sbc	r1, r1, r3
  54              		.loc 1 81 0
  55 001e 041C     		mov	r4, r0
  56              	.LVL3:
  57              		.loc 1 82 0
ARM GAS  /tmp/ccWW49QZ.s 			page 2


  58 0020 C9B2     		uxtb	r1, r1
  59 0022 0120     		mov	r0, #1
  60              	.LVL4:
  61 0024 FFF7FEFF 		bl	_test_assert
  62              	.LVL5:
  63 0028 0028     		cmp	r0, #0
  64 002a 01D0     		beq	.L8
  65              	.LVL6:
  66              	.L1:
  67              		.loc 1 140 0
  68 002c 03B0     		add	sp, sp, #12
  69              		@ sp needed
  70 002e F0BD     		pop	{r4, r5, r6, r7, pc}
  71              	.LVL7:
  72              	.L8:
  73              		.loc 1 83 0
  74 0030 201C     		mov	r0, r4
  75 0032 FFF7FEFF 		bl	chHeapFree
  76              	.LVL8:
  77              		.loc 1 84 0
  78 0036 8249     		ldr	r1, .L9
  79 0038 0020     		mov	r0, #0
  80 003a FFF7FEFF 		bl	chHeapAlloc
  81              	.LVL9:
  82              		.loc 1 85 0
  83 003e 4142     		neg	r1, r0
  84 0040 4141     		adc	r1, r1, r0
  85              	.LVL10:
  86 0042 C9B2     		uxtb	r1, r1
  87 0044 0220     		mov	r0, #2
  88 0046 FFF7FEFF 		bl	_test_assert
  89              	.LVL11:
  90 004a 0028     		cmp	r0, #0
  91 004c EED1     		bne	.L1
  92              		.loc 1 88 0
  93 004e 7D4C     		ldr	r4, .L9+4
  94 0050 01A9     		add	r1, sp, #4
  95 0052 201C     		mov	r0, r4
  96 0054 FFF7FEFF 		bl	chHeapStatus
  97              	.LVL12:
  98              		.loc 1 91 0
  99 0058 1021     		mov	r1, #16
 100 005a 201C     		mov	r0, r4
 101 005c FFF7FEFF 		bl	chHeapAlloc
 102              	.LVL13:
 103              		.loc 1 92 0
 104 0060 1021     		mov	r1, #16
 105              		.loc 1 91 0
 106 0062 071C     		mov	r7, r0
 107              	.LVL14:
 108              		.loc 1 92 0
 109 0064 201C     		mov	r0, r4
 110              	.LVL15:
 111 0066 FFF7FEFF 		bl	chHeapAlloc
 112              	.LVL16:
 113              		.loc 1 93 0
 114 006a 1021     		mov	r1, #16
ARM GAS  /tmp/ccWW49QZ.s 			page 3


 115              		.loc 1 92 0
 116 006c 061C     		mov	r6, r0
 117              	.LVL17:
 118              		.loc 1 93 0
 119 006e 201C     		mov	r0, r4
 120              	.LVL18:
 121 0070 FFF7FEFF 		bl	chHeapAlloc
 122              	.LVL19:
 123 0074 051C     		mov	r5, r0
 124              	.LVL20:
 125              		.loc 1 94 0
 126 0076 381C     		mov	r0, r7
 127              	.LVL21:
 128 0078 FFF7FEFF 		bl	chHeapFree
 129              	.LVL22:
 130              		.loc 1 95 0
 131 007c 301C     		mov	r0, r6
 132 007e FFF7FEFF 		bl	chHeapFree
 133              	.LVL23:
 134              		.loc 1 96 0
 135 0082 281C     		mov	r0, r5
 136 0084 FFF7FEFF 		bl	chHeapFree
 137              	.LVL24:
 138              		.loc 1 97 0
 139 0088 6946     		mov	r1, sp
 140 008a 201C     		mov	r0, r4
 141 008c FFF7FEFF 		bl	chHeapStatus
 142              	.LVL25:
 143 0090 411E     		sub	r1, r0, #1
 144 0092 4B42     		neg	r3, r1
 145 0094 5941     		adc	r1, r1, r3
 146 0096 C9B2     		uxtb	r1, r1
 147 0098 0320     		mov	r0, #3
 148 009a FFF7FEFF 		bl	_test_assert
 149              	.LVL26:
 150 009e 0028     		cmp	r0, #0
 151 00a0 C4D1     		bne	.L1
 152              		.loc 1 100 0
 153 00a2 1021     		mov	r1, #16
 154 00a4 201C     		mov	r0, r4
 155 00a6 FFF7FEFF 		bl	chHeapAlloc
 156              	.LVL27:
 157              		.loc 1 101 0
 158 00aa 1021     		mov	r1, #16
 159              		.loc 1 100 0
 160 00ac 051C     		mov	r5, r0
 161              	.LVL28:
 162              		.loc 1 101 0
 163 00ae 201C     		mov	r0, r4
 164              	.LVL29:
 165 00b0 FFF7FEFF 		bl	chHeapAlloc
 166              	.LVL30:
 167              		.loc 1 102 0
 168 00b4 1021     		mov	r1, #16
 169              		.loc 1 101 0
 170 00b6 061C     		mov	r6, r0
 171              	.LVL31:
ARM GAS  /tmp/ccWW49QZ.s 			page 4


 172              		.loc 1 102 0
 173 00b8 201C     		mov	r0, r4
 174              	.LVL32:
 175 00ba FFF7FEFF 		bl	chHeapAlloc
 176              	.LVL33:
 177              		.loc 1 103 0
 178 00be FFF7FEFF 		bl	chHeapFree
 179              	.LVL34:
 180              		.loc 1 104 0
 181 00c2 301C     		mov	r0, r6
 182 00c4 FFF7FEFF 		bl	chHeapFree
 183              	.LVL35:
 184              		.loc 1 105 0
 185 00c8 281C     		mov	r0, r5
 186 00ca FFF7FEFF 		bl	chHeapFree
 187              	.LVL36:
 188              		.loc 1 106 0
 189 00ce 6946     		mov	r1, sp
 190 00d0 201C     		mov	r0, r4
 191 00d2 FFF7FEFF 		bl	chHeapStatus
 192              	.LVL37:
 193 00d6 411E     		sub	r1, r0, #1
 194 00d8 4B42     		neg	r3, r1
 195 00da 5941     		adc	r1, r1, r3
 196 00dc C9B2     		uxtb	r1, r1
 197 00de 0420     		mov	r0, #4
 198 00e0 FFF7FEFF 		bl	_test_assert
 199              	.LVL38:
 200 00e4 0028     		cmp	r0, #0
 201 00e6 A1D1     		bne	.L1
 202              		.loc 1 109 0
 203 00e8 1121     		mov	r1, #17
 204 00ea 201C     		mov	r0, r4
 205 00ec FFF7FEFF 		bl	chHeapAlloc
 206              	.LVL39:
 207              		.loc 1 110 0
 208 00f0 1021     		mov	r1, #16
 209              		.loc 1 109 0
 210 00f2 051C     		mov	r5, r0
 211              	.LVL40:
 212              		.loc 1 110 0
 213 00f4 201C     		mov	r0, r4
 214              	.LVL41:
 215 00f6 FFF7FEFF 		bl	chHeapAlloc
 216              	.LVL42:
 217 00fa 061C     		mov	r6, r0
 218              	.LVL43:
 219              		.loc 1 111 0
 220 00fc 281C     		mov	r0, r5
 221              	.LVL44:
 222 00fe FFF7FEFF 		bl	chHeapFree
 223              	.LVL45:
 224              		.loc 1 112 0
 225 0102 6946     		mov	r1, sp
 226 0104 201C     		mov	r0, r4
 227 0106 FFF7FEFF 		bl	chHeapStatus
 228              	.LVL46:
ARM GAS  /tmp/ccWW49QZ.s 			page 5


 229 010a 811E     		sub	r1, r0, #2
 230 010c 4B42     		neg	r3, r1
 231 010e 5941     		adc	r1, r1, r3
 232 0110 C9B2     		uxtb	r1, r1
 233 0112 0520     		mov	r0, #5
 234 0114 FFF7FEFF 		bl	_test_assert
 235              	.LVL47:
 236 0118 0028     		cmp	r0, #0
 237 011a 00D0     		beq	.LCB186
 238 011c 86E7     		b	.L1	@long jump
 239              	.LCB186:
 240              		.loc 1 113 0
 241 011e 1021     		mov	r1, #16
 242 0120 201C     		mov	r0, r4
 243 0122 FFF7FEFF 		bl	chHeapAlloc
 244              	.LVL48:
 245              		.loc 1 116 0
 246 0126 6946     		mov	r1, sp
 247              		.loc 1 113 0
 248 0128 051C     		mov	r5, r0
 249              	.LVL49:
 250              		.loc 1 116 0
 251 012a 201C     		mov	r0, r4
 252              	.LVL50:
 253 012c FFF7FEFF 		bl	chHeapStatus
 254              	.LVL51:
 255 0130 0121     		mov	r1, #1
 256 0132 0128     		cmp	r0, #1
 257 0134 07D0     		beq	.L3
 258              		.loc 1 116 0 is_stmt 0 discriminator 2
 259 0136 6946     		mov	r1, sp
 260 0138 201C     		mov	r0, r4
 261 013a FFF7FEFF 		bl	chHeapStatus
 262              	.LVL52:
 263 013e 811E     		sub	r1, r0, #2
 264 0140 4B42     		neg	r3, r1
 265 0142 5941     		adc	r1, r1, r3
 266 0144 C9B2     		uxtb	r1, r1
 267              	.L3:
 268              		.loc 1 116 0 discriminator 4
 269 0146 0620     		mov	r0, #6
 270 0148 FFF7FEFF 		bl	_test_assert
 271              	.LVL53:
 272 014c 0028     		cmp	r0, #0
 273 014e 00D0     		beq	.LCB215
 274 0150 6CE7     		b	.L1	@long jump
 275              	.LCB215:
 276              		.loc 1 118 0 is_stmt 1
 277 0152 301C     		mov	r0, r6
 278 0154 FFF7FEFF 		bl	chHeapFree
 279              	.LVL54:
 280              		.loc 1 119 0
 281 0158 281C     		mov	r0, r5
 282 015a FFF7FEFF 		bl	chHeapFree
 283              	.LVL55:
 284              		.loc 1 120 0
 285 015e 6946     		mov	r1, sp
ARM GAS  /tmp/ccWW49QZ.s 			page 6


 286 0160 201C     		mov	r0, r4
 287 0162 FFF7FEFF 		bl	chHeapStatus
 288              	.LVL56:
 289 0166 411E     		sub	r1, r0, #1
 290 0168 4B42     		neg	r3, r1
 291 016a 5941     		adc	r1, r1, r3
 292 016c C9B2     		uxtb	r1, r1
 293 016e 0720     		mov	r0, #7
 294 0170 FFF7FEFF 		bl	_test_assert
 295              	.LVL57:
 296 0174 0028     		cmp	r0, #0
 297 0176 00D0     		beq	.LCB233
 298 0178 58E7     		b	.L1	@long jump
 299              	.LCB233:
 300              		.loc 1 123 0
 301 017a 1021     		mov	r1, #16
 302 017c 201C     		mov	r0, r4
 303 017e FFF7FEFF 		bl	chHeapAlloc
 304              	.LVL58:
 305              		.loc 1 124 0
 306 0182 1021     		mov	r1, #16
 307              		.loc 1 123 0
 308 0184 061C     		mov	r6, r0
 309              	.LVL59:
 310              		.loc 1 124 0
 311 0186 201C     		mov	r0, r4
 312              	.LVL60:
 313 0188 FFF7FEFF 		bl	chHeapAlloc
 314              	.LVL61:
 315 018c 051C     		mov	r5, r0
 316              	.LVL62:
 317              		.loc 1 125 0
 318 018e 301C     		mov	r0, r6
 319              	.LVL63:
 320 0190 FFF7FEFF 		bl	chHeapFree
 321              	.LVL64:
 322              		.loc 1 126 0
 323 0194 6946     		mov	r1, sp
 324 0196 201C     		mov	r0, r4
 325 0198 FFF7FEFF 		bl	chHeapStatus
 326              	.LVL65:
 327 019c 811E     		sub	r1, r0, #2
 328 019e 4B42     		neg	r3, r1
 329 01a0 5941     		adc	r1, r1, r3
 330 01a2 C9B2     		uxtb	r1, r1
 331 01a4 0820     		mov	r0, #8
 332 01a6 FFF7FEFF 		bl	_test_assert
 333              	.LVL66:
 334 01aa 0028     		cmp	r0, #0
 335 01ac 00D0     		beq	.LCB263
 336 01ae 3DE7     		b	.L1	@long jump
 337              	.LCB263:
 338              		.loc 1 127 0
 339 01b0 2021     		mov	r1, #32
 340 01b2 201C     		mov	r0, r4
 341 01b4 FFF7FEFF 		bl	chHeapAlloc
 342              	.LVL67:
ARM GAS  /tmp/ccWW49QZ.s 			page 7


 343              		.loc 1 128 0
 344 01b8 FFF7FEFF 		bl	chHeapFree
 345              	.LVL68:
 346              		.loc 1 129 0
 347 01bc 281C     		mov	r0, r5
 348 01be FFF7FEFF 		bl	chHeapFree
 349              	.LVL69:
 350              		.loc 1 130 0
 351 01c2 6946     		mov	r1, sp
 352 01c4 201C     		mov	r0, r4
 353 01c6 FFF7FEFF 		bl	chHeapStatus
 354              	.LVL70:
 355 01ca 411E     		sub	r1, r0, #1
 356 01cc 4B42     		neg	r3, r1
 357 01ce 5941     		adc	r1, r1, r3
 358 01d0 C9B2     		uxtb	r1, r1
 359 01d2 0920     		mov	r0, #9
 360 01d4 FFF7FEFF 		bl	_test_assert
 361              	.LVL71:
 362 01d8 0028     		cmp	r0, #0
 363 01da 00D0     		beq	.LCB286
 364 01dc 26E7     		b	.L1	@long jump
 365              	.LCB286:
 366              		.loc 1 133 0
 367 01de 6946     		mov	r1, sp
 368 01e0 201C     		mov	r0, r4
 369 01e2 FFF7FEFF 		bl	chHeapStatus
 370              	.LVL72:
 371              		.loc 1 134 0
 372 01e6 0099     		ldr	r1, [sp]
 373 01e8 201C     		mov	r0, r4
 374 01ea FFF7FEFF 		bl	chHeapAlloc
 375              	.LVL73:
 376              		.loc 1 135 0
 377 01ee 6946     		mov	r1, sp
 378              		.loc 1 134 0
 379 01f0 051C     		mov	r5, r0
 380              	.LVL74:
 381              		.loc 1 135 0
 382 01f2 201C     		mov	r0, r4
 383              	.LVL75:
 384 01f4 FFF7FEFF 		bl	chHeapStatus
 385              	.LVL76:
 386 01f8 4142     		neg	r1, r0
 387 01fa 4141     		adc	r1, r1, r0
 388 01fc C9B2     		uxtb	r1, r1
 389 01fe 0A20     		mov	r0, #10
 390 0200 FFF7FEFF 		bl	_test_assert
 391              	.LVL77:
 392 0204 0028     		cmp	r0, #0
 393 0206 00D0     		beq	.LCB309
 394 0208 10E7     		b	.L1	@long jump
 395              	.LCB309:
 396              		.loc 1 136 0
 397 020a 281C     		mov	r0, r5
 398 020c FFF7FEFF 		bl	chHeapFree
 399              	.LVL78:
ARM GAS  /tmp/ccWW49QZ.s 			page 8


 400              		.loc 1 138 0
 401 0210 6946     		mov	r1, sp
 402 0212 201C     		mov	r0, r4
 403 0214 FFF7FEFF 		bl	chHeapStatus
 404              	.LVL79:
 405 0218 411E     		sub	r1, r0, #1
 406 021a 4B42     		neg	r3, r1
 407 021c 5941     		adc	r1, r1, r3
 408 021e C9B2     		uxtb	r1, r1
 409 0220 0B20     		mov	r0, #11
 410 0222 FFF7FEFF 		bl	_test_assert
 411              	.LVL80:
 412 0226 0028     		cmp	r0, #0
 413 0228 00D0     		beq	.LCB324
 414 022a FFE6     		b	.L1	@long jump
 415              	.LCB324:
 416              		.loc 1 139 0
 417 022c 019B     		ldr	r3, [sp, #4]
 418 022e 009A     		ldr	r2, [sp]
 419 0230 0C20     		mov	r0, #12
 420 0232 D11A     		sub	r1, r2, r3
 421 0234 4B42     		neg	r3, r1
 422 0236 5941     		adc	r1, r1, r3
 423 0238 C9B2     		uxtb	r1, r1
 424 023a FFF7FEFF 		bl	_test_assert
 425              	.LVL81:
 426 023e F5E6     		b	.L1
 427              	.L10:
 428              		.align	2
 429              	.L9:
 430 0240 00FFFFFF 		.word	-256
 431 0244 00000000 		.word	.LANCHOR0
 432              		.cfi_endproc
 433              	.LFE8:
 434              		.size	heap1_execute, .-heap1_execute
 435 0248 C046C046 		.section	.text.heap1_setup,"ax",%progbits
 435      C046C046 
 436              		.align	2
 437              		.p2align 4,,15
 438              		.code	16
 439              		.thumb_func
 440              		.type	heap1_setup, %function
 441              	heap1_setup:
 442              	.LFB7:
 443              		.loc 1 64 0
 444              		.cfi_startproc
 445 0000 08B5     		push	{r3, lr}
 446              		.cfi_def_cfa_offset 8
 447              		.cfi_offset 3, -8
 448              		.cfi_offset 14, -4
 449              		.loc 1 66 0
 450 0002 BE22     		mov	r2, #190
 451 0004 0248     		ldr	r0, .L12
 452 0006 0349     		ldr	r1, .L12+4
 453 0008 D200     		lsl	r2, r2, #3
 454 000a FFF7FEFF 		bl	chHeapInit
 455              	.LVL82:
ARM GAS  /tmp/ccWW49QZ.s 			page 9


 456              		.loc 1 67 0
 457              		@ sp needed
 458 000e 08BD     		pop	{r3, pc}
 459              	.L13:
 460              		.align	2
 461              	.L12:
 462 0010 00000000 		.word	.LANCHOR0
 463 0014 00000000 		.word	test
 464              		.cfi_endproc
 465              	.LFE7:
 466              		.size	heap1_setup, .-heap1_setup
 467              		.global	patternheap
 468              		.global	testheap1
 469 0018 C046C046 		.section	.rodata.patternheap,"a",%progbits
 469      C046C046 
 470              		.align	2
 471              		.type	patternheap, %object
 472              		.size	patternheap, 8
 473              	patternheap:
 474 0000 00000000 		.word	testheap1
 475 0004 00000000 		.word	0
 476              		.section	.rodata.str1.4,"aMS",%progbits,1
 477              		.align	2
 478              	.LC3:
 479 0000 48656170 		.ascii	"Heap, allocation and fragmentation test\000"
 479      2C20616C 
 479      6C6F6361 
 479      74696F6E 
 479      20616E64 
 480              		.section	.rodata.testheap1,"a",%progbits
 481              		.align	2
 482              		.type	testheap1, %object
 483              		.size	testheap1, 16
 484              	testheap1:
 485 0000 00000000 		.word	.LC3
 486 0004 00000000 		.word	heap1_setup
 487 0008 00000000 		.word	0
 488 000c 00000000 		.word	heap1_execute
 489              		.section	.bss.test_heap,"aw",%nobits
 490              		.align	3
 491              		.set	.LANCHOR0,. + 0
 492              		.type	test_heap, %object
 493              		.size	test_heap, 32
 494              	test_heap:
 495 0000 00000000 		.space	32
 495      00000000 
 495      00000000 
 495      00000000 
 495      00000000 
 496              		.text
 497              	.Letext0:
 498              		.file 2 "/usr/lib/gcc/arm-none-eabi/4.8.2/include/stddef.h"
 499              		.file 3 "/usr/arm-none-eabi/include/machine/_default_types.h"
 500              		.file 4 "/usr/arm-none-eabi/include/stdint.h"
 501              		.file 5 "../../os/ports/GCC/ARMCMx/chtypes.h"
 502              		.file 6 "../../os/kernel/include/chlists.h"
 503              		.file 7 "../../os/kernel/include/chthreads.h"
ARM GAS  /tmp/ccWW49QZ.s 			page 10


 504              		.file 8 "../../os/ports/GCC/ARMCMx/chcore_v6m.h"
 505              		.file 9 "../../os/kernel/include/chmtx.h"
 506              		.file 10 "../../os/kernel/include/chmemcore.h"
 507              		.file 11 "../../os/kernel/include/chheap.h"
 508              		.file 12 "../../test/test.h"