ARM GAS  /tmp/ccv3kRpi.s 			page 1


   1              		.cpu cortex-m0
   2              		.fpu softvfp
   3              		.eabi_attribute 20, 1
   4              		.eabi_attribute 21, 1
   5              		.eabi_attribute 23, 3
   6              		.eabi_attribute 24, 1
   7              		.eabi_attribute 25, 1
   8              		.eabi_attribute 26, 1
   9              		.eabi_attribute 30, 2
  10              		.eabi_attribute 34, 0
  11              		.eabi_attribute 18, 4
  12              		.code	16
  13              		.file	"testthd.c"
  14              		.text
  15              	.Ltext0:
  16              		.cfi_sections	.debug_frame
  17              		.section	.text.thd1_execute,"ax",%progbits
  18              		.align	2
  19              		.p2align 4,,15
  20              		.code	16
  21              		.thumb_func
  22              		.type	thd1_execute, %function
  23              	thd1_execute:
  24              	.LFB8:
  25              		.file 1 "../../test/testthd.c"
  26              		.loc 1 66 0
  27              		.cfi_startproc
  28 0000 F0B5     		push	{r4, r5, r6, r7, lr}
  29              		.cfi_def_cfa_offset 20
  30              		.cfi_offset 4, -20
  31              		.cfi_offset 5, -16
  32              		.cfi_offset 6, -12
  33              		.cfi_offset 7, -8
  34              		.cfi_offset 14, -4
  35 0002 4746     		mov	r7, r8
  36 0004 80B4     		push	{r7}
  37              		.cfi_def_cfa_offset 24
  38              		.cfi_offset 8, -24
  39              		.loc 1 68 0
  40 0006 274F     		ldr	r7, .L2
  41 0008 274A     		ldr	r2, .L2+4
  42 000a BB69     		ldr	r3, [r7, #24]
  43 000c 9046     		mov	r8, r2
  44 000e 9A68     		ldr	r2, [r3, #8]
  45 0010 264B     		ldr	r3, .L2+8
  46              		.loc 1 66 0
  47 0012 82B0     		sub	sp, sp, #8
  48              		.cfi_def_cfa_offset 32
  49              		.loc 1 68 0
  50 0014 264D     		ldr	r5, .L2+12
  51 0016 9826     		mov	r6, #152
  52 0018 7600     		lsl	r6, r6, #1
  53 001a 0093     		str	r3, [sp]
  54 001c 4346     		mov	r3, r8
  55 001e 311C     		mov	r1, r6
  56 0020 053A     		sub	r2, r2, #5
  57 0022 1868     		ldr	r0, [r3]
ARM GAS  /tmp/ccv3kRpi.s 			page 2


  58 0024 2B1C     		mov	r3, r5
  59 0026 FFF7FEFF 		bl	chThdCreateStatic
  60              	.LVL0:
  61              		.loc 1 69 0
  62 002a BB69     		ldr	r3, [r7, #24]
  63              		.loc 1 68 0
  64 002c 214C     		ldr	r4, .L2+16
  65              		.loc 1 69 0
  66 002e 9A68     		ldr	r2, [r3, #8]
  67 0030 214B     		ldr	r3, .L2+20
  68              		.loc 1 68 0
  69 0032 2060     		str	r0, [r4]
  70              		.loc 1 69 0
  71 0034 0093     		str	r3, [sp]
  72 0036 4346     		mov	r3, r8
  73 0038 311C     		mov	r1, r6
  74 003a 043A     		sub	r2, r2, #4
  75 003c 5868     		ldr	r0, [r3, #4]
  76 003e 2B1C     		mov	r3, r5
  77 0040 FFF7FEFF 		bl	chThdCreateStatic
  78              	.LVL1:
  79              		.loc 1 70 0
  80 0044 BB69     		ldr	r3, [r7, #24]
  81              		.loc 1 69 0
  82 0046 6060     		str	r0, [r4, #4]
  83              		.loc 1 70 0
  84 0048 9A68     		ldr	r2, [r3, #8]
  85 004a 1C4B     		ldr	r3, .L2+24
  86 004c 311C     		mov	r1, r6
  87 004e 0093     		str	r3, [sp]
  88 0050 4346     		mov	r3, r8
  89 0052 033A     		sub	r2, r2, #3
  90 0054 9868     		ldr	r0, [r3, #8]
  91 0056 2B1C     		mov	r3, r5
  92 0058 FFF7FEFF 		bl	chThdCreateStatic
  93              	.LVL2:
  94              		.loc 1 71 0
  95 005c BB69     		ldr	r3, [r7, #24]
  96              		.loc 1 70 0
  97 005e A060     		str	r0, [r4, #8]
  98              		.loc 1 71 0
  99 0060 9A68     		ldr	r2, [r3, #8]
 100 0062 174B     		ldr	r3, .L2+28
 101 0064 311C     		mov	r1, r6
 102 0066 0093     		str	r3, [sp]
 103 0068 4346     		mov	r3, r8
 104 006a 023A     		sub	r2, r2, #2
 105 006c D868     		ldr	r0, [r3, #12]
 106 006e 2B1C     		mov	r3, r5
 107 0070 FFF7FEFF 		bl	chThdCreateStatic
 108              	.LVL3:
 109              		.loc 1 72 0
 110 0074 BB69     		ldr	r3, [r7, #24]
 111 0076 4246     		mov	r2, r8
 112              		.loc 1 71 0
 113 0078 E060     		str	r0, [r4, #12]
 114              		.loc 1 72 0
ARM GAS  /tmp/ccv3kRpi.s 			page 3


 115 007a 1069     		ldr	r0, [r2, #16]
 116 007c 9A68     		ldr	r2, [r3, #8]
 117 007e 114B     		ldr	r3, .L2+32
 118 0080 013A     		sub	r2, r2, #1
 119 0082 311C     		mov	r1, r6
 120 0084 0093     		str	r3, [sp]
 121 0086 2B1C     		mov	r3, r5
 122 0088 FFF7FEFF 		bl	chThdCreateStatic
 123              	.LVL4:
 124 008c 2061     		str	r0, [r4, #16]
 125              		.loc 1 73 0
 126 008e FFF7FEFF 		bl	test_wait_threads
 127              	.LVL5:
 128              		.loc 1 74 0
 129 0092 0D49     		ldr	r1, .L2+36
 130 0094 0120     		mov	r0, #1
 131 0096 FFF7FEFF 		bl	_test_assert_sequence
 132              	.LVL6:
 133              		.loc 1 75 0
 134 009a 02B0     		add	sp, sp, #8
 135              		@ sp needed
 136 009c 04BC     		pop	{r2}
 137 009e 9046     		mov	r8, r2
 138 00a0 F0BD     		pop	{r4, r5, r6, r7, pc}
 139              	.L3:
 140 00a2 C046     		.align	2
 141              	.L2:
 142 00a4 00000000 		.word	rlist
 143 00a8 00000000 		.word	wa
 144 00ac 00000000 		.word	.LC3
 145 00b0 00000000 		.word	thread
 146 00b4 00000000 		.word	threads
 147 00b8 04000000 		.word	.LC6
 148 00bc 08000000 		.word	.LC8
 149 00c0 0C000000 		.word	.LC10
 150 00c4 10000000 		.word	.LC12
 151 00c8 14000000 		.word	.LC14
 152              		.cfi_endproc
 153              	.LFE8:
 154              		.size	thd1_execute, .-thd1_execute
 155 00cc C046C046 		.section	.text.thread,"ax",%progbits
 156              		.align	2
 157              		.p2align 4,,15
 158              		.code	16
 159              		.thumb_func
 160              		.type	thread, %function
 161              	thread:
 162              	.LFB7:
 163              		.loc 1 60 0
 164              		.cfi_startproc
 165              	.LVL7:
 166 0000 08B5     		push	{r3, lr}
 167              		.cfi_def_cfa_offset 8
 168              		.cfi_offset 3, -8
 169              		.cfi_offset 14, -4
 170              		.loc 1 62 0
 171 0002 0078     		ldrb	r0, [r0]
ARM GAS  /tmp/ccv3kRpi.s 			page 4


 172              	.LVL8:
 173 0004 FFF7FEFF 		bl	test_emit_token
 174              	.LVL9:
 175              		.loc 1 64 0
 176              		@ sp needed
 177 0008 0020     		mov	r0, #0
 178 000a 08BD     		pop	{r3, pc}
 179              		.cfi_endproc
 180              	.LFE7:
 181              		.size	thread, .-thread
 182 000c C046C046 		.section	.text.thd2_execute,"ax",%progbits
 183              		.align	2
 184              		.p2align 4,,15
 185              		.code	16
 186              		.thumb_func
 187              		.type	thd2_execute, %function
 188              	thd2_execute:
 189              	.LFB9:
 190              		.loc 1 94 0
 191              		.cfi_startproc
 192 0000 F0B5     		push	{r4, r5, r6, r7, lr}
 193              		.cfi_def_cfa_offset 20
 194              		.cfi_offset 4, -20
 195              		.cfi_offset 5, -16
 196              		.cfi_offset 6, -12
 197              		.cfi_offset 7, -8
 198              		.cfi_offset 14, -4
 199 0002 4746     		mov	r7, r8
 200 0004 80B4     		push	{r7}
 201              		.cfi_def_cfa_offset 24
 202              		.cfi_offset 8, -24
 203              		.loc 1 96 0
 204 0006 2B4F     		ldr	r7, .L6
 205 0008 2B4A     		ldr	r2, .L6+4
 206 000a BB69     		ldr	r3, [r7, #24]
 207 000c 9046     		mov	r8, r2
 208 000e 9A68     		ldr	r2, [r3, #8]
 209 0010 2A4B     		ldr	r3, .L6+8
 210              		.loc 1 94 0
 211 0012 82B0     		sub	sp, sp, #8
 212              		.cfi_def_cfa_offset 32
 213              		.loc 1 96 0
 214 0014 2A4D     		ldr	r5, .L6+12
 215 0016 9826     		mov	r6, #152
 216 0018 7600     		lsl	r6, r6, #1
 217 001a 0093     		str	r3, [sp]
 218 001c 4346     		mov	r3, r8
 219 001e 311C     		mov	r1, r6
 220 0020 043A     		sub	r2, r2, #4
 221 0022 5868     		ldr	r0, [r3, #4]
 222 0024 2B1C     		mov	r3, r5
 223 0026 FFF7FEFF 		bl	chThdCreateStatic
 224              	.LVL10:
 225              		.loc 1 97 0
 226 002a BB69     		ldr	r3, [r7, #24]
 227              		.loc 1 96 0
 228 002c 254C     		ldr	r4, .L6+16
ARM GAS  /tmp/ccv3kRpi.s 			page 5


 229              		.loc 1 97 0
 230 002e 9A68     		ldr	r2, [r3, #8]
 231 0030 254B     		ldr	r3, .L6+20
 232              		.loc 1 96 0
 233 0032 6060     		str	r0, [r4, #4]
 234              		.loc 1 97 0
 235 0034 0093     		str	r3, [sp]
 236 0036 4346     		mov	r3, r8
 237 0038 311C     		mov	r1, r6
 238 003a 053A     		sub	r2, r2, #5
 239 003c 1868     		ldr	r0, [r3]
 240 003e 2B1C     		mov	r3, r5
 241 0040 FFF7FEFF 		bl	chThdCreateStatic
 242              	.LVL11:
 243              		.loc 1 98 0
 244 0044 BB69     		ldr	r3, [r7, #24]
 245              		.loc 1 97 0
 246 0046 2060     		str	r0, [r4]
 247              		.loc 1 98 0
 248 0048 9A68     		ldr	r2, [r3, #8]
 249 004a 204B     		ldr	r3, .L6+24
 250 004c 311C     		mov	r1, r6
 251 004e 0093     		str	r3, [sp]
 252 0050 4346     		mov	r3, r8
 253 0052 013A     		sub	r2, r2, #1
 254 0054 1869     		ldr	r0, [r3, #16]
 255 0056 2B1C     		mov	r3, r5
 256 0058 FFF7FEFF 		bl	chThdCreateStatic
 257              	.LVL12:
 258              		.loc 1 99 0
 259 005c BB69     		ldr	r3, [r7, #24]
 260 005e 4246     		mov	r2, r8
 261              		.loc 1 98 0
 262 0060 2061     		str	r0, [r4, #16]
 263              		.loc 1 99 0
 264 0062 D068     		ldr	r0, [r2, #12]
 265 0064 9A68     		ldr	r2, [r3, #8]
 266 0066 1A4B     		ldr	r3, .L6+28
 267 0068 023A     		sub	r2, r2, #2
 268 006a 0093     		str	r3, [sp]
 269 006c 311C     		mov	r1, r6
 270 006e 2B1C     		mov	r3, r5
 271 0070 FFF7FEFF 		bl	chThdCreateStatic
 272              	.LVL13:
 273 0074 E060     		str	r0, [r4, #12]
 274              		.loc 1 101 0
 275              	@ 101 "../../test/testthd.c" 1
 276 0076 72B6     		cpsid   i
 277              	@ 0 "" 2
 278              		.loc 1 102 0
 279              		.code	16
 280 0078 0F4B     		ldr	r3, .L6+4
 281 007a 9821     		mov	r1, #152
 282 007c 9868     		ldr	r0, [r3, #8]
 283 007e 0D4B     		ldr	r3, .L6
 284 0080 4900     		lsl	r1, r1, #1
 285 0082 9B69     		ldr	r3, [r3, #24]
ARM GAS  /tmp/ccv3kRpi.s 			page 6


 286 0084 9A68     		ldr	r2, [r3, #8]
 287 0086 134B     		ldr	r3, .L6+32
 288 0088 033A     		sub	r2, r2, #3
 289 008a 0093     		str	r3, [sp]
 290 008c 0C4B     		ldr	r3, .L6+12
 291 008e FFF7FEFF 		bl	chThdCreateI
 292              	.LVL14:
 293 0092 0C4B     		ldr	r3, .L6+16
 294 0094 9860     		str	r0, [r3, #8]
 295              		.loc 1 103 0
 296              	@ 103 "../../test/testthd.c" 1
 297 0096 62B6     		cpsie   i
 298              	@ 0 "" 2
 299              		.loc 1 104 0
 300              		.code	16
 301 0098 0A4B     		ldr	r3, .L6+16
 302 009a 9868     		ldr	r0, [r3, #8]
 303 009c FFF7FEFF 		bl	chThdResume
 304              	.LVL15:
 305              		.loc 1 105 0
 306 00a0 FFF7FEFF 		bl	test_wait_threads
 307              	.LVL16:
 308              		.loc 1 106 0
 309 00a4 0C49     		ldr	r1, .L6+36
 310 00a6 0120     		mov	r0, #1
 311 00a8 FFF7FEFF 		bl	_test_assert_sequence
 312              	.LVL17:
 313              		.loc 1 107 0
 314 00ac 02B0     		add	sp, sp, #8
 315              		@ sp needed
 316 00ae 04BC     		pop	{r2}
 317 00b0 9046     		mov	r8, r2
 318 00b2 F0BD     		pop	{r4, r5, r6, r7, pc}
 319              	.L7:
 320              		.align	2
 321              	.L6:
 322 00b4 00000000 		.word	rlist
 323 00b8 00000000 		.word	wa
 324 00bc 04000000 		.word	.LC6
 325 00c0 00000000 		.word	thread
 326 00c4 00000000 		.word	threads
 327 00c8 00000000 		.word	.LC3
 328 00cc 10000000 		.word	.LC12
 329 00d0 0C000000 		.word	.LC10
 330 00d4 08000000 		.word	.LC8
 331 00d8 14000000 		.word	.LC14
 332              		.cfi_endproc
 333              	.LFE9:
 334              		.size	thd2_execute, .-thd2_execute
 335 00dc C046C046 		.section	.text.thd3_execute,"ax",%progbits
 336              		.align	2
 337              		.p2align 4,,15
 338              		.code	16
 339              		.thumb_func
 340              		.type	thd3_execute, %function
 341              	thd3_execute:
 342              	.LFB10:
ARM GAS  /tmp/ccv3kRpi.s 			page 7


 343              		.loc 1 126 0
 344              		.cfi_startproc
 345 0000 F8B5     		push	{r3, r4, r5, r6, r7, lr}
 346              		.cfi_def_cfa_offset 24
 347              		.cfi_offset 3, -24
 348              		.cfi_offset 4, -20
 349              		.cfi_offset 5, -16
 350              		.cfi_offset 6, -12
 351              		.cfi_offset 7, -8
 352              		.cfi_offset 14, -4
 353              		.loc 1 129 0
 354 0002 4A4E     		ldr	r6, .L14
 355 0004 B369     		ldr	r3, [r6, #24]
 356 0006 9C68     		ldr	r4, [r3, #8]
 357              	.LVL18:
 358              		.loc 1 130 0
 359 0008 651C     		add	r5, r4, #1
 360 000a 281C     		mov	r0, r5
 361 000c FFF7FEFF 		bl	chThdSetPriority
 362              	.LVL19:
 363              		.loc 1 131 0
 364 0010 011B     		sub	r1, r0, r4
 365 0012 4B42     		neg	r3, r1
 366 0014 5941     		adc	r1, r1, r3
 367              		.loc 1 130 0
 368 0016 071C     		mov	r7, r0
 369              	.LVL20:
 370              		.loc 1 131 0
 371 0018 C9B2     		uxtb	r1, r1
 372 001a 0120     		mov	r0, #1
 373              	.LVL21:
 374 001c FFF7FEFF 		bl	_test_assert
 375              	.LVL22:
 376 0020 0028     		cmp	r0, #0
 377 0022 00D0     		beq	.L13
 378              	.LVL23:
 379              	.L8:
 380              		.loc 1 172 0
 381              		@ sp needed
 382              	.LVL24:
 383 0024 F8BD     		pop	{r3, r4, r5, r6, r7, pc}
 384              	.LVL25:
 385              	.L13:
 386              		.loc 1 133 0
 387 0026 B369     		ldr	r3, [r6, #24]
 388 0028 0220     		mov	r0, #2
 389 002a 9968     		ldr	r1, [r3, #8]
 390 002c 691A     		sub	r1, r5, r1
 391 002e 4B42     		neg	r3, r1
 392 0030 5941     		adc	r1, r1, r3
 393 0032 C9B2     		uxtb	r1, r1
 394 0034 FFF7FEFF 		bl	_test_assert
 395              	.LVL26:
 396 0038 0028     		cmp	r0, #0
 397 003a F3D1     		bne	.L8
 398              		.loc 1 135 0
 399 003c 381C     		mov	r0, r7
ARM GAS  /tmp/ccv3kRpi.s 			page 8


 400 003e FFF7FEFF 		bl	chThdSetPriority
 401              	.LVL27:
 402              		.loc 1 136 0
 403 0042 291A     		sub	r1, r5, r0
 404 0044 4B42     		neg	r3, r1
 405 0046 5941     		adc	r1, r1, r3
 406 0048 C9B2     		uxtb	r1, r1
 407 004a 0320     		mov	r0, #3
 408              	.LVL28:
 409 004c FFF7FEFF 		bl	_test_assert
 410              	.LVL29:
 411 0050 0028     		cmp	r0, #0
 412 0052 E7D1     		bne	.L8
 413              		.loc 1 138 0
 414 0054 B369     		ldr	r3, [r6, #24]
 415 0056 0420     		mov	r0, #4
 416 0058 9968     		ldr	r1, [r3, #8]
 417 005a 091B     		sub	r1, r1, r4
 418 005c 4B42     		neg	r3, r1
 419 005e 5941     		adc	r1, r1, r3
 420 0060 C9B2     		uxtb	r1, r1
 421 0062 FFF7FEFF 		bl	_test_assert
 422              	.LVL30:
 423 0066 0028     		cmp	r0, #0
 424 0068 DCD1     		bne	.L8
 425              		.loc 1 143 0
 426              	@ 143 "../../test/testthd.c" 1
 427 006a 72B6     		cpsid   i
 428              	@ 0 "" 2
 429              		.loc 1 144 0
 430              		.code	16
 431 006c B369     		ldr	r3, [r6, #24]
 432 006e 9A68     		ldr	r2, [r3, #8]
 433 0070 0232     		add	r2, r2, #2
 434 0072 9A60     		str	r2, [r3, #8]
 435              		.loc 1 145 0
 436              	@ 145 "../../test/testthd.c" 1
 437 0074 62B6     		cpsie   i
 438              	@ 0 "" 2
 439              		.loc 1 146 0
 440              		.code	16
 441 0076 2D4E     		ldr	r6, .L14
 442 0078 A71C     		add	r7, r4, #2
 443 007a B369     		ldr	r3, [r6, #24]
 444 007c 0520     		mov	r0, #5
 445 007e 9968     		ldr	r1, [r3, #8]
 446 0080 C91B     		sub	r1, r1, r7
 447 0082 4B42     		neg	r3, r1
 448 0084 5941     		adc	r1, r1, r3
 449 0086 C9B2     		uxtb	r1, r1
 450 0088 FFF7FEFF 		bl	_test_assert
 451              	.LVL31:
 452 008c 0028     		cmp	r0, #0
 453 008e C9D1     		bne	.L8
 454              		.loc 1 150 0
 455 0090 281C     		mov	r0, r5
 456 0092 FFF7FEFF 		bl	chThdSetPriority
ARM GAS  /tmp/ccv3kRpi.s 			page 9


 457              	.LVL32:
 458              		.loc 1 151 0
 459 0096 011B     		sub	r1, r0, r4
 460 0098 4B42     		neg	r3, r1
 461 009a 5941     		adc	r1, r1, r3
 462 009c C9B2     		uxtb	r1, r1
 463 009e 0620     		mov	r0, #6
 464              	.LVL33:
 465 00a0 FFF7FEFF 		bl	_test_assert
 466              	.LVL34:
 467 00a4 0028     		cmp	r0, #0
 468 00a6 BDD1     		bne	.L8
 469              		.loc 1 153 0
 470 00a8 B369     		ldr	r3, [r6, #24]
 471 00aa 0720     		mov	r0, #7
 472 00ac 9968     		ldr	r1, [r3, #8]
 473 00ae 791A     		sub	r1, r7, r1
 474 00b0 4F42     		neg	r7, r1
 475 00b2 7941     		adc	r1, r1, r7
 476 00b4 C9B2     		uxtb	r1, r1
 477 00b6 FFF7FEFF 		bl	_test_assert
 478              	.LVL35:
 479 00ba 0028     		cmp	r0, #0
 480 00bc B2D1     		bne	.L8
 481              		.loc 1 155 0
 482 00be B369     		ldr	r3, [r6, #24]
 483 00c0 0820     		mov	r0, #8
 484 00c2 196C     		ldr	r1, [r3, #64]
 485 00c4 691A     		sub	r1, r5, r1
 486 00c6 4B42     		neg	r3, r1
 487 00c8 5941     		adc	r1, r1, r3
 488 00ca C9B2     		uxtb	r1, r1
 489 00cc FFF7FEFF 		bl	_test_assert
 490              	.LVL36:
 491 00d0 0028     		cmp	r0, #0
 492 00d2 A7D1     		bne	.L8
 493              		.loc 1 159 0
 494 00d4 E71C     		add	r7, r4, #3
 495 00d6 381C     		mov	r0, r7
 496 00d8 FFF7FEFF 		bl	chThdSetPriority
 497              	.LVL37:
 498              		.loc 1 160 0
 499 00dc 291A     		sub	r1, r5, r0
 500 00de 4D42     		neg	r5, r1
 501 00e0 6941     		adc	r1, r1, r5
 502 00e2 C9B2     		uxtb	r1, r1
 503 00e4 0920     		mov	r0, #9
 504              	.LVL38:
 505 00e6 FFF7FEFF 		bl	_test_assert
 506              	.LVL39:
 507 00ea 0028     		cmp	r0, #0
 508 00ec 9AD1     		bne	.L8
 509              		.loc 1 162 0
 510 00ee B369     		ldr	r3, [r6, #24]
 511 00f0 0A20     		mov	r0, #10
 512 00f2 9968     		ldr	r1, [r3, #8]
 513 00f4 791A     		sub	r1, r7, r1
ARM GAS  /tmp/ccv3kRpi.s 			page 10


 514 00f6 4B42     		neg	r3, r1
 515 00f8 5941     		adc	r1, r1, r3
 516 00fa C9B2     		uxtb	r1, r1
 517 00fc FFF7FEFF 		bl	_test_assert
 518              	.LVL40:
 519 0100 0028     		cmp	r0, #0
 520 0102 00D0     		beq	.LCB424
 521 0104 8EE7     		b	.L8	@long jump
 522              	.LCB424:
 523              		.loc 1 164 0
 524 0106 B369     		ldr	r3, [r6, #24]
 525 0108 0B20     		mov	r0, #11
 526 010a 196C     		ldr	r1, [r3, #64]
 527 010c 791A     		sub	r1, r7, r1
 528 010e 4F42     		neg	r7, r1
 529 0110 7941     		adc	r1, r1, r7
 530 0112 C9B2     		uxtb	r1, r1
 531 0114 FFF7FEFF 		bl	_test_assert
 532              	.LVL41:
 533 0118 0028     		cmp	r0, #0
 534 011a 00D0     		beq	.LCB434
 535 011c 82E7     		b	.L8	@long jump
 536              	.LCB434:
 537              		.loc 1 167 0
 538              	@ 167 "../../test/testthd.c" 1
 539 011e 72B6     		cpsid   i
 540              	@ 0 "" 2
 541              		.loc 1 168 0
 542              		.code	16
 543 0120 B369     		ldr	r3, [r6, #24]
 544 0122 9C60     		str	r4, [r3, #8]
 545              		.loc 1 169 0
 546 0124 1C64     		str	r4, [r3, #64]
 547              		.loc 1 170 0
 548              	@ 170 "../../test/testthd.c" 1
 549 0126 62B6     		cpsie   i
 550              	@ 0 "" 2
 551              		.code	16
 552 0128 7CE7     		b	.L8
 553              	.L15:
 554 012a C046     		.align	2
 555              	.L14:
 556 012c 00000000 		.word	rlist
 557              		.cfi_endproc
 558              	.LFE10:
 559              		.size	thd3_execute, .-thd3_execute
 560              		.section	.text.thd4_execute,"ax",%progbits
 561              		.align	2
 562              		.p2align 4,,15
 563              		.code	16
 564              		.thumb_func
 565              		.type	thd4_execute, %function
 566              	thd4_execute:
 567              	.LFB11:
 568              		.loc 1 189 0
 569              		.cfi_startproc
 570 0000 38B5     		push	{r3, r4, r5, lr}
ARM GAS  /tmp/ccv3kRpi.s 			page 11


 571              		.cfi_def_cfa_offset 16
 572              		.cfi_offset 3, -16
 573              		.cfi_offset 4, -12
 574              		.cfi_offset 5, -8
 575              		.cfi_offset 14, -4
 576              		.loc 1 192 0
 577 0002 FFF7FEFF 		bl	test_wait_tick
 578              	.LVL42:
 579              		.loc 1 195 0
 580 0006 1C4D     		ldr	r5, .L21
 581              		.loc 1 196 0
 582 0008 6420     		mov	r0, #100
 583              		.loc 1 195 0
 584 000a EC68     		ldr	r4, [r5, #12]
 585              	.LVL43:
 586              		.loc 1 196 0
 587 000c FFF7FEFF 		bl	chThdSleep
 588              	.LVL44:
 589              		.loc 1 197 0
 590 0010 211C     		mov	r1, r4
 591 0012 221C     		mov	r2, r4
 592 0014 6431     		add	r1, r1, #100
 593 0016 6532     		add	r2, r2, #101
 594 0018 0120     		mov	r0, #1
 595 001a FFF7FEFF 		bl	_test_assert_time_window
 596              	.LVL45:
 597 001e 0028     		cmp	r0, #0
 598 0020 00D0     		beq	.L20
 599              	.LVL46:
 600              	.L16:
 601              		.loc 1 213 0
 602              		@ sp needed
 603 0022 38BD     		pop	{r3, r4, r5, pc}
 604              	.LVL47:
 605              	.L20:
 606              		.loc 1 200 0
 607 0024 EC68     		ldr	r4, [r5, #12]
 608              	.LVL48:
 609              		.loc 1 201 0
 610 0026 6420     		mov	r0, #100
 611 0028 FFF7FEFF 		bl	chThdSleep
 612              	.LVL49:
 613              		.loc 1 202 0
 614 002c 211C     		mov	r1, r4
 615 002e 221C     		mov	r2, r4
 616 0030 6431     		add	r1, r1, #100
 617 0032 6532     		add	r2, r2, #101
 618 0034 0220     		mov	r0, #2
 619 0036 FFF7FEFF 		bl	_test_assert_time_window
 620              	.LVL50:
 621 003a 0028     		cmp	r0, #0
 622 003c F1D1     		bne	.L16
 623              	.LBB4:
 624              	.LBB5:
 625              		.loc 1 206 0
 626 003e FA20     		mov	r0, #250
 627 0040 8000     		lsl	r0, r0, #2
ARM GAS  /tmp/ccv3kRpi.s 			page 12


 628              		.loc 1 205 0
 629 0042 EC68     		ldr	r4, [r5, #12]
 630              	.LVL51:
 631              		.loc 1 206 0
 632 0044 FFF7FEFF 		bl	chThdSleep
 633              	.LVL52:
 634              		.loc 1 207 0
 635 0048 FA23     		mov	r3, #250
 636 004a 9B00     		lsl	r3, r3, #2
 637 004c E118     		add	r1, r4, r3
 638 004e 0B4B     		ldr	r3, .L21+4
 639 0050 0320     		mov	r0, #3
 640 0052 E218     		add	r2, r4, r3
 641 0054 FFF7FEFF 		bl	_test_assert_time_window
 642              	.LVL53:
 643 0058 0028     		cmp	r0, #0
 644 005a E2D1     		bne	.L16
 645              		.loc 1 210 0
 646 005c ED68     		ldr	r5, [r5, #12]
 647 005e 2C1C     		mov	r4, r5
 648              	.LVL54:
 649 0060 6434     		add	r4, r4, #100
 650              	.LVL55:
 651              		.loc 1 211 0
 652 0062 201C     		mov	r0, r4
 653 0064 FFF7FEFF 		bl	chThdSleepUntil
 654              	.LVL56:
 655              		.loc 1 212 0
 656 0068 2A1C     		mov	r2, r5
 657 006a 6532     		add	r2, r2, #101
 658 006c 211C     		mov	r1, r4
 659 006e 0420     		mov	r0, #4
 660 0070 FFF7FEFF 		bl	_test_assert_time_window
 661              	.LVL57:
 662 0074 D5E7     		b	.L16
 663              	.L22:
 664 0076 C046     		.align	2
 665              	.L21:
 666 0078 00000000 		.word	vtlist
 667 007c E9030000 		.word	1001
 668              	.LBE5:
 669              	.LBE4:
 670              		.cfi_endproc
 671              	.LFE11:
 672              		.size	thd4_execute, .-thd4_execute
 673              		.global	patternthd
 674              		.global	testthd4
 675              		.global	testthd3
 676              		.global	testthd2
 677              		.global	testthd1
 678              		.section	.rodata.testthd1,"a",%progbits
 679              		.align	2
 680              		.type	testthd1, %object
 681              		.size	testthd1, 16
 682              	testthd1:
 683 0000 64000000 		.word	.LC31
 684 0004 00000000 		.word	0
ARM GAS  /tmp/ccv3kRpi.s 			page 13


 685 0008 00000000 		.word	0
 686 000c 00000000 		.word	thd1_execute
 687              		.section	.rodata.testthd2,"a",%progbits
 688              		.align	2
 689              		.type	testthd2, %object
 690              		.size	testthd2, 16
 691              	testthd2:
 692 0000 48000000 		.word	.LC30
 693 0004 00000000 		.word	0
 694 0008 00000000 		.word	0
 695 000c 00000000 		.word	thd2_execute
 696              		.section	.rodata.testthd3,"a",%progbits
 697              		.align	2
 698              		.type	testthd3, %object
 699              		.size	testthd3, 16
 700              	testthd3:
 701 0000 2C000000 		.word	.LC29
 702 0004 00000000 		.word	0
 703 0008 00000000 		.word	0
 704 000c 00000000 		.word	thd3_execute
 705              		.section	.rodata.testthd4,"a",%progbits
 706              		.align	2
 707              		.type	testthd4, %object
 708              		.size	testthd4, 16
 709              	testthd4:
 710 0000 1C000000 		.word	.LC28
 711 0004 00000000 		.word	0
 712 0008 00000000 		.word	0
 713 000c 00000000 		.word	thd4_execute
 714              		.section	.rodata.patternthd,"a",%progbits
 715              		.align	2
 716              		.type	patternthd, %object
 717              		.size	patternthd, 20
 718              	patternthd:
 719 0000 00000000 		.word	testthd1
 720 0004 00000000 		.word	testthd2
 721 0008 00000000 		.word	testthd3
 722 000c 00000000 		.word	testthd4
 723 0010 00000000 		.word	0
 724              		.section	.rodata.str1.4,"aMS",%progbits,1
 725              		.align	2
 726              	.LC3:
 727 0000 4500     		.ascii	"E\000"
 728 0002 0000     		.space	2
 729              	.LC6:
 730 0004 4400     		.ascii	"D\000"
 731 0006 0000     		.space	2
 732              	.LC8:
 733 0008 4300     		.ascii	"C\000"
 734 000a 0000     		.space	2
 735              	.LC10:
 736 000c 4200     		.ascii	"B\000"
 737 000e 0000     		.space	2
 738              	.LC12:
 739 0010 4100     		.ascii	"A\000"
 740 0012 0000     		.space	2
 741              	.LC14:
ARM GAS  /tmp/ccv3kRpi.s 			page 14


 742 0014 41424344 		.ascii	"ABCDE\000"
 742      4500
 743 001a 0000     		.space	2
 744              	.LC28:
 745 001c 54687265 		.ascii	"Threads, delays\000"
 745      6164732C 
 745      2064656C 
 745      61797300 
 746              	.LC29:
 747 002c 54687265 		.ascii	"Threads, priority change\000"
 747      6164732C 
 747      20707269 
 747      6F726974 
 747      79206368 
 748 0045 000000   		.space	3
 749              	.LC30:
 750 0048 54687265 		.ascii	"Threads, enqueuing test #2\000"
 750      6164732C 
 750      20656E71 
 750      75657569 
 750      6E672074 
 751 0063 00       		.space	1
 752              	.LC31:
 753 0064 54687265 		.ascii	"Threads, enqueuing test #1\000"
 753      6164732C 
 753      20656E71 
 753      75657569 
 753      6E672074 
 754 007f 00       		.text
 755              	.Letext0:
 756              		.file 2 "/usr/lib/gcc/arm-none-eabi/4.8.2/include/stddef.h"
 757              		.file 3 "/usr/arm-none-eabi/include/machine/_default_types.h"
 758              		.file 4 "/usr/arm-none-eabi/include/stdint.h"
 759              		.file 5 "../../os/ports/GCC/ARMCMx/chtypes.h"
 760              		.file 6 "../../os/kernel/include/chlists.h"
 761              		.file 7 "../../os/kernel/include/chthreads.h"
 762              		.file 8 "../../os/ports/GCC/ARMCMx/chcore_v6m.h"
 763              		.file 9 "../../os/kernel/include/chvt.h"
 764              		.file 10 "../../os/kernel/include/chschd.h"
 765              		.file 11 "../../os/kernel/include/chmtx.h"
 766              		.file 12 "../../test/test.h"