ARM GAS  /tmp/cc71fNsA.s 			page 1


   1              		.cpu cortex-m0
   2              		.fpu softvfp
   3              		.eabi_attribute 20, 1
   4              		.eabi_attribute 21, 1
   5              		.eabi_attribute 23, 3
   6              		.eabi_attribute 24, 1
   7              		.eabi_attribute 25, 1
   8              		.eabi_attribute 26, 1
   9              		.eabi_attribute 30, 2
  10              		.eabi_attribute 34, 0
  11              		.eabi_attribute 18, 4
  12              		.code	16
  13              		.file	"testmtx.c"
  14              		.text
  15              	.Ltext0:
  16              		.cfi_sections	.debug_frame
  17              		.section	.text.mtx1_execute,"ax",%progbits
  18              		.align	2
  19              		.p2align 4,,15
  20              		.code	16
  21              		.thumb_func
  22              		.type	mtx1_execute, %function
  23              	mtx1_execute:
  24              	.LFB9:
  25              		.file 1 "../../test/testmtx.c"
  26              		.loc 1 97 0
  27              		.cfi_startproc
  28 0000 F0B5     		push	{r4, r5, r6, r7, lr}
  29              		.cfi_def_cfa_offset 20
  30              		.cfi_offset 4, -20
  31              		.cfi_offset 5, -16
  32              		.cfi_offset 6, -12
  33              		.cfi_offset 7, -8
  34              		.cfi_offset 14, -4
  35 0002 4746     		mov	r7, r8
  36 0004 80B4     		push	{r7}
  37              		.cfi_def_cfa_offset 24
  38              		.cfi_offset 8, -24
  39              		.loc 1 99 0
  40 0006 2F4A     		ldr	r2, .L4
  41              		.loc 1 97 0
  42 0008 84B0     		sub	sp, sp, #16
  43              		.cfi_def_cfa_offset 40
  44              		.loc 1 99 0
  45 000a 9369     		ldr	r3, [r2, #24]
  46              		.loc 1 100 0
  47 000c 2E48     		ldr	r0, .L4+4
  48              		.loc 1 99 0
  49 000e 9C68     		ldr	r4, [r3, #8]
  50              	.LVL0:
  51 0010 9046     		mov	r8, r2
  52              		.loc 1 100 0
  53 0012 FFF7FEFF 		bl	chMtxLock
  54              	.LVL1:
  55              		.loc 1 101 0
  56 0016 2D4F     		ldr	r7, .L4+8
  57 0018 2D4E     		ldr	r6, .L4+12
ARM GAS  /tmp/cc71fNsA.s 			page 2


  58 001a 3B68     		ldr	r3, [r7]
  59 001c 9821     		mov	r1, #152
  60 001e 0393     		str	r3, [sp, #12]
  61 0020 2C4B     		ldr	r3, .L4+16
  62 0022 621C     		add	r2, r4, #1
  63 0024 0093     		str	r3, [sp]
  64 0026 4900     		lsl	r1, r1, #1
  65 0028 331C     		mov	r3, r6
  66 002a 0398     		ldr	r0, [sp, #12]
  67 002c FFF7FEFF 		bl	chThdCreateStatic
  68              	.LVL2:
  69              		.loc 1 102 0
  70 0030 7A68     		ldr	r2, [r7, #4]
  71              		.loc 1 101 0
  72 0032 294D     		ldr	r5, .L4+20
  73              		.loc 1 102 0
  74 0034 294B     		ldr	r3, .L4+24
  75 0036 0392     		str	r2, [sp, #12]
  76 0038 9821     		mov	r1, #152
  77              		.loc 1 101 0
  78 003a 2860     		str	r0, [r5]
  79              		.loc 1 102 0
  80 003c A21C     		add	r2, r4, #2
  81 003e 0093     		str	r3, [sp]
  82 0040 4900     		lsl	r1, r1, #1
  83 0042 331C     		mov	r3, r6
  84 0044 0398     		ldr	r0, [sp, #12]
  85 0046 FFF7FEFF 		bl	chThdCreateStatic
  86              	.LVL3:
  87              		.loc 1 103 0
  88 004a BB68     		ldr	r3, [r7, #8]
  89 004c 9821     		mov	r1, #152
  90 004e 0393     		str	r3, [sp, #12]
  91 0050 234B     		ldr	r3, .L4+28
  92              		.loc 1 102 0
  93 0052 6860     		str	r0, [r5, #4]
  94              		.loc 1 103 0
  95 0054 E21C     		add	r2, r4, #3
  96 0056 0093     		str	r3, [sp]
  97 0058 4900     		lsl	r1, r1, #1
  98 005a 331C     		mov	r3, r6
  99 005c 0398     		ldr	r0, [sp, #12]
 100 005e FFF7FEFF 		bl	chThdCreateStatic
 101              	.LVL4:
 102              		.loc 1 104 0
 103 0062 FA68     		ldr	r2, [r7, #12]
 104 0064 1F4B     		ldr	r3, .L4+32
 105 0066 0392     		str	r2, [sp, #12]
 106 0068 9821     		mov	r1, #152
 107              		.loc 1 103 0
 108 006a A860     		str	r0, [r5, #8]
 109              		.loc 1 104 0
 110 006c 221D     		add	r2, r4, #4
 111 006e 0093     		str	r3, [sp]
 112 0070 4900     		lsl	r1, r1, #1
 113 0072 331C     		mov	r3, r6
 114 0074 0398     		ldr	r0, [sp, #12]
ARM GAS  /tmp/cc71fNsA.s 			page 3


 115 0076 FFF7FEFF 		bl	chThdCreateStatic
 116              	.LVL5:
 117              		.loc 1 105 0
 118 007a 3F69     		ldr	r7, [r7, #16]
 119 007c 1A4B     		ldr	r3, .L4+36
 120 007e 9821     		mov	r1, #152
 121 0080 621D     		add	r2, r4, #5
 122 0082 4900     		lsl	r1, r1, #1
 123              		.loc 1 104 0
 124 0084 E860     		str	r0, [r5, #12]
 125              		.loc 1 105 0
 126 0086 0093     		str	r3, [sp]
 127 0088 381C     		mov	r0, r7
 128 008a 331C     		mov	r3, r6
 129 008c 0397     		str	r7, [sp, #12]
 130 008e FFF7FEFF 		bl	chThdCreateStatic
 131              	.LVL6:
 132 0092 2861     		str	r0, [r5, #16]
 133              		.loc 1 106 0
 134 0094 FFF7FEFF 		bl	chMtxUnlock
 135              	.LVL7:
 136              		.loc 1 107 0
 137 0098 FFF7FEFF 		bl	test_wait_threads
 138              	.LVL8:
 139              		.loc 1 108 0
 140 009c 4246     		mov	r2, r8
 141 009e 9369     		ldr	r3, [r2, #24]
 142 00a0 0120     		mov	r0, #1
 143 00a2 9968     		ldr	r1, [r3, #8]
 144 00a4 091B     		sub	r1, r1, r4
 145 00a6 4C42     		neg	r4, r1
 146 00a8 6141     		adc	r1, r1, r4
 147              	.LVL9:
 148 00aa C9B2     		uxtb	r1, r1
 149 00ac FFF7FEFF 		bl	_test_assert
 150              	.LVL10:
 151 00b0 0028     		cmp	r0, #0
 152 00b2 03D1     		bne	.L1
 153              		.loc 1 109 0
 154 00b4 0220     		mov	r0, #2
 155 00b6 0D49     		ldr	r1, .L4+40
 156 00b8 FFF7FEFF 		bl	_test_assert_sequence
 157              	.LVL11:
 158              	.L1:
 159              		.loc 1 110 0
 160 00bc 04B0     		add	sp, sp, #16
 161              		@ sp needed
 162 00be 04BC     		pop	{r2}
 163 00c0 9046     		mov	r8, r2
 164 00c2 F0BD     		pop	{r4, r5, r6, r7, pc}
 165              	.L5:
 166              		.align	2
 167              	.L4:
 168 00c4 00000000 		.word	rlist
 169 00c8 00000000 		.word	.LANCHOR0
 170 00cc 00000000 		.word	wa
 171 00d0 00000000 		.word	thread1
ARM GAS  /tmp/cc71fNsA.s 			page 4


 172 00d4 00000000 		.word	.LC4
 173 00d8 00000000 		.word	threads
 174 00dc 04000000 		.word	.LC7
 175 00e0 08000000 		.word	.LC9
 176 00e4 0C000000 		.word	.LC11
 177 00e8 10000000 		.word	.LC13
 178 00ec 14000000 		.word	.LC15
 179              		.cfi_endproc
 180              	.LFE9:
 181              		.size	mtx1_execute, .-mtx1_execute
 182              		.section	.text.thread1,"ax",%progbits
 183              		.align	2
 184              		.p2align 4,,15
 185              		.code	16
 186              		.thumb_func
 187              		.type	thread1, %function
 188              	thread1:
 189              	.LFB8:
 190              		.loc 1 89 0
 191              		.cfi_startproc
 192              	.LVL12:
 193 0000 10B5     		push	{r4, lr}
 194              		.cfi_def_cfa_offset 8
 195              		.cfi_offset 4, -8
 196              		.cfi_offset 14, -4
 197              		.loc 1 89 0
 198 0002 041C     		mov	r4, r0
 199              		.loc 1 91 0
 200 0004 0448     		ldr	r0, .L7
 201              	.LVL13:
 202 0006 FFF7FEFF 		bl	chMtxLock
 203              	.LVL14:
 204              		.loc 1 92 0
 205 000a 2078     		ldrb	r0, [r4]
 206 000c FFF7FEFF 		bl	test_emit_token
 207              	.LVL15:
 208              		.loc 1 95 0
 209              		@ sp needed
 210              		.loc 1 93 0
 211 0010 FFF7FEFF 		bl	chMtxUnlock
 212              	.LVL16:
 213              		.loc 1 95 0
 214 0014 0020     		mov	r0, #0
 215              	.LVL17:
 216 0016 10BD     		pop	{r4, pc}
 217              	.L8:
 218              		.align	2
 219              	.L7:
 220 0018 00000000 		.word	.LANCHOR0
 221              		.cfi_endproc
 222              	.LFE8:
 223              		.size	thread1, .-thread1
 224 001c C046C046 		.section	.text.thread12,"ax",%progbits
 225              		.align	2
 226              		.p2align 4,,15
 227              		.code	16
 228              		.thumb_func
ARM GAS  /tmp/cc71fNsA.s 			page 5


 229              		.type	thread12, %function
 230              	thread12:
 231              	.LFB35:
 232              		.loc 1 588 0
 233              		.cfi_startproc
 234              	.LVL18:
 235 0000 10B5     		push	{r4, lr}
 236              		.cfi_def_cfa_offset 8
 237              		.cfi_offset 4, -8
 238              		.cfi_offset 14, -4
 239              		.loc 1 588 0
 240 0002 041C     		mov	r4, r0
 241              		.loc 1 590 0
 242 0004 0448     		ldr	r0, .L10
 243              	.LVL19:
 244 0006 FFF7FEFF 		bl	chMtxLock
 245              	.LVL20:
 246              		.loc 1 591 0
 247 000a 2078     		ldrb	r0, [r4]
 248 000c FFF7FEFF 		bl	test_emit_token
 249              	.LVL21:
 250              		.loc 1 594 0
 251              		@ sp needed
 252              		.loc 1 592 0
 253 0010 FFF7FEFF 		bl	chMtxUnlock
 254              	.LVL22:
 255              		.loc 1 594 0
 256 0014 0020     		mov	r0, #0
 257              	.LVL23:
 258 0016 10BD     		pop	{r4, pc}
 259              	.L11:
 260              		.align	2
 261              	.L10:
 262 0018 00000000 		.word	.LANCHOR1
 263              		.cfi_endproc
 264              	.LFE35:
 265              		.size	thread12, .-thread12
 266 001c C046C046 		.section	.text.mtx1_setup,"ax",%progbits
 267              		.align	2
 268              		.p2align 4,,15
 269              		.code	16
 270              		.thumb_func
 271              		.type	mtx1_setup, %function
 272              	mtx1_setup:
 273              	.LFB7:
 274              		.loc 1 84 0
 275              		.cfi_startproc
 276 0000 08B5     		push	{r3, lr}
 277              		.cfi_def_cfa_offset 8
 278              		.cfi_offset 3, -8
 279              		.cfi_offset 14, -4
 280              		.loc 1 86 0
 281 0002 0248     		ldr	r0, .L13
 282 0004 FFF7FEFF 		bl	chMtxInit
 283              	.LVL24:
 284              		.loc 1 87 0
 285              		@ sp needed
ARM GAS  /tmp/cc71fNsA.s 			page 6


 286 0008 08BD     		pop	{r3, pc}
 287              	.L14:
 288 000a C046     		.align	2
 289              	.L13:
 290 000c 00000000 		.word	.LANCHOR0
 291              		.cfi_endproc
 292              	.LFE7:
 293              		.size	mtx1_setup, .-mtx1_setup
 294              		.section	.text.mtx2_setup,"ax",%progbits
 295              		.align	2
 296              		.p2align 4,,15
 297              		.code	16
 298              		.thumb_func
 299              		.type	mtx2_setup, %function
 300              	mtx2_setup:
 301              	.LFB10:
 302              		.loc 1 151 0
 303              		.cfi_startproc
 304 0000 08B5     		push	{r3, lr}
 305              		.cfi_def_cfa_offset 8
 306              		.cfi_offset 3, -8
 307              		.cfi_offset 14, -4
 308              		.loc 1 153 0
 309 0002 0248     		ldr	r0, .L16
 310 0004 FFF7FEFF 		bl	chMtxInit
 311              	.LVL25:
 312              		.loc 1 154 0
 313              		@ sp needed
 314 0008 08BD     		pop	{r3, pc}
 315              	.L17:
 316 000a C046     		.align	2
 317              	.L16:
 318 000c 00000000 		.word	.LANCHOR0
 319              		.cfi_endproc
 320              	.LFE10:
 321              		.size	mtx2_setup, .-mtx2_setup
 322              		.section	.text.mtx3_setup,"ax",%progbits
 323              		.align	2
 324              		.p2align 4,,15
 325              		.code	16
 326              		.thumb_func
 327              		.type	mtx3_setup, %function
 328              	mtx3_setup:
 329              	.LFB15:
 330              		.loc 1 241 0
 331              		.cfi_startproc
 332 0000 08B5     		push	{r3, lr}
 333              		.cfi_def_cfa_offset 8
 334              		.cfi_offset 3, -8
 335              		.cfi_offset 14, -4
 336              		.loc 1 243 0
 337 0002 0348     		ldr	r0, .L19
 338 0004 FFF7FEFF 		bl	chMtxInit
 339              	.LVL26:
 340              		.loc 1 244 0
 341 0008 0248     		ldr	r0, .L19+4
 342 000a FFF7FEFF 		bl	chMtxInit
ARM GAS  /tmp/cc71fNsA.s 			page 7


 343              	.LVL27:
 344              		.loc 1 245 0
 345              		@ sp needed
 346 000e 08BD     		pop	{r3, pc}
 347              	.L20:
 348              		.align	2
 349              	.L19:
 350 0010 00000000 		.word	.LANCHOR0
 351 0014 00000000 		.word	.LANCHOR1
 352              		.cfi_endproc
 353              	.LFE15:
 354              		.size	mtx3_setup, .-mtx3_setup
 355 0018 C046C046 		.section	.text.mtx4_setup,"ax",%progbits
 355      C046C046 
 356              		.align	2
 357              		.p2align 4,,15
 358              		.code	16
 359              		.thumb_func
 360              		.type	mtx4_setup, %function
 361              	mtx4_setup:
 362              	.LFB22:
 363              		.loc 1 341 0
 364              		.cfi_startproc
 365 0000 08B5     		push	{r3, lr}
 366              		.cfi_def_cfa_offset 8
 367              		.cfi_offset 3, -8
 368              		.cfi_offset 14, -4
 369              		.loc 1 343 0
 370 0002 0348     		ldr	r0, .L22
 371 0004 FFF7FEFF 		bl	chMtxInit
 372              	.LVL28:
 373              		.loc 1 344 0
 374 0008 0248     		ldr	r0, .L22+4
 375 000a FFF7FEFF 		bl	chMtxInit
 376              	.LVL29:
 377              		.loc 1 345 0
 378              		@ sp needed
 379 000e 08BD     		pop	{r3, pc}
 380              	.L23:
 381              		.align	2
 382              	.L22:
 383 0010 00000000 		.word	.LANCHOR0
 384 0014 00000000 		.word	.LANCHOR1
 385              		.cfi_endproc
 386              	.LFE22:
 387              		.size	mtx4_setup, .-mtx4_setup
 388 0018 C046C046 		.section	.text.mtx5_setup,"ax",%progbits
 388      C046C046 
 389              		.align	2
 390              		.p2align 4,,15
 391              		.code	16
 392              		.thumb_func
 393              		.type	mtx5_setup, %function
 394              	mtx5_setup:
 395              	.LFB26:
 396              		.loc 1 429 0
 397              		.cfi_startproc
ARM GAS  /tmp/cc71fNsA.s 			page 8


 398 0000 08B5     		push	{r3, lr}
 399              		.cfi_def_cfa_offset 8
 400              		.cfi_offset 3, -8
 401              		.cfi_offset 14, -4
 402              		.loc 1 431 0
 403 0002 0248     		ldr	r0, .L25
 404 0004 FFF7FEFF 		bl	chMtxInit
 405              	.LVL30:
 406              		.loc 1 432 0
 407              		@ sp needed
 408 0008 08BD     		pop	{r3, pc}
 409              	.L26:
 410 000a C046     		.align	2
 411              	.L25:
 412 000c 00000000 		.word	.LANCHOR0
 413              		.cfi_endproc
 414              	.LFE26:
 415              		.size	mtx5_setup, .-mtx5_setup
 416              		.section	.text.mtx2_execute,"ax",%progbits
 417              		.align	2
 418              		.p2align 4,,15
 419              		.code	16
 420              		.thumb_func
 421              		.type	mtx2_execute, %function
 422              	mtx2_execute:
 423              	.LFB14:
 424              		.loc 1 190 0
 425              		.cfi_startproc
 426 0000 F0B5     		push	{r4, r5, r6, r7, lr}
 427              		.cfi_def_cfa_offset 20
 428              		.cfi_offset 4, -20
 429              		.cfi_offset 5, -16
 430              		.cfi_offset 6, -12
 431              		.cfi_offset 7, -8
 432              		.cfi_offset 14, -4
 433 0002 4746     		mov	r7, r8
 434 0004 80B4     		push	{r7}
 435              		.cfi_def_cfa_offset 24
 436              		.cfi_offset 8, -24
 437 0006 84B0     		sub	sp, sp, #16
 438              		.cfi_def_cfa_offset 40
 439              		.loc 1 193 0
 440 0008 FFF7FEFF 		bl	test_wait_tick
 441              	.LVL31:
 442              		.loc 1 195 0
 443 000c 204F     		ldr	r7, .L29
 444              		.loc 1 194 0
 445 000e 214B     		ldr	r3, .L29+4
 446              		.loc 1 195 0
 447 0010 214E     		ldr	r6, .L29+8
 448              		.loc 1 194 0
 449 0012 DA68     		ldr	r2, [r3, #12]
 450              		.loc 1 195 0
 451 0014 3B68     		ldr	r3, [r7]
 452              		.loc 1 194 0
 453 0016 9046     		mov	r8, r2
 454              	.LVL32:
ARM GAS  /tmp/cc71fNsA.s 			page 9


 455              		.loc 1 195 0
 456 0018 0393     		str	r3, [sp, #12]
 457 001a B369     		ldr	r3, [r6, #24]
 458 001c 0025     		mov	r5, #0
 459 001e 9A68     		ldr	r2, [r3, #8]
 460              	.LVL33:
 461 0020 9821     		mov	r1, #152
 462 0022 013A     		sub	r2, r2, #1
 463 0024 4900     		lsl	r1, r1, #1
 464 0026 1D4B     		ldr	r3, .L29+12
 465 0028 0095     		str	r5, [sp]
 466 002a 0398     		ldr	r0, [sp, #12]
 467 002c FFF7FEFF 		bl	chThdCreateStatic
 468              	.LVL34:
 469              		.loc 1 196 0
 470 0030 7A68     		ldr	r2, [r7, #4]
 471 0032 B369     		ldr	r3, [r6, #24]
 472              		.loc 1 195 0
 473 0034 1A4C     		ldr	r4, .L29+16
 474              		.loc 1 196 0
 475 0036 0392     		str	r2, [sp, #12]
 476 0038 9A68     		ldr	r2, [r3, #8]
 477 003a 9821     		mov	r1, #152
 478              		.loc 1 195 0
 479 003c 2060     		str	r0, [r4]
 480              		.loc 1 196 0
 481 003e 023A     		sub	r2, r2, #2
 482 0040 4900     		lsl	r1, r1, #1
 483 0042 184B     		ldr	r3, .L29+20
 484 0044 0095     		str	r5, [sp]
 485 0046 0398     		ldr	r0, [sp, #12]
 486 0048 FFF7FEFF 		bl	chThdCreateStatic
 487              	.LVL35:
 488              		.loc 1 197 0
 489 004c B369     		ldr	r3, [r6, #24]
 490 004e BF68     		ldr	r7, [r7, #8]
 491 0050 9A68     		ldr	r2, [r3, #8]
 492 0052 9821     		mov	r1, #152
 493              		.loc 1 196 0
 494 0054 6060     		str	r0, [r4, #4]
 495              		.loc 1 197 0
 496 0056 4900     		lsl	r1, r1, #1
 497 0058 033A     		sub	r2, r2, #3
 498 005a 134B     		ldr	r3, .L29+24
 499 005c 0095     		str	r5, [sp]
 500 005e 381C     		mov	r0, r7
 501 0060 0397     		str	r7, [sp, #12]
 502 0062 FFF7FEFF 		bl	chThdCreateStatic
 503              	.LVL36:
 504 0066 A060     		str	r0, [r4, #8]
 505              		.loc 1 198 0
 506 0068 FFF7FEFF 		bl	test_wait_threads
 507              	.LVL37:
 508              		.loc 1 199 0
 509 006c 0120     		mov	r0, #1
 510 006e 0F49     		ldr	r1, .L29+28
 511 0070 FFF7FEFF 		bl	_test_assert_sequence
ARM GAS  /tmp/cc71fNsA.s 			page 10


 512              	.LVL38:
 513 0074 0028     		cmp	r0, #0
 514 0076 06D1     		bne	.L27
 515              		.loc 1 200 0
 516 0078 4146     		mov	r1, r8
 517 007a 4246     		mov	r2, r8
 518 007c 6431     		add	r1, r1, #100
 519 007e 6932     		add	r2, r2, #105
 520 0080 0220     		mov	r0, #2
 521 0082 FFF7FEFF 		bl	_test_assert_time_window
 522              	.LVL39:
 523              	.L27:
 524              		.loc 1 201 0
 525 0086 04B0     		add	sp, sp, #16
 526              		@ sp needed
 527              	.LVL40:
 528 0088 04BC     		pop	{r2}
 529 008a 9046     		mov	r8, r2
 530 008c F0BD     		pop	{r4, r5, r6, r7, pc}
 531              	.L30:
 532 008e C046     		.align	2
 533              	.L29:
 534 0090 00000000 		.word	wa
 535 0094 00000000 		.word	vtlist
 536 0098 00000000 		.word	rlist
 537 009c 00000000 		.word	thread2H
 538 00a0 00000000 		.word	threads
 539 00a4 00000000 		.word	thread2M
 540 00a8 00000000 		.word	thread2L
 541 00ac 1C000000 		.word	.LC33
 542              		.cfi_endproc
 543              	.LFE14:
 544              		.size	mtx2_execute, .-mtx2_execute
 545              		.section	.text.mtx3_execute,"ax",%progbits
 546              		.align	2
 547              		.p2align 4,,15
 548              		.code	16
 549              		.thumb_func
 550              		.type	mtx3_execute, %function
 551              	mtx3_execute:
 552              	.LFB21:
 553              		.loc 1 308 0
 554              		.cfi_startproc
 555 0000 F0B5     		push	{r4, r5, r6, r7, lr}
 556              		.cfi_def_cfa_offset 20
 557              		.cfi_offset 4, -20
 558              		.cfi_offset 5, -16
 559              		.cfi_offset 6, -12
 560              		.cfi_offset 7, -8
 561              		.cfi_offset 14, -4
 562 0002 4746     		mov	r7, r8
 563 0004 80B4     		push	{r7}
 564              		.cfi_def_cfa_offset 24
 565              		.cfi_offset 8, -24
 566 0006 84B0     		sub	sp, sp, #16
 567              		.cfi_def_cfa_offset 40
 568              		.loc 1 311 0
ARM GAS  /tmp/cc71fNsA.s 			page 11


 569 0008 FFF7FEFF 		bl	test_wait_tick
 570              	.LVL41:
 571              		.loc 1 313 0
 572 000c 2D4F     		ldr	r7, .L33
 573              		.loc 1 312 0
 574 000e 2E4B     		ldr	r3, .L33+4
 575              		.loc 1 313 0
 576 0010 2E4E     		ldr	r6, .L33+8
 577              		.loc 1 312 0
 578 0012 DA68     		ldr	r2, [r3, #12]
 579              		.loc 1 313 0
 580 0014 3B68     		ldr	r3, [r7]
 581              		.loc 1 312 0
 582 0016 9046     		mov	r8, r2
 583              	.LVL42:
 584              		.loc 1 313 0
 585 0018 0393     		str	r3, [sp, #12]
 586 001a B369     		ldr	r3, [r6, #24]
 587 001c 0025     		mov	r5, #0
 588 001e 9A68     		ldr	r2, [r3, #8]
 589              	.LVL43:
 590 0020 9821     		mov	r1, #152
 591 0022 053A     		sub	r2, r2, #5
 592 0024 4900     		lsl	r1, r1, #1
 593 0026 2A4B     		ldr	r3, .L33+12
 594 0028 0095     		str	r5, [sp]
 595 002a 0398     		ldr	r0, [sp, #12]
 596 002c FFF7FEFF 		bl	chThdCreateStatic
 597              	.LVL44:
 598              		.loc 1 314 0
 599 0030 7A68     		ldr	r2, [r7, #4]
 600 0032 B369     		ldr	r3, [r6, #24]
 601              		.loc 1 313 0
 602 0034 274C     		ldr	r4, .L33+16
 603              		.loc 1 314 0
 604 0036 0392     		str	r2, [sp, #12]
 605 0038 9A68     		ldr	r2, [r3, #8]
 606 003a 9821     		mov	r1, #152
 607              		.loc 1 313 0
 608 003c 2060     		str	r0, [r4]
 609              		.loc 1 314 0
 610 003e 043A     		sub	r2, r2, #4
 611 0040 4900     		lsl	r1, r1, #1
 612 0042 254B     		ldr	r3, .L33+20
 613 0044 0095     		str	r5, [sp]
 614 0046 0398     		ldr	r0, [sp, #12]
 615 0048 FFF7FEFF 		bl	chThdCreateStatic
 616              	.LVL45:
 617              		.loc 1 315 0
 618 004c BB68     		ldr	r3, [r7, #8]
 619 004e 9821     		mov	r1, #152
 620 0050 0393     		str	r3, [sp, #12]
 621 0052 B369     		ldr	r3, [r6, #24]
 622              		.loc 1 314 0
 623 0054 6060     		str	r0, [r4, #4]
 624              		.loc 1 315 0
 625 0056 9A68     		ldr	r2, [r3, #8]
ARM GAS  /tmp/cc71fNsA.s 			page 12


 626 0058 4900     		lsl	r1, r1, #1
 627 005a 033A     		sub	r2, r2, #3
 628 005c 1F4B     		ldr	r3, .L33+24
 629 005e 0095     		str	r5, [sp]
 630 0060 0398     		ldr	r0, [sp, #12]
 631 0062 FFF7FEFF 		bl	chThdCreateStatic
 632              	.LVL46:
 633              		.loc 1 316 0
 634 0066 FA68     		ldr	r2, [r7, #12]
 635 0068 B369     		ldr	r3, [r6, #24]
 636 006a 0392     		str	r2, [sp, #12]
 637 006c 9A68     		ldr	r2, [r3, #8]
 638 006e 9821     		mov	r1, #152
 639              		.loc 1 315 0
 640 0070 A060     		str	r0, [r4, #8]
 641              		.loc 1 316 0
 642 0072 023A     		sub	r2, r2, #2
 643 0074 4900     		lsl	r1, r1, #1
 644 0076 1A4B     		ldr	r3, .L33+28
 645 0078 0095     		str	r5, [sp]
 646 007a 0398     		ldr	r0, [sp, #12]
 647 007c FFF7FEFF 		bl	chThdCreateStatic
 648              	.LVL47:
 649              		.loc 1 317 0
 650 0080 B369     		ldr	r3, [r6, #24]
 651 0082 3F69     		ldr	r7, [r7, #16]
 652 0084 9A68     		ldr	r2, [r3, #8]
 653 0086 9821     		mov	r1, #152
 654              		.loc 1 316 0
 655 0088 E060     		str	r0, [r4, #12]
 656              		.loc 1 317 0
 657 008a 4900     		lsl	r1, r1, #1
 658 008c 013A     		sub	r2, r2, #1
 659 008e 154B     		ldr	r3, .L33+32
 660 0090 0095     		str	r5, [sp]
 661 0092 381C     		mov	r0, r7
 662 0094 0397     		str	r7, [sp, #12]
 663 0096 FFF7FEFF 		bl	chThdCreateStatic
 664              	.LVL48:
 665 009a 2061     		str	r0, [r4, #16]
 666              		.loc 1 318 0
 667 009c FFF7FEFF 		bl	test_wait_threads
 668              	.LVL49:
 669              		.loc 1 319 0
 670 00a0 0120     		mov	r0, #1
 671 00a2 1149     		ldr	r1, .L33+36
 672 00a4 FFF7FEFF 		bl	_test_assert_sequence
 673              	.LVL50:
 674 00a8 0028     		cmp	r0, #0
 675 00aa 06D1     		bne	.L31
 676              		.loc 1 320 0
 677 00ac 4146     		mov	r1, r8
 678 00ae 4246     		mov	r2, r8
 679 00b0 6E31     		add	r1, r1, #110
 680 00b2 7332     		add	r2, r2, #115
 681 00b4 0220     		mov	r0, #2
 682 00b6 FFF7FEFF 		bl	_test_assert_time_window
ARM GAS  /tmp/cc71fNsA.s 			page 13


 683              	.LVL51:
 684              	.L31:
 685              		.loc 1 321 0
 686 00ba 04B0     		add	sp, sp, #16
 687              		@ sp needed
 688              	.LVL52:
 689 00bc 04BC     		pop	{r2}
 690 00be 9046     		mov	r8, r2
 691 00c0 F0BD     		pop	{r4, r5, r6, r7, pc}
 692              	.L34:
 693 00c2 C046     		.align	2
 694              	.L33:
 695 00c4 00000000 		.word	wa
 696 00c8 00000000 		.word	vtlist
 697 00cc 00000000 		.word	rlist
 698 00d0 00000000 		.word	thread3LL
 699 00d4 00000000 		.word	threads
 700 00d8 00000000 		.word	thread3L
 701 00dc 00000000 		.word	thread3M
 702 00e0 00000000 		.word	thread3H
 703 00e4 00000000 		.word	thread3HH
 704 00e8 14000000 		.word	.LC15
 705              		.cfi_endproc
 706              	.LFE21:
 707              		.size	mtx3_execute, .-mtx3_execute
 708 00ec C046C046 		.section	.text.thread2L,"ax",%progbits
 709              		.align	2
 710              		.p2align 4,,15
 711              		.code	16
 712              		.thumb_func
 713              		.type	thread2L, %function
 714              	thread2L:
 715              	.LFB11:
 716              		.loc 1 157 0
 717              		.cfi_startproc
 718              	.LVL53:
 719 0000 08B5     		push	{r3, lr}
 720              		.cfi_def_cfa_offset 8
 721              		.cfi_offset 3, -8
 722              		.cfi_offset 14, -4
 723              		.loc 1 160 0
 724 0002 0848     		ldr	r0, .L36
 725              	.LVL54:
 726 0004 FFF7FEFF 		bl	chMtxLock
 727              	.LVL55:
 728              		.loc 1 161 0
 729 0008 2820     		mov	r0, #40
 730 000a FFF7FEFF 		bl	test_cpu_pulse
 731              	.LVL56:
 732              		.loc 1 162 0
 733 000e FFF7FEFF 		bl	chMtxUnlock
 734              	.LVL57:
 735              		.loc 1 163 0
 736 0012 0A20     		mov	r0, #10
 737 0014 FFF7FEFF 		bl	test_cpu_pulse
 738              	.LVL58:
 739              		.loc 1 164 0
ARM GAS  /tmp/cc71fNsA.s 			page 14


 740 0018 4320     		mov	r0, #67
 741 001a FFF7FEFF 		bl	test_emit_token
 742              	.LVL59:
 743              		.loc 1 166 0
 744              		@ sp needed
 745 001e 0020     		mov	r0, #0
 746 0020 08BD     		pop	{r3, pc}
 747              	.L37:
 748 0022 C046     		.align	2
 749              	.L36:
 750 0024 00000000 		.word	.LANCHOR0
 751              		.cfi_endproc
 752              	.LFE11:
 753              		.size	thread2L, .-thread2L
 754 0028 C046C046 		.section	.text.thread3LL,"ax",%progbits
 754      C046C046 
 755              		.align	2
 756              		.p2align 4,,15
 757              		.code	16
 758              		.thumb_func
 759              		.type	thread3LL, %function
 760              	thread3LL:
 761              	.LFB16:
 762              		.loc 1 248 0
 763              		.cfi_startproc
 764              	.LVL60:
 765 0000 08B5     		push	{r3, lr}
 766              		.cfi_def_cfa_offset 8
 767              		.cfi_offset 3, -8
 768              		.cfi_offset 14, -4
 769              		.loc 1 251 0
 770 0002 0648     		ldr	r0, .L39
 771              	.LVL61:
 772 0004 FFF7FEFF 		bl	chMtxLock
 773              	.LVL62:
 774              		.loc 1 252 0
 775 0008 1E20     		mov	r0, #30
 776 000a FFF7FEFF 		bl	test_cpu_pulse
 777              	.LVL63:
 778              		.loc 1 253 0
 779 000e FFF7FEFF 		bl	chMtxUnlock
 780              	.LVL64:
 781              		.loc 1 254 0
 782 0012 4520     		mov	r0, #69
 783 0014 FFF7FEFF 		bl	test_emit_token
 784              	.LVL65:
 785              		.loc 1 256 0
 786              		@ sp needed
 787 0018 0020     		mov	r0, #0
 788 001a 08BD     		pop	{r3, pc}
 789              	.L40:
 790              		.align	2
 791              	.L39:
 792 001c 00000000 		.word	.LANCHOR0
 793              		.cfi_endproc
 794              	.LFE16:
 795              		.size	thread3LL, .-thread3LL
ARM GAS  /tmp/cc71fNsA.s 			page 15


 796              		.section	.text.thread2M,"ax",%progbits
 797              		.align	2
 798              		.p2align 4,,15
 799              		.code	16
 800              		.thumb_func
 801              		.type	thread2M, %function
 802              	thread2M:
 803              	.LFB12:
 804              		.loc 1 169 0
 805              		.cfi_startproc
 806              	.LVL66:
 807 0000 08B5     		push	{r3, lr}
 808              		.cfi_def_cfa_offset 8
 809              		.cfi_offset 3, -8
 810              		.cfi_offset 14, -4
 811              		.loc 1 172 0
 812 0002 1420     		mov	r0, #20
 813              	.LVL67:
 814 0004 FFF7FEFF 		bl	chThdSleep
 815              	.LVL68:
 816              		.loc 1 173 0
 817 0008 2820     		mov	r0, #40
 818 000a FFF7FEFF 		bl	test_cpu_pulse
 819              	.LVL69:
 820              		.loc 1 174 0
 821 000e 4220     		mov	r0, #66
 822 0010 FFF7FEFF 		bl	test_emit_token
 823              	.LVL70:
 824              		.loc 1 176 0
 825              		@ sp needed
 826 0014 0020     		mov	r0, #0
 827 0016 08BD     		pop	{r3, pc}
 828              		.cfi_endproc
 829              	.LFE12:
 830              		.size	thread2M, .-thread2M
 831 0018 C046C046 		.section	.text.thread2H,"ax",%progbits
 831      C046C046 
 832              		.align	2
 833              		.p2align 4,,15
 834              		.code	16
 835              		.thumb_func
 836              		.type	thread2H, %function
 837              	thread2H:
 838              	.LFB13:
 839              		.loc 1 179 0
 840              		.cfi_startproc
 841              	.LVL71:
 842 0000 08B5     		push	{r3, lr}
 843              		.cfi_def_cfa_offset 8
 844              		.cfi_offset 3, -8
 845              		.cfi_offset 14, -4
 846              		.loc 1 182 0
 847 0002 2820     		mov	r0, #40
 848              	.LVL72:
 849 0004 FFF7FEFF 		bl	chThdSleep
 850              	.LVL73:
 851              		.loc 1 183 0
ARM GAS  /tmp/cc71fNsA.s 			page 16


 852 0008 0648     		ldr	r0, .L43
 853 000a FFF7FEFF 		bl	chMtxLock
 854              	.LVL74:
 855              		.loc 1 184 0
 856 000e 0A20     		mov	r0, #10
 857 0010 FFF7FEFF 		bl	test_cpu_pulse
 858              	.LVL75:
 859              		.loc 1 185 0
 860 0014 FFF7FEFF 		bl	chMtxUnlock
 861              	.LVL76:
 862              		.loc 1 186 0
 863 0018 4120     		mov	r0, #65
 864 001a FFF7FEFF 		bl	test_emit_token
 865              	.LVL77:
 866              		.loc 1 188 0
 867              		@ sp needed
 868 001e 0020     		mov	r0, #0
 869 0020 08BD     		pop	{r3, pc}
 870              	.L44:
 871 0022 C046     		.align	2
 872              	.L43:
 873 0024 00000000 		.word	.LANCHOR0
 874              		.cfi_endproc
 875              	.LFE13:
 876              		.size	thread2H, .-thread2H
 877 0028 C046C046 		.section	.text.thread3HH,"ax",%progbits
 877      C046C046 
 878              		.align	2
 879              		.p2align 4,,15
 880              		.code	16
 881              		.thumb_func
 882              		.type	thread3HH, %function
 883              	thread3HH:
 884              	.LFB20:
 885              		.loc 1 297 0
 886              		.cfi_startproc
 887              	.LVL78:
 888 0000 08B5     		push	{r3, lr}
 889              		.cfi_def_cfa_offset 8
 890              		.cfi_offset 3, -8
 891              		.cfi_offset 14, -4
 892              		.loc 1 300 0
 893 0002 3220     		mov	r0, #50
 894              	.LVL79:
 895 0004 FFF7FEFF 		bl	chThdSleep
 896              	.LVL80:
 897              		.loc 1 301 0
 898 0008 0648     		ldr	r0, .L46
 899 000a FFF7FEFF 		bl	chMtxLock
 900              	.LVL81:
 901              		.loc 1 302 0
 902 000e 0A20     		mov	r0, #10
 903 0010 FFF7FEFF 		bl	test_cpu_pulse
 904              	.LVL82:
 905              		.loc 1 303 0
 906 0014 FFF7FEFF 		bl	chMtxUnlock
 907              	.LVL83:
ARM GAS  /tmp/cc71fNsA.s 			page 17


 908              		.loc 1 304 0
 909 0018 4120     		mov	r0, #65
 910 001a FFF7FEFF 		bl	test_emit_token
 911              	.LVL84:
 912              		.loc 1 306 0
 913              		@ sp needed
 914 001e 0020     		mov	r0, #0
 915 0020 08BD     		pop	{r3, pc}
 916              	.L47:
 917 0022 C046     		.align	2
 918              	.L46:
 919 0024 00000000 		.word	.LANCHOR1
 920              		.cfi_endproc
 921              	.LFE20:
 922              		.size	thread3HH, .-thread3HH
 923 0028 C046C046 		.section	.text.thread3H,"ax",%progbits
 923      C046C046 
 924              		.align	2
 925              		.p2align 4,,15
 926              		.code	16
 927              		.thumb_func
 928              		.type	thread3H, %function
 929              	thread3H:
 930              	.LFB19:
 931              		.loc 1 287 0
 932              		.cfi_startproc
 933              	.LVL85:
 934 0000 08B5     		push	{r3, lr}
 935              		.cfi_def_cfa_offset 8
 936              		.cfi_offset 3, -8
 937              		.cfi_offset 14, -4
 938              		.loc 1 290 0
 939 0002 2820     		mov	r0, #40
 940              	.LVL86:
 941 0004 FFF7FEFF 		bl	chThdSleep
 942              	.LVL87:
 943              		.loc 1 291 0
 944 0008 1420     		mov	r0, #20
 945 000a FFF7FEFF 		bl	test_cpu_pulse
 946              	.LVL88:
 947              		.loc 1 292 0
 948 000e 4220     		mov	r0, #66
 949 0010 FFF7FEFF 		bl	test_emit_token
 950              	.LVL89:
 951              		.loc 1 294 0
 952              		@ sp needed
 953 0014 0020     		mov	r0, #0
 954 0016 08BD     		pop	{r3, pc}
 955              		.cfi_endproc
 956              	.LFE19:
 957              		.size	thread3H, .-thread3H
 958 0018 C046C046 		.section	.text.thread3M,"ax",%progbits
 958      C046C046 
 959              		.align	2
 960              		.p2align 4,,15
 961              		.code	16
 962              		.thumb_func
ARM GAS  /tmp/cc71fNsA.s 			page 18


 963              		.type	thread3M, %function
 964              	thread3M:
 965              	.LFB18:
 966              		.loc 1 275 0
 967              		.cfi_startproc
 968              	.LVL90:
 969 0000 08B5     		push	{r3, lr}
 970              		.cfi_def_cfa_offset 8
 971              		.cfi_offset 3, -8
 972              		.cfi_offset 14, -4
 973              		.loc 1 278 0
 974 0002 1420     		mov	r0, #20
 975              	.LVL91:
 976 0004 FFF7FEFF 		bl	chThdSleep
 977              	.LVL92:
 978              		.loc 1 279 0
 979 0008 0648     		ldr	r0, .L50
 980 000a FFF7FEFF 		bl	chMtxLock
 981              	.LVL93:
 982              		.loc 1 280 0
 983 000e 0A20     		mov	r0, #10
 984 0010 FFF7FEFF 		bl	test_cpu_pulse
 985              	.LVL94:
 986              		.loc 1 281 0
 987 0014 FFF7FEFF 		bl	chMtxUnlock
 988              	.LVL95:
 989              		.loc 1 282 0
 990 0018 4320     		mov	r0, #67
 991 001a FFF7FEFF 		bl	test_emit_token
 992              	.LVL96:
 993              		.loc 1 284 0
 994              		@ sp needed
 995 001e 0020     		mov	r0, #0
 996 0020 08BD     		pop	{r3, pc}
 997              	.L51:
 998 0022 C046     		.align	2
 999              	.L50:
 1000 0024 00000000 		.word	.LANCHOR1
 1001              		.cfi_endproc
 1002              	.LFE18:
 1003              		.size	thread3M, .-thread3M
 1004 0028 C046C046 		.section	.text.thread3L,"ax",%progbits
 1004      C046C046 
 1005              		.align	2
 1006              		.p2align 4,,15
 1007              		.code	16
 1008              		.thumb_func
 1009              		.type	thread3L, %function
 1010              	thread3L:
 1011              	.LFB17:
 1012              		.loc 1 259 0
 1013              		.cfi_startproc
 1014              	.LVL97:
 1015 0000 08B5     		push	{r3, lr}
 1016              		.cfi_def_cfa_offset 8
 1017              		.cfi_offset 3, -8
 1018              		.cfi_offset 14, -4
ARM GAS  /tmp/cc71fNsA.s 			page 19


 1019              		.loc 1 262 0
 1020 0002 0A20     		mov	r0, #10
 1021              	.LVL98:
 1022 0004 FFF7FEFF 		bl	chThdSleep
 1023              	.LVL99:
 1024              		.loc 1 263 0
 1025 0008 0B48     		ldr	r0, .L53
 1026 000a FFF7FEFF 		bl	chMtxLock
 1027              	.LVL100:
 1028              		.loc 1 264 0
 1029 000e 1420     		mov	r0, #20
 1030 0010 FFF7FEFF 		bl	test_cpu_pulse
 1031              	.LVL101:
 1032              		.loc 1 265 0
 1033 0014 0948     		ldr	r0, .L53+4
 1034 0016 FFF7FEFF 		bl	chMtxLock
 1035              	.LVL102:
 1036              		.loc 1 266 0
 1037 001a 0A20     		mov	r0, #10
 1038 001c FFF7FEFF 		bl	test_cpu_pulse
 1039              	.LVL103:
 1040              		.loc 1 267 0
 1041 0020 FFF7FEFF 		bl	chMtxUnlock
 1042              	.LVL104:
 1043              		.loc 1 268 0
 1044 0024 0A20     		mov	r0, #10
 1045 0026 FFF7FEFF 		bl	test_cpu_pulse
 1046              	.LVL105:
 1047              		.loc 1 269 0
 1048 002a FFF7FEFF 		bl	chMtxUnlock
 1049              	.LVL106:
 1050              		.loc 1 270 0
 1051 002e 4420     		mov	r0, #68
 1052 0030 FFF7FEFF 		bl	test_emit_token
 1053              	.LVL107:
 1054              		.loc 1 272 0
 1055              		@ sp needed
 1056 0034 0020     		mov	r0, #0
 1057 0036 08BD     		pop	{r3, pc}
 1058              	.L54:
 1059              		.align	2
 1060              	.L53:
 1061 0038 00000000 		.word	.LANCHOR1
 1062 003c 00000000 		.word	.LANCHOR0
 1063              		.cfi_endproc
 1064              	.LFE17:
 1065              		.size	thread3L, .-thread3L
 1066              		.section	.text.thread4b,"ax",%progbits
 1067              		.align	2
 1068              		.p2align 4,,15
 1069              		.code	16
 1070              		.thumb_func
 1071              		.type	thread4b, %function
 1072              	thread4b:
 1073              	.LFB24:
 1074              		.loc 1 356 0
 1075              		.cfi_startproc
ARM GAS  /tmp/cc71fNsA.s 			page 20


 1076              	.LVL108:
 1077 0000 08B5     		push	{r3, lr}
 1078              		.cfi_def_cfa_offset 8
 1079              		.cfi_offset 3, -8
 1080              		.cfi_offset 14, -4
 1081              		.loc 1 359 0
 1082 0002 9620     		mov	r0, #150
 1083              	.LVL109:
 1084 0004 FFF7FEFF 		bl	chThdSleep
 1085              	.LVL110:
 1086              		.loc 1 360 0
 1087 0008 0348     		ldr	r0, .L56
 1088 000a FFF7FEFF 		bl	chMtxLock
 1089              	.LVL111:
 1090              		.loc 1 363 0
 1091              		@ sp needed
 1092              		.loc 1 361 0
 1093 000e FFF7FEFF 		bl	chMtxUnlock
 1094              	.LVL112:
 1095              		.loc 1 363 0
 1096 0012 0020     		mov	r0, #0
 1097 0014 08BD     		pop	{r3, pc}
 1098              	.L57:
 1099 0016 C046     		.align	2
 1100              	.L56:
 1101 0018 00000000 		.word	.LANCHOR0
 1102              		.cfi_endproc
 1103              	.LFE24:
 1104              		.size	thread4b, .-thread4b
 1105 001c C046C046 		.section	.text.thread4a,"ax",%progbits
 1106              		.align	2
 1107              		.p2align 4,,15
 1108              		.code	16
 1109              		.thumb_func
 1110              		.type	thread4a, %function
 1111              	thread4a:
 1112              	.LFB23:
 1113              		.loc 1 347 0
 1114              		.cfi_startproc
 1115              	.LVL113:
 1116 0000 08B5     		push	{r3, lr}
 1117              		.cfi_def_cfa_offset 8
 1118              		.cfi_offset 3, -8
 1119              		.cfi_offset 14, -4
 1120              		.loc 1 350 0
 1121 0002 3220     		mov	r0, #50
 1122              	.LVL114:
 1123 0004 FFF7FEFF 		bl	chThdSleep
 1124              	.LVL115:
 1125              		.loc 1 351 0
 1126 0008 0348     		ldr	r0, .L59
 1127 000a FFF7FEFF 		bl	chMtxLock
 1128              	.LVL116:
 1129              		.loc 1 354 0
 1130              		@ sp needed
 1131              		.loc 1 352 0
 1132 000e FFF7FEFF 		bl	chMtxUnlock
ARM GAS  /tmp/cc71fNsA.s 			page 21


 1133              	.LVL117:
 1134              		.loc 1 354 0
 1135 0012 0020     		mov	r0, #0
 1136 0014 08BD     		pop	{r3, pc}
 1137              	.L60:
 1138 0016 C046     		.align	2
 1139              	.L59:
 1140 0018 00000000 		.word	.LANCHOR1
 1141              		.cfi_endproc
 1142              	.LFE23:
 1143              		.size	thread4a, .-thread4a
 1144 001c C046C046 		.section	.text.mtx4_execute,"ax",%progbits
 1145              		.align	2
 1146              		.p2align 4,,15
 1147              		.code	16
 1148              		.thumb_func
 1149              		.type	mtx4_execute, %function
 1150              	mtx4_execute:
 1151              	.LFB25:
 1152              		.loc 1 365 0
 1153              		.cfi_startproc
 1154 0000 F0B5     		push	{r4, r5, r6, r7, lr}
 1155              		.cfi_def_cfa_offset 20
 1156              		.cfi_offset 4, -20
 1157              		.cfi_offset 5, -16
 1158              		.cfi_offset 6, -12
 1159              		.cfi_offset 7, -8
 1160              		.cfi_offset 14, -4
 1161 0002 5F46     		mov	r7, fp
 1162 0004 5646     		mov	r6, r10
 1163 0006 4D46     		mov	r5, r9
 1164 0008 4446     		mov	r4, r8
 1165 000a F0B4     		push	{r4, r5, r6, r7}
 1166              		.cfi_def_cfa_offset 36
 1167              		.cfi_offset 8, -36
 1168              		.cfi_offset 9, -32
 1169              		.cfi_offset 10, -28
 1170              		.cfi_offset 11, -24
 1171              		.loc 1 368 0
 1172 000c 8A4D     		ldr	r5, .L66
 1173              		.loc 1 365 0
 1174 000e 85B0     		sub	sp, sp, #20
 1175              		.cfi_def_cfa_offset 56
 1176              		.loc 1 368 0
 1177 0010 AB69     		ldr	r3, [r5, #24]
 1178              		.loc 1 371 0
 1179 0012 9821     		mov	r1, #152
 1180              		.loc 1 368 0
 1181 0014 9C68     		ldr	r4, [r3, #8]
 1182              	.LVL118:
 1183              		.loc 1 371 0
 1184 0016 4900     		lsl	r1, r1, #1
 1185              		.loc 1 370 0
 1186 0018 A31C     		add	r3, r4, #2
 1187 001a 9846     		mov	r8, r3
 1188              		.loc 1 371 0
 1189 001c 874B     		ldr	r3, .L66+4
ARM GAS  /tmp/cc71fNsA.s 			page 22


 1190              		.loc 1 369 0
 1191 001e 671C     		add	r7, r4, #1
 1192              	.LVL119:
 1193              		.loc 1 371 0
 1194 0020 9946     		mov	r9, r3
 1195 0022 1B68     		ldr	r3, [r3]
 1196 0024 3A1C     		mov	r2, r7
 1197 0026 0293     		str	r3, [sp, #8]
 1198 0028 854B     		ldr	r3, .L66+8
 1199 002a 0298     		ldr	r0, [sp, #8]
 1200 002c 9B46     		mov	fp, r3
 1201 002e 854B     		ldr	r3, .L66+12
 1202 0030 0093     		str	r3, [sp]
 1203 0032 5B46     		mov	r3, fp
 1204 0034 FFF7FEFF 		bl	chThdCreateStatic
 1205              	.LVL120:
 1206              		.loc 1 372 0
 1207 0038 4B46     		mov	r3, r9
 1208 003a 5B68     		ldr	r3, [r3, #4]
 1209              		.loc 1 371 0
 1210 003c 824E     		ldr	r6, .L66+16
 1211              		.loc 1 372 0
 1212 003e 0393     		str	r3, [sp, #12]
 1213 0040 824B     		ldr	r3, .L66+20
 1214 0042 9821     		mov	r1, #152
 1215 0044 9A46     		mov	r10, r3
 1216 0046 824B     		ldr	r3, .L66+24
 1217              		.loc 1 371 0
 1218 0048 3060     		str	r0, [r6]
 1219              		.loc 1 372 0
 1220 004a 4900     		lsl	r1, r1, #1
 1221 004c 0093     		str	r3, [sp]
 1222 004e 4246     		mov	r2, r8
 1223 0050 5346     		mov	r3, r10
 1224 0052 0398     		ldr	r0, [sp, #12]
 1225 0054 FFF7FEFF 		bl	chThdCreateStatic
 1226              	.LVL121:
 1227              		.loc 1 373 0
 1228 0058 7E4B     		ldr	r3, .L66+28
 1229              		.loc 1 372 0
 1230 005a 7060     		str	r0, [r6, #4]
 1231              		.loc 1 373 0
 1232 005c 181C     		mov	r0, r3
 1233 005e 9946     		mov	r9, r3
 1234 0060 FFF7FEFF 		bl	chMtxLock
 1235              	.LVL122:
 1236              		.loc 1 374 0
 1237 0064 AB69     		ldr	r3, [r5, #24]
 1238 0066 0120     		mov	r0, #1
 1239 0068 9968     		ldr	r1, [r3, #8]
 1240 006a 091B     		sub	r1, r1, r4
 1241 006c 4B42     		neg	r3, r1
 1242 006e 5941     		adc	r1, r1, r3
 1243 0070 C9B2     		uxtb	r1, r1
 1244 0072 FFF7FEFF 		bl	_test_assert
 1245              	.LVL123:
 1246 0076 0028     		cmp	r0, #0
ARM GAS  /tmp/cc71fNsA.s 			page 23


 1247 0078 06D0     		beq	.L65
 1248              	.LVL124:
 1249              	.L61:
 1250              		.loc 1 410 0
 1251 007a 05B0     		add	sp, sp, #20
 1252              		@ sp needed
 1253              	.LVL125:
 1254 007c 3CBC     		pop	{r2, r3, r4, r5}
 1255 007e 9046     		mov	r8, r2
 1256 0080 9946     		mov	r9, r3
 1257 0082 A246     		mov	r10, r4
 1258 0084 AB46     		mov	fp, r5
 1259 0086 F0BD     		pop	{r4, r5, r6, r7, pc}
 1260              	.LVL126:
 1261              	.L65:
 1262              		.loc 1 375 0
 1263 0088 6420     		mov	r0, #100
 1264 008a FFF7FEFF 		bl	chThdSleep
 1265              	.LVL127:
 1266              		.loc 1 376 0
 1267 008e AB69     		ldr	r3, [r5, #24]
 1268 0090 0220     		mov	r0, #2
 1269 0092 9968     		ldr	r1, [r3, #8]
 1270 0094 C91B     		sub	r1, r1, r7
 1271 0096 4B42     		neg	r3, r1
 1272 0098 5941     		adc	r1, r1, r3
 1273 009a C9B2     		uxtb	r1, r1
 1274 009c FFF7FEFF 		bl	_test_assert
 1275              	.LVL128:
 1276 00a0 0028     		cmp	r0, #0
 1277 00a2 EAD1     		bne	.L61
 1278              		.loc 1 377 0
 1279 00a4 6C48     		ldr	r0, .L66+32
 1280 00a6 FFF7FEFF 		bl	chMtxLock
 1281              	.LVL129:
 1282              		.loc 1 378 0
 1283 00aa AB69     		ldr	r3, [r5, #24]
 1284 00ac 0320     		mov	r0, #3
 1285 00ae 9968     		ldr	r1, [r3, #8]
 1286 00b0 C91B     		sub	r1, r1, r7
 1287 00b2 4B42     		neg	r3, r1
 1288 00b4 5941     		adc	r1, r1, r3
 1289 00b6 C9B2     		uxtb	r1, r1
 1290 00b8 FFF7FEFF 		bl	_test_assert
 1291              	.LVL130:
 1292 00bc 0028     		cmp	r0, #0
 1293 00be DCD1     		bne	.L61
 1294              		.loc 1 379 0
 1295 00c0 6420     		mov	r0, #100
 1296 00c2 FFF7FEFF 		bl	chThdSleep
 1297              	.LVL131:
 1298              		.loc 1 380 0
 1299 00c6 AB69     		ldr	r3, [r5, #24]
 1300 00c8 0420     		mov	r0, #4
 1301 00ca 9968     		ldr	r1, [r3, #8]
 1302 00cc 4346     		mov	r3, r8
 1303 00ce C91A     		sub	r1, r1, r3
ARM GAS  /tmp/cc71fNsA.s 			page 24


 1304 00d0 4B42     		neg	r3, r1
 1305 00d2 5941     		adc	r1, r1, r3
 1306 00d4 C9B2     		uxtb	r1, r1
 1307 00d6 FFF7FEFF 		bl	_test_assert
 1308              	.LVL132:
 1309 00da 0028     		cmp	r0, #0
 1310 00dc CDD1     		bne	.L61
 1311              		.loc 1 381 0
 1312 00de FFF7FEFF 		bl	chMtxUnlock
 1313              	.LVL133:
 1314              		.loc 1 382 0
 1315 00e2 AB69     		ldr	r3, [r5, #24]
 1316 00e4 0520     		mov	r0, #5
 1317 00e6 9968     		ldr	r1, [r3, #8]
 1318 00e8 C91B     		sub	r1, r1, r7
 1319 00ea 4B42     		neg	r3, r1
 1320 00ec 5941     		adc	r1, r1, r3
 1321 00ee C9B2     		uxtb	r1, r1
 1322 00f0 FFF7FEFF 		bl	_test_assert
 1323              	.LVL134:
 1324 00f4 0028     		cmp	r0, #0
 1325 00f6 C0D1     		bne	.L61
 1326              		.loc 1 383 0
 1327 00f8 6420     		mov	r0, #100
 1328 00fa FFF7FEFF 		bl	chThdSleep
 1329              	.LVL135:
 1330              		.loc 1 384 0
 1331 00fe AB69     		ldr	r3, [r5, #24]
 1332 0100 0620     		mov	r0, #6
 1333 0102 9968     		ldr	r1, [r3, #8]
 1334 0104 C91B     		sub	r1, r1, r7
 1335 0106 4B42     		neg	r3, r1
 1336 0108 5941     		adc	r1, r1, r3
 1337 010a C9B2     		uxtb	r1, r1
 1338 010c FFF7FEFF 		bl	_test_assert
 1339              	.LVL136:
 1340 0110 0028     		cmp	r0, #0
 1341 0112 B2D1     		bne	.L61
 1342              		.loc 1 385 0
 1343 0114 FFF7FEFF 		bl	chMtxUnlockAll
 1344              	.LVL137:
 1345              		.loc 1 386 0
 1346 0118 AB69     		ldr	r3, [r5, #24]
 1347 011a 0720     		mov	r0, #7
 1348 011c 9968     		ldr	r1, [r3, #8]
 1349 011e 091B     		sub	r1, r1, r4
 1350 0120 4B42     		neg	r3, r1
 1351 0122 5941     		adc	r1, r1, r3
 1352 0124 C9B2     		uxtb	r1, r1
 1353 0126 FFF7FEFF 		bl	_test_assert
 1354              	.LVL138:
 1355 012a 0028     		cmp	r0, #0
 1356 012c A5D1     		bne	.L61
 1357              		.loc 1 387 0
 1358 012e FFF7FEFF 		bl	test_wait_threads
 1359              	.LVL139:
 1360              		.loc 1 390 0
ARM GAS  /tmp/cc71fNsA.s 			page 25


 1361 0132 4A4B     		ldr	r3, .L66+36
 1362 0134 9821     		mov	r1, #152
 1363 0136 0093     		str	r3, [sp]
 1364 0138 4900     		lsl	r1, r1, #1
 1365 013a 3A1C     		mov	r2, r7
 1366 013c 5B46     		mov	r3, fp
 1367 013e 0298     		ldr	r0, [sp, #8]
 1368 0140 FFF7FEFF 		bl	chThdCreateStatic
 1369              	.LVL140:
 1370              		.loc 1 391 0
 1371 0144 464B     		ldr	r3, .L66+40
 1372 0146 9821     		mov	r1, #152
 1373              		.loc 1 390 0
 1374 0148 3060     		str	r0, [r6]
 1375              		.loc 1 391 0
 1376 014a 4900     		lsl	r1, r1, #1
 1377 014c 0093     		str	r3, [sp]
 1378 014e 4246     		mov	r2, r8
 1379 0150 5346     		mov	r3, r10
 1380 0152 0398     		ldr	r0, [sp, #12]
 1381 0154 FFF7FEFF 		bl	chThdCreateStatic
 1382              	.LVL141:
 1383 0158 7060     		str	r0, [r6, #4]
 1384              		.loc 1 392 0
 1385 015a 4846     		mov	r0, r9
 1386 015c FFF7FEFF 		bl	chMtxLock
 1387              	.LVL142:
 1388              		.loc 1 393 0
 1389 0160 AB69     		ldr	r3, [r5, #24]
 1390 0162 0820     		mov	r0, #8
 1391 0164 9968     		ldr	r1, [r3, #8]
 1392 0166 091B     		sub	r1, r1, r4
 1393 0168 4B42     		neg	r3, r1
 1394 016a 5941     		adc	r1, r1, r3
 1395 016c C9B2     		uxtb	r1, r1
 1396 016e FFF7FEFF 		bl	_test_assert
 1397              	.LVL143:
 1398 0172 0028     		cmp	r0, #0
 1399 0174 00D0     		beq	.LCB1133
 1400 0176 80E7     		b	.L61	@long jump
 1401              	.LCB1133:
 1402              		.loc 1 394 0
 1403 0178 6420     		mov	r0, #100
 1404 017a FFF7FEFF 		bl	chThdSleep
 1405              	.LVL144:
 1406              		.loc 1 395 0
 1407 017e AB69     		ldr	r3, [r5, #24]
 1408 0180 0920     		mov	r0, #9
 1409 0182 9968     		ldr	r1, [r3, #8]
 1410 0184 C91B     		sub	r1, r1, r7
 1411 0186 4B42     		neg	r3, r1
 1412 0188 5941     		adc	r1, r1, r3
 1413 018a C9B2     		uxtb	r1, r1
 1414 018c FFF7FEFF 		bl	_test_assert
 1415              	.LVL145:
 1416 0190 0028     		cmp	r0, #0
 1417 0192 00D0     		beq	.LCB1146
ARM GAS  /tmp/cc71fNsA.s 			page 26


 1418 0194 71E7     		b	.L61	@long jump
 1419              	.LCB1146:
 1420              		.loc 1 396 0
 1421 0196 3048     		ldr	r0, .L66+32
 1422 0198 FFF7FEFF 		bl	chMtxLock
 1423              	.LVL146:
 1424              		.loc 1 397 0
 1425 019c AB69     		ldr	r3, [r5, #24]
 1426 019e 0A20     		mov	r0, #10
 1427 01a0 9968     		ldr	r1, [r3, #8]
 1428 01a2 C91B     		sub	r1, r1, r7
 1429 01a4 4B42     		neg	r3, r1
 1430 01a6 5941     		adc	r1, r1, r3
 1431 01a8 C9B2     		uxtb	r1, r1
 1432 01aa FFF7FEFF 		bl	_test_assert
 1433              	.LVL147:
 1434 01ae 0028     		cmp	r0, #0
 1435 01b0 00D0     		beq	.LCB1159
 1436 01b2 62E7     		b	.L61	@long jump
 1437              	.LCB1159:
 1438              		.loc 1 398 0
 1439 01b4 6420     		mov	r0, #100
 1440 01b6 FFF7FEFF 		bl	chThdSleep
 1441              	.LVL148:
 1442              		.loc 1 399 0
 1443 01ba AB69     		ldr	r3, [r5, #24]
 1444 01bc 0B20     		mov	r0, #11
 1445 01be 9968     		ldr	r1, [r3, #8]
 1446 01c0 4346     		mov	r3, r8
 1447 01c2 C91A     		sub	r1, r1, r3
 1448 01c4 4B42     		neg	r3, r1
 1449 01c6 5941     		adc	r1, r1, r3
 1450 01c8 C9B2     		uxtb	r1, r1
 1451 01ca FFF7FEFF 		bl	_test_assert
 1452              	.LVL149:
 1453 01ce 0028     		cmp	r0, #0
 1454 01d0 00D0     		beq	.LCB1173
 1455 01d2 52E7     		b	.L61	@long jump
 1456              	.LCB1173:
 1457              		.loc 1 400 0
 1458              	@ 400 "../../test/testmtx.c" 1
 1459 01d4 72B6     		cpsid   i
 1460              	@ 0 "" 2
 1461              		.loc 1 401 0
 1462              		.code	16
 1463 01d6 FFF7FEFF 		bl	chMtxUnlockS
 1464              	.LVL150:
 1465              		.loc 1 402 0
 1466 01da FFF7FEFF 		bl	chSchRescheduleS
 1467              	.LVL151:
 1468              		.loc 1 403 0
 1469              	@ 403 "../../test/testmtx.c" 1
 1470 01de 62B6     		cpsie   i
 1471              	@ 0 "" 2
 1472              		.loc 1 404 0
 1473              		.code	16
 1474 01e0 AB69     		ldr	r3, [r5, #24]
ARM GAS  /tmp/cc71fNsA.s 			page 27


 1475 01e2 0C20     		mov	r0, #12
 1476 01e4 9968     		ldr	r1, [r3, #8]
 1477 01e6 C91B     		sub	r1, r1, r7
 1478 01e8 4B42     		neg	r3, r1
 1479 01ea 5941     		adc	r1, r1, r3
 1480 01ec C9B2     		uxtb	r1, r1
 1481 01ee FFF7FEFF 		bl	_test_assert
 1482              	.LVL152:
 1483 01f2 0028     		cmp	r0, #0
 1484 01f4 00D0     		beq	.LCB1189
 1485 01f6 40E7     		b	.L61	@long jump
 1486              	.LCB1189:
 1487              		.loc 1 405 0
 1488 01f8 6420     		mov	r0, #100
 1489 01fa FFF7FEFF 		bl	chThdSleep
 1490              	.LVL153:
 1491              		.loc 1 406 0
 1492 01fe AB69     		ldr	r3, [r5, #24]
 1493 0200 0D20     		mov	r0, #13
 1494 0202 9968     		ldr	r1, [r3, #8]
 1495 0204 C91B     		sub	r1, r1, r7
 1496 0206 4F42     		neg	r7, r1
 1497 0208 7941     		adc	r1, r1, r7
 1498              	.LVL154:
 1499 020a C9B2     		uxtb	r1, r1
 1500 020c FFF7FEFF 		bl	_test_assert
 1501              	.LVL155:
 1502 0210 0028     		cmp	r0, #0
 1503 0212 00D0     		beq	.LCB1203
 1504 0214 31E7     		b	.L61	@long jump
 1505              	.LCB1203:
 1506              		.loc 1 407 0
 1507 0216 FFF7FEFF 		bl	chMtxUnlockAll
 1508              	.LVL156:
 1509              		.loc 1 408 0
 1510 021a AB69     		ldr	r3, [r5, #24]
 1511 021c 0E20     		mov	r0, #14
 1512 021e 9968     		ldr	r1, [r3, #8]
 1513 0220 091B     		sub	r1, r1, r4
 1514 0222 4C42     		neg	r4, r1
 1515 0224 6141     		adc	r1, r1, r4
 1516              	.LVL157:
 1517 0226 C9B2     		uxtb	r1, r1
 1518 0228 FFF7FEFF 		bl	_test_assert
 1519              	.LVL158:
 1520 022c 0028     		cmp	r0, #0
 1521 022e 00D0     		beq	.LCB1217
 1522 0230 23E7     		b	.L61	@long jump
 1523              	.LCB1217:
 1524              		.loc 1 409 0
 1525 0232 FFF7FEFF 		bl	test_wait_threads
 1526              	.LVL159:
 1527 0236 20E7     		b	.L61
 1528              	.L67:
 1529              		.align	2
 1530              	.L66:
 1531 0238 00000000 		.word	rlist
ARM GAS  /tmp/cc71fNsA.s 			page 28


 1532 023c 00000000 		.word	wa
 1533 0240 00000000 		.word	thread4a
 1534 0244 0C000000 		.word	.LC11
 1535 0248 00000000 		.word	threads
 1536 024c 00000000 		.word	thread4b
 1537 0250 10000000 		.word	.LC13
 1538 0254 00000000 		.word	.LANCHOR1
 1539 0258 00000000 		.word	.LANCHOR0
 1540 025c 04000000 		.word	.LC7
 1541 0260 08000000 		.word	.LC9
 1542              		.cfi_endproc
 1543              	.LFE25:
 1544              		.size	mtx4_execute, .-mtx4_execute
 1545 0264 C046C046 		.section	.text.mtx5_execute,"ax",%progbits
 1545      C046C046 
 1545      C046C046 
 1546              		.align	2
 1547              		.p2align 4,,15
 1548              		.code	16
 1549              		.thumb_func
 1550              		.type	mtx5_execute, %function
 1551              	mtx5_execute:
 1552              	.LFB27:
 1553              		.loc 1 434 0
 1554              		.cfi_startproc
 1555 0000 70B5     		push	{r4, r5, r6, lr}
 1556              		.cfi_def_cfa_offset 16
 1557              		.cfi_offset 4, -16
 1558              		.cfi_offset 5, -12
 1559              		.cfi_offset 6, -8
 1560              		.cfi_offset 14, -4
 1561              		.loc 1 438 0
 1562 0002 294D     		ldr	r5, .L73
 1563              		.loc 1 440 0
 1564 0004 294C     		ldr	r4, .L73+4
 1565              		.loc 1 438 0
 1566 0006 AB69     		ldr	r3, [r5, #24]
 1567              		.loc 1 440 0
 1568 0008 201C     		mov	r0, r4
 1569              		.loc 1 438 0
 1570 000a 9E68     		ldr	r6, [r3, #8]
 1571              	.LVL160:
 1572              		.loc 1 440 0
 1573 000c FFF7FEFF 		bl	chMtxTryLock
 1574              	.LVL161:
 1575 0010 011C     		mov	r1, r0
 1576              	.LVL162:
 1577              		.loc 1 441 0
 1578 0012 0120     		mov	r0, #1
 1579              	.LVL163:
 1580 0014 FFF7FEFF 		bl	_test_assert
 1581              	.LVL164:
 1582 0018 0028     		cmp	r0, #0
 1583 001a 00D0     		beq	.L72
 1584              	.LVL165:
 1585              	.L68:
 1586              		.loc 1 458 0
ARM GAS  /tmp/cc71fNsA.s 			page 29


 1587              		@ sp needed
 1588 001c 70BD     		pop	{r4, r5, r6, pc}
 1589              	.LVL166:
 1590              	.L72:
 1591              		.loc 1 443 0
 1592 001e 201C     		mov	r0, r4
 1593 0020 FFF7FEFF 		bl	chMtxTryLock
 1594              	.LVL167:
 1595              		.loc 1 444 0
 1596 0024 0123     		mov	r3, #1
 1597 0026 011C     		mov	r1, r0
 1598 0028 5940     		eor	r1, r3
 1599 002a C9B2     		uxtb	r1, r1
 1600 002c 0220     		mov	r0, #2
 1601              	.LVL168:
 1602 002e FFF7FEFF 		bl	_test_assert
 1603              	.LVL169:
 1604 0032 0028     		cmp	r0, #0
 1605 0034 F2D1     		bne	.L68
 1606              		.loc 1 446 0
 1607              	@ 446 "../../test/testmtx.c" 1
 1608 0036 72B6     		cpsid   i
 1609              	@ 0 "" 2
 1610              		.loc 1 447 0
 1611              		.code	16
 1612 0038 FFF7FEFF 		bl	chMtxUnlockS
 1613              	.LVL170:
 1614              		.loc 1 448 0
 1615              	@ 448 "../../test/testmtx.c" 1
 1616 003c 62B6     		cpsie   i
 1617              	@ 0 "" 2
 1618              		.loc 1 450 0
 1619              		.code	16
 1620 003e 2268     		ldr	r2, [r4]
 1621 0040 0320     		mov	r0, #3
 1622 0042 111B     		sub	r1, r2, r4
 1623 0044 4B42     		neg	r3, r1
 1624 0046 5941     		adc	r1, r1, r3
 1625 0048 C9B2     		uxtb	r1, r1
 1626 004a FFF7FEFF 		bl	_test_assert
 1627              	.LVL171:
 1628 004e 0028     		cmp	r0, #0
 1629 0050 E4D1     		bne	.L68
 1630              		.loc 1 451 0
 1631 0052 A268     		ldr	r2, [r4, #8]
 1632 0054 0420     		mov	r0, #4
 1633 0056 5142     		neg	r1, r2
 1634 0058 5141     		adc	r1, r1, r2
 1635 005a C9B2     		uxtb	r1, r1
 1636 005c FFF7FEFF 		bl	_test_assert
 1637              	.LVL172:
 1638 0060 0028     		cmp	r0, #0
 1639 0062 DBD1     		bne	.L68
 1640              		.loc 1 452 0
 1641 0064 AB69     		ldr	r3, [r5, #24]
 1642 0066 0520     		mov	r0, #5
 1643 0068 9968     		ldr	r1, [r3, #8]
ARM GAS  /tmp/cc71fNsA.s 			page 30


 1644 006a 891B     		sub	r1, r1, r6
 1645 006c 4E42     		neg	r6, r1
 1646 006e 7141     		adc	r1, r1, r6
 1647              	.LVL173:
 1648 0070 C9B2     		uxtb	r1, r1
 1649 0072 FFF7FEFF 		bl	_test_assert
 1650              	.LVL174:
 1651 0076 0028     		cmp	r0, #0
 1652 0078 D0D1     		bne	.L68
 1653              		.loc 1 454 0
 1654 007a 201C     		mov	r0, r4
 1655 007c FFF7FEFF 		bl	chMtxLock
 1656              	.LVL175:
 1657              		.loc 1 455 0
 1658 0080 FFF7FEFF 		bl	chMtxUnlockAll
 1659              	.LVL176:
 1660              		.loc 1 456 0
 1661 0084 2368     		ldr	r3, [r4]
 1662 0086 0620     		mov	r0, #6
 1663 0088 191B     		sub	r1, r3, r4
 1664 008a 4B42     		neg	r3, r1
 1665 008c 5941     		adc	r1, r1, r3
 1666 008e C9B2     		uxtb	r1, r1
 1667 0090 FFF7FEFF 		bl	_test_assert
 1668              	.LVL177:
 1669 0094 0028     		cmp	r0, #0
 1670 0096 C1D1     		bne	.L68
 1671              		.loc 1 457 0
 1672 0098 A168     		ldr	r1, [r4, #8]
 1673 009a 0720     		mov	r0, #7
 1674 009c 4B42     		neg	r3, r1
 1675 009e 5941     		adc	r1, r1, r3
 1676 00a0 C9B2     		uxtb	r1, r1
 1677 00a2 FFF7FEFF 		bl	_test_assert
 1678              	.LVL178:
 1679 00a6 B9E7     		b	.L68
 1680              	.L74:
 1681              		.align	2
 1682              	.L73:
 1683 00a8 00000000 		.word	rlist
 1684 00ac 00000000 		.word	.LANCHOR0
 1685              		.cfi_endproc
 1686              	.LFE27:
 1687              		.size	mtx5_execute, .-mtx5_execute
 1688              		.section	.text.mtx6_execute,"ax",%progbits
 1689              		.align	2
 1690              		.p2align 4,,15
 1691              		.code	16
 1692              		.thumb_func
 1693              		.type	mtx6_execute, %function
 1694              	mtx6_execute:
 1695              	.LFB30:
 1696              		.loc 1 494 0
 1697              		.cfi_startproc
 1698 0000 F0B5     		push	{r4, r5, r6, r7, lr}
 1699              		.cfi_def_cfa_offset 20
 1700              		.cfi_offset 4, -20
ARM GAS  /tmp/cc71fNsA.s 			page 31


 1701              		.cfi_offset 5, -16
 1702              		.cfi_offset 6, -12
 1703              		.cfi_offset 7, -8
 1704              		.cfi_offset 14, -4
 1705 0002 4746     		mov	r7, r8
 1706 0004 80B4     		push	{r7}
 1707              		.cfi_def_cfa_offset 24
 1708              		.cfi_offset 8, -24
 1709              		.loc 1 496 0
 1710 0006 2D4B     		ldr	r3, .L76
 1711              		.loc 1 497 0
 1712 0008 2D4A     		ldr	r2, .L76+4
 1713              		.loc 1 496 0
 1714 000a 9B69     		ldr	r3, [r3, #24]
 1715              		.loc 1 494 0
 1716 000c 82B0     		sub	sp, sp, #8
 1717              		.cfi_def_cfa_offset 32
 1718              		.loc 1 496 0
 1719 000e 9F68     		ldr	r7, [r3, #8]
 1720              	.LVL179:
 1721              		.loc 1 497 0
 1722 0010 2C4B     		ldr	r3, .L76+8
 1723 0012 9046     		mov	r8, r2
 1724 0014 2C4D     		ldr	r5, .L76+12
 1725 0016 9826     		mov	r6, #152
 1726 0018 7600     		lsl	r6, r6, #1
 1727 001a 0093     		str	r3, [sp]
 1728 001c 4346     		mov	r3, r8
 1729 001e 7A1C     		add	r2, r7, #1
 1730 0020 311C     		mov	r1, r6
 1731 0022 1868     		ldr	r0, [r3]
 1732 0024 2B1C     		mov	r3, r5
 1733 0026 FFF7FEFF 		bl	chThdCreateStatic
 1734              	.LVL180:
 1735 002a 284C     		ldr	r4, .L76+16
 1736              		.loc 1 498 0
 1737 002c 284B     		ldr	r3, .L76+20
 1738              		.loc 1 497 0
 1739 002e 2060     		str	r0, [r4]
 1740              		.loc 1 498 0
 1741 0030 0093     		str	r3, [sp]
 1742 0032 4346     		mov	r3, r8
 1743 0034 BA1C     		add	r2, r7, #2
 1744 0036 311C     		mov	r1, r6
 1745 0038 5868     		ldr	r0, [r3, #4]
 1746 003a 2B1C     		mov	r3, r5
 1747 003c FFF7FEFF 		bl	chThdCreateStatic
 1748              	.LVL181:
 1749              		.loc 1 499 0
 1750 0040 244B     		ldr	r3, .L76+24
 1751              		.loc 1 498 0
 1752 0042 6060     		str	r0, [r4, #4]
 1753              		.loc 1 499 0
 1754 0044 0093     		str	r3, [sp]
 1755 0046 4346     		mov	r3, r8
 1756 0048 FA1C     		add	r2, r7, #3
 1757 004a 311C     		mov	r1, r6
ARM GAS  /tmp/cc71fNsA.s 			page 32


 1758 004c 9868     		ldr	r0, [r3, #8]
 1759 004e 2B1C     		mov	r3, r5
 1760 0050 FFF7FEFF 		bl	chThdCreateStatic
 1761              	.LVL182:
 1762              		.loc 1 500 0
 1763 0054 204B     		ldr	r3, .L76+28
 1764              		.loc 1 499 0
 1765 0056 A060     		str	r0, [r4, #8]
 1766              		.loc 1 500 0
 1767 0058 0093     		str	r3, [sp]
 1768 005a 4346     		mov	r3, r8
 1769 005c 3A1D     		add	r2, r7, #4
 1770 005e 311C     		mov	r1, r6
 1771 0060 D868     		ldr	r0, [r3, #12]
 1772 0062 2B1C     		mov	r3, r5
 1773 0064 FFF7FEFF 		bl	chThdCreateStatic
 1774              	.LVL183:
 1775              		.loc 1 501 0
 1776 0068 1C4B     		ldr	r3, .L76+32
 1777 006a 4246     		mov	r2, r8
 1778              		.loc 1 500 0
 1779 006c E060     		str	r0, [r4, #12]
 1780              		.loc 1 501 0
 1781 006e 311C     		mov	r1, r6
 1782 0070 0093     		str	r3, [sp]
 1783 0072 1069     		ldr	r0, [r2, #16]
 1784 0074 2B1C     		mov	r3, r5
 1785 0076 7A1D     		add	r2, r7, #5
 1786 0078 FFF7FEFF 		bl	chThdCreateStatic
 1787              	.LVL184:
 1788 007c 2061     		str	r0, [r4, #16]
 1789              		.loc 1 502 0
 1790              	@ 502 "../../test/testmtx.c" 1
 1791 007e 72B6     		cpsid   i
 1792              	@ 0 "" 2
 1793              		.loc 1 503 0
 1794              		.code	16
 1795 0080 174C     		ldr	r4, .L76+36
 1796 0082 201C     		mov	r0, r4
 1797 0084 FFF7FEFF 		bl	chCondSignalI
 1798              	.LVL185:
 1799              		.loc 1 504 0
 1800 0088 201C     		mov	r0, r4
 1801 008a FFF7FEFF 		bl	chCondSignalI
 1802              	.LVL186:
 1803              		.loc 1 505 0
 1804 008e 201C     		mov	r0, r4
 1805 0090 FFF7FEFF 		bl	chCondSignalI
 1806              	.LVL187:
 1807              		.loc 1 506 0
 1808 0094 201C     		mov	r0, r4
 1809 0096 FFF7FEFF 		bl	chCondSignalI
 1810              	.LVL188:
 1811              		.loc 1 507 0
 1812 009a 201C     		mov	r0, r4
 1813 009c FFF7FEFF 		bl	chCondSignalI
 1814              	.LVL189:
ARM GAS  /tmp/cc71fNsA.s 			page 33


 1815              		.loc 1 508 0
 1816 00a0 FFF7FEFF 		bl	chSchRescheduleS
 1817              	.LVL190:
 1818              		.loc 1 509 0
 1819              	@ 509 "../../test/testmtx.c" 1
 1820 00a4 62B6     		cpsie   i
 1821              	@ 0 "" 2
 1822              		.loc 1 510 0
 1823              		.code	16
 1824 00a6 FFF7FEFF 		bl	test_wait_threads
 1825              	.LVL191:
 1826              		.loc 1 511 0
 1827 00aa 0E49     		ldr	r1, .L76+40
 1828 00ac 0120     		mov	r0, #1
 1829 00ae FFF7FEFF 		bl	_test_assert_sequence
 1830              	.LVL192:
 1831              		.loc 1 512 0
 1832 00b2 02B0     		add	sp, sp, #8
 1833              		@ sp needed
 1834              	.LVL193:
 1835 00b4 04BC     		pop	{r2}
 1836 00b6 9046     		mov	r8, r2
 1837 00b8 F0BD     		pop	{r4, r5, r6, r7, pc}
 1838              	.L77:
 1839 00ba C046     		.align	2
 1840              	.L76:
 1841 00bc 00000000 		.word	rlist
 1842 00c0 00000000 		.word	wa
 1843 00c4 00000000 		.word	.LC4
 1844 00c8 00000000 		.word	thread10
 1845 00cc 00000000 		.word	threads
 1846 00d0 04000000 		.word	.LC7
 1847 00d4 08000000 		.word	.LC9
 1848 00d8 0C000000 		.word	.LC11
 1849 00dc 10000000 		.word	.LC13
 1850 00e0 00000000 		.word	.LANCHOR2
 1851 00e4 14000000 		.word	.LC15
 1852              		.cfi_endproc
 1853              	.LFE30:
 1854              		.size	mtx6_execute, .-mtx6_execute
 1855 00e8 C046C046 		.section	.text.thread10,"ax",%progbits
 1855      C046C046 
 1856              		.align	2
 1857              		.p2align 4,,15
 1858              		.code	16
 1859              		.thumb_func
 1860              		.type	thread10, %function
 1861              	thread10:
 1862              	.LFB29:
 1863              		.loc 1 485 0
 1864              		.cfi_startproc
 1865              	.LVL194:
 1866 0000 10B5     		push	{r4, lr}
 1867              		.cfi_def_cfa_offset 8
 1868              		.cfi_offset 4, -8
 1869              		.cfi_offset 14, -4
 1870              		.loc 1 485 0
ARM GAS  /tmp/cc71fNsA.s 			page 34


 1871 0002 041C     		mov	r4, r0
 1872              		.loc 1 487 0
 1873 0004 0648     		ldr	r0, .L79
 1874              	.LVL195:
 1875 0006 FFF7FEFF 		bl	chMtxLock
 1876              	.LVL196:
 1877              		.loc 1 488 0
 1878 000a 0648     		ldr	r0, .L79+4
 1879 000c FFF7FEFF 		bl	chCondWait
 1880              	.LVL197:
 1881              		.loc 1 489 0
 1882 0010 2078     		ldrb	r0, [r4]
 1883 0012 FFF7FEFF 		bl	test_emit_token
 1884              	.LVL198:
 1885              		.loc 1 492 0
 1886              		@ sp needed
 1887              		.loc 1 490 0
 1888 0016 FFF7FEFF 		bl	chMtxUnlock
 1889              	.LVL199:
 1890              		.loc 1 492 0
 1891 001a 0020     		mov	r0, #0
 1892              	.LVL200:
 1893 001c 10BD     		pop	{r4, pc}
 1894              	.L80:
 1895 001e C046     		.align	2
 1896              	.L79:
 1897 0020 00000000 		.word	.LANCHOR0
 1898 0024 00000000 		.word	.LANCHOR2
 1899              		.cfi_endproc
 1900              	.LFE29:
 1901              		.size	thread10, .-thread10
 1902 0028 C046C046 		.section	.text.mtx6_setup,"ax",%progbits
 1902      C046C046 
 1903              		.align	2
 1904              		.p2align 4,,15
 1905              		.code	16
 1906              		.thumb_func
 1907              		.type	mtx6_setup, %function
 1908              	mtx6_setup:
 1909              	.LFB28:
 1910              		.loc 1 479 0
 1911              		.cfi_startproc
 1912 0000 08B5     		push	{r3, lr}
 1913              		.cfi_def_cfa_offset 8
 1914              		.cfi_offset 3, -8
 1915              		.cfi_offset 14, -4
 1916              		.loc 1 481 0
 1917 0002 0348     		ldr	r0, .L82
 1918 0004 FFF7FEFF 		bl	chCondInit
 1919              	.LVL201:
 1920              		.loc 1 482 0
 1921 0008 0248     		ldr	r0, .L82+4
 1922 000a FFF7FEFF 		bl	chMtxInit
 1923              	.LVL202:
 1924              		.loc 1 483 0
 1925              		@ sp needed
 1926 000e 08BD     		pop	{r3, pc}
ARM GAS  /tmp/cc71fNsA.s 			page 35


 1927              	.L83:
 1928              		.align	2
 1929              	.L82:
 1930 0010 00000000 		.word	.LANCHOR2
 1931 0014 00000000 		.word	.LANCHOR0
 1932              		.cfi_endproc
 1933              	.LFE28:
 1934              		.size	mtx6_setup, .-mtx6_setup
 1935 0018 C046C046 		.section	.text.mtx7_setup,"ax",%progbits
 1935      C046C046 
 1936              		.align	2
 1937              		.p2align 4,,15
 1938              		.code	16
 1939              		.thumb_func
 1940              		.type	mtx7_setup, %function
 1941              	mtx7_setup:
 1942              	.LFB31:
 1943              		.loc 1 531 0
 1944              		.cfi_startproc
 1945 0000 08B5     		push	{r3, lr}
 1946              		.cfi_def_cfa_offset 8
 1947              		.cfi_offset 3, -8
 1948              		.cfi_offset 14, -4
 1949              		.loc 1 533 0
 1950 0002 0348     		ldr	r0, .L85
 1951 0004 FFF7FEFF 		bl	chCondInit
 1952              	.LVL203:
 1953              		.loc 1 534 0
 1954 0008 0248     		ldr	r0, .L85+4
 1955 000a FFF7FEFF 		bl	chMtxInit
 1956              	.LVL204:
 1957              		.loc 1 535 0
 1958              		@ sp needed
 1959 000e 08BD     		pop	{r3, pc}
 1960              	.L86:
 1961              		.align	2
 1962              	.L85:
 1963 0010 00000000 		.word	.LANCHOR2
 1964 0014 00000000 		.word	.LANCHOR0
 1965              		.cfi_endproc
 1966              	.LFE31:
 1967              		.size	mtx7_setup, .-mtx7_setup
 1968 0018 C046C046 		.section	.text.mtx8_setup,"ax",%progbits
 1968      C046C046 
 1969              		.align	2
 1970              		.p2align 4,,15
 1971              		.code	16
 1972              		.thumb_func
 1973              		.type	mtx8_setup, %function
 1974              	mtx8_setup:
 1975              	.LFB33:
 1976              		.loc 1 566 0
 1977              		.cfi_startproc
 1978 0000 08B5     		push	{r3, lr}
 1979              		.cfi_def_cfa_offset 8
 1980              		.cfi_offset 3, -8
 1981              		.cfi_offset 14, -4
ARM GAS  /tmp/cc71fNsA.s 			page 36


 1982              		.loc 1 568 0
 1983 0002 0548     		ldr	r0, .L88
 1984 0004 FFF7FEFF 		bl	chCondInit
 1985              	.LVL205:
 1986              		.loc 1 569 0
 1987 0008 0448     		ldr	r0, .L88+4
 1988 000a FFF7FEFF 		bl	chMtxInit
 1989              	.LVL206:
 1990              		.loc 1 570 0
 1991 000e 0448     		ldr	r0, .L88+8
 1992 0010 FFF7FEFF 		bl	chMtxInit
 1993              	.LVL207:
 1994              		.loc 1 571 0
 1995              		@ sp needed
 1996 0014 08BD     		pop	{r3, pc}
 1997              	.L89:
 1998 0016 C046     		.align	2
 1999              	.L88:
 2000 0018 00000000 		.word	.LANCHOR2
 2001 001c 00000000 		.word	.LANCHOR0
 2002 0020 00000000 		.word	.LANCHOR1
 2003              		.cfi_endproc
 2004              	.LFE33:
 2005              		.size	mtx8_setup, .-mtx8_setup
 2006 0024 C046C046 		.section	.text.mtx7_execute,"ax",%progbits
 2006      C046C046 
 2006      C046C046 
 2007              		.align	2
 2008              		.p2align 4,,15
 2009              		.code	16
 2010              		.thumb_func
 2011              		.type	mtx7_execute, %function
 2012              	mtx7_execute:
 2013              	.LFB32:
 2014              		.loc 1 537 0
 2015              		.cfi_startproc
 2016 0000 F0B5     		push	{r4, r5, r6, r7, lr}
 2017              		.cfi_def_cfa_offset 20
 2018              		.cfi_offset 4, -20
 2019              		.cfi_offset 5, -16
 2020              		.cfi_offset 6, -12
 2021              		.cfi_offset 7, -8
 2022              		.cfi_offset 14, -4
 2023 0002 4746     		mov	r7, r8
 2024 0004 80B4     		push	{r7}
 2025              		.cfi_def_cfa_offset 24
 2026              		.cfi_offset 8, -24
 2027              		.loc 1 539 0
 2028 0006 244B     		ldr	r3, .L91
 2029              		.loc 1 540 0
 2030 0008 244A     		ldr	r2, .L91+4
 2031              		.loc 1 539 0
 2032 000a 9B69     		ldr	r3, [r3, #24]
 2033              		.loc 1 537 0
 2034 000c 82B0     		sub	sp, sp, #8
 2035              		.cfi_def_cfa_offset 32
 2036              		.loc 1 539 0
ARM GAS  /tmp/cc71fNsA.s 			page 37


 2037 000e 9F68     		ldr	r7, [r3, #8]
 2038              	.LVL208:
 2039              		.loc 1 540 0
 2040 0010 234B     		ldr	r3, .L91+8
 2041 0012 9046     		mov	r8, r2
 2042 0014 234D     		ldr	r5, .L91+12
 2043 0016 9826     		mov	r6, #152
 2044 0018 7600     		lsl	r6, r6, #1
 2045 001a 0093     		str	r3, [sp]
 2046 001c 4346     		mov	r3, r8
 2047 001e 7A1C     		add	r2, r7, #1
 2048 0020 311C     		mov	r1, r6
 2049 0022 1868     		ldr	r0, [r3]
 2050 0024 2B1C     		mov	r3, r5
 2051 0026 FFF7FEFF 		bl	chThdCreateStatic
 2052              	.LVL209:
 2053 002a 1F4C     		ldr	r4, .L91+16
 2054              		.loc 1 541 0
 2055 002c 1F4B     		ldr	r3, .L91+20
 2056              		.loc 1 540 0
 2057 002e 2060     		str	r0, [r4]
 2058              		.loc 1 541 0
 2059 0030 0093     		str	r3, [sp]
 2060 0032 4346     		mov	r3, r8
 2061 0034 BA1C     		add	r2, r7, #2
 2062 0036 311C     		mov	r1, r6
 2063 0038 5868     		ldr	r0, [r3, #4]
 2064 003a 2B1C     		mov	r3, r5
 2065 003c FFF7FEFF 		bl	chThdCreateStatic
 2066              	.LVL210:
 2067              		.loc 1 542 0
 2068 0040 1B4B     		ldr	r3, .L91+24
 2069              		.loc 1 541 0
 2070 0042 6060     		str	r0, [r4, #4]
 2071              		.loc 1 542 0
 2072 0044 0093     		str	r3, [sp]
 2073 0046 4346     		mov	r3, r8
 2074 0048 FA1C     		add	r2, r7, #3
 2075 004a 311C     		mov	r1, r6
 2076 004c 9868     		ldr	r0, [r3, #8]
 2077 004e 2B1C     		mov	r3, r5
 2078 0050 FFF7FEFF 		bl	chThdCreateStatic
 2079              	.LVL211:
 2080              		.loc 1 543 0
 2081 0054 174B     		ldr	r3, .L91+28
 2082              		.loc 1 542 0
 2083 0056 A060     		str	r0, [r4, #8]
 2084              		.loc 1 543 0
 2085 0058 0093     		str	r3, [sp]
 2086 005a 4346     		mov	r3, r8
 2087 005c 3A1D     		add	r2, r7, #4
 2088 005e 311C     		mov	r1, r6
 2089 0060 D868     		ldr	r0, [r3, #12]
 2090 0062 2B1C     		mov	r3, r5
 2091 0064 FFF7FEFF 		bl	chThdCreateStatic
 2092              	.LVL212:
 2093              		.loc 1 544 0
ARM GAS  /tmp/cc71fNsA.s 			page 38


 2094 0068 134B     		ldr	r3, .L91+32
 2095 006a 4246     		mov	r2, r8
 2096 006c 311C     		mov	r1, r6
 2097              		.loc 1 543 0
 2098 006e E060     		str	r0, [r4, #12]
 2099              		.loc 1 544 0
 2100 0070 0093     		str	r3, [sp]
 2101 0072 1069     		ldr	r0, [r2, #16]
 2102 0074 2B1C     		mov	r3, r5
 2103 0076 7A1D     		add	r2, r7, #5
 2104 0078 FFF7FEFF 		bl	chThdCreateStatic
 2105              	.LVL213:
 2106 007c 2061     		str	r0, [r4, #16]
 2107              		.loc 1 545 0
 2108 007e 0F48     		ldr	r0, .L91+36
 2109 0080 FFF7FEFF 		bl	chCondBroadcast
 2110              	.LVL214:
 2111              		.loc 1 546 0
 2112 0084 FFF7FEFF 		bl	test_wait_threads
 2113              	.LVL215:
 2114              		.loc 1 547 0
 2115 0088 0D49     		ldr	r1, .L91+40
 2116 008a 0120     		mov	r0, #1
 2117 008c FFF7FEFF 		bl	_test_assert_sequence
 2118              	.LVL216:
 2119              		.loc 1 548 0
 2120 0090 02B0     		add	sp, sp, #8
 2121              		@ sp needed
 2122              	.LVL217:
 2123 0092 04BC     		pop	{r2}
 2124 0094 9046     		mov	r8, r2
 2125 0096 F0BD     		pop	{r4, r5, r6, r7, pc}
 2126              	.L92:
 2127              		.align	2
 2128              	.L91:
 2129 0098 00000000 		.word	rlist
 2130 009c 00000000 		.word	wa
 2131 00a0 00000000 		.word	.LC4
 2132 00a4 00000000 		.word	thread10
 2133 00a8 00000000 		.word	threads
 2134 00ac 04000000 		.word	.LC7
 2135 00b0 08000000 		.word	.LC9
 2136 00b4 0C000000 		.word	.LC11
 2137 00b8 10000000 		.word	.LC13
 2138 00bc 00000000 		.word	.LANCHOR2
 2139 00c0 14000000 		.word	.LC15
 2140              		.cfi_endproc
 2141              	.LFE32:
 2142              		.size	mtx7_execute, .-mtx7_execute
 2143 00c4 C046C046 		.section	.text.mtx8_execute,"ax",%progbits
 2143      C046C046 
 2143      C046C046 
 2144              		.align	2
 2145              		.p2align 4,,15
 2146              		.code	16
 2147              		.thumb_func
 2148              		.type	mtx8_execute, %function
ARM GAS  /tmp/cc71fNsA.s 			page 39


 2149              	mtx8_execute:
 2150              	.LFB36:
 2151              		.loc 1 596 0
 2152              		.cfi_startproc
 2153 0000 F0B5     		push	{r4, r5, r6, r7, lr}
 2154              		.cfi_def_cfa_offset 20
 2155              		.cfi_offset 4, -20
 2156              		.cfi_offset 5, -16
 2157              		.cfi_offset 6, -12
 2158              		.cfi_offset 7, -8
 2159              		.cfi_offset 14, -4
 2160              		.loc 1 598 0
 2161 0002 194B     		ldr	r3, .L94
 2162              		.loc 1 599 0
 2163 0004 194F     		ldr	r7, .L94+4
 2164              		.loc 1 598 0
 2165 0006 9B69     		ldr	r3, [r3, #24]
 2166              		.loc 1 599 0
 2167 0008 9825     		mov	r5, #152
 2168              		.loc 1 598 0
 2169 000a 9E68     		ldr	r6, [r3, #8]
 2170              	.LVL218:
 2171              		.loc 1 599 0
 2172 000c 184B     		ldr	r3, .L94+8
 2173              		.loc 1 596 0
 2174 000e 83B0     		sub	sp, sp, #12
 2175              		.cfi_def_cfa_offset 32
 2176              		.loc 1 599 0
 2177 0010 6D00     		lsl	r5, r5, #1
 2178 0012 721C     		add	r2, r6, #1
 2179 0014 0093     		str	r3, [sp]
 2180 0016 291C     		mov	r1, r5
 2181 0018 3868     		ldr	r0, [r7]
 2182 001a 164B     		ldr	r3, .L94+12
 2183 001c FFF7FEFF 		bl	chThdCreateStatic
 2184              	.LVL219:
 2185 0020 154C     		ldr	r4, .L94+16
 2186              		.loc 1 600 0
 2187 0022 164B     		ldr	r3, .L94+20
 2188              		.loc 1 599 0
 2189 0024 2060     		str	r0, [r4]
 2190              		.loc 1 600 0
 2191 0026 B21C     		add	r2, r6, #2
 2192 0028 0093     		str	r3, [sp]
 2193 002a 291C     		mov	r1, r5
 2194 002c 7868     		ldr	r0, [r7, #4]
 2195 002e 144B     		ldr	r3, .L94+24
 2196 0030 FFF7FEFF 		bl	chThdCreateStatic
 2197              	.LVL220:
 2198              		.loc 1 601 0
 2199 0034 134B     		ldr	r3, .L94+28
 2200 0036 F21C     		add	r2, r6, #3
 2201 0038 291C     		mov	r1, r5
 2202              		.loc 1 600 0
 2203 003a 6060     		str	r0, [r4, #4]
 2204              		.loc 1 601 0
 2205 003c 0093     		str	r3, [sp]
ARM GAS  /tmp/cc71fNsA.s 			page 40


 2206 003e B868     		ldr	r0, [r7, #8]
 2207 0040 114B     		ldr	r3, .L94+32
 2208 0042 FFF7FEFF 		bl	chThdCreateStatic
 2209              	.LVL221:
 2210 0046 A060     		str	r0, [r4, #8]
 2211              		.loc 1 602 0
 2212 0048 104C     		ldr	r4, .L94+36
 2213 004a 201C     		mov	r0, r4
 2214 004c FFF7FEFF 		bl	chCondSignal
 2215              	.LVL222:
 2216              		.loc 1 603 0
 2217 0050 201C     		mov	r0, r4
 2218 0052 FFF7FEFF 		bl	chCondSignal
 2219              	.LVL223:
 2220              		.loc 1 604 0
 2221 0056 FFF7FEFF 		bl	test_wait_threads
 2222              	.LVL224:
 2223              		.loc 1 605 0
 2224 005a 0D49     		ldr	r1, .L94+40
 2225 005c 0120     		mov	r0, #1
 2226 005e FFF7FEFF 		bl	_test_assert_sequence
 2227              	.LVL225:
 2228              		.loc 1 606 0
 2229 0062 03B0     		add	sp, sp, #12
 2230              		@ sp needed
 2231              	.LVL226:
 2232 0064 F0BD     		pop	{r4, r5, r6, r7, pc}
 2233              	.L95:
 2234 0066 C046     		.align	2
 2235              	.L94:
 2236 0068 00000000 		.word	rlist
 2237 006c 00000000 		.word	wa
 2238 0070 10000000 		.word	.LC13
 2239 0074 00000000 		.word	thread11
 2240 0078 00000000 		.word	threads
 2241 007c 08000000 		.word	.LC9
 2242 0080 00000000 		.word	thread10
 2243 0084 0C000000 		.word	.LC11
 2244 0088 00000000 		.word	thread12
 2245 008c 00000000 		.word	.LANCHOR2
 2246 0090 1C000000 		.word	.LC33
 2247              		.cfi_endproc
 2248              	.LFE36:
 2249              		.size	mtx8_execute, .-mtx8_execute
 2250 0094 C046C046 		.section	.text.thread11,"ax",%progbits
 2250      C046C046 
 2250      C046C046 
 2251              		.align	2
 2252              		.p2align 4,,15
 2253              		.code	16
 2254              		.thumb_func
 2255              		.type	thread11, %function
 2256              	thread11:
 2257              	.LFB34:
 2258              		.loc 1 573 0
 2259              		.cfi_startproc
 2260              	.LVL227:
ARM GAS  /tmp/cc71fNsA.s 			page 41


 2261 0000 10B5     		push	{r4, lr}
 2262              		.cfi_def_cfa_offset 8
 2263              		.cfi_offset 4, -8
 2264              		.cfi_offset 14, -4
 2265              		.loc 1 573 0
 2266 0002 041C     		mov	r4, r0
 2267              		.loc 1 575 0
 2268 0004 0948     		ldr	r0, .L97
 2269              	.LVL228:
 2270 0006 FFF7FEFF 		bl	chMtxLock
 2271              	.LVL229:
 2272              		.loc 1 576 0
 2273 000a 0948     		ldr	r0, .L97+4
 2274 000c FFF7FEFF 		bl	chMtxLock
 2275              	.LVL230:
 2276              		.loc 1 578 0
 2277 0010 0121     		mov	r1, #1
 2278 0012 4942     		neg	r1, r1
 2279 0014 0748     		ldr	r0, .L97+8
 2280 0016 FFF7FEFF 		bl	chCondWaitTimeout
 2281              	.LVL231:
 2282              		.loc 1 582 0
 2283 001a 2078     		ldrb	r0, [r4]
 2284 001c FFF7FEFF 		bl	test_emit_token
 2285              	.LVL232:
 2286              		.loc 1 586 0
 2287              		@ sp needed
 2288              		.loc 1 583 0
 2289 0020 FFF7FEFF 		bl	chMtxUnlock
 2290              	.LVL233:
 2291              		.loc 1 584 0
 2292 0024 FFF7FEFF 		bl	chMtxUnlock
 2293              	.LVL234:
 2294              		.loc 1 586 0
 2295 0028 0020     		mov	r0, #0
 2296              	.LVL235:
 2297 002a 10BD     		pop	{r4, pc}
 2298              	.L98:
 2299              		.align	2
 2300              	.L97:
 2301 002c 00000000 		.word	.LANCHOR1
 2302 0030 00000000 		.word	.LANCHOR0
 2303 0034 00000000 		.word	.LANCHOR2
 2304              		.cfi_endproc
 2305              	.LFE34:
 2306              		.size	thread11, .-thread11
 2307              		.global	patternmtx
 2308              		.global	testmtx8
 2309              		.global	testmtx7
 2310              		.global	testmtx6
 2311              		.global	testmtx5
 2312              		.global	testmtx4
 2313              		.global	testmtx3
 2314              		.global	testmtx2
 2315              		.global	testmtx1
 2316 0038 C046C046 		.section	.rodata.testmtx5,"a",%progbits
 2316      C046C046 
ARM GAS  /tmp/cc71fNsA.s 			page 42


 2317              		.align	2
 2318              		.type	testmtx5, %object
 2319              		.size	testmtx5, 16
 2320              	testmtx5:
 2321 0000 64000000 		.word	.LC115
 2322 0004 00000000 		.word	mtx5_setup
 2323 0008 00000000 		.word	0
 2324 000c 00000000 		.word	mtx5_execute
 2325              		.section	.rodata.testmtx6,"a",%progbits
 2326              		.align	2
 2327              		.type	testmtx6, %object
 2328              		.size	testmtx6, 16
 2329              	testmtx6:
 2330 0000 4C000000 		.word	.LC114
 2331 0004 00000000 		.word	mtx6_setup
 2332 0008 00000000 		.word	0
 2333 000c 00000000 		.word	mtx6_execute
 2334              		.section	.rodata.testmtx7,"a",%progbits
 2335              		.align	2
 2336              		.type	testmtx7, %object
 2337              		.size	testmtx7, 16
 2338              	testmtx7:
 2339 0000 34000000 		.word	.LC113
 2340 0004 00000000 		.word	mtx7_setup
 2341 0008 00000000 		.word	0
 2342 000c 00000000 		.word	mtx7_execute
 2343              		.section	.rodata.testmtx8,"a",%progbits
 2344              		.align	2
 2345              		.type	testmtx8, %object
 2346              		.size	testmtx8, 16
 2347              	testmtx8:
 2348 0000 20000000 		.word	.LC112
 2349 0004 00000000 		.word	mtx8_setup
 2350 0008 00000000 		.word	0
 2351 000c 00000000 		.word	mtx8_execute
 2352              		.section	.data.m1,"aw",%progbits
 2353              		.align	2
 2354              		.set	.LANCHOR0,. + 0
 2355              		.type	m1, %object
 2356              		.size	m1, 16
 2357              	m1:
 2358 0000 00000000 		.word	m1
 2359 0004 00000000 		.word	m1
 2360 0008 00000000 		.word	0
 2361 000c 00000000 		.word	0
 2362              		.section	.data.m2,"aw",%progbits
 2363              		.align	2
 2364              		.set	.LANCHOR1,. + 0
 2365              		.type	m2, %object
 2366              		.size	m2, 16
 2367              	m2:
 2368 0000 00000000 		.word	m2
 2369 0004 00000000 		.word	m2
 2370 0008 00000000 		.word	0
 2371 000c 00000000 		.word	0
 2372              		.section	.rodata.str1.4,"aMS",%progbits,1
 2373              		.align	2
ARM GAS  /tmp/cc71fNsA.s 			page 43


 2374              	.LC4:
 2375 0000 4500     		.ascii	"E\000"
 2376 0002 0000     		.space	2
 2377              	.LC7:
 2378 0004 4400     		.ascii	"D\000"
 2379 0006 0000     		.space	2
 2380              	.LC9:
 2381 0008 4300     		.ascii	"C\000"
 2382 000a 0000     		.space	2
 2383              	.LC11:
 2384 000c 4200     		.ascii	"B\000"
 2385 000e 0000     		.space	2
 2386              	.LC13:
 2387 0010 4100     		.ascii	"A\000"
 2388 0012 0000     		.space	2
 2389              	.LC15:
 2390 0014 41424344 		.ascii	"ABCDE\000"
 2390      4500
 2391 001a 0000     		.space	2
 2392              	.LC33:
 2393 001c 41424300 		.ascii	"ABC\000"
 2394              	.LC112:
 2395 0020 436F6E64 		.ascii	"CondVar, boost test\000"
 2395      5661722C 
 2395      20626F6F 
 2395      73742074 
 2395      65737400 
 2396              	.LC113:
 2397 0034 436F6E64 		.ascii	"CondVar, broadcast test\000"
 2397      5661722C 
 2397      2062726F 
 2397      61646361 
 2397      73742074 
 2398              	.LC114:
 2399 004c 436F6E64 		.ascii	"CondVar, signal test\000"
 2399      5661722C 
 2399      20736967 
 2399      6E616C20 
 2399      74657374 
 2400 0061 000000   		.space	3
 2401              	.LC115:
 2402 0064 4D757465 		.ascii	"Mutexes, status\000"
 2402      7865732C 
 2402      20737461 
 2402      74757300 
 2403              	.LC116:
 2404 0074 4D757465 		.ascii	"Mutexes, priority return\000"
 2404      7865732C 
 2404      20707269 
 2404      6F726974 
 2404      79207265 
 2405 008d 000000   		.space	3
 2406              	.LC117:
 2407 0090 4D757465 		.ascii	"Mutexes, priority inheritance, complex case\000"
 2407      7865732C 
 2407      20707269 
 2407      6F726974 
ARM GAS  /tmp/cc71fNsA.s 			page 44


 2407      7920696E 
 2408              	.LC118:
 2409 00bc 4D757465 		.ascii	"Mutexes, priority inheritance, simple case\000"
 2409      7865732C 
 2409      20707269 
 2409      6F726974 
 2409      7920696E 
 2410 00e7 00       		.space	1
 2411              	.LC119:
 2412 00e8 4D757465 		.ascii	"Mutexes, priority enqueuing test\000"
 2412      7865732C 
 2412      20707269 
 2412      6F726974 
 2412      7920656E 
 2413 0109 000000   		.section	.rodata.patternmtx,"a",%progbits
 2414              		.align	2
 2415              		.type	patternmtx, %object
 2416              		.size	patternmtx, 36
 2417              	patternmtx:
 2418 0000 00000000 		.word	testmtx1
 2419 0004 00000000 		.word	testmtx2
 2420 0008 00000000 		.word	testmtx3
 2421 000c 00000000 		.word	testmtx4
 2422 0010 00000000 		.word	testmtx5
 2423 0014 00000000 		.word	testmtx6
 2424 0018 00000000 		.word	testmtx7
 2425 001c 00000000 		.word	testmtx8
 2426 0020 00000000 		.word	0
 2427              		.section	.data.c1,"aw",%progbits
 2428              		.align	2
 2429              		.set	.LANCHOR2,. + 0
 2430              		.type	c1, %object
 2431              		.size	c1, 8
 2432              	c1:
 2433 0000 00000000 		.word	c1
 2434 0004 00000000 		.word	c1
 2435              		.section	.rodata.testmtx1,"a",%progbits
 2436              		.align	2
 2437              		.type	testmtx1, %object
 2438              		.size	testmtx1, 16
 2439              	testmtx1:
 2440 0000 E8000000 		.word	.LC119
 2441 0004 00000000 		.word	mtx1_setup
 2442 0008 00000000 		.word	0
 2443 000c 00000000 		.word	mtx1_execute
 2444              		.section	.rodata.testmtx2,"a",%progbits
 2445              		.align	2
 2446              		.type	testmtx2, %object
 2447              		.size	testmtx2, 16
 2448              	testmtx2:
 2449 0000 BC000000 		.word	.LC118
 2450 0004 00000000 		.word	mtx2_setup
 2451 0008 00000000 		.word	0
 2452 000c 00000000 		.word	mtx2_execute
 2453              		.section	.rodata.testmtx3,"a",%progbits
 2454              		.align	2
 2455              		.type	testmtx3, %object
ARM GAS  /tmp/cc71fNsA.s 			page 45


 2456              		.size	testmtx3, 16
 2457              	testmtx3:
 2458 0000 90000000 		.word	.LC117
 2459 0004 00000000 		.word	mtx3_setup
 2460 0008 00000000 		.word	0
 2461 000c 00000000 		.word	mtx3_execute
 2462              		.section	.rodata.testmtx4,"a",%progbits
 2463              		.align	2
 2464              		.type	testmtx4, %object
 2465              		.size	testmtx4, 16
 2466              	testmtx4:
 2467 0000 74000000 		.word	.LC116
 2468 0004 00000000 		.word	mtx4_setup
 2469 0008 00000000 		.word	0
 2470 000c 00000000 		.word	mtx4_execute
 2471              		.text
 2472              	.Letext0:
 2473              		.file 2 "/usr/lib/gcc/arm-none-eabi/4.8.2/include/stddef.h"
 2474              		.file 3 "/usr/arm-none-eabi/include/machine/_default_types.h"
 2475              		.file 4 "/usr/arm-none-eabi/include/stdint.h"
 2476              		.file 5 "../../os/ports/GCC/ARMCMx/chtypes.h"
 2477              		.file 6 "../../os/kernel/include/chlists.h"
 2478              		.file 7 "../../os/kernel/include/chthreads.h"
 2479              		.file 8 "../../os/ports/GCC/ARMCMx/chcore_v6m.h"
 2480              		.file 9 "../../os/kernel/include/chvt.h"
 2481              		.file 10 "../../os/kernel/include/chschd.h"
 2482              		.file 11 "../../os/kernel/include/chmtx.h"
 2483              		.file 12 "../../os/kernel/include/chcond.h"
 2484              		.file 13 "../../test/test.h"