ARM GAS  /tmp/ccswqY13.s 			page 1


   1              		.cpu cortex-m0
   2              		.fpu softvfp
   3              		.eabi_attribute 20, 1
   4              		.eabi_attribute 21, 1
   5              		.eabi_attribute 23, 3
   6              		.eabi_attribute 24, 1
   7              		.eabi_attribute 25, 1
   8              		.eabi_attribute 26, 1
   9              		.eabi_attribute 30, 2
  10              		.eabi_attribute 34, 0
  11              		.eabi_attribute 18, 4
  12              		.code	16
  13              		.file	"testpools.c"
  14              		.text
  15              	.Ltext0:
  16              		.cfi_sections	.debug_frame
  17              		.section	.text.null_provider,"ax",%progbits
  18              		.align	2
  19              		.p2align 4,,15
  20              		.code	16
  21              		.thumb_func
  22              		.type	null_provider, %function
  23              	null_provider:
  24              	.LFB7:
  25              		.file 1 "../../test/testpools.c"
  26              		.loc 1 60 0
  27              		.cfi_startproc
  28              	.LVL0:
  29              		.loc 1 64 0
  30 0000 0020     		mov	r0, #0
  31              	.LVL1:
  32              		@ sp needed
  33 0002 7047     		bx	lr
  34              		.cfi_endproc
  35              	.LFE7:
  36              		.size	null_provider, .-null_provider
  37 0004 C046C046 		.section	.text.pools1_setup,"ax",%progbits
  37      C046C046 
  37      C046C046 
  38              		.align	2
  39              		.p2align 4,,15
  40              		.code	16
  41              		.thumb_func
  42              		.type	pools1_setup, %function
  43              	pools1_setup:
  44              	.LFB8:
  45              		.loc 1 66 0
  46              		.cfi_startproc
  47 0000 08B5     		push	{r3, lr}
  48              		.cfi_def_cfa_offset 8
  49              		.cfi_offset 3, -8
  50              		.cfi_offset 14, -4
  51              		.loc 1 68 0
  52 0002 9821     		mov	r1, #152
  53 0004 0248     		ldr	r0, .L3
  54 0006 4900     		lsl	r1, r1, #1
  55 0008 0022     		mov	r2, #0
ARM GAS  /tmp/ccswqY13.s 			page 2


  56 000a FFF7FEFF 		bl	chPoolInit
  57              	.LVL2:
  58              		.loc 1 69 0
  59              		@ sp needed
  60 000e 08BD     		pop	{r3, pc}
  61              	.L4:
  62              		.align	2
  63              	.L3:
  64 0010 00000000 		.word	.LANCHOR0
  65              		.cfi_endproc
  66              	.LFE8:
  67              		.size	pools1_setup, .-pools1_setup
  68 0014 C046C046 		.section	.text.pools1_execute,"ax",%progbits
  68      C046C046 
  68      C046C046 
  69              		.align	2
  70              		.p2align 4,,15
  71              		.code	16
  72              		.thumb_func
  73              		.type	pools1_execute, %function
  74              	pools1_execute:
  75              	.LFB9:
  76              		.loc 1 71 0
  77              		.cfi_startproc
  78 0000 70B5     		push	{r4, r5, r6, lr}
  79              		.cfi_def_cfa_offset 16
  80              		.cfi_offset 4, -16
  81              		.cfi_offset 5, -12
  82              		.cfi_offset 6, -8
  83              		.cfi_offset 14, -4
  84              		.loc 1 75 0
  85 0002 2F4B     		ldr	r3, .L18
  86 0004 2F4D     		ldr	r5, .L18+4
  87 0006 1B68     		ldr	r3, [r3]
  88              		.loc 1 71 0
  89 0008 82B0     		sub	sp, sp, #8
  90              		.cfi_def_cfa_offset 24
  91              		.loc 1 75 0
  92 000a 281C     		mov	r0, r5
  93 000c 191C     		mov	r1, r3
  94 000e 0522     		mov	r2, #5
  95 0010 0193     		str	r3, [sp, #4]
  96 0012 FFF7FEFF 		bl	chPoolLoadArray
  97              	.LVL3:
  98 0016 0524     		mov	r4, #5
  99              	.LVL4:
 100              	.L9:
 101              		.loc 1 79 0
 102 0018 281C     		mov	r0, r5
 103 001a FFF7FEFF 		bl	chPoolAlloc
 104              	.LVL5:
 105 001e 011C     		mov	r1, r0
 106 0020 481E     		sub	r0, r1, #1
 107 0022 8141     		sbc	r1, r1, r0
 108 0024 C9B2     		uxtb	r1, r1
 109 0026 0120     		mov	r0, #1
 110 0028 FFF7FEFF 		bl	_test_assert
ARM GAS  /tmp/ccswqY13.s 			page 3


 111              	.LVL6:
 112 002c 0028     		cmp	r0, #0
 113 002e 36D1     		bne	.L5
 114              	.LVL7:
 115 0030 013C     		sub	r4, r4, #1
 116              	.LVL8:
 117              		.loc 1 78 0
 118 0032 002C     		cmp	r4, #0
 119 0034 F0D1     		bne	.L9
 120              		.loc 1 82 0
 121 0036 281C     		mov	r0, r5
 122 0038 FFF7FEFF 		bl	chPoolAlloc
 123              	.LVL9:
 124 003c 4142     		neg	r1, r0
 125 003e 4141     		adc	r1, r1, r0
 126 0040 C9B2     		uxtb	r1, r1
 127 0042 0220     		mov	r0, #2
 128 0044 FFF7FEFF 		bl	_test_assert
 129              	.LVL10:
 130 0048 0028     		cmp	r0, #0
 131 004a 28D1     		bne	.L5
 132 004c 1E4C     		ldr	r4, .L18+8
 133              	.LVL11:
 134 004e 0199     		ldr	r1, [sp, #4]
 135 0050 261C     		mov	r6, r4
 136 0052 1036     		add	r6, r6, #16
 137              	.LBB4:
 138              	.LBB5:
 139              		.loc 1 86 0
 140 0054 281C     		mov	r0, r5
 141 0056 FFF7FEFF 		bl	chPoolFree
 142              	.LVL12:
 143              		.loc 1 85 0
 144 005a B442     		cmp	r4, r6
 145 005c 05D0     		beq	.L11
 146              	.L16:
 147 005e 02CC     		ldmia	r4!, {r1}
 148              		.loc 1 86 0
 149 0060 281C     		mov	r0, r5
 150 0062 FFF7FEFF 		bl	chPoolFree
 151              	.LVL13:
 152              		.loc 1 85 0
 153 0066 B442     		cmp	r4, r6
 154 0068 F9D1     		bne	.L16
 155              	.L11:
 156 006a 0524     		mov	r4, #5
 157              	.L14:
 158              	.LVL14:
 159              		.loc 1 90 0
 160 006c 281C     		mov	r0, r5
 161 006e FFF7FEFF 		bl	chPoolAlloc
 162              	.LVL15:
 163 0072 411E     		sub	r1, r0, #1
 164 0074 8841     		sbc	r0, r0, r1
 165 0076 C1B2     		uxtb	r1, r0
 166 0078 0320     		mov	r0, #3
 167 007a FFF7FEFF 		bl	_test_assert
ARM GAS  /tmp/ccswqY13.s 			page 4


 168              	.LVL16:
 169 007e 0028     		cmp	r0, #0
 170 0080 0DD1     		bne	.L5
 171              	.LVL17:
 172 0082 013C     		sub	r4, r4, #1
 173              	.LVL18:
 174              		.loc 1 89 0
 175 0084 002C     		cmp	r4, #0
 176 0086 F1D1     		bne	.L14
 177              		.loc 1 93 0
 178 0088 281C     		mov	r0, r5
 179 008a FFF7FEFF 		bl	chPoolAlloc
 180              	.LVL19:
 181 008e 4142     		neg	r1, r0
 182 0090 4141     		adc	r1, r1, r0
 183 0092 C9B2     		uxtb	r1, r1
 184 0094 0420     		mov	r0, #4
 185 0096 FFF7FEFF 		bl	_test_assert
 186              	.LVL20:
 187 009a 0028     		cmp	r0, #0
 188 009c 01D0     		beq	.L17
 189              	.LVL21:
 190              	.L5:
 191              	.LBE5:
 192              	.LBE4:
 193              		.loc 1 98 0
 194 009e 02B0     		add	sp, sp, #8
 195              		@ sp needed
 196 00a0 70BD     		pop	{r4, r5, r6, pc}
 197              	.LVL22:
 198              	.L17:
 199              	.LBB7:
 200              	.LBB6:
 201              		.loc 1 96 0
 202 00a2 281C     		mov	r0, r5
 203 00a4 1021     		mov	r1, #16
 204 00a6 094A     		ldr	r2, .L18+12
 205 00a8 FFF7FEFF 		bl	chPoolInit
 206              	.LVL23:
 207              		.loc 1 97 0
 208 00ac 281C     		mov	r0, r5
 209 00ae FFF7FEFF 		bl	chPoolAlloc
 210              	.LVL24:
 211 00b2 4142     		neg	r1, r0
 212 00b4 4141     		adc	r1, r1, r0
 213 00b6 C9B2     		uxtb	r1, r1
 214 00b8 0520     		mov	r0, #5
 215 00ba FFF7FEFF 		bl	_test_assert
 216              	.LVL25:
 217 00be EEE7     		b	.L5
 218              	.L19:
 219              		.align	2
 220              	.L18:
 221 00c0 00000000 		.word	wa
 222 00c4 00000000 		.word	.LANCHOR0
 223 00c8 04000000 		.word	wa+4
 224 00cc 00000000 		.word	null_provider
ARM GAS  /tmp/ccswqY13.s 			page 5


 225              	.LBE6:
 226              	.LBE7:
 227              		.cfi_endproc
 228              	.LFE9:
 229              		.size	pools1_execute, .-pools1_execute
 230              		.global	patternpools
 231              		.global	testpools1
 232              		.section	.rodata.str1.4,"aMS",%progbits,1
 233              		.align	2
 234              	.LC8:
 235 0000 4D656D6F 		.ascii	"Memory Pools, queue/dequeue\000"
 235      72792050 
 235      6F6F6C73 
 235      2C207175 
 235      6575652F 
 236              		.section	.rodata.patternpools,"a",%progbits
 237              		.align	2
 238              		.type	patternpools, %object
 239              		.size	patternpools, 8
 240              	patternpools:
 241 0000 00000000 		.word	testpools1
 242 0004 00000000 		.word	0
 243              		.section	.data.mp1,"aw",%progbits
 244              		.align	2
 245              		.set	.LANCHOR0,. + 0
 246              		.type	mp1, %object
 247              		.size	mp1, 12
 248              	mp1:
 249 0000 00000000 		.word	0
 250 0004 30010000 		.word	304
 251 0008 00000000 		.word	0
 252              		.section	.rodata.testpools1,"a",%progbits
 253              		.align	2
 254              		.type	testpools1, %object
 255              		.size	testpools1, 16
 256              	testpools1:
 257 0000 00000000 		.word	.LC8
 258 0004 00000000 		.word	pools1_setup
 259 0008 00000000 		.word	0
 260 000c 00000000 		.word	pools1_execute
 261              		.text
 262              	.Letext0:
 263              		.file 2 "/usr/lib/gcc/arm-none-eabi/4.8.2/include/stddef.h"
 264              		.file 3 "../../os/ports/GCC/ARMCMx/chtypes.h"
 265              		.file 4 "../../os/kernel/include/chmemcore.h"
 266              		.file 5 "../../os/kernel/include/chmempools.h"
 267              		.file 6 "../../test/test.h"