ARM GAS  /tmp/cciWQupY.s 			page 1


   1              		.syntax unified
   2              		.cpu cortex-m4
   3              		.fpu softvfp
   4              		.eabi_attribute 20, 1
   5              		.eabi_attribute 21, 1
   6              		.eabi_attribute 23, 3
   7              		.eabi_attribute 24, 1
   8              		.eabi_attribute 25, 1
   9              		.eabi_attribute 26, 1
  10              		.eabi_attribute 30, 2
  11              		.eabi_attribute 34, 1
  12              		.eabi_attribute 18, 4
  13              		.thumb
  14              		.file	"chcore_v7m.c"
  15              		.text
  16              	.Ltext0:
  17              		.cfi_sections	.debug_frame
  18              		.section	.text._port_switch_from_isr,"ax",%progbits
  19              		.align	2
  20              		.p2align 4,,15
  21              		.global	_port_switch_from_isr
  22              		.thumb
  23              		.thumb_func
  24              		.type	_port_switch_from_isr, %function
  25              	_port_switch_from_isr:
  26              	.LFB11:
  27              		.file 1 "../../../os/ports/GCC/ARMCMx/chcore_v7m.c"
  28              		.loc 1 207 0
  29              		.cfi_startproc
  30              		@ Naked Function: prologue and epilogue provided by programmer.
  31              		@ args = 0, pretend = 0, frame = 0
  32              		@ frame_needed = 0, uses_anonymous_args = 0
  33              		.loc 1 209 0
  34 0000 FFF7FEFF 		bl	dbg_check_lock
  35              	.LVL0:
  36              		.loc 1 210 0
  37 0004 FFF7FEFF 		bl	chSchDoReschedule
  38              	.LVL1:
  39              		.loc 1 211 0
  40 0008 FFF7FEFF 		bl	dbg_check_unlock
  41              	.LVL2:
  42              		.loc 1 212 0
  43              	@ 212 "../../../os/ports/GCC/ARMCMx/chcore_v7m.c" 1
  44              		_port_exit_from_isr:
  45              	@ 0 "" 2
  46              		.loc 1 214 0
  47              	@ 214 "../../../os/ports/GCC/ARMCMx/chcore_v7m.c" 1
  48 000c 00DF     		svc     #0
  49              	@ 0 "" 2
  50              		.loc 1 221 0
  51              		.thumb
  52              		.cfi_endproc
  53              	.LFE11:
  54              		.size	_port_switch_from_isr, .-_port_switch_from_isr
  55 000e 00BF     		.section	.text.SVCallVector,"ax",%progbits
  56              		.align	2
  57              		.p2align 4,,15
ARM GAS  /tmp/cciWQupY.s 			page 2


  58              		.global	SVCallVector
  59              		.thumb
  60              		.thumb_func
  61              		.type	SVCallVector, %function
  62              	SVCallVector:
  63              	.LFB8:
  64              		.loc 1 65 0
  65              		.cfi_startproc
  66              		@ args = 0, pretend = 0, frame = 0
  67              		@ frame_needed = 0, uses_anonymous_args = 0
  68              		@ link register save eliminated.
  69              		.loc 1 69 0
  70              	@ 69 "../../../os/ports/GCC/ARMCMx/chcore_v7m.c" 1
  71 0000 EFF30983 		mrs     r3, PSP
  72              	@ 0 "" 2
  73              	.LVL3:
  74              		.loc 1 73 0
  75              		.thumb
  76 0004 2033     		adds	r3, r3, #32
  77              	.LVL4:
  78              		.loc 1 80 0
  79              	@ 80 "../../../os/ports/GCC/ARMCMx/chcore_v7m.c" 1
  80 0006 83F30988 		msr     PSP, r3
  81              	@ 0 "" 2
  82              		.thumb
  83              	.LBB2:
  84              		.loc 1 81 0
  85 000a 0023     		movs	r3, #0
  86              	.LVL5:
  87              	@ 81 "../../../os/ports/GCC/ARMCMx/chcore_v7m.c" 1
  88 000c 83F31188 		msr     BASEPRI, r3
  89              	@ 0 "" 2
  90              		.thumb
  91 0010 7047     		bx	lr
  92              	.LBE2:
  93              		.cfi_endproc
  94              	.LFE8:
  95              		.size	SVCallVector, .-SVCallVector
  96 0012 00BFAFF3 		.section	.text._port_init,"ax",%progbits
  96      0080AFF3 
  96      0080AFF3 
  96      0080
  97              		.align	2
  98              		.p2align 4,,15
  99              		.global	_port_init
 100              		.thumb
 101              		.thumb_func
 102              		.type	_port_init, %function
 103              	_port_init:
 104              	.LFB9:
 105              		.loc 1 118 0
 106              		.cfi_startproc
 107              		@ args = 0, pretend = 0, frame = 0
 108              		@ frame_needed = 0, uses_anonymous_args = 0
 109 0000 08B5     		push	{r3, lr}
 110              		.cfi_def_cfa_offset 8
 111              		.cfi_offset 3, -8
ARM GAS  /tmp/cciWQupY.s 			page 3


 112              		.cfi_offset 14, -4
 113              		.loc 1 121 0
 114 0002 4FF46D43 		mov	r3, #60672
 115 0006 CEF20003 		movt	r3, 57344
 116              		.loc 1 122 0
 117 000a 4FF44072 		mov	r2, #768
 118 000e C0F2FA52 		movt	r2, 1530
 119              		.loc 1 121 0
 120 0012 0021     		movs	r1, #0
 121 0014 9960     		str	r1, [r3, #8]
 122              		.loc 1 125 0
 123 0016 0720     		movs	r0, #7
 124              		.loc 1 122 0
 125 0018 DA60     		str	r2, [r3, #12]
 126              		.loc 1 125 0
 127 001a 1021     		movs	r1, #16
 128 001c FFF7FEFF 		bl	nvicSetSystemHandlerPriority
 129              	.LVL6:
 130              		.loc 1 127 0
 131 0020 0A20     		movs	r0, #10
 132 0022 2021     		movs	r1, #32
 133 0024 FFF7FEFF 		bl	nvicSetSystemHandlerPriority
 134              	.LVL7:
 135              		.loc 1 129 0
 136 0028 0B20     		movs	r0, #11
 137 002a 8021     		movs	r1, #128
 138              		.loc 1 131 0
 139 002c BDE80840 		pop	{r3, lr}
 140              		.loc 1 129 0
 141 0030 FFF7FEBF 		b	nvicSetSystemHandlerPriority
 142              	.LVL8:
 143              		.cfi_endproc
 144              	.LFE9:
 145              		.size	_port_init, .-_port_init
 146 0034 AFF30080 		.section	.text._port_irq_epilogue,"ax",%progbits
 146      AFF30080 
 146      AFF30080 
 147              		.align	2
 148              		.p2align 4,,15
 149              		.global	_port_irq_epilogue
 150              		.thumb
 151              		.thumb_func
 152              		.type	_port_irq_epilogue, %function
 153              	_port_irq_epilogue:
 154              	.LFB10:
 155              		.loc 1 148 0
 156              		.cfi_startproc
 157              		@ args = 0, pretend = 0, frame = 0
 158              		@ frame_needed = 0, uses_anonymous_args = 0
 159              		@ link register save eliminated.
 160              	.LBB3:
 161              		.loc 1 150 0
 162 0000 2023     		movs	r3, #32
 163              	@ 150 "../../../os/ports/GCC/ARMCMx/chcore_v7m.c" 1
 164 0002 83F31188 		msr     BASEPRI, r3
 165              	@ 0 "" 2
 166              		.thumb
ARM GAS  /tmp/cciWQupY.s 			page 4


 167              	.LBE3:
 168              		.loc 1 151 0
 169 0006 4FF46D43 		mov	r3, #60672
 170 000a CEF20003 		movt	r3, 57344
 171 000e 5B68     		ldr	r3, [r3, #4]
 172 0010 13F40063 		ands	r3, r3, #2048
 173 0014 20D0     		beq	.L5
 174              	.LBB4:
 175              		.loc 1 155 0
 176              	@ 155 "../../../os/ports/GCC/ARMCMx/chcore_v7m.c" 1
 177 0016 EFF30982 		mrs     r2, PSP
 178              	@ 0 "" 2
 179              	.LVL9:
 180              		.loc 1 159 0
 181              		.thumb
 182 001a A2F12003 		sub	r3, r2, #32
 183              	.LVL10:
 184              		.loc 1 160 0
 185              	@ 160 "../../../os/ports/GCC/ARMCMx/chcore_v7m.c" 1
 186 001e 83F30988 		msr     PSP, r3
 187              	@ 0 "" 2
 188              		.loc 1 165 0
 189              		.thumb
 190 0022 40F20003 		movw	r3, #:lower16:rlist
 191              	.LVL11:
 192 0026 C0F20003 		movt	r3, #:upper16:rlist
 193              		.loc 1 161 0
 194 002a 4FF08070 		mov	r0, #16777216
 195              		.loc 1 165 0
 196 002e 9969     		ldr	r1, [r3, #24]
 197              		.loc 1 161 0
 198 0030 42F8040C 		str	r0, [r2, #-4]
 199              		.loc 1 165 0
 200 0034 91F82300 		ldrb	r0, [r1, #35]	@ zero_extendqisi2
 201 0038 88B1     		cbz	r0, .L6
 202              		.loc 1 165 0 is_stmt 0 discriminator 1
 203 003a 1868     		ldr	r0, [r3]
 204 003c 8B68     		ldr	r3, [r1, #8]
 205 003e 8168     		ldr	r1, [r0, #8]
 206 0040 9942     		cmp	r1, r3
 207 0042 94BF     		ite	ls
 208 0044 0023     		movls	r3, #0
 209 0046 0123     		movhi	r3, #1
 210 0048 93B1     		cbz	r3, .L8
 211              	.L11:
 212              		.loc 1 167 0 is_stmt 1
 213 004a 40F20003 		movw	r3, #:lower16:_port_switch_from_isr
 214 004e C0F20003 		movt	r3, #:upper16:_port_switch_from_isr
 215 0052 42F8083C 		str	r3, [r2, #-8]
 216 0056 7047     		bx	lr
 217              	.LVL12:
 218              	.L5:
 219              	.LBE4:
 220              	.LBB5:
 221              		.loc 1 197 0
 222              	@ 197 "../../../os/ports/GCC/ARMCMx/chcore_v7m.c" 1
 223 0058 83F31188 		msr     BASEPRI, r3
ARM GAS  /tmp/cciWQupY.s 			page 5


 224              	@ 0 "" 2
 225              		.thumb
 226 005c 7047     		bx	lr
 227              	.LVL13:
 228              	.L6:
 229              	.LBE5:
 230              	.LBB6:
 231              		.loc 1 165 0 discriminator 2
 232 005e 1868     		ldr	r0, [r3]
 233 0060 8B68     		ldr	r3, [r1, #8]
 234 0062 8168     		ldr	r1, [r0, #8]
 235 0064 9942     		cmp	r1, r3
 236 0066 34BF     		ite	cc
 237 0068 0023     		movcc	r3, #0
 238 006a 0123     		movcs	r3, #1
 239 006c 002B     		cmp	r3, #0
 240 006e ECD1     		bne	.L11
 241              	.L8:
 242              		.loc 1 176 0
 243 0070 40F20003 		movw	r3, #:lower16:_port_exit_from_isr
 244 0074 C0F20003 		movt	r3, #:upper16:_port_exit_from_isr
 245 0078 42F8083C 		str	r3, [r2, #-8]
 246 007c 7047     		bx	lr
 247              	.LBE6:
 248              		.cfi_endproc
 249              	.LFE10:
 250              		.size	_port_irq_epilogue, .-_port_irq_epilogue
 251 007e 00BF     		.section	.text.SysTickVector,"ax",%progbits
 252              		.align	2
 253              		.p2align 4,,15
 254              		.global	SysTickVector
 255              		.thumb
 256              		.thumb_func
 257              		.type	SysTickVector, %function
 258              	SysTickVector:
 259              	.LFB7:
 260              		.loc 1 47 0
 261              		.cfi_startproc
 262              		@ args = 0, pretend = 0, frame = 0
 263              		@ frame_needed = 0, uses_anonymous_args = 0
 264 0000 08B5     		push	{r3, lr}
 265              		.cfi_def_cfa_offset 8
 266              		.cfi_offset 3, -8
 267              		.cfi_offset 14, -4
 268              		.loc 1 49 0
 269 0002 FFF7FEFF 		bl	dbg_check_enter_isr
 270              	.LVL14:
 271              	.LBB7:
 272              		.loc 1 51 0
 273 0006 2023     		movs	r3, #32
 274              	@ 51 "../../../os/ports/GCC/ARMCMx/chcore_v7m.c" 1
 275 0008 83F31188 		msr     BASEPRI, r3
 276              	@ 0 "" 2
 277              		.thumb
 278              	.LBE7:
 279 000c FFF7FEFF 		bl	dbg_check_lock_from_isr
 280              	.LVL15:
ARM GAS  /tmp/cciWQupY.s 			page 6


 281              		.loc 1 52 0
 282 0010 FFF7FEFF 		bl	chSysTimerHandlerI
 283              	.LVL16:
 284              		.loc 1 53 0
 285 0014 FFF7FEFF 		bl	dbg_check_unlock_from_isr
 286              	.LVL17:
 287              	.LBB8:
 288 0018 0023     		movs	r3, #0
 289              	@ 53 "../../../os/ports/GCC/ARMCMx/chcore_v7m.c" 1
 290 001a 83F31188 		msr     BASEPRI, r3
 291              	@ 0 "" 2
 292              		.thumb
 293              	.LBE8:
 294              		.loc 1 55 0
 295 001e FFF7FEFF 		bl	dbg_check_leave_isr
 296              	.LVL18:
 297              		.loc 1 56 0
 298 0022 BDE80840 		pop	{r3, lr}
 299              		.loc 1 55 0
 300 0026 FFF7FEBF 		b	_port_irq_epilogue
 301              	.LVL19:
 302              		.cfi_endproc
 303              	.LFE7:
 304              		.size	SysTickVector, .-SysTickVector
 305 002a 00BFAFF3 		.section	.text._port_switch,"ax",%progbits
 305      0080
 306              		.align	2
 307              		.p2align 4,,15
 308              		.global	_port_switch
 309              		.thumb
 310              		.thumb_func
 311              		.type	_port_switch, %function
 312              	_port_switch:
 313              	.LFB12:
 314              		.loc 1 236 0
 315              		.cfi_startproc
 316              		@ Naked Function: prologue and epilogue provided by programmer.
 317              		@ args = 0, pretend = 0, frame = 0
 318              		@ frame_needed = 0, uses_anonymous_args = 0
 319              	.LVL20:
 320              		.loc 1 238 0
 321              	@ 238 "../../../os/ports/GCC/ARMCMx/chcore_v7m.c" 1
 322 0000 2DE9F04F 		push    {r4, r5, r6, r7, r8, r9, r10, r11, lr}
 323              	@ 0 "" 2
 324              		.loc 1 244 0
 325              	@ 244 "../../../os/ports/GCC/ARMCMx/chcore_v7m.c" 1
 326 0004 C1F80CD0 		str     sp, [r1, #12]                          
 327 0008 D0F80CD0 		ldr     sp, [r0, #12]
 328              	@ 0 "" 2
 329              		.loc 1 250 0
 330              	@ 250 "../../../os/ports/GCC/ARMCMx/chcore_v7m.c" 1
 331 000c BDE8F08F 		pop     {r4, r5, r6, r7, r8, r9, r10, r11, pc}
 332              	@ 0 "" 2
 333              		.loc 1 252 0
 334              		.thumb
 335              		.cfi_endproc
 336              	.LFE12:
ARM GAS  /tmp/cciWQupY.s 			page 7


 337              		.size	_port_switch, .-_port_switch
 338              		.section	.text._port_thread_start,"ax",%progbits
 339              		.align	2
 340              		.p2align 4,,15
 341              		.global	_port_thread_start
 342              		.thumb
 343              		.thumb_func
 344              		.type	_port_thread_start, %function
 345              	_port_thread_start:
 346              	.LFB13:
 347              		.loc 1 259 0
 348              		.cfi_startproc
 349              		@ args = 0, pretend = 0, frame = 0
 350              		@ frame_needed = 0, uses_anonymous_args = 0
 351 0000 08B5     		push	{r3, lr}
 352              		.cfi_def_cfa_offset 8
 353              		.cfi_offset 3, -8
 354              		.cfi_offset 14, -4
 355              		.loc 1 261 0
 356 0002 FFF7FEFF 		bl	dbg_check_unlock
 357              	.LVL21:
 358              	.LBB9:
 359 0006 0023     		movs	r3, #0
 360              	@ 261 "../../../os/ports/GCC/ARMCMx/chcore_v7m.c" 1
 361 0008 83F31188 		msr     BASEPRI, r3
 362              	@ 0 "" 2
 363              		.thumb
 364              	.LBE9:
 365              		.loc 1 262 0
 366              	@ 262 "../../../os/ports/GCC/ARMCMx/chcore_v7m.c" 1
 367 000c 2846     		mov     r0, r5                                 
 368 000e A047     		blx     r4                                     
 369 0010 FFF7FEFF 		bl      chThdExit
 370              	@ 0 "" 2
 371              		.thumb
 372 0014 08BD     		pop	{r3, pc}
 373              		.cfi_endproc
 374              	.LFE13:
 375              		.size	_port_thread_start, .-_port_thread_start
 376 0016 00BFAFF3 		.text
 376      0080AFF3 
 376      0080
 377              	.Letext0:
 378              		.file 2 "/usr/arm-none-eabi/include/machine/_default_types.h"
 379              		.file 3 "/usr/arm-none-eabi/include/stdint.h"
 380              		.file 4 "../../../os/ports/GCC/ARMCMx/chtypes.h"
 381              		.file 5 "../../../os/kernel/include/chlists.h"
 382              		.file 6 "../../../os/kernel/include/chthreads.h"
 383              		.file 7 "../../../os/ports/GCC/ARMCMx/chcore_v7m.h"
 384              		.file 8 "../../../os/ports/common/ARMCMx/nvic.h"
 385              		.file 9 "../../../os/kernel/include/chschd.h"
 386              		.file 10 "../../../os/kernel/include/chmtx.h"
 387              		.file 11 "../../../os/kernel/include/chdebug.h"
 388              		.file 12 "../../../os/kernel/include/chsys.h"