ARM GAS  /tmp/cciWQupY.s 			page 1


   1              		.syntax unified
   2              		.cpu cortex-m4
   3              		.fpu softvfp
   4              		.eabi_attribute 20, 1
   5              		.eabi_attribute 21, 1
   6              		.eabi_attribute 23, 3
   7              		.eabi_attribute 24, 1
   8              		.eabi_attribute 25, 1
   9              		.eabi_attribute 26, 1
  10              		.eabi_attribute 30, 2
  11              		.eabi_attribute 34, 1
  12              		.eabi_attribute 18, 4
  13              		.thumb
  14              		.file	"chcore_v7m.c"
  15              		.text
  16              	.Ltext0:
  17              		.cfi_sections	.debug_frame
  18              		.section	.text._port_switch_from_isr,"ax",%progbits
  19              		.align	2
  20              		.p2align 4,,15
  21              		.global	_port_switch_from_isr
  22              		.thumb
  23              		.thumb_func
  24              		.type	_port_switch_from_isr, %function
  25              	_port_switch_from_isr:
  26              	.LFB11:
  27              		.file 1 "../../../os/ports/GCC/ARMCMx/chcore_v7m.c"
  28              		.loc 1 207 0
  29              		.cfi_startproc
  30              		@ Naked Function: prologue and epilogue provided by programmer.
  31              		@ args = 0, pretend = 0, frame = 0
  32              		@ frame_needed = 0, uses_anonymous_args = 0
  33              		.loc 1 209 0
  34 0000 FFF7FEFF 		bl	dbg_check_lock
  35              	.LVL0:
  36              		.loc 1 210 0
  37 0004 FFF7FEFF 		bl	chSchDoReschedule
  38              	.LVL1:
  39              		.loc 1 211 0
  40 0008 FFF7FEFF 		bl	dbg_check_unlock
  41              	.LVL2:
  42              		.loc 1 212 0
  43              	@ 212 "../../../os/ports/GCC/ARMCMx/chcore_v7m.c" 1
  44              		_port_exit_from_isr:
  45              	@ 0 "" 2
  46              		.loc 1 214 0
  47              	@ 214 "../../../os/ports/GCC/ARMCMx/chcore_v7m.c" 1
  48 000c 00DF     		svc     #0
  49              	@ 0 "" 2
  50              		.loc 1 221 0
  51              		.thumb
  52              		.cfi_endproc
  53              	.LFE11:
  54              		.size	_port_switch_from_isr, .-_port_switch_from_isr
  55 000e 00BF     		.section	.text.SVCallVector,"ax",%progbits
  56              		.align	2
  57              		.p2align 4,,15
ARM GAS  /tmp/cciWQupY.s 			page 2


  58              		.global	SVCallVector
  59              		.thumb
  60              		.thumb_func
  61              		.type	SVCallVector, %function
  62              	SVCallVector:
  63              	.LFB8:
  64              		.loc 1 65 0
  65              		.cfi_startproc
  66              		@ args = 0, pretend = 0, frame = 0
  67              		@ frame_needed = 0, uses_anonymous_args = 0
  68              		@ link register save eliminated.
  69              		.loc 1 69 0
  70              	@ 69 "../../../os/ports/GCC/ARMCMx/chcore_v7m.c" 1
  71 0000 EFF30983 		mrs     r3, PSP
  72              	@ 0 "" 2
  73              	.LVL3:
  74              		.loc 1 73 0
  75              		.thumb
  76 0004 2033     		adds	r3, r3, #32
  77              	.LVL4:
  78              		.loc 1 80 0
  79              	@ 80 "../../../os/ports/GCC/ARMCMx/chcore_v7m.c" 1
  80 0006 83F30988 		msr     PSP, r3
  81              	@ 0 "" 2
  82              		.thumb
  83              	.LBB2:
  84              		.loc 1 81 0
  85 000a 0023     		movs	r3, #0
  86              	.LVL5:
  87              	@ 81 "../../../os/ports/GCC/ARMCMx/chcore_v7m.c" 1
  88 000c 83F31188 		msr     BASEPRI, r3
  89              	@ 0 "" 2
  90              		.thumb
  91 0010 7047     		bx	lr
  92              	.LBE2:
  93              		.cfi_endproc
  94              	.LFE8:
  95              		.size	SVCallVector, .-SVCallVector
  96 0012 00BFAFF3 		.section	.text._port_init,"ax",%progbits
  96      0080AFF3 
  96      0080AFF3 
  96      0080
  97              		.align	2
  98              		.p2align 4,,15
  99              		.global	_port_init
 100              		.thumb
 101              		.thumb_func
 102              		.type	_port_init, %function
 103              	_port_init:
 104              	.LFB9:
 105              		.loc 1 118 0
 106              		.cfi_startproc
 107              		@ args = 0, pretend = 0, frame = 0
 108              		@ frame_needed = 0, uses_anonymous_args = 0
 109 0000 08B5     		push	{r3, lr}
 110              		.cfi_def_cfa_offset 8
 111              		.cfi_offset 3, -8
ARM GAS  /tmp/cciWQupY.s 			page 3


 112              		.cfi_offset 14, -4
 113              		.loc 1 121 0
 114 0002 4FF46D43 		mov	r3, #60672
 115 0006 CEF20003 		movt	r3, 57344
 116              		.loc 1 122 0
 117 000a 4FF44072 		mov	r2, #768
 118 000e C0F2FA52 		movt	r2, 1530
 119              		.loc 1 121 0
 120 0012 0021     		movs	r1, #0
 121 0014 9960     		str	r1, [r3, #8]
 122              		.loc 1 125 0
 123 0016 0720     		movs	r0, #7
 124              		.loc 1 122 0
 125 0018 DA60     		str	r2, [r3, #12]
 126              		.loc 1 125 0
 127 001a 1021     		movs	r1, #16
 128 001c FFF7FEFF 		bl	nvicSetSystemHandlerPriority
 129              	.LVL6:
 130              		.loc 1 127 0
 131 0020 0A20     		movs	r0, #10
 132 0022 2021     		movs	r1, #32
 133 0024 FFF7FEFF 		bl	nvicSetSystemHandlerPriority
 134              	.LVL7:
 135              		.loc 1 129 0
 136 0028 0B20     		movs	r0, #11
 137 002a 8021     		movs	r1, #128
 138              		.loc 1 131 0
 139 002c BDE80840 		pop	{r3, lr}
 140              		.loc 1 129 0
 141 0030 FFF7FEBF 		b	nvicSetSystemHandlerPriority
 142              	.LVL8:
 143              		.cfi_endproc
 144              	.LFE9:
 145              		.size	_port_init, .-_port_init
 146 0034 AFF30080 		.section	.text._port_irq_epilogue,"ax",%progbits
 146      AFF30080 
 146      AFF30080 
 147              		.align	2
 148              		.p2align 4,,15
 149              		.global	_port_irq_epilogue
 150              		.thumb
 151              		.thumb_func
 152              		.type	_port_irq_epilogue, %function
 153              	_port_irq_epilogue:
 154              	.LFB10:
 155              		.loc 1 148 0
 156              		.cfi_startproc
 157              		@ args = 0, pretend = 0, frame = 0
 158              		@ frame_needed = 0, uses_anonymous_args = 0
 159              		@ link register save eliminated.
 160              	.LBB3:
 161              		.loc 1 150 0
 162 0000 2023     		movs	r3, #32
 163              	@ 150 "../../../os/ports/GCC/ARMCMx/chcore_v7m.c" 1
 164 0002 83F31188 		msr     BASEPRI, r3
 165              	@ 0 "" 2
 166              		.thumb
ARM GAS  /tmp/cciWQupY.s 			page 4


 167              	.LBE3:
 168              		.loc 1 151 0
 169 0006 4FF46D43 		mov	r3, #60672
 170 000a CEF20003 		movt	r3, 57344
 171 000e 5B68     		ldr	r3, [r3, #4]
 172 0010 13F40063 		ands	r3, r3, #2048
 173 0014 20D0     		beq	.L5
 174              	.LBB4:
 175              		.loc 1 155 0
 176              	@ 155 "../../../os/ports/GCC/ARMCMx/chcore_v7m.c" 1
 177 0016 EFF30982 		mrs     r2, PSP
 178              	@ 0 "" 2
 179              	.LVL9:
 180              		.loc 1 159 0
 181              		.thumb
 182 001a A2F12003 		sub	r3, r2, #32
 183              	.LVL10:
 184              		.loc 1 160 0
 185              	@ 160 "../../../os/ports/GCC/ARMCMx/chcore_v7m.c" 1
 186 001e 83F30988 		msr     PSP, r3
 187              	@ 0 "" 2
 188              		.loc 1 165 0
 189              		.thumb
 190 0022 40F20003 		movw	r3, #:lower16:rlist
 191              	.LVL11:
 192 0026 C0F20003 		movt	r3, #:upper16:rlist
 193              		.loc 1 161 0
 194 002a 4FF08070 		mov	r0, #16777216
 195              		.loc 1 165 0
 196 002e 9969     		ldr	r1, [r3, #24]
 197              		.loc 1 161 0
 198 0030 42F8040C 		str	r0, [r2, #-4]
 199              		.loc 1 165 0
 200 0034 91F82300 		ldrb	r0, [r1, #35]	@ zero_extendqisi2
 201 0038 88B1     		cbz	r0, .L6
 202              		.loc 1 165 0 is_stmt 0 discriminator 1
 203 003a 1868     		ldr	r0, [r3]
 204 003c 8B68     		ldr	r3, [r1, #8]
 205 003e 8168     		ldr	r1, [r0, #8]
 206 0040 9942     		cmp	r1, r3
 207 0042 94BF     		ite	ls
 208 0044 0023     		movls	r3, #0
 209 0046 0123     		movhi	r3, #1
 210 0048 93B1     		cbz	r3, .L8
 211              	.L11:
 212              		.loc 1 167 0 is_stmt 1
 213 004a 40F20003 		movw	r3, #:lower16:_port_switch_from_isr
 214 004e C0F20003 		movt	r3, #:upper16:_port_switch_from_isr
 215 0052 42F8083C 		str	r3, [r2, #-8]
 216 0056 7047     		bx	lr
 217              	.LVL12:
 218              	.L5:
 219              	.LBE4:
 220              	.LBB5:
 221              		.loc 1 197 0
 222              	@ 197 "../../../os/ports/GCC/ARMCMx/chcore_v7m.c" 1
 223 0058 83F31188 		msr     BASEPRI, r3
ARM GAS  /tmp/cciWQupY.s 			page 5


 224              	@ 0 "" 2
 225              		.thumb
 226 005c 7047     		bx	lr
 227              	.LVL13:
 228              	.L6:
 229              	.LBE5:
 230              	.LBB6:
 231              		.loc 1 165 0 discriminator 2
 232 005e 1868     		ldr	r0, [r3]
 233 0060 8B68     		ldr	r3, [r1, #8]
 234 0062 8168     		ldr	r1, [r0, #8]
 235 0064 9942     		cmp	r1, r3
 236 0066 34BF     		ite	cc
 237 0068 0023     		movcc	r3, #0
 238 006a 0123     		movcs	r3, #1
 239 006c 002B     		cmp	r3, #0
 240 006e ECD1     		bne	.L11
 241              	.L8:
 242              		.loc 1 176 0
 243 0070 40F20003 		movw	r3, #:lower16:_port_exit_from_isr
 244 0074 C0F20003 		movt	r3, #:upper16:_port_exit_from_isr
 245 0078 42F8083C 		str	r3, [r2, #-8]
 246 007c 7047     		bx	lr
 247              	.LBE6:
 248              		.cfi_endproc
 249              	.LFE10:
 250              		.size	_port_irq_epilogue, .-_port_irq_epilogue
 251 007e 00BF     		.section	.text.SysTickVector,"ax",%progbits
 252              		.align	2
 253              		.p2align 4,,15
 254              		.global	SysTickVector
 255              		.thumb
 256              		.thumb_func
 257              		.type	SysTickVector, %function
 258              	SysTickVector:
 259              	.LFB7:
 260              		.loc 1 47 0
 261              		.cfi_startproc
 262              		@ args = 0, pretend = 0, frame = 0
 263              		@ frame_needed = 0, uses_anonymous_args = 0
 264 0000 08B5     		push	{r3, lr}
 265              		.cfi_def_cfa_offset 8
 266              		.cfi_offset 3, -8
 267              		.cfi_offset 14, -4
 268              		.loc 1 49 0
 269 0002 FFF7FEFF 		bl	dbg_check_enter_isr
 270              	.LVL14:
 271              	.LBB7:
 272              		.loc 1 51 0
 273 0006 2023     		movs	r3, #32
 274              	@ 51 "../../../os/ports/GCC/ARMCMx/chcore_v7m.c" 1
 275 0008 83F31188 		msr     BASEPRI, r3
 276              	@ 0 "" 2
 277              		.thumb
 278              	.LBE7:
 279 000c FFF7FEFF 		bl	dbg_check_lock_from_isr
 280              	.LVL15:
ARM GAS  /tmp/cciWQupY.s 			page 6


 281              		.loc 1 52 0
 282 0010 FFF7FEFF 		bl	chSysTimerHandlerI
 283              	.LVL16:
 284              		.loc 1 53 0
 285 0014 FFF7FEFF 		bl	dbg_check_unlock_from_isr
 286              	.LVL17:
 287              	.LBB8:
 288 0018 0023     		movs	r3, #0
 289              	@ 53 "../../../os/ports/GCC/ARMCMx/chcore_v7m.c" 1
 290 001a 83F31188 		msr     BASEPRI, r3
 291              	@ 0 "" 2
 292              		.thumb
 293              	.LBE8:
 294              		.loc 1 55 0
 295 001e FFF7FEFF 		bl	dbg_check_leave_isr
 296              	.LVL18:
 297              		.loc 1 56 0
 298 0022 BDE80840 		pop	{r3, lr}
 299              		.loc 1 55 0
 300 0026 FFF7FEBF 		b	_port_irq_epilogue
 301              	.LVL19:
 302              		.cfi_endproc
 303              	.LFE7:
 304              		.size	SysTickVector, .-SysTickVector
 305 002a 00BFAFF3 		.section	.text._port_switch,"ax",%progbits
 305      0080
 306              		.align	2
 307              		.p2align 4,,15
 308              		.global	_port_switch
 309              		.thumb
 310              		.thumb_func
 311              		.type	_port_switch, %function
 312              	_port_switch:
 313              	.LFB12:
 314              		.loc 1 236 0
 315              		.cfi_startproc
 316              		@ Naked Function: prologue and epilogue provided by programmer.
 317              		@ args = 0, pretend = 0, frame = 0
 318              		@ frame_needed = 0, uses_anonymous_args = 0
 319              	.LVL20:
 320              		.loc 1 238 0
 321              	@ 238 "../../../os/ports/GCC/ARMCMx/chcore_v7m.c" 1
 322 0000 2DE9F04F 		push    {r4, r5, r6, r7, r8, r9, r10, r11, lr}
 323              	@ 0 "" 2
 324              		.loc 1 244 0
 325              	@ 244 "../../../os/ports/GCC/ARMCMx/chcore_v7m.c" 1
 326 0004 C1F80CD0 		str     sp, [r1, #12]                          
 327 0008 D0F80CD0 		ldr     sp, [r0, #12]
 328              	@ 0 "" 2
 329              		.loc 1 250 0
 330              	@ 250 "../../../os/ports/GCC/ARMCMx/chcore_v7m.c" 1
 331 000c BDE8F08F 		pop     {r4, r5, r6, r7, r8, r9, r10, r11, pc}
 332              	@ 0 "" 2
 333              		.loc 1 252 0
 334              		.thumb
 335              		.cfi_endproc
 336              	.LFE12:
ARM GAS  /tmp/cciWQupY.s 			page 7


 337              		.size	_port_switch, .-_port_switch
 338              		.section	.text._port_thread_start,"ax",%progbits
 339              		.align	2
 340              		.p2align 4,,15
 341              		.global	_port_thread_start
 342              		.thumb
 343              		.thumb_func
 344              		.type	_port_thread_start, %function
 345              	_port_thread_start:
 346              	.LFB13:
 347              		.loc 1 259 0
 348              		.cfi_startproc
 349              		@ args = 0, pretend = 0, frame = 0
 350              		@ frame_needed = 0, uses_anonymous_args = 0
 351 0000 08B5     		push	{r3, lr}
 352              		.cfi_def_cfa_offset 8
 353              		.cfi_offset 3, -8
 354              		.cfi_offset 14, -4
 355              		.loc 1 261 0
 356 0002 FFF7FEFF 		bl	dbg_check_unlock
 357              	.LVL21:
 358              	.LBB9:
 359 0006 0023     		movs	r3, #0
 360              	@ 261 "../../../os/ports/GCC/ARMCMx/chcore_v7m.c" 1
 361 0008 83F31188 		msr     BASEPRI, r3
 362              	@ 0 "" 2
 363              		.thumb
 364              	.LBE9:
 365              		.loc 1 262 0
 366              	@ 262 "../../../os/ports/GCC/ARMCMx/chcore_v7m.c" 1
 367 000c 2846     		mov     r0, r5                                 
 368 000e A047     		blx     r4                                     
 369 0010 FFF7FEFF 		bl      chThdExit
 370              	@ 0 "" 2
 371              		.thumb
 372 0014 08BD     		pop	{r3, pc}
 373              		.cfi_endproc
 374              	.LFE13:
 375              		.size	_port_thread_start, .-_port_thread_start
 376 0016 00BFAFF3 		.text
 376      0080AFF3 
 376      0080
 377              	.Letext0:
 378              		.file 2 "/usr/arm-none-eabi/include/machine/_default_types.h"
 379              		.file 3 "/usr/arm-none-eabi/include/stdint.h"
 380              		.file 4 "../../../os/ports/GCC/ARMCMx/chtypes.h"
 381              		.file 5 "../../../os/kernel/include/chlists.h"
 382              		.file 6 "../../../os/kernel/include/chthreads.h"
 383              		.file 7 "../../../os/ports/GCC/ARMCMx/chcore_v7m.h"
 384              		.file 8 "../../../os/ports/common/ARMCMx/nvic.h"
 385              		.file 9 "../../../os/kernel/include/chschd.h"
 386              		.file 10 "../../../os/kernel/include/chmtx.h"
 387              		.file 11 "../../../os/kernel/include/chdebug.h"
 388              		.file 12 "../../../os/kernel/include/chsys.h"
 389              		.section	.debug_info,"",%progbits
 390              	.Ldebug_info0:
 391 0000 90080000 		.4byte	0x890
ARM GAS  /tmp/cciWQupY.s 			page 8


 392 0004 0400     		.2byte	0x4
 393 0006 00000000 		.4byte	.Ldebug_abbrev0
 394 000a 04       		.byte	0x4
 395 000b 01       		.uleb128 0x1
 396 000c 3B000000 		.4byte	.LASF106
 397 0010 01       		.byte	0x1
 398 0011 CC020000 		.4byte	.LASF107
 399 0015 6A010000 		.4byte	.LASF108
 400 0019 18000000 		.4byte	.Ldebug_ranges0+0x18
 401 001d 00000000 		.4byte	0
 402 0021 00000000 		.4byte	.Ldebug_line0
 403 0025 02       		.uleb128 0x2
 404 0026 04       		.byte	0x4
 405 0027 05       		.byte	0x5
 406 0028 696E7400 		.ascii	"int\000"
 407 002c 03       		.uleb128 0x3
 408 002d 04       		.byte	0x4
 409 002e 07       		.byte	0x7
 410 002f 51020000 		.4byte	.LASF0
 411 0033 03       		.uleb128 0x3
 412 0034 01       		.byte	0x1
 413 0035 06       		.byte	0x6
 414 0036 21010000 		.4byte	.LASF1
 415 003a 04       		.uleb128 0x4
 416 003b 16000000 		.4byte	.LASF5
 417 003f 02       		.byte	0x2
 418 0040 1C       		.byte	0x1c
 419 0041 45000000 		.4byte	0x45
 420 0045 03       		.uleb128 0x3
 421 0046 01       		.byte	0x1
 422 0047 08       		.byte	0x8
 423 0048 E3030000 		.4byte	.LASF2
 424 004c 03       		.uleb128 0x3
 425 004d 02       		.byte	0x2
 426 004e 05       		.byte	0x5
 427 004f 01040000 		.4byte	.LASF3
 428 0053 03       		.uleb128 0x3
 429 0054 02       		.byte	0x2
 430 0055 07       		.byte	0x7
 431 0056 AE020000 		.4byte	.LASF4
 432 005a 04       		.uleb128 0x4
 433 005b 98040000 		.4byte	.LASF6
 434 005f 02       		.byte	0x2
 435 0060 37       		.byte	0x37
 436 0061 65000000 		.4byte	0x65
 437 0065 03       		.uleb128 0x3
 438 0066 04       		.byte	0x4
 439 0067 05       		.byte	0x5
 440 0068 61010000 		.4byte	.LASF7
 441 006c 04       		.uleb128 0x4
 442 006d EF010000 		.4byte	.LASF8
 443 0071 02       		.byte	0x2
 444 0072 38       		.byte	0x38
 445 0073 77000000 		.4byte	0x77
 446 0077 03       		.uleb128 0x3
 447 0078 04       		.byte	0x4
 448 0079 07       		.byte	0x7
ARM GAS  /tmp/cciWQupY.s 			page 9


 449 007a 79020000 		.4byte	.LASF9
 450 007e 03       		.uleb128 0x3
 451 007f 08       		.byte	0x8
 452 0080 05       		.byte	0x5
 453 0081 13010000 		.4byte	.LASF10
 454 0085 04       		.uleb128 0x4
 455 0086 A9030000 		.4byte	.LASF11
 456 008a 02       		.byte	0x2
 457 008b 4E       		.byte	0x4e
 458 008c 90000000 		.4byte	0x90
 459 0090 03       		.uleb128 0x3
 460 0091 08       		.byte	0x8
 461 0092 07       		.byte	0x7
 462 0093 E6000000 		.4byte	.LASF12
 463 0097 04       		.uleb128 0x4
 464 0098 F0040000 		.4byte	.LASF13
 465 009c 03       		.byte	0x3
 466 009d 2A       		.byte	0x2a
 467 009e 3A000000 		.4byte	0x3a
 468 00a2 04       		.uleb128 0x4
 469 00a3 DB030000 		.4byte	.LASF14
 470 00a7 03       		.byte	0x3
 471 00a8 41       		.byte	0x41
 472 00a9 5A000000 		.4byte	0x5a
 473 00ad 04       		.uleb128 0x4
 474 00ae 51040000 		.4byte	.LASF15
 475 00b2 03       		.byte	0x3
 476 00b3 42       		.byte	0x42
 477 00b4 6C000000 		.4byte	0x6c
 478 00b8 04       		.uleb128 0x4
 479 00b9 0D000000 		.4byte	.LASF16
 480 00bd 03       		.byte	0x3
 481 00be 4E       		.byte	0x4e
 482 00bf 85000000 		.4byte	0x85
 483 00c3 03       		.uleb128 0x3
 484 00c4 01       		.byte	0x1
 485 00c5 02       		.byte	0x2
 486 00c6 D5030000 		.4byte	.LASF17
 487 00ca 04       		.uleb128 0x4
 488 00cb 1D030000 		.4byte	.LASF18
 489 00cf 04       		.byte	0x4
 490 00d0 2C       		.byte	0x2c
 491 00d1 97000000 		.4byte	0x97
 492 00d5 04       		.uleb128 0x4
 493 00d6 C6010000 		.4byte	.LASF19
 494 00da 04       		.byte	0x4
 495 00db 2D       		.byte	0x2d
 496 00dc 97000000 		.4byte	0x97
 497 00e0 04       		.uleb128 0x4
 498 00e1 B4030000 		.4byte	.LASF20
 499 00e5 04       		.byte	0x4
 500 00e6 2E       		.byte	0x2e
 501 00e7 97000000 		.4byte	0x97
 502 00eb 04       		.uleb128 0x4
 503 00ec 57010000 		.4byte	.LASF21
 504 00f0 04       		.byte	0x4
 505 00f1 2F       		.byte	0x2f
ARM GAS  /tmp/cciWQupY.s 			page 10


 506 00f2 97000000 		.4byte	0x97
 507 00f6 04       		.uleb128 0x4
 508 00f7 CD030000 		.4byte	.LASF22
 509 00fb 04       		.byte	0x4
 510 00fc 30       		.byte	0x30
 511 00fd AD000000 		.4byte	0xad
 512 0101 04       		.uleb128 0x4
 513 0102 C6020000 		.4byte	.LASF23
 514 0106 04       		.byte	0x4
 515 0107 31       		.byte	0x31
 516 0108 A2000000 		.4byte	0xa2
 517 010c 04       		.uleb128 0x4
 518 010d 31030000 		.4byte	.LASF24
 519 0111 04       		.byte	0x4
 520 0112 33       		.byte	0x33
 521 0113 AD000000 		.4byte	0xad
 522 0117 04       		.uleb128 0x4
 523 0118 83040000 		.4byte	.LASF25
 524 011c 04       		.byte	0x4
 525 011d 35       		.byte	0x35
 526 011e AD000000 		.4byte	0xad
 527 0122 04       		.uleb128 0x4
 528 0123 3F040000 		.4byte	.LASF26
 529 0127 05       		.byte	0x5
 530 0128 2A       		.byte	0x2a
 531 0129 2D010000 		.4byte	0x12d
 532 012d 05       		.uleb128 0x5
 533 012e 3F040000 		.4byte	.LASF26
 534 0132 4C       		.byte	0x4c
 535 0133 06       		.byte	0x6
 536 0134 5E       		.byte	0x5e
 537 0135 36020000 		.4byte	0x236
 538 0139 06       		.uleb128 0x6
 539 013a 30040000 		.4byte	.LASF27
 540 013e 06       		.byte	0x6
 541 013f 5F       		.byte	0x5f
 542 0140 57020000 		.4byte	0x257
 543 0144 00       		.byte	0
 544 0145 06       		.uleb128 0x6
 545 0146 C6030000 		.4byte	.LASF28
 546 014a 06       		.byte	0x6
 547 014b 61       		.byte	0x61
 548 014c 57020000 		.4byte	0x257
 549 0150 04       		.byte	0x4
 550 0151 06       		.uleb128 0x6
 551 0152 0C010000 		.4byte	.LASF29
 552 0156 06       		.byte	0x6
 553 0157 63       		.byte	0x63
 554 0158 F6000000 		.4byte	0xf6
 555 015c 08       		.byte	0x8
 556 015d 06       		.uleb128 0x6
 557 015e 3C050000 		.4byte	.LASF30
 558 0162 06       		.byte	0x6
 559 0163 64       		.byte	0x64
 560 0164 84030000 		.4byte	0x384
 561 0168 0C       		.byte	0xc
 562 0169 06       		.uleb128 0x6
ARM GAS  /tmp/cciWQupY.s 			page 11


 563 016a E2010000 		.4byte	.LASF31
 564 016e 06       		.byte	0x6
 565 016f 66       		.byte	0x66
 566 0170 57020000 		.4byte	0x257
 567 0174 10       		.byte	0x10
 568 0175 06       		.uleb128 0x6
 569 0176 6B030000 		.4byte	.LASF32
 570 017a 06       		.byte	0x6
 571 017b 67       		.byte	0x67
 572 017c 57020000 		.4byte	0x257
 573 0180 14       		.byte	0x14
 574 0181 06       		.uleb128 0x6
 575 0182 22050000 		.4byte	.LASF33
 576 0186 06       		.byte	0x6
 577 0187 6E       		.byte	0x6e
 578 0188 FD050000 		.4byte	0x5fd
 579 018c 18       		.byte	0x18
 580 018d 06       		.uleb128 0x6
 581 018e 46020000 		.4byte	.LASF34
 582 0192 06       		.byte	0x6
 583 0193 74       		.byte	0x74
 584 0194 0F060000 		.4byte	0x60f
 585 0198 1C       		.byte	0x1c
 586 0199 06       		.uleb128 0x6
 587 019a 0B040000 		.4byte	.LASF35
 588 019e 06       		.byte	0x6
 589 019f 79       		.byte	0x79
 590 01a0 D5000000 		.4byte	0xd5
 591 01a4 20       		.byte	0x20
 592 01a5 06       		.uleb128 0x6
 593 01a6 37040000 		.4byte	.LASF36
 594 01aa 06       		.byte	0x6
 595 01ab 7D       		.byte	0x7d
 596 01ac CA000000 		.4byte	0xca
 597 01b0 21       		.byte	0x21
 598 01b1 06       		.uleb128 0x6
 599 01b2 D4040000 		.4byte	.LASF37
 600 01b6 06       		.byte	0x6
 601 01b7 82       		.byte	0x82
 602 01b8 E0000000 		.4byte	0xe0
 603 01bc 22       		.byte	0x22
 604 01bd 06       		.uleb128 0x6
 605 01be 13040000 		.4byte	.LASF38
 606 01c2 06       		.byte	0x6
 607 01c3 88       		.byte	0x88
 608 01c4 EB000000 		.4byte	0xeb
 609 01c8 23       		.byte	0x23
 610 01c9 06       		.uleb128 0x6
 611 01ca A2040000 		.4byte	.LASF39
 612 01ce 06       		.byte	0x6
 613 01cf 8F       		.byte	0x8f
 614 01d0 25050000 		.4byte	0x525
 615 01d4 24       		.byte	0x24
 616 01d5 07       		.uleb128 0x7
 617 01d6 705F7500 		.ascii	"p_u\000"
 618 01da 06       		.byte	0x6
 619 01db B4       		.byte	0xb4
ARM GAS  /tmp/cciWQupY.s 			page 12


 620 01dc C8050000 		.4byte	0x5c8
 621 01e0 28       		.byte	0x28
 622 01e1 06       		.uleb128 0x6
 623 01e2 42050000 		.4byte	.LASF40
 624 01e6 06       		.byte	0x6
 625 01e7 B9       		.byte	0xb9
 626 01e8 7D020000 		.4byte	0x27d
 627 01ec 2C       		.byte	0x2c
 628 01ed 06       		.uleb128 0x6
 629 01ee C9040000 		.4byte	.LASF41
 630 01f2 06       		.byte	0x6
 631 01f3 BF       		.byte	0xbf
 632 01f4 5D020000 		.4byte	0x25d
 633 01f8 30       		.byte	0x30
 634 01f9 06       		.uleb128 0x6
 635 01fa 00000000 		.4byte	.LASF42
 636 01fe 06       		.byte	0x6
 637 01ff C3       		.byte	0xc3
 638 0200 01010000 		.4byte	0x101
 639 0204 38       		.byte	0x38
 640 0205 06       		.uleb128 0x6
 641 0206 46040000 		.4byte	.LASF43
 642 020a 06       		.byte	0x6
 643 020b C9       		.byte	0xc9
 644 020c 0C010000 		.4byte	0x10c
 645 0210 3C       		.byte	0x3c
 646 0211 06       		.uleb128 0x6
 647 0212 F7030000 		.4byte	.LASF44
 648 0216 06       		.byte	0x6
 649 0217 D0       		.byte	0xd0
 650 0218 15060000 		.4byte	0x615
 651 021c 40       		.byte	0x40
 652 021d 06       		.uleb128 0x6
 653 021e 8D040000 		.4byte	.LASF45
 654 0222 06       		.byte	0x6
 655 0223 D4       		.byte	0xd4
 656 0224 F6000000 		.4byte	0xf6
 657 0228 44       		.byte	0x44
 658 0229 06       		.uleb128 0x6
 659 022a 47010000 		.4byte	.LASF46
 660 022e 06       		.byte	0x6
 661 022f DA       		.byte	0xda
 662 0230 93020000 		.4byte	0x293
 663 0234 48       		.byte	0x48
 664 0235 00       		.byte	0
 665 0236 08       		.uleb128 0x8
 666 0237 08       		.byte	0x8
 667 0238 05       		.byte	0x5
 668 0239 61       		.byte	0x61
 669 023a 57020000 		.4byte	0x257
 670 023e 06       		.uleb128 0x6
 671 023f 30040000 		.4byte	.LASF27
 672 0243 05       		.byte	0x5
 673 0244 62       		.byte	0x62
 674 0245 57020000 		.4byte	0x257
 675 0249 00       		.byte	0
 676 024a 06       		.uleb128 0x6
ARM GAS  /tmp/cciWQupY.s 			page 13


 677 024b C6030000 		.4byte	.LASF28
 678 024f 05       		.byte	0x5
 679 0250 64       		.byte	0x64
 680 0251 57020000 		.4byte	0x257
 681 0255 04       		.byte	0x4
 682 0256 00       		.byte	0
 683 0257 09       		.uleb128 0x9
 684 0258 04       		.byte	0x4
 685 0259 22010000 		.4byte	0x122
 686 025d 04       		.uleb128 0x4
 687 025e 79030000 		.4byte	.LASF47
 688 0262 05       		.byte	0x5
 689 0263 66       		.byte	0x66
 690 0264 36020000 		.4byte	0x236
 691 0268 08       		.uleb128 0x8
 692 0269 04       		.byte	0x4
 693 026a 05       		.byte	0x5
 694 026b 6B       		.byte	0x6b
 695 026c 7D020000 		.4byte	0x27d
 696 0270 06       		.uleb128 0x6
 697 0271 30040000 		.4byte	.LASF27
 698 0275 05       		.byte	0x5
 699 0276 6D       		.byte	0x6d
 700 0277 57020000 		.4byte	0x257
 701 027b 00       		.byte	0
 702 027c 00       		.byte	0
 703 027d 04       		.uleb128 0x4
 704 027e 25030000 		.4byte	.LASF48
 705 0282 05       		.byte	0x5
 706 0283 70       		.byte	0x70
 707 0284 68020000 		.4byte	0x268
 708 0288 04       		.uleb128 0x4
 709 0289 17020000 		.4byte	.LASF49
 710 028d 07       		.byte	0x7
 711 028e E5       		.byte	0xe5
 712 028f 93020000 		.4byte	0x293
 713 0293 0A       		.uleb128 0xa
 714 0294 04       		.byte	0x4
 715 0295 04       		.uleb128 0x4
 716 0296 43030000 		.4byte	.LASF50
 717 029a 07       		.byte	0x7
 718 029b EB       		.byte	0xeb
 719 029c B8000000 		.4byte	0xb8
 720 02a0 05       		.uleb128 0x5
 721 02a1 65020000 		.4byte	.LASF51
 722 02a5 20       		.byte	0x20
 723 02a6 07       		.byte	0x7
 724 02a7 ED       		.byte	0xed
 725 02a8 08030000 		.4byte	0x308
 726 02ac 07       		.uleb128 0x7
 727 02ad 723000   		.ascii	"r0\000"
 728 02b0 07       		.byte	0x7
 729 02b1 EE       		.byte	0xee
 730 02b2 88020000 		.4byte	0x288
 731 02b6 00       		.byte	0
 732 02b7 07       		.uleb128 0x7
 733 02b8 723100   		.ascii	"r1\000"
ARM GAS  /tmp/cciWQupY.s 			page 14


 734 02bb 07       		.byte	0x7
 735 02bc EF       		.byte	0xef
 736 02bd 88020000 		.4byte	0x288
 737 02c1 04       		.byte	0x4
 738 02c2 07       		.uleb128 0x7
 739 02c3 723200   		.ascii	"r2\000"
 740 02c6 07       		.byte	0x7
 741 02c7 F0       		.byte	0xf0
 742 02c8 88020000 		.4byte	0x288
 743 02cc 08       		.byte	0x8
 744 02cd 07       		.uleb128 0x7
 745 02ce 723300   		.ascii	"r3\000"
 746 02d1 07       		.byte	0x7
 747 02d2 F1       		.byte	0xf1
 748 02d3 88020000 		.4byte	0x288
 749 02d7 0C       		.byte	0xc
 750 02d8 07       		.uleb128 0x7
 751 02d9 72313200 		.ascii	"r12\000"
 752 02dd 07       		.byte	0x7
 753 02de F2       		.byte	0xf2
 754 02df 88020000 		.4byte	0x288
 755 02e3 10       		.byte	0x10
 756 02e4 06       		.uleb128 0x6
 757 02e5 5E020000 		.4byte	.LASF52
 758 02e9 07       		.byte	0x7
 759 02ea F3       		.byte	0xf3
 760 02eb 88020000 		.4byte	0x288
 761 02ef 14       		.byte	0x14
 762 02f0 07       		.uleb128 0x7
 763 02f1 706300   		.ascii	"pc\000"
 764 02f4 07       		.byte	0x7
 765 02f5 F4       		.byte	0xf4
 766 02f6 88020000 		.4byte	0x288
 767 02fa 18       		.byte	0x18
 768 02fb 06       		.uleb128 0x6
 769 02fc 1D040000 		.4byte	.LASF53
 770 0300 07       		.byte	0x7
 771 0301 F5       		.byte	0xf5
 772 0302 88020000 		.4byte	0x288
 773 0306 1C       		.byte	0x1c
 774 0307 00       		.byte	0
 775 0308 0B       		.uleb128 0xb
 776 0309 C2040000 		.4byte	.LASF54
 777 030d 24       		.byte	0x24
 778 030e 07       		.byte	0x7
 779 030f 0C01     		.2byte	0x10c
 780 0311 84030000 		.4byte	0x384
 781 0315 0C       		.uleb128 0xc
 782 0316 723400   		.ascii	"r4\000"
 783 0319 07       		.byte	0x7
 784 031a 1F01     		.2byte	0x11f
 785 031c 88020000 		.4byte	0x288
 786 0320 00       		.byte	0
 787 0321 0C       		.uleb128 0xc
 788 0322 723500   		.ascii	"r5\000"
 789 0325 07       		.byte	0x7
 790 0326 2001     		.2byte	0x120
ARM GAS  /tmp/cciWQupY.s 			page 15


 791 0328 88020000 		.4byte	0x288
 792 032c 04       		.byte	0x4
 793 032d 0C       		.uleb128 0xc
 794 032e 723600   		.ascii	"r6\000"
 795 0331 07       		.byte	0x7
 796 0332 2101     		.2byte	0x121
 797 0334 88020000 		.4byte	0x288
 798 0338 08       		.byte	0x8
 799 0339 0C       		.uleb128 0xc
 800 033a 723700   		.ascii	"r7\000"
 801 033d 07       		.byte	0x7
 802 033e 2201     		.2byte	0x122
 803 0340 88020000 		.4byte	0x288
 804 0344 0C       		.byte	0xc
 805 0345 0C       		.uleb128 0xc
 806 0346 723800   		.ascii	"r8\000"
 807 0349 07       		.byte	0x7
 808 034a 2301     		.2byte	0x123
 809 034c 88020000 		.4byte	0x288
 810 0350 10       		.byte	0x10
 811 0351 0C       		.uleb128 0xc
 812 0352 723900   		.ascii	"r9\000"
 813 0355 07       		.byte	0x7
 814 0356 2401     		.2byte	0x124
 815 0358 88020000 		.4byte	0x288
 816 035c 14       		.byte	0x14
 817 035d 0C       		.uleb128 0xc
 818 035e 72313000 		.ascii	"r10\000"
 819 0362 07       		.byte	0x7
 820 0363 2501     		.2byte	0x125
 821 0365 88020000 		.4byte	0x288
 822 0369 18       		.byte	0x18
 823 036a 0C       		.uleb128 0xc
 824 036b 72313100 		.ascii	"r11\000"
 825 036f 07       		.byte	0x7
 826 0370 2601     		.2byte	0x126
 827 0372 88020000 		.4byte	0x288
 828 0376 1C       		.byte	0x1c
 829 0377 0C       		.uleb128 0xc
 830 0378 6C7200   		.ascii	"lr\000"
 831 037b 07       		.byte	0x7
 832 037c 2701     		.2byte	0x127
 833 037e 88020000 		.4byte	0x288
 834 0382 20       		.byte	0x20
 835 0383 00       		.byte	0
 836 0384 0B       		.uleb128 0xb
 837 0385 A6020000 		.4byte	.LASF55
 838 0389 04       		.byte	0x4
 839 038a 07       		.byte	0x7
 840 038b 3101     		.2byte	0x131
 841 038d 9F030000 		.4byte	0x39f
 842 0391 0C       		.uleb128 0xc
 843 0392 72313300 		.ascii	"r13\000"
 844 0396 07       		.byte	0x7
 845 0397 3201     		.2byte	0x132
 846 0399 9F030000 		.4byte	0x39f
 847 039d 00       		.byte	0
ARM GAS  /tmp/cciWQupY.s 			page 16


 848 039e 00       		.byte	0
 849 039f 09       		.uleb128 0x9
 850 03a0 04       		.byte	0x4
 851 03a1 08030000 		.4byte	0x308
 852 03a5 04       		.uleb128 0x4
 853 03a6 74040000 		.4byte	.LASF56
 854 03aa 08       		.byte	0x8
 855 03ab 3A       		.byte	0x3a
 856 03ac B0030000 		.4byte	0x3b0
 857 03b0 0D       		.uleb128 0xd
 858 03b1 AD000000 		.4byte	0xad
 859 03b5 03       		.uleb128 0x3
 860 03b6 04       		.byte	0x4
 861 03b7 07       		.byte	0x7
 862 03b8 4E030000 		.4byte	.LASF57
 863 03bc 08       		.uleb128 0x8
 864 03bd 8C       		.byte	0x8c
 865 03be 08       		.byte	0x8
 866 03bf 89       		.byte	0x89
 867 03c0 C1040000 		.4byte	0x4c1
 868 03c4 06       		.uleb128 0x6
 869 03c5 06010000 		.4byte	.LASF58
 870 03c9 08       		.byte	0x8
 871 03ca 8A       		.byte	0x8a
 872 03cb A5030000 		.4byte	0x3a5
 873 03cf 00       		.byte	0
 874 03d0 06       		.uleb128 0x6
 875 03d1 C1020000 		.4byte	.LASF59
 876 03d5 08       		.byte	0x8
 877 03d6 8B       		.byte	0x8b
 878 03d7 A5030000 		.4byte	0x3a5
 879 03db 04       		.byte	0x4
 880 03dc 06       		.uleb128 0x6
 881 03dd 8B020000 		.4byte	.LASF60
 882 03e1 08       		.byte	0x8
 883 03e2 8C       		.byte	0x8c
 884 03e3 A5030000 		.4byte	0x3a5
 885 03e7 08       		.byte	0x8
 886 03e8 06       		.uleb128 0x6
 887 03e9 F6020000 		.4byte	.LASF61
 888 03ed 08       		.byte	0x8
 889 03ee 8D       		.byte	0x8d
 890 03ef A5030000 		.4byte	0x3a5
 891 03f3 0C       		.byte	0xc
 892 03f4 07       		.uleb128 0x7
 893 03f5 53435200 		.ascii	"SCR\000"
 894 03f9 08       		.byte	0x8
 895 03fa 8E       		.byte	0x8e
 896 03fb A5030000 		.4byte	0x3a5
 897 03ff 10       		.byte	0x10
 898 0400 07       		.uleb128 0x7
 899 0401 43435200 		.ascii	"CCR\000"
 900 0405 08       		.byte	0x8
 901 0406 8F       		.byte	0x8f
 902 0407 A5030000 		.4byte	0x3a5
 903 040b 14       		.byte	0x14
 904 040c 06       		.uleb128 0x6
ARM GAS  /tmp/cciWQupY.s 			page 17


 905 040d A9040000 		.4byte	.LASF62
 906 0411 08       		.byte	0x8
 907 0412 90       		.byte	0x90
 908 0413 D1040000 		.4byte	0x4d1
 909 0417 18       		.byte	0x18
 910 0418 06       		.uleb128 0x6
 911 0419 F1030000 		.4byte	.LASF63
 912 041d 08       		.byte	0x8
 913 041e 91       		.byte	0x91
 914 041f A5030000 		.4byte	0x3a5
 915 0423 24       		.byte	0x24
 916 0424 06       		.uleb128 0x6
 917 0425 66030000 		.4byte	.LASF64
 918 0429 08       		.byte	0x8
 919 042a 92       		.byte	0x92
 920 042b A5030000 		.4byte	0x3a5
 921 042f 28       		.byte	0x28
 922 0430 06       		.uleb128 0x6
 923 0431 2F050000 		.4byte	.LASF65
 924 0435 08       		.byte	0x8
 925 0436 93       		.byte	0x93
 926 0437 A5030000 		.4byte	0x3a5
 927 043b 2C       		.byte	0x2c
 928 043c 06       		.uleb128 0x6
 929 043d BC030000 		.4byte	.LASF66
 930 0441 08       		.byte	0x8
 931 0442 94       		.byte	0x94
 932 0443 A5030000 		.4byte	0x3a5
 933 0447 30       		.byte	0x30
 934 0448 06       		.uleb128 0x6
 935 0449 04030000 		.4byte	.LASF67
 936 044d 08       		.byte	0x8
 937 044e 95       		.byte	0x95
 938 044f A5030000 		.4byte	0x3a5
 939 0453 34       		.byte	0x34
 940 0454 06       		.uleb128 0x6
 941 0455 EA010000 		.4byte	.LASF68
 942 0459 08       		.byte	0x8
 943 045a 96       		.byte	0x96
 944 045b A5030000 		.4byte	0x3a5
 945 045f 38       		.byte	0x38
 946 0460 06       		.uleb128 0x6
 947 0461 62040000 		.4byte	.LASF69
 948 0465 08       		.byte	0x8
 949 0466 97       		.byte	0x97
 950 0467 A5030000 		.4byte	0x3a5
 951 046b 3C       		.byte	0x3c
 952 046c 07       		.uleb128 0x7
 953 046d 50465200 		.ascii	"PFR\000"
 954 0471 08       		.byte	0x8
 955 0472 98       		.byte	0x98
 956 0473 E6040000 		.4byte	0x4e6
 957 0477 40       		.byte	0x40
 958 0478 07       		.uleb128 0x7
 959 0479 44465200 		.ascii	"DFR\000"
 960 047d 08       		.byte	0x8
 961 047e 99       		.byte	0x99
ARM GAS  /tmp/cciWQupY.s 			page 18


 962 047f A5030000 		.4byte	0x3a5
 963 0483 48       		.byte	0x48
 964 0484 07       		.uleb128 0x7
 965 0485 41445200 		.ascii	"ADR\000"
 966 0489 08       		.byte	0x8
 967 048a 9A       		.byte	0x9a
 968 048b A5030000 		.4byte	0x3a5
 969 048f 4C       		.byte	0x4c
 970 0490 06       		.uleb128 0x6
 971 0491 E5040000 		.4byte	.LASF70
 972 0495 08       		.byte	0x8
 973 0496 9B       		.byte	0x9b
 974 0497 FB040000 		.4byte	0x4fb
 975 049b 50       		.byte	0x50
 976 049c 07       		.uleb128 0x7
 977 049d 53415200 		.ascii	"SAR\000"
 978 04a1 08       		.byte	0x8
 979 04a2 9C       		.byte	0x9c
 980 04a3 10050000 		.4byte	0x510
 981 04a7 60       		.byte	0x60
 982 04a8 06       		.uleb128 0x6
 983 04a9 67040000 		.4byte	.LASF71
 984 04ad 08       		.byte	0x8
 985 04ae 9D       		.byte	0x9d
 986 04af 15050000 		.4byte	0x515
 987 04b3 74       		.byte	0x74
 988 04b4 06       		.uleb128 0x6
 989 04b5 29050000 		.4byte	.LASF72
 990 04b9 08       		.byte	0x8
 991 04ba 9E       		.byte	0x9e
 992 04bb A5030000 		.4byte	0x3a5
 993 04bf 88       		.byte	0x88
 994 04c0 00       		.byte	0
 995 04c1 0E       		.uleb128 0xe
 996 04c2 A5030000 		.4byte	0x3a5
 997 04c6 D1040000 		.4byte	0x4d1
 998 04ca 0F       		.uleb128 0xf
 999 04cb B5030000 		.4byte	0x3b5
 1000 04cf 02       		.byte	0x2
 1001 04d0 00       		.byte	0
 1002 04d1 0D       		.uleb128 0xd
 1003 04d2 C1040000 		.4byte	0x4c1
 1004 04d6 0E       		.uleb128 0xe
 1005 04d7 A5030000 		.4byte	0x3a5
 1006 04db E6040000 		.4byte	0x4e6
 1007 04df 0F       		.uleb128 0xf
 1008 04e0 B5030000 		.4byte	0x3b5
 1009 04e4 01       		.byte	0x1
 1010 04e5 00       		.byte	0
 1011 04e6 0D       		.uleb128 0xd
 1012 04e7 D6040000 		.4byte	0x4d6
 1013 04eb 0E       		.uleb128 0xe
 1014 04ec A5030000 		.4byte	0x3a5
 1015 04f0 FB040000 		.4byte	0x4fb
 1016 04f4 0F       		.uleb128 0xf
 1017 04f5 B5030000 		.4byte	0x3b5
 1018 04f9 03       		.byte	0x3
ARM GAS  /tmp/cciWQupY.s 			page 19


 1019 04fa 00       		.byte	0
 1020 04fb 0D       		.uleb128 0xd
 1021 04fc EB040000 		.4byte	0x4eb
 1022 0500 0E       		.uleb128 0xe
 1023 0501 A5030000 		.4byte	0x3a5
 1024 0505 10050000 		.4byte	0x510
 1025 0509 0F       		.uleb128 0xf
 1026 050a B5030000 		.4byte	0x3b5
 1027 050e 04       		.byte	0x4
 1028 050f 00       		.byte	0
 1029 0510 0D       		.uleb128 0xd
 1030 0511 00050000 		.4byte	0x500
 1031 0515 0D       		.uleb128 0xd
 1032 0516 00050000 		.4byte	0x500
 1033 051a 04       		.uleb128 0x4
 1034 051b 20000000 		.4byte	.LASF73
 1035 051f 08       		.byte	0x8
 1036 0520 9F       		.byte	0x9f
 1037 0521 BC030000 		.4byte	0x3bc
 1038 0525 0D       		.uleb128 0xd
 1039 0526 17010000 		.4byte	0x117
 1040 052a 08       		.uleb128 0x8
 1041 052b 1C       		.byte	0x1c
 1042 052c 09       		.byte	0x9
 1043 052d 5E       		.byte	0x5e
 1044 052e 7B050000 		.4byte	0x57b
 1045 0532 06       		.uleb128 0x6
 1046 0533 5A040000 		.4byte	.LASF74
 1047 0537 09       		.byte	0x9
 1048 0538 5F       		.byte	0x5f
 1049 0539 5D020000 		.4byte	0x25d
 1050 053d 00       		.byte	0
 1051 053e 06       		.uleb128 0x6
 1052 053f 22040000 		.4byte	.LASF75
 1053 0543 09       		.byte	0x9
 1054 0544 60       		.byte	0x60
 1055 0545 F6000000 		.4byte	0xf6
 1056 0549 08       		.byte	0x8
 1057 054a 06       		.uleb128 0x6
 1058 054b 73030000 		.4byte	.LASF76
 1059 054f 09       		.byte	0x9
 1060 0550 62       		.byte	0x62
 1061 0551 84030000 		.4byte	0x384
 1062 0555 0C       		.byte	0xc
 1063 0556 06       		.uleb128 0x6
 1064 0557 FC020000 		.4byte	.LASF77
 1065 055b 09       		.byte	0x9
 1066 055c 65       		.byte	0x65
 1067 055d 57020000 		.4byte	0x257
 1068 0561 10       		.byte	0x10
 1069 0562 06       		.uleb128 0x6
 1070 0563 90030000 		.4byte	.LASF78
 1071 0567 09       		.byte	0x9
 1072 0568 66       		.byte	0x66
 1073 0569 57020000 		.4byte	0x257
 1074 056d 14       		.byte	0x14
 1075 056e 06       		.uleb128 0x6
ARM GAS  /tmp/cciWQupY.s 			page 20


 1076 056f 86030000 		.4byte	.LASF79
 1077 0573 09       		.byte	0x9
 1078 0574 69       		.byte	0x69
 1079 0575 57020000 		.4byte	0x257
 1080 0579 18       		.byte	0x18
 1081 057a 00       		.byte	0
 1082 057b 04       		.uleb128 0x4
 1083 057c DB040000 		.4byte	.LASF80
 1084 0580 09       		.byte	0x9
 1085 0581 6B       		.byte	0x6b
 1086 0582 2A050000 		.4byte	0x52a
 1087 0586 05       		.uleb128 0x5
 1088 0587 3D030000 		.4byte	.LASF81
 1089 058b 10       		.byte	0x10
 1090 058c 0A       		.byte	0xa
 1091 058d 2C       		.byte	0x2c
 1092 058e B7050000 		.4byte	0x5b7
 1093 0592 06       		.uleb128 0x6
 1094 0593 4F010000 		.4byte	.LASF82
 1095 0597 0A       		.byte	0xa
 1096 0598 2D       		.byte	0x2d
 1097 0599 5D020000 		.4byte	0x25d
 1098 059d 00       		.byte	0
 1099 059e 06       		.uleb128 0x6
 1100 059f 34050000 		.4byte	.LASF83
 1101 05a3 0A       		.byte	0xa
 1102 05a4 2F       		.byte	0x2f
 1103 05a5 57020000 		.4byte	0x257
 1104 05a9 08       		.byte	0x8
 1105 05aa 06       		.uleb128 0x6
 1106 05ab 7C040000 		.4byte	.LASF84
 1107 05af 0A       		.byte	0xa
 1108 05b0 31       		.byte	0x31
 1109 05b1 B7050000 		.4byte	0x5b7
 1110 05b5 0C       		.byte	0xc
 1111 05b6 00       		.byte	0
 1112 05b7 09       		.uleb128 0x9
 1113 05b8 04       		.byte	0x4
 1114 05b9 86050000 		.4byte	0x586
 1115 05bd 04       		.uleb128 0x4
 1116 05be 3D030000 		.4byte	.LASF81
 1117 05c2 0A       		.byte	0xa
 1118 05c3 33       		.byte	0x33
 1119 05c4 86050000 		.4byte	0x586
 1120 05c8 10       		.uleb128 0x10
 1121 05c9 04       		.byte	0x4
 1122 05ca 06       		.byte	0x6
 1123 05cb 96       		.byte	0x96
 1124 05cc FD050000 		.4byte	0x5fd
 1125 05d0 11       		.uleb128 0x11
 1126 05d1 06000000 		.4byte	.LASF85
 1127 05d5 06       		.byte	0x6
 1128 05d6 9D       		.byte	0x9d
 1129 05d7 01010000 		.4byte	0x101
 1130 05db 11       		.uleb128 0x11
 1131 05dc FD000000 		.4byte	.LASF86
 1132 05e0 06       		.byte	0x6
ARM GAS  /tmp/cciWQupY.s 			page 21


 1133 05e1 A4       		.byte	0xa4
 1134 05e2 01010000 		.4byte	0x101
 1135 05e6 11       		.uleb128 0x11
 1136 05e7 1B050000 		.4byte	.LASF87
 1137 05eb 06       		.byte	0x6
 1138 05ec AB       		.byte	0xab
 1139 05ed 93020000 		.4byte	0x293
 1140 05f1 11       		.uleb128 0x11
 1141 05f2 29040000 		.4byte	.LASF88
 1142 05f6 06       		.byte	0x6
 1143 05f7 B2       		.byte	0xb2
 1144 05f8 0C010000 		.4byte	0x10c
 1145 05fc 00       		.byte	0
 1146 05fd 09       		.uleb128 0x9
 1147 05fe 04       		.byte	0x4
 1148 05ff 03060000 		.4byte	0x603
 1149 0603 12       		.uleb128 0x12
 1150 0604 08060000 		.4byte	0x608
 1151 0608 03       		.uleb128 0x3
 1152 0609 01       		.byte	0x1
 1153 060a 08       		.byte	0x8
 1154 060b 6F040000 		.4byte	.LASF89
 1155 060f 09       		.uleb128 0x9
 1156 0610 04       		.byte	0x4
 1157 0611 95020000 		.4byte	0x295
 1158 0615 09       		.uleb128 0x9
 1159 0616 04       		.byte	0x4
 1160 0617 BD050000 		.4byte	0x5bd
 1161 061b 13       		.uleb128 0x13
 1162 061c 90020000 		.4byte	.LASF90
 1163 0620 01       		.byte	0x1
 1164 0621 CF       		.byte	0xcf
 1165 0622 00000000 		.4byte	.LFB11
 1166 0626 0E000000 		.4byte	.LFE11-.LFB11
 1167 062a 01       		.uleb128 0x1
 1168 062b 9C       		.byte	0x9c
 1169 062c 4C060000 		.4byte	0x64c
 1170 0630 14       		.uleb128 0x14
 1171 0631 04000000 		.4byte	.LVL0
 1172 0635 44080000 		.4byte	0x844
 1173 0639 14       		.uleb128 0x14
 1174 063a 08000000 		.4byte	.LVL1
 1175 063e 4B080000 		.4byte	0x84b
 1176 0642 14       		.uleb128 0x14
 1177 0643 0C000000 		.4byte	.LVL2
 1178 0647 52080000 		.4byte	0x852
 1179 064b 00       		.byte	0
 1180 064c 13       		.uleb128 0x13
 1181 064d B9010000 		.4byte	.LASF91
 1182 0651 01       		.byte	0x1
 1183 0652 41       		.byte	0x41
 1184 0653 00000000 		.4byte	.LFB8
 1185 0657 12000000 		.4byte	.LFE8-.LFB8
 1186 065b 01       		.uleb128 0x1
 1187 065c 9C       		.byte	0x9c
 1188 065d 88060000 		.4byte	0x688
 1189 0661 15       		.uleb128 0x15
ARM GAS  /tmp/cciWQupY.s 			page 22


 1190 0662 C1030000 		.4byte	.LASF92
 1191 0666 01       		.byte	0x1
 1192 0667 42       		.byte	0x42
 1193 0668 88060000 		.4byte	0x688
 1194 066c 00000000 		.4byte	.LLST0
 1195 0670 16       		.uleb128 0x16
 1196 0671 0A000000 		.4byte	.LBB2
 1197 0675 08000000 		.4byte	.LBE2-.LBB2
 1198 0679 17       		.uleb128 0x17
 1199 067a 746D7000 		.ascii	"tmp\000"
 1200 067e 01       		.byte	0x1
 1201 067f 51       		.byte	0x51
 1202 0680 AD000000 		.4byte	0xad
 1203 0684 01       		.uleb128 0x1
 1204 0685 53       		.byte	0x53
 1205 0686 00       		.byte	0
 1206 0687 00       		.byte	0
 1207 0688 09       		.uleb128 0x9
 1208 0689 04       		.byte	0x4
 1209 068a A0020000 		.4byte	0x2a0
 1210 068e 13       		.uleb128 0x13
 1211 068f F8040000 		.4byte	.LASF93
 1212 0693 01       		.byte	0x1
 1213 0694 76       		.byte	0x76
 1214 0695 00000000 		.4byte	.LFB9
 1215 0699 34000000 		.4byte	.LFE9-.LFB9
 1216 069d 01       		.uleb128 0x1
 1217 069e 9C       		.byte	0x9c
 1218 069f EA060000 		.4byte	0x6ea
 1219 06a3 18       		.uleb128 0x18
 1220 06a4 20000000 		.4byte	.LVL6
 1221 06a8 59080000 		.4byte	0x859
 1222 06ac BB060000 		.4byte	0x6bb
 1223 06b0 19       		.uleb128 0x19
 1224 06b1 01       		.uleb128 0x1
 1225 06b2 51       		.byte	0x51
 1226 06b3 01       		.uleb128 0x1
 1227 06b4 40       		.byte	0x40
 1228 06b5 19       		.uleb128 0x19
 1229 06b6 01       		.uleb128 0x1
 1230 06b7 50       		.byte	0x50
 1231 06b8 01       		.uleb128 0x1
 1232 06b9 37       		.byte	0x37
 1233 06ba 00       		.byte	0
 1234 06bb 18       		.uleb128 0x18
 1235 06bc 28000000 		.4byte	.LVL7
 1236 06c0 59080000 		.4byte	0x859
 1237 06c4 D4060000 		.4byte	0x6d4
 1238 06c8 19       		.uleb128 0x19
 1239 06c9 01       		.uleb128 0x1
 1240 06ca 51       		.byte	0x51
 1241 06cb 02       		.uleb128 0x2
 1242 06cc 08       		.byte	0x8
 1243 06cd 20       		.byte	0x20
 1244 06ce 19       		.uleb128 0x19
 1245 06cf 01       		.uleb128 0x1
 1246 06d0 50       		.byte	0x50
ARM GAS  /tmp/cciWQupY.s 			page 23


 1247 06d1 01       		.uleb128 0x1
 1248 06d2 3A       		.byte	0x3a
 1249 06d3 00       		.byte	0
 1250 06d4 1A       		.uleb128 0x1a
 1251 06d5 34000000 		.4byte	.LVL8
 1252 06d9 59080000 		.4byte	0x859
 1253 06dd 19       		.uleb128 0x19
 1254 06de 01       		.uleb128 0x1
 1255 06df 51       		.byte	0x51
 1256 06e0 02       		.uleb128 0x2
 1257 06e1 08       		.byte	0x8
 1258 06e2 80       		.byte	0x80
 1259 06e3 19       		.uleb128 0x19
 1260 06e4 01       		.uleb128 0x1
 1261 06e5 50       		.byte	0x50
 1262 06e6 01       		.uleb128 0x1
 1263 06e7 3B       		.byte	0x3b
 1264 06e8 00       		.byte	0
 1265 06e9 00       		.byte	0
 1266 06ea 13       		.uleb128 0x13
 1267 06eb 0A030000 		.4byte	.LASF94
 1268 06ef 01       		.byte	0x1
 1269 06f0 94       		.byte	0x94
 1270 06f1 00000000 		.4byte	.LFB10
 1271 06f5 7E000000 		.4byte	.LFE10-.LFB10
 1272 06f9 01       		.uleb128 0x1
 1273 06fa 9C       		.byte	0x9c
 1274 06fb 4B070000 		.4byte	0x74b
 1275 06ff 1B       		.uleb128 0x1b
 1276 0700 00000000 		.4byte	.LBB3
 1277 0704 06000000 		.4byte	.LBE3-.LBB3
 1278 0708 1A070000 		.4byte	0x71a
 1279 070c 17       		.uleb128 0x17
 1280 070d 746D7000 		.ascii	"tmp\000"
 1281 0711 01       		.byte	0x1
 1282 0712 96       		.byte	0x96
 1283 0713 AD000000 		.4byte	0xad
 1284 0717 01       		.uleb128 0x1
 1285 0718 53       		.byte	0x53
 1286 0719 00       		.byte	0
 1287 071a 1C       		.uleb128 0x1c
 1288 071b 00000000 		.4byte	.Ldebug_ranges0+0
 1289 071f 33070000 		.4byte	0x733
 1290 0723 15       		.uleb128 0x15
 1291 0724 C1030000 		.4byte	.LASF92
 1292 0728 01       		.byte	0x1
 1293 0729 98       		.byte	0x98
 1294 072a 88060000 		.4byte	0x688
 1295 072e 20000000 		.4byte	.LLST1
 1296 0732 00       		.byte	0
 1297 0733 16       		.uleb128 0x16
 1298 0734 58000000 		.4byte	.LBB5
 1299 0738 06000000 		.4byte	.LBE5-.LBB5
 1300 073c 17       		.uleb128 0x17
 1301 073d 746D7000 		.ascii	"tmp\000"
 1302 0741 01       		.byte	0x1
 1303 0742 C5       		.byte	0xc5
ARM GAS  /tmp/cciWQupY.s 			page 24


 1304 0743 AD000000 		.4byte	0xad
 1305 0747 01       		.uleb128 0x1
 1306 0748 53       		.byte	0x53
 1307 0749 00       		.byte	0
 1308 074a 00       		.byte	0
 1309 074b 13       		.uleb128 0x13
 1310 074c D8000000 		.4byte	.LASF95
 1311 0750 01       		.byte	0x1
 1312 0751 2F       		.byte	0x2f
 1313 0752 00000000 		.4byte	.LFB7
 1314 0756 2A000000 		.4byte	.LFE7-.LFB7
 1315 075a 01       		.uleb128 0x1
 1316 075b 9C       		.byte	0x9c
 1317 075c CD070000 		.4byte	0x7cd
 1318 0760 1B       		.uleb128 0x1b
 1319 0761 06000000 		.4byte	.LBB7
 1320 0765 06000000 		.4byte	.LBE7-.LBB7
 1321 0769 7B070000 		.4byte	0x77b
 1322 076d 17       		.uleb128 0x17
 1323 076e 746D7000 		.ascii	"tmp\000"
 1324 0772 01       		.byte	0x1
 1325 0773 33       		.byte	0x33
 1326 0774 AD000000 		.4byte	0xad
 1327 0778 01       		.uleb128 0x1
 1328 0779 53       		.byte	0x53
 1329 077a 00       		.byte	0
 1330 077b 1B       		.uleb128 0x1b
 1331 077c 18000000 		.4byte	.LBB8
 1332 0780 06000000 		.4byte	.LBE8-.LBB8
 1333 0784 96070000 		.4byte	0x796
 1334 0788 17       		.uleb128 0x17
 1335 0789 746D7000 		.ascii	"tmp\000"
 1336 078d 01       		.byte	0x1
 1337 078e 35       		.byte	0x35
 1338 078f AD000000 		.4byte	0xad
 1339 0793 01       		.uleb128 0x1
 1340 0794 53       		.byte	0x53
 1341 0795 00       		.byte	0
 1342 0796 14       		.uleb128 0x14
 1343 0797 06000000 		.4byte	.LVL14
 1344 079b 70080000 		.4byte	0x870
 1345 079f 14       		.uleb128 0x14
 1346 07a0 10000000 		.4byte	.LVL15
 1347 07a4 77080000 		.4byte	0x877
 1348 07a8 14       		.uleb128 0x14
 1349 07a9 14000000 		.4byte	.LVL16
 1350 07ad 7E080000 		.4byte	0x87e
 1351 07b1 14       		.uleb128 0x14
 1352 07b2 18000000 		.4byte	.LVL17
 1353 07b6 85080000 		.4byte	0x885
 1354 07ba 14       		.uleb128 0x14
 1355 07bb 22000000 		.4byte	.LVL18
 1356 07bf 8C080000 		.4byte	0x88c
 1357 07c3 1D       		.uleb128 0x1d
 1358 07c4 2A000000 		.4byte	.LVL19
 1359 07c8 EA060000 		.4byte	0x6ea
 1360 07cc 00       		.byte	0
ARM GAS  /tmp/cciWQupY.s 			page 25


 1361 07cd 13       		.uleb128 0x13
 1362 07ce 6C020000 		.4byte	.LASF96
 1363 07d2 01       		.byte	0x1
 1364 07d3 EC       		.byte	0xec
 1365 07d4 00000000 		.4byte	.LFB12
 1366 07d8 10000000 		.4byte	.LFE12-.LFB12
 1367 07dc 01       		.uleb128 0x1
 1368 07dd 9C       		.byte	0x9c
 1369 07de FD070000 		.4byte	0x7fd
 1370 07e2 1E       		.uleb128 0x1e
 1371 07e3 6E747000 		.ascii	"ntp\000"
 1372 07e7 01       		.byte	0x1
 1373 07e8 EC       		.byte	0xec
 1374 07e9 57020000 		.4byte	0x257
 1375 07ed 01       		.uleb128 0x1
 1376 07ee 50       		.byte	0x50
 1377 07ef 1E       		.uleb128 0x1e
 1378 07f0 6F747000 		.ascii	"otp\000"
 1379 07f4 01       		.byte	0x1
 1380 07f5 EC       		.byte	0xec
 1381 07f6 57020000 		.4byte	0x257
 1382 07fa 01       		.uleb128 0x1
 1383 07fb 51       		.byte	0x51
 1384 07fc 00       		.byte	0
 1385 07fd 1F       		.uleb128 0x1f
 1386 07fe CF010000 		.4byte	.LASF97
 1387 0802 01       		.byte	0x1
 1388 0803 0301     		.2byte	0x103
 1389 0805 00000000 		.4byte	.LFB13
 1390 0809 16000000 		.4byte	.LFE13-.LFB13
 1391 080d 01       		.uleb128 0x1
 1392 080e 9C       		.byte	0x9c
 1393 080f 39080000 		.4byte	0x839
 1394 0813 1B       		.uleb128 0x1b
 1395 0814 06000000 		.4byte	.LBB9
 1396 0818 06000000 		.4byte	.LBE9-.LBB9
 1397 081c 2F080000 		.4byte	0x82f
 1398 0820 20       		.uleb128 0x20
 1399 0821 746D7000 		.ascii	"tmp\000"
 1400 0825 01       		.byte	0x1
 1401 0826 0501     		.2byte	0x105
 1402 0828 AD000000 		.4byte	0xad
 1403 082c 01       		.uleb128 0x1
 1404 082d 53       		.byte	0x53
 1405 082e 00       		.byte	0
 1406 082f 14       		.uleb128 0x14
 1407 0830 06000000 		.4byte	.LVL21
 1408 0834 52080000 		.4byte	0x852
 1409 0838 00       		.byte	0
 1410 0839 21       		.uleb128 0x21
 1411 083a EA040000 		.4byte	.LASF109
 1412 083e 09       		.byte	0x9
 1413 083f 6F       		.byte	0x6f
 1414 0840 7B050000 		.4byte	0x57b
 1415 0844 22       		.uleb128 0x22
 1416 0845 57030000 		.4byte	.LASF98
 1417 0849 0B       		.byte	0xb
ARM GAS  /tmp/cciWQupY.s 			page 26


 1418 084a E7       		.byte	0xe7
 1419 084b 22       		.uleb128 0x22
 1420 084c 20020000 		.4byte	.LASF99
 1421 0850 09       		.byte	0x9
 1422 0851 A8       		.byte	0xa8
 1423 0852 22       		.uleb128 0x22
 1424 0853 98030000 		.4byte	.LASF100
 1425 0857 0B       		.byte	0xb
 1426 0858 E8       		.byte	0xe8
 1427 0859 23       		.uleb128 0x23
 1428 085a FA010000 		.4byte	.LASF110
 1429 085e 08       		.byte	0x8
 1430 085f 2501     		.2byte	0x125
 1431 0861 70080000 		.4byte	0x870
 1432 0865 24       		.uleb128 0x24
 1433 0866 AD000000 		.4byte	0xad
 1434 086a 24       		.uleb128 0x24
 1435 086b AD000000 		.4byte	0xad
 1436 086f 00       		.byte	0
 1437 0870 22       		.uleb128 0x22
 1438 0871 32020000 		.4byte	.LASF101
 1439 0875 0B       		.byte	0xb
 1440 0876 EB       		.byte	0xeb
 1441 0877 22       		.uleb128 0x22
 1442 0878 03050000 		.4byte	.LASF102
 1443 087c 0B       		.byte	0xb
 1444 087d E9       		.byte	0xe9
 1445 087e 22       		.uleb128 0x22
 1446 087f 28000000 		.4byte	.LASF103
 1447 0883 0C       		.byte	0xc
 1448 0884 F7       		.byte	0xf7
 1449 0885 22       		.uleb128 0x22
 1450 0886 2D010000 		.4byte	.LASF104
 1451 088a 0B       		.byte	0xb
 1452 088b EA       		.byte	0xea
 1453 088c 22       		.uleb128 0x22
 1454 088d AE040000 		.4byte	.LASF105
 1455 0891 0B       		.byte	0xb
 1456 0892 EC       		.byte	0xec
 1457 0893 00       		.byte	0
 1458              		.section	.debug_abbrev,"",%progbits
 1459              	.Ldebug_abbrev0:
 1460 0000 01       		.uleb128 0x1
 1461 0001 11       		.uleb128 0x11
 1462 0002 01       		.byte	0x1
 1463 0003 25       		.uleb128 0x25
 1464 0004 0E       		.uleb128 0xe
 1465 0005 13       		.uleb128 0x13
 1466 0006 0B       		.uleb128 0xb
 1467 0007 03       		.uleb128 0x3
 1468 0008 0E       		.uleb128 0xe
 1469 0009 1B       		.uleb128 0x1b
 1470 000a 0E       		.uleb128 0xe
 1471 000b 55       		.uleb128 0x55
 1472 000c 17       		.uleb128 0x17
 1473 000d 11       		.uleb128 0x11
 1474 000e 01       		.uleb128 0x1
ARM GAS  /tmp/cciWQupY.s 			page 27


 1475 000f 10       		.uleb128 0x10
 1476 0010 17       		.uleb128 0x17
 1477 0011 00       		.byte	0
 1478 0012 00       		.byte	0
 1479 0013 02       		.uleb128 0x2
 1480 0014 24       		.uleb128 0x24
 1481 0015 00       		.byte	0
 1482 0016 0B       		.uleb128 0xb
 1483 0017 0B       		.uleb128 0xb
 1484 0018 3E       		.uleb128 0x3e
 1485 0019 0B       		.uleb128 0xb
 1486 001a 03       		.uleb128 0x3
 1487 001b 08       		.uleb128 0x8
 1488 001c 00       		.byte	0
 1489 001d 00       		.byte	0
 1490 001e 03       		.uleb128 0x3
 1491 001f 24       		.uleb128 0x24
 1492 0020 00       		.byte	0
 1493 0021 0B       		.uleb128 0xb
 1494 0022 0B       		.uleb128 0xb
 1495 0023 3E       		.uleb128 0x3e
 1496 0024 0B       		.uleb128 0xb
 1497 0025 03       		.uleb128 0x3
 1498 0026 0E       		.uleb128 0xe
 1499 0027 00       		.byte	0
 1500 0028 00       		.byte	0
 1501 0029 04       		.uleb128 0x4
 1502 002a 16       		.uleb128 0x16
 1503 002b 00       		.byte	0
 1504 002c 03       		.uleb128 0x3
 1505 002d 0E       		.uleb128 0xe
 1506 002e 3A       		.uleb128 0x3a
 1507 002f 0B       		.uleb128 0xb
 1508 0030 3B       		.uleb128 0x3b
 1509 0031 0B       		.uleb128 0xb
 1510 0032 49       		.uleb128 0x49
 1511 0033 13       		.uleb128 0x13
 1512 0034 00       		.byte	0
 1513 0035 00       		.byte	0
 1514 0036 05       		.uleb128 0x5
 1515 0037 13       		.uleb128 0x13
 1516 0038 01       		.byte	0x1
 1517 0039 03       		.uleb128 0x3
 1518 003a 0E       		.uleb128 0xe
 1519 003b 0B       		.uleb128 0xb
 1520 003c 0B       		.uleb128 0xb
 1521 003d 3A       		.uleb128 0x3a
 1522 003e 0B       		.uleb128 0xb
 1523 003f 3B       		.uleb128 0x3b
 1524 0040 0B       		.uleb128 0xb
 1525 0041 01       		.uleb128 0x1
 1526 0042 13       		.uleb128 0x13
 1527 0043 00       		.byte	0
 1528 0044 00       		.byte	0
 1529 0045 06       		.uleb128 0x6
 1530 0046 0D       		.uleb128 0xd
 1531 0047 00       		.byte	0
ARM GAS  /tmp/cciWQupY.s 			page 28


 1532 0048 03       		.uleb128 0x3
 1533 0049 0E       		.uleb128 0xe
 1534 004a 3A       		.uleb128 0x3a
 1535 004b 0B       		.uleb128 0xb
 1536 004c 3B       		.uleb128 0x3b
 1537 004d 0B       		.uleb128 0xb
 1538 004e 49       		.uleb128 0x49
 1539 004f 13       		.uleb128 0x13
 1540 0050 38       		.uleb128 0x38
 1541 0051 0B       		.uleb128 0xb
 1542 0052 00       		.byte	0
 1543 0053 00       		.byte	0
 1544 0054 07       		.uleb128 0x7
 1545 0055 0D       		.uleb128 0xd
 1546 0056 00       		.byte	0
 1547 0057 03       		.uleb128 0x3
 1548 0058 08       		.uleb128 0x8
 1549 0059 3A       		.uleb128 0x3a
 1550 005a 0B       		.uleb128 0xb
 1551 005b 3B       		.uleb128 0x3b
 1552 005c 0B       		.uleb128 0xb
 1553 005d 49       		.uleb128 0x49
 1554 005e 13       		.uleb128 0x13
 1555 005f 38       		.uleb128 0x38
 1556 0060 0B       		.uleb128 0xb
 1557 0061 00       		.byte	0
 1558 0062 00       		.byte	0
 1559 0063 08       		.uleb128 0x8
 1560 0064 13       		.uleb128 0x13
 1561 0065 01       		.byte	0x1
 1562 0066 0B       		.uleb128 0xb
 1563 0067 0B       		.uleb128 0xb
 1564 0068 3A       		.uleb128 0x3a
 1565 0069 0B       		.uleb128 0xb
 1566 006a 3B       		.uleb128 0x3b
 1567 006b 0B       		.uleb128 0xb
 1568 006c 01       		.uleb128 0x1
 1569 006d 13       		.uleb128 0x13
 1570 006e 00       		.byte	0
 1571 006f 00       		.byte	0
 1572 0070 09       		.uleb128 0x9
 1573 0071 0F       		.uleb128 0xf
 1574 0072 00       		.byte	0
 1575 0073 0B       		.uleb128 0xb
 1576 0074 0B       		.uleb128 0xb
 1577 0075 49       		.uleb128 0x49
 1578 0076 13       		.uleb128 0x13
 1579 0077 00       		.byte	0
 1580 0078 00       		.byte	0
 1581 0079 0A       		.uleb128 0xa
 1582 007a 0F       		.uleb128 0xf
 1583 007b 00       		.byte	0
 1584 007c 0B       		.uleb128 0xb
 1585 007d 0B       		.uleb128 0xb
 1586 007e 00       		.byte	0
 1587 007f 00       		.byte	0
 1588 0080 0B       		.uleb128 0xb
ARM GAS  /tmp/cciWQupY.s 			page 29


 1589 0081 13       		.uleb128 0x13
 1590 0082 01       		.byte	0x1
 1591 0083 03       		.uleb128 0x3
 1592 0084 0E       		.uleb128 0xe
 1593 0085 0B       		.uleb128 0xb
 1594 0086 0B       		.uleb128 0xb
 1595 0087 3A       		.uleb128 0x3a
 1596 0088 0B       		.uleb128 0xb
 1597 0089 3B       		.uleb128 0x3b
 1598 008a 05       		.uleb128 0x5
 1599 008b 01       		.uleb128 0x1
 1600 008c 13       		.uleb128 0x13
 1601 008d 00       		.byte	0
 1602 008e 00       		.byte	0
 1603 008f 0C       		.uleb128 0xc
 1604 0090 0D       		.uleb128 0xd
 1605 0091 00       		.byte	0
 1606 0092 03       		.uleb128 0x3
 1607 0093 08       		.uleb128 0x8
 1608 0094 3A       		.uleb128 0x3a
 1609 0095 0B       		.uleb128 0xb
 1610 0096 3B       		.uleb128 0x3b
 1611 0097 05       		.uleb128 0x5
 1612 0098 49       		.uleb128 0x49
 1613 0099 13       		.uleb128 0x13
 1614 009a 38       		.uleb128 0x38
 1615 009b 0B       		.uleb128 0xb
 1616 009c 00       		.byte	0
 1617 009d 00       		.byte	0
 1618 009e 0D       		.uleb128 0xd
 1619 009f 35       		.uleb128 0x35
 1620 00a0 00       		.byte	0
 1621 00a1 49       		.uleb128 0x49
 1622 00a2 13       		.uleb128 0x13
 1623 00a3 00       		.byte	0
 1624 00a4 00       		.byte	0
 1625 00a5 0E       		.uleb128 0xe
 1626 00a6 01       		.uleb128 0x1
 1627 00a7 01       		.byte	0x1
 1628 00a8 49       		.uleb128 0x49
 1629 00a9 13       		.uleb128 0x13
 1630 00aa 01       		.uleb128 0x1
 1631 00ab 13       		.uleb128 0x13
 1632 00ac 00       		.byte	0
 1633 00ad 00       		.byte	0
 1634 00ae 0F       		.uleb128 0xf
 1635 00af 21       		.uleb128 0x21
 1636 00b0 00       		.byte	0
 1637 00b1 49       		.uleb128 0x49
 1638 00b2 13       		.uleb128 0x13
 1639 00b3 2F       		.uleb128 0x2f
 1640 00b4 0B       		.uleb128 0xb
 1641 00b5 00       		.byte	0
 1642 00b6 00       		.byte	0
 1643 00b7 10       		.uleb128 0x10
 1644 00b8 17       		.uleb128 0x17
 1645 00b9 01       		.byte	0x1
ARM GAS  /tmp/cciWQupY.s 			page 30


 1646 00ba 0B       		.uleb128 0xb
 1647 00bb 0B       		.uleb128 0xb
 1648 00bc 3A       		.uleb128 0x3a
 1649 00bd 0B       		.uleb128 0xb
 1650 00be 3B       		.uleb128 0x3b
 1651 00bf 0B       		.uleb128 0xb
 1652 00c0 01       		.uleb128 0x1
 1653 00c1 13       		.uleb128 0x13
 1654 00c2 00       		.byte	0
 1655 00c3 00       		.byte	0
 1656 00c4 11       		.uleb128 0x11
 1657 00c5 0D       		.uleb128 0xd
 1658 00c6 00       		.byte	0
 1659 00c7 03       		.uleb128 0x3
 1660 00c8 0E       		.uleb128 0xe
 1661 00c9 3A       		.uleb128 0x3a
 1662 00ca 0B       		.uleb128 0xb
 1663 00cb 3B       		.uleb128 0x3b
 1664 00cc 0B       		.uleb128 0xb
 1665 00cd 49       		.uleb128 0x49
 1666 00ce 13       		.uleb128 0x13
 1667 00cf 00       		.byte	0
 1668 00d0 00       		.byte	0
 1669 00d1 12       		.uleb128 0x12
 1670 00d2 26       		.uleb128 0x26
 1671 00d3 00       		.byte	0
 1672 00d4 49       		.uleb128 0x49
 1673 00d5 13       		.uleb128 0x13
 1674 00d6 00       		.byte	0
 1675 00d7 00       		.byte	0
 1676 00d8 13       		.uleb128 0x13
 1677 00d9 2E       		.uleb128 0x2e
 1678 00da 01       		.byte	0x1
 1679 00db 3F       		.uleb128 0x3f
 1680 00dc 19       		.uleb128 0x19
 1681 00dd 03       		.uleb128 0x3
 1682 00de 0E       		.uleb128 0xe
 1683 00df 3A       		.uleb128 0x3a
 1684 00e0 0B       		.uleb128 0xb
 1685 00e1 3B       		.uleb128 0x3b
 1686 00e2 0B       		.uleb128 0xb
 1687 00e3 27       		.uleb128 0x27
 1688 00e4 19       		.uleb128 0x19
 1689 00e5 11       		.uleb128 0x11
 1690 00e6 01       		.uleb128 0x1
 1691 00e7 12       		.uleb128 0x12
 1692 00e8 06       		.uleb128 0x6
 1693 00e9 40       		.uleb128 0x40
 1694 00ea 18       		.uleb128 0x18
 1695 00eb 9742     		.uleb128 0x2117
 1696 00ed 19       		.uleb128 0x19
 1697 00ee 01       		.uleb128 0x1
 1698 00ef 13       		.uleb128 0x13
 1699 00f0 00       		.byte	0
 1700 00f1 00       		.byte	0
 1701 00f2 14       		.uleb128 0x14
 1702 00f3 898201   		.uleb128 0x4109
ARM GAS  /tmp/cciWQupY.s 			page 31


 1703 00f6 00       		.byte	0
 1704 00f7 11       		.uleb128 0x11
 1705 00f8 01       		.uleb128 0x1
 1706 00f9 31       		.uleb128 0x31
 1707 00fa 13       		.uleb128 0x13
 1708 00fb 00       		.byte	0
 1709 00fc 00       		.byte	0
 1710 00fd 15       		.uleb128 0x15
 1711 00fe 34       		.uleb128 0x34
 1712 00ff 00       		.byte	0
 1713 0100 03       		.uleb128 0x3
 1714 0101 0E       		.uleb128 0xe
 1715 0102 3A       		.uleb128 0x3a
 1716 0103 0B       		.uleb128 0xb
 1717 0104 3B       		.uleb128 0x3b
 1718 0105 0B       		.uleb128 0xb
 1719 0106 49       		.uleb128 0x49
 1720 0107 13       		.uleb128 0x13
 1721 0108 02       		.uleb128 0x2
 1722 0109 17       		.uleb128 0x17
 1723 010a 00       		.byte	0
 1724 010b 00       		.byte	0
 1725 010c 16       		.uleb128 0x16
 1726 010d 0B       		.uleb128 0xb
 1727 010e 01       		.byte	0x1
 1728 010f 11       		.uleb128 0x11
 1729 0110 01       		.uleb128 0x1
 1730 0111 12       		.uleb128 0x12
 1731 0112 06       		.uleb128 0x6
 1732 0113 00       		.byte	0
 1733 0114 00       		.byte	0
 1734 0115 17       		.uleb128 0x17
 1735 0116 34       		.uleb128 0x34
 1736 0117 00       		.byte	0
 1737 0118 03       		.uleb128 0x3
 1738 0119 08       		.uleb128 0x8
 1739 011a 3A       		.uleb128 0x3a
 1740 011b 0B       		.uleb128 0xb
 1741 011c 3B       		.uleb128 0x3b
 1742 011d 0B       		.uleb128 0xb
 1743 011e 49       		.uleb128 0x49
 1744 011f 13       		.uleb128 0x13
 1745 0120 02       		.uleb128 0x2
 1746 0121 18       		.uleb128 0x18
 1747 0122 00       		.byte	0
 1748 0123 00       		.byte	0
 1749 0124 18       		.uleb128 0x18
 1750 0125 898201   		.uleb128 0x4109
 1751 0128 01       		.byte	0x1
 1752 0129 11       		.uleb128 0x11
 1753 012a 01       		.uleb128 0x1
 1754 012b 31       		.uleb128 0x31
 1755 012c 13       		.uleb128 0x13
 1756 012d 01       		.uleb128 0x1
 1757 012e 13       		.uleb128 0x13
 1758 012f 00       		.byte	0
 1759 0130 00       		.byte	0
ARM GAS  /tmp/cciWQupY.s 			page 32


 1760 0131 19       		.uleb128 0x19
 1761 0132 8A8201   		.uleb128 0x410a
 1762 0135 00       		.byte	0
 1763 0136 02       		.uleb128 0x2
 1764 0137 18       		.uleb128 0x18
 1765 0138 9142     		.uleb128 0x2111
 1766 013a 18       		.uleb128 0x18
 1767 013b 00       		.byte	0
 1768 013c 00       		.byte	0
 1769 013d 1A       		.uleb128 0x1a
 1770 013e 898201   		.uleb128 0x4109
 1771 0141 01       		.byte	0x1
 1772 0142 11       		.uleb128 0x11
 1773 0143 01       		.uleb128 0x1
 1774 0144 9542     		.uleb128 0x2115
 1775 0146 19       		.uleb128 0x19
 1776 0147 31       		.uleb128 0x31
 1777 0148 13       		.uleb128 0x13
 1778 0149 00       		.byte	0
 1779 014a 00       		.byte	0
 1780 014b 1B       		.uleb128 0x1b
 1781 014c 0B       		.uleb128 0xb
 1782 014d 01       		.byte	0x1
 1783 014e 11       		.uleb128 0x11
 1784 014f 01       		.uleb128 0x1
 1785 0150 12       		.uleb128 0x12
 1786 0151 06       		.uleb128 0x6
 1787 0152 01       		.uleb128 0x1
 1788 0153 13       		.uleb128 0x13
 1789 0154 00       		.byte	0
 1790 0155 00       		.byte	0
 1791 0156 1C       		.uleb128 0x1c
 1792 0157 0B       		.uleb128 0xb
 1793 0158 01       		.byte	0x1
 1794 0159 55       		.uleb128 0x55
 1795 015a 17       		.uleb128 0x17
 1796 015b 01       		.uleb128 0x1
 1797 015c 13       		.uleb128 0x13
 1798 015d 00       		.byte	0
 1799 015e 00       		.byte	0
 1800 015f 1D       		.uleb128 0x1d
 1801 0160 898201   		.uleb128 0x4109
 1802 0163 00       		.byte	0
 1803 0164 11       		.uleb128 0x11
 1804 0165 01       		.uleb128 0x1
 1805 0166 9542     		.uleb128 0x2115
 1806 0168 19       		.uleb128 0x19
 1807 0169 31       		.uleb128 0x31
 1808 016a 13       		.uleb128 0x13
 1809 016b 00       		.byte	0
 1810 016c 00       		.byte	0
 1811 016d 1E       		.uleb128 0x1e
 1812 016e 05       		.uleb128 0x5
 1813 016f 00       		.byte	0
 1814 0170 03       		.uleb128 0x3
 1815 0171 08       		.uleb128 0x8
 1816 0172 3A       		.uleb128 0x3a
ARM GAS  /tmp/cciWQupY.s 			page 33


 1817 0173 0B       		.uleb128 0xb
 1818 0174 3B       		.uleb128 0x3b
 1819 0175 0B       		.uleb128 0xb
 1820 0176 49       		.uleb128 0x49
 1821 0177 13       		.uleb128 0x13
 1822 0178 02       		.uleb128 0x2
 1823 0179 18       		.uleb128 0x18
 1824 017a 00       		.byte	0
 1825 017b 00       		.byte	0
 1826 017c 1F       		.uleb128 0x1f
 1827 017d 2E       		.uleb128 0x2e
 1828 017e 01       		.byte	0x1
 1829 017f 3F       		.uleb128 0x3f
 1830 0180 19       		.uleb128 0x19
 1831 0181 03       		.uleb128 0x3
 1832 0182 0E       		.uleb128 0xe
 1833 0183 3A       		.uleb128 0x3a
 1834 0184 0B       		.uleb128 0xb
 1835 0185 3B       		.uleb128 0x3b
 1836 0186 05       		.uleb128 0x5
 1837 0187 27       		.uleb128 0x27
 1838 0188 19       		.uleb128 0x19
 1839 0189 11       		.uleb128 0x11
 1840 018a 01       		.uleb128 0x1
 1841 018b 12       		.uleb128 0x12
 1842 018c 06       		.uleb128 0x6
 1843 018d 40       		.uleb128 0x40
 1844 018e 18       		.uleb128 0x18
 1845 018f 9742     		.uleb128 0x2117
 1846 0191 19       		.uleb128 0x19
 1847 0192 01       		.uleb128 0x1
 1848 0193 13       		.uleb128 0x13
 1849 0194 00       		.byte	0
 1850 0195 00       		.byte	0
 1851 0196 20       		.uleb128 0x20
 1852 0197 34       		.uleb128 0x34
 1853 0198 00       		.byte	0
 1854 0199 03       		.uleb128 0x3
 1855 019a 08       		.uleb128 0x8
 1856 019b 3A       		.uleb128 0x3a
 1857 019c 0B       		.uleb128 0xb
 1858 019d 3B       		.uleb128 0x3b
 1859 019e 05       		.uleb128 0x5
 1860 019f 49       		.uleb128 0x49
 1861 01a0 13       		.uleb128 0x13
 1862 01a1 02       		.uleb128 0x2
 1863 01a2 18       		.uleb128 0x18
 1864 01a3 00       		.byte	0
 1865 01a4 00       		.byte	0
 1866 01a5 21       		.uleb128 0x21
 1867 01a6 34       		.uleb128 0x34
 1868 01a7 00       		.byte	0
 1869 01a8 03       		.uleb128 0x3
 1870 01a9 0E       		.uleb128 0xe
 1871 01aa 3A       		.uleb128 0x3a
 1872 01ab 0B       		.uleb128 0xb
 1873 01ac 3B       		.uleb128 0x3b
ARM GAS  /tmp/cciWQupY.s 			page 34


 1874 01ad 0B       		.uleb128 0xb
 1875 01ae 49       		.uleb128 0x49
 1876 01af 13       		.uleb128 0x13
 1877 01b0 3F       		.uleb128 0x3f
 1878 01b1 19       		.uleb128 0x19
 1879 01b2 3C       		.uleb128 0x3c
 1880 01b3 19       		.uleb128 0x19
 1881 01b4 00       		.byte	0
 1882 01b5 00       		.byte	0
 1883 01b6 22       		.uleb128 0x22
 1884 01b7 2E       		.uleb128 0x2e
 1885 01b8 00       		.byte	0
 1886 01b9 3F       		.uleb128 0x3f
 1887 01ba 19       		.uleb128 0x19
 1888 01bb 03       		.uleb128 0x3
 1889 01bc 0E       		.uleb128 0xe
 1890 01bd 3A       		.uleb128 0x3a
 1891 01be 0B       		.uleb128 0xb
 1892 01bf 3B       		.uleb128 0x3b
 1893 01c0 0B       		.uleb128 0xb
 1894 01c1 27       		.uleb128 0x27
 1895 01c2 19       		.uleb128 0x19
 1896 01c3 3C       		.uleb128 0x3c
 1897 01c4 19       		.uleb128 0x19
 1898 01c5 00       		.byte	0
 1899 01c6 00       		.byte	0
 1900 01c7 23       		.uleb128 0x23
 1901 01c8 2E       		.uleb128 0x2e
 1902 01c9 01       		.byte	0x1
 1903 01ca 3F       		.uleb128 0x3f
 1904 01cb 19       		.uleb128 0x19
 1905 01cc 03       		.uleb128 0x3
 1906 01cd 0E       		.uleb128 0xe
 1907 01ce 3A       		.uleb128 0x3a
 1908 01cf 0B       		.uleb128 0xb
 1909 01d0 3B       		.uleb128 0x3b
 1910 01d1 05       		.uleb128 0x5
 1911 01d2 27       		.uleb128 0x27
 1912 01d3 19       		.uleb128 0x19
 1913 01d4 3C       		.uleb128 0x3c
 1914 01d5 19       		.uleb128 0x19
 1915 01d6 01       		.uleb128 0x1
 1916 01d7 13       		.uleb128 0x13
 1917 01d8 00       		.byte	0
 1918 01d9 00       		.byte	0
 1919 01da 24       		.uleb128 0x24
 1920 01db 05       		.uleb128 0x5
 1921 01dc 00       		.byte	0
 1922 01dd 49       		.uleb128 0x49
 1923 01de 13       		.uleb128 0x13
 1924 01df 00       		.byte	0
 1925 01e0 00       		.byte	0
 1926 01e1 00       		.byte	0
 1927              		.section	.debug_loc,"",%progbits
 1928              	.Ldebug_loc0:
 1929              	.LLST0:
 1930 0000 04000000 		.4byte	.LVL3
ARM GAS  /tmp/cciWQupY.s 			page 35


 1931 0004 06000000 		.4byte	.LVL4
 1932 0008 0300     		.2byte	0x3
 1933 000a 73       		.byte	0x73
 1934 000b 20       		.sleb128 32
 1935 000c 9F       		.byte	0x9f
 1936 000d 06000000 		.4byte	.LVL4
 1937 0011 0C000000 		.4byte	.LVL5
 1938 0015 0100     		.2byte	0x1
 1939 0017 53       		.byte	0x53
 1940 0018 00000000 		.4byte	0
 1941 001c 00000000 		.4byte	0
 1942              	.LLST1:
 1943 0020 1A000000 		.4byte	.LVL9
 1944 0024 1E000000 		.4byte	.LVL10
 1945 0028 0300     		.2byte	0x3
 1946 002a 72       		.byte	0x72
 1947 002b 60       		.sleb128 -32
 1948 002c 9F       		.byte	0x9f
 1949 002d 1E000000 		.4byte	.LVL10
 1950 0031 26000000 		.4byte	.LVL11
 1951 0035 0100     		.2byte	0x1
 1952 0037 53       		.byte	0x53
 1953 0038 26000000 		.4byte	.LVL11
 1954 003c 58000000 		.4byte	.LVL12
 1955 0040 0300     		.2byte	0x3
 1956 0042 72       		.byte	0x72
 1957 0043 60       		.sleb128 -32
 1958 0044 9F       		.byte	0x9f
 1959 0045 5E000000 		.4byte	.LVL13
 1960 0049 7E000000 		.4byte	.LFE10
 1961 004d 0300     		.2byte	0x3
 1962 004f 72       		.byte	0x72
 1963 0050 60       		.sleb128 -32
 1964 0051 9F       		.byte	0x9f
 1965 0052 00000000 		.4byte	0
 1966 0056 00000000 		.4byte	0
 1967              		.section	.debug_aranges,"",%progbits
 1968 0000 4C000000 		.4byte	0x4c
 1969 0004 0200     		.2byte	0x2
 1970 0006 00000000 		.4byte	.Ldebug_info0
 1971 000a 04       		.byte	0x4
 1972 000b 00       		.byte	0
 1973 000c 0000     		.2byte	0
 1974 000e 0000     		.2byte	0
 1975 0010 00000000 		.4byte	.LFB11
 1976 0014 0E000000 		.4byte	.LFE11-.LFB11
 1977 0018 00000000 		.4byte	.LFB8
 1978 001c 12000000 		.4byte	.LFE8-.LFB8
 1979 0020 00000000 		.4byte	.LFB9
 1980 0024 34000000 		.4byte	.LFE9-.LFB9
 1981 0028 00000000 		.4byte	.LFB10
 1982 002c 7E000000 		.4byte	.LFE10-.LFB10
 1983 0030 00000000 		.4byte	.LFB7
 1984 0034 2A000000 		.4byte	.LFE7-.LFB7
 1985 0038 00000000 		.4byte	.LFB12
 1986 003c 10000000 		.4byte	.LFE12-.LFB12
 1987 0040 00000000 		.4byte	.LFB13
ARM GAS  /tmp/cciWQupY.s 			page 36


 1988 0044 16000000 		.4byte	.LFE13-.LFB13
 1989 0048 00000000 		.4byte	0
 1990 004c 00000000 		.4byte	0
 1991              		.section	.debug_ranges,"",%progbits
 1992              	.Ldebug_ranges0:
 1993 0000 16000000 		.4byte	.LBB4
 1994 0004 58000000 		.4byte	.LBE4
 1995 0008 5E000000 		.4byte	.LBB6
 1996 000c 7E000000 		.4byte	.LBE6
 1997 0010 00000000 		.4byte	0
 1998 0014 00000000 		.4byte	0
 1999 0018 00000000 		.4byte	.LFB11
 2000 001c 0E000000 		.4byte	.LFE11
 2001 0020 00000000 		.4byte	.LFB8
 2002 0024 12000000 		.4byte	.LFE8
 2003 0028 00000000 		.4byte	.LFB9
 2004 002c 34000000 		.4byte	.LFE9
 2005 0030 00000000 		.4byte	.LFB10
 2006 0034 7E000000 		.4byte	.LFE10
 2007 0038 00000000 		.4byte	.LFB7
 2008 003c 2A000000 		.4byte	.LFE7
 2009 0040 00000000 		.4byte	.LFB12
 2010 0044 10000000 		.4byte	.LFE12
 2011 0048 00000000 		.4byte	.LFB13
 2012 004c 16000000 		.4byte	.LFE13
 2013 0050 00000000 		.4byte	0
 2014 0054 00000000 		.4byte	0
 2015              		.section	.debug_line,"",%progbits
 2016              	.Ldebug_line0:
 2017 0000 03020000 		.section	.debug_str,"MS",%progbits,1
 2017      02004B01 
 2017      00000201 
 2017      FB0E0D00 
 2017      01010101 
 2018              	.LASF42:
 2019 0000 705F6D73 		.ascii	"p_msg\000"
 2019      6700
 2020              	.LASF85:
 2021 0006 7264796D 		.ascii	"rdymsg\000"
 2021      736700
 2022              	.LASF16:
 2023 000d 75696E74 		.ascii	"uint64_t\000"
 2023      36345F74 
 2023      00
 2024              	.LASF5:
 2025 0016 5F5F7569 		.ascii	"__uint8_t\000"
 2025      6E74385F 
 2025      7400
 2026              	.LASF73:
 2027 0020 434D785F 		.ascii	"CMx_SCB\000"
 2027      53434200 
 2028              	.LASF103:
 2029 0028 63685379 		.ascii	"chSysTimerHandlerI\000"
 2029      7354696D 
 2029      65724861 
 2029      6E646C65 
 2029      724900
ARM GAS  /tmp/cciWQupY.s 			page 37


 2030              	.LASF106:
 2031 003b 474E5520 		.ascii	"GNU C 4.8.2 -mcpu=cortex-m4 -mno-thumb-interwork -m"
 2031      4320342E 
 2031      382E3220 
 2031      2D6D6370 
 2031      753D636F 
 2032 006e 7468756D 		.ascii	"thumb -ggdb -O2 -fomit-frame-pointer -falign-functi"
 2032      62202D67 
 2032      67646220 
 2032      2D4F3220 
 2032      2D666F6D 
 2033 00a1 6F6E733D 		.ascii	"ons=16 -ffunction-sections -fdata-sections -fno-com"
 2033      3136202D 
 2033      6666756E 
 2033      6374696F 
 2033      6E2D7365 
 2034 00d4 6D6F6E00 		.ascii	"mon\000"
 2035              	.LASF95:
 2036 00d8 53797354 		.ascii	"SysTickVector\000"
 2036      69636B56 
 2036      6563746F 
 2036      7200
 2037              	.LASF12:
 2038 00e6 6C6F6E67 		.ascii	"long long unsigned int\000"
 2038      206C6F6E 
 2038      6720756E 
 2038      7369676E 
 2038      65642069 
 2039              	.LASF86:
 2040 00fd 65786974 		.ascii	"exitcode\000"
 2040      636F6465 
 2040      00
 2041              	.LASF58:
 2042 0106 43505549 		.ascii	"CPUID\000"
 2042      4400
 2043              	.LASF29:
 2044 010c 705F7072 		.ascii	"p_prio\000"
 2044      696F00
 2045              	.LASF10:
 2046 0113 6C6F6E67 		.ascii	"long long int\000"
 2046      206C6F6E 
 2046      6720696E 
 2046      7400
 2047              	.LASF1:
 2048 0121 7369676E 		.ascii	"signed char\000"
 2048      65642063 
 2048      68617200 
 2049              	.LASF104:
 2050 012d 6462675F 		.ascii	"dbg_check_unlock_from_isr\000"
 2050      63686563 
 2050      6B5F756E 
 2050      6C6F636B 
 2050      5F66726F 
 2051              	.LASF46:
 2052 0147 705F6D70 		.ascii	"p_mpool\000"
 2052      6F6F6C00 
 2053              	.LASF82:
ARM GAS  /tmp/cciWQupY.s 			page 38


 2054 014f 6D5F7175 		.ascii	"m_queue\000"
 2054      65756500 
 2055              	.LASF21:
 2056 0157 74736C69 		.ascii	"tslices_t\000"
 2056      6365735F 
 2056      7400
 2057              	.LASF7:
 2058 0161 6C6F6E67 		.ascii	"long int\000"
 2058      20696E74 
 2058      00
 2059              	.LASF108:
 2060 016a 2F686F6D 		.ascii	"/home/ece497/vbox-shared/mplayer/ChibiOS-RT-stable_"
 2060      652F6563 
 2060      65343937 
 2060      2F76626F 
 2060      782D7368 
 2061 019d 322E362E 		.ascii	"2.6.x/testhal/STM32F4xx/ADC\000"
 2061      782F7465 
 2061      73746861 
 2061      6C2F5354 
 2061      4D333246 
 2062              	.LASF91:
 2063 01b9 53564361 		.ascii	"SVCallVector\000"
 2063      6C6C5665 
 2063      63746F72 
 2063      00
 2064              	.LASF19:
 2065 01c6 74737461 		.ascii	"tstate_t\000"
 2065      74655F74 
 2065      00
 2066              	.LASF97:
 2067 01cf 5F706F72 		.ascii	"_port_thread_start\000"
 2067      745F7468 
 2067      72656164 
 2067      5F737461 
 2067      727400
 2068              	.LASF31:
 2069 01e2 705F6E65 		.ascii	"p_newer\000"
 2069      77657200 
 2070              	.LASF68:
 2071 01ea 42464152 		.ascii	"BFAR\000"
 2071      00
 2072              	.LASF8:
 2073 01ef 5F5F7569 		.ascii	"__uint32_t\000"
 2073      6E743332 
 2073      5F7400
 2074              	.LASF110:
 2075 01fa 6E766963 		.ascii	"nvicSetSystemHandlerPriority\000"
 2075      53657453 
 2075      79737465 
 2075      6D48616E 
 2075      646C6572 
 2076              	.LASF49:
 2077 0217 72656761 		.ascii	"regarm_t\000"
 2077      726D5F74 
 2077      00
 2078              	.LASF99:
ARM GAS  /tmp/cciWQupY.s 			page 39


 2079 0220 63685363 		.ascii	"chSchDoReschedule\000"
 2079      68446F52 
 2079      65736368 
 2079      6564756C 
 2079      6500
 2080              	.LASF101:
 2081 0232 6462675F 		.ascii	"dbg_check_enter_isr\000"
 2081      63686563 
 2081      6B5F656E 
 2081      7465725F 
 2081      69737200 
 2082              	.LASF34:
 2083 0246 705F7374 		.ascii	"p_stklimit\000"
 2083      6B6C696D 
 2083      697400
 2084              	.LASF0:
 2085 0251 756E7369 		.ascii	"unsigned int\000"
 2085      676E6564 
 2085      20696E74 
 2085      00
 2086              	.LASF52:
 2087 025e 6C725F74 		.ascii	"lr_thd\000"
 2087      686400
 2088              	.LASF51:
 2089 0265 65787463 		.ascii	"extctx\000"
 2089      747800
 2090              	.LASF96:
 2091 026c 5F706F72 		.ascii	"_port_switch\000"
 2091      745F7377 
 2091      69746368 
 2091      00
 2092              	.LASF9:
 2093 0279 6C6F6E67 		.ascii	"long unsigned int\000"
 2093      20756E73 
 2093      69676E65 
 2093      6420696E 
 2093      7400
 2094              	.LASF60:
 2095 028b 56544F52 		.ascii	"VTOR\000"
 2095      00
 2096              	.LASF90:
 2097 0290 5F706F72 		.ascii	"_port_switch_from_isr\000"
 2097      745F7377 
 2097      69746368 
 2097      5F66726F 
 2097      6D5F6973 
 2098              	.LASF55:
 2099 02a6 636F6E74 		.ascii	"context\000"
 2099      65787400 
 2100              	.LASF4:
 2101 02ae 73686F72 		.ascii	"short unsigned int\000"
 2101      7420756E 
 2101      7369676E 
 2101      65642069 
 2101      6E7400
 2102              	.LASF59:
 2103 02c1 49435352 		.ascii	"ICSR\000"
ARM GAS  /tmp/cciWQupY.s 			page 40


 2103      00
 2104              	.LASF23:
 2105 02c6 6D73675F 		.ascii	"msg_t\000"
 2105      7400
 2106              	.LASF107:
 2107 02cc 2E2E2F2E 		.ascii	"../../../os/ports/GCC/ARMCMx/chcore_v7m.c\000"
 2107      2E2F2E2E 
 2107      2F6F732F 
 2107      706F7274 
 2107      732F4743 
 2108              	.LASF61:
 2109 02f6 41495243 		.ascii	"AIRCR\000"
 2109      5200
 2110              	.LASF77:
 2111 02fc 725F6E65 		.ascii	"r_newer\000"
 2111      77657200 
 2112              	.LASF67:
 2113 0304 4D4D4641 		.ascii	"MMFAR\000"
 2113      5200
 2114              	.LASF94:
 2115 030a 5F706F72 		.ascii	"_port_irq_epilogue\000"
 2115      745F6972 
 2115      715F6570 
 2115      696C6F67 
 2115      756500
 2116              	.LASF18:
 2117 031d 746D6F64 		.ascii	"tmode_t\000"
 2117      655F7400 
 2118              	.LASF48:
 2119 0325 54687265 		.ascii	"ThreadsList\000"
 2119      6164734C 
 2119      69737400 
 2120              	.LASF24:
 2121 0331 6576656E 		.ascii	"eventmask_t\000"
 2121      746D6173 
 2121      6B5F7400 
 2122              	.LASF81:
 2123 033d 4D757465 		.ascii	"Mutex\000"
 2123      7800
 2124              	.LASF50:
 2125 0343 73746B61 		.ascii	"stkalign_t\000"
 2125      6C69676E 
 2125      5F7400
 2126              	.LASF57:
 2127 034e 73697A65 		.ascii	"sizetype\000"
 2127      74797065 
 2127      00
 2128              	.LASF98:
 2129 0357 6462675F 		.ascii	"dbg_check_lock\000"
 2129      63686563 
 2129      6B5F6C6F 
 2129      636B00
 2130              	.LASF64:
 2131 0366 43465352 		.ascii	"CFSR\000"
 2131      00
 2132              	.LASF32:
 2133 036b 705F6F6C 		.ascii	"p_older\000"
ARM GAS  /tmp/cciWQupY.s 			page 41


 2133      64657200 
 2134              	.LASF76:
 2135 0373 725F6374 		.ascii	"r_ctx\000"
 2135      7800
 2136              	.LASF47:
 2137 0379 54687265 		.ascii	"ThreadsQueue\000"
 2137      61647351 
 2137      75657565 
 2137      00
 2138              	.LASF79:
 2139 0386 725F6375 		.ascii	"r_current\000"
 2139      7272656E 
 2139      7400
 2140              	.LASF78:
 2141 0390 725F6F6C 		.ascii	"r_older\000"
 2141      64657200 
 2142              	.LASF100:
 2143 0398 6462675F 		.ascii	"dbg_check_unlock\000"
 2143      63686563 
 2143      6B5F756E 
 2143      6C6F636B 
 2143      00
 2144              	.LASF11:
 2145 03a9 5F5F7569 		.ascii	"__uint64_t\000"
 2145      6E743634 
 2145      5F7400
 2146              	.LASF20:
 2147 03b4 74726566 		.ascii	"trefs_t\000"
 2147      735F7400 
 2148              	.LASF66:
 2149 03bc 44465352 		.ascii	"DFSR\000"
 2149      00
 2150              	.LASF92:
 2151 03c1 63747870 		.ascii	"ctxp\000"
 2151      00
 2152              	.LASF28:
 2153 03c6 705F7072 		.ascii	"p_prev\000"
 2153      657600
 2154              	.LASF22:
 2155 03cd 74707269 		.ascii	"tprio_t\000"
 2155      6F5F7400 
 2156              	.LASF17:
 2157 03d5 5F426F6F 		.ascii	"_Bool\000"
 2157      6C00
 2158              	.LASF14:
 2159 03db 696E7433 		.ascii	"int32_t\000"
 2159      325F7400 
 2160              	.LASF2:
 2161 03e3 756E7369 		.ascii	"unsigned char\000"
 2161      676E6564 
 2161      20636861 
 2161      7200
 2162              	.LASF63:
 2163 03f1 53484353 		.ascii	"SHCSR\000"
 2163      5200
 2164              	.LASF44:
 2165 03f7 705F6D74 		.ascii	"p_mtxlist\000"
ARM GAS  /tmp/cciWQupY.s 			page 42


 2165      786C6973 
 2165      7400
 2166              	.LASF3:
 2167 0401 73686F72 		.ascii	"short int\000"
 2167      7420696E 
 2167      7400
 2168              	.LASF35:
 2169 040b 705F7374 		.ascii	"p_state\000"
 2169      61746500 
 2170              	.LASF38:
 2171 0413 705F7072 		.ascii	"p_preempt\000"
 2171      65656D70 
 2171      7400
 2172              	.LASF53:
 2173 041d 78707372 		.ascii	"xpsr\000"
 2173      00
 2174              	.LASF75:
 2175 0422 725F7072 		.ascii	"r_prio\000"
 2175      696F00
 2176              	.LASF88:
 2177 0429 65776D61 		.ascii	"ewmask\000"
 2177      736B00
 2178              	.LASF27:
 2179 0430 705F6E65 		.ascii	"p_next\000"
 2179      787400
 2180              	.LASF36:
 2181 0437 705F666C 		.ascii	"p_flags\000"
 2181      61677300 
 2182              	.LASF26:
 2183 043f 54687265 		.ascii	"Thread\000"
 2183      616400
 2184              	.LASF43:
 2185 0446 705F6570 		.ascii	"p_epending\000"
 2185      656E6469 
 2185      6E6700
 2186              	.LASF15:
 2187 0451 75696E74 		.ascii	"uint32_t\000"
 2187      33325F74 
 2187      00
 2188              	.LASF74:
 2189 045a 725F7175 		.ascii	"r_queue\000"
 2189      65756500 
 2190              	.LASF69:
 2191 0462 41465352 		.ascii	"AFSR\000"
 2191      00
 2192              	.LASF71:
 2193 0467 756E7573 		.ascii	"unused1\000"
 2193      65643100 
 2194              	.LASF89:
 2195 046f 63686172 		.ascii	"char\000"
 2195      00
 2196              	.LASF56:
 2197 0474 494F5245 		.ascii	"IOREG32\000"
 2197      47333200 
 2198              	.LASF84:
 2199 047c 6D5F6E65 		.ascii	"m_next\000"
 2199      787400
ARM GAS  /tmp/cciWQupY.s 			page 43


 2200              	.LASF25:
 2201 0483 73797374 		.ascii	"systime_t\000"
 2201      696D655F 
 2201      7400
 2202              	.LASF45:
 2203 048d 705F7265 		.ascii	"p_realprio\000"
 2203      616C7072 
 2203      696F00
 2204              	.LASF6:
 2205 0498 5F5F696E 		.ascii	"__int32_t\000"
 2205      7433325F 
 2205      7400
 2206              	.LASF39:
 2207 04a2 705F7469 		.ascii	"p_time\000"
 2207      6D6500
 2208              	.LASF62:
 2209 04a9 53485052 		.ascii	"SHPR\000"
 2209      00
 2210              	.LASF105:
 2211 04ae 6462675F 		.ascii	"dbg_check_leave_isr\000"
 2211      63686563 
 2211      6B5F6C65 
 2211      6176655F 
 2211      69737200 
 2212              	.LASF54:
 2213 04c2 696E7463 		.ascii	"intctx\000"
 2213      747800
 2214              	.LASF41:
 2215 04c9 705F6D73 		.ascii	"p_msgqueue\000"
 2215      67717565 
 2215      756500
 2216              	.LASF37:
 2217 04d4 705F7265 		.ascii	"p_refs\000"
 2217      667300
 2218              	.LASF80:
 2219 04db 52656164 		.ascii	"ReadyList\000"
 2219      794C6973 
 2219      7400
 2220              	.LASF70:
 2221 04e5 4D4D4652 		.ascii	"MMFR\000"
 2221      00
 2222              	.LASF109:
 2223 04ea 726C6973 		.ascii	"rlist\000"
 2223      7400
 2224              	.LASF13:
 2225 04f0 75696E74 		.ascii	"uint8_t\000"
 2225      385F7400 
 2226              	.LASF93:
 2227 04f8 5F706F72 		.ascii	"_port_init\000"
 2227      745F696E 
 2227      697400
 2228              	.LASF102:
 2229 0503 6462675F 		.ascii	"dbg_check_lock_from_isr\000"
 2229      63686563 
 2229      6B5F6C6F 
 2229      636B5F66 
 2229      726F6D5F 
ARM GAS  /tmp/cciWQupY.s 			page 44


 2230              	.LASF87:
 2231 051b 77746F62 		.ascii	"wtobjp\000"
 2231      6A7000
 2232              	.LASF33:
 2233 0522 705F6E61 		.ascii	"p_name\000"
 2233      6D6500
 2234              	.LASF72:
 2235 0529 43504143 		.ascii	"CPACR\000"
 2235      5200
 2236              	.LASF65:
 2237 052f 48465352 		.ascii	"HFSR\000"
 2237      00
 2238              	.LASF83:
 2239 0534 6D5F6F77 		.ascii	"m_owner\000"
 2239      6E657200 
 2240              	.LASF30:
 2241 053c 705F6374 		.ascii	"p_ctx\000"
 2241      7800
 2242              	.LASF40:
 2243 0542 705F7761 		.ascii	"p_waiting\000"
 2243      6974696E 
 2243      6700
 2244              		.ident	"GCC: (Arch Repository) 4.8.2"
ARM GAS  /tmp/cciWQupY.s 			page 45


DEFINED SYMBOLS
                            *ABS*:0000000000000000 chcore_v7m.c
     /tmp/cciWQupY.s:19     .text._port_switch_from_isr:0000000000000000 $t
     /tmp/cciWQupY.s:25     .text._port_switch_from_isr:0000000000000000 _port_switch_from_isr
     /tmp/cciWQupY.s:44     .text._port_switch_from_isr:000000000000000c _port_exit_from_isr
     /tmp/cciWQupY.s:56     .text.SVCallVector:0000000000000000 $t
     /tmp/cciWQupY.s:62     .text.SVCallVector:0000000000000000 SVCallVector
     /tmp/cciWQupY.s:97     .text._port_init:0000000000000000 $t
     /tmp/cciWQupY.s:103    .text._port_init:0000000000000000 _port_init
     /tmp/cciWQupY.s:147    .text._port_irq_epilogue:0000000000000000 $t
     /tmp/cciWQupY.s:153    .text._port_irq_epilogue:0000000000000000 _port_irq_epilogue
     /tmp/cciWQupY.s:252    .text.SysTickVector:0000000000000000 $t
     /tmp/cciWQupY.s:258    .text.SysTickVector:0000000000000000 SysTickVector
     /tmp/cciWQupY.s:306    .text._port_switch:0000000000000000 $t
     /tmp/cciWQupY.s:312    .text._port_switch:0000000000000000 _port_switch
     /tmp/cciWQupY.s:339    .text._port_thread_start:0000000000000000 $t
     /tmp/cciWQupY.s:345    .text._port_thread_start:0000000000000000 _port_thread_start
                     .debug_frame:0000000000000010 $d

UNDEFINED SYMBOLS
dbg_check_lock
chSchDoReschedule
dbg_check_unlock
nvicSetSystemHandlerPriority
rlist
dbg_check_enter_isr
dbg_check_lock_from_isr
chSysTimerHandlerI
dbg_check_unlock_from_isr
dbg_check_leave_isr
chThdExit
