ARM GAS  /tmp/ccQaxyHL.s 			page 1


   1              		.syntax unified
   2              		.cpu cortex-m4
   3              		.fpu softvfp
   4              		.eabi_attribute 20, 1
   5              		.eabi_attribute 21, 1
   6              		.eabi_attribute 23, 3
   7              		.eabi_attribute 24, 1
   8              		.eabi_attribute 25, 1
   9              		.eabi_attribute 26, 1
  10              		.eabi_attribute 30, 6
  11              		.eabi_attribute 34, 1
  12              		.eabi_attribute 18, 4
  13              		.thumb
  14              		.file	"board.c"
  15              		.text
  16              	.Ltext0:
  17              		.cfi_sections	.debug_frame
  18              		.global	pal_default_config
  19              		.section	.rodata.pal_default_config,"a",%progbits
  20              		.align	2
  21              		.type	pal_default_config, %object
  22              		.size	pal_default_config, 252
  23              	pal_default_config:
  24 0000 00AAA02A 		.word	715172352
  25 0004 00000000 		.word	0
  26 0008 FFABFFFF 		.word	-21505
  27 000c 54000140 		.word	1073807444
  28 0010 FFFF0000 		.word	65535
  29 0014 00005655 		.word	1431699456
  30 0018 00AA0A00 		.word	698880
  31 001c 80200800 		.word	532608
  32 0020 40020000 		.word	576
  33 0024 FFFFFFFF 		.word	-1
  34 0028 15455155 		.word	1431389461
  35 002c FFFF0000 		.word	65535
  36 0030 00000004 		.word	67108864
  37 0034 40000000 		.word	64
  38 0038 0180AA02 		.word	44728321
  39 003c 00000000 		.word	0
  40 0040 FFFFFFFF 		.word	-1
  41 0044 54150000 		.word	5460
  42 0048 00FF0000 		.word	65280
  43 004c 00000060 		.word	1610612736
  44 0050 CCCC0C00 		.word	838860
  45 0054 20010055 		.word	1426063648
  46 0058 00000000 		.word	0
  47 005c FFFFFFFF 		.word	-1
  48 0060 45505500 		.word	5591109
  49 0064 FF0F0000 		.word	4095
  50 0068 000C0000 		.word	3072
  51 006c 00000000 		.word	0
  52 0070 40000000 		.word	64
  53 0074 00000000 		.word	0
  54 0078 FFFFFFFF 		.word	-1
  55 007c 00000000 		.word	0
  56 0080 FFFF0000 		.word	65535
  57 0084 00000000 		.word	0
ARM GAS  /tmp/ccQaxyHL.s 			page 2


  58 0088 00000000 		.word	0
  59 008c 00000000 		.word	0
  60 0090 00000000 		.word	0
  61 0094 FFFFFFFF 		.word	-1
  62 0098 00000000 		.word	0
  63 009c FFFF0000 		.word	65535
  64 00a0 00000000 		.word	0
  65 00a4 00000000 		.word	0
  66 00a8 00000000 		.word	0
  67 00ac 00000000 		.word	0
  68 00b0 FFFFFFFF 		.word	-1
  69 00b4 00000000 		.word	0
  70 00b8 FFFF0000 		.word	65535
  71 00bc 00000000 		.word	0
  72 00c0 00000000 		.word	0
  73 00c4 00000000 		.word	0
  74 00c8 00000000 		.word	0
  75 00cc FFFFFFFF 		.word	-1
  76 00d0 00000000 		.word	0
  77 00d4 FFFF0000 		.word	65535
  78 00d8 00000000 		.word	0
  79 00dc 00000000 		.word	0
  80 00e0 00000000 		.word	0
  81 00e4 00000000 		.word	0
  82 00e8 FFFFFFFF 		.word	-1
  83 00ec 00000000 		.word	0
  84 00f0 FFFF0000 		.word	65535
  85 00f4 00000000 		.word	0
  86 00f8 00000000 		.word	0
  87              		.section	.text.__early_init,"ax",%progbits
  88              		.align	2
  89              		.p2align 4,,15
  90              		.global	__early_init
  91              		.thumb
  92              		.thumb_func
  93              		.type	__early_init, %function
  94              	__early_init:
  95              	.LFB118:
  96              		.file 1 "../..//boards/ST_STM32F4_DISCOVERY/board.c"
  97              		.loc 1 54 0
  98              		.cfi_startproc
  99              		@ args = 0, pretend = 0, frame = 0
 100              		@ frame_needed = 0, uses_anonymous_args = 0
 101 0000 08B5     		push	{r3, lr}
 102              		.cfi_def_cfa_offset 8
 103              		.cfi_offset 3, -8
 104              		.cfi_offset 14, -4
 105              		.loc 1 56 0
 106 0002 FFF7FEFF 		bl	stm32_clock_init
 107              		.loc 1 57 0
 108 0006 08BD     		pop	{r3, pc}
 109              		.cfi_endproc
 110              	.LFE118:
 111              		.size	__early_init, .-__early_init
 112 0008 AFF30080 		.section	.text.sdc_lld_is_card_inserted,"ax",%progbits
 112      AFF30080 
 113              		.align	2
ARM GAS  /tmp/ccQaxyHL.s 			page 3


 114              		.p2align 4,,15
 115              		.global	sdc_lld_is_card_inserted
 116              		.thumb
 117              		.thumb_func
 118              		.type	sdc_lld_is_card_inserted, %function
 119              	sdc_lld_is_card_inserted:
 120              	.LFB119:
 121              		.loc 1 63 0
 122              		.cfi_startproc
 123              		@ args = 0, pretend = 0, frame = 8
 124              		@ frame_needed = 0, uses_anonymous_args = 0
 125              		@ link register save eliminated.
 126 0000 82B0     		sub	sp, sp, #8
 127              		.cfi_def_cfa_offset 8
 128 0002 0190     		str	r0, [sp, #4]
 129              		.loc 1 67 0
 130 0004 0123     		movs	r3, #1
 131              		.loc 1 68 0
 132 0006 1846     		mov	r0, r3
 133 0008 02B0     		add	sp, sp, #8
 134              		@ sp needed
 135 000a 7047     		bx	lr
 136              		.cfi_endproc
 137              	.LFE119:
 138              		.size	sdc_lld_is_card_inserted, .-sdc_lld_is_card_inserted
 139 000c AFF30080 		.section	.text.sdc_lld_is_write_protected,"ax",%progbits
 140              		.align	2
 141              		.p2align 4,,15
 142              		.global	sdc_lld_is_write_protected
 143              		.thumb
 144              		.thumb_func
 145              		.type	sdc_lld_is_write_protected, %function
 146              	sdc_lld_is_write_protected:
 147              	.LFB120:
 148              		.loc 1 73 0
 149              		.cfi_startproc
 150              		@ args = 0, pretend = 0, frame = 8
 151              		@ frame_needed = 0, uses_anonymous_args = 0
 152              		@ link register save eliminated.
 153 0000 82B0     		sub	sp, sp, #8
 154              		.cfi_def_cfa_offset 8
 155 0002 0190     		str	r0, [sp, #4]
 156              		.loc 1 77 0
 157 0004 0023     		movs	r3, #0
 158              		.loc 1 78 0
 159 0006 1846     		mov	r0, r3
 160 0008 02B0     		add	sp, sp, #8
 161              		@ sp needed
 162 000a 7047     		bx	lr
 163              		.cfi_endproc
 164              	.LFE120:
 165              		.size	sdc_lld_is_write_protected, .-sdc_lld_is_write_protected
 166 000c AFF30080 		.section	.text.boardInit,"ax",%progbits
 167              		.align	2
 168              		.p2align 4,,15
 169              		.global	boardInit
 170              		.thumb
ARM GAS  /tmp/ccQaxyHL.s 			page 4


 171              		.thumb_func
 172              		.type	boardInit, %function
 173              	boardInit:
 174              	.LFB121:
 175              		.loc 1 107 0
 176              		.cfi_startproc
 177              		@ args = 0, pretend = 0, frame = 0
 178              		@ frame_needed = 0, uses_anonymous_args = 0
 179              		@ link register save eliminated.
 180              		.loc 1 108 0
 181 0000 7047     		bx	lr
 182              		.cfi_endproc
 183              	.LFE121:
 184              		.size	boardInit, .-boardInit
 185 0002 00BFAFF3 		.text
 185      0080AFF3 
 185      0080AFF3 
 185      0080
 186              	.Letext0:
 187              		.file 2 "/usr/arm-none-eabi/include/machine/_default_types.h"
 188              		.file 3 "/usr/arm-none-eabi/include/stdint.h"
 189              		.file 4 "../..//os/ports/GCC/ARMCMx/chtypes.h"
 190              		.file 5 "../..//os/kernel/include/chlists.h"
 191              		.file 6 "../..//os/kernel/include/chthreads.h"
 192              		.file 7 "../..//os/ports/GCC/ARMCMx/chcore_v7m.h"
 193              		.file 8 "../..//os/kernel/include/chmtx.h"
 194              		.file 9 "../..//os/hal/platforms/STM32F4xx/stm32f4xx.h"
 195              		.file 10 "../..//os/hal/platforms/STM32F4xx/stm32_dma.h"
 196              		.file 11 "../..//os/hal/include/io_block.h"
 197              		.file 12 "../..//os/hal/platforms/STM32/GPIOv2/pal_lld.h"
 198              		.file 13 "../..//os/hal/platforms/STM32/sdc_lld.h"
 199              		.file 14 "../..//os/ports/common/ARMCMx/CMSIS/include/core_cm4.h"
 200              		.section	.debug_info,"",%progbits
 201              	.Ldebug_info0:
 202 0000 050A0000 		.4byte	0xa05
 203 0004 0400     		.2byte	0x4
 204 0006 00000000 		.4byte	.Ldebug_abbrev0
 205 000a 04       		.byte	0x4
 206 000b 01       		.uleb128 0x1
 207 000c 71010000 		.4byte	.LASF150
 208 0010 01       		.byte	0x1
 209 0011 2C020000 		.4byte	.LASF151
 210 0015 EA030000 		.4byte	.LASF152
 211 0019 00000000 		.4byte	.Ldebug_ranges0+0
 212 001d 00000000 		.4byte	0
 213 0021 00000000 		.4byte	.Ldebug_line0
 214 0025 02       		.uleb128 0x2
 215 0026 04       		.byte	0x4
 216 0027 05       		.byte	0x5
 217 0028 696E7400 		.ascii	"int\000"
 218 002c 03       		.uleb128 0x3
 219 002d 04       		.byte	0x4
 220 002e 07       		.byte	0x7
 221 002f 91020000 		.4byte	.LASF0
 222 0033 03       		.uleb128 0x3
 223 0034 01       		.byte	0x1
 224 0035 06       		.byte	0x6
ARM GAS  /tmp/ccQaxyHL.s 			page 5


 225 0036 EE000000 		.4byte	.LASF1
 226 003a 04       		.uleb128 0x4
 227 003b 59000000 		.4byte	.LASF5
 228 003f 02       		.byte	0x2
 229 0040 1C       		.byte	0x1c
 230 0041 45000000 		.4byte	0x45
 231 0045 03       		.uleb128 0x3
 232 0046 01       		.byte	0x1
 233 0047 08       		.byte	0x8
 234 0048 A2040000 		.4byte	.LASF2
 235 004c 03       		.uleb128 0x3
 236 004d 02       		.byte	0x2
 237 004e 05       		.byte	0x5
 238 004f BF040000 		.4byte	.LASF3
 239 0053 03       		.uleb128 0x3
 240 0054 02       		.byte	0x2
 241 0055 07       		.byte	0x7
 242 0056 CC020000 		.4byte	.LASF4
 243 005a 04       		.uleb128 0x4
 244 005b 9F050000 		.4byte	.LASF6
 245 005f 02       		.byte	0x2
 246 0060 37       		.byte	0x37
 247 0061 65000000 		.4byte	0x65
 248 0065 03       		.uleb128 0x3
 249 0066 04       		.byte	0x4
 250 0067 05       		.byte	0x5
 251 0068 32010000 		.4byte	.LASF7
 252 006c 04       		.uleb128 0x4
 253 006d 0E020000 		.4byte	.LASF8
 254 0071 02       		.byte	0x2
 255 0072 38       		.byte	0x38
 256 0073 77000000 		.4byte	0x77
 257 0077 03       		.uleb128 0x3
 258 0078 04       		.byte	0x4
 259 0079 07       		.byte	0x7
 260 007a 49050000 		.4byte	.LASF9
 261 007e 03       		.uleb128 0x3
 262 007f 08       		.byte	0x8
 263 0080 05       		.byte	0x5
 264 0081 E0000000 		.4byte	.LASF10
 265 0085 04       		.uleb128 0x4
 266 0086 DF030000 		.4byte	.LASF11
 267 008a 02       		.byte	0x2
 268 008b 4E       		.byte	0x4e
 269 008c 90000000 		.4byte	0x90
 270 0090 03       		.uleb128 0x3
 271 0091 08       		.byte	0x8
 272 0092 07       		.byte	0x7
 273 0093 86000000 		.4byte	.LASF12
 274 0097 04       		.uleb128 0x4
 275 0098 10060000 		.4byte	.LASF13
 276 009c 03       		.byte	0x3
 277 009d 2A       		.byte	0x2a
 278 009e 3A000000 		.4byte	0x3a
 279 00a2 04       		.uleb128 0x4
 280 00a3 9A040000 		.4byte	.LASF14
 281 00a7 03       		.byte	0x3
ARM GAS  /tmp/ccQaxyHL.s 			page 6


 282 00a8 41       		.byte	0x41
 283 00a9 5A000000 		.4byte	0x5a
 284 00ad 04       		.uleb128 0x4
 285 00ae 40050000 		.4byte	.LASF15
 286 00b2 03       		.byte	0x3
 287 00b3 42       		.byte	0x42
 288 00b4 6C000000 		.4byte	0x6c
 289 00b8 04       		.uleb128 0x4
 290 00b9 43000000 		.4byte	.LASF16
 291 00bd 03       		.byte	0x3
 292 00be 4E       		.byte	0x4e
 293 00bf 85000000 		.4byte	0x85
 294 00c3 04       		.uleb128 0x4
 295 00c4 02010000 		.4byte	.LASF17
 296 00c8 04       		.byte	0x4
 297 00c9 2B       		.byte	0x2b
 298 00ca CE000000 		.4byte	0xce
 299 00ce 03       		.uleb128 0x3
 300 00cf 01       		.byte	0x1
 301 00d0 02       		.byte	0x2
 302 00d1 94040000 		.4byte	.LASF18
 303 00d5 04       		.uleb128 0x4
 304 00d6 34030000 		.4byte	.LASF19
 305 00da 04       		.byte	0x4
 306 00db 2C       		.byte	0x2c
 307 00dc 97000000 		.4byte	0x97
 308 00e0 04       		.uleb128 0x4
 309 00e1 49010000 		.4byte	.LASF20
 310 00e5 04       		.byte	0x4
 311 00e6 2D       		.byte	0x2d
 312 00e7 97000000 		.4byte	0x97
 313 00eb 04       		.uleb128 0x4
 314 00ec 36040000 		.4byte	.LASF21
 315 00f0 04       		.byte	0x4
 316 00f1 2E       		.byte	0x2e
 317 00f2 97000000 		.4byte	0x97
 318 00f6 04       		.uleb128 0x4
 319 00f7 22010000 		.4byte	.LASF22
 320 00fb 04       		.byte	0x4
 321 00fc 2F       		.byte	0x2f
 322 00fd 97000000 		.4byte	0x97
 323 0101 04       		.uleb128 0x4
 324 0102 85040000 		.4byte	.LASF23
 325 0106 04       		.byte	0x4
 326 0107 30       		.byte	0x30
 327 0108 AD000000 		.4byte	0xad
 328 010c 04       		.uleb128 0x4
 329 010d 0C030000 		.4byte	.LASF24
 330 0111 04       		.byte	0x4
 331 0112 31       		.byte	0x31
 332 0113 A2000000 		.4byte	0xa2
 333 0117 04       		.uleb128 0x4
 334 0118 50030000 		.4byte	.LASF25
 335 011c 04       		.byte	0x4
 336 011d 33       		.byte	0x33
 337 011e AD000000 		.4byte	0xad
 338 0122 04       		.uleb128 0x4
ARM GAS  /tmp/ccQaxyHL.s 			page 7


 339 0123 8A050000 		.4byte	.LASF26
 340 0127 04       		.byte	0x4
 341 0128 35       		.byte	0x35
 342 0129 AD000000 		.4byte	0xad
 343 012d 04       		.uleb128 0x4
 344 012e 5D020000 		.4byte	.LASF27
 345 0132 05       		.byte	0x5
 346 0133 2A       		.byte	0x2a
 347 0134 38010000 		.4byte	0x138
 348 0138 05       		.uleb128 0x5
 349 0139 5D020000 		.4byte	.LASF27
 350 013d 4C       		.byte	0x4c
 351 013e 06       		.byte	0x6
 352 013f 5E       		.byte	0x5e
 353 0140 41020000 		.4byte	0x241
 354 0144 06       		.uleb128 0x6
 355 0145 F5040000 		.4byte	.LASF28
 356 0149 06       		.byte	0x6
 357 014a 5F       		.byte	0x5f
 358 014b 62020000 		.4byte	0x262
 359 014f 00       		.byte	0
 360 0150 06       		.uleb128 0x6
 361 0151 6B040000 		.4byte	.LASF29
 362 0155 06       		.byte	0x6
 363 0156 61       		.byte	0x61
 364 0157 62020000 		.4byte	0x262
 365 015b 04       		.byte	0x4
 366 015c 06       		.uleb128 0x6
 367 015d D9000000 		.4byte	.LASF30
 368 0161 06       		.byte	0x6
 369 0162 63       		.byte	0x63
 370 0163 01010000 		.4byte	0x101
 371 0167 08       		.byte	0x8
 372 0168 06       		.uleb128 0x6
 373 0169 6D060000 		.4byte	.LASF31
 374 016d 06       		.byte	0x6
 375 016e 64       		.byte	0x64
 376 016f 27030000 		.4byte	0x327
 377 0173 0C       		.byte	0xc
 378 0174 06       		.uleb128 0x6
 379 0175 60010000 		.4byte	.LASF32
 380 0179 06       		.byte	0x6
 381 017a 66       		.byte	0x66
 382 017b 62020000 		.4byte	0x262
 383 017f 10       		.byte	0x10
 384 0180 06       		.uleb128 0x6
 385 0181 A2030000 		.4byte	.LASF33
 386 0185 06       		.byte	0x6
 387 0186 67       		.byte	0x67
 388 0187 62020000 		.4byte	0x262
 389 018b 14       		.byte	0x14
 390 018c 06       		.uleb128 0x6
 391 018d EE050000 		.4byte	.LASF34
 392 0191 06       		.byte	0x6
 393 0192 6E       		.byte	0x6e
 394 0193 D0030000 		.4byte	0x3d0
 395 0197 18       		.byte	0x18
ARM GAS  /tmp/ccQaxyHL.s 			page 8


 396 0198 06       		.uleb128 0x6
 397 0199 86020000 		.4byte	.LASF35
 398 019d 06       		.byte	0x6
 399 019e 74       		.byte	0x74
 400 019f E2030000 		.4byte	0x3e2
 401 01a3 1C       		.byte	0x1c
 402 01a4 06       		.uleb128 0x6
 403 01a5 C9040000 		.4byte	.LASF36
 404 01a9 06       		.byte	0x6
 405 01aa 79       		.byte	0x79
 406 01ab E0000000 		.4byte	0xe0
 407 01af 20       		.byte	0x20
 408 01b0 06       		.uleb128 0x6
 409 01b1 7E020000 		.4byte	.LASF37
 410 01b5 06       		.byte	0x6
 411 01b6 7D       		.byte	0x7d
 412 01b7 D5000000 		.4byte	0xd5
 413 01bb 21       		.byte	0x21
 414 01bc 06       		.uleb128 0x6
 415 01bd F5050000 		.4byte	.LASF38
 416 01c1 06       		.byte	0x6
 417 01c2 82       		.byte	0x82
 418 01c3 EB000000 		.4byte	0xeb
 419 01c7 22       		.byte	0x22
 420 01c8 06       		.uleb128 0x6
 421 01c9 DD040000 		.4byte	.LASF39
 422 01cd 06       		.byte	0x6
 423 01ce 88       		.byte	0x88
 424 01cf F6000000 		.4byte	0xf6
 425 01d3 23       		.byte	0x23
 426 01d4 06       		.uleb128 0x6
 427 01d5 2D000000 		.4byte	.LASF40
 428 01d9 06       		.byte	0x6
 429 01da 8F       		.byte	0x8f
 430 01db 54030000 		.4byte	0x354
 431 01df 24       		.byte	0x24
 432 01e0 07       		.uleb128 0x7
 433 01e1 705F7500 		.ascii	"p_u\000"
 434 01e5 06       		.byte	0x6
 435 01e6 B4       		.byte	0xb4
 436 01e7 9B030000 		.4byte	0x39b
 437 01eb 28       		.byte	0x28
 438 01ec 06       		.uleb128 0x6
 439 01ed 73060000 		.4byte	.LASF41
 440 01f1 06       		.byte	0x6
 441 01f2 B9       		.byte	0xb9
 442 01f3 88020000 		.4byte	0x288
 443 01f7 2C       		.byte	0x2c
 444 01f8 06       		.uleb128 0x6
 445 01f9 A5020000 		.4byte	.LASF42
 446 01fd 06       		.byte	0x6
 447 01fe BF       		.byte	0xbf
 448 01ff 68020000 		.4byte	0x268
 449 0203 30       		.byte	0x30
 450 0204 06       		.uleb128 0x6
 451 0205 38060000 		.4byte	.LASF43
 452 0209 06       		.byte	0x6
ARM GAS  /tmp/ccQaxyHL.s 			page 9


 453 020a C3       		.byte	0xc3
 454 020b 0C010000 		.4byte	0x10c
 455 020f 38       		.byte	0x38
 456 0210 06       		.uleb128 0x6
 457 0211 30050000 		.4byte	.LASF44
 458 0215 06       		.byte	0x6
 459 0216 C9       		.byte	0xc9
 460 0217 17010000 		.4byte	0x117
 461 021b 3C       		.byte	0x3c
 462 021c 06       		.uleb128 0x6
 463 021d B5040000 		.4byte	.LASF45
 464 0221 06       		.byte	0x6
 465 0222 D0       		.byte	0xd0
 466 0223 E8030000 		.4byte	0x3e8
 467 0227 40       		.byte	0x40
 468 0228 06       		.uleb128 0x6
 469 0229 94050000 		.4byte	.LASF46
 470 022d 06       		.byte	0x6
 471 022e D4       		.byte	0xd4
 472 022f 01010000 		.4byte	0x101
 473 0233 44       		.byte	0x44
 474 0234 06       		.uleb128 0x6
 475 0235 FA000000 		.4byte	.LASF47
 476 0239 06       		.byte	0x6
 477 023a DA       		.byte	0xda
 478 023b 9E020000 		.4byte	0x29e
 479 023f 48       		.byte	0x48
 480 0240 00       		.byte	0
 481 0241 08       		.uleb128 0x8
 482 0242 08       		.byte	0x8
 483 0243 05       		.byte	0x5
 484 0244 61       		.byte	0x61
 485 0245 62020000 		.4byte	0x262
 486 0249 06       		.uleb128 0x6
 487 024a F5040000 		.4byte	.LASF28
 488 024e 05       		.byte	0x5
 489 024f 62       		.byte	0x62
 490 0250 62020000 		.4byte	0x262
 491 0254 00       		.byte	0
 492 0255 06       		.uleb128 0x6
 493 0256 6B040000 		.4byte	.LASF29
 494 025a 05       		.byte	0x5
 495 025b 64       		.byte	0x64
 496 025c 62020000 		.4byte	0x262
 497 0260 04       		.byte	0x4
 498 0261 00       		.byte	0
 499 0262 09       		.uleb128 0x9
 500 0263 04       		.byte	0x4
 501 0264 2D010000 		.4byte	0x12d
 502 0268 04       		.uleb128 0x4
 503 0269 C0030000 		.4byte	.LASF48
 504 026d 05       		.byte	0x5
 505 026e 66       		.byte	0x66
 506 026f 41020000 		.4byte	0x241
 507 0273 08       		.uleb128 0x8
 508 0274 04       		.byte	0x4
 509 0275 05       		.byte	0x5
ARM GAS  /tmp/ccQaxyHL.s 			page 10


 510 0276 6B       		.byte	0x6b
 511 0277 88020000 		.4byte	0x288
 512 027b 06       		.uleb128 0x6
 513 027c F5040000 		.4byte	.LASF28
 514 0280 05       		.byte	0x5
 515 0281 6D       		.byte	0x6d
 516 0282 62020000 		.4byte	0x262
 517 0286 00       		.byte	0
 518 0287 00       		.byte	0
 519 0288 04       		.uleb128 0x4
 520 0289 44030000 		.4byte	.LASF49
 521 028d 05       		.byte	0x5
 522 028e 70       		.byte	0x70
 523 028f 73020000 		.4byte	0x273
 524 0293 04       		.uleb128 0x4
 525 0294 19020000 		.4byte	.LASF50
 526 0298 07       		.byte	0x7
 527 0299 E5       		.byte	0xe5
 528 029a 9E020000 		.4byte	0x29e
 529 029e 0A       		.uleb128 0xa
 530 029f 04       		.byte	0x4
 531 02a0 04       		.uleb128 0x4
 532 02a1 63030000 		.4byte	.LASF51
 533 02a5 07       		.byte	0x7
 534 02a6 EB       		.byte	0xeb
 535 02a7 B8000000 		.4byte	0xb8
 536 02ab 0B       		.uleb128 0xb
 537 02ac D6050000 		.4byte	.LASF52
 538 02b0 24       		.byte	0x24
 539 02b1 07       		.byte	0x7
 540 02b2 0C01     		.2byte	0x10c
 541 02b4 27030000 		.4byte	0x327
 542 02b8 0C       		.uleb128 0xc
 543 02b9 723400   		.ascii	"r4\000"
 544 02bc 07       		.byte	0x7
 545 02bd 1F01     		.2byte	0x11f
 546 02bf 93020000 		.4byte	0x293
 547 02c3 00       		.byte	0
 548 02c4 0C       		.uleb128 0xc
 549 02c5 723500   		.ascii	"r5\000"
 550 02c8 07       		.byte	0x7
 551 02c9 2001     		.2byte	0x120
 552 02cb 93020000 		.4byte	0x293
 553 02cf 04       		.byte	0x4
 554 02d0 0C       		.uleb128 0xc
 555 02d1 723600   		.ascii	"r6\000"
 556 02d4 07       		.byte	0x7
 557 02d5 2101     		.2byte	0x121
 558 02d7 93020000 		.4byte	0x293
 559 02db 08       		.byte	0x8
 560 02dc 0C       		.uleb128 0xc
 561 02dd 723700   		.ascii	"r7\000"
 562 02e0 07       		.byte	0x7
 563 02e1 2201     		.2byte	0x122
 564 02e3 93020000 		.4byte	0x293
 565 02e7 0C       		.byte	0xc
 566 02e8 0C       		.uleb128 0xc
ARM GAS  /tmp/ccQaxyHL.s 			page 11


 567 02e9 723800   		.ascii	"r8\000"
 568 02ec 07       		.byte	0x7
 569 02ed 2301     		.2byte	0x123
 570 02ef 93020000 		.4byte	0x293
 571 02f3 10       		.byte	0x10
 572 02f4 0C       		.uleb128 0xc
 573 02f5 723900   		.ascii	"r9\000"
 574 02f8 07       		.byte	0x7
 575 02f9 2401     		.2byte	0x124
 576 02fb 93020000 		.4byte	0x293
 577 02ff 14       		.byte	0x14
 578 0300 0C       		.uleb128 0xc
 579 0301 72313000 		.ascii	"r10\000"
 580 0305 07       		.byte	0x7
 581 0306 2501     		.2byte	0x125
 582 0308 93020000 		.4byte	0x293
 583 030c 18       		.byte	0x18
 584 030d 0C       		.uleb128 0xc
 585 030e 72313100 		.ascii	"r11\000"
 586 0312 07       		.byte	0x7
 587 0313 2601     		.2byte	0x126
 588 0315 93020000 		.4byte	0x293
 589 0319 1C       		.byte	0x1c
 590 031a 0C       		.uleb128 0xc
 591 031b 6C7200   		.ascii	"lr\000"
 592 031e 07       		.byte	0x7
 593 031f 2701     		.2byte	0x127
 594 0321 93020000 		.4byte	0x293
 595 0325 20       		.byte	0x20
 596 0326 00       		.byte	0
 597 0327 0B       		.uleb128 0xb
 598 0328 C3050000 		.4byte	.LASF53
 599 032c 04       		.byte	0x4
 600 032d 07       		.byte	0x7
 601 032e 3101     		.2byte	0x131
 602 0330 42030000 		.4byte	0x342
 603 0334 0C       		.uleb128 0xc
 604 0335 72313300 		.ascii	"r13\000"
 605 0339 07       		.byte	0x7
 606 033a 3201     		.2byte	0x132
 607 033c 42030000 		.4byte	0x342
 608 0340 00       		.byte	0
 609 0341 00       		.byte	0
 610 0342 09       		.uleb128 0x9
 611 0343 04       		.byte	0x4
 612 0344 AB020000 		.4byte	0x2ab
 613 0348 0D       		.uleb128 0xd
 614 0349 AD000000 		.4byte	0xad
 615 034d 03       		.uleb128 0x3
 616 034e 04       		.byte	0x4
 617 034f 07       		.byte	0x7
 618 0350 85030000 		.4byte	.LASF54
 619 0354 0D       		.uleb128 0xd
 620 0355 22010000 		.4byte	0x122
 621 0359 05       		.uleb128 0x5
 622 035a 96030000 		.4byte	.LASF55
 623 035e 10       		.byte	0x10
ARM GAS  /tmp/ccQaxyHL.s 			page 12


 624 035f 08       		.byte	0x8
 625 0360 2C       		.byte	0x2c
 626 0361 8A030000 		.4byte	0x38a
 627 0365 06       		.uleb128 0x6
 628 0366 09010000 		.4byte	.LASF56
 629 036a 08       		.byte	0x8
 630 036b 2D       		.byte	0x2d
 631 036c 68020000 		.4byte	0x268
 632 0370 00       		.byte	0
 633 0371 06       		.uleb128 0x6
 634 0372 48060000 		.4byte	.LASF57
 635 0376 08       		.byte	0x8
 636 0377 2F       		.byte	0x2f
 637 0378 62020000 		.4byte	0x262
 638 037c 08       		.byte	0x8
 639 037d 06       		.uleb128 0x6
 640 037e 83050000 		.4byte	.LASF58
 641 0382 08       		.byte	0x8
 642 0383 31       		.byte	0x31
 643 0384 8A030000 		.4byte	0x38a
 644 0388 0C       		.byte	0xc
 645 0389 00       		.byte	0
 646 038a 09       		.uleb128 0x9
 647 038b 04       		.byte	0x4
 648 038c 59030000 		.4byte	0x359
 649 0390 04       		.uleb128 0x4
 650 0391 96030000 		.4byte	.LASF55
 651 0395 08       		.byte	0x8
 652 0396 33       		.byte	0x33
 653 0397 59030000 		.4byte	0x359
 654 039b 0E       		.uleb128 0xe
 655 039c 04       		.byte	0x4
 656 039d 06       		.byte	0x6
 657 039e 96       		.byte	0x96
 658 039f D0030000 		.4byte	0x3d0
 659 03a3 0F       		.uleb128 0xf
 660 03a4 3C000000 		.4byte	.LASF59
 661 03a8 06       		.byte	0x6
 662 03a9 9D       		.byte	0x9d
 663 03aa 0C010000 		.4byte	0x10c
 664 03ae 0F       		.uleb128 0xf
 665 03af A3000000 		.4byte	.LASF60
 666 03b3 06       		.byte	0x6
 667 03b4 A4       		.byte	0xa4
 668 03b5 0C010000 		.4byte	0x10c
 669 03b9 0F       		.uleb128 0xf
 670 03ba 25060000 		.4byte	.LASF61
 671 03be 06       		.byte	0x6
 672 03bf AB       		.byte	0xab
 673 03c0 9E020000 		.4byte	0x29e
 674 03c4 0F       		.uleb128 0xf
 675 03c5 EE040000 		.4byte	.LASF62
 676 03c9 06       		.byte	0x6
 677 03ca B2       		.byte	0xb2
 678 03cb 17010000 		.4byte	0x117
 679 03cf 00       		.byte	0
 680 03d0 09       		.uleb128 0x9
ARM GAS  /tmp/ccQaxyHL.s 			page 13


 681 03d1 04       		.byte	0x4
 682 03d2 D6030000 		.4byte	0x3d6
 683 03d6 10       		.uleb128 0x10
 684 03d7 DB030000 		.4byte	0x3db
 685 03db 03       		.uleb128 0x3
 686 03dc 01       		.byte	0x1
 687 03dd 08       		.byte	0x8
 688 03de 60050000 		.4byte	.LASF63
 689 03e2 09       		.uleb128 0x9
 690 03e3 04       		.byte	0x4
 691 03e4 A0020000 		.4byte	0x2a0
 692 03e8 09       		.uleb128 0x9
 693 03e9 04       		.byte	0x4
 694 03ea 90030000 		.4byte	0x390
 695 03ee 09       		.uleb128 0x9
 696 03ef 04       		.byte	0x4
 697 03f0 97000000 		.4byte	0x97
 698 03f4 09       		.uleb128 0x9
 699 03f5 04       		.byte	0x4
 700 03f6 FA030000 		.4byte	0x3fa
 701 03fa 10       		.uleb128 0x10
 702 03fb 97000000 		.4byte	0x97
 703 03ff 10       		.uleb128 0x10
 704 0400 48030000 		.4byte	0x348
 705 0404 11       		.uleb128 0x11
 706 0405 AD000000 		.4byte	0xad
 707 0409 14040000 		.4byte	0x414
 708 040d 12       		.uleb128 0x12
 709 040e 4D030000 		.4byte	0x34d
 710 0412 01       		.byte	0x1
 711 0413 00       		.byte	0
 712 0414 11       		.uleb128 0x11
 713 0415 AD000000 		.4byte	0xad
 714 0419 24040000 		.4byte	0x424
 715 041d 12       		.uleb128 0x12
 716 041e 4D030000 		.4byte	0x34d
 717 0422 03       		.byte	0x3
 718 0423 00       		.byte	0
 719 0424 0D       		.uleb128 0xd
 720 0425 A2000000 		.4byte	0xa2
 721 0429 13       		.uleb128 0x13
 722 042a 18       		.byte	0x18
 723 042b 09       		.byte	0x9
 724 042c B102     		.2byte	0x2b1
 725 042e 80040000 		.4byte	0x480
 726 0432 0C       		.uleb128 0xc
 727 0433 435200   		.ascii	"CR\000"
 728 0436 09       		.byte	0x9
 729 0437 B302     		.2byte	0x2b3
 730 0439 48030000 		.4byte	0x348
 731 043d 00       		.byte	0
 732 043e 14       		.uleb128 0x14
 733 043f D4000000 		.4byte	.LASF64
 734 0443 09       		.byte	0x9
 735 0444 B402     		.2byte	0x2b4
 736 0446 48030000 		.4byte	0x348
 737 044a 04       		.byte	0x4
ARM GAS  /tmp/ccQaxyHL.s 			page 14


 738 044b 0C       		.uleb128 0xc
 739 044c 50415200 		.ascii	"PAR\000"
 740 0450 09       		.byte	0x9
 741 0451 B502     		.2byte	0x2b5
 742 0453 48030000 		.4byte	0x348
 743 0457 08       		.byte	0x8
 744 0458 14       		.uleb128 0x14
 745 0459 28000000 		.4byte	.LASF65
 746 045d 09       		.byte	0x9
 747 045e B602     		.2byte	0x2b6
 748 0460 48030000 		.4byte	0x348
 749 0464 0C       		.byte	0xc
 750 0465 14       		.uleb128 0x14
 751 0466 E9050000 		.4byte	.LASF66
 752 046a 09       		.byte	0x9
 753 046b B702     		.2byte	0x2b7
 754 046d 48030000 		.4byte	0x348
 755 0471 10       		.byte	0x10
 756 0472 0C       		.uleb128 0xc
 757 0473 46435200 		.ascii	"FCR\000"
 758 0477 09       		.byte	0x9
 759 0478 B802     		.2byte	0x2b8
 760 047a 48030000 		.4byte	0x348
 761 047e 14       		.byte	0x14
 762 047f 00       		.byte	0
 763 0480 15       		.uleb128 0x15
 764 0481 B0050000 		.4byte	.LASF67
 765 0485 09       		.byte	0x9
 766 0486 B902     		.2byte	0x2b9
 767 0488 29040000 		.4byte	0x429
 768 048c 13       		.uleb128 0x13
 769 048d 84       		.byte	0x84
 770 048e 09       		.byte	0x9
 771 048f C704     		.2byte	0x4c7
 772 0491 9A050000 		.4byte	0x59a
 773 0495 14       		.uleb128 0x14
 774 0496 9C030000 		.4byte	.LASF68
 775 049a 09       		.byte	0x9
 776 049b C904     		.2byte	0x4c9
 777 049d 48030000 		.4byte	0x348
 778 04a1 00       		.byte	0
 779 04a2 14       		.uleb128 0x14
 780 04a3 30040000 		.4byte	.LASF69
 781 04a7 09       		.byte	0x9
 782 04a8 CA04     		.2byte	0x4ca
 783 04aa 48030000 		.4byte	0x348
 784 04ae 04       		.byte	0x4
 785 04af 0C       		.uleb128 0xc
 786 04b0 41524700 		.ascii	"ARG\000"
 787 04b4 09       		.byte	0x9
 788 04b5 CB04     		.2byte	0x4cb
 789 04b7 48030000 		.4byte	0x348
 790 04bb 08       		.byte	0x8
 791 04bc 0C       		.uleb128 0xc
 792 04bd 434D4400 		.ascii	"CMD\000"
 793 04c1 09       		.byte	0x9
 794 04c2 CC04     		.2byte	0x4cc
ARM GAS  /tmp/ccQaxyHL.s 			page 15


 795 04c4 48030000 		.4byte	0x348
 796 04c8 0C       		.byte	0xc
 797 04c9 14       		.uleb128 0x14
 798 04ca 3C030000 		.4byte	.LASF70
 799 04ce 09       		.byte	0x9
 800 04cf CD04     		.2byte	0x4cd
 801 04d1 FF030000 		.4byte	0x3ff
 802 04d5 10       		.byte	0x10
 803 04d6 14       		.uleb128 0x14
 804 04d7 10000000 		.4byte	.LASF71
 805 04db 09       		.byte	0x9
 806 04dc CE04     		.2byte	0x4ce
 807 04de FF030000 		.4byte	0x3ff
 808 04e2 14       		.byte	0x14
 809 04e3 14       		.uleb128 0x14
 810 04e4 16000000 		.4byte	.LASF72
 811 04e8 09       		.byte	0x9
 812 04e9 CF04     		.2byte	0x4cf
 813 04eb FF030000 		.4byte	0x3ff
 814 04ef 18       		.byte	0x18
 815 04f0 14       		.uleb128 0x14
 816 04f1 1C000000 		.4byte	.LASF73
 817 04f5 09       		.byte	0x9
 818 04f6 D004     		.2byte	0x4d0
 819 04f8 FF030000 		.4byte	0x3ff
 820 04fc 1C       		.byte	0x1c
 821 04fd 14       		.uleb128 0x14
 822 04fe 22000000 		.4byte	.LASF74
 823 0502 09       		.byte	0x9
 824 0503 D104     		.2byte	0x4d1
 825 0505 FF030000 		.4byte	0x3ff
 826 0509 20       		.byte	0x20
 827 050a 14       		.uleb128 0x14
 828 050b A9050000 		.4byte	.LASF75
 829 050f 09       		.byte	0x9
 830 0510 D204     		.2byte	0x4d2
 831 0512 48030000 		.4byte	0x348
 832 0516 24       		.byte	0x24
 833 0517 14       		.uleb128 0x14
 834 0518 6E030000 		.4byte	.LASF76
 835 051c 09       		.byte	0x9
 836 051d D304     		.2byte	0x4d3
 837 051f 48030000 		.4byte	0x348
 838 0523 28       		.byte	0x28
 839 0524 14       		.uleb128 0x14
 840 0525 CD030000 		.4byte	.LASF77
 841 0529 09       		.byte	0x9
 842 052a D404     		.2byte	0x4d4
 843 052c 48030000 		.4byte	0x348
 844 0530 2C       		.byte	0x2c
 845 0531 14       		.uleb128 0x14
 846 0532 42010000 		.4byte	.LASF78
 847 0536 09       		.byte	0x9
 848 0537 D504     		.2byte	0x4d5
 849 0539 FF030000 		.4byte	0x3ff
 850 053d 30       		.byte	0x30
 851 053e 0C       		.uleb128 0xc
ARM GAS  /tmp/ccQaxyHL.s 			page 16


 852 053f 53544100 		.ascii	"STA\000"
 853 0543 09       		.byte	0x9
 854 0544 D604     		.2byte	0x4d6
 855 0546 FF030000 		.4byte	0x3ff
 856 054a 34       		.byte	0x34
 857 054b 0C       		.uleb128 0xc
 858 054c 49435200 		.ascii	"ICR\000"
 859 0550 09       		.byte	0x9
 860 0551 D704     		.2byte	0x4d7
 861 0553 48030000 		.4byte	0x348
 862 0557 38       		.byte	0x38
 863 0558 14       		.uleb128 0x14
 864 0559 52010000 		.4byte	.LASF79
 865 055d 09       		.byte	0x9
 866 055e D804     		.2byte	0x4d8
 867 0560 48030000 		.4byte	0x348
 868 0564 3C       		.byte	0x3c
 869 0565 14       		.uleb128 0x14
 870 0566 3E040000 		.4byte	.LASF80
 871 056a 09       		.byte	0x9
 872 056b D904     		.2byte	0x4d9
 873 056d 04040000 		.4byte	0x404
 874 0571 40       		.byte	0x40
 875 0572 14       		.uleb128 0x14
 876 0573 8E030000 		.4byte	.LASF81
 877 0577 09       		.byte	0x9
 878 0578 DA04     		.2byte	0x4da
 879 057a FF030000 		.4byte	0x3ff
 880 057e 48       		.byte	0x48
 881 057f 14       		.uleb128 0x14
 882 0580 48040000 		.4byte	.LASF82
 883 0584 09       		.byte	0x9
 884 0585 DB04     		.2byte	0x4db
 885 0587 9A050000 		.4byte	0x59a
 886 058b 4C       		.byte	0x4c
 887 058c 14       		.uleb128 0x14
 888 058d 2C060000 		.4byte	.LASF83
 889 0591 09       		.byte	0x9
 890 0592 DC04     		.2byte	0x4dc
 891 0594 48030000 		.4byte	0x348
 892 0598 80       		.byte	0x80
 893 0599 00       		.byte	0
 894 059a 11       		.uleb128 0x11
 895 059b AD000000 		.4byte	0xad
 896 059f AA050000 		.4byte	0x5aa
 897 05a3 12       		.uleb128 0x12
 898 05a4 4D030000 		.4byte	0x34d
 899 05a8 0C       		.byte	0xc
 900 05a9 00       		.byte	0
 901 05aa 15       		.uleb128 0x15
 902 05ab 09050000 		.4byte	.LASF84
 903 05af 09       		.byte	0x9
 904 05b0 DD04     		.2byte	0x4dd
 905 05b2 8C040000 		.4byte	0x48c
 906 05b6 08       		.uleb128 0x8
 907 05b7 0C       		.byte	0xc
 908 05b8 0A       		.byte	0xa
ARM GAS  /tmp/ccQaxyHL.s 			page 17


 909 05b9 DA       		.byte	0xda
 910 05ba FB050000 		.4byte	0x5fb
 911 05be 06       		.uleb128 0x6
 912 05bf 78000000 		.4byte	.LASF85
 913 05c3 0A       		.byte	0xa
 914 05c4 DB       		.byte	0xdb
 915 05c5 FB050000 		.4byte	0x5fb
 916 05c9 00       		.byte	0
 917 05ca 06       		.uleb128 0x6
 918 05cb 3B050000 		.4byte	.LASF86
 919 05cf 0A       		.byte	0xa
 920 05d0 DC       		.byte	0xdc
 921 05d1 01060000 		.4byte	0x601
 922 05d5 04       		.byte	0x4
 923 05d6 06       		.uleb128 0x6
 924 05d7 B8020000 		.4byte	.LASF87
 925 05db 0A       		.byte	0xa
 926 05dc DD       		.byte	0xdd
 927 05dd 97000000 		.4byte	0x97
 928 05e1 08       		.byte	0x8
 929 05e2 06       		.uleb128 0x6
 930 05e3 22020000 		.4byte	.LASF88
 931 05e7 0A       		.byte	0xa
 932 05e8 DF       		.byte	0xdf
 933 05e9 97000000 		.4byte	0x97
 934 05ed 09       		.byte	0x9
 935 05ee 06       		.uleb128 0x6
 936 05ef AC000000 		.4byte	.LASF89
 937 05f3 0A       		.byte	0xa
 938 05f4 E0       		.byte	0xe0
 939 05f5 97000000 		.4byte	0x97
 940 05f9 0A       		.byte	0xa
 941 05fa 00       		.byte	0
 942 05fb 09       		.uleb128 0x9
 943 05fc 04       		.byte	0x4
 944 05fd 80040000 		.4byte	0x480
 945 0601 09       		.uleb128 0x9
 946 0602 04       		.byte	0x4
 947 0603 48030000 		.4byte	0x348
 948 0607 04       		.uleb128 0x4
 949 0608 72040000 		.4byte	.LASF90
 950 060c 0A       		.byte	0xa
 951 060d E1       		.byte	0xe1
 952 060e B6050000 		.4byte	0x5b6
 953 0612 16       		.uleb128 0x16
 954 0613 01       		.byte	0x1
 955 0614 0B       		.byte	0xb
 956 0615 33       		.byte	0x33
 957 0616 51060000 		.4byte	0x651
 958 061a 17       		.uleb128 0x17
 959 061b 16050000 		.4byte	.LASF91
 960 061f 00       		.sleb128 0
 961 0620 17       		.uleb128 0x17
 962 0621 57010000 		.4byte	.LASF92
 963 0625 01       		.sleb128 1
 964 0626 17       		.uleb128 0x17
 965 0627 E6020000 		.4byte	.LASF93
ARM GAS  /tmp/ccQaxyHL.s 			page 18


 966 062b 02       		.sleb128 2
 967 062c 17       		.uleb128 0x17
 968 062d 12030000 		.4byte	.LASF94
 969 0631 03       		.sleb128 3
 970 0632 17       		.uleb128 0x17
 971 0633 65050000 		.4byte	.LASF95
 972 0637 04       		.sleb128 4
 973 0638 17       		.uleb128 0x17
 974 0639 B6030000 		.4byte	.LASF96
 975 063d 05       		.sleb128 5
 976 063e 17       		.uleb128 0x17
 977 063f 79030000 		.4byte	.LASF97
 978 0643 06       		.sleb128 6
 979 0644 17       		.uleb128 0x17
 980 0645 D1040000 		.4byte	.LASF98
 981 0649 07       		.sleb128 7
 982 064a 17       		.uleb128 0x17
 983 064b AA030000 		.4byte	.LASF99
 984 064f 08       		.sleb128 8
 985 0650 00       		.byte	0
 986 0651 04       		.uleb128 0x4
 987 0652 C9000000 		.4byte	.LASF100
 988 0656 0B       		.byte	0xb
 989 0657 3D       		.byte	0x3d
 990 0658 12060000 		.4byte	0x612
 991 065c 08       		.uleb128 0x8
 992 065d 08       		.byte	0x8
 993 065e 0B       		.byte	0xb
 994 065f 42       		.byte	0x42
 995 0660 7D060000 		.4byte	0x67d
 996 0664 06       		.uleb128 0x6
 997 0665 64020000 		.4byte	.LASF101
 998 0669 0B       		.byte	0xb
 999 066a 43       		.byte	0x43
 1000 066b AD000000 		.4byte	0xad
 1001 066f 00       		.byte	0
 1002 0670 06       		.uleb128 0x6
 1003 0671 34000000 		.4byte	.LASF102
 1004 0675 0B       		.byte	0xb
 1005 0676 44       		.byte	0x44
 1006 0677 AD000000 		.4byte	0xad
 1007 067b 04       		.byte	0x4
 1008 067c 00       		.byte	0
 1009 067d 04       		.uleb128 0x4
 1010 067e 00000000 		.4byte	.LASF103
 1011 0682 0B       		.byte	0xb
 1012 0683 45       		.byte	0x45
 1013 0684 5C060000 		.4byte	0x65c
 1014 0688 18       		.uleb128 0x18
 1015 0689 C3000000 		.4byte	0xc3
 1016 068d 97060000 		.4byte	0x697
 1017 0691 19       		.uleb128 0x19
 1018 0692 9E020000 		.4byte	0x29e
 1019 0696 00       		.byte	0
 1020 0697 09       		.uleb128 0x9
 1021 0698 04       		.byte	0x4
 1022 0699 88060000 		.4byte	0x688
ARM GAS  /tmp/ccQaxyHL.s 			page 19


 1023 069d 18       		.uleb128 0x18
 1024 069e C3000000 		.4byte	0xc3
 1025 06a2 BB060000 		.4byte	0x6bb
 1026 06a6 19       		.uleb128 0x19
 1027 06a7 9E020000 		.4byte	0x29e
 1028 06ab 19       		.uleb128 0x19
 1029 06ac AD000000 		.4byte	0xad
 1030 06b0 19       		.uleb128 0x19
 1031 06b1 EE030000 		.4byte	0x3ee
 1032 06b5 19       		.uleb128 0x19
 1033 06b6 AD000000 		.4byte	0xad
 1034 06ba 00       		.byte	0
 1035 06bb 09       		.uleb128 0x9
 1036 06bc 04       		.byte	0x4
 1037 06bd 9D060000 		.4byte	0x69d
 1038 06c1 18       		.uleb128 0x18
 1039 06c2 C3000000 		.4byte	0xc3
 1040 06c6 DF060000 		.4byte	0x6df
 1041 06ca 19       		.uleb128 0x19
 1042 06cb 9E020000 		.4byte	0x29e
 1043 06cf 19       		.uleb128 0x19
 1044 06d0 AD000000 		.4byte	0xad
 1045 06d4 19       		.uleb128 0x19
 1046 06d5 F4030000 		.4byte	0x3f4
 1047 06d9 19       		.uleb128 0x19
 1048 06da AD000000 		.4byte	0xad
 1049 06de 00       		.byte	0
 1050 06df 09       		.uleb128 0x9
 1051 06e0 04       		.byte	0x4
 1052 06e1 C1060000 		.4byte	0x6c1
 1053 06e5 18       		.uleb128 0x18
 1054 06e6 C3000000 		.4byte	0xc3
 1055 06ea F9060000 		.4byte	0x6f9
 1056 06ee 19       		.uleb128 0x19
 1057 06ef 9E020000 		.4byte	0x29e
 1058 06f3 19       		.uleb128 0x19
 1059 06f4 F9060000 		.4byte	0x6f9
 1060 06f8 00       		.byte	0
 1061 06f9 09       		.uleb128 0x9
 1062 06fa 04       		.byte	0x4
 1063 06fb 7D060000 		.4byte	0x67d
 1064 06ff 09       		.uleb128 0x9
 1065 0700 04       		.byte	0x4
 1066 0701 E5060000 		.4byte	0x6e5
 1067 0705 08       		.uleb128 0x8
 1068 0706 1C       		.byte	0x1c
 1069 0707 0C       		.byte	0xc
 1070 0708 A3       		.byte	0xa3
 1071 0709 62070000 		.4byte	0x762
 1072 070d 06       		.uleb128 0x6
 1073 070e 1C010000 		.4byte	.LASF104
 1074 0712 0C       		.byte	0xc
 1075 0713 A5       		.byte	0xa5
 1076 0714 AD000000 		.4byte	0xad
 1077 0718 00       		.byte	0
 1078 0719 06       		.uleb128 0x6
 1079 071a 63000000 		.4byte	.LASF105
ARM GAS  /tmp/ccQaxyHL.s 			page 20


 1080 071e 0C       		.byte	0xc
 1081 071f A7       		.byte	0xa7
 1082 0720 AD000000 		.4byte	0xad
 1083 0724 04       		.byte	0x4
 1084 0725 06       		.uleb128 0x6
 1085 0726 B0020000 		.4byte	.LASF106
 1086 072a 0C       		.byte	0xc
 1087 072b A9       		.byte	0xa9
 1088 072c AD000000 		.4byte	0xad
 1089 0730 08       		.byte	0x8
 1090 0731 06       		.uleb128 0x6
 1091 0732 9D000000 		.4byte	.LASF107
 1092 0736 0C       		.byte	0xc
 1093 0737 AB       		.byte	0xab
 1094 0738 AD000000 		.4byte	0xad
 1095 073c 0C       		.byte	0xc
 1096 073d 07       		.uleb128 0x7
 1097 073e 6F647200 		.ascii	"odr\000"
 1098 0742 0C       		.byte	0xc
 1099 0743 AD       		.byte	0xad
 1100 0744 AD000000 		.4byte	0xad
 1101 0748 10       		.byte	0x10
 1102 0749 06       		.uleb128 0x6
 1103 074a B0040000 		.4byte	.LASF108
 1104 074e 0C       		.byte	0xc
 1105 074f AF       		.byte	0xaf
 1106 0750 AD000000 		.4byte	0xad
 1107 0754 14       		.byte	0x14
 1108 0755 06       		.uleb128 0x6
 1109 0756 D3030000 		.4byte	.LASF109
 1110 075a 0C       		.byte	0xc
 1111 075b B1       		.byte	0xb1
 1112 075c AD000000 		.4byte	0xad
 1113 0760 18       		.byte	0x18
 1114 0761 00       		.byte	0
 1115 0762 04       		.uleb128 0x4
 1116 0763 21030000 		.4byte	.LASF110
 1117 0767 0C       		.byte	0xc
 1118 0768 B2       		.byte	0xb2
 1119 0769 05070000 		.4byte	0x705
 1120 076d 08       		.uleb128 0x8
 1121 076e FC       		.byte	0xfc
 1122 076f 0C       		.byte	0xc
 1123 0770 BB       		.byte	0xbb
 1124 0771 E2070000 		.4byte	0x7e2
 1125 0775 06       		.uleb128 0x6
 1126 0776 E7040000 		.4byte	.LASF111
 1127 077a 0C       		.byte	0xc
 1128 077b BE       		.byte	0xbe
 1129 077c 62070000 		.4byte	0x762
 1130 0780 00       		.byte	0
 1131 0781 06       		.uleb128 0x6
 1132 0782 77020000 		.4byte	.LASF112
 1133 0786 0C       		.byte	0xc
 1134 0787 C2       		.byte	0xc2
 1135 0788 62070000 		.4byte	0x762
 1136 078c 1C       		.byte	0x1c
ARM GAS  /tmp/ccQaxyHL.s 			page 21


 1137 078d 06       		.uleb128 0x6
 1138 078e 31060000 		.4byte	.LASF113
 1139 0792 0C       		.byte	0xc
 1140 0793 C6       		.byte	0xc6
 1141 0794 62070000 		.4byte	0x762
 1142 0798 38       		.byte	0x38
 1143 0799 06       		.uleb128 0x6
 1144 079a D8030000 		.4byte	.LASF114
 1145 079e 0C       		.byte	0xc
 1146 079f CA       		.byte	0xca
 1147 07a0 62070000 		.4byte	0x762
 1148 07a4 54       		.byte	0x54
 1149 07a5 06       		.uleb128 0x6
 1150 07a6 3B010000 		.4byte	.LASF115
 1151 07aa 0C       		.byte	0xc
 1152 07ab CE       		.byte	0xce
 1153 07ac 62070000 		.4byte	0x762
 1154 07b0 70       		.byte	0x70
 1155 07b1 06       		.uleb128 0x6
 1156 07b2 DF020000 		.4byte	.LASF116
 1157 07b6 0C       		.byte	0xc
 1158 07b7 D2       		.byte	0xd2
 1159 07b8 62070000 		.4byte	0x762
 1160 07bc 8C       		.byte	0x8c
 1161 07bd 06       		.uleb128 0x6
 1162 07be 5C030000 		.4byte	.LASF117
 1163 07c2 0C       		.byte	0xc
 1164 07c3 D6       		.byte	0xd6
 1165 07c4 62070000 		.4byte	0x762
 1166 07c8 A8       		.byte	0xa8
 1167 07c9 06       		.uleb128 0x6
 1168 07ca 7F000000 		.4byte	.LASF118
 1169 07ce 0C       		.byte	0xc
 1170 07cf DA       		.byte	0xda
 1171 07d0 62070000 		.4byte	0x762
 1172 07d4 C4       		.byte	0xc4
 1173 07d5 06       		.uleb128 0x6
 1174 07d6 21050000 		.4byte	.LASF119
 1175 07da 0C       		.byte	0xc
 1176 07db DE       		.byte	0xde
 1177 07dc 62070000 		.4byte	0x762
 1178 07e0 E0       		.byte	0xe0
 1179 07e1 00       		.byte	0
 1180 07e2 04       		.uleb128 0x4
 1181 07e3 3E060000 		.4byte	.LASF120
 1182 07e7 0C       		.byte	0xc
 1183 07e8 E0       		.byte	0xe0
 1184 07e9 6D070000 		.4byte	0x76d
 1185 07ed 04       		.uleb128 0x4
 1186 07ee 6D020000 		.4byte	.LASF121
 1187 07f2 0D       		.byte	0xd
 1188 07f3 BF       		.byte	0xbf
 1189 07f4 AD000000 		.4byte	0xad
 1190 07f8 04       		.uleb128 0x4
 1191 07f9 CB050000 		.4byte	.LASF122
 1192 07fd 0D       		.byte	0xd
 1193 07fe C4       		.byte	0xc4
ARM GAS  /tmp/ccQaxyHL.s 			page 22


 1194 07ff AD000000 		.4byte	0xad
 1195 0803 04       		.uleb128 0x4
 1196 0804 50060000 		.4byte	.LASF123
 1197 0808 0D       		.byte	0xd
 1198 0809 C9       		.byte	0xc9
 1199 080a 0E080000 		.4byte	0x80e
 1200 080e 05       		.uleb128 0x5
 1201 080f 50060000 		.4byte	.LASF123
 1202 0813 4C       		.byte	0x4c
 1203 0814 0D       		.byte	0xd
 1204 0815 E5       		.byte	0xe5
 1205 0816 BA080000 		.4byte	0x8ba
 1206 081a 07       		.uleb128 0x7
 1207 081b 766D7400 		.ascii	"vmt\000"
 1208 081f 0D       		.byte	0xd
 1209 0820 E9       		.byte	0xe9
 1210 0821 47090000 		.4byte	0x947
 1211 0825 00       		.byte	0
 1212 0826 06       		.uleb128 0x6
 1213 0827 2C010000 		.4byte	.LASF124
 1214 082b 0D       		.byte	0xd
 1215 082c EA       		.byte	0xea
 1216 082d 51060000 		.4byte	0x651
 1217 0831 04       		.byte	0x4
 1218 0832 07       		.uleb128 0x7
 1219 0833 63696400 		.ascii	"cid\000"
 1220 0837 0D       		.byte	0xd
 1221 0838 EA       		.byte	0xea
 1222 0839 14040000 		.4byte	0x414
 1223 083d 08       		.byte	0x8
 1224 083e 07       		.uleb128 0x7
 1225 083f 63736400 		.ascii	"csd\000"
 1226 0843 0D       		.byte	0xd
 1227 0844 EA       		.byte	0xea
 1228 0845 14040000 		.4byte	0x414
 1229 0849 18       		.byte	0x18
 1230 084a 06       		.uleb128 0x6
 1231 084b 6A000000 		.4byte	.LASF125
 1232 084f 0D       		.byte	0xd
 1233 0850 EA       		.byte	0xea
 1234 0851 AD000000 		.4byte	0xad
 1235 0855 28       		.byte	0x28
 1236 0856 06       		.uleb128 0x6
 1237 0857 77050000 		.4byte	.LASF126
 1238 085b 0D       		.byte	0xd
 1239 085c EE       		.byte	0xee
 1240 085d 52090000 		.4byte	0x952
 1241 0861 2C       		.byte	0x2c
 1242 0862 06       		.uleb128 0x6
 1243 0863 B3000000 		.4byte	.LASF127
 1244 0867 0D       		.byte	0xd
 1245 0868 F2       		.byte	0xf2
 1246 0869 ED070000 		.4byte	0x7ed
 1247 086d 30       		.byte	0x30
 1248 086e 06       		.uleb128 0x6
 1249 086f 9E020000 		.4byte	.LASF128
 1250 0873 0D       		.byte	0xd
ARM GAS  /tmp/ccQaxyHL.s 			page 23


 1251 0874 F6       		.byte	0xf6
 1252 0875 F8070000 		.4byte	0x7f8
 1253 0879 34       		.byte	0x34
 1254 087a 07       		.uleb128 0x7
 1255 087b 72636100 		.ascii	"rca\000"
 1256 087f 0D       		.byte	0xd
 1257 0880 FA       		.byte	0xfa
 1258 0881 AD000000 		.4byte	0xad
 1259 0885 38       		.byte	0x38
 1260 0886 06       		.uleb128 0x6
 1261 0887 8D040000 		.4byte	.LASF129
 1262 088b 0D       		.byte	0xd
 1263 088c FF       		.byte	0xff
 1264 088d 62020000 		.4byte	0x262
 1265 0891 3C       		.byte	0x3c
 1266 0892 14       		.uleb128 0x14
 1267 0893 1D060000 		.4byte	.LASF130
 1268 0897 0D       		.byte	0xd
 1269 0898 0301     		.2byte	0x103
 1270 089a AD000000 		.4byte	0xad
 1271 089e 40       		.byte	0x40
 1272 089f 0C       		.uleb128 0xc
 1273 08a0 646D6100 		.ascii	"dma\000"
 1274 08a4 0D       		.byte	0xd
 1275 08a5 0701     		.2byte	0x107
 1276 08a7 5D090000 		.4byte	0x95d
 1277 08ab 44       		.byte	0x44
 1278 08ac 14       		.uleb128 0x14
 1279 08ad 73000000 		.4byte	.LASF131
 1280 08b1 0D       		.byte	0xd
 1281 08b2 0D01     		.2byte	0x10d
 1282 08b4 68090000 		.4byte	0x968
 1283 08b8 48       		.byte	0x48
 1284 08b9 00       		.byte	0
 1285 08ba 08       		.uleb128 0x8
 1286 08bb 04       		.byte	0x4
 1287 08bc 0D       		.byte	0xd
 1288 08bd CF       		.byte	0xcf
 1289 08be CF080000 		.4byte	0x8cf
 1290 08c2 06       		.uleb128 0x6
 1291 08c3 57020000 		.4byte	.LASF132
 1292 08c7 0D       		.byte	0xd
 1293 08c8 D0       		.byte	0xd0
 1294 08c9 AD000000 		.4byte	0xad
 1295 08cd 00       		.byte	0
 1296 08ce 00       		.byte	0
 1297 08cf 04       		.uleb128 0x4
 1298 08d0 FC050000 		.4byte	.LASF133
 1299 08d4 0D       		.byte	0xd
 1300 08d5 D1       		.byte	0xd1
 1301 08d6 BA080000 		.4byte	0x8ba
 1302 08da 05       		.uleb128 0x5
 1303 08db FC040000 		.4byte	.LASF134
 1304 08df 20       		.byte	0x20
 1305 08e0 0D       		.byte	0xd
 1306 08e1 DE       		.byte	0xde
 1307 08e2 47090000 		.4byte	0x947
ARM GAS  /tmp/ccQaxyHL.s 			page 24


 1308 08e6 06       		.uleb128 0x6
 1309 08e7 DD050000 		.4byte	.LASF135
 1310 08eb 0D       		.byte	0xd
 1311 08ec DF       		.byte	0xdf
 1312 08ed 97060000 		.4byte	0x697
 1313 08f1 00       		.byte	0
 1314 08f2 06       		.uleb128 0x6
 1315 08f3 4C000000 		.4byte	.LASF136
 1316 08f7 0D       		.byte	0xd
 1317 08f8 DF       		.byte	0xdf
 1318 08f9 97060000 		.4byte	0x697
 1319 08fd 04       		.byte	0x4
 1320 08fe 06       		.uleb128 0x6
 1321 08ff 28050000 		.4byte	.LASF137
 1322 0903 0D       		.byte	0xd
 1323 0904 DF       		.byte	0xdf
 1324 0905 97060000 		.4byte	0x697
 1325 0909 08       		.byte	0x8
 1326 090a 06       		.uleb128 0x6
 1327 090b 11010000 		.4byte	.LASF138
 1328 090f 0D       		.byte	0xd
 1329 0910 DF       		.byte	0xdf
 1330 0911 97060000 		.4byte	0x697
 1331 0915 0C       		.byte	0xc
 1332 0916 06       		.uleb128 0x6
 1333 0917 5B050000 		.4byte	.LASF139
 1334 091b 0D       		.byte	0xd
 1335 091c DF       		.byte	0xdf
 1336 091d BB060000 		.4byte	0x6bb
 1337 0921 10       		.byte	0x10
 1338 0922 06       		.uleb128 0x6
 1339 0923 73030000 		.4byte	.LASF140
 1340 0927 0D       		.byte	0xd
 1341 0928 DF       		.byte	0xdf
 1342 0929 DF060000 		.4byte	0x6df
 1343 092d 14       		.byte	0x14
 1344 092e 06       		.uleb128 0x6
 1345 092f 18060000 		.4byte	.LASF141
 1346 0933 0D       		.byte	0xd
 1347 0934 DF       		.byte	0xdf
 1348 0935 97060000 		.4byte	0x697
 1349 0939 18       		.byte	0x18
 1350 093a 06       		.uleb128 0x6
 1351 093b 68010000 		.4byte	.LASF142
 1352 093f 0D       		.byte	0xd
 1353 0940 DF       		.byte	0xdf
 1354 0941 FF060000 		.4byte	0x6ff
 1355 0945 1C       		.byte	0x1c
 1356 0946 00       		.byte	0
 1357 0947 09       		.uleb128 0x9
 1358 0948 04       		.byte	0x4
 1359 0949 4D090000 		.4byte	0x94d
 1360 094d 10       		.uleb128 0x10
 1361 094e DA080000 		.4byte	0x8da
 1362 0952 09       		.uleb128 0x9
 1363 0953 04       		.byte	0x4
 1364 0954 58090000 		.4byte	0x958
ARM GAS  /tmp/ccQaxyHL.s 			page 25


 1365 0958 10       		.uleb128 0x10
 1366 0959 CF080000 		.4byte	0x8cf
 1367 095d 09       		.uleb128 0x9
 1368 095e 04       		.byte	0x4
 1369 095f 63090000 		.4byte	0x963
 1370 0963 10       		.uleb128 0x10
 1371 0964 07060000 		.4byte	0x607
 1372 0968 09       		.uleb128 0x9
 1373 0969 04       		.byte	0x4
 1374 096a AA050000 		.4byte	0x5aa
 1375 096e 1A       		.uleb128 0x1a
 1376 096f BF020000 		.4byte	.LASF146
 1377 0973 01       		.byte	0x1
 1378 0974 36       		.byte	0x36
 1379 0975 00000000 		.4byte	.LFB118
 1380 0979 08000000 		.4byte	.LFE118-.LFB118
 1381 097d 01       		.uleb128 0x1
 1382 097e 9C       		.byte	0x9c
 1383 097f 1B       		.uleb128 0x1b
 1384 0980 52040000 		.4byte	.LASF143
 1385 0984 01       		.byte	0x1
 1386 0985 3F       		.byte	0x3f
 1387 0986 C3000000 		.4byte	0xc3
 1388 098a 00000000 		.4byte	.LFB119
 1389 098e 0C000000 		.4byte	.LFE119-.LFB119
 1390 0992 01       		.uleb128 0x1
 1391 0993 9C       		.byte	0x9c
 1392 0994 A7090000 		.4byte	0x9a7
 1393 0998 1C       		.uleb128 0x1c
 1394 0999 7E050000 		.4byte	.LASF145
 1395 099d 01       		.byte	0x1
 1396 099e 3F       		.byte	0x3f
 1397 099f A7090000 		.4byte	0x9a7
 1398 09a3 02       		.uleb128 0x2
 1399 09a4 91       		.byte	0x91
 1400 09a5 7C       		.sleb128 -4
 1401 09a6 00       		.byte	0
 1402 09a7 09       		.uleb128 0x9
 1403 09a8 04       		.byte	0x4
 1404 09a9 03080000 		.4byte	0x803
 1405 09ad 1B       		.uleb128 0x1b
 1406 09ae F1020000 		.4byte	.LASF144
 1407 09b2 01       		.byte	0x1
 1408 09b3 49       		.byte	0x49
 1409 09b4 C3000000 		.4byte	0xc3
 1410 09b8 00000000 		.4byte	.LFB120
 1411 09bc 0C000000 		.4byte	.LFE120-.LFB120
 1412 09c0 01       		.uleb128 0x1
 1413 09c1 9C       		.byte	0x9c
 1414 09c2 D5090000 		.4byte	0x9d5
 1415 09c6 1C       		.uleb128 0x1c
 1416 09c7 7E050000 		.4byte	.LASF145
 1417 09cb 01       		.byte	0x1
 1418 09cc 49       		.byte	0x49
 1419 09cd A7090000 		.4byte	0x9a7
 1420 09d1 02       		.uleb128 0x2
 1421 09d2 91       		.byte	0x91
ARM GAS  /tmp/ccQaxyHL.s 			page 26


 1422 09d3 7C       		.sleb128 -4
 1423 09d4 00       		.byte	0
 1424 09d5 1D       		.uleb128 0x1d
 1425 09d6 06060000 		.4byte	.LASF147
 1426 09da 01       		.byte	0x1
 1427 09db 6B       		.byte	0x6b
 1428 09dc 00000000 		.4byte	.LFB121
 1429 09e0 02000000 		.4byte	.LFE121-.LFB121
 1430 09e4 01       		.uleb128 0x1
 1431 09e5 9C       		.byte	0x9c
 1432 09e6 1E       		.uleb128 0x1e
 1433 09e7 BC000000 		.4byte	.LASF148
 1434 09eb 0E       		.byte	0xe
 1435 09ec 9806     		.2byte	0x698
 1436 09ee 24040000 		.4byte	0x424
 1437 09f2 1F       		.uleb128 0x1f
 1438 09f3 5A060000 		.4byte	.LASF149
 1439 09f7 01       		.byte	0x1
 1440 09f8 1A       		.byte	0x1a
 1441 09f9 030A0000 		.4byte	0xa03
 1442 09fd 05       		.uleb128 0x5
 1443 09fe 03       		.byte	0x3
 1444 09ff 00000000 		.4byte	pal_default_config
 1445 0a03 10       		.uleb128 0x10
 1446 0a04 E2070000 		.4byte	0x7e2
 1447 0a08 00       		.byte	0
 1448              		.section	.debug_abbrev,"",%progbits
 1449              	.Ldebug_abbrev0:
 1450 0000 01       		.uleb128 0x1
 1451 0001 11       		.uleb128 0x11
 1452 0002 01       		.byte	0x1
 1453 0003 25       		.uleb128 0x25
 1454 0004 0E       		.uleb128 0xe
 1455 0005 13       		.uleb128 0x13
 1456 0006 0B       		.uleb128 0xb
 1457 0007 03       		.uleb128 0x3
 1458 0008 0E       		.uleb128 0xe
 1459 0009 1B       		.uleb128 0x1b
 1460 000a 0E       		.uleb128 0xe
 1461 000b 55       		.uleb128 0x55
 1462 000c 17       		.uleb128 0x17
 1463 000d 11       		.uleb128 0x11
 1464 000e 01       		.uleb128 0x1
 1465 000f 10       		.uleb128 0x10
 1466 0010 17       		.uleb128 0x17
 1467 0011 00       		.byte	0
 1468 0012 00       		.byte	0
 1469 0013 02       		.uleb128 0x2
 1470 0014 24       		.uleb128 0x24
 1471 0015 00       		.byte	0
 1472 0016 0B       		.uleb128 0xb
 1473 0017 0B       		.uleb128 0xb
 1474 0018 3E       		.uleb128 0x3e
 1475 0019 0B       		.uleb128 0xb
 1476 001a 03       		.uleb128 0x3
 1477 001b 08       		.uleb128 0x8
 1478 001c 00       		.byte	0
ARM GAS  /tmp/ccQaxyHL.s 			page 27


 1479 001d 00       		.byte	0
 1480 001e 03       		.uleb128 0x3
 1481 001f 24       		.uleb128 0x24
 1482 0020 00       		.byte	0
 1483 0021 0B       		.uleb128 0xb
 1484 0022 0B       		.uleb128 0xb
 1485 0023 3E       		.uleb128 0x3e
 1486 0024 0B       		.uleb128 0xb
 1487 0025 03       		.uleb128 0x3
 1488 0026 0E       		.uleb128 0xe
 1489 0027 00       		.byte	0
 1490 0028 00       		.byte	0
 1491 0029 04       		.uleb128 0x4
 1492 002a 16       		.uleb128 0x16
 1493 002b 00       		.byte	0
 1494 002c 03       		.uleb128 0x3
 1495 002d 0E       		.uleb128 0xe
 1496 002e 3A       		.uleb128 0x3a
 1497 002f 0B       		.uleb128 0xb
 1498 0030 3B       		.uleb128 0x3b
 1499 0031 0B       		.uleb128 0xb
 1500 0032 49       		.uleb128 0x49
 1501 0033 13       		.uleb128 0x13
 1502 0034 00       		.byte	0
 1503 0035 00       		.byte	0
 1504 0036 05       		.uleb128 0x5
 1505 0037 13       		.uleb128 0x13
 1506 0038 01       		.byte	0x1
 1507 0039 03       		.uleb128 0x3
 1508 003a 0E       		.uleb128 0xe
 1509 003b 0B       		.uleb128 0xb
 1510 003c 0B       		.uleb128 0xb
 1511 003d 3A       		.uleb128 0x3a
 1512 003e 0B       		.uleb128 0xb
 1513 003f 3B       		.uleb128 0x3b
 1514 0040 0B       		.uleb128 0xb
 1515 0041 01       		.uleb128 0x1
 1516 0042 13       		.uleb128 0x13
 1517 0043 00       		.byte	0
 1518 0044 00       		.byte	0
 1519 0045 06       		.uleb128 0x6
 1520 0046 0D       		.uleb128 0xd
 1521 0047 00       		.byte	0
 1522 0048 03       		.uleb128 0x3
 1523 0049 0E       		.uleb128 0xe
 1524 004a 3A       		.uleb128 0x3a
 1525 004b 0B       		.uleb128 0xb
 1526 004c 3B       		.uleb128 0x3b
 1527 004d 0B       		.uleb128 0xb
 1528 004e 49       		.uleb128 0x49
 1529 004f 13       		.uleb128 0x13
 1530 0050 38       		.uleb128 0x38
 1531 0051 0B       		.uleb128 0xb
 1532 0052 00       		.byte	0
 1533 0053 00       		.byte	0
 1534 0054 07       		.uleb128 0x7
 1535 0055 0D       		.uleb128 0xd
ARM GAS  /tmp/ccQaxyHL.s 			page 28


 1536 0056 00       		.byte	0
 1537 0057 03       		.uleb128 0x3
 1538 0058 08       		.uleb128 0x8
 1539 0059 3A       		.uleb128 0x3a
 1540 005a 0B       		.uleb128 0xb
 1541 005b 3B       		.uleb128 0x3b
 1542 005c 0B       		.uleb128 0xb
 1543 005d 49       		.uleb128 0x49
 1544 005e 13       		.uleb128 0x13
 1545 005f 38       		.uleb128 0x38
 1546 0060 0B       		.uleb128 0xb
 1547 0061 00       		.byte	0
 1548 0062 00       		.byte	0
 1549 0063 08       		.uleb128 0x8
 1550 0064 13       		.uleb128 0x13
 1551 0065 01       		.byte	0x1
 1552 0066 0B       		.uleb128 0xb
 1553 0067 0B       		.uleb128 0xb
 1554 0068 3A       		.uleb128 0x3a
 1555 0069 0B       		.uleb128 0xb
 1556 006a 3B       		.uleb128 0x3b
 1557 006b 0B       		.uleb128 0xb
 1558 006c 01       		.uleb128 0x1
 1559 006d 13       		.uleb128 0x13
 1560 006e 00       		.byte	0
 1561 006f 00       		.byte	0
 1562 0070 09       		.uleb128 0x9
 1563 0071 0F       		.uleb128 0xf
 1564 0072 00       		.byte	0
 1565 0073 0B       		.uleb128 0xb
 1566 0074 0B       		.uleb128 0xb
 1567 0075 49       		.uleb128 0x49
 1568 0076 13       		.uleb128 0x13
 1569 0077 00       		.byte	0
 1570 0078 00       		.byte	0
 1571 0079 0A       		.uleb128 0xa
 1572 007a 0F       		.uleb128 0xf
 1573 007b 00       		.byte	0
 1574 007c 0B       		.uleb128 0xb
 1575 007d 0B       		.uleb128 0xb
 1576 007e 00       		.byte	0
 1577 007f 00       		.byte	0
 1578 0080 0B       		.uleb128 0xb
 1579 0081 13       		.uleb128 0x13
 1580 0082 01       		.byte	0x1
 1581 0083 03       		.uleb128 0x3
 1582 0084 0E       		.uleb128 0xe
 1583 0085 0B       		.uleb128 0xb
 1584 0086 0B       		.uleb128 0xb
 1585 0087 3A       		.uleb128 0x3a
 1586 0088 0B       		.uleb128 0xb
 1587 0089 3B       		.uleb128 0x3b
 1588 008a 05       		.uleb128 0x5
 1589 008b 01       		.uleb128 0x1
 1590 008c 13       		.uleb128 0x13
 1591 008d 00       		.byte	0
 1592 008e 00       		.byte	0
ARM GAS  /tmp/ccQaxyHL.s 			page 29


 1593 008f 0C       		.uleb128 0xc
 1594 0090 0D       		.uleb128 0xd
 1595 0091 00       		.byte	0
 1596 0092 03       		.uleb128 0x3
 1597 0093 08       		.uleb128 0x8
 1598 0094 3A       		.uleb128 0x3a
 1599 0095 0B       		.uleb128 0xb
 1600 0096 3B       		.uleb128 0x3b
 1601 0097 05       		.uleb128 0x5
 1602 0098 49       		.uleb128 0x49
 1603 0099 13       		.uleb128 0x13
 1604 009a 38       		.uleb128 0x38
 1605 009b 0B       		.uleb128 0xb
 1606 009c 00       		.byte	0
 1607 009d 00       		.byte	0
 1608 009e 0D       		.uleb128 0xd
 1609 009f 35       		.uleb128 0x35
 1610 00a0 00       		.byte	0
 1611 00a1 49       		.uleb128 0x49
 1612 00a2 13       		.uleb128 0x13
 1613 00a3 00       		.byte	0
 1614 00a4 00       		.byte	0
 1615 00a5 0E       		.uleb128 0xe
 1616 00a6 17       		.uleb128 0x17
 1617 00a7 01       		.byte	0x1
 1618 00a8 0B       		.uleb128 0xb
 1619 00a9 0B       		.uleb128 0xb
 1620 00aa 3A       		.uleb128 0x3a
 1621 00ab 0B       		.uleb128 0xb
 1622 00ac 3B       		.uleb128 0x3b
 1623 00ad 0B       		.uleb128 0xb
 1624 00ae 01       		.uleb128 0x1
 1625 00af 13       		.uleb128 0x13
 1626 00b0 00       		.byte	0
 1627 00b1 00       		.byte	0
 1628 00b2 0F       		.uleb128 0xf
 1629 00b3 0D       		.uleb128 0xd
 1630 00b4 00       		.byte	0
 1631 00b5 03       		.uleb128 0x3
 1632 00b6 0E       		.uleb128 0xe
 1633 00b7 3A       		.uleb128 0x3a
 1634 00b8 0B       		.uleb128 0xb
 1635 00b9 3B       		.uleb128 0x3b
 1636 00ba 0B       		.uleb128 0xb
 1637 00bb 49       		.uleb128 0x49
 1638 00bc 13       		.uleb128 0x13
 1639 00bd 00       		.byte	0
 1640 00be 00       		.byte	0
 1641 00bf 10       		.uleb128 0x10
 1642 00c0 26       		.uleb128 0x26
 1643 00c1 00       		.byte	0
 1644 00c2 49       		.uleb128 0x49
 1645 00c3 13       		.uleb128 0x13
 1646 00c4 00       		.byte	0
 1647 00c5 00       		.byte	0
 1648 00c6 11       		.uleb128 0x11
 1649 00c7 01       		.uleb128 0x1
ARM GAS  /tmp/ccQaxyHL.s 			page 30


 1650 00c8 01       		.byte	0x1
 1651 00c9 49       		.uleb128 0x49
 1652 00ca 13       		.uleb128 0x13
 1653 00cb 01       		.uleb128 0x1
 1654 00cc 13       		.uleb128 0x13
 1655 00cd 00       		.byte	0
 1656 00ce 00       		.byte	0
 1657 00cf 12       		.uleb128 0x12
 1658 00d0 21       		.uleb128 0x21
 1659 00d1 00       		.byte	0
 1660 00d2 49       		.uleb128 0x49
 1661 00d3 13       		.uleb128 0x13
 1662 00d4 2F       		.uleb128 0x2f
 1663 00d5 0B       		.uleb128 0xb
 1664 00d6 00       		.byte	0
 1665 00d7 00       		.byte	0
 1666 00d8 13       		.uleb128 0x13
 1667 00d9 13       		.uleb128 0x13
 1668 00da 01       		.byte	0x1
 1669 00db 0B       		.uleb128 0xb
 1670 00dc 0B       		.uleb128 0xb
 1671 00dd 3A       		.uleb128 0x3a
 1672 00de 0B       		.uleb128 0xb
 1673 00df 3B       		.uleb128 0x3b
 1674 00e0 05       		.uleb128 0x5
 1675 00e1 01       		.uleb128 0x1
 1676 00e2 13       		.uleb128 0x13
 1677 00e3 00       		.byte	0
 1678 00e4 00       		.byte	0
 1679 00e5 14       		.uleb128 0x14
 1680 00e6 0D       		.uleb128 0xd
 1681 00e7 00       		.byte	0
 1682 00e8 03       		.uleb128 0x3
 1683 00e9 0E       		.uleb128 0xe
 1684 00ea 3A       		.uleb128 0x3a
 1685 00eb 0B       		.uleb128 0xb
 1686 00ec 3B       		.uleb128 0x3b
 1687 00ed 05       		.uleb128 0x5
 1688 00ee 49       		.uleb128 0x49
 1689 00ef 13       		.uleb128 0x13
 1690 00f0 38       		.uleb128 0x38
 1691 00f1 0B       		.uleb128 0xb
 1692 00f2 00       		.byte	0
 1693 00f3 00       		.byte	0
 1694 00f4 15       		.uleb128 0x15
 1695 00f5 16       		.uleb128 0x16
 1696 00f6 00       		.byte	0
 1697 00f7 03       		.uleb128 0x3
 1698 00f8 0E       		.uleb128 0xe
 1699 00f9 3A       		.uleb128 0x3a
 1700 00fa 0B       		.uleb128 0xb
 1701 00fb 3B       		.uleb128 0x3b
 1702 00fc 05       		.uleb128 0x5
 1703 00fd 49       		.uleb128 0x49
 1704 00fe 13       		.uleb128 0x13
 1705 00ff 00       		.byte	0
 1706 0100 00       		.byte	0
ARM GAS  /tmp/ccQaxyHL.s 			page 31


 1707 0101 16       		.uleb128 0x16
 1708 0102 04       		.uleb128 0x4
 1709 0103 01       		.byte	0x1
 1710 0104 0B       		.uleb128 0xb
 1711 0105 0B       		.uleb128 0xb
 1712 0106 3A       		.uleb128 0x3a
 1713 0107 0B       		.uleb128 0xb
 1714 0108 3B       		.uleb128 0x3b
 1715 0109 0B       		.uleb128 0xb
 1716 010a 01       		.uleb128 0x1
 1717 010b 13       		.uleb128 0x13
 1718 010c 00       		.byte	0
 1719 010d 00       		.byte	0
 1720 010e 17       		.uleb128 0x17
 1721 010f 28       		.uleb128 0x28
 1722 0110 00       		.byte	0
 1723 0111 03       		.uleb128 0x3
 1724 0112 0E       		.uleb128 0xe
 1725 0113 1C       		.uleb128 0x1c
 1726 0114 0D       		.uleb128 0xd
 1727 0115 00       		.byte	0
 1728 0116 00       		.byte	0
 1729 0117 18       		.uleb128 0x18
 1730 0118 15       		.uleb128 0x15
 1731 0119 01       		.byte	0x1
 1732 011a 27       		.uleb128 0x27
 1733 011b 19       		.uleb128 0x19
 1734 011c 49       		.uleb128 0x49
 1735 011d 13       		.uleb128 0x13
 1736 011e 01       		.uleb128 0x1
 1737 011f 13       		.uleb128 0x13
 1738 0120 00       		.byte	0
 1739 0121 00       		.byte	0
 1740 0122 19       		.uleb128 0x19
 1741 0123 05       		.uleb128 0x5
 1742 0124 00       		.byte	0
 1743 0125 49       		.uleb128 0x49
 1744 0126 13       		.uleb128 0x13
 1745 0127 00       		.byte	0
 1746 0128 00       		.byte	0
 1747 0129 1A       		.uleb128 0x1a
 1748 012a 2E       		.uleb128 0x2e
 1749 012b 00       		.byte	0
 1750 012c 3F       		.uleb128 0x3f
 1751 012d 19       		.uleb128 0x19
 1752 012e 03       		.uleb128 0x3
 1753 012f 0E       		.uleb128 0xe
 1754 0130 3A       		.uleb128 0x3a
 1755 0131 0B       		.uleb128 0xb
 1756 0132 3B       		.uleb128 0x3b
 1757 0133 0B       		.uleb128 0xb
 1758 0134 27       		.uleb128 0x27
 1759 0135 19       		.uleb128 0x19
 1760 0136 11       		.uleb128 0x11
 1761 0137 01       		.uleb128 0x1
 1762 0138 12       		.uleb128 0x12
 1763 0139 06       		.uleb128 0x6
ARM GAS  /tmp/ccQaxyHL.s 			page 32


 1764 013a 40       		.uleb128 0x40
 1765 013b 18       		.uleb128 0x18
 1766 013c 9642     		.uleb128 0x2116
 1767 013e 19       		.uleb128 0x19
 1768 013f 00       		.byte	0
 1769 0140 00       		.byte	0
 1770 0141 1B       		.uleb128 0x1b
 1771 0142 2E       		.uleb128 0x2e
 1772 0143 01       		.byte	0x1
 1773 0144 3F       		.uleb128 0x3f
 1774 0145 19       		.uleb128 0x19
 1775 0146 03       		.uleb128 0x3
 1776 0147 0E       		.uleb128 0xe
 1777 0148 3A       		.uleb128 0x3a
 1778 0149 0B       		.uleb128 0xb
 1779 014a 3B       		.uleb128 0x3b
 1780 014b 0B       		.uleb128 0xb
 1781 014c 27       		.uleb128 0x27
 1782 014d 19       		.uleb128 0x19
 1783 014e 49       		.uleb128 0x49
 1784 014f 13       		.uleb128 0x13
 1785 0150 11       		.uleb128 0x11
 1786 0151 01       		.uleb128 0x1
 1787 0152 12       		.uleb128 0x12
 1788 0153 06       		.uleb128 0x6
 1789 0154 40       		.uleb128 0x40
 1790 0155 18       		.uleb128 0x18
 1791 0156 9742     		.uleb128 0x2117
 1792 0158 19       		.uleb128 0x19
 1793 0159 01       		.uleb128 0x1
 1794 015a 13       		.uleb128 0x13
 1795 015b 00       		.byte	0
 1796 015c 00       		.byte	0
 1797 015d 1C       		.uleb128 0x1c
 1798 015e 05       		.uleb128 0x5
 1799 015f 00       		.byte	0
 1800 0160 03       		.uleb128 0x3
 1801 0161 0E       		.uleb128 0xe
 1802 0162 3A       		.uleb128 0x3a
 1803 0163 0B       		.uleb128 0xb
 1804 0164 3B       		.uleb128 0x3b
 1805 0165 0B       		.uleb128 0xb
 1806 0166 49       		.uleb128 0x49
 1807 0167 13       		.uleb128 0x13
 1808 0168 02       		.uleb128 0x2
 1809 0169 18       		.uleb128 0x18
 1810 016a 00       		.byte	0
 1811 016b 00       		.byte	0
 1812 016c 1D       		.uleb128 0x1d
 1813 016d 2E       		.uleb128 0x2e
 1814 016e 00       		.byte	0
 1815 016f 3F       		.uleb128 0x3f
 1816 0170 19       		.uleb128 0x19
 1817 0171 03       		.uleb128 0x3
 1818 0172 0E       		.uleb128 0xe
 1819 0173 3A       		.uleb128 0x3a
 1820 0174 0B       		.uleb128 0xb
ARM GAS  /tmp/ccQaxyHL.s 			page 33


 1821 0175 3B       		.uleb128 0x3b
 1822 0176 0B       		.uleb128 0xb
 1823 0177 27       		.uleb128 0x27
 1824 0178 19       		.uleb128 0x19
 1825 0179 11       		.uleb128 0x11
 1826 017a 01       		.uleb128 0x1
 1827 017b 12       		.uleb128 0x12
 1828 017c 06       		.uleb128 0x6
 1829 017d 40       		.uleb128 0x40
 1830 017e 18       		.uleb128 0x18
 1831 017f 9742     		.uleb128 0x2117
 1832 0181 19       		.uleb128 0x19
 1833 0182 00       		.byte	0
 1834 0183 00       		.byte	0
 1835 0184 1E       		.uleb128 0x1e
 1836 0185 34       		.uleb128 0x34
 1837 0186 00       		.byte	0
 1838 0187 03       		.uleb128 0x3
 1839 0188 0E       		.uleb128 0xe
 1840 0189 3A       		.uleb128 0x3a
 1841 018a 0B       		.uleb128 0xb
 1842 018b 3B       		.uleb128 0x3b
 1843 018c 05       		.uleb128 0x5
 1844 018d 49       		.uleb128 0x49
 1845 018e 13       		.uleb128 0x13
 1846 018f 3F       		.uleb128 0x3f
 1847 0190 19       		.uleb128 0x19
 1848 0191 3C       		.uleb128 0x3c
 1849 0192 19       		.uleb128 0x19
 1850 0193 00       		.byte	0
 1851 0194 00       		.byte	0
 1852 0195 1F       		.uleb128 0x1f
 1853 0196 34       		.uleb128 0x34
 1854 0197 00       		.byte	0
 1855 0198 03       		.uleb128 0x3
 1856 0199 0E       		.uleb128 0xe
 1857 019a 3A       		.uleb128 0x3a
 1858 019b 0B       		.uleb128 0xb
 1859 019c 3B       		.uleb128 0x3b
 1860 019d 0B       		.uleb128 0xb
 1861 019e 49       		.uleb128 0x49
 1862 019f 13       		.uleb128 0x13
 1863 01a0 3F       		.uleb128 0x3f
 1864 01a1 19       		.uleb128 0x19
 1865 01a2 02       		.uleb128 0x2
 1866 01a3 18       		.uleb128 0x18
 1867 01a4 00       		.byte	0
 1868 01a5 00       		.byte	0
 1869 01a6 00       		.byte	0
 1870              		.section	.debug_aranges,"",%progbits
 1871 0000 34000000 		.4byte	0x34
 1872 0004 0200     		.2byte	0x2
 1873 0006 00000000 		.4byte	.Ldebug_info0
 1874 000a 04       		.byte	0x4
 1875 000b 00       		.byte	0
 1876 000c 0000     		.2byte	0
 1877 000e 0000     		.2byte	0
ARM GAS  /tmp/ccQaxyHL.s 			page 34


 1878 0010 00000000 		.4byte	.LFB118
 1879 0014 08000000 		.4byte	.LFE118-.LFB118
 1880 0018 00000000 		.4byte	.LFB119
 1881 001c 0C000000 		.4byte	.LFE119-.LFB119
 1882 0020 00000000 		.4byte	.LFB120
 1883 0024 0C000000 		.4byte	.LFE120-.LFB120
 1884 0028 00000000 		.4byte	.LFB121
 1885 002c 02000000 		.4byte	.LFE121-.LFB121
 1886 0030 00000000 		.4byte	0
 1887 0034 00000000 		.4byte	0
 1888              		.section	.debug_ranges,"",%progbits
 1889              	.Ldebug_ranges0:
 1890 0000 00000000 		.4byte	.LFB118
 1891 0004 08000000 		.4byte	.LFE118
 1892 0008 00000000 		.4byte	.LFB119
 1893 000c 0C000000 		.4byte	.LFE119
 1894 0010 00000000 		.4byte	.LFB120
 1895 0014 0C000000 		.4byte	.LFE120
 1896 0018 00000000 		.4byte	.LFB121
 1897 001c 02000000 		.4byte	.LFE121
 1898 0020 00000000 		.4byte	0
 1899 0024 00000000 		.4byte	0
 1900              		.section	.debug_line,"",%progbits
 1901              	.Ldebug_line0:
 1902 0000 5D020000 		.section	.debug_str,"MS",%progbits,1
 1902      02001202 
 1902      00000201 
 1902      FB0E0D00 
 1902      01010101 
 1903              	.LASF103:
 1904 0000 426C6F63 		.ascii	"BlockDeviceInfo\000"
 1904      6B446576 
 1904      69636549 
 1904      6E666F00 
 1905              	.LASF71:
 1906 0010 52455350 		.ascii	"RESP1\000"
 1906      3100
 1907              	.LASF72:
 1908 0016 52455350 		.ascii	"RESP2\000"
 1908      3200
 1909              	.LASF73:
 1910 001c 52455350 		.ascii	"RESP3\000"
 1910      3300
 1911              	.LASF74:
 1912 0022 52455350 		.ascii	"RESP4\000"
 1912      3400
 1913              	.LASF65:
 1914 0028 4D304152 		.ascii	"M0AR\000"
 1914      00
 1915              	.LASF40:
 1916 002d 705F7469 		.ascii	"p_time\000"
 1916      6D6500
 1917              	.LASF102:
 1918 0034 626C6B5F 		.ascii	"blk_num\000"
 1918      6E756D00 
 1919              	.LASF59:
 1920 003c 7264796D 		.ascii	"rdymsg\000"
ARM GAS  /tmp/ccQaxyHL.s 			page 35


 1920      736700
 1921              	.LASF16:
 1922 0043 75696E74 		.ascii	"uint64_t\000"
 1922      36345F74 
 1922      00
 1923              	.LASF136:
 1924 004c 69735F70 		.ascii	"is_protected\000"
 1924      726F7465 
 1924      63746564 
 1924      00
 1925              	.LASF5:
 1926 0059 5F5F7569 		.ascii	"__uint8_t\000"
 1926      6E74385F 
 1926      7400
 1927              	.LASF105:
 1928 0063 6F747970 		.ascii	"otyper\000"
 1928      657200
 1929              	.LASF125:
 1930 006a 63617061 		.ascii	"capacity\000"
 1930      63697479 
 1930      00
 1931              	.LASF131:
 1932 0073 7364696F 		.ascii	"sdio\000"
 1932      00
 1933              	.LASF85:
 1934 0078 73747265 		.ascii	"stream\000"
 1934      616D00
 1935              	.LASF118:
 1936 007f 50484461 		.ascii	"PHData\000"
 1936      746100
 1937              	.LASF12:
 1938 0086 6C6F6E67 		.ascii	"long long unsigned int\000"
 1938      206C6F6E 
 1938      6720756E 
 1938      7369676E 
 1938      65642069 
 1939              	.LASF107:
 1940 009d 70757064 		.ascii	"pupdr\000"
 1940      7200
 1941              	.LASF60:
 1942 00a3 65786974 		.ascii	"exitcode\000"
 1942      636F6465 
 1942      00
 1943              	.LASF89:
 1944 00ac 76656374 		.ascii	"vector\000"
 1944      6F7200
 1945              	.LASF127:
 1946 00b3 63617264 		.ascii	"cardmode\000"
 1946      6D6F6465 
 1946      00
 1947              	.LASF148:
 1948 00bc 49544D5F 		.ascii	"ITM_RxBuffer\000"
 1948      52784275 
 1948      66666572 
 1948      00
 1949              	.LASF100:
 1950 00c9 626C6B73 		.ascii	"blkstate_t\000"
ARM GAS  /tmp/ccQaxyHL.s 			page 36


 1950      74617465 
 1950      5F7400
 1951              	.LASF64:
 1952 00d4 4E445452 		.ascii	"NDTR\000"
 1952      00
 1953              	.LASF30:
 1954 00d9 705F7072 		.ascii	"p_prio\000"
 1954      696F00
 1955              	.LASF10:
 1956 00e0 6C6F6E67 		.ascii	"long long int\000"
 1956      206C6F6E 
 1956      6720696E 
 1956      7400
 1957              	.LASF1:
 1958 00ee 7369676E 		.ascii	"signed char\000"
 1958      65642063 
 1958      68617200 
 1959              	.LASF47:
 1960 00fa 705F6D70 		.ascii	"p_mpool\000"
 1960      6F6F6C00 
 1961              	.LASF17:
 1962 0102 626F6F6C 		.ascii	"bool_t\000"
 1962      5F7400
 1963              	.LASF56:
 1964 0109 6D5F7175 		.ascii	"m_queue\000"
 1964      65756500 
 1965              	.LASF138:
 1966 0111 64697363 		.ascii	"disconnect\000"
 1966      6F6E6E65 
 1966      637400
 1967              	.LASF104:
 1968 011c 6D6F6465 		.ascii	"moder\000"
 1968      7200
 1969              	.LASF22:
 1970 0122 74736C69 		.ascii	"tslices_t\000"
 1970      6365735F 
 1970      7400
 1971              	.LASF124:
 1972 012c 73746174 		.ascii	"state\000"
 1972      6500
 1973              	.LASF7:
 1974 0132 6C6F6E67 		.ascii	"long int\000"
 1974      20696E74 
 1974      00
 1975              	.LASF115:
 1976 013b 50454461 		.ascii	"PEData\000"
 1976      746100
 1977              	.LASF78:
 1978 0142 44434F55 		.ascii	"DCOUNT\000"
 1978      4E5400
 1979              	.LASF20:
 1980 0149 74737461 		.ascii	"tstate_t\000"
 1980      74655F74 
 1980      00
 1981              	.LASF79:
 1982 0152 4D41534B 		.ascii	"MASK\000"
 1982      00
ARM GAS  /tmp/ccQaxyHL.s 			page 37


 1983              	.LASF92:
 1984 0157 424C4B5F 		.ascii	"BLK_STOP\000"
 1984      53544F50 
 1984      00
 1985              	.LASF32:
 1986 0160 705F6E65 		.ascii	"p_newer\000"
 1986      77657200 
 1987              	.LASF142:
 1988 0168 6765745F 		.ascii	"get_info\000"
 1988      696E666F 
 1988      00
 1989              	.LASF150:
 1990 0171 474E5520 		.ascii	"GNU C 4.8.2 -mcpu=cortex-m4 -mno-thumb-interwork -m"
 1990      4320342E 
 1990      382E3220 
 1990      2D6D6370 
 1990      753D636F 
 1991 01a4 7468756D 		.ascii	"thumb -ggdb -O0 -fomit-frame-pointer -falign-functi"
 1991      62202D67 
 1991      67646220 
 1991      2D4F3020 
 1991      2D666F6D 
 1992 01d7 6F6E733D 		.ascii	"ons=16 -ffunction-sections -fdata-sections -fno-com"
 1992      3136202D 
 1992      6666756E 
 1992      6374696F 
 1992      6E2D7365 
 1993 020a 6D6F6E00 		.ascii	"mon\000"
 1994              	.LASF8:
 1995 020e 5F5F7569 		.ascii	"__uint32_t\000"
 1995      6E743332 
 1995      5F7400
 1996              	.LASF50:
 1997 0219 72656761 		.ascii	"regarm_t\000"
 1997      726D5F74 
 1997      00
 1998              	.LASF88:
 1999 0222 73656C66 		.ascii	"selfindex\000"
 1999      696E6465 
 1999      7800
 2000              	.LASF151:
 2001 022c 2E2E2F2E 		.ascii	"../..//boards/ST_STM32F4_DISCOVERY/board.c\000"
 2001      2E2F2F62 
 2001      6F617264 
 2001      732F5354 
 2001      5F53544D 
 2002              	.LASF132:
 2003 0257 64756D6D 		.ascii	"dummy\000"
 2003      7900
 2004              	.LASF27:
 2005 025d 54687265 		.ascii	"Thread\000"
 2005      616400
 2006              	.LASF101:
 2007 0264 626C6B5F 		.ascii	"blk_size\000"
 2007      73697A65 
 2007      00
 2008              	.LASF121:
ARM GAS  /tmp/ccQaxyHL.s 			page 38


 2009 026d 7364636D 		.ascii	"sdcmode_t\000"
 2009      6F64655F 
 2009      7400
 2010              	.LASF112:
 2011 0277 50424461 		.ascii	"PBData\000"
 2011      746100
 2012              	.LASF37:
 2013 027e 705F666C 		.ascii	"p_flags\000"
 2013      61677300 
 2014              	.LASF35:
 2015 0286 705F7374 		.ascii	"p_stklimit\000"
 2015      6B6C696D 
 2015      697400
 2016              	.LASF0:
 2017 0291 756E7369 		.ascii	"unsigned int\000"
 2017      676E6564 
 2017      20696E74 
 2017      00
 2018              	.LASF128:
 2019 029e 6572726F 		.ascii	"errors\000"
 2019      727300
 2020              	.LASF42:
 2021 02a5 705F6D73 		.ascii	"p_msgqueue\000"
 2021      67717565 
 2021      756500
 2022              	.LASF106:
 2023 02b0 6F737065 		.ascii	"ospeedr\000"
 2023      65647200 
 2024              	.LASF87:
 2025 02b8 69736869 		.ascii	"ishift\000"
 2025      667400
 2026              	.LASF146:
 2027 02bf 5F5F6561 		.ascii	"__early_init\000"
 2027      726C795F 
 2027      696E6974 
 2027      00
 2028              	.LASF4:
 2029 02cc 73686F72 		.ascii	"short unsigned int\000"
 2029      7420756E 
 2029      7369676E 
 2029      65642069 
 2029      6E7400
 2030              	.LASF116:
 2031 02df 50464461 		.ascii	"PFData\000"
 2031      746100
 2032              	.LASF93:
 2033 02e6 424C4B5F 		.ascii	"BLK_ACTIVE\000"
 2033      41435449 
 2033      564500
 2034              	.LASF144:
 2035 02f1 7364635F 		.ascii	"sdc_lld_is_write_protected\000"
 2035      6C6C645F 
 2035      69735F77 
 2035      72697465 
 2035      5F70726F 
 2036              	.LASF24:
 2037 030c 6D73675F 		.ascii	"msg_t\000"
ARM GAS  /tmp/ccQaxyHL.s 			page 39


 2037      7400
 2038              	.LASF94:
 2039 0312 424C4B5F 		.ascii	"BLK_CONNECTING\000"
 2039      434F4E4E 
 2039      45435449 
 2039      4E4700
 2040              	.LASF110:
 2041 0321 73746D33 		.ascii	"stm32_gpio_setup_t\000"
 2041      325F6770 
 2041      696F5F73 
 2041      65747570 
 2041      5F7400
 2042              	.LASF19:
 2043 0334 746D6F64 		.ascii	"tmode_t\000"
 2043      655F7400 
 2044              	.LASF70:
 2045 033c 52455350 		.ascii	"RESPCMD\000"
 2045      434D4400 
 2046              	.LASF49:
 2047 0344 54687265 		.ascii	"ThreadsList\000"
 2047      6164734C 
 2047      69737400 
 2048              	.LASF25:
 2049 0350 6576656E 		.ascii	"eventmask_t\000"
 2049      746D6173 
 2049      6B5F7400 
 2050              	.LASF117:
 2051 035c 50474461 		.ascii	"PGData\000"
 2051      746100
 2052              	.LASF51:
 2053 0363 73746B61 		.ascii	"stkalign_t\000"
 2053      6C69676E 
 2053      5F7400
 2054              	.LASF76:
 2055 036e 444C454E 		.ascii	"DLEN\000"
 2055      00
 2056              	.LASF140:
 2057 0373 77726974 		.ascii	"write\000"
 2057      6500
 2058              	.LASF97:
 2059 0379 424C4B5F 		.ascii	"BLK_READING\000"
 2059      52454144 
 2059      494E4700 
 2060              	.LASF54:
 2061 0385 73697A65 		.ascii	"sizetype\000"
 2061      74797065 
 2061      00
 2062              	.LASF81:
 2063 038e 4649464F 		.ascii	"FIFOCNT\000"
 2063      434E5400 
 2064              	.LASF55:
 2065 0396 4D757465 		.ascii	"Mutex\000"
 2065      7800
 2066              	.LASF68:
 2067 039c 504F5745 		.ascii	"POWER\000"
 2067      5200
 2068              	.LASF33:
ARM GAS  /tmp/ccQaxyHL.s 			page 40


 2069 03a2 705F6F6C 		.ascii	"p_older\000"
 2069      64657200 
 2070              	.LASF99:
 2071 03aa 424C4B5F 		.ascii	"BLK_SYNCING\000"
 2071      53594E43 
 2071      494E4700 
 2072              	.LASF96:
 2073 03b6 424C4B5F 		.ascii	"BLK_READY\000"
 2073      52454144 
 2073      5900
 2074              	.LASF48:
 2075 03c0 54687265 		.ascii	"ThreadsQueue\000"
 2075      61647351 
 2075      75657565 
 2075      00
 2076              	.LASF77:
 2077 03cd 44435452 		.ascii	"DCTRL\000"
 2077      4C00
 2078              	.LASF109:
 2079 03d3 61667268 		.ascii	"afrh\000"
 2079      00
 2080              	.LASF114:
 2081 03d8 50444461 		.ascii	"PDData\000"
 2081      746100
 2082              	.LASF11:
 2083 03df 5F5F7569 		.ascii	"__uint64_t\000"
 2083      6E743634 
 2083      5F7400
 2084              	.LASF152:
 2085 03ea 2F686F6D 		.ascii	"/home/ece497/vbox-shared/mplayer/ChibiOS-RT-stable_"
 2085      652F6563 
 2085      65343937 
 2085      2F76626F 
 2085      782D7368 
 2086 041d 322E362E 		.ascii	"2.6.x/demos/SDCARD\000"
 2086      782F6465 
 2086      6D6F732F 
 2086      53444341 
 2086      524400
 2087              	.LASF69:
 2088 0430 434C4B43 		.ascii	"CLKCR\000"
 2088      5200
 2089              	.LASF21:
 2090 0436 74726566 		.ascii	"trefs_t\000"
 2090      735F7400 
 2091              	.LASF80:
 2092 043e 52455345 		.ascii	"RESERVED0\000"
 2092      52564544 
 2092      3000
 2093              	.LASF82:
 2094 0448 52455345 		.ascii	"RESERVED1\000"
 2094      52564544 
 2094      3100
 2095              	.LASF143:
 2096 0452 7364635F 		.ascii	"sdc_lld_is_card_inserted\000"
 2096      6C6C645F 
 2096      69735F63 
ARM GAS  /tmp/ccQaxyHL.s 			page 41


 2096      6172645F 
 2096      696E7365 
 2097              	.LASF29:
 2098 046b 705F7072 		.ascii	"p_prev\000"
 2098      657600
 2099              	.LASF90:
 2100 0472 73746D33 		.ascii	"stm32_dma_stream_t\000"
 2100      325F646D 
 2100      615F7374 
 2100      7265616D 
 2100      5F7400
 2101              	.LASF23:
 2102 0485 74707269 		.ascii	"tprio_t\000"
 2102      6F5F7400 
 2103              	.LASF129:
 2104 048d 74687265 		.ascii	"thread\000"
 2104      616400
 2105              	.LASF18:
 2106 0494 5F426F6F 		.ascii	"_Bool\000"
 2106      6C00
 2107              	.LASF14:
 2108 049a 696E7433 		.ascii	"int32_t\000"
 2108      325F7400 
 2109              	.LASF2:
 2110 04a2 756E7369 		.ascii	"unsigned char\000"
 2110      676E6564 
 2110      20636861 
 2110      7200
 2111              	.LASF108:
 2112 04b0 6166726C 		.ascii	"afrl\000"
 2112      00
 2113              	.LASF45:
 2114 04b5 705F6D74 		.ascii	"p_mtxlist\000"
 2114      786C6973 
 2114      7400
 2115              	.LASF3:
 2116 04bf 73686F72 		.ascii	"short int\000"
 2116      7420696E 
 2116      7400
 2117              	.LASF36:
 2118 04c9 705F7374 		.ascii	"p_state\000"
 2118      61746500 
 2119              	.LASF98:
 2120 04d1 424C4B5F 		.ascii	"BLK_WRITING\000"
 2120      57524954 
 2120      494E4700 
 2121              	.LASF39:
 2122 04dd 705F7072 		.ascii	"p_preempt\000"
 2122      65656D70 
 2122      7400
 2123              	.LASF111:
 2124 04e7 50414461 		.ascii	"PAData\000"
 2124      746100
 2125              	.LASF62:
 2126 04ee 65776D61 		.ascii	"ewmask\000"
 2126      736B00
 2127              	.LASF28:
ARM GAS  /tmp/ccQaxyHL.s 			page 42


 2128 04f5 705F6E65 		.ascii	"p_next\000"
 2128      787400
 2129              	.LASF134:
 2130 04fc 53444344 		.ascii	"SDCDriverVMT\000"
 2130      72697665 
 2130      72564D54 
 2130      00
 2131              	.LASF84:
 2132 0509 5344494F 		.ascii	"SDIO_TypeDef\000"
 2132      5F547970 
 2132      65446566 
 2132      00
 2133              	.LASF91:
 2134 0516 424C4B5F 		.ascii	"BLK_UNINIT\000"
 2134      554E494E 
 2134      495400
 2135              	.LASF119:
 2136 0521 50494461 		.ascii	"PIData\000"
 2136      746100
 2137              	.LASF137:
 2138 0528 636F6E6E 		.ascii	"connect\000"
 2138      65637400 
 2139              	.LASF44:
 2140 0530 705F6570 		.ascii	"p_epending\000"
 2140      656E6469 
 2140      6E6700
 2141              	.LASF86:
 2142 053b 69666372 		.ascii	"ifcr\000"
 2142      00
 2143              	.LASF15:
 2144 0540 75696E74 		.ascii	"uint32_t\000"
 2144      33325F74 
 2144      00
 2145              	.LASF9:
 2146 0549 6C6F6E67 		.ascii	"long unsigned int\000"
 2146      20756E73 
 2146      69676E65 
 2146      6420696E 
 2146      7400
 2147              	.LASF139:
 2148 055b 72656164 		.ascii	"read\000"
 2148      00
 2149              	.LASF63:
 2150 0560 63686172 		.ascii	"char\000"
 2150      00
 2151              	.LASF95:
 2152 0565 424C4B5F 		.ascii	"BLK_DISCONNECTING\000"
 2152      44495343 
 2152      4F4E4E45 
 2152      4354494E 
 2152      4700
 2153              	.LASF126:
 2154 0577 636F6E66 		.ascii	"config\000"
 2154      696700
 2155              	.LASF145:
 2156 057e 73646370 		.ascii	"sdcp\000"
 2156      00
ARM GAS  /tmp/ccQaxyHL.s 			page 43


 2157              	.LASF58:
 2158 0583 6D5F6E65 		.ascii	"m_next\000"
 2158      787400
 2159              	.LASF26:
 2160 058a 73797374 		.ascii	"systime_t\000"
 2160      696D655F 
 2160      7400
 2161              	.LASF46:
 2162 0594 705F7265 		.ascii	"p_realprio\000"
 2162      616C7072 
 2162      696F00
 2163              	.LASF6:
 2164 059f 5F5F696E 		.ascii	"__int32_t\000"
 2164      7433325F 
 2164      7400
 2165              	.LASF75:
 2166 05a9 4454494D 		.ascii	"DTIMER\000"
 2166      455200
 2167              	.LASF67:
 2168 05b0 444D415F 		.ascii	"DMA_Stream_TypeDef\000"
 2168      53747265 
 2168      616D5F54 
 2168      79706544 
 2168      656600
 2169              	.LASF53:
 2170 05c3 636F6E74 		.ascii	"context\000"
 2170      65787400 
 2171              	.LASF122:
 2172 05cb 73646366 		.ascii	"sdcflags_t\000"
 2172      6C616773 
 2172      5F7400
 2173              	.LASF52:
 2174 05d6 696E7463 		.ascii	"intctx\000"
 2174      747800
 2175              	.LASF135:
 2176 05dd 69735F69 		.ascii	"is_inserted\000"
 2176      6E736572 
 2176      74656400 
 2177              	.LASF66:
 2178 05e9 4D314152 		.ascii	"M1AR\000"
 2178      00
 2179              	.LASF34:
 2180 05ee 705F6E61 		.ascii	"p_name\000"
 2180      6D6500
 2181              	.LASF38:
 2182 05f5 705F7265 		.ascii	"p_refs\000"
 2182      667300
 2183              	.LASF133:
 2184 05fc 53444343 		.ascii	"SDCConfig\000"
 2184      6F6E6669 
 2184      6700
 2185              	.LASF147:
 2186 0606 626F6172 		.ascii	"boardInit\000"
 2186      64496E69 
 2186      7400
 2187              	.LASF13:
 2188 0610 75696E74 		.ascii	"uint8_t\000"
ARM GAS  /tmp/ccQaxyHL.s 			page 44


 2188      385F7400 
 2189              	.LASF141:
 2190 0618 73796E63 		.ascii	"sync\000"
 2190      00
 2191              	.LASF130:
 2192 061d 646D616D 		.ascii	"dmamode\000"
 2192      6F646500 
 2193              	.LASF61:
 2194 0625 77746F62 		.ascii	"wtobjp\000"
 2194      6A7000
 2195              	.LASF83:
 2196 062c 4649464F 		.ascii	"FIFO\000"
 2196      00
 2197              	.LASF113:
 2198 0631 50434461 		.ascii	"PCData\000"
 2198      746100
 2199              	.LASF43:
 2200 0638 705F6D73 		.ascii	"p_msg\000"
 2200      6700
 2201              	.LASF120:
 2202 063e 50414C43 		.ascii	"PALConfig\000"
 2202      6F6E6669 
 2202      6700
 2203              	.LASF57:
 2204 0648 6D5F6F77 		.ascii	"m_owner\000"
 2204      6E657200 
 2205              	.LASF123:
 2206 0650 53444344 		.ascii	"SDCDriver\000"
 2206      72697665 
 2206      7200
 2207              	.LASF149:
 2208 065a 70616C5F 		.ascii	"pal_default_config\000"
 2208      64656661 
 2208      756C745F 
 2208      636F6E66 
 2208      696700
 2209              	.LASF31:
 2210 066d 705F6374 		.ascii	"p_ctx\000"
 2210      7800
 2211              	.LASF41:
 2212 0673 705F7761 		.ascii	"p_waiting\000"
 2212      6974696E 
 2212      6700
 2213              		.ident	"GCC: (Arch Repository) 4.8.2"
ARM GAS  /tmp/ccQaxyHL.s 			page 45


DEFINED SYMBOLS
                            *ABS*:0000000000000000 board.c
     /tmp/ccQaxyHL.s:23     .rodata.pal_default_config:0000000000000000 pal_default_config
     /tmp/ccQaxyHL.s:20     .rodata.pal_default_config:0000000000000000 $d
     /tmp/ccQaxyHL.s:88     .text.__early_init:0000000000000000 $t
     /tmp/ccQaxyHL.s:94     .text.__early_init:0000000000000000 __early_init
     /tmp/ccQaxyHL.s:113    .text.sdc_lld_is_card_inserted:0000000000000000 $t
     /tmp/ccQaxyHL.s:119    .text.sdc_lld_is_card_inserted:0000000000000000 sdc_lld_is_card_inserted
     /tmp/ccQaxyHL.s:140    .text.sdc_lld_is_write_protected:0000000000000000 $t
     /tmp/ccQaxyHL.s:146    .text.sdc_lld_is_write_protected:0000000000000000 sdc_lld_is_write_protected
     /tmp/ccQaxyHL.s:167    .text.boardInit:0000000000000000 $t
     /tmp/ccQaxyHL.s:173    .text.boardInit:0000000000000000 boardInit
                     .debug_frame:0000000000000010 $d

UNDEFINED SYMBOLS
stm32_clock_init
