ARM GAS  /tmp/ccQaxyHL.s 			page 1


   1              		.syntax unified
   2              		.cpu cortex-m4
   3              		.fpu softvfp
   4              		.eabi_attribute 20, 1
   5              		.eabi_attribute 21, 1
   6              		.eabi_attribute 23, 3
   7              		.eabi_attribute 24, 1
   8              		.eabi_attribute 25, 1
   9              		.eabi_attribute 26, 1
  10              		.eabi_attribute 30, 6
  11              		.eabi_attribute 34, 1
  12              		.eabi_attribute 18, 4
  13              		.thumb
  14              		.file	"board.c"
  15              		.text
  16              	.Ltext0:
  17              		.cfi_sections	.debug_frame
  18              		.global	pal_default_config
  19              		.section	.rodata.pal_default_config,"a",%progbits
  20              		.align	2
  21              		.type	pal_default_config, %object
  22              		.size	pal_default_config, 252
  23              	pal_default_config:
  24 0000 00AAA02A 		.word	715172352
  25 0004 00000000 		.word	0
  26 0008 FFABFFFF 		.word	-21505
  27 000c 54000140 		.word	1073807444
  28 0010 FFFF0000 		.word	65535
  29 0014 00005655 		.word	1431699456
  30 0018 00AA0A00 		.word	698880
  31 001c 80200800 		.word	532608
  32 0020 40020000 		.word	576
  33 0024 FFFFFFFF 		.word	-1
  34 0028 15455155 		.word	1431389461
  35 002c FFFF0000 		.word	65535
  36 0030 00000004 		.word	67108864
  37 0034 40000000 		.word	64
  38 0038 0180AA02 		.word	44728321
  39 003c 00000000 		.word	0
  40 0040 FFFFFFFF 		.word	-1
  41 0044 54150000 		.word	5460
  42 0048 00FF0000 		.word	65280
  43 004c 00000060 		.word	1610612736
  44 0050 CCCC0C00 		.word	838860
  45 0054 20010055 		.word	1426063648
  46 0058 00000000 		.word	0
  47 005c FFFFFFFF 		.word	-1
  48 0060 45505500 		.word	5591109
  49 0064 FF0F0000 		.word	4095
  50 0068 000C0000 		.word	3072
  51 006c 00000000 		.word	0
  52 0070 40000000 		.word	64
  53 0074 00000000 		.word	0
  54 0078 FFFFFFFF 		.word	-1
  55 007c 00000000 		.word	0
  56 0080 FFFF0000 		.word	65535
  57 0084 00000000 		.word	0
ARM GAS  /tmp/ccQaxyHL.s 			page 2


  58 0088 00000000 		.word	0
  59 008c 00000000 		.word	0
  60 0090 00000000 		.word	0
  61 0094 FFFFFFFF 		.word	-1
  62 0098 00000000 		.word	0
  63 009c FFFF0000 		.word	65535
  64 00a0 00000000 		.word	0
  65 00a4 00000000 		.word	0
  66 00a8 00000000 		.word	0
  67 00ac 00000000 		.word	0
  68 00b0 FFFFFFFF 		.word	-1
  69 00b4 00000000 		.word	0
  70 00b8 FFFF0000 		.word	65535
  71 00bc 00000000 		.word	0
  72 00c0 00000000 		.word	0
  73 00c4 00000000 		.word	0
  74 00c8 00000000 		.word	0
  75 00cc FFFFFFFF 		.word	-1
  76 00d0 00000000 		.word	0
  77 00d4 FFFF0000 		.word	65535
  78 00d8 00000000 		.word	0
  79 00dc 00000000 		.word	0
  80 00e0 00000000 		.word	0
  81 00e4 00000000 		.word	0
  82 00e8 FFFFFFFF 		.word	-1
  83 00ec 00000000 		.word	0
  84 00f0 FFFF0000 		.word	65535
  85 00f4 00000000 		.word	0
  86 00f8 00000000 		.word	0
  87              		.section	.text.__early_init,"ax",%progbits
  88              		.align	2
  89              		.p2align 4,,15
  90              		.global	__early_init
  91              		.thumb
  92              		.thumb_func
  93              		.type	__early_init, %function
  94              	__early_init:
  95              	.LFB118:
  96              		.file 1 "../..//boards/ST_STM32F4_DISCOVERY/board.c"
  97              		.loc 1 54 0
  98              		.cfi_startproc
  99              		@ args = 0, pretend = 0, frame = 0
 100              		@ frame_needed = 0, uses_anonymous_args = 0
 101 0000 08B5     		push	{r3, lr}
 102              		.cfi_def_cfa_offset 8
 103              		.cfi_offset 3, -8
 104              		.cfi_offset 14, -4
 105              		.loc 1 56 0
 106 0002 FFF7FEFF 		bl	stm32_clock_init
 107              		.loc 1 57 0
 108 0006 08BD     		pop	{r3, pc}
 109              		.cfi_endproc
 110              	.LFE118:
 111              		.size	__early_init, .-__early_init
 112 0008 AFF30080 		.section	.text.sdc_lld_is_card_inserted,"ax",%progbits
 112      AFF30080 
 113              		.align	2
ARM GAS  /tmp/ccQaxyHL.s 			page 3


 114              		.p2align 4,,15
 115              		.global	sdc_lld_is_card_inserted
 116              		.thumb
 117              		.thumb_func
 118              		.type	sdc_lld_is_card_inserted, %function
 119              	sdc_lld_is_card_inserted:
 120              	.LFB119:
 121              		.loc 1 63 0
 122              		.cfi_startproc
 123              		@ args = 0, pretend = 0, frame = 8
 124              		@ frame_needed = 0, uses_anonymous_args = 0
 125              		@ link register save eliminated.
 126 0000 82B0     		sub	sp, sp, #8
 127              		.cfi_def_cfa_offset 8
 128 0002 0190     		str	r0, [sp, #4]
 129              		.loc 1 67 0
 130 0004 0123     		movs	r3, #1
 131              		.loc 1 68 0
 132 0006 1846     		mov	r0, r3
 133 0008 02B0     		add	sp, sp, #8
 134              		@ sp needed
 135 000a 7047     		bx	lr
 136              		.cfi_endproc
 137              	.LFE119:
 138              		.size	sdc_lld_is_card_inserted, .-sdc_lld_is_card_inserted
 139 000c AFF30080 		.section	.text.sdc_lld_is_write_protected,"ax",%progbits
 140              		.align	2
 141              		.p2align 4,,15
 142              		.global	sdc_lld_is_write_protected
 143              		.thumb
 144              		.thumb_func
 145              		.type	sdc_lld_is_write_protected, %function
 146              	sdc_lld_is_write_protected:
 147              	.LFB120:
 148              		.loc 1 73 0
 149              		.cfi_startproc
 150              		@ args = 0, pretend = 0, frame = 8
 151              		@ frame_needed = 0, uses_anonymous_args = 0
 152              		@ link register save eliminated.
 153 0000 82B0     		sub	sp, sp, #8
 154              		.cfi_def_cfa_offset 8
 155 0002 0190     		str	r0, [sp, #4]
 156              		.loc 1 77 0
 157 0004 0023     		movs	r3, #0
 158              		.loc 1 78 0
 159 0006 1846     		mov	r0, r3
 160 0008 02B0     		add	sp, sp, #8
 161              		@ sp needed
 162 000a 7047     		bx	lr
 163              		.cfi_endproc
 164              	.LFE120:
 165              		.size	sdc_lld_is_write_protected, .-sdc_lld_is_write_protected
 166 000c AFF30080 		.section	.text.boardInit,"ax",%progbits
 167              		.align	2
 168              		.p2align 4,,15
 169              		.global	boardInit
 170              		.thumb
ARM GAS  /tmp/ccQaxyHL.s 			page 4


 171              		.thumb_func
 172              		.type	boardInit, %function
 173              	boardInit:
 174              	.LFB121:
 175              		.loc 1 107 0
 176              		.cfi_startproc
 177              		@ args = 0, pretend = 0, frame = 0
 178              		@ frame_needed = 0, uses_anonymous_args = 0
 179              		@ link register save eliminated.
 180              		.loc 1 108 0
 181 0000 7047     		bx	lr
 182              		.cfi_endproc
 183              	.LFE121:
 184              		.size	boardInit, .-boardInit
 185 0002 00BFAFF3 		.text
 185      0080AFF3 
 185      0080AFF3 
 185      0080
 186              	.Letext0:
 187              		.file 2 "/usr/arm-none-eabi/include/machine/_default_types.h"
 188              		.file 3 "/usr/arm-none-eabi/include/stdint.h"
 189              		.file 4 "../..//os/ports/GCC/ARMCMx/chtypes.h"
 190              		.file 5 "../..//os/kernel/include/chlists.h"
 191              		.file 6 "../..//os/kernel/include/chthreads.h"
 192              		.file 7 "../..//os/ports/GCC/ARMCMx/chcore_v7m.h"
 193              		.file 8 "../..//os/kernel/include/chmtx.h"
 194              		.file 9 "../..//os/hal/platforms/STM32F4xx/stm32f4xx.h"
 195              		.file 10 "../..//os/hal/platforms/STM32F4xx/stm32_dma.h"
 196              		.file 11 "../..//os/hal/include/io_block.h"
 197              		.file 12 "../..//os/hal/platforms/STM32/GPIOv2/pal_lld.h"
 198              		.file 13 "../..//os/hal/platforms/STM32/sdc_lld.h"
 199              		.file 14 "../..//os/ports/common/ARMCMx/CMSIS/include/core_cm4.h"