ARM GAS  /tmp/cceBjwo8.s 			page 1


   1              		.syntax unified
   2              		.cpu cortex-m4
   3              		.fpu softvfp
   4              		.eabi_attribute 20, 1
   5              		.eabi_attribute 21, 1
   6              		.eabi_attribute 23, 3
   7              		.eabi_attribute 24, 1
   8              		.eabi_attribute 25, 1
   9              		.eabi_attribute 26, 1
  10              		.eabi_attribute 30, 6
  11              		.eabi_attribute 34, 1
  12              		.eabi_attribute 18, 4
  13              		.thumb
  14              		.file	"ccsbcs.c"
  15              		.text
  16              	.Ltext0:
  17              		.cfi_sections	.debug_frame
  18              		.section	.rodata.Tbl,"a",%progbits
  19              		.align	2
  20              		.type	Tbl, %object
  21              		.size	Tbl, 256
  22              	Tbl:
  23 0000 0204     		.short	1026
  24 0002 0304     		.short	1027
  25 0004 1A20     		.short	8218
  26 0006 5304     		.short	1107
  27 0008 1E20     		.short	8222
  28 000a 2620     		.short	8230
  29 000c 2020     		.short	8224
  30 000e 2120     		.short	8225
  31 0010 AC20     		.short	8364
  32 0012 3020     		.short	8240
  33 0014 0904     		.short	1033
  34 0016 3920     		.short	8249
  35 0018 0A04     		.short	1034
  36 001a 0C04     		.short	1036
  37 001c 0B04     		.short	1035
  38 001e 0F04     		.short	1039
  39 0020 5204     		.short	1106
  40 0022 1820     		.short	8216
  41 0024 1920     		.short	8217
  42 0026 1C20     		.short	8220
  43 0028 1D20     		.short	8221
  44 002a 2220     		.short	8226
  45 002c 1320     		.short	8211
  46 002e 1420     		.short	8212
  47 0030 0000     		.short	0
  48 0032 1121     		.short	8465
  49 0034 5904     		.short	1113
  50 0036 3A20     		.short	8250
  51 0038 5A04     		.short	1114
  52 003a 5C04     		.short	1116
  53 003c 5B04     		.short	1115
  54 003e 5F04     		.short	1119
  55 0040 A000     		.short	160
  56 0042 0E04     		.short	1038
  57 0044 5E04     		.short	1118
ARM GAS  /tmp/cceBjwo8.s 			page 2


  58 0046 0804     		.short	1032
  59 0048 A400     		.short	164
  60 004a 9004     		.short	1168
  61 004c A600     		.short	166
  62 004e A700     		.short	167
  63 0050 0104     		.short	1025
  64 0052 A900     		.short	169
  65 0054 0404     		.short	1028
  66 0056 AB00     		.short	171
  67 0058 AC00     		.short	172
  68 005a AD00     		.short	173
  69 005c AE00     		.short	174
  70 005e 0704     		.short	1031
  71 0060 B000     		.short	176
  72 0062 B100     		.short	177
  73 0064 0604     		.short	1030
  74 0066 5604     		.short	1110
  75 0068 9104     		.short	1169
  76 006a B500     		.short	181
  77 006c B600     		.short	182
  78 006e B700     		.short	183
  79 0070 5104     		.short	1105
  80 0072 1621     		.short	8470
  81 0074 5404     		.short	1108
  82 0076 BB00     		.short	187
  83 0078 5804     		.short	1112
  84 007a 0504     		.short	1029
  85 007c 5504     		.short	1109
  86 007e 5704     		.short	1111
  87 0080 1004     		.short	1040
  88 0082 1104     		.short	1041
  89 0084 1204     		.short	1042
  90 0086 1304     		.short	1043
  91 0088 1404     		.short	1044
  92 008a 1504     		.short	1045
  93 008c 1604     		.short	1046
  94 008e 1704     		.short	1047
  95 0090 1804     		.short	1048
  96 0092 1904     		.short	1049
  97 0094 1A04     		.short	1050
  98 0096 1B04     		.short	1051
  99 0098 1C04     		.short	1052
 100 009a 1D04     		.short	1053
 101 009c 1E04     		.short	1054
 102 009e 1F04     		.short	1055
 103 00a0 2004     		.short	1056
 104 00a2 2104     		.short	1057
 105 00a4 2204     		.short	1058
 106 00a6 2304     		.short	1059
 107 00a8 2404     		.short	1060
 108 00aa 2504     		.short	1061
 109 00ac 2604     		.short	1062
 110 00ae 2704     		.short	1063
 111 00b0 2804     		.short	1064
 112 00b2 2904     		.short	1065
 113 00b4 2A04     		.short	1066
 114 00b6 2B04     		.short	1067
ARM GAS  /tmp/cceBjwo8.s 			page 3


 115 00b8 2C04     		.short	1068
 116 00ba 2D04     		.short	1069
 117 00bc 2E04     		.short	1070
 118 00be 2F04     		.short	1071
 119 00c0 3004     		.short	1072
 120 00c2 3104     		.short	1073
 121 00c4 3204     		.short	1074
 122 00c6 3304     		.short	1075
 123 00c8 3404     		.short	1076
 124 00ca 3504     		.short	1077
 125 00cc 3604     		.short	1078
 126 00ce 3704     		.short	1079
 127 00d0 3804     		.short	1080
 128 00d2 3904     		.short	1081
 129 00d4 3A04     		.short	1082
 130 00d6 3B04     		.short	1083
 131 00d8 3C04     		.short	1084
 132 00da 3D04     		.short	1085
 133 00dc 3E04     		.short	1086
 134 00de 3F04     		.short	1087
 135 00e0 4004     		.short	1088
 136 00e2 4104     		.short	1089
 137 00e4 4204     		.short	1090
 138 00e6 4304     		.short	1091
 139 00e8 4404     		.short	1092
 140 00ea 4504     		.short	1093
 141 00ec 4604     		.short	1094
 142 00ee 4704     		.short	1095
 143 00f0 4804     		.short	1096
 144 00f2 4904     		.short	1097
 145 00f4 4A04     		.short	1098
 146 00f6 4B04     		.short	1099
 147 00f8 4C04     		.short	1100
 148 00fa 4D04     		.short	1101
 149 00fc 4E04     		.short	1102
 150 00fe 4F04     		.short	1103
 151              		.section	.text.ff_convert,"ax",%progbits
 152              		.align	2
 153              		.p2align 4,,15
 154              		.global	ff_convert
 155              		.thumb
 156              		.thumb_func
 157              		.type	ff_convert, %function
 158              	ff_convert:
 159              	.LFB7:
 160              		.file 1 "../..//ext/fatfs/src/option/ccsbcs.c"
 161              		.loc 1 505 0
 162              		.cfi_startproc
 163              		@ args = 0, pretend = 0, frame = 16
 164              		@ frame_needed = 0, uses_anonymous_args = 0
 165              		@ link register save eliminated.
 166 0000 84B0     		sub	sp, sp, #16
 167              		.cfi_def_cfa_offset 16
 168 0002 0346     		mov	r3, r0
 169 0004 0091     		str	r1, [sp]
 170 0006 ADF80630 		strh	r3, [sp, #6]	@ movhi
 171              		.loc 1 509 0
ARM GAS  /tmp/cceBjwo8.s 			page 4


 172 000a BDF80630 		ldrh	r3, [sp, #6]
 173 000e 7F2B     		cmp	r3, #127
 174 0010 04D8     		bhi	.L2
 175              		.loc 1 510 0
 176 0012 BDF80630 		ldrh	r3, [sp, #6]	@ movhi
 177 0016 ADF80E30 		strh	r3, [sp, #14]	@ movhi
 178 001a 36E0     		b	.L3
 179              	.L2:
 180              		.loc 1 513 0
 181 001c 009B     		ldr	r3, [sp]
 182 001e 002B     		cmp	r3, #0
 183 0020 12D0     		beq	.L4
 184              		.loc 1 514 0
 185 0022 BDF80630 		ldrh	r3, [sp, #6]
 186 0026 FF2B     		cmp	r3, #255
 187 0028 0AD8     		bhi	.L5
 188              		.loc 1 514 0 is_stmt 0 discriminator 1
 189 002a BDF80630 		ldrh	r3, [sp, #6]
 190 002e A3F18002 		sub	r2, r3, #128
 191 0032 40F20003 		movw	r3, #:lower16:Tbl
 192 0036 C0F20003 		movt	r3, #:upper16:Tbl
 193 003a 33F81230 		ldrh	r3, [r3, r2, lsl #1]
 194 003e 00E0     		b	.L6
 195              	.L5:
 196              		.loc 1 514 0 discriminator 2
 197 0040 0023     		movs	r3, #0
 198              	.L6:
 199              		.loc 1 514 0 discriminator 1
 200 0042 ADF80E30 		strh	r3, [sp, #14]	@ movhi
 201 0046 20E0     		b	.L3
 202              	.L4:
 203              		.loc 1 517 0 is_stmt 1
 204 0048 0023     		movs	r3, #0
 205 004a ADF80E30 		strh	r3, [sp, #14]	@ movhi
 206 004e 11E0     		b	.L7
 207              	.L10:
 208              		.loc 1 518 0
 209 0050 BDF80E20 		ldrh	r2, [sp, #14]
 210 0054 40F20003 		movw	r3, #:lower16:Tbl
 211 0058 C0F20003 		movt	r3, #:upper16:Tbl
 212 005c 33F81230 		ldrh	r3, [r3, r2, lsl #1]
 213 0060 BDF80620 		ldrh	r2, [sp, #6]
 214 0064 9A42     		cmp	r2, r3
 215 0066 00D1     		bne	.L8
 216              		.loc 1 518 0 is_stmt 0 discriminator 1
 217 0068 08E0     		b	.L9
 218              	.L8:
 219              		.loc 1 517 0 is_stmt 1
 220 006a BDF80E30 		ldrh	r3, [sp, #14]
 221 006e 0133     		adds	r3, r3, #1
 222 0070 ADF80E30 		strh	r3, [sp, #14]	@ movhi
 223              	.L7:
 224              		.loc 1 517 0 is_stmt 0 discriminator 1
 225 0074 BDF80E30 		ldrh	r3, [sp, #14]
 226 0078 7F2B     		cmp	r3, #127
 227 007a E9D9     		bls	.L10
 228              	.L9:
ARM GAS  /tmp/cceBjwo8.s 			page 5


 229              		.loc 1 520 0 is_stmt 1
 230 007c BDF80E30 		ldrh	r3, [sp, #14]	@ movhi
 231 0080 8033     		adds	r3, r3, #128
 232 0082 9BB2     		uxth	r3, r3
 233 0084 DBB2     		uxtb	r3, r3
 234 0086 ADF80E30 		strh	r3, [sp, #14]	@ movhi
 235              	.L3:
 236              		.loc 1 524 0
 237 008a BDF80E30 		ldrh	r3, [sp, #14]
 238              		.loc 1 525 0
 239 008e 1846     		mov	r0, r3
 240 0090 04B0     		add	sp, sp, #16
 241              		@ sp needed
 242 0092 7047     		bx	lr
 243              		.cfi_endproc
 244              	.LFE7:
 245              		.size	ff_convert, .-ff_convert
 246              		.section	.text.ff_wtoupper,"ax",%progbits
 247              		.align	2
 248              		.p2align 4,,15
 249              		.global	ff_wtoupper
 250              		.thumb
 251              		.thumb_func
 252              		.type	ff_wtoupper, %function
 253              	ff_wtoupper:
 254              	.LFB8:
 255              		.loc 1 531 0
 256              		.cfi_startproc
 257              		@ args = 0, pretend = 0, frame = 16
 258              		@ frame_needed = 0, uses_anonymous_args = 0
 259              		@ link register save eliminated.
 260 0000 84B0     		sub	sp, sp, #16
 261              		.cfi_def_cfa_offset 16
 262 0002 0346     		mov	r3, r0
 263 0004 ADF80630 		strh	r3, [sp, #6]	@ movhi
 264              		.loc 1 537 0
 265 0008 0023     		movs	r3, #0
 266 000a 0393     		str	r3, [sp, #12]
 267 000c 02E0     		b	.L13
 268              	.L15:
 269              		.loc 1 537 0 is_stmt 0 discriminator 1
 270 000e 039B     		ldr	r3, [sp, #12]
 271 0010 0133     		adds	r3, r3, #1
 272 0012 0393     		str	r3, [sp, #12]
 273              	.L13:
 274 0014 40F20003 		movw	r3, #:lower16:tbl_lower.5033
 275 0018 C0F20003 		movt	r3, #:upper16:tbl_lower.5033
 276 001c 039A     		ldr	r2, [sp, #12]
 277 001e 33F81230 		ldrh	r3, [r3, r2, lsl #1]
 278 0022 002B     		cmp	r3, #0
 279 0024 0AD0     		beq	.L14
 280              		.loc 1 537 0 discriminator 2
 281 0026 40F20003 		movw	r3, #:lower16:tbl_lower.5033
 282 002a C0F20003 		movt	r3, #:upper16:tbl_lower.5033
 283 002e 039A     		ldr	r2, [sp, #12]
 284 0030 33F81230 		ldrh	r3, [r3, r2, lsl #1]
 285 0034 BDF80620 		ldrh	r2, [sp, #6]
ARM GAS  /tmp/cceBjwo8.s 			page 6


 286 0038 9A42     		cmp	r2, r3
 287 003a E8D1     		bne	.L15
 288              	.L14:
 289              		.loc 1 539 0 is_stmt 1
 290 003c 40F20003 		movw	r3, #:lower16:tbl_lower.5033
 291 0040 C0F20003 		movt	r3, #:upper16:tbl_lower.5033
 292 0044 039A     		ldr	r2, [sp, #12]
 293 0046 33F81230 		ldrh	r3, [r3, r2, lsl #1]
 294 004a 002B     		cmp	r3, #0
 295 004c 07D0     		beq	.L16
 296              		.loc 1 539 0 is_stmt 0 discriminator 1
 297 004e 40F20003 		movw	r3, #:lower16:tbl_upper.5034
 298 0052 C0F20003 		movt	r3, #:upper16:tbl_upper.5034
 299 0056 039A     		ldr	r2, [sp, #12]
 300 0058 33F81230 		ldrh	r3, [r3, r2, lsl #1]
 301 005c 01E0     		b	.L17
 302              	.L16:
 303              		.loc 1 539 0 discriminator 2
 304 005e BDF80630 		ldrh	r3, [sp, #6]
 305              	.L17:
 306              		.loc 1 540 0 is_stmt 1 discriminator 3
 307 0062 1846     		mov	r0, r3
 308 0064 04B0     		add	sp, sp, #16
 309              		@ sp needed
 310 0066 7047     		bx	lr
 311              		.cfi_endproc
 312              	.LFE8:
 313              		.size	ff_wtoupper, .-ff_wtoupper
 314 0068 AFF30080 		.section	.rodata.tbl_lower.5033,"a",%progbits
 314      AFF30080 
 315              		.align	2
 316              		.type	tbl_lower.5033, %object
 317              		.size	tbl_lower.5033, 480
 318              	tbl_lower.5033:
 319 0000 6100     		.short	97
 320 0002 6200     		.short	98
 321 0004 6300     		.short	99
 322 0006 6400     		.short	100
 323 0008 6500     		.short	101
 324 000a 6600     		.short	102
 325 000c 6700     		.short	103
 326 000e 6800     		.short	104
 327 0010 6900     		.short	105
 328 0012 6A00     		.short	106
 329 0014 6B00     		.short	107
 330 0016 6C00     		.short	108
 331 0018 6D00     		.short	109
 332 001a 6E00     		.short	110
 333 001c 6F00     		.short	111
 334 001e 7000     		.short	112
 335 0020 7100     		.short	113
 336 0022 7200     		.short	114
 337 0024 7300     		.short	115
 338 0026 7400     		.short	116
 339 0028 7500     		.short	117
 340 002a 7600     		.short	118
 341 002c 7700     		.short	119
ARM GAS  /tmp/cceBjwo8.s 			page 7


 342 002e 7800     		.short	120
 343 0030 7900     		.short	121
 344 0032 7A00     		.short	122
 345 0034 A100     		.short	161
 346 0036 A200     		.short	162
 347 0038 A300     		.short	163
 348 003a A500     		.short	165
 349 003c AC00     		.short	172
 350 003e AF00     		.short	175
 351 0040 E000     		.short	224
 352 0042 E100     		.short	225
 353 0044 E200     		.short	226
 354 0046 E300     		.short	227
 355 0048 E400     		.short	228
 356 004a E500     		.short	229
 357 004c E600     		.short	230
 358 004e E700     		.short	231
 359 0050 E800     		.short	232
 360 0052 E900     		.short	233
 361 0054 EA00     		.short	234
 362 0056 EB00     		.short	235
 363 0058 EC00     		.short	236
 364 005a ED00     		.short	237
 365 005c EE00     		.short	238
 366 005e EF00     		.short	239
 367 0060 F000     		.short	240
 368 0062 F100     		.short	241
 369 0064 F200     		.short	242
 370 0066 F300     		.short	243
 371 0068 F400     		.short	244
 372 006a F500     		.short	245
 373 006c F600     		.short	246
 374 006e F800     		.short	248
 375 0070 F900     		.short	249
 376 0072 FA00     		.short	250
 377 0074 FB00     		.short	251
 378 0076 FC00     		.short	252
 379 0078 FD00     		.short	253
 380 007a FE00     		.short	254
 381 007c FF00     		.short	255
 382 007e 0101     		.short	257
 383 0080 0301     		.short	259
 384 0082 0501     		.short	261
 385 0084 0701     		.short	263
 386 0086 0901     		.short	265
 387 0088 0B01     		.short	267
 388 008a 0D01     		.short	269
 389 008c 0F01     		.short	271
 390 008e 1101     		.short	273
 391 0090 1301     		.short	275
 392 0092 1501     		.short	277
 393 0094 1701     		.short	279
 394 0096 1901     		.short	281
 395 0098 1B01     		.short	283
 396 009a 1D01     		.short	285
 397 009c 1F01     		.short	287
 398 009e 2101     		.short	289
ARM GAS  /tmp/cceBjwo8.s 			page 8


 399 00a0 2301     		.short	291
 400 00a2 2501     		.short	293
 401 00a4 2701     		.short	295
 402 00a6 2901     		.short	297
 403 00a8 2B01     		.short	299
 404 00aa 2D01     		.short	301
 405 00ac 2F01     		.short	303
 406 00ae 3101     		.short	305
 407 00b0 3301     		.short	307
 408 00b2 3501     		.short	309
 409 00b4 3701     		.short	311
 410 00b6 3A01     		.short	314
 411 00b8 3C01     		.short	316
 412 00ba 3E01     		.short	318
 413 00bc 4001     		.short	320
 414 00be 4201     		.short	322
 415 00c0 4401     		.short	324
 416 00c2 4601     		.short	326
 417 00c4 4801     		.short	328
 418 00c6 4B01     		.short	331
 419 00c8 4D01     		.short	333
 420 00ca 4F01     		.short	335
 421 00cc 5101     		.short	337
 422 00ce 5301     		.short	339
 423 00d0 5501     		.short	341
 424 00d2 5701     		.short	343
 425 00d4 5901     		.short	345
 426 00d6 5B01     		.short	347
 427 00d8 5D01     		.short	349
 428 00da 5F01     		.short	351
 429 00dc 6101     		.short	353
 430 00de 6301     		.short	355
 431 00e0 6501     		.short	357
 432 00e2 6701     		.short	359
 433 00e4 6901     		.short	361
 434 00e6 6B01     		.short	363
 435 00e8 6D01     		.short	365
 436 00ea 6F01     		.short	367
 437 00ec 7101     		.short	369
 438 00ee 7301     		.short	371
 439 00f0 7501     		.short	373
 440 00f2 7701     		.short	375
 441 00f4 7A01     		.short	378
 442 00f6 7C01     		.short	380
 443 00f8 7E01     		.short	382
 444 00fa 9201     		.short	402
 445 00fc B103     		.short	945
 446 00fe B203     		.short	946
 447 0100 B303     		.short	947
 448 0102 B403     		.short	948
 449 0104 B503     		.short	949
 450 0106 B603     		.short	950
 451 0108 B703     		.short	951
 452 010a B803     		.short	952
 453 010c B903     		.short	953
 454 010e BA03     		.short	954
 455 0110 BB03     		.short	955
ARM GAS  /tmp/cceBjwo8.s 			page 9


 456 0112 BC03     		.short	956
 457 0114 BD03     		.short	957
 458 0116 BE03     		.short	958
 459 0118 BF03     		.short	959
 460 011a C003     		.short	960
 461 011c C103     		.short	961
 462 011e C303     		.short	963
 463 0120 C403     		.short	964
 464 0122 C503     		.short	965
 465 0124 C603     		.short	966
 466 0126 C703     		.short	967
 467 0128 C803     		.short	968
 468 012a C903     		.short	969
 469 012c CA03     		.short	970
 470 012e 3004     		.short	1072
 471 0130 3104     		.short	1073
 472 0132 3204     		.short	1074
 473 0134 3304     		.short	1075
 474 0136 3404     		.short	1076
 475 0138 3504     		.short	1077
 476 013a 3604     		.short	1078
 477 013c 3704     		.short	1079
 478 013e 3804     		.short	1080
 479 0140 3904     		.short	1081
 480 0142 3A04     		.short	1082
 481 0144 3B04     		.short	1083
 482 0146 3C04     		.short	1084
 483 0148 3D04     		.short	1085
 484 014a 3E04     		.short	1086
 485 014c 3F04     		.short	1087
 486 014e 4004     		.short	1088
 487 0150 4104     		.short	1089
 488 0152 4204     		.short	1090
 489 0154 4304     		.short	1091
 490 0156 4404     		.short	1092
 491 0158 4504     		.short	1093
 492 015a 4604     		.short	1094
 493 015c 4704     		.short	1095
 494 015e 4804     		.short	1096
 495 0160 4904     		.short	1097
 496 0162 4A04     		.short	1098
 497 0164 4B04     		.short	1099
 498 0166 4C04     		.short	1100
 499 0168 4D04     		.short	1101
 500 016a 4E04     		.short	1102
 501 016c 4F04     		.short	1103
 502 016e 5104     		.short	1105
 503 0170 5204     		.short	1106
 504 0172 5304     		.short	1107
 505 0174 5404     		.short	1108
 506 0176 5504     		.short	1109
 507 0178 5604     		.short	1110
 508 017a 5704     		.short	1111
 509 017c 5804     		.short	1112
 510 017e 5904     		.short	1113
 511 0180 5A04     		.short	1114
 512 0182 5B04     		.short	1115
ARM GAS  /tmp/cceBjwo8.s 			page 10


 513 0184 5C04     		.short	1116
 514 0186 5E04     		.short	1118
 515 0188 5F04     		.short	1119
 516 018a 7021     		.short	8560
 517 018c 7121     		.short	8561
 518 018e 7221     		.short	8562
 519 0190 7321     		.short	8563
 520 0192 7421     		.short	8564
 521 0194 7521     		.short	8565
 522 0196 7621     		.short	8566
 523 0198 7721     		.short	8567
 524 019a 7821     		.short	8568
 525 019c 7921     		.short	8569
 526 019e 7A21     		.short	8570
 527 01a0 7B21     		.short	8571
 528 01a2 7C21     		.short	8572
 529 01a4 7D21     		.short	8573
 530 01a6 7E21     		.short	8574
 531 01a8 7F21     		.short	8575
 532 01aa 41FF     		.short	-191
 533 01ac 42FF     		.short	-190
 534 01ae 43FF     		.short	-189
 535 01b0 44FF     		.short	-188
 536 01b2 45FF     		.short	-187
 537 01b4 46FF     		.short	-186
 538 01b6 47FF     		.short	-185
 539 01b8 48FF     		.short	-184
 540 01ba 49FF     		.short	-183
 541 01bc 4AFF     		.short	-182
 542 01be 4BFF     		.short	-181
 543 01c0 4CFF     		.short	-180
 544 01c2 4DFF     		.short	-179
 545 01c4 4EFF     		.short	-178
 546 01c6 4FFF     		.short	-177
 547 01c8 50FF     		.short	-176
 548 01ca 51FF     		.short	-175
 549 01cc 52FF     		.short	-174
 550 01ce 53FF     		.short	-173
 551 01d0 54FF     		.short	-172
 552 01d2 55FF     		.short	-171
 553 01d4 56FF     		.short	-170
 554 01d6 57FF     		.short	-169
 555 01d8 58FF     		.short	-168
 556 01da 59FF     		.short	-167
 557 01dc 5AFF     		.short	-166
 558 01de 0000     		.short	0
 559              		.section	.rodata.tbl_upper.5034,"a",%progbits
 560              		.align	2
 561              		.type	tbl_upper.5034, %object
 562              		.size	tbl_upper.5034, 480
 563              	tbl_upper.5034:
 564 0000 4100     		.short	65
 565 0002 4200     		.short	66
 566 0004 4300     		.short	67
 567 0006 4400     		.short	68
 568 0008 4500     		.short	69
 569 000a 4600     		.short	70
ARM GAS  /tmp/cceBjwo8.s 			page 11


 570 000c 4700     		.short	71
 571 000e 4800     		.short	72
 572 0010 4900     		.short	73
 573 0012 4A00     		.short	74
 574 0014 4B00     		.short	75
 575 0016 4C00     		.short	76
 576 0018 4D00     		.short	77
 577 001a 4E00     		.short	78
 578 001c 4F00     		.short	79
 579 001e 5000     		.short	80
 580 0020 5100     		.short	81
 581 0022 5200     		.short	82
 582 0024 5300     		.short	83
 583 0026 5400     		.short	84
 584 0028 5500     		.short	85
 585 002a 5600     		.short	86
 586 002c 5700     		.short	87
 587 002e 5800     		.short	88
 588 0030 5900     		.short	89
 589 0032 5A00     		.short	90
 590 0034 2100     		.short	33
 591 0036 E0FF     		.short	-32
 592 0038 E1FF     		.short	-31
 593 003a E5FF     		.short	-27
 594 003c E2FF     		.short	-30
 595 003e E3FF     		.short	-29
 596 0040 C000     		.short	192
 597 0042 C100     		.short	193
 598 0044 C200     		.short	194
 599 0046 C300     		.short	195
 600 0048 C400     		.short	196
 601 004a C500     		.short	197
 602 004c C600     		.short	198
 603 004e C700     		.short	199
 604 0050 C800     		.short	200
 605 0052 C900     		.short	201
 606 0054 CA00     		.short	202
 607 0056 CB00     		.short	203
 608 0058 CC00     		.short	204
 609 005a CD00     		.short	205
 610 005c CE00     		.short	206
 611 005e CF00     		.short	207
 612 0060 D000     		.short	208
 613 0062 D100     		.short	209
 614 0064 D200     		.short	210
 615 0066 D300     		.short	211
 616 0068 D400     		.short	212
 617 006a D500     		.short	213
 618 006c D600     		.short	214
 619 006e D800     		.short	216
 620 0070 D900     		.short	217
 621 0072 DA00     		.short	218
 622 0074 DB00     		.short	219
 623 0076 DC00     		.short	220
 624 0078 DD00     		.short	221
 625 007a DE00     		.short	222
 626 007c 7801     		.short	376
ARM GAS  /tmp/cceBjwo8.s 			page 12


 627 007e 0001     		.short	256
 628 0080 0201     		.short	258
 629 0082 0401     		.short	260
 630 0084 0601     		.short	262
 631 0086 0801     		.short	264
 632 0088 0A01     		.short	266
 633 008a 0C01     		.short	268
 634 008c 0E01     		.short	270
 635 008e 1001     		.short	272
 636 0090 1201     		.short	274
 637 0092 1401     		.short	276
 638 0094 1601     		.short	278
 639 0096 1801     		.short	280
 640 0098 1A01     		.short	282
 641 009a 1C01     		.short	284
 642 009c 1E01     		.short	286
 643 009e 2001     		.short	288
 644 00a0 2201     		.short	290
 645 00a2 2401     		.short	292
 646 00a4 2601     		.short	294
 647 00a6 2801     		.short	296
 648 00a8 2A01     		.short	298
 649 00aa 2C01     		.short	300
 650 00ac 2E01     		.short	302
 651 00ae 3001     		.short	304
 652 00b0 3201     		.short	306
 653 00b2 3401     		.short	308
 654 00b4 3601     		.short	310
 655 00b6 3901     		.short	313
 656 00b8 3B01     		.short	315
 657 00ba 3D01     		.short	317
 658 00bc 3F01     		.short	319
 659 00be 4101     		.short	321
 660 00c0 4301     		.short	323
 661 00c2 4501     		.short	325
 662 00c4 4701     		.short	327
 663 00c6 4A01     		.short	330
 664 00c8 4C01     		.short	332
 665 00ca 4E01     		.short	334
 666 00cc 5001     		.short	336
 667 00ce 5201     		.short	338
 668 00d0 5401     		.short	340
 669 00d2 5601     		.short	342
 670 00d4 5801     		.short	344
 671 00d6 5A01     		.short	346
 672 00d8 5C01     		.short	348
 673 00da 5E01     		.short	350
 674 00dc 6001     		.short	352
 675 00de 6201     		.short	354
 676 00e0 6401     		.short	356
 677 00e2 6601     		.short	358
 678 00e4 6801     		.short	360
 679 00e6 6A01     		.short	362
 680 00e8 6C01     		.short	364
 681 00ea 6E01     		.short	366
 682 00ec 7001     		.short	368
 683 00ee 7201     		.short	370
ARM GAS  /tmp/cceBjwo8.s 			page 13


 684 00f0 7401     		.short	372
 685 00f2 7601     		.short	374
 686 00f4 7901     		.short	377
 687 00f6 7B01     		.short	379
 688 00f8 7D01     		.short	381
 689 00fa 9101     		.short	401
 690 00fc 9103     		.short	913
 691 00fe 9203     		.short	914
 692 0100 9303     		.short	915
 693 0102 9403     		.short	916
 694 0104 9503     		.short	917
 695 0106 9603     		.short	918
 696 0108 9703     		.short	919
 697 010a 9803     		.short	920
 698 010c 9903     		.short	921
 699 010e 9A03     		.short	922
 700 0110 9B03     		.short	923
 701 0112 9C03     		.short	924
 702 0114 9D03     		.short	925
 703 0116 9E03     		.short	926
 704 0118 9F03     		.short	927
 705 011a A003     		.short	928
 706 011c A103     		.short	929
 707 011e A303     		.short	931
 708 0120 A403     		.short	932
 709 0122 A503     		.short	933
 710 0124 A603     		.short	934
 711 0126 A703     		.short	935
 712 0128 A803     		.short	936
 713 012a A903     		.short	937
 714 012c AA03     		.short	938
 715 012e 1004     		.short	1040
 716 0130 1104     		.short	1041
 717 0132 1204     		.short	1042
 718 0134 1304     		.short	1043
 719 0136 1404     		.short	1044
 720 0138 1504     		.short	1045
 721 013a 1604     		.short	1046
 722 013c 1704     		.short	1047
 723 013e 1804     		.short	1048
 724 0140 1904     		.short	1049
 725 0142 1A04     		.short	1050
 726 0144 1B04     		.short	1051
 727 0146 1C04     		.short	1052
 728 0148 1D04     		.short	1053
 729 014a 1E04     		.short	1054
 730 014c 1F04     		.short	1055
 731 014e 2004     		.short	1056
 732 0150 2104     		.short	1057
 733 0152 2204     		.short	1058
 734 0154 2304     		.short	1059
 735 0156 2404     		.short	1060
 736 0158 2504     		.short	1061
 737 015a 2604     		.short	1062
 738 015c 2704     		.short	1063
 739 015e 2804     		.short	1064
 740 0160 2904     		.short	1065
ARM GAS  /tmp/cceBjwo8.s 			page 14


 741 0162 2A04     		.short	1066
 742 0164 2B04     		.short	1067
 743 0166 2C04     		.short	1068
 744 0168 2D04     		.short	1069
 745 016a 2E04     		.short	1070
 746 016c 2F04     		.short	1071
 747 016e 0104     		.short	1025
 748 0170 0204     		.short	1026
 749 0172 0304     		.short	1027
 750 0174 0404     		.short	1028
 751 0176 0504     		.short	1029
 752 0178 0604     		.short	1030
 753 017a 0704     		.short	1031
 754 017c 0804     		.short	1032
 755 017e 0904     		.short	1033
 756 0180 0A04     		.short	1034
 757 0182 0B04     		.short	1035
 758 0184 0C04     		.short	1036
 759 0186 0E04     		.short	1038
 760 0188 0F04     		.short	1039
 761 018a 6021     		.short	8544
 762 018c 6121     		.short	8545
 763 018e 6221     		.short	8546
 764 0190 6321     		.short	8547
 765 0192 6421     		.short	8548
 766 0194 6521     		.short	8549
 767 0196 6621     		.short	8550
 768 0198 6721     		.short	8551
 769 019a 6821     		.short	8552
 770 019c 6921     		.short	8553
 771 019e 6A21     		.short	8554
 772 01a0 6B21     		.short	8555
 773 01a2 6C21     		.short	8556
 774 01a4 6D21     		.short	8557
 775 01a6 6E21     		.short	8558
 776 01a8 6F21     		.short	8559
 777 01aa 21FF     		.short	-223
 778 01ac 22FF     		.short	-222
 779 01ae 23FF     		.short	-221
 780 01b0 24FF     		.short	-220
 781 01b2 25FF     		.short	-219
 782 01b4 26FF     		.short	-218
 783 01b6 27FF     		.short	-217
 784 01b8 28FF     		.short	-216
 785 01ba 29FF     		.short	-215
 786 01bc 2AFF     		.short	-214
 787 01be 2BFF     		.short	-213
 788 01c0 2CFF     		.short	-212
 789 01c2 2DFF     		.short	-211
 790 01c4 2EFF     		.short	-210
 791 01c6 2FFF     		.short	-209
 792 01c8 30FF     		.short	-208
 793 01ca 31FF     		.short	-207
 794 01cc 32FF     		.short	-206
 795 01ce 33FF     		.short	-205
 796 01d0 34FF     		.short	-204
 797 01d2 35FF     		.short	-203
ARM GAS  /tmp/cceBjwo8.s 			page 15


 798 01d4 36FF     		.short	-202
 799 01d6 37FF     		.short	-201
 800 01d8 38FF     		.short	-200
 801 01da 39FF     		.short	-199
 802 01dc 3AFF     		.short	-198
 803 01de 0000     		.short	0
 804              		.text
 805              	.Letext0:
 806              		.file 2 "../..//ext/fatfs/src/option/../integer.h"
 807              		.section	.debug_info,"",%progbits
 808              	.Ldebug_info0:
 809 0000 75010000 		.4byte	0x175
 810 0004 0400     		.2byte	0x4
 811 0006 00000000 		.4byte	.Ldebug_abbrev0
 812 000a 04       		.byte	0x4
 813 000b 01       		.uleb128 0x1
 814 000c 2E000000 		.4byte	.LASF18
 815 0010 01       		.byte	0x1
 816 0011 2A010000 		.4byte	.LASF19
 817 0015 73010000 		.4byte	.LASF20
 818 0019 00000000 		.4byte	.Ldebug_ranges0+0
 819 001d 00000000 		.4byte	0
 820 0021 00000000 		.4byte	.Ldebug_line0
 821 0025 02       		.uleb128 0x2
 822 0026 04       		.byte	0x4
 823 0027 05       		.byte	0x5
 824 0028 696E7400 		.ascii	"int\000"
 825 002c 03       		.uleb128 0x3
 826 002d 1C010000 		.4byte	.LASF5
 827 0031 02       		.byte	0x2
 828 0032 11       		.byte	0x11
 829 0033 37000000 		.4byte	0x37
 830 0037 04       		.uleb128 0x4
 831 0038 04       		.byte	0x4
 832 0039 07       		.byte	0x7
 833 003a 21000000 		.4byte	.LASF0
 834 003e 04       		.uleb128 0x4
 835 003f 01       		.byte	0x1
 836 0040 08       		.byte	0x8
 837 0041 17010000 		.4byte	.LASF1
 838 0045 04       		.uleb128 0x4
 839 0046 01       		.byte	0x1
 840 0047 08       		.byte	0x8
 841 0048 09010000 		.4byte	.LASF2
 842 004c 04       		.uleb128 0x4
 843 004d 02       		.byte	0x2
 844 004e 05       		.byte	0x5
 845 004f C2010000 		.4byte	.LASF3
 846 0053 04       		.uleb128 0x4
 847 0054 02       		.byte	0x2
 848 0055 07       		.byte	0x7
 849 0056 0E000000 		.4byte	.LASF4
 850 005a 03       		.uleb128 0x3
 851 005b CB000000 		.4byte	.LASF6
 852 005f 02       		.byte	0x2
 853 0060 1C       		.byte	0x1c
 854 0061 53000000 		.4byte	0x53
ARM GAS  /tmp/cceBjwo8.s 			page 16


 855 0065 04       		.uleb128 0x4
 856 0066 04       		.byte	0x4
 857 0067 05       		.byte	0x5
 858 0068 21010000 		.4byte	.LASF7
 859 006c 04       		.uleb128 0x4
 860 006d 04       		.byte	0x4
 861 006e 07       		.byte	0x7
 862 006f 4F010000 		.4byte	.LASF8
 863 0073 04       		.uleb128 0x4
 864 0074 01       		.byte	0x1
 865 0075 06       		.byte	0x6
 866 0076 67010000 		.4byte	.LASF9
 867 007a 04       		.uleb128 0x4
 868 007b 08       		.byte	0x8
 869 007c 05       		.byte	0x5
 870 007d 00000000 		.4byte	.LASF10
 871 0081 04       		.uleb128 0x4
 872 0082 08       		.byte	0x8
 873 0083 07       		.byte	0x7
 874 0084 DD000000 		.4byte	.LASF11
 875 0088 04       		.uleb128 0x4
 876 0089 01       		.byte	0x1
 877 008a 02       		.byte	0x2
 878 008b 61010000 		.4byte	.LASF12
 879 008f 04       		.uleb128 0x4
 880 0090 04       		.byte	0x4
 881 0091 07       		.byte	0x7
 882 0092 B9010000 		.4byte	.LASF13
 883 0096 05       		.uleb128 0x5
 884 0097 FE000000 		.4byte	.LASF14
 885 009b 01       		.byte	0x1
 886 009c F501     		.2byte	0x1f5
 887 009e 5A000000 		.4byte	0x5a
 888 00a2 00000000 		.4byte	.LFB7
 889 00a6 94000000 		.4byte	.LFE7-.LFB7
 890 00aa 01       		.uleb128 0x1
 891 00ab 9C       		.byte	0x9c
 892 00ac DC000000 		.4byte	0xdc
 893 00b0 06       		.uleb128 0x6
 894 00b1 73726300 		.ascii	"src\000"
 895 00b5 01       		.byte	0x1
 896 00b6 F601     		.2byte	0x1f6
 897 00b8 5A000000 		.4byte	0x5a
 898 00bc 02       		.uleb128 0x2
 899 00bd 91       		.byte	0x91
 900 00be 76       		.sleb128 -10
 901 00bf 06       		.uleb128 0x6
 902 00c0 64697200 		.ascii	"dir\000"
 903 00c4 01       		.byte	0x1
 904 00c5 F701     		.2byte	0x1f7
 905 00c7 2C000000 		.4byte	0x2c
 906 00cb 02       		.uleb128 0x2
 907 00cc 91       		.byte	0x91
 908 00cd 70       		.sleb128 -16
 909 00ce 07       		.uleb128 0x7
 910 00cf 6300     		.ascii	"c\000"
 911 00d1 01       		.byte	0x1
ARM GAS  /tmp/cceBjwo8.s 			page 17


 912 00d2 FA01     		.2byte	0x1fa
 913 00d4 5A000000 		.4byte	0x5a
 914 00d8 02       		.uleb128 0x2
 915 00d9 91       		.byte	0x91
 916 00da 7E       		.sleb128 -2
 917 00db 00       		.byte	0
 918 00dc 05       		.uleb128 0x5
 919 00dd D1000000 		.4byte	.LASF15
 920 00e1 01       		.byte	0x1
 921 00e2 1002     		.2byte	0x210
 922 00e4 5A000000 		.4byte	0x5a
 923 00e8 00000000 		.4byte	.LFB8
 924 00ec 68000000 		.4byte	.LFE8-.LFB8
 925 00f0 01       		.uleb128 0x1
 926 00f1 9C       		.byte	0x9c
 927 00f2 37010000 		.4byte	0x137
 928 00f6 06       		.uleb128 0x6
 929 00f7 63687200 		.ascii	"chr\000"
 930 00fb 01       		.byte	0x1
 931 00fc 1102     		.2byte	0x211
 932 00fe 5A000000 		.4byte	0x5a
 933 0102 02       		.uleb128 0x2
 934 0103 91       		.byte	0x91
 935 0104 76       		.sleb128 -10
 936 0105 08       		.uleb128 0x8
 937 0106 F4000000 		.4byte	.LASF16
 938 010a 01       		.byte	0x1
 939 010b 1402     		.2byte	0x214
 940 010d 47010000 		.4byte	0x147
 941 0111 05       		.uleb128 0x5
 942 0112 03       		.byte	0x3
 943 0113 00000000 		.4byte	tbl_lower.5033
 944 0117 08       		.uleb128 0x8
 945 0118 CC010000 		.4byte	.LASF17
 946 011c 01       		.byte	0x1
 947 011d 1502     		.2byte	0x215
 948 011f 4C010000 		.4byte	0x14c
 949 0123 05       		.uleb128 0x5
 950 0124 03       		.byte	0x3
 951 0125 00000000 		.4byte	tbl_upper.5034
 952 0129 07       		.uleb128 0x7
 953 012a 6900     		.ascii	"i\000"
 954 012c 01       		.byte	0x1
 955 012d 1602     		.2byte	0x216
 956 012f 25000000 		.4byte	0x25
 957 0133 02       		.uleb128 0x2
 958 0134 91       		.byte	0x91
 959 0135 7C       		.sleb128 -4
 960 0136 00       		.byte	0
 961 0137 09       		.uleb128 0x9
 962 0138 5A000000 		.4byte	0x5a
 963 013c 47010000 		.4byte	0x147
 964 0140 0A       		.uleb128 0xa
 965 0141 8F000000 		.4byte	0x8f
 966 0145 EF       		.byte	0xef
 967 0146 00       		.byte	0
 968 0147 0B       		.uleb128 0xb
ARM GAS  /tmp/cceBjwo8.s 			page 18


 969 0148 37010000 		.4byte	0x137
 970 014c 0B       		.uleb128 0xb
 971 014d 37010000 		.4byte	0x137
 972 0151 09       		.uleb128 0x9
 973 0152 5A000000 		.4byte	0x5a
 974 0156 61010000 		.4byte	0x161
 975 015a 0A       		.uleb128 0xa
 976 015b 8F000000 		.4byte	0x8f
 977 015f 7F       		.byte	0x7f
 978 0160 00       		.byte	0
 979 0161 07       		.uleb128 0x7
 980 0162 54626C00 		.ascii	"Tbl\000"
 981 0166 01       		.byte	0x1
 982 0167 4001     		.2byte	0x140
 983 0169 73010000 		.4byte	0x173
 984 016d 05       		.uleb128 0x5
 985 016e 03       		.byte	0x3
 986 016f 00000000 		.4byte	Tbl
 987 0173 0B       		.uleb128 0xb
 988 0174 51010000 		.4byte	0x151
 989 0178 00       		.byte	0
 990              		.section	.debug_abbrev,"",%progbits
 991              	.Ldebug_abbrev0:
 992 0000 01       		.uleb128 0x1
 993 0001 11       		.uleb128 0x11
 994 0002 01       		.byte	0x1
 995 0003 25       		.uleb128 0x25
 996 0004 0E       		.uleb128 0xe
 997 0005 13       		.uleb128 0x13
 998 0006 0B       		.uleb128 0xb
 999 0007 03       		.uleb128 0x3
 1000 0008 0E       		.uleb128 0xe
 1001 0009 1B       		.uleb128 0x1b
 1002 000a 0E       		.uleb128 0xe
 1003 000b 55       		.uleb128 0x55
 1004 000c 17       		.uleb128 0x17
 1005 000d 11       		.uleb128 0x11
 1006 000e 01       		.uleb128 0x1
 1007 000f 10       		.uleb128 0x10
 1008 0010 17       		.uleb128 0x17
 1009 0011 00       		.byte	0
 1010 0012 00       		.byte	0
 1011 0013 02       		.uleb128 0x2
 1012 0014 24       		.uleb128 0x24
 1013 0015 00       		.byte	0
 1014 0016 0B       		.uleb128 0xb
 1015 0017 0B       		.uleb128 0xb
 1016 0018 3E       		.uleb128 0x3e
 1017 0019 0B       		.uleb128 0xb
 1018 001a 03       		.uleb128 0x3
 1019 001b 08       		.uleb128 0x8
 1020 001c 00       		.byte	0
 1021 001d 00       		.byte	0
 1022 001e 03       		.uleb128 0x3
 1023 001f 16       		.uleb128 0x16
 1024 0020 00       		.byte	0
 1025 0021 03       		.uleb128 0x3
ARM GAS  /tmp/cceBjwo8.s 			page 19


 1026 0022 0E       		.uleb128 0xe
 1027 0023 3A       		.uleb128 0x3a
 1028 0024 0B       		.uleb128 0xb
 1029 0025 3B       		.uleb128 0x3b
 1030 0026 0B       		.uleb128 0xb
 1031 0027 49       		.uleb128 0x49
 1032 0028 13       		.uleb128 0x13
 1033 0029 00       		.byte	0
 1034 002a 00       		.byte	0
 1035 002b 04       		.uleb128 0x4
 1036 002c 24       		.uleb128 0x24
 1037 002d 00       		.byte	0
 1038 002e 0B       		.uleb128 0xb
 1039 002f 0B       		.uleb128 0xb
 1040 0030 3E       		.uleb128 0x3e
 1041 0031 0B       		.uleb128 0xb
 1042 0032 03       		.uleb128 0x3
 1043 0033 0E       		.uleb128 0xe
 1044 0034 00       		.byte	0
 1045 0035 00       		.byte	0
 1046 0036 05       		.uleb128 0x5
 1047 0037 2E       		.uleb128 0x2e
 1048 0038 01       		.byte	0x1
 1049 0039 3F       		.uleb128 0x3f
 1050 003a 19       		.uleb128 0x19
 1051 003b 03       		.uleb128 0x3
 1052 003c 0E       		.uleb128 0xe
 1053 003d 3A       		.uleb128 0x3a
 1054 003e 0B       		.uleb128 0xb
 1055 003f 3B       		.uleb128 0x3b
 1056 0040 05       		.uleb128 0x5
 1057 0041 27       		.uleb128 0x27
 1058 0042 19       		.uleb128 0x19
 1059 0043 49       		.uleb128 0x49
 1060 0044 13       		.uleb128 0x13
 1061 0045 11       		.uleb128 0x11
 1062 0046 01       		.uleb128 0x1
 1063 0047 12       		.uleb128 0x12
 1064 0048 06       		.uleb128 0x6
 1065 0049 40       		.uleb128 0x40
 1066 004a 18       		.uleb128 0x18
 1067 004b 9742     		.uleb128 0x2117
 1068 004d 19       		.uleb128 0x19
 1069 004e 01       		.uleb128 0x1
 1070 004f 13       		.uleb128 0x13
 1071 0050 00       		.byte	0
 1072 0051 00       		.byte	0
 1073 0052 06       		.uleb128 0x6
 1074 0053 05       		.uleb128 0x5
 1075 0054 00       		.byte	0
 1076 0055 03       		.uleb128 0x3
 1077 0056 08       		.uleb128 0x8
 1078 0057 3A       		.uleb128 0x3a
 1079 0058 0B       		.uleb128 0xb
 1080 0059 3B       		.uleb128 0x3b
 1081 005a 05       		.uleb128 0x5
 1082 005b 49       		.uleb128 0x49
ARM GAS  /tmp/cceBjwo8.s 			page 20


 1083 005c 13       		.uleb128 0x13
 1084 005d 02       		.uleb128 0x2
 1085 005e 18       		.uleb128 0x18
 1086 005f 00       		.byte	0
 1087 0060 00       		.byte	0
 1088 0061 07       		.uleb128 0x7
 1089 0062 34       		.uleb128 0x34
 1090 0063 00       		.byte	0
 1091 0064 03       		.uleb128 0x3
 1092 0065 08       		.uleb128 0x8
 1093 0066 3A       		.uleb128 0x3a
 1094 0067 0B       		.uleb128 0xb
 1095 0068 3B       		.uleb128 0x3b
 1096 0069 05       		.uleb128 0x5
 1097 006a 49       		.uleb128 0x49
 1098 006b 13       		.uleb128 0x13
 1099 006c 02       		.uleb128 0x2
 1100 006d 18       		.uleb128 0x18
 1101 006e 00       		.byte	0
 1102 006f 00       		.byte	0
 1103 0070 08       		.uleb128 0x8
 1104 0071 34       		.uleb128 0x34
 1105 0072 00       		.byte	0
 1106 0073 03       		.uleb128 0x3
 1107 0074 0E       		.uleb128 0xe
 1108 0075 3A       		.uleb128 0x3a
 1109 0076 0B       		.uleb128 0xb
 1110 0077 3B       		.uleb128 0x3b
 1111 0078 05       		.uleb128 0x5
 1112 0079 49       		.uleb128 0x49
 1113 007a 13       		.uleb128 0x13
 1114 007b 02       		.uleb128 0x2
 1115 007c 18       		.uleb128 0x18
 1116 007d 00       		.byte	0
 1117 007e 00       		.byte	0
 1118 007f 09       		.uleb128 0x9
 1119 0080 01       		.uleb128 0x1
 1120 0081 01       		.byte	0x1
 1121 0082 49       		.uleb128 0x49
 1122 0083 13       		.uleb128 0x13
 1123 0084 01       		.uleb128 0x1
 1124 0085 13       		.uleb128 0x13
 1125 0086 00       		.byte	0
 1126 0087 00       		.byte	0
 1127 0088 0A       		.uleb128 0xa
 1128 0089 21       		.uleb128 0x21
 1129 008a 00       		.byte	0
 1130 008b 49       		.uleb128 0x49
 1131 008c 13       		.uleb128 0x13
 1132 008d 2F       		.uleb128 0x2f
 1133 008e 0B       		.uleb128 0xb
 1134 008f 00       		.byte	0
 1135 0090 00       		.byte	0
 1136 0091 0B       		.uleb128 0xb
 1137 0092 26       		.uleb128 0x26
 1138 0093 00       		.byte	0
 1139 0094 49       		.uleb128 0x49
ARM GAS  /tmp/cceBjwo8.s 			page 21


 1140 0095 13       		.uleb128 0x13
 1141 0096 00       		.byte	0
 1142 0097 00       		.byte	0
 1143 0098 00       		.byte	0
 1144              		.section	.debug_aranges,"",%progbits
 1145 0000 24000000 		.4byte	0x24
 1146 0004 0200     		.2byte	0x2
 1147 0006 00000000 		.4byte	.Ldebug_info0
 1148 000a 04       		.byte	0x4
 1149 000b 00       		.byte	0
 1150 000c 0000     		.2byte	0
 1151 000e 0000     		.2byte	0
 1152 0010 00000000 		.4byte	.LFB7
 1153 0014 94000000 		.4byte	.LFE7-.LFB7
 1154 0018 00000000 		.4byte	.LFB8
 1155 001c 68000000 		.4byte	.LFE8-.LFB8
 1156 0020 00000000 		.4byte	0
 1157 0024 00000000 		.4byte	0
 1158              		.section	.debug_ranges,"",%progbits
 1159              	.Ldebug_ranges0:
 1160 0000 00000000 		.4byte	.LFB7
 1161 0004 94000000 		.4byte	.LFE7
 1162 0008 00000000 		.4byte	.LFB8
 1163 000c 68000000 		.4byte	.LFE8
 1164 0010 00000000 		.4byte	0
 1165 0014 00000000 		.4byte	0
 1166              		.section	.debug_line,"",%progbits
 1167              	.Ldebug_line0:
 1168 0000 D5000000 		.section	.debug_str,"MS",%progbits,1
 1168      02006700 
 1168      00000201 
 1168      FB0E0D00 
 1168      01010101 
 1169              	.LASF10:
 1170 0000 6C6F6E67 		.ascii	"long long int\000"
 1170      206C6F6E 
 1170      6720696E 
 1170      7400
 1171              	.LASF4:
 1172 000e 73686F72 		.ascii	"short unsigned int\000"
 1172      7420756E 
 1172      7369676E 
 1172      65642069 
 1172      6E7400
 1173              	.LASF0:
 1174 0021 756E7369 		.ascii	"unsigned int\000"
 1174      676E6564 
 1174      20696E74 
 1174      00
 1175              	.LASF18:
 1176 002e 474E5520 		.ascii	"GNU C 4.8.2 -mcpu=cortex-m4 -mno-thumb-interwork -m"
 1176      4320342E 
 1176      382E3220 
 1176      2D6D6370 
 1176      753D636F 
 1177 0061 7468756D 		.ascii	"thumb -ggdb -O0 -fomit-frame-pointer -falign-functi"
 1177      62202D67 
ARM GAS  /tmp/cceBjwo8.s 			page 22


 1177      67646220 
 1177      2D4F3020 
 1177      2D666F6D 
 1178 0094 6F6E733D 		.ascii	"ons=16 -ffunction-sections -fdata-sections -fno-com"
 1178      3136202D 
 1178      6666756E 
 1178      6374696F 
 1178      6E2D7365 
 1179 00c7 6D6F6E00 		.ascii	"mon\000"
 1180              	.LASF6:
 1181 00cb 57434841 		.ascii	"WCHAR\000"
 1181      5200
 1182              	.LASF15:
 1183 00d1 66665F77 		.ascii	"ff_wtoupper\000"
 1183      746F7570 
 1183      70657200 
 1184              	.LASF11:
 1185 00dd 6C6F6E67 		.ascii	"long long unsigned int\000"
 1185      206C6F6E 
 1185      6720756E 
 1185      7369676E 
 1185      65642069 
 1186              	.LASF16:
 1187 00f4 74626C5F 		.ascii	"tbl_lower\000"
 1187      6C6F7765 
 1187      7200
 1188              	.LASF14:
 1189 00fe 66665F63 		.ascii	"ff_convert\000"
 1189      6F6E7665 
 1189      727400
 1190              	.LASF2:
 1191 0109 756E7369 		.ascii	"unsigned char\000"
 1191      676E6564 
 1191      20636861 
 1191      7200
 1192              	.LASF1:
 1193 0117 63686172 		.ascii	"char\000"
 1193      00
 1194              	.LASF5:
 1195 011c 55494E54 		.ascii	"UINT\000"
 1195      00
 1196              	.LASF7:
 1197 0121 6C6F6E67 		.ascii	"long int\000"
 1197      20696E74 
 1197      00
 1198              	.LASF19:
 1199 012a 2E2E2F2E 		.ascii	"../..//ext/fatfs/src/option/ccsbcs.c\000"
 1199      2E2F2F65 
 1199      78742F66 
 1199      61746673 
 1199      2F737263 
 1200              	.LASF8:
 1201 014f 6C6F6E67 		.ascii	"long unsigned int\000"
 1201      20756E73 
 1201      69676E65 
 1201      6420696E 
 1201      7400
ARM GAS  /tmp/cceBjwo8.s 			page 23


 1202              	.LASF12:
 1203 0161 5F426F6F 		.ascii	"_Bool\000"
 1203      6C00
 1204              	.LASF9:
 1205 0167 7369676E 		.ascii	"signed char\000"
 1205      65642063 
 1205      68617200 
 1206              	.LASF20:
 1207 0173 2F686F6D 		.ascii	"/home/ece497/vbox-shared/mplayer/ChibiOS-RT-stable_"
 1207      652F6563 
 1207      65343937 
 1207      2F76626F 
 1207      782D7368 
 1208 01a6 322E362E 		.ascii	"2.6.x/demos/SDCARD\000"
 1208      782F6465 
 1208      6D6F732F 
 1208      53444341 
 1208      524400
 1209              	.LASF13:
 1210 01b9 73697A65 		.ascii	"sizetype\000"
 1210      74797065 
 1210      00
 1211              	.LASF3:
 1212 01c2 73686F72 		.ascii	"short int\000"
 1212      7420696E 
 1212      7400
 1213              	.LASF17:
 1214 01cc 74626C5F 		.ascii	"tbl_upper\000"
 1214      75707065 
 1214      7200
 1215              		.ident	"GCC: (Arch Repository) 4.8.2"
ARM GAS  /tmp/cceBjwo8.s 			page 24


DEFINED SYMBOLS
                            *ABS*:0000000000000000 ccsbcs.c
     /tmp/cceBjwo8.s:19     .rodata.Tbl:0000000000000000 $d
     /tmp/cceBjwo8.s:22     .rodata.Tbl:0000000000000000 Tbl
     /tmp/cceBjwo8.s:152    .text.ff_convert:0000000000000000 $t
     /tmp/cceBjwo8.s:158    .text.ff_convert:0000000000000000 ff_convert
     /tmp/cceBjwo8.s:247    .text.ff_wtoupper:0000000000000000 $t
     /tmp/cceBjwo8.s:253    .text.ff_wtoupper:0000000000000000 ff_wtoupper
     /tmp/cceBjwo8.s:318    .rodata.tbl_lower.5033:0000000000000000 tbl_lower.5033
     /tmp/cceBjwo8.s:563    .rodata.tbl_upper.5034:0000000000000000 tbl_upper.5034
     /tmp/cceBjwo8.s:315    .rodata.tbl_lower.5033:0000000000000000 $d
     /tmp/cceBjwo8.s:560    .rodata.tbl_upper.5034:0000000000000000 $d
                     .debug_frame:0000000000000010 $d

NO UNDEFINED SYMBOLS
