ARM GAS  /tmp/ccGY7fFn.s 			page 1


   1              		.syntax unified
   2              		.cpu cortex-m4
   3              		.fpu softvfp
   4              		.eabi_attribute 20, 1
   5              		.eabi_attribute 21, 1
   6              		.eabi_attribute 23, 3
   7              		.eabi_attribute 24, 1
   8              		.eabi_attribute 25, 1
   9              		.eabi_attribute 26, 1
  10              		.eabi_attribute 30, 6
  11              		.eabi_attribute 34, 1
  12              		.eabi_attribute 18, 4
  13              		.thumb
  14              		.file	"chcore_v7m.c"
  15              		.text
  16              	.Ltext0:
  17              		.cfi_sections	.debug_frame
  18              		.section	.text.SysTickVector,"ax",%progbits
  19              		.align	2
  20              		.p2align 4,,15
  21              		.global	SysTickVector
  22              		.thumb
  23              		.thumb_func
  24              		.type	SysTickVector, %function
  25              	SysTickVector:
  26              	.LFB7:
  27              		.file 1 "../..//os/ports/GCC/ARMCMx/chcore_v7m.c"
  28              		.loc 1 47 0
  29              		.cfi_startproc
  30              		@ args = 0, pretend = 0, frame = 0
  31              		@ frame_needed = 0, uses_anonymous_args = 0
  32 0000 08B5     		push	{r3, lr}
  33              		.cfi_def_cfa_offset 8
  34              		.cfi_offset 3, -8
  35              		.cfi_offset 14, -4
  36              		.loc 1 49 0
  37 0002 FFF7FEFF 		bl	dbg_check_enter_isr
  38              	.LBB2:
  39              		.loc 1 51 0
  40 0006 2023     		movs	r3, #32
  41              	@ 51 "../..//os/ports/GCC/ARMCMx/chcore_v7m.c" 1
  42 0008 83F31188 		msr     BASEPRI, r3
  43              	@ 0 "" 2
  44              		.thumb
  45              	.LBE2:
  46 000c FFF7FEFF 		bl	dbg_check_lock_from_isr
  47              		.loc 1 52 0
  48 0010 FFF7FEFF 		bl	chSysTimerHandlerI
  49              		.loc 1 53 0
  50 0014 FFF7FEFF 		bl	dbg_check_unlock_from_isr
  51              	.LBB3:
  52 0018 0023     		movs	r3, #0
  53              	@ 53 "../..//os/ports/GCC/ARMCMx/chcore_v7m.c" 1
  54 001a 83F31188 		msr     BASEPRI, r3
  55              	@ 0 "" 2
  56              		.thumb
  57              	.LBE3:
ARM GAS  /tmp/ccGY7fFn.s 			page 2


  58              		.loc 1 55 0
  59 001e FFF7FEFF 		bl	dbg_check_leave_isr
  60 0022 FFF7FEFF 		bl	_port_irq_epilogue
  61              		.loc 1 56 0
  62 0026 08BD     		pop	{r3, pc}
  63              		.cfi_endproc
  64              	.LFE7:
  65              		.size	SysTickVector, .-SysTickVector
  66 0028 AFF30080 		.section	.text.SVCallVector,"ax",%progbits
  66      AFF30080 
  67              		.align	2
  68              		.p2align 4,,15
  69              		.global	SVCallVector
  70              		.thumb
  71              		.thumb_func
  72              		.type	SVCallVector, %function
  73              	SVCallVector:
  74              	.LFB8:
  75              		.loc 1 65 0
  76              		.cfi_startproc
  77              		@ args = 0, pretend = 0, frame = 8
  78              		@ frame_needed = 0, uses_anonymous_args = 0
  79              		@ link register save eliminated.
  80 0000 82B0     		sub	sp, sp, #8
  81              		.cfi_def_cfa_offset 8
  82              		.loc 1 69 0
  83              	@ 69 "../..//os/ports/GCC/ARMCMx/chcore_v7m.c" 1
  84 0002 EFF30983 		mrs     r3, PSP
  85              	@ 0 "" 2
  86              		.thumb
  87 0006 0193     		str	r3, [sp, #4]
  88              		.loc 1 73 0
  89 0008 019B     		ldr	r3, [sp, #4]
  90 000a 2033     		adds	r3, r3, #32
  91 000c 0193     		str	r3, [sp, #4]
  92              		.loc 1 80 0
  93 000e 019B     		ldr	r3, [sp, #4]
  94              	@ 80 "../..//os/ports/GCC/ARMCMx/chcore_v7m.c" 1
  95 0010 83F30988 		msr     PSP, r3
  96              	@ 0 "" 2
  97              		.thumb
  98              	.LBB4:
  99              		.loc 1 81 0
 100 0014 0023     		movs	r3, #0
 101              	@ 81 "../..//os/ports/GCC/ARMCMx/chcore_v7m.c" 1
 102 0016 83F31188 		msr     BASEPRI, r3
 103              	@ 0 "" 2
 104              		.thumb
 105              	.LBE4:
 106              		.loc 1 82 0
 107 001a 02B0     		add	sp, sp, #8
 108              		@ sp needed
 109 001c 7047     		bx	lr
 110              		.cfi_endproc
 111              	.LFE8:
 112              		.size	SVCallVector, .-SVCallVector
 113 001e 00BF     		.section	.text._port_init,"ax",%progbits
ARM GAS  /tmp/ccGY7fFn.s 			page 3


 114              		.align	2
 115              		.p2align 4,,15
 116              		.global	_port_init
 117              		.thumb
 118              		.thumb_func
 119              		.type	_port_init, %function
 120              	_port_init:
 121              	.LFB9:
 122              		.loc 1 118 0
 123              		.cfi_startproc
 124              		@ args = 0, pretend = 0, frame = 0
 125              		@ frame_needed = 0, uses_anonymous_args = 0
 126 0000 08B5     		push	{r3, lr}
 127              		.cfi_def_cfa_offset 8
 128              		.cfi_offset 3, -8
 129              		.cfi_offset 14, -4
 130              		.loc 1 121 0
 131 0002 4FF46D43 		mov	r3, #60672
 132 0006 CEF20003 		movt	r3, 57344
 133 000a 0022     		movs	r2, #0
 134 000c 9A60     		str	r2, [r3, #8]
 135              		.loc 1 122 0
 136 000e 4FF46D43 		mov	r3, #60672
 137 0012 CEF20003 		movt	r3, 57344
 138 0016 4FF44072 		mov	r2, #768
 139 001a C0F2FA52 		movt	r2, 1530
 140 001e DA60     		str	r2, [r3, #12]
 141              		.loc 1 125 0
 142 0020 0720     		movs	r0, #7
 143 0022 1021     		movs	r1, #16
 144 0024 FFF7FEFF 		bl	nvicSetSystemHandlerPriority
 145              		.loc 1 127 0
 146 0028 0A20     		movs	r0, #10
 147 002a 2021     		movs	r1, #32
 148 002c FFF7FEFF 		bl	nvicSetSystemHandlerPriority
 149              		.loc 1 129 0
 150 0030 0B20     		movs	r0, #11
 151 0032 8021     		movs	r1, #128
 152 0034 FFF7FEFF 		bl	nvicSetSystemHandlerPriority
 153              		.loc 1 131 0
 154 0038 08BD     		pop	{r3, pc}
 155              		.cfi_endproc
 156              	.LFE9:
 157              		.size	_port_init, .-_port_init
 158 003a 00BFAFF3 		.section	.text._port_irq_epilogue,"ax",%progbits
 158      0080
 159              		.align	2
 160              		.p2align 4,,15
 161              		.global	_port_irq_epilogue
 162              		.thumb
 163              		.thumb_func
 164              		.type	_port_irq_epilogue, %function
 165              	_port_irq_epilogue:
 166              	.LFB10:
 167              		.loc 1 148 0
 168              		.cfi_startproc
 169              		@ args = 0, pretend = 0, frame = 8
ARM GAS  /tmp/ccGY7fFn.s 			page 4


 170              		@ frame_needed = 0, uses_anonymous_args = 0
 171              		@ link register save eliminated.
 172 0000 82B0     		sub	sp, sp, #8
 173              		.cfi_def_cfa_offset 8
 174              	.LBB5:
 175              		.loc 1 150 0
 176 0002 2023     		movs	r3, #32
 177              	@ 150 "../..//os/ports/GCC/ARMCMx/chcore_v7m.c" 1
 178 0004 83F31188 		msr     BASEPRI, r3
 179              	@ 0 "" 2
 180              		.thumb
 181              	.LBE5:
 182              		.loc 1 151 0
 183 0008 4FF46D43 		mov	r3, #60672
 184 000c CEF20003 		movt	r3, 57344
 185 0010 5B68     		ldr	r3, [r3, #4]
 186 0012 03F40063 		and	r3, r3, #2048
 187 0016 002B     		cmp	r3, #0
 188 0018 48D0     		beq	.L5
 189              	.LBB6:
 190              		.loc 1 155 0
 191              	@ 155 "../..//os/ports/GCC/ARMCMx/chcore_v7m.c" 1
 192 001a EFF30983 		mrs     r3, PSP
 193              	@ 0 "" 2
 194              		.thumb
 195 001e 0193     		str	r3, [sp, #4]
 196              		.loc 1 159 0
 197 0020 019B     		ldr	r3, [sp, #4]
 198 0022 203B     		subs	r3, r3, #32
 199 0024 0193     		str	r3, [sp, #4]
 200              		.loc 1 160 0
 201 0026 019B     		ldr	r3, [sp, #4]
 202              	@ 160 "../..//os/ports/GCC/ARMCMx/chcore_v7m.c" 1
 203 0028 83F30988 		msr     PSP, r3
 204              	@ 0 "" 2
 205              		.loc 1 161 0
 206              		.thumb
 207 002c 019B     		ldr	r3, [sp, #4]
 208 002e 4FF08072 		mov	r2, #16777216
 209 0032 DA61     		str	r2, [r3, #28]
 210              		.loc 1 165 0
 211 0034 40F20003 		movw	r3, #:lower16:rlist
 212 0038 C0F20003 		movt	r3, #:upper16:rlist
 213 003c 9B69     		ldr	r3, [r3, #24]
 214 003e 93F82330 		ldrb	r3, [r3, #35]	@ zero_extendqisi2
 215 0042 002B     		cmp	r3, #0
 216 0044 11D0     		beq	.L6
 217              		.loc 1 165 0 is_stmt 0 discriminator 1
 218 0046 40F20003 		movw	r3, #:lower16:rlist
 219 004a C0F20003 		movt	r3, #:upper16:rlist
 220 004e 1B68     		ldr	r3, [r3]
 221 0050 9A68     		ldr	r2, [r3, #8]
 222 0052 40F20003 		movw	r3, #:lower16:rlist
 223 0056 C0F20003 		movt	r3, #:upper16:rlist
 224 005a 9B69     		ldr	r3, [r3, #24]
 225 005c 9B68     		ldr	r3, [r3, #8]
 226 005e 9A42     		cmp	r2, r3
ARM GAS  /tmp/ccGY7fFn.s 			page 5


 227 0060 94BF     		ite	ls
 228 0062 0023     		movls	r3, #0
 229 0064 0123     		movhi	r3, #1
 230 0066 DBB2     		uxtb	r3, r3
 231 0068 10E0     		b	.L7
 232              	.L6:
 233              		.loc 1 165 0 discriminator 2
 234 006a 40F20003 		movw	r3, #:lower16:rlist
 235 006e C0F20003 		movt	r3, #:upper16:rlist
 236 0072 1B68     		ldr	r3, [r3]
 237 0074 9A68     		ldr	r2, [r3, #8]
 238 0076 40F20003 		movw	r3, #:lower16:rlist
 239 007a C0F20003 		movt	r3, #:upper16:rlist
 240 007e 9B69     		ldr	r3, [r3, #24]
 241 0080 9B68     		ldr	r3, [r3, #8]
 242 0082 9A42     		cmp	r2, r3
 243 0084 34BF     		ite	cc
 244 0086 0023     		movcc	r3, #0
 245 0088 0123     		movcs	r3, #1
 246 008a DBB2     		uxtb	r3, r3
 247              	.L7:
 248              		.loc 1 165 0 discriminator 3
 249 008c 002B     		cmp	r3, #0
 250 008e 06D0     		beq	.L8
 251              		.loc 1 167 0 is_stmt 1
 252 0090 019A     		ldr	r2, [sp, #4]
 253 0092 40F20003 		movw	r3, #:lower16:_port_switch_from_isr
 254 0096 C0F20003 		movt	r3, #:upper16:_port_switch_from_isr
 255 009a 9361     		str	r3, [r2, #24]
 256              		.loc 1 195 0
 257 009c 09E0     		b	.L4
 258              	.L8:
 259              		.loc 1 176 0
 260 009e 019A     		ldr	r2, [sp, #4]
 261 00a0 40F20003 		movw	r3, #:lower16:_port_exit_from_isr
 262 00a4 C0F20003 		movt	r3, #:upper16:_port_exit_from_isr
 263 00a8 9361     		str	r3, [r2, #24]
 264              		.loc 1 195 0
 265 00aa 02E0     		b	.L4
 266              	.L5:
 267              	.LBE6:
 268              	.LBB7:
 269              		.loc 1 197 0
 270 00ac 0023     		movs	r3, #0
 271              	@ 197 "../..//os/ports/GCC/ARMCMx/chcore_v7m.c" 1
 272 00ae 83F31188 		msr     BASEPRI, r3
 273              	@ 0 "" 2
 274              		.thumb
 275              	.L4:
 276              	.LBE7:
 277              		.loc 1 198 0
 278 00b2 02B0     		add	sp, sp, #8
 279              		@ sp needed
 280 00b4 7047     		bx	lr
 281              		.cfi_endproc
 282              	.LFE10:
 283              		.size	_port_irq_epilogue, .-_port_irq_epilogue
ARM GAS  /tmp/ccGY7fFn.s 			page 6


 284 00b6 00BFAFF3 		.section	.text._port_switch_from_isr,"ax",%progbits
 284      0080AFF3 
 284      0080
 285              		.align	2
 286              		.p2align 4,,15
 287              		.global	_port_switch_from_isr
 288              		.thumb
 289              		.thumb_func
 290              		.type	_port_switch_from_isr, %function
 291              	_port_switch_from_isr:
 292              	.LFB11:
 293              		.loc 1 207 0
 294              		.cfi_startproc
 295              		@ Naked Function: prologue and epilogue provided by programmer.
 296              		@ args = 0, pretend = 0, frame = 0
 297              		@ frame_needed = 0, uses_anonymous_args = 0
 298              		.loc 1 209 0
 299 0000 FFF7FEFF 		bl	dbg_check_lock
 300              		.loc 1 210 0
 301 0004 FFF7FEFF 		bl	chSchDoReschedule
 302              		.loc 1 211 0
 303 0008 FFF7FEFF 		bl	dbg_check_unlock
 304              		.loc 1 212 0
 305              	@ 212 "../..//os/ports/GCC/ARMCMx/chcore_v7m.c" 1
 306              		_port_exit_from_isr:
 307              	@ 0 "" 2
 308              		.loc 1 214 0
 309              	@ 214 "../..//os/ports/GCC/ARMCMx/chcore_v7m.c" 1
 310 000c 00DF     		svc     #0
 311              	@ 0 "" 2
 312              		.loc 1 221 0
 313              		.thumb
 314              		.cfi_endproc
 315              	.LFE11:
 316              		.size	_port_switch_from_isr, .-_port_switch_from_isr
 317 000e 00BF     		.section	.text._port_switch,"ax",%progbits
 318              		.align	2
 319              		.p2align 4,,15
 320              		.global	_port_switch
 321              		.thumb
 322              		.thumb_func
 323              		.type	_port_switch, %function
 324              	_port_switch:
 325              	.LFB12:
 326              		.loc 1 236 0
 327              		.cfi_startproc
 328              		@ Naked Function: prologue and epilogue provided by programmer.
 329              		@ args = 0, pretend = 0, frame = 0
 330              		@ frame_needed = 0, uses_anonymous_args = 0
 331 0000 0346     		mov	r3, r0
 332 0002 0A46     		mov	r2, r1
 333              		.loc 1 238 0
 334              	@ 238 "../..//os/ports/GCC/ARMCMx/chcore_v7m.c" 1
 335 0004 2DE9F04F 		push    {r4, r5, r6, r7, r8, r9, r10, r11, lr}
 336              	@ 0 "" 2
 337              		.loc 1 244 0
 338              	@ 244 "../..//os/ports/GCC/ARMCMx/chcore_v7m.c" 1
ARM GAS  /tmp/ccGY7fFn.s 			page 7


 339 0008 C2F80CD0 		str     sp, [r2, #12]                          
 340 000c D3F80CD0 		ldr     sp, [r3, #12]
 341              	@ 0 "" 2
 342              		.loc 1 250 0
 343              	@ 250 "../..//os/ports/GCC/ARMCMx/chcore_v7m.c" 1
 344 0010 BDE8F08F 		pop     {r4, r5, r6, r7, r8, r9, r10, r11, pc}
 345              	@ 0 "" 2
 346              		.loc 1 252 0
 347              		.thumb
 348              		.cfi_endproc
 349              	.LFE12:
 350              		.size	_port_switch, .-_port_switch
 351 0014 AFF30080 		.section	.text._port_thread_start,"ax",%progbits
 351      AFF30080 
 351      AFF30080 
 352              		.align	2
 353              		.p2align 4,,15
 354              		.global	_port_thread_start
 355              		.thumb
 356              		.thumb_func
 357              		.type	_port_thread_start, %function
 358              	_port_thread_start:
 359              	.LFB13:
 360              		.loc 1 259 0
 361              		.cfi_startproc
 362              		@ args = 0, pretend = 0, frame = 0
 363              		@ frame_needed = 0, uses_anonymous_args = 0
 364 0000 08B5     		push	{r3, lr}
 365              		.cfi_def_cfa_offset 8
 366              		.cfi_offset 3, -8
 367              		.cfi_offset 14, -4
 368              		.loc 1 261 0
 369 0002 FFF7FEFF 		bl	dbg_check_unlock
 370              	.LBB8:
 371 0006 0023     		movs	r3, #0
 372              	@ 261 "../..//os/ports/GCC/ARMCMx/chcore_v7m.c" 1
 373 0008 83F31188 		msr     BASEPRI, r3
 374              	@ 0 "" 2
 375              		.thumb
 376              	.LBE8:
 377              		.loc 1 262 0
 378              	@ 262 "../..//os/ports/GCC/ARMCMx/chcore_v7m.c" 1
 379 000c 2846     		mov     r0, r5                                 
 380 000e A047     		blx     r4                                     
 381 0010 FFF7FEFF 		bl      chThdExit
 382              	@ 0 "" 2
 383              		.loc 1 265 0
 384              		.thumb
 385 0014 08BD     		pop	{r3, pc}
 386              		.cfi_endproc
 387              	.LFE13:
 388              		.size	_port_thread_start, .-_port_thread_start
 389 0016 00BFAFF3 		.text
 389      0080AFF3 
 389      0080
 390              	.Letext0:
 391              		.file 2 "/usr/arm-none-eabi/include/machine/_default_types.h"
ARM GAS  /tmp/ccGY7fFn.s 			page 8


 392              		.file 3 "/usr/arm-none-eabi/include/stdint.h"
 393              		.file 4 "../..//os/ports/GCC/ARMCMx/chtypes.h"
 394              		.file 5 "../..//os/kernel/include/chlists.h"
 395              		.file 6 "../..//os/kernel/include/chthreads.h"
 396              		.file 7 "../..//os/ports/GCC/ARMCMx/chcore_v7m.h"
 397              		.file 8 "../..//os/ports/common/ARMCMx/nvic.h"
 398              		.file 9 "../..//os/kernel/include/chschd.h"
 399              		.file 10 "../..//os/kernel/include/chmtx.h"