ARM GAS  /tmp/ccGY7fFn.s 			page 1


   1              		.syntax unified
   2              		.cpu cortex-m4
   3              		.fpu softvfp
   4              		.eabi_attribute 20, 1
   5              		.eabi_attribute 21, 1
   6              		.eabi_attribute 23, 3
   7              		.eabi_attribute 24, 1
   8              		.eabi_attribute 25, 1
   9              		.eabi_attribute 26, 1
  10              		.eabi_attribute 30, 6
  11              		.eabi_attribute 34, 1
  12              		.eabi_attribute 18, 4
  13              		.thumb
  14              		.file	"chcore_v7m.c"
  15              		.text
  16              	.Ltext0:
  17              		.cfi_sections	.debug_frame
  18              		.section	.text.SysTickVector,"ax",%progbits
  19              		.align	2
  20              		.p2align 4,,15
  21              		.global	SysTickVector
  22              		.thumb
  23              		.thumb_func
  24              		.type	SysTickVector, %function
  25              	SysTickVector:
  26              	.LFB7:
  27              		.file 1 "../..//os/ports/GCC/ARMCMx/chcore_v7m.c"
  28              		.loc 1 47 0
  29              		.cfi_startproc
  30              		@ args = 0, pretend = 0, frame = 0
  31              		@ frame_needed = 0, uses_anonymous_args = 0
  32 0000 08B5     		push	{r3, lr}
  33              		.cfi_def_cfa_offset 8
  34              		.cfi_offset 3, -8
  35              		.cfi_offset 14, -4
  36              		.loc 1 49 0
  37 0002 FFF7FEFF 		bl	dbg_check_enter_isr
  38              	.LBB2:
  39              		.loc 1 51 0
  40 0006 2023     		movs	r3, #32
  41              	@ 51 "../..//os/ports/GCC/ARMCMx/chcore_v7m.c" 1
  42 0008 83F31188 		msr     BASEPRI, r3
  43              	@ 0 "" 2
  44              		.thumb
  45              	.LBE2:
  46 000c FFF7FEFF 		bl	dbg_check_lock_from_isr
  47              		.loc 1 52 0
  48 0010 FFF7FEFF 		bl	chSysTimerHandlerI
  49              		.loc 1 53 0
  50 0014 FFF7FEFF 		bl	dbg_check_unlock_from_isr
  51              	.LBB3:
  52 0018 0023     		movs	r3, #0
  53              	@ 53 "../..//os/ports/GCC/ARMCMx/chcore_v7m.c" 1
  54 001a 83F31188 		msr     BASEPRI, r3
  55              	@ 0 "" 2
  56              		.thumb
  57              	.LBE3:
ARM GAS  /tmp/ccGY7fFn.s 			page 2


  58              		.loc 1 55 0
  59 001e FFF7FEFF 		bl	dbg_check_leave_isr
  60 0022 FFF7FEFF 		bl	_port_irq_epilogue
  61              		.loc 1 56 0
  62 0026 08BD     		pop	{r3, pc}
  63              		.cfi_endproc
  64              	.LFE7:
  65              		.size	SysTickVector, .-SysTickVector
  66 0028 AFF30080 		.section	.text.SVCallVector,"ax",%progbits
  66      AFF30080 
  67              		.align	2
  68              		.p2align 4,,15
  69              		.global	SVCallVector
  70              		.thumb
  71              		.thumb_func
  72              		.type	SVCallVector, %function
  73              	SVCallVector:
  74              	.LFB8:
  75              		.loc 1 65 0
  76              		.cfi_startproc
  77              		@ args = 0, pretend = 0, frame = 8
  78              		@ frame_needed = 0, uses_anonymous_args = 0
  79              		@ link register save eliminated.
  80 0000 82B0     		sub	sp, sp, #8
  81              		.cfi_def_cfa_offset 8
  82              		.loc 1 69 0
  83              	@ 69 "../..//os/ports/GCC/ARMCMx/chcore_v7m.c" 1
  84 0002 EFF30983 		mrs     r3, PSP
  85              	@ 0 "" 2
  86              		.thumb
  87 0006 0193     		str	r3, [sp, #4]
  88              		.loc 1 73 0
  89 0008 019B     		ldr	r3, [sp, #4]
  90 000a 2033     		adds	r3, r3, #32
  91 000c 0193     		str	r3, [sp, #4]
  92              		.loc 1 80 0
  93 000e 019B     		ldr	r3, [sp, #4]
  94              	@ 80 "../..//os/ports/GCC/ARMCMx/chcore_v7m.c" 1
  95 0010 83F30988 		msr     PSP, r3
  96              	@ 0 "" 2
  97              		.thumb
  98              	.LBB4:
  99              		.loc 1 81 0
 100 0014 0023     		movs	r3, #0
 101              	@ 81 "../..//os/ports/GCC/ARMCMx/chcore_v7m.c" 1
 102 0016 83F31188 		msr     BASEPRI, r3
 103              	@ 0 "" 2
 104              		.thumb
 105              	.LBE4:
 106              		.loc 1 82 0
 107 001a 02B0     		add	sp, sp, #8
 108              		@ sp needed
 109 001c 7047     		bx	lr
 110              		.cfi_endproc
 111              	.LFE8:
 112              		.size	SVCallVector, .-SVCallVector
 113 001e 00BF     		.section	.text._port_init,"ax",%progbits
ARM GAS  /tmp/ccGY7fFn.s 			page 3


 114              		.align	2
 115              		.p2align 4,,15
 116              		.global	_port_init
 117              		.thumb
 118              		.thumb_func
 119              		.type	_port_init, %function
 120              	_port_init:
 121              	.LFB9:
 122              		.loc 1 118 0
 123              		.cfi_startproc
 124              		@ args = 0, pretend = 0, frame = 0
 125              		@ frame_needed = 0, uses_anonymous_args = 0
 126 0000 08B5     		push	{r3, lr}
 127              		.cfi_def_cfa_offset 8
 128              		.cfi_offset 3, -8
 129              		.cfi_offset 14, -4
 130              		.loc 1 121 0
 131 0002 4FF46D43 		mov	r3, #60672
 132 0006 CEF20003 		movt	r3, 57344
 133 000a 0022     		movs	r2, #0
 134 000c 9A60     		str	r2, [r3, #8]
 135              		.loc 1 122 0
 136 000e 4FF46D43 		mov	r3, #60672
 137 0012 CEF20003 		movt	r3, 57344
 138 0016 4FF44072 		mov	r2, #768
 139 001a C0F2FA52 		movt	r2, 1530
 140 001e DA60     		str	r2, [r3, #12]
 141              		.loc 1 125 0
 142 0020 0720     		movs	r0, #7
 143 0022 1021     		movs	r1, #16
 144 0024 FFF7FEFF 		bl	nvicSetSystemHandlerPriority
 145              		.loc 1 127 0
 146 0028 0A20     		movs	r0, #10
 147 002a 2021     		movs	r1, #32
 148 002c FFF7FEFF 		bl	nvicSetSystemHandlerPriority
 149              		.loc 1 129 0
 150 0030 0B20     		movs	r0, #11
 151 0032 8021     		movs	r1, #128
 152 0034 FFF7FEFF 		bl	nvicSetSystemHandlerPriority
 153              		.loc 1 131 0
 154 0038 08BD     		pop	{r3, pc}
 155              		.cfi_endproc
 156              	.LFE9:
 157              		.size	_port_init, .-_port_init
 158 003a 00BFAFF3 		.section	.text._port_irq_epilogue,"ax",%progbits
 158      0080
 159              		.align	2
 160              		.p2align 4,,15
 161              		.global	_port_irq_epilogue
 162              		.thumb
 163              		.thumb_func
 164              		.type	_port_irq_epilogue, %function
 165              	_port_irq_epilogue:
 166              	.LFB10:
 167              		.loc 1 148 0
 168              		.cfi_startproc
 169              		@ args = 0, pretend = 0, frame = 8
ARM GAS  /tmp/ccGY7fFn.s 			page 4


 170              		@ frame_needed = 0, uses_anonymous_args = 0
 171              		@ link register save eliminated.
 172 0000 82B0     		sub	sp, sp, #8
 173              		.cfi_def_cfa_offset 8
 174              	.LBB5:
 175              		.loc 1 150 0
 176 0002 2023     		movs	r3, #32
 177              	@ 150 "../..//os/ports/GCC/ARMCMx/chcore_v7m.c" 1
 178 0004 83F31188 		msr     BASEPRI, r3
 179              	@ 0 "" 2
 180              		.thumb
 181              	.LBE5:
 182              		.loc 1 151 0
 183 0008 4FF46D43 		mov	r3, #60672
 184 000c CEF20003 		movt	r3, 57344
 185 0010 5B68     		ldr	r3, [r3, #4]
 186 0012 03F40063 		and	r3, r3, #2048
 187 0016 002B     		cmp	r3, #0
 188 0018 48D0     		beq	.L5
 189              	.LBB6:
 190              		.loc 1 155 0
 191              	@ 155 "../..//os/ports/GCC/ARMCMx/chcore_v7m.c" 1
 192 001a EFF30983 		mrs     r3, PSP
 193              	@ 0 "" 2
 194              		.thumb
 195 001e 0193     		str	r3, [sp, #4]
 196              		.loc 1 159 0
 197 0020 019B     		ldr	r3, [sp, #4]
 198 0022 203B     		subs	r3, r3, #32
 199 0024 0193     		str	r3, [sp, #4]
 200              		.loc 1 160 0
 201 0026 019B     		ldr	r3, [sp, #4]
 202              	@ 160 "../..//os/ports/GCC/ARMCMx/chcore_v7m.c" 1
 203 0028 83F30988 		msr     PSP, r3
 204              	@ 0 "" 2
 205              		.loc 1 161 0
 206              		.thumb
 207 002c 019B     		ldr	r3, [sp, #4]
 208 002e 4FF08072 		mov	r2, #16777216
 209 0032 DA61     		str	r2, [r3, #28]
 210              		.loc 1 165 0
 211 0034 40F20003 		movw	r3, #:lower16:rlist
 212 0038 C0F20003 		movt	r3, #:upper16:rlist
 213 003c 9B69     		ldr	r3, [r3, #24]
 214 003e 93F82330 		ldrb	r3, [r3, #35]	@ zero_extendqisi2
 215 0042 002B     		cmp	r3, #0
 216 0044 11D0     		beq	.L6
 217              		.loc 1 165 0 is_stmt 0 discriminator 1
 218 0046 40F20003 		movw	r3, #:lower16:rlist
 219 004a C0F20003 		movt	r3, #:upper16:rlist
 220 004e 1B68     		ldr	r3, [r3]
 221 0050 9A68     		ldr	r2, [r3, #8]
 222 0052 40F20003 		movw	r3, #:lower16:rlist
 223 0056 C0F20003 		movt	r3, #:upper16:rlist
 224 005a 9B69     		ldr	r3, [r3, #24]
 225 005c 9B68     		ldr	r3, [r3, #8]
 226 005e 9A42     		cmp	r2, r3
ARM GAS  /tmp/ccGY7fFn.s 			page 5


 227 0060 94BF     		ite	ls
 228 0062 0023     		movls	r3, #0
 229 0064 0123     		movhi	r3, #1
 230 0066 DBB2     		uxtb	r3, r3
 231 0068 10E0     		b	.L7
 232              	.L6:
 233              		.loc 1 165 0 discriminator 2
 234 006a 40F20003 		movw	r3, #:lower16:rlist
 235 006e C0F20003 		movt	r3, #:upper16:rlist
 236 0072 1B68     		ldr	r3, [r3]
 237 0074 9A68     		ldr	r2, [r3, #8]
 238 0076 40F20003 		movw	r3, #:lower16:rlist
 239 007a C0F20003 		movt	r3, #:upper16:rlist
 240 007e 9B69     		ldr	r3, [r3, #24]
 241 0080 9B68     		ldr	r3, [r3, #8]
 242 0082 9A42     		cmp	r2, r3
 243 0084 34BF     		ite	cc
 244 0086 0023     		movcc	r3, #0
 245 0088 0123     		movcs	r3, #1
 246 008a DBB2     		uxtb	r3, r3
 247              	.L7:
 248              		.loc 1 165 0 discriminator 3
 249 008c 002B     		cmp	r3, #0
 250 008e 06D0     		beq	.L8
 251              		.loc 1 167 0 is_stmt 1
 252 0090 019A     		ldr	r2, [sp, #4]
 253 0092 40F20003 		movw	r3, #:lower16:_port_switch_from_isr
 254 0096 C0F20003 		movt	r3, #:upper16:_port_switch_from_isr
 255 009a 9361     		str	r3, [r2, #24]
 256              		.loc 1 195 0
 257 009c 09E0     		b	.L4
 258              	.L8:
 259              		.loc 1 176 0
 260 009e 019A     		ldr	r2, [sp, #4]
 261 00a0 40F20003 		movw	r3, #:lower16:_port_exit_from_isr
 262 00a4 C0F20003 		movt	r3, #:upper16:_port_exit_from_isr
 263 00a8 9361     		str	r3, [r2, #24]
 264              		.loc 1 195 0
 265 00aa 02E0     		b	.L4
 266              	.L5:
 267              	.LBE6:
 268              	.LBB7:
 269              		.loc 1 197 0
 270 00ac 0023     		movs	r3, #0
 271              	@ 197 "../..//os/ports/GCC/ARMCMx/chcore_v7m.c" 1
 272 00ae 83F31188 		msr     BASEPRI, r3
 273              	@ 0 "" 2
 274              		.thumb
 275              	.L4:
 276              	.LBE7:
 277              		.loc 1 198 0
 278 00b2 02B0     		add	sp, sp, #8
 279              		@ sp needed
 280 00b4 7047     		bx	lr
 281              		.cfi_endproc
 282              	.LFE10:
 283              		.size	_port_irq_epilogue, .-_port_irq_epilogue
ARM GAS  /tmp/ccGY7fFn.s 			page 6


 284 00b6 00BFAFF3 		.section	.text._port_switch_from_isr,"ax",%progbits
 284      0080AFF3 
 284      0080
 285              		.align	2
 286              		.p2align 4,,15
 287              		.global	_port_switch_from_isr
 288              		.thumb
 289              		.thumb_func
 290              		.type	_port_switch_from_isr, %function
 291              	_port_switch_from_isr:
 292              	.LFB11:
 293              		.loc 1 207 0
 294              		.cfi_startproc
 295              		@ Naked Function: prologue and epilogue provided by programmer.
 296              		@ args = 0, pretend = 0, frame = 0
 297              		@ frame_needed = 0, uses_anonymous_args = 0
 298              		.loc 1 209 0
 299 0000 FFF7FEFF 		bl	dbg_check_lock
 300              		.loc 1 210 0
 301 0004 FFF7FEFF 		bl	chSchDoReschedule
 302              		.loc 1 211 0
 303 0008 FFF7FEFF 		bl	dbg_check_unlock
 304              		.loc 1 212 0
 305              	@ 212 "../..//os/ports/GCC/ARMCMx/chcore_v7m.c" 1
 306              		_port_exit_from_isr:
 307              	@ 0 "" 2
 308              		.loc 1 214 0
 309              	@ 214 "../..//os/ports/GCC/ARMCMx/chcore_v7m.c" 1
 310 000c 00DF     		svc     #0
 311              	@ 0 "" 2
 312              		.loc 1 221 0
 313              		.thumb
 314              		.cfi_endproc
 315              	.LFE11:
 316              		.size	_port_switch_from_isr, .-_port_switch_from_isr
 317 000e 00BF     		.section	.text._port_switch,"ax",%progbits
 318              		.align	2
 319              		.p2align 4,,15
 320              		.global	_port_switch
 321              		.thumb
 322              		.thumb_func
 323              		.type	_port_switch, %function
 324              	_port_switch:
 325              	.LFB12:
 326              		.loc 1 236 0
 327              		.cfi_startproc
 328              		@ Naked Function: prologue and epilogue provided by programmer.
 329              		@ args = 0, pretend = 0, frame = 0
 330              		@ frame_needed = 0, uses_anonymous_args = 0
 331 0000 0346     		mov	r3, r0
 332 0002 0A46     		mov	r2, r1
 333              		.loc 1 238 0
 334              	@ 238 "../..//os/ports/GCC/ARMCMx/chcore_v7m.c" 1
 335 0004 2DE9F04F 		push    {r4, r5, r6, r7, r8, r9, r10, r11, lr}
 336              	@ 0 "" 2
 337              		.loc 1 244 0
 338              	@ 244 "../..//os/ports/GCC/ARMCMx/chcore_v7m.c" 1
ARM GAS  /tmp/ccGY7fFn.s 			page 7


 339 0008 C2F80CD0 		str     sp, [r2, #12]                          
 340 000c D3F80CD0 		ldr     sp, [r3, #12]
 341              	@ 0 "" 2
 342              		.loc 1 250 0
 343              	@ 250 "../..//os/ports/GCC/ARMCMx/chcore_v7m.c" 1
 344 0010 BDE8F08F 		pop     {r4, r5, r6, r7, r8, r9, r10, r11, pc}
 345              	@ 0 "" 2
 346              		.loc 1 252 0
 347              		.thumb
 348              		.cfi_endproc
 349              	.LFE12:
 350              		.size	_port_switch, .-_port_switch
 351 0014 AFF30080 		.section	.text._port_thread_start,"ax",%progbits
 351      AFF30080 
 351      AFF30080 
 352              		.align	2
 353              		.p2align 4,,15
 354              		.global	_port_thread_start
 355              		.thumb
 356              		.thumb_func
 357              		.type	_port_thread_start, %function
 358              	_port_thread_start:
 359              	.LFB13:
 360              		.loc 1 259 0
 361              		.cfi_startproc
 362              		@ args = 0, pretend = 0, frame = 0
 363              		@ frame_needed = 0, uses_anonymous_args = 0
 364 0000 08B5     		push	{r3, lr}
 365              		.cfi_def_cfa_offset 8
 366              		.cfi_offset 3, -8
 367              		.cfi_offset 14, -4
 368              		.loc 1 261 0
 369 0002 FFF7FEFF 		bl	dbg_check_unlock
 370              	.LBB8:
 371 0006 0023     		movs	r3, #0
 372              	@ 261 "../..//os/ports/GCC/ARMCMx/chcore_v7m.c" 1
 373 0008 83F31188 		msr     BASEPRI, r3
 374              	@ 0 "" 2
 375              		.thumb
 376              	.LBE8:
 377              		.loc 1 262 0
 378              	@ 262 "../..//os/ports/GCC/ARMCMx/chcore_v7m.c" 1
 379 000c 2846     		mov     r0, r5                                 
 380 000e A047     		blx     r4                                     
 381 0010 FFF7FEFF 		bl      chThdExit
 382              	@ 0 "" 2
 383              		.loc 1 265 0
 384              		.thumb
 385 0014 08BD     		pop	{r3, pc}
 386              		.cfi_endproc
 387              	.LFE13:
 388              		.size	_port_thread_start, .-_port_thread_start
 389 0016 00BFAFF3 		.text
 389      0080AFF3 
 389      0080
 390              	.Letext0:
 391              		.file 2 "/usr/arm-none-eabi/include/machine/_default_types.h"
ARM GAS  /tmp/ccGY7fFn.s 			page 8


 392              		.file 3 "/usr/arm-none-eabi/include/stdint.h"
 393              		.file 4 "../..//os/ports/GCC/ARMCMx/chtypes.h"
 394              		.file 5 "../..//os/kernel/include/chlists.h"
 395              		.file 6 "../..//os/kernel/include/chthreads.h"
 396              		.file 7 "../..//os/ports/GCC/ARMCMx/chcore_v7m.h"
 397              		.file 8 "../..//os/ports/common/ARMCMx/nvic.h"
 398              		.file 9 "../..//os/kernel/include/chschd.h"
 399              		.file 10 "../..//os/kernel/include/chmtx.h"
 400              		.section	.debug_info,"",%progbits
 401              	.Ldebug_info0:
 402 0000 91070000 		.4byte	0x791
 403 0004 0400     		.2byte	0x4
 404 0006 00000000 		.4byte	.Ldebug_abbrev0
 405 000a 04       		.byte	0x4
 406 000b 01       		.uleb128 0x1
 407 000c E8030000 		.4byte	.LASF98
 408 0010 01       		.byte	0x1
 409 0011 00000000 		.4byte	.LASF99
 410 0015 FF010000 		.4byte	.LASF100
 411 0019 00000000 		.4byte	.Ldebug_ranges0+0
 412 001d 00000000 		.4byte	0
 413 0021 00000000 		.4byte	.Ldebug_line0
 414 0025 02       		.uleb128 0x2
 415 0026 04       		.byte	0x4
 416 0027 05       		.byte	0x5
 417 0028 696E7400 		.ascii	"int\000"
 418 002c 03       		.uleb128 0x3
 419 002d 04       		.byte	0x4
 420 002e 07       		.byte	0x7
 421 002f 1D010000 		.4byte	.LASF0
 422 0033 03       		.uleb128 0x3
 423 0034 01       		.byte	0x1
 424 0035 06       		.byte	0x6
 425 0036 99000000 		.4byte	.LASF1
 426 003a 04       		.uleb128 0x4
 427 003b 3E000000 		.4byte	.LASF5
 428 003f 02       		.byte	0x2
 429 0040 1C       		.byte	0x1c
 430 0041 45000000 		.4byte	0x45
 431 0045 03       		.uleb128 0x3
 432 0046 01       		.byte	0x1
 433 0047 08       		.byte	0x8
 434 0048 AC020000 		.4byte	.LASF2
 435 004c 03       		.uleb128 0x3
 436 004d 02       		.byte	0x2
 437 004e 05       		.byte	0x5
 438 004f CA020000 		.4byte	.LASF3
 439 0053 03       		.uleb128 0x3
 440 0054 02       		.byte	0x2
 441 0055 07       		.byte	0x7
 442 0056 7A010000 		.4byte	.LASF4
 443 005a 04       		.uleb128 0x4
 444 005b 61030000 		.4byte	.LASF6
 445 005f 02       		.byte	0x2
 446 0060 37       		.byte	0x37
 447 0061 65000000 		.4byte	0x65
 448 0065 03       		.uleb128 0x3
ARM GAS  /tmp/ccGY7fFn.s 			page 9


 449 0066 04       		.byte	0x4
 450 0067 05       		.byte	0x5
 451 0068 BF000000 		.4byte	.LASF7
 452 006c 04       		.uleb128 0x4
 453 006d FE000000 		.4byte	.LASF8
 454 0071 02       		.byte	0x2
 455 0072 38       		.byte	0x38
 456 0073 77000000 		.4byte	0x77
 457 0077 03       		.uleb128 0x3
 458 0078 04       		.byte	0x4
 459 0079 07       		.byte	0x7
 460 007a 45010000 		.4byte	.LASF9
 461 007e 03       		.uleb128 0x3
 462 007f 08       		.byte	0x8
 463 0080 05       		.byte	0x5
 464 0081 8B000000 		.4byte	.LASF10
 465 0085 04       		.uleb128 0x4
 466 0086 77020000 		.4byte	.LASF11
 467 008a 02       		.byte	0x2
 468 008b 4E       		.byte	0x4e
 469 008c 90000000 		.4byte	0x90
 470 0090 03       		.uleb128 0x3
 471 0091 08       		.byte	0x8
 472 0092 07       		.byte	0x7
 473 0093 5E000000 		.4byte	.LASF12
 474 0097 04       		.uleb128 0x4
 475 0098 A5030000 		.4byte	.LASF13
 476 009c 03       		.byte	0x3
 477 009d 2A       		.byte	0x2a
 478 009e 3A000000 		.4byte	0x3a
 479 00a2 04       		.uleb128 0x4
 480 00a3 A4020000 		.4byte	.LASF14
 481 00a7 03       		.byte	0x3
 482 00a8 41       		.byte	0x41
 483 00a9 5A000000 		.4byte	0x5a
 484 00ad 04       		.uleb128 0x4
 485 00ae 1A030000 		.4byte	.LASF15
 486 00b2 03       		.byte	0x3
 487 00b3 42       		.byte	0x42
 488 00b4 6C000000 		.4byte	0x6c
 489 00b8 04       		.uleb128 0x4
 490 00b9 35000000 		.4byte	.LASF16
 491 00bd 03       		.byte	0x3
 492 00be 4E       		.byte	0x4e
 493 00bf 85000000 		.4byte	0x85
 494 00c3 03       		.uleb128 0x3
 495 00c4 01       		.byte	0x1
 496 00c5 02       		.byte	0x2
 497 00c6 9E020000 		.4byte	.LASF17
 498 00ca 04       		.uleb128 0x4
 499 00cb C4010000 		.4byte	.LASF18
 500 00cf 04       		.byte	0x4
 501 00d0 2C       		.byte	0x2c
 502 00d1 97000000 		.4byte	0x97
 503 00d5 04       		.uleb128 0x4
 504 00d6 D5000000 		.4byte	.LASF19
 505 00da 04       		.byte	0x4
ARM GAS  /tmp/ccGY7fFn.s 			page 10


 506 00db 2D       		.byte	0x2d
 507 00dc 97000000 		.4byte	0x97
 508 00e0 04       		.uleb128 0x4
 509 00e1 82020000 		.4byte	.LASF20
 510 00e5 04       		.byte	0x4
 511 00e6 2E       		.byte	0x2e
 512 00e7 97000000 		.4byte	0x97
 513 00eb 04       		.uleb128 0x4
 514 00ec B5000000 		.4byte	.LASF21
 515 00f0 04       		.byte	0x4
 516 00f1 2F       		.byte	0x2f
 517 00f2 97000000 		.4byte	0x97
 518 00f6 04       		.uleb128 0x4
 519 00f7 96020000 		.4byte	.LASF22
 520 00fb 04       		.byte	0x4
 521 00fc 30       		.byte	0x30
 522 00fd AD000000 		.4byte	0xad
 523 0101 04       		.uleb128 0x4
 524 0102 92010000 		.4byte	.LASF23
 525 0106 04       		.byte	0x4
 526 0107 31       		.byte	0x31
 527 0108 A2000000 		.4byte	0xa2
 528 010c 04       		.uleb128 0x4
 529 010d D8010000 		.4byte	.LASF24
 530 0111 04       		.byte	0x4
 531 0112 33       		.byte	0x33
 532 0113 AD000000 		.4byte	0xad
 533 0117 04       		.uleb128 0x4
 534 0118 4C030000 		.4byte	.LASF25
 535 011c 04       		.byte	0x4
 536 011d 35       		.byte	0x35
 537 011e AD000000 		.4byte	0xad
 538 0122 04       		.uleb128 0x4
 539 0123 08030000 		.4byte	.LASF26
 540 0127 05       		.byte	0x5
 541 0128 2A       		.byte	0x2a
 542 0129 2D010000 		.4byte	0x12d
 543 012d 05       		.uleb128 0x5
 544 012e 08030000 		.4byte	.LASF26
 545 0132 4C       		.byte	0x4c
 546 0133 06       		.byte	0x6
 547 0134 5E       		.byte	0x5e
 548 0135 36020000 		.4byte	0x236
 549 0139 06       		.uleb128 0x6
 550 013a F9020000 		.4byte	.LASF27
 551 013e 06       		.byte	0x6
 552 013f 5F       		.byte	0x5f
 553 0140 57020000 		.4byte	0x257
 554 0144 00       		.byte	0
 555 0145 06       		.uleb128 0x6
 556 0146 8F020000 		.4byte	.LASF28
 557 014a 06       		.byte	0x6
 558 014b 61       		.byte	0x61
 559 014c 57020000 		.4byte	0x257
 560 0150 04       		.byte	0x4
 561 0151 06       		.uleb128 0x6
 562 0152 84000000 		.4byte	.LASF29
ARM GAS  /tmp/ccGY7fFn.s 			page 11


 563 0156 06       		.byte	0x6
 564 0157 63       		.byte	0x63
 565 0158 F6000000 		.4byte	0xf6
 566 015c 08       		.byte	0x8
 567 015d 06       		.uleb128 0x6
 568 015e E2030000 		.4byte	.LASF30
 569 0162 06       		.byte	0x6
 570 0163 64       		.byte	0x64
 571 0164 84030000 		.4byte	0x384
 572 0168 0C       		.byte	0xc
 573 0169 06       		.uleb128 0x6
 574 016a F1000000 		.4byte	.LASF31
 575 016e 06       		.byte	0x6
 576 016f 66       		.byte	0x66
 577 0170 57020000 		.4byte	0x257
 578 0174 10       		.byte	0x10
 579 0175 06       		.uleb128 0x6
 580 0176 4A020000 		.4byte	.LASF32
 581 017a 06       		.byte	0x6
 582 017b 67       		.byte	0x67
 583 017c 57020000 		.4byte	0x257
 584 0180 14       		.byte	0x14
 585 0181 06       		.uleb128 0x6
 586 0182 C8030000 		.4byte	.LASF33
 587 0186 06       		.byte	0x6
 588 0187 6E       		.byte	0x6e
 589 0188 FD050000 		.4byte	0x5fd
 590 018c 18       		.byte	0x18
 591 018d 06       		.uleb128 0x6
 592 018e 12010000 		.4byte	.LASF34
 593 0192 06       		.byte	0x6
 594 0193 74       		.byte	0x74
 595 0194 0F060000 		.4byte	0x60f
 596 0198 1C       		.byte	0x1c
 597 0199 06       		.uleb128 0x6
 598 019a D4020000 		.4byte	.LASF35
 599 019e 06       		.byte	0x6
 600 019f 79       		.byte	0x79
 601 01a0 D5000000 		.4byte	0xd5
 602 01a4 20       		.byte	0x20
 603 01a5 06       		.uleb128 0x6
 604 01a6 00030000 		.4byte	.LASF36
 605 01aa 06       		.byte	0x6
 606 01ab 7D       		.byte	0x7d
 607 01ac CA000000 		.4byte	0xca
 608 01b0 21       		.byte	0x21
 609 01b1 06       		.uleb128 0x6
 610 01b2 89030000 		.4byte	.LASF37
 611 01b6 06       		.byte	0x6
 612 01b7 82       		.byte	0x82
 613 01b8 E0000000 		.4byte	0xe0
 614 01bc 22       		.byte	0x22
 615 01bd 06       		.uleb128 0x6
 616 01be DC020000 		.4byte	.LASF38
 617 01c2 06       		.byte	0x6
 618 01c3 88       		.byte	0x88
 619 01c4 EB000000 		.4byte	0xeb
ARM GAS  /tmp/ccGY7fFn.s 			page 12


 620 01c8 23       		.byte	0x23
 621 01c9 06       		.uleb128 0x6
 622 01ca 6B030000 		.4byte	.LASF39
 623 01ce 06       		.byte	0x6
 624 01cf 8F       		.byte	0x8f
 625 01d0 25050000 		.4byte	0x525
 626 01d4 24       		.byte	0x24
 627 01d5 07       		.uleb128 0x7
 628 01d6 705F7500 		.ascii	"p_u\000"
 629 01da 06       		.byte	0x6
 630 01db B4       		.byte	0xb4
 631 01dc C8050000 		.4byte	0x5c8
 632 01e0 28       		.byte	0x28
 633 01e1 06       		.uleb128 0x6
 634 01e2 F5010000 		.4byte	.LASF40
 635 01e6 06       		.byte	0x6
 636 01e7 B9       		.byte	0xb9
 637 01e8 7D020000 		.4byte	0x27d
 638 01ec 2C       		.byte	0x2c
 639 01ed 06       		.uleb128 0x6
 640 01ee 7E030000 		.4byte	.LASF41
 641 01f2 06       		.byte	0x6
 642 01f3 BF       		.byte	0xbf
 643 01f4 5D020000 		.4byte	0x25d
 644 01f8 30       		.byte	0x30
 645 01f9 06       		.uleb128 0x6
 646 01fa 28000000 		.4byte	.LASF42
 647 01fe 06       		.byte	0x6
 648 01ff C3       		.byte	0xc3
 649 0200 01010000 		.4byte	0x101
 650 0204 38       		.byte	0x38
 651 0205 06       		.uleb128 0x6
 652 0206 0F030000 		.4byte	.LASF43
 653 020a 06       		.byte	0x6
 654 020b C9       		.byte	0xc9
 655 020c 0C010000 		.4byte	0x10c
 656 0210 3C       		.byte	0x3c
 657 0211 06       		.uleb128 0x6
 658 0212 C0020000 		.4byte	.LASF44
 659 0216 06       		.byte	0x6
 660 0217 D0       		.byte	0xd0
 661 0218 15060000 		.4byte	0x615
 662 021c 40       		.byte	0x40
 663 021d 06       		.uleb128 0x6
 664 021e 56030000 		.4byte	.LASF45
 665 0222 06       		.byte	0x6
 666 0223 D4       		.byte	0xd4
 667 0224 F6000000 		.4byte	0xf6
 668 0228 44       		.byte	0x44
 669 0229 06       		.uleb128 0x6
 670 022a A5000000 		.4byte	.LASF46
 671 022e 06       		.byte	0x6
 672 022f DA       		.byte	0xda
 673 0230 93020000 		.4byte	0x293
 674 0234 48       		.byte	0x48
 675 0235 00       		.byte	0
 676 0236 08       		.uleb128 0x8
ARM GAS  /tmp/ccGY7fFn.s 			page 13


 677 0237 08       		.byte	0x8
 678 0238 05       		.byte	0x5
 679 0239 61       		.byte	0x61
 680 023a 57020000 		.4byte	0x257
 681 023e 06       		.uleb128 0x6
 682 023f F9020000 		.4byte	.LASF27
 683 0243 05       		.byte	0x5
 684 0244 62       		.byte	0x62
 685 0245 57020000 		.4byte	0x257
 686 0249 00       		.byte	0
 687 024a 06       		.uleb128 0x6
 688 024b 8F020000 		.4byte	.LASF28
 689 024f 05       		.byte	0x5
 690 0250 64       		.byte	0x64
 691 0251 57020000 		.4byte	0x257
 692 0255 04       		.byte	0x4
 693 0256 00       		.byte	0
 694 0257 09       		.uleb128 0x9
 695 0258 04       		.byte	0x4
 696 0259 22010000 		.4byte	0x122
 697 025d 04       		.uleb128 0x4
 698 025e 58020000 		.4byte	.LASF47
 699 0262 05       		.byte	0x5
 700 0263 66       		.byte	0x66
 701 0264 36020000 		.4byte	0x236
 702 0268 08       		.uleb128 0x8
 703 0269 04       		.byte	0x4
 704 026a 05       		.byte	0x5
 705 026b 6B       		.byte	0x6b
 706 026c 7D020000 		.4byte	0x27d
 707 0270 06       		.uleb128 0x6
 708 0271 F9020000 		.4byte	.LASF27
 709 0275 05       		.byte	0x5
 710 0276 6D       		.byte	0x6d
 711 0277 57020000 		.4byte	0x257
 712 027b 00       		.byte	0
 713 027c 00       		.byte	0
 714 027d 04       		.uleb128 0x4
 715 027e CC010000 		.4byte	.LASF48
 716 0282 05       		.byte	0x5
 717 0283 70       		.byte	0x70
 718 0284 68020000 		.4byte	0x268
 719 0288 04       		.uleb128 0x4
 720 0289 09010000 		.4byte	.LASF49
 721 028d 07       		.byte	0x7
 722 028e E5       		.byte	0xe5
 723 028f 93020000 		.4byte	0x293
 724 0293 0A       		.uleb128 0xa
 725 0294 04       		.byte	0x4
 726 0295 04       		.uleb128 0x4
 727 0296 EA010000 		.4byte	.LASF50
 728 029a 07       		.byte	0x7
 729 029b EB       		.byte	0xeb
 730 029c B8000000 		.4byte	0xb8
 731 02a0 05       		.uleb128 0x5
 732 02a1 31010000 		.4byte	.LASF51
 733 02a5 20       		.byte	0x20
ARM GAS  /tmp/ccGY7fFn.s 			page 14


 734 02a6 07       		.byte	0x7
 735 02a7 ED       		.byte	0xed
 736 02a8 08030000 		.4byte	0x308
 737 02ac 07       		.uleb128 0x7
 738 02ad 723000   		.ascii	"r0\000"
 739 02b0 07       		.byte	0x7
 740 02b1 EE       		.byte	0xee
 741 02b2 88020000 		.4byte	0x288
 742 02b6 00       		.byte	0
 743 02b7 07       		.uleb128 0x7
 744 02b8 723100   		.ascii	"r1\000"
 745 02bb 07       		.byte	0x7
 746 02bc EF       		.byte	0xef
 747 02bd 88020000 		.4byte	0x288
 748 02c1 04       		.byte	0x4
 749 02c2 07       		.uleb128 0x7
 750 02c3 723200   		.ascii	"r2\000"
 751 02c6 07       		.byte	0x7
 752 02c7 F0       		.byte	0xf0
 753 02c8 88020000 		.4byte	0x288
 754 02cc 08       		.byte	0x8
 755 02cd 07       		.uleb128 0x7
 756 02ce 723300   		.ascii	"r3\000"
 757 02d1 07       		.byte	0x7
 758 02d2 F1       		.byte	0xf1
 759 02d3 88020000 		.4byte	0x288
 760 02d7 0C       		.byte	0xc
 761 02d8 07       		.uleb128 0x7
 762 02d9 72313200 		.ascii	"r12\000"
 763 02dd 07       		.byte	0x7
 764 02de F2       		.byte	0xf2
 765 02df 88020000 		.4byte	0x288
 766 02e3 10       		.byte	0x10
 767 02e4 06       		.uleb128 0x6
 768 02e5 2A010000 		.4byte	.LASF52
 769 02e9 07       		.byte	0x7
 770 02ea F3       		.byte	0xf3
 771 02eb 88020000 		.4byte	0x288
 772 02ef 14       		.byte	0x14
 773 02f0 07       		.uleb128 0x7
 774 02f1 706300   		.ascii	"pc\000"
 775 02f4 07       		.byte	0x7
 776 02f5 F4       		.byte	0xf4
 777 02f6 88020000 		.4byte	0x288
 778 02fa 18       		.byte	0x18
 779 02fb 06       		.uleb128 0x6
 780 02fc E6020000 		.4byte	.LASF53
 781 0300 07       		.byte	0x7
 782 0301 F5       		.byte	0xf5
 783 0302 88020000 		.4byte	0x288
 784 0306 1C       		.byte	0x1c
 785 0307 00       		.byte	0
 786 0308 0B       		.uleb128 0xb
 787 0309 77030000 		.4byte	.LASF54
 788 030d 24       		.byte	0x24
 789 030e 07       		.byte	0x7
 790 030f 0C01     		.2byte	0x10c
ARM GAS  /tmp/ccGY7fFn.s 			page 15


 791 0311 84030000 		.4byte	0x384
 792 0315 0C       		.uleb128 0xc
 793 0316 723400   		.ascii	"r4\000"
 794 0319 07       		.byte	0x7
 795 031a 1F01     		.2byte	0x11f
 796 031c 88020000 		.4byte	0x288
 797 0320 00       		.byte	0
 798 0321 0C       		.uleb128 0xc
 799 0322 723500   		.ascii	"r5\000"
 800 0325 07       		.byte	0x7
 801 0326 2001     		.2byte	0x120
 802 0328 88020000 		.4byte	0x288
 803 032c 04       		.byte	0x4
 804 032d 0C       		.uleb128 0xc
 805 032e 723600   		.ascii	"r6\000"
 806 0331 07       		.byte	0x7
 807 0332 2101     		.2byte	0x121
 808 0334 88020000 		.4byte	0x288
 809 0338 08       		.byte	0x8
 810 0339 0C       		.uleb128 0xc
 811 033a 723700   		.ascii	"r7\000"
 812 033d 07       		.byte	0x7
 813 033e 2201     		.2byte	0x122
 814 0340 88020000 		.4byte	0x288
 815 0344 0C       		.byte	0xc
 816 0345 0C       		.uleb128 0xc
 817 0346 723800   		.ascii	"r8\000"
 818 0349 07       		.byte	0x7
 819 034a 2301     		.2byte	0x123
 820 034c 88020000 		.4byte	0x288
 821 0350 10       		.byte	0x10
 822 0351 0C       		.uleb128 0xc
 823 0352 723900   		.ascii	"r9\000"
 824 0355 07       		.byte	0x7
 825 0356 2401     		.2byte	0x124
 826 0358 88020000 		.4byte	0x288
 827 035c 14       		.byte	0x14
 828 035d 0C       		.uleb128 0xc
 829 035e 72313000 		.ascii	"r10\000"
 830 0362 07       		.byte	0x7
 831 0363 2501     		.2byte	0x125
 832 0365 88020000 		.4byte	0x288
 833 0369 18       		.byte	0x18
 834 036a 0C       		.uleb128 0xc
 835 036b 72313100 		.ascii	"r11\000"
 836 036f 07       		.byte	0x7
 837 0370 2601     		.2byte	0x126
 838 0372 88020000 		.4byte	0x288
 839 0376 1C       		.byte	0x1c
 840 0377 0C       		.uleb128 0xc
 841 0378 6C7200   		.ascii	"lr\000"
 842 037b 07       		.byte	0x7
 843 037c 2701     		.2byte	0x127
 844 037e 88020000 		.4byte	0x288
 845 0382 20       		.byte	0x20
 846 0383 00       		.byte	0
 847 0384 0B       		.uleb128 0xb
ARM GAS  /tmp/ccGY7fFn.s 			page 16


 848 0385 72010000 		.4byte	.LASF55
 849 0389 04       		.byte	0x4
 850 038a 07       		.byte	0x7
 851 038b 3101     		.2byte	0x131
 852 038d 9F030000 		.4byte	0x39f
 853 0391 0C       		.uleb128 0xc
 854 0392 72313300 		.ascii	"r13\000"
 855 0396 07       		.byte	0x7
 856 0397 3201     		.2byte	0x132
 857 0399 9F030000 		.4byte	0x39f
 858 039d 00       		.byte	0
 859 039e 00       		.byte	0
 860 039f 09       		.uleb128 0x9
 861 03a0 04       		.byte	0x4
 862 03a1 08030000 		.4byte	0x308
 863 03a5 04       		.uleb128 0x4
 864 03a6 3D030000 		.4byte	.LASF56
 865 03aa 08       		.byte	0x8
 866 03ab 3A       		.byte	0x3a
 867 03ac B0030000 		.4byte	0x3b0
 868 03b0 0D       		.uleb128 0xd
 869 03b1 AD000000 		.4byte	0xad
 870 03b5 03       		.uleb128 0x3
 871 03b6 04       		.byte	0x4
 872 03b7 07       		.byte	0x7
 873 03b8 B8030000 		.4byte	.LASF57
 874 03bc 08       		.uleb128 0x8
 875 03bd 8C       		.byte	0x8c
 876 03be 08       		.byte	0x8
 877 03bf 89       		.byte	0x89
 878 03c0 C1040000 		.4byte	0x4c1
 879 03c4 06       		.uleb128 0x6
 880 03c5 7E000000 		.4byte	.LASF58
 881 03c9 08       		.byte	0x8
 882 03ca 8A       		.byte	0x8a
 883 03cb A5030000 		.4byte	0x3a5
 884 03cf 00       		.byte	0
 885 03d0 06       		.uleb128 0x6
 886 03d1 8D010000 		.4byte	.LASF59
 887 03d5 08       		.byte	0x8
 888 03d6 8B       		.byte	0x8b
 889 03d7 A5030000 		.4byte	0x3a5
 890 03db 04       		.byte	0x4
 891 03dc 06       		.uleb128 0x6
 892 03dd 57010000 		.4byte	.LASF60
 893 03e1 08       		.byte	0x8
 894 03e2 8C       		.byte	0x8c
 895 03e3 A5030000 		.4byte	0x3a5
 896 03e7 08       		.byte	0x8
 897 03e8 06       		.uleb128 0x6
 898 03e9 98010000 		.4byte	.LASF61
 899 03ed 08       		.byte	0x8
 900 03ee 8D       		.byte	0x8d
 901 03ef A5030000 		.4byte	0x3a5
 902 03f3 0C       		.byte	0xc
 903 03f4 07       		.uleb128 0x7
 904 03f5 53435200 		.ascii	"SCR\000"
ARM GAS  /tmp/ccGY7fFn.s 			page 17


 905 03f9 08       		.byte	0x8
 906 03fa 8E       		.byte	0x8e
 907 03fb A5030000 		.4byte	0x3a5
 908 03ff 10       		.byte	0x10
 909 0400 07       		.uleb128 0x7
 910 0401 43435200 		.ascii	"CCR\000"
 911 0405 08       		.byte	0x8
 912 0406 8F       		.byte	0x8f
 913 0407 A5030000 		.4byte	0x3a5
 914 040b 14       		.byte	0x14
 915 040c 06       		.uleb128 0x6
 916 040d 72030000 		.4byte	.LASF62
 917 0411 08       		.byte	0x8
 918 0412 90       		.byte	0x90
 919 0413 D1040000 		.4byte	0x4d1
 920 0417 18       		.byte	0x18
 921 0418 06       		.uleb128 0x6
 922 0419 BA020000 		.4byte	.LASF63
 923 041d 08       		.byte	0x8
 924 041e 91       		.byte	0x91
 925 041f A5030000 		.4byte	0x3a5
 926 0423 24       		.byte	0x24
 927 0424 06       		.uleb128 0x6
 928 0425 45020000 		.4byte	.LASF64
 929 0429 08       		.byte	0x8
 930 042a 92       		.byte	0x92
 931 042b A5030000 		.4byte	0x3a5
 932 042f 28       		.byte	0x28
 933 0430 06       		.uleb128 0x6
 934 0431 D5030000 		.4byte	.LASF65
 935 0435 08       		.byte	0x8
 936 0436 93       		.byte	0x93
 937 0437 A5030000 		.4byte	0x3a5
 938 043b 2C       		.byte	0x2c
 939 043c 06       		.uleb128 0x6
 940 043d 9E010000 		.4byte	.LASF66
 941 0441 08       		.byte	0x8
 942 0442 94       		.byte	0x94
 943 0443 A5030000 		.4byte	0x3a5
 944 0447 30       		.byte	0x30
 945 0448 06       		.uleb128 0x6
 946 0449 AB010000 		.4byte	.LASF67
 947 044d 08       		.byte	0x8
 948 044e 95       		.byte	0x95
 949 044f A5030000 		.4byte	0x3a5
 950 0453 34       		.byte	0x34
 951 0454 06       		.uleb128 0x6
 952 0455 F9000000 		.4byte	.LASF68
 953 0459 08       		.byte	0x8
 954 045a 96       		.byte	0x96
 955 045b A5030000 		.4byte	0x3a5
 956 045f 38       		.byte	0x38
 957 0460 06       		.uleb128 0x6
 958 0461 2B030000 		.4byte	.LASF69
 959 0465 08       		.byte	0x8
 960 0466 97       		.byte	0x97
 961 0467 A5030000 		.4byte	0x3a5
ARM GAS  /tmp/ccGY7fFn.s 			page 18


 962 046b 3C       		.byte	0x3c
 963 046c 07       		.uleb128 0x7
 964 046d 50465200 		.ascii	"PFR\000"
 965 0471 08       		.byte	0x8
 966 0472 98       		.byte	0x98
 967 0473 E6040000 		.4byte	0x4e6
 968 0477 40       		.byte	0x40
 969 0478 07       		.uleb128 0x7
 970 0479 44465200 		.ascii	"DFR\000"
 971 047d 08       		.byte	0x8
 972 047e 99       		.byte	0x99
 973 047f A5030000 		.4byte	0x3a5
 974 0483 48       		.byte	0x48
 975 0484 07       		.uleb128 0x7
 976 0485 41445200 		.ascii	"ADR\000"
 977 0489 08       		.byte	0x8
 978 048a 9A       		.byte	0x9a
 979 048b A5030000 		.4byte	0x3a5
 980 048f 4C       		.byte	0x4c
 981 0490 06       		.uleb128 0x6
 982 0491 9A030000 		.4byte	.LASF70
 983 0495 08       		.byte	0x8
 984 0496 9B       		.byte	0x9b
 985 0497 FB040000 		.4byte	0x4fb
 986 049b 50       		.byte	0x50
 987 049c 07       		.uleb128 0x7
 988 049d 53415200 		.ascii	"SAR\000"
 989 04a1 08       		.byte	0x8
 990 04a2 9C       		.byte	0x9c
 991 04a3 10050000 		.4byte	0x510
 992 04a7 60       		.byte	0x60
 993 04a8 06       		.uleb128 0x6
 994 04a9 30030000 		.4byte	.LASF71
 995 04ad 08       		.byte	0x8
 996 04ae 9D       		.byte	0x9d
 997 04af 15050000 		.4byte	0x515
 998 04b3 74       		.byte	0x74
 999 04b4 06       		.uleb128 0x6
 1000 04b5 CF030000 		.4byte	.LASF72
 1001 04b9 08       		.byte	0x8
 1002 04ba 9E       		.byte	0x9e
 1003 04bb A5030000 		.4byte	0x3a5
 1004 04bf 88       		.byte	0x88
 1005 04c0 00       		.byte	0
 1006 04c1 0E       		.uleb128 0xe
 1007 04c2 A5030000 		.4byte	0x3a5
 1008 04c6 D1040000 		.4byte	0x4d1
 1009 04ca 0F       		.uleb128 0xf
 1010 04cb B5030000 		.4byte	0x3b5
 1011 04cf 02       		.byte	0x2
 1012 04d0 00       		.byte	0
 1013 04d1 0D       		.uleb128 0xd
 1014 04d2 C1040000 		.4byte	0x4c1
 1015 04d6 0E       		.uleb128 0xe
 1016 04d7 A5030000 		.4byte	0x3a5
 1017 04db E6040000 		.4byte	0x4e6
 1018 04df 0F       		.uleb128 0xf
ARM GAS  /tmp/ccGY7fFn.s 			page 19


 1019 04e0 B5030000 		.4byte	0x3b5
 1020 04e4 01       		.byte	0x1
 1021 04e5 00       		.byte	0
 1022 04e6 0D       		.uleb128 0xd
 1023 04e7 D6040000 		.4byte	0x4d6
 1024 04eb 0E       		.uleb128 0xe
 1025 04ec A5030000 		.4byte	0x3a5
 1026 04f0 FB040000 		.4byte	0x4fb
 1027 04f4 0F       		.uleb128 0xf
 1028 04f5 B5030000 		.4byte	0x3b5
 1029 04f9 03       		.byte	0x3
 1030 04fa 00       		.byte	0
 1031 04fb 0D       		.uleb128 0xd
 1032 04fc EB040000 		.4byte	0x4eb
 1033 0500 0E       		.uleb128 0xe
 1034 0501 A5030000 		.4byte	0x3a5
 1035 0505 10050000 		.4byte	0x510
 1036 0509 0F       		.uleb128 0xf
 1037 050a B5030000 		.4byte	0x3b5
 1038 050e 04       		.byte	0x4
 1039 050f 00       		.byte	0
 1040 0510 0D       		.uleb128 0xd
 1041 0511 00050000 		.4byte	0x500
 1042 0515 0D       		.uleb128 0xd
 1043 0516 00050000 		.4byte	0x500
 1044 051a 04       		.uleb128 0x4
 1045 051b 48000000 		.4byte	.LASF73
 1046 051f 08       		.byte	0x8
 1047 0520 9F       		.byte	0x9f
 1048 0521 BC030000 		.4byte	0x3bc
 1049 0525 0D       		.uleb128 0xd
 1050 0526 17010000 		.4byte	0x117
 1051 052a 08       		.uleb128 0x8
 1052 052b 1C       		.byte	0x1c
 1053 052c 09       		.byte	0x9
 1054 052d 5E       		.byte	0x5e
 1055 052e 7B050000 		.4byte	0x57b
 1056 0532 06       		.uleb128 0x6
 1057 0533 23030000 		.4byte	.LASF74
 1058 0537 09       		.byte	0x9
 1059 0538 5F       		.byte	0x5f
 1060 0539 5D020000 		.4byte	0x25d
 1061 053d 00       		.byte	0
 1062 053e 06       		.uleb128 0x6
 1063 053f EB020000 		.4byte	.LASF75
 1064 0543 09       		.byte	0x9
 1065 0544 60       		.byte	0x60
 1066 0545 F6000000 		.4byte	0xf6
 1067 0549 08       		.byte	0x8
 1068 054a 06       		.uleb128 0x6
 1069 054b 52020000 		.4byte	.LASF76
 1070 054f 09       		.byte	0x9
 1071 0550 62       		.byte	0x62
 1072 0551 84030000 		.4byte	0x384
 1073 0555 0C       		.byte	0xc
 1074 0556 06       		.uleb128 0x6
 1075 0557 A3010000 		.4byte	.LASF77
ARM GAS  /tmp/ccGY7fFn.s 			page 20


 1076 055b 09       		.byte	0x9
 1077 055c 65       		.byte	0x65
 1078 055d 57020000 		.4byte	0x257
 1079 0561 10       		.byte	0x10
 1080 0562 06       		.uleb128 0x6
 1081 0563 6F020000 		.4byte	.LASF78
 1082 0567 09       		.byte	0x9
 1083 0568 66       		.byte	0x66
 1084 0569 57020000 		.4byte	0x257
 1085 056d 14       		.byte	0x14
 1086 056e 06       		.uleb128 0x6
 1087 056f 65020000 		.4byte	.LASF79
 1088 0573 09       		.byte	0x9
 1089 0574 69       		.byte	0x69
 1090 0575 57020000 		.4byte	0x257
 1091 0579 18       		.byte	0x18
 1092 057a 00       		.byte	0
 1093 057b 04       		.uleb128 0x4
 1094 057c 90030000 		.4byte	.LASF80
 1095 0580 09       		.byte	0x9
 1096 0581 6B       		.byte	0x6b
 1097 0582 2A050000 		.4byte	0x52a
 1098 0586 05       		.uleb128 0x5
 1099 0587 E4010000 		.4byte	.LASF81
 1100 058b 10       		.byte	0x10
 1101 058c 0A       		.byte	0xa
 1102 058d 2C       		.byte	0x2c
 1103 058e B7050000 		.4byte	0x5b7
 1104 0592 06       		.uleb128 0x6
 1105 0593 AD000000 		.4byte	.LASF82
 1106 0597 0A       		.byte	0xa
 1107 0598 2D       		.byte	0x2d
 1108 0599 5D020000 		.4byte	0x25d
 1109 059d 00       		.byte	0
 1110 059e 06       		.uleb128 0x6
 1111 059f DA030000 		.4byte	.LASF83
 1112 05a3 0A       		.byte	0xa
 1113 05a4 2F       		.byte	0x2f
 1114 05a5 57020000 		.4byte	0x257
 1115 05a9 08       		.byte	0x8
 1116 05aa 06       		.uleb128 0x6
 1117 05ab 45030000 		.4byte	.LASF84
 1118 05af 0A       		.byte	0xa
 1119 05b0 31       		.byte	0x31
 1120 05b1 B7050000 		.4byte	0x5b7
 1121 05b5 0C       		.byte	0xc
 1122 05b6 00       		.byte	0
 1123 05b7 09       		.uleb128 0x9
 1124 05b8 04       		.byte	0x4
 1125 05b9 86050000 		.4byte	0x586
 1126 05bd 04       		.uleb128 0x4
 1127 05be E4010000 		.4byte	.LASF81
 1128 05c2 0A       		.byte	0xa
 1129 05c3 33       		.byte	0x33
 1130 05c4 86050000 		.4byte	0x586
 1131 05c8 10       		.uleb128 0x10
 1132 05c9 04       		.byte	0x4
ARM GAS  /tmp/ccGY7fFn.s 			page 21


 1133 05ca 06       		.byte	0x6
 1134 05cb 96       		.byte	0x96
 1135 05cc FD050000 		.4byte	0x5fd
 1136 05d0 11       		.uleb128 0x11
 1137 05d1 2E000000 		.4byte	.LASF85
 1138 05d5 06       		.byte	0x6
 1139 05d6 9D       		.byte	0x9d
 1140 05d7 01010000 		.4byte	0x101
 1141 05db 11       		.uleb128 0x11
 1142 05dc 75000000 		.4byte	.LASF86
 1143 05e0 06       		.byte	0x6
 1144 05e1 A4       		.byte	0xa4
 1145 05e2 01010000 		.4byte	0x101
 1146 05e6 11       		.uleb128 0x11
 1147 05e7 C1030000 		.4byte	.LASF87
 1148 05eb 06       		.byte	0x6
 1149 05ec AB       		.byte	0xab
 1150 05ed 93020000 		.4byte	0x293
 1151 05f1 11       		.uleb128 0x11
 1152 05f2 F2020000 		.4byte	.LASF88
 1153 05f6 06       		.byte	0x6
 1154 05f7 B2       		.byte	0xb2
 1155 05f8 0C010000 		.4byte	0x10c
 1156 05fc 00       		.byte	0
 1157 05fd 09       		.uleb128 0x9
 1158 05fe 04       		.byte	0x4
 1159 05ff 03060000 		.4byte	0x603
 1160 0603 12       		.uleb128 0x12
 1161 0604 08060000 		.4byte	0x608
 1162 0608 03       		.uleb128 0x3
 1163 0609 01       		.byte	0x1
 1164 060a 08       		.byte	0x8
 1165 060b 38030000 		.4byte	.LASF89
 1166 060f 09       		.uleb128 0x9
 1167 0610 04       		.byte	0x4
 1168 0611 95020000 		.4byte	0x295
 1169 0615 09       		.uleb128 0x9
 1170 0616 04       		.byte	0x4
 1171 0617 BD050000 		.4byte	0x5bd
 1172 061b 13       		.uleb128 0x13
 1173 061c 50000000 		.4byte	.LASF90
 1174 0620 01       		.byte	0x1
 1175 0621 2F       		.byte	0x2f
 1176 0622 00000000 		.4byte	.LFB7
 1177 0626 28000000 		.4byte	.LFE7-.LFB7
 1178 062a 01       		.uleb128 0x1
 1179 062b 9C       		.byte	0x9c
 1180 062c 63060000 		.4byte	0x663
 1181 0630 14       		.uleb128 0x14
 1182 0631 06000000 		.4byte	.LBB2
 1183 0635 06000000 		.4byte	.LBE2-.LBB2
 1184 0639 4B060000 		.4byte	0x64b
 1185 063d 15       		.uleb128 0x15
 1186 063e 746D7000 		.ascii	"tmp\000"
 1187 0642 01       		.byte	0x1
 1188 0643 33       		.byte	0x33
 1189 0644 AD000000 		.4byte	0xad
ARM GAS  /tmp/ccGY7fFn.s 			page 22


 1190 0648 01       		.uleb128 0x1
 1191 0649 53       		.byte	0x53
 1192 064a 00       		.byte	0
 1193 064b 16       		.uleb128 0x16
 1194 064c 18000000 		.4byte	.LBB3
 1195 0650 06000000 		.4byte	.LBE3-.LBB3
 1196 0654 15       		.uleb128 0x15
 1197 0655 746D7000 		.ascii	"tmp\000"
 1198 0659 01       		.byte	0x1
 1199 065a 35       		.byte	0x35
 1200 065b AD000000 		.4byte	0xad
 1201 065f 01       		.uleb128 0x1
 1202 0660 53       		.byte	0x53
 1203 0661 00       		.byte	0
 1204 0662 00       		.byte	0
 1205 0663 17       		.uleb128 0x17
 1206 0664 C8000000 		.4byte	.LASF91
 1207 0668 01       		.byte	0x1
 1208 0669 41       		.byte	0x41
 1209 066a 00000000 		.4byte	.LFB8
 1210 066e 1E000000 		.4byte	.LFE8-.LFB8
 1211 0672 01       		.uleb128 0x1
 1212 0673 9C       		.byte	0x9c
 1213 0674 9E060000 		.4byte	0x69e
 1214 0678 18       		.uleb128 0x18
 1215 0679 8A020000 		.4byte	.LASF92
 1216 067d 01       		.byte	0x1
 1217 067e 42       		.byte	0x42
 1218 067f 9E060000 		.4byte	0x69e
 1219 0683 02       		.uleb128 0x2
 1220 0684 91       		.byte	0x91
 1221 0685 7C       		.sleb128 -4
 1222 0686 16       		.uleb128 0x16
 1223 0687 14000000 		.4byte	.LBB4
 1224 068b 06000000 		.4byte	.LBE4-.LBB4
 1225 068f 15       		.uleb128 0x15
 1226 0690 746D7000 		.ascii	"tmp\000"
 1227 0694 01       		.byte	0x1
 1228 0695 51       		.byte	0x51
 1229 0696 AD000000 		.4byte	0xad
 1230 069a 01       		.uleb128 0x1
 1231 069b 53       		.byte	0x53
 1232 069c 00       		.byte	0
 1233 069d 00       		.byte	0
 1234 069e 09       		.uleb128 0x9
 1235 069f 04       		.byte	0x4
 1236 06a0 A0020000 		.4byte	0x2a0
 1237 06a4 19       		.uleb128 0x19
 1238 06a5 AD030000 		.4byte	.LASF94
 1239 06a9 01       		.byte	0x1
 1240 06aa 76       		.byte	0x76
 1241 06ab 00000000 		.4byte	.LFB9
 1242 06af 3A000000 		.4byte	.LFE9-.LFB9
 1243 06b3 01       		.uleb128 0x1
 1244 06b4 9C       		.byte	0x9c
 1245 06b5 17       		.uleb128 0x17
 1246 06b6 B1010000 		.4byte	.LASF93
ARM GAS  /tmp/ccGY7fFn.s 			page 23


 1247 06ba 01       		.byte	0x1
 1248 06bb 94       		.byte	0x94
 1249 06bc 00000000 		.4byte	.LFB10
 1250 06c0 B6000000 		.4byte	.LFE10-.LFB10
 1251 06c4 01       		.uleb128 0x1
 1252 06c5 9C       		.byte	0x9c
 1253 06c6 19070000 		.4byte	0x719
 1254 06ca 14       		.uleb128 0x14
 1255 06cb 02000000 		.4byte	.LBB5
 1256 06cf 06000000 		.4byte	.LBE5-.LBB5
 1257 06d3 E5060000 		.4byte	0x6e5
 1258 06d7 15       		.uleb128 0x15
 1259 06d8 746D7000 		.ascii	"tmp\000"
 1260 06dc 01       		.byte	0x1
 1261 06dd 96       		.byte	0x96
 1262 06de AD000000 		.4byte	0xad
 1263 06e2 01       		.uleb128 0x1
 1264 06e3 53       		.byte	0x53
 1265 06e4 00       		.byte	0
 1266 06e5 14       		.uleb128 0x14
 1267 06e6 1A000000 		.4byte	.LBB6
 1268 06ea 92000000 		.4byte	.LBE6-.LBB6
 1269 06ee 01070000 		.4byte	0x701
 1270 06f2 18       		.uleb128 0x18
 1271 06f3 8A020000 		.4byte	.LASF92
 1272 06f7 01       		.byte	0x1
 1273 06f8 98       		.byte	0x98
 1274 06f9 9E060000 		.4byte	0x69e
 1275 06fd 02       		.uleb128 0x2
 1276 06fe 91       		.byte	0x91
 1277 06ff 7C       		.sleb128 -4
 1278 0700 00       		.byte	0
 1279 0701 16       		.uleb128 0x16
 1280 0702 AC000000 		.4byte	.LBB7
 1281 0706 06000000 		.4byte	.LBE7-.LBB7
 1282 070a 15       		.uleb128 0x15
 1283 070b 746D7000 		.ascii	"tmp\000"
 1284 070f 01       		.byte	0x1
 1285 0710 C5       		.byte	0xc5
 1286 0711 AD000000 		.4byte	0xad
 1287 0715 01       		.uleb128 0x1
 1288 0716 53       		.byte	0x53
 1289 0717 00       		.byte	0
 1290 0718 00       		.byte	0
 1291 0719 19       		.uleb128 0x19
 1292 071a 5C010000 		.4byte	.LASF95
 1293 071e 01       		.byte	0x1
 1294 071f CF       		.byte	0xcf
 1295 0720 00000000 		.4byte	.LFB11
 1296 0724 0E000000 		.4byte	.LFE11-.LFB11
 1297 0728 01       		.uleb128 0x1
 1298 0729 9C       		.byte	0x9c
 1299 072a 17       		.uleb128 0x17
 1300 072b 38010000 		.4byte	.LASF96
 1301 072f 01       		.byte	0x1
 1302 0730 EC       		.byte	0xec
 1303 0731 00000000 		.4byte	.LFB12
ARM GAS  /tmp/ccGY7fFn.s 			page 24


 1304 0735 14000000 		.4byte	.LFE12-.LFB12
 1305 0739 01       		.uleb128 0x1
 1306 073a 9C       		.byte	0x9c
 1307 073b 5A070000 		.4byte	0x75a
 1308 073f 1A       		.uleb128 0x1a
 1309 0740 6E747000 		.ascii	"ntp\000"
 1310 0744 01       		.byte	0x1
 1311 0745 EC       		.byte	0xec
 1312 0746 57020000 		.4byte	0x257
 1313 074a 01       		.uleb128 0x1
 1314 074b 53       		.byte	0x53
 1315 074c 1A       		.uleb128 0x1a
 1316 074d 6F747000 		.ascii	"otp\000"
 1317 0751 01       		.byte	0x1
 1318 0752 EC       		.byte	0xec
 1319 0753 57020000 		.4byte	0x257
 1320 0757 01       		.uleb128 0x1
 1321 0758 52       		.byte	0x52
 1322 0759 00       		.byte	0
 1323 075a 1B       		.uleb128 0x1b
 1324 075b DE000000 		.4byte	.LASF97
 1325 075f 01       		.byte	0x1
 1326 0760 0301     		.2byte	0x103
 1327 0762 00000000 		.4byte	.LFB13
 1328 0766 16000000 		.4byte	.LFE13-.LFB13
 1329 076a 01       		.uleb128 0x1
 1330 076b 9C       		.byte	0x9c
 1331 076c 89070000 		.4byte	0x789
 1332 0770 16       		.uleb128 0x16
 1333 0771 06000000 		.4byte	.LBB8
 1334 0775 06000000 		.4byte	.LBE8-.LBB8
 1335 0779 1C       		.uleb128 0x1c
 1336 077a 746D7000 		.ascii	"tmp\000"
 1337 077e 01       		.byte	0x1
 1338 077f 0501     		.2byte	0x105
 1339 0781 AD000000 		.4byte	0xad
 1340 0785 01       		.uleb128 0x1
 1341 0786 53       		.byte	0x53
 1342 0787 00       		.byte	0
 1343 0788 00       		.byte	0
 1344 0789 1D       		.uleb128 0x1d
 1345 078a 9F030000 		.4byte	.LASF101
 1346 078e 09       		.byte	0x9
 1347 078f 6F       		.byte	0x6f
 1348 0790 7B050000 		.4byte	0x57b
 1349 0794 00       		.byte	0
 1350              		.section	.debug_abbrev,"",%progbits
 1351              	.Ldebug_abbrev0:
 1352 0000 01       		.uleb128 0x1
 1353 0001 11       		.uleb128 0x11
 1354 0002 01       		.byte	0x1
 1355 0003 25       		.uleb128 0x25
 1356 0004 0E       		.uleb128 0xe
 1357 0005 13       		.uleb128 0x13
 1358 0006 0B       		.uleb128 0xb
 1359 0007 03       		.uleb128 0x3
 1360 0008 0E       		.uleb128 0xe
ARM GAS  /tmp/ccGY7fFn.s 			page 25


 1361 0009 1B       		.uleb128 0x1b
 1362 000a 0E       		.uleb128 0xe
 1363 000b 55       		.uleb128 0x55
 1364 000c 17       		.uleb128 0x17
 1365 000d 11       		.uleb128 0x11
 1366 000e 01       		.uleb128 0x1
 1367 000f 10       		.uleb128 0x10
 1368 0010 17       		.uleb128 0x17
 1369 0011 00       		.byte	0
 1370 0012 00       		.byte	0
 1371 0013 02       		.uleb128 0x2
 1372 0014 24       		.uleb128 0x24
 1373 0015 00       		.byte	0
 1374 0016 0B       		.uleb128 0xb
 1375 0017 0B       		.uleb128 0xb
 1376 0018 3E       		.uleb128 0x3e
 1377 0019 0B       		.uleb128 0xb
 1378 001a 03       		.uleb128 0x3
 1379 001b 08       		.uleb128 0x8
 1380 001c 00       		.byte	0
 1381 001d 00       		.byte	0
 1382 001e 03       		.uleb128 0x3
 1383 001f 24       		.uleb128 0x24
 1384 0020 00       		.byte	0
 1385 0021 0B       		.uleb128 0xb
 1386 0022 0B       		.uleb128 0xb
 1387 0023 3E       		.uleb128 0x3e
 1388 0024 0B       		.uleb128 0xb
 1389 0025 03       		.uleb128 0x3
 1390 0026 0E       		.uleb128 0xe
 1391 0027 00       		.byte	0
 1392 0028 00       		.byte	0
 1393 0029 04       		.uleb128 0x4
 1394 002a 16       		.uleb128 0x16
 1395 002b 00       		.byte	0
 1396 002c 03       		.uleb128 0x3
 1397 002d 0E       		.uleb128 0xe
 1398 002e 3A       		.uleb128 0x3a
 1399 002f 0B       		.uleb128 0xb
 1400 0030 3B       		.uleb128 0x3b
 1401 0031 0B       		.uleb128 0xb
 1402 0032 49       		.uleb128 0x49
 1403 0033 13       		.uleb128 0x13
 1404 0034 00       		.byte	0
 1405 0035 00       		.byte	0
 1406 0036 05       		.uleb128 0x5
 1407 0037 13       		.uleb128 0x13
 1408 0038 01       		.byte	0x1
 1409 0039 03       		.uleb128 0x3
 1410 003a 0E       		.uleb128 0xe
 1411 003b 0B       		.uleb128 0xb
 1412 003c 0B       		.uleb128 0xb
 1413 003d 3A       		.uleb128 0x3a
 1414 003e 0B       		.uleb128 0xb
 1415 003f 3B       		.uleb128 0x3b
 1416 0040 0B       		.uleb128 0xb
 1417 0041 01       		.uleb128 0x1
ARM GAS  /tmp/ccGY7fFn.s 			page 26


 1418 0042 13       		.uleb128 0x13
 1419 0043 00       		.byte	0
 1420 0044 00       		.byte	0
 1421 0045 06       		.uleb128 0x6
 1422 0046 0D       		.uleb128 0xd
 1423 0047 00       		.byte	0
 1424 0048 03       		.uleb128 0x3
 1425 0049 0E       		.uleb128 0xe
 1426 004a 3A       		.uleb128 0x3a
 1427 004b 0B       		.uleb128 0xb
 1428 004c 3B       		.uleb128 0x3b
 1429 004d 0B       		.uleb128 0xb
 1430 004e 49       		.uleb128 0x49
 1431 004f 13       		.uleb128 0x13
 1432 0050 38       		.uleb128 0x38
 1433 0051 0B       		.uleb128 0xb
 1434 0052 00       		.byte	0
 1435 0053 00       		.byte	0
 1436 0054 07       		.uleb128 0x7
 1437 0055 0D       		.uleb128 0xd
 1438 0056 00       		.byte	0
 1439 0057 03       		.uleb128 0x3
 1440 0058 08       		.uleb128 0x8
 1441 0059 3A       		.uleb128 0x3a
 1442 005a 0B       		.uleb128 0xb
 1443 005b 3B       		.uleb128 0x3b
 1444 005c 0B       		.uleb128 0xb
 1445 005d 49       		.uleb128 0x49
 1446 005e 13       		.uleb128 0x13
 1447 005f 38       		.uleb128 0x38
 1448 0060 0B       		.uleb128 0xb
 1449 0061 00       		.byte	0
 1450 0062 00       		.byte	0
 1451 0063 08       		.uleb128 0x8
 1452 0064 13       		.uleb128 0x13
 1453 0065 01       		.byte	0x1
 1454 0066 0B       		.uleb128 0xb
 1455 0067 0B       		.uleb128 0xb
 1456 0068 3A       		.uleb128 0x3a
 1457 0069 0B       		.uleb128 0xb
 1458 006a 3B       		.uleb128 0x3b
 1459 006b 0B       		.uleb128 0xb
 1460 006c 01       		.uleb128 0x1
 1461 006d 13       		.uleb128 0x13
 1462 006e 00       		.byte	0
 1463 006f 00       		.byte	0
 1464 0070 09       		.uleb128 0x9
 1465 0071 0F       		.uleb128 0xf
 1466 0072 00       		.byte	0
 1467 0073 0B       		.uleb128 0xb
 1468 0074 0B       		.uleb128 0xb
 1469 0075 49       		.uleb128 0x49
 1470 0076 13       		.uleb128 0x13
 1471 0077 00       		.byte	0
 1472 0078 00       		.byte	0
 1473 0079 0A       		.uleb128 0xa
 1474 007a 0F       		.uleb128 0xf
ARM GAS  /tmp/ccGY7fFn.s 			page 27


 1475 007b 00       		.byte	0
 1476 007c 0B       		.uleb128 0xb
 1477 007d 0B       		.uleb128 0xb
 1478 007e 00       		.byte	0
 1479 007f 00       		.byte	0
 1480 0080 0B       		.uleb128 0xb
 1481 0081 13       		.uleb128 0x13
 1482 0082 01       		.byte	0x1
 1483 0083 03       		.uleb128 0x3
 1484 0084 0E       		.uleb128 0xe
 1485 0085 0B       		.uleb128 0xb
 1486 0086 0B       		.uleb128 0xb
 1487 0087 3A       		.uleb128 0x3a
 1488 0088 0B       		.uleb128 0xb
 1489 0089 3B       		.uleb128 0x3b
 1490 008a 05       		.uleb128 0x5
 1491 008b 01       		.uleb128 0x1
 1492 008c 13       		.uleb128 0x13
 1493 008d 00       		.byte	0
 1494 008e 00       		.byte	0
 1495 008f 0C       		.uleb128 0xc
 1496 0090 0D       		.uleb128 0xd
 1497 0091 00       		.byte	0
 1498 0092 03       		.uleb128 0x3
 1499 0093 08       		.uleb128 0x8
 1500 0094 3A       		.uleb128 0x3a
 1501 0095 0B       		.uleb128 0xb
 1502 0096 3B       		.uleb128 0x3b
 1503 0097 05       		.uleb128 0x5
 1504 0098 49       		.uleb128 0x49
 1505 0099 13       		.uleb128 0x13
 1506 009a 38       		.uleb128 0x38
 1507 009b 0B       		.uleb128 0xb
 1508 009c 00       		.byte	0
 1509 009d 00       		.byte	0
 1510 009e 0D       		.uleb128 0xd
 1511 009f 35       		.uleb128 0x35
 1512 00a0 00       		.byte	0
 1513 00a1 49       		.uleb128 0x49
 1514 00a2 13       		.uleb128 0x13
 1515 00a3 00       		.byte	0
 1516 00a4 00       		.byte	0
 1517 00a5 0E       		.uleb128 0xe
 1518 00a6 01       		.uleb128 0x1
 1519 00a7 01       		.byte	0x1
 1520 00a8 49       		.uleb128 0x49
 1521 00a9 13       		.uleb128 0x13
 1522 00aa 01       		.uleb128 0x1
 1523 00ab 13       		.uleb128 0x13
 1524 00ac 00       		.byte	0
 1525 00ad 00       		.byte	0
 1526 00ae 0F       		.uleb128 0xf
 1527 00af 21       		.uleb128 0x21
 1528 00b0 00       		.byte	0
 1529 00b1 49       		.uleb128 0x49
 1530 00b2 13       		.uleb128 0x13
 1531 00b3 2F       		.uleb128 0x2f
ARM GAS  /tmp/ccGY7fFn.s 			page 28


 1532 00b4 0B       		.uleb128 0xb
 1533 00b5 00       		.byte	0
 1534 00b6 00       		.byte	0
 1535 00b7 10       		.uleb128 0x10
 1536 00b8 17       		.uleb128 0x17
 1537 00b9 01       		.byte	0x1
 1538 00ba 0B       		.uleb128 0xb
 1539 00bb 0B       		.uleb128 0xb
 1540 00bc 3A       		.uleb128 0x3a
 1541 00bd 0B       		.uleb128 0xb
 1542 00be 3B       		.uleb128 0x3b
 1543 00bf 0B       		.uleb128 0xb
 1544 00c0 01       		.uleb128 0x1
 1545 00c1 13       		.uleb128 0x13
 1546 00c2 00       		.byte	0
 1547 00c3 00       		.byte	0
 1548 00c4 11       		.uleb128 0x11
 1549 00c5 0D       		.uleb128 0xd
 1550 00c6 00       		.byte	0
 1551 00c7 03       		.uleb128 0x3
 1552 00c8 0E       		.uleb128 0xe
 1553 00c9 3A       		.uleb128 0x3a
 1554 00ca 0B       		.uleb128 0xb
 1555 00cb 3B       		.uleb128 0x3b
 1556 00cc 0B       		.uleb128 0xb
 1557 00cd 49       		.uleb128 0x49
 1558 00ce 13       		.uleb128 0x13
 1559 00cf 00       		.byte	0
 1560 00d0 00       		.byte	0
 1561 00d1 12       		.uleb128 0x12
 1562 00d2 26       		.uleb128 0x26
 1563 00d3 00       		.byte	0
 1564 00d4 49       		.uleb128 0x49
 1565 00d5 13       		.uleb128 0x13
 1566 00d6 00       		.byte	0
 1567 00d7 00       		.byte	0
 1568 00d8 13       		.uleb128 0x13
 1569 00d9 2E       		.uleb128 0x2e
 1570 00da 01       		.byte	0x1
 1571 00db 3F       		.uleb128 0x3f
 1572 00dc 19       		.uleb128 0x19
 1573 00dd 03       		.uleb128 0x3
 1574 00de 0E       		.uleb128 0xe
 1575 00df 3A       		.uleb128 0x3a
 1576 00e0 0B       		.uleb128 0xb
 1577 00e1 3B       		.uleb128 0x3b
 1578 00e2 0B       		.uleb128 0xb
 1579 00e3 27       		.uleb128 0x27
 1580 00e4 19       		.uleb128 0x19
 1581 00e5 11       		.uleb128 0x11
 1582 00e6 01       		.uleb128 0x1
 1583 00e7 12       		.uleb128 0x12
 1584 00e8 06       		.uleb128 0x6
 1585 00e9 40       		.uleb128 0x40
 1586 00ea 18       		.uleb128 0x18
 1587 00eb 9642     		.uleb128 0x2116
 1588 00ed 19       		.uleb128 0x19
ARM GAS  /tmp/ccGY7fFn.s 			page 29


 1589 00ee 01       		.uleb128 0x1
 1590 00ef 13       		.uleb128 0x13
 1591 00f0 00       		.byte	0
 1592 00f1 00       		.byte	0
 1593 00f2 14       		.uleb128 0x14
 1594 00f3 0B       		.uleb128 0xb
 1595 00f4 01       		.byte	0x1
 1596 00f5 11       		.uleb128 0x11
 1597 00f6 01       		.uleb128 0x1
 1598 00f7 12       		.uleb128 0x12
 1599 00f8 06       		.uleb128 0x6
 1600 00f9 01       		.uleb128 0x1
 1601 00fa 13       		.uleb128 0x13
 1602 00fb 00       		.byte	0
 1603 00fc 00       		.byte	0
 1604 00fd 15       		.uleb128 0x15
 1605 00fe 34       		.uleb128 0x34
 1606 00ff 00       		.byte	0
 1607 0100 03       		.uleb128 0x3
 1608 0101 08       		.uleb128 0x8
 1609 0102 3A       		.uleb128 0x3a
 1610 0103 0B       		.uleb128 0xb
 1611 0104 3B       		.uleb128 0x3b
 1612 0105 0B       		.uleb128 0xb
 1613 0106 49       		.uleb128 0x49
 1614 0107 13       		.uleb128 0x13
 1615 0108 02       		.uleb128 0x2
 1616 0109 18       		.uleb128 0x18
 1617 010a 00       		.byte	0
 1618 010b 00       		.byte	0
 1619 010c 16       		.uleb128 0x16
 1620 010d 0B       		.uleb128 0xb
 1621 010e 01       		.byte	0x1
 1622 010f 11       		.uleb128 0x11
 1623 0110 01       		.uleb128 0x1
 1624 0111 12       		.uleb128 0x12
 1625 0112 06       		.uleb128 0x6
 1626 0113 00       		.byte	0
 1627 0114 00       		.byte	0
 1628 0115 17       		.uleb128 0x17
 1629 0116 2E       		.uleb128 0x2e
 1630 0117 01       		.byte	0x1
 1631 0118 3F       		.uleb128 0x3f
 1632 0119 19       		.uleb128 0x19
 1633 011a 03       		.uleb128 0x3
 1634 011b 0E       		.uleb128 0xe
 1635 011c 3A       		.uleb128 0x3a
 1636 011d 0B       		.uleb128 0xb
 1637 011e 3B       		.uleb128 0x3b
 1638 011f 0B       		.uleb128 0xb
 1639 0120 27       		.uleb128 0x27
 1640 0121 19       		.uleb128 0x19
 1641 0122 11       		.uleb128 0x11
 1642 0123 01       		.uleb128 0x1
 1643 0124 12       		.uleb128 0x12
 1644 0125 06       		.uleb128 0x6
 1645 0126 40       		.uleb128 0x40
ARM GAS  /tmp/ccGY7fFn.s 			page 30


 1646 0127 18       		.uleb128 0x18
 1647 0128 9742     		.uleb128 0x2117
 1648 012a 19       		.uleb128 0x19
 1649 012b 01       		.uleb128 0x1
 1650 012c 13       		.uleb128 0x13
 1651 012d 00       		.byte	0
 1652 012e 00       		.byte	0
 1653 012f 18       		.uleb128 0x18
 1654 0130 34       		.uleb128 0x34
 1655 0131 00       		.byte	0
 1656 0132 03       		.uleb128 0x3
 1657 0133 0E       		.uleb128 0xe
 1658 0134 3A       		.uleb128 0x3a
 1659 0135 0B       		.uleb128 0xb
 1660 0136 3B       		.uleb128 0x3b
 1661 0137 0B       		.uleb128 0xb
 1662 0138 49       		.uleb128 0x49
 1663 0139 13       		.uleb128 0x13
 1664 013a 02       		.uleb128 0x2
 1665 013b 18       		.uleb128 0x18
 1666 013c 00       		.byte	0
 1667 013d 00       		.byte	0
 1668 013e 19       		.uleb128 0x19
 1669 013f 2E       		.uleb128 0x2e
 1670 0140 00       		.byte	0
 1671 0141 3F       		.uleb128 0x3f
 1672 0142 19       		.uleb128 0x19
 1673 0143 03       		.uleb128 0x3
 1674 0144 0E       		.uleb128 0xe
 1675 0145 3A       		.uleb128 0x3a
 1676 0146 0B       		.uleb128 0xb
 1677 0147 3B       		.uleb128 0x3b
 1678 0148 0B       		.uleb128 0xb
 1679 0149 27       		.uleb128 0x27
 1680 014a 19       		.uleb128 0x19
 1681 014b 11       		.uleb128 0x11
 1682 014c 01       		.uleb128 0x1
 1683 014d 12       		.uleb128 0x12
 1684 014e 06       		.uleb128 0x6
 1685 014f 40       		.uleb128 0x40
 1686 0150 18       		.uleb128 0x18
 1687 0151 9642     		.uleb128 0x2116
 1688 0153 19       		.uleb128 0x19
 1689 0154 00       		.byte	0
 1690 0155 00       		.byte	0
 1691 0156 1A       		.uleb128 0x1a
 1692 0157 05       		.uleb128 0x5
 1693 0158 00       		.byte	0
 1694 0159 03       		.uleb128 0x3
 1695 015a 08       		.uleb128 0x8
 1696 015b 3A       		.uleb128 0x3a
 1697 015c 0B       		.uleb128 0xb
 1698 015d 3B       		.uleb128 0x3b
 1699 015e 0B       		.uleb128 0xb
 1700 015f 49       		.uleb128 0x49
 1701 0160 13       		.uleb128 0x13
 1702 0161 02       		.uleb128 0x2
ARM GAS  /tmp/ccGY7fFn.s 			page 31


 1703 0162 18       		.uleb128 0x18
 1704 0163 00       		.byte	0
 1705 0164 00       		.byte	0
 1706 0165 1B       		.uleb128 0x1b
 1707 0166 2E       		.uleb128 0x2e
 1708 0167 01       		.byte	0x1
 1709 0168 3F       		.uleb128 0x3f
 1710 0169 19       		.uleb128 0x19
 1711 016a 03       		.uleb128 0x3
 1712 016b 0E       		.uleb128 0xe
 1713 016c 3A       		.uleb128 0x3a
 1714 016d 0B       		.uleb128 0xb
 1715 016e 3B       		.uleb128 0x3b
 1716 016f 05       		.uleb128 0x5
 1717 0170 27       		.uleb128 0x27
 1718 0171 19       		.uleb128 0x19
 1719 0172 11       		.uleb128 0x11
 1720 0173 01       		.uleb128 0x1
 1721 0174 12       		.uleb128 0x12
 1722 0175 06       		.uleb128 0x6
 1723 0176 40       		.uleb128 0x40
 1724 0177 18       		.uleb128 0x18
 1725 0178 9642     		.uleb128 0x2116
 1726 017a 19       		.uleb128 0x19
 1727 017b 01       		.uleb128 0x1
 1728 017c 13       		.uleb128 0x13
 1729 017d 00       		.byte	0
 1730 017e 00       		.byte	0
 1731 017f 1C       		.uleb128 0x1c
 1732 0180 34       		.uleb128 0x34
 1733 0181 00       		.byte	0
 1734 0182 03       		.uleb128 0x3
 1735 0183 08       		.uleb128 0x8
 1736 0184 3A       		.uleb128 0x3a
 1737 0185 0B       		.uleb128 0xb
 1738 0186 3B       		.uleb128 0x3b
 1739 0187 05       		.uleb128 0x5
 1740 0188 49       		.uleb128 0x49
 1741 0189 13       		.uleb128 0x13
 1742 018a 02       		.uleb128 0x2
 1743 018b 18       		.uleb128 0x18
 1744 018c 00       		.byte	0
 1745 018d 00       		.byte	0
 1746 018e 1D       		.uleb128 0x1d
 1747 018f 34       		.uleb128 0x34
 1748 0190 00       		.byte	0
 1749 0191 03       		.uleb128 0x3
 1750 0192 0E       		.uleb128 0xe
 1751 0193 3A       		.uleb128 0x3a
 1752 0194 0B       		.uleb128 0xb
 1753 0195 3B       		.uleb128 0x3b
 1754 0196 0B       		.uleb128 0xb
 1755 0197 49       		.uleb128 0x49
 1756 0198 13       		.uleb128 0x13
 1757 0199 3F       		.uleb128 0x3f
 1758 019a 19       		.uleb128 0x19
 1759 019b 3C       		.uleb128 0x3c
ARM GAS  /tmp/ccGY7fFn.s 			page 32


 1760 019c 19       		.uleb128 0x19
 1761 019d 00       		.byte	0
 1762 019e 00       		.byte	0
 1763 019f 00       		.byte	0
 1764              		.section	.debug_aranges,"",%progbits
 1765 0000 4C000000 		.4byte	0x4c
 1766 0004 0200     		.2byte	0x2
 1767 0006 00000000 		.4byte	.Ldebug_info0
 1768 000a 04       		.byte	0x4
 1769 000b 00       		.byte	0
 1770 000c 0000     		.2byte	0
 1771 000e 0000     		.2byte	0
 1772 0010 00000000 		.4byte	.LFB7
 1773 0014 28000000 		.4byte	.LFE7-.LFB7
 1774 0018 00000000 		.4byte	.LFB8
 1775 001c 1E000000 		.4byte	.LFE8-.LFB8
 1776 0020 00000000 		.4byte	.LFB9
 1777 0024 3A000000 		.4byte	.LFE9-.LFB9
 1778 0028 00000000 		.4byte	.LFB10
 1779 002c B6000000 		.4byte	.LFE10-.LFB10
 1780 0030 00000000 		.4byte	.LFB11
 1781 0034 0E000000 		.4byte	.LFE11-.LFB11
 1782 0038 00000000 		.4byte	.LFB12
 1783 003c 14000000 		.4byte	.LFE12-.LFB12
 1784 0040 00000000 		.4byte	.LFB13
 1785 0044 16000000 		.4byte	.LFE13-.LFB13
 1786 0048 00000000 		.4byte	0
 1787 004c 00000000 		.4byte	0
 1788              		.section	.debug_ranges,"",%progbits
 1789              	.Ldebug_ranges0:
 1790 0000 00000000 		.4byte	.LFB7
 1791 0004 28000000 		.4byte	.LFE7
 1792 0008 00000000 		.4byte	.LFB8
 1793 000c 1E000000 		.4byte	.LFE8
 1794 0010 00000000 		.4byte	.LFB9
 1795 0014 3A000000 		.4byte	.LFE9
 1796 0018 00000000 		.4byte	.LFB10
 1797 001c B6000000 		.4byte	.LFE10
 1798 0020 00000000 		.4byte	.LFB11
 1799 0024 0E000000 		.4byte	.LFE11
 1800 0028 00000000 		.4byte	.LFB12
 1801 002c 14000000 		.4byte	.LFE12
 1802 0030 00000000 		.4byte	.LFB13
 1803 0034 16000000 		.4byte	.LFE13
 1804 0038 00000000 		.4byte	0
 1805 003c 00000000 		.4byte	0
 1806              		.section	.debug_line,"",%progbits
 1807              	.Ldebug_line0:
 1808 0000 E8010000 		.section	.debug_str,"MS",%progbits,1
 1808      02002D01 
 1808      00000201 
 1808      FB0E0D00 
 1808      01010101 
 1809              	.LASF99:
 1810 0000 2E2E2F2E 		.ascii	"../..//os/ports/GCC/ARMCMx/chcore_v7m.c\000"
 1810      2E2F2F6F 
 1810      732F706F 
ARM GAS  /tmp/ccGY7fFn.s 			page 33


 1810      7274732F 
 1810      4743432F 
 1811              	.LASF42:
 1812 0028 705F6D73 		.ascii	"p_msg\000"
 1812      6700
 1813              	.LASF85:
 1814 002e 7264796D 		.ascii	"rdymsg\000"
 1814      736700
 1815              	.LASF16:
 1816 0035 75696E74 		.ascii	"uint64_t\000"
 1816      36345F74 
 1816      00
 1817              	.LASF5:
 1818 003e 5F5F7569 		.ascii	"__uint8_t\000"
 1818      6E74385F 
 1818      7400
 1819              	.LASF73:
 1820 0048 434D785F 		.ascii	"CMx_SCB\000"
 1820      53434200 
 1821              	.LASF90:
 1822 0050 53797354 		.ascii	"SysTickVector\000"
 1822      69636B56 
 1822      6563746F 
 1822      7200
 1823              	.LASF12:
 1824 005e 6C6F6E67 		.ascii	"long long unsigned int\000"
 1824      206C6F6E 
 1824      6720756E 
 1824      7369676E 
 1824      65642069 
 1825              	.LASF86:
 1826 0075 65786974 		.ascii	"exitcode\000"
 1826      636F6465 
 1826      00
 1827              	.LASF58:
 1828 007e 43505549 		.ascii	"CPUID\000"
 1828      4400
 1829              	.LASF29:
 1830 0084 705F7072 		.ascii	"p_prio\000"
 1830      696F00
 1831              	.LASF10:
 1832 008b 6C6F6E67 		.ascii	"long long int\000"
 1832      206C6F6E 
 1832      6720696E 
 1832      7400
 1833              	.LASF1:
 1834 0099 7369676E 		.ascii	"signed char\000"
 1834      65642063 
 1834      68617200 
 1835              	.LASF46:
 1836 00a5 705F6D70 		.ascii	"p_mpool\000"
 1836      6F6F6C00 
 1837              	.LASF82:
 1838 00ad 6D5F7175 		.ascii	"m_queue\000"
 1838      65756500 
 1839              	.LASF21:
 1840 00b5 74736C69 		.ascii	"tslices_t\000"
ARM GAS  /tmp/ccGY7fFn.s 			page 34


 1840      6365735F 
 1840      7400
 1841              	.LASF7:
 1842 00bf 6C6F6E67 		.ascii	"long int\000"
 1842      20696E74 
 1842      00
 1843              	.LASF91:
 1844 00c8 53564361 		.ascii	"SVCallVector\000"
 1844      6C6C5665 
 1844      63746F72 
 1844      00
 1845              	.LASF19:
 1846 00d5 74737461 		.ascii	"tstate_t\000"
 1846      74655F74 
 1846      00
 1847              	.LASF97:
 1848 00de 5F706F72 		.ascii	"_port_thread_start\000"
 1848      745F7468 
 1848      72656164 
 1848      5F737461 
 1848      727400
 1849              	.LASF31:
 1850 00f1 705F6E65 		.ascii	"p_newer\000"
 1850      77657200 
 1851              	.LASF68:
 1852 00f9 42464152 		.ascii	"BFAR\000"
 1852      00
 1853              	.LASF8:
 1854 00fe 5F5F7569 		.ascii	"__uint32_t\000"
 1854      6E743332 
 1854      5F7400
 1855              	.LASF49:
 1856 0109 72656761 		.ascii	"regarm_t\000"
 1856      726D5F74 
 1856      00
 1857              	.LASF34:
 1858 0112 705F7374 		.ascii	"p_stklimit\000"
 1858      6B6C696D 
 1858      697400
 1859              	.LASF0:
 1860 011d 756E7369 		.ascii	"unsigned int\000"
 1860      676E6564 
 1860      20696E74 
 1860      00
 1861              	.LASF52:
 1862 012a 6C725F74 		.ascii	"lr_thd\000"
 1862      686400
 1863              	.LASF51:
 1864 0131 65787463 		.ascii	"extctx\000"
 1864      747800
 1865              	.LASF96:
 1866 0138 5F706F72 		.ascii	"_port_switch\000"
 1866      745F7377 
 1866      69746368 
 1866      00
 1867              	.LASF9:
 1868 0145 6C6F6E67 		.ascii	"long unsigned int\000"
ARM GAS  /tmp/ccGY7fFn.s 			page 35


 1868      20756E73 
 1868      69676E65 
 1868      6420696E 
 1868      7400
 1869              	.LASF60:
 1870 0157 56544F52 		.ascii	"VTOR\000"
 1870      00
 1871              	.LASF95:
 1872 015c 5F706F72 		.ascii	"_port_switch_from_isr\000"
 1872      745F7377 
 1872      69746368 
 1872      5F66726F 
 1872      6D5F6973 
 1873              	.LASF55:
 1874 0172 636F6E74 		.ascii	"context\000"
 1874      65787400 
 1875              	.LASF4:
 1876 017a 73686F72 		.ascii	"short unsigned int\000"
 1876      7420756E 
 1876      7369676E 
 1876      65642069 
 1876      6E7400
 1877              	.LASF59:
 1878 018d 49435352 		.ascii	"ICSR\000"
 1878      00
 1879              	.LASF23:
 1880 0192 6D73675F 		.ascii	"msg_t\000"
 1880      7400
 1881              	.LASF61:
 1882 0198 41495243 		.ascii	"AIRCR\000"
 1882      5200
 1883              	.LASF66:
 1884 019e 44465352 		.ascii	"DFSR\000"
 1884      00
 1885              	.LASF77:
 1886 01a3 725F6E65 		.ascii	"r_newer\000"
 1886      77657200 
 1887              	.LASF67:
 1888 01ab 4D4D4641 		.ascii	"MMFAR\000"
 1888      5200
 1889              	.LASF93:
 1890 01b1 5F706F72 		.ascii	"_port_irq_epilogue\000"
 1890      745F6972 
 1890      715F6570 
 1890      696C6F67 
 1890      756500
 1891              	.LASF18:
 1892 01c4 746D6F64 		.ascii	"tmode_t\000"
 1892      655F7400 
 1893              	.LASF48:
 1894 01cc 54687265 		.ascii	"ThreadsList\000"
 1894      6164734C 
 1894      69737400 
 1895              	.LASF24:
 1896 01d8 6576656E 		.ascii	"eventmask_t\000"
 1896      746D6173 
 1896      6B5F7400 
ARM GAS  /tmp/ccGY7fFn.s 			page 36


 1897              	.LASF81:
 1898 01e4 4D757465 		.ascii	"Mutex\000"
 1898      7800
 1899              	.LASF50:
 1900 01ea 73746B61 		.ascii	"stkalign_t\000"
 1900      6C69676E 
 1900      5F7400
 1901              	.LASF40:
 1902 01f5 705F7761 		.ascii	"p_waiting\000"
 1902      6974696E 
 1902      6700
 1903              	.LASF100:
 1904 01ff 2F686F6D 		.ascii	"/home/ece497/vbox-shared/mplayer/ChibiOS-RT-stable_"
 1904      652F6563 
 1904      65343937 
 1904      2F76626F 
 1904      782D7368 
 1905 0232 322E362E 		.ascii	"2.6.x/demos/SDCARD\000"
 1905      782F6465 
 1905      6D6F732F 
 1905      53444341 
 1905      524400
 1906              	.LASF64:
 1907 0245 43465352 		.ascii	"CFSR\000"
 1907      00
 1908              	.LASF32:
 1909 024a 705F6F6C 		.ascii	"p_older\000"
 1909      64657200 
 1910              	.LASF76:
 1911 0252 725F6374 		.ascii	"r_ctx\000"
 1911      7800
 1912              	.LASF47:
 1913 0258 54687265 		.ascii	"ThreadsQueue\000"
 1913      61647351 
 1913      75657565 
 1913      00
 1914              	.LASF79:
 1915 0265 725F6375 		.ascii	"r_current\000"
 1915      7272656E 
 1915      7400
 1916              	.LASF78:
 1917 026f 725F6F6C 		.ascii	"r_older\000"
 1917      64657200 
 1918              	.LASF11:
 1919 0277 5F5F7569 		.ascii	"__uint64_t\000"
 1919      6E743634 
 1919      5F7400
 1920              	.LASF20:
 1921 0282 74726566 		.ascii	"trefs_t\000"
 1921      735F7400 
 1922              	.LASF92:
 1923 028a 63747870 		.ascii	"ctxp\000"
 1923      00
 1924              	.LASF28:
 1925 028f 705F7072 		.ascii	"p_prev\000"
 1925      657600
 1926              	.LASF22:
ARM GAS  /tmp/ccGY7fFn.s 			page 37


 1927 0296 74707269 		.ascii	"tprio_t\000"
 1927      6F5F7400 
 1928              	.LASF17:
 1929 029e 5F426F6F 		.ascii	"_Bool\000"
 1929      6C00
 1930              	.LASF14:
 1931 02a4 696E7433 		.ascii	"int32_t\000"
 1931      325F7400 
 1932              	.LASF2:
 1933 02ac 756E7369 		.ascii	"unsigned char\000"
 1933      676E6564 
 1933      20636861 
 1933      7200
 1934              	.LASF63:
 1935 02ba 53484353 		.ascii	"SHCSR\000"
 1935      5200
 1936              	.LASF44:
 1937 02c0 705F6D74 		.ascii	"p_mtxlist\000"
 1937      786C6973 
 1937      7400
 1938              	.LASF3:
 1939 02ca 73686F72 		.ascii	"short int\000"
 1939      7420696E 
 1939      7400
 1940              	.LASF35:
 1941 02d4 705F7374 		.ascii	"p_state\000"
 1941      61746500 
 1942              	.LASF38:
 1943 02dc 705F7072 		.ascii	"p_preempt\000"
 1943      65656D70 
 1943      7400
 1944              	.LASF53:
 1945 02e6 78707372 		.ascii	"xpsr\000"
 1945      00
 1946              	.LASF75:
 1947 02eb 725F7072 		.ascii	"r_prio\000"
 1947      696F00
 1948              	.LASF88:
 1949 02f2 65776D61 		.ascii	"ewmask\000"
 1949      736B00
 1950              	.LASF27:
 1951 02f9 705F6E65 		.ascii	"p_next\000"
 1951      787400
 1952              	.LASF36:
 1953 0300 705F666C 		.ascii	"p_flags\000"
 1953      61677300 
 1954              	.LASF26:
 1955 0308 54687265 		.ascii	"Thread\000"
 1955      616400
 1956              	.LASF43:
 1957 030f 705F6570 		.ascii	"p_epending\000"
 1957      656E6469 
 1957      6E6700
 1958              	.LASF15:
 1959 031a 75696E74 		.ascii	"uint32_t\000"
 1959      33325F74 
 1959      00
ARM GAS  /tmp/ccGY7fFn.s 			page 38


 1960              	.LASF74:
 1961 0323 725F7175 		.ascii	"r_queue\000"
 1961      65756500 
 1962              	.LASF69:
 1963 032b 41465352 		.ascii	"AFSR\000"
 1963      00
 1964              	.LASF71:
 1965 0330 756E7573 		.ascii	"unused1\000"
 1965      65643100 
 1966              	.LASF89:
 1967 0338 63686172 		.ascii	"char\000"
 1967      00
 1968              	.LASF56:
 1969 033d 494F5245 		.ascii	"IOREG32\000"
 1969      47333200 
 1970              	.LASF84:
 1971 0345 6D5F6E65 		.ascii	"m_next\000"
 1971      787400
 1972              	.LASF25:
 1973 034c 73797374 		.ascii	"systime_t\000"
 1973      696D655F 
 1973      7400
 1974              	.LASF45:
 1975 0356 705F7265 		.ascii	"p_realprio\000"
 1975      616C7072 
 1975      696F00
 1976              	.LASF6:
 1977 0361 5F5F696E 		.ascii	"__int32_t\000"
 1977      7433325F 
 1977      7400
 1978              	.LASF39:
 1979 036b 705F7469 		.ascii	"p_time\000"
 1979      6D6500
 1980              	.LASF62:
 1981 0372 53485052 		.ascii	"SHPR\000"
 1981      00
 1982              	.LASF54:
 1983 0377 696E7463 		.ascii	"intctx\000"
 1983      747800
 1984              	.LASF41:
 1985 037e 705F6D73 		.ascii	"p_msgqueue\000"
 1985      67717565 
 1985      756500
 1986              	.LASF37:
 1987 0389 705F7265 		.ascii	"p_refs\000"
 1987      667300
 1988              	.LASF80:
 1989 0390 52656164 		.ascii	"ReadyList\000"
 1989      794C6973 
 1989      7400
 1990              	.LASF70:
 1991 039a 4D4D4652 		.ascii	"MMFR\000"
 1991      00
 1992              	.LASF101:
 1993 039f 726C6973 		.ascii	"rlist\000"
 1993      7400
 1994              	.LASF13:
ARM GAS  /tmp/ccGY7fFn.s 			page 39


 1995 03a5 75696E74 		.ascii	"uint8_t\000"
 1995      385F7400 
 1996              	.LASF94:
 1997 03ad 5F706F72 		.ascii	"_port_init\000"
 1997      745F696E 
 1997      697400
 1998              	.LASF57:
 1999 03b8 73697A65 		.ascii	"sizetype\000"
 1999      74797065 
 1999      00
 2000              	.LASF87:
 2001 03c1 77746F62 		.ascii	"wtobjp\000"
 2001      6A7000
 2002              	.LASF33:
 2003 03c8 705F6E61 		.ascii	"p_name\000"
 2003      6D6500
 2004              	.LASF72:
 2005 03cf 43504143 		.ascii	"CPACR\000"
 2005      5200
 2006              	.LASF65:
 2007 03d5 48465352 		.ascii	"HFSR\000"
 2007      00
 2008              	.LASF83:
 2009 03da 6D5F6F77 		.ascii	"m_owner\000"
 2009      6E657200 
 2010              	.LASF30:
 2011 03e2 705F6374 		.ascii	"p_ctx\000"
 2011      7800
 2012              	.LASF98:
 2013 03e8 474E5520 		.ascii	"GNU C 4.8.2 -mcpu=cortex-m4 -mno-thumb-interwork -m"
 2013      4320342E 
 2013      382E3220 
 2013      2D6D6370 
 2013      753D636F 
 2014 041b 7468756D 		.ascii	"thumb -ggdb -O0 -fomit-frame-pointer -falign-functi"
 2014      62202D67 
 2014      67646220 
 2014      2D4F3020 
 2014      2D666F6D 
 2015 044e 6F6E733D 		.ascii	"ons=16 -ffunction-sections -fdata-sections -fno-com"
 2015      3136202D 
 2015      6666756E 
 2015      6374696F 
 2015      6E2D7365 
 2016 0481 6D6F6E00 		.ascii	"mon\000"
 2017              		.ident	"GCC: (Arch Repository) 4.8.2"
ARM GAS  /tmp/ccGY7fFn.s 			page 40


DEFINED SYMBOLS
                            *ABS*:0000000000000000 chcore_v7m.c
     /tmp/ccGY7fFn.s:19     .text.SysTickVector:0000000000000000 $t
     /tmp/ccGY7fFn.s:25     .text.SysTickVector:0000000000000000 SysTickVector
     /tmp/ccGY7fFn.s:165    .text._port_irq_epilogue:0000000000000000 _port_irq_epilogue
     /tmp/ccGY7fFn.s:67     .text.SVCallVector:0000000000000000 $t
     /tmp/ccGY7fFn.s:73     .text.SVCallVector:0000000000000000 SVCallVector
     /tmp/ccGY7fFn.s:114    .text._port_init:0000000000000000 $t
     /tmp/ccGY7fFn.s:120    .text._port_init:0000000000000000 _port_init
     /tmp/ccGY7fFn.s:159    .text._port_irq_epilogue:0000000000000000 $t
     /tmp/ccGY7fFn.s:291    .text._port_switch_from_isr:0000000000000000 _port_switch_from_isr
     /tmp/ccGY7fFn.s:306    .text._port_switch_from_isr:000000000000000c _port_exit_from_isr
     /tmp/ccGY7fFn.s:285    .text._port_switch_from_isr:0000000000000000 $t
     /tmp/ccGY7fFn.s:318    .text._port_switch:0000000000000000 $t
     /tmp/ccGY7fFn.s:324    .text._port_switch:0000000000000000 _port_switch
     /tmp/ccGY7fFn.s:352    .text._port_thread_start:0000000000000000 $t
     /tmp/ccGY7fFn.s:358    .text._port_thread_start:0000000000000000 _port_thread_start
                     .debug_frame:0000000000000010 $d

UNDEFINED SYMBOLS
dbg_check_enter_isr
dbg_check_lock_from_isr
chSysTimerHandlerI
dbg_check_unlock_from_isr
dbg_check_leave_isr
nvicSetSystemHandlerPriority
rlist
dbg_check_lock
chSchDoReschedule
dbg_check_unlock
chThdExit
