ARM GAS  /tmp/ccOL87QB.s 			page 1


   1              		.syntax unified
   2              		.cpu cortex-m4
   3              		.fpu softvfp
   4              		.eabi_attribute 20, 1
   5              		.eabi_attribute 21, 1
   6              		.eabi_attribute 23, 3
   7              		.eabi_attribute 24, 1
   8              		.eabi_attribute 25, 1
   9              		.eabi_attribute 26, 1
  10              		.eabi_attribute 30, 6
  11              		.eabi_attribute 34, 1
  12              		.eabi_attribute 18, 4
  13              		.thumb
  14              		.file	"chdebug.c"
  15              		.text
  16              	.Ltext0:
  17              		.cfi_sections	.debug_frame
  18              		.global	dbg_isr_cnt
  19              		.section	.bss.dbg_isr_cnt,"aw",%nobits
  20              		.align	2
  21              		.type	dbg_isr_cnt, %object
  22              		.size	dbg_isr_cnt, 4
  23              	dbg_isr_cnt:
  24 0000 00000000 		.space	4
  25              		.global	dbg_lock_cnt
  26              		.section	.bss.dbg_lock_cnt,"aw",%nobits
  27              		.align	2
  28              		.type	dbg_lock_cnt, %object
  29              		.size	dbg_lock_cnt, 4
  30              	dbg_lock_cnt:
  31 0000 00000000 		.space	4
  32              		.section	.rodata
  33              		.align	2
  34              	.LC0:
  35 0000 53562331 		.ascii	"SV#1\000"
  35      00
  36              		.section	.text.dbg_check_disable,"ax",%progbits
  37              		.align	2
  38              		.p2align 4,,15
  39              		.global	dbg_check_disable
  40              		.thumb
  41              		.thumb_func
  42              		.type	dbg_check_disable, %function
  43              	dbg_check_disable:
  44              	.LFB7:
  45              		.file 1 "../..//os/kernel/src/chdebug.c"
  46              		.loc 1 81 0
  47              		.cfi_startproc
  48              		@ args = 0, pretend = 0, frame = 0
  49              		@ frame_needed = 0, uses_anonymous_args = 0
  50 0000 08B5     		push	{r3, lr}
  51              		.cfi_def_cfa_offset 8
  52              		.cfi_offset 3, -8
  53              		.cfi_offset 14, -4
  54              		.loc 1 83 0
  55 0002 40F20003 		movw	r3, #:lower16:dbg_isr_cnt
  56 0006 C0F20003 		movt	r3, #:upper16:dbg_isr_cnt
ARM GAS  /tmp/ccOL87QB.s 			page 2


  57 000a 1B68     		ldr	r3, [r3]
  58 000c 002B     		cmp	r3, #0
  59 000e 06D1     		bne	.L2
  60              		.loc 1 83 0 is_stmt 0 discriminator 1
  61 0010 40F20003 		movw	r3, #:lower16:dbg_lock_cnt
  62 0014 C0F20003 		movt	r3, #:upper16:dbg_lock_cnt
  63 0018 1B68     		ldr	r3, [r3]
  64 001a 002B     		cmp	r3, #0
  65 001c 05D0     		beq	.L1
  66              	.L2:
  67              		.loc 1 84 0 is_stmt 1
  68 001e 40F20000 		movw	r0, #:lower16:.LC0
  69 0022 C0F20000 		movt	r0, #:upper16:.LC0
  70 0026 FFF7FEFF 		bl	chDbgPanic
  71              	.L1:
  72              		.loc 1 85 0
  73 002a 08BD     		pop	{r3, pc}
  74              		.cfi_endproc
  75              	.LFE7:
  76              		.size	dbg_check_disable, .-dbg_check_disable
  77 002c AFF30080 		.section	.rodata
  78 0005 000000   		.align	2
  79              	.LC1:
  80 0008 53562332 		.ascii	"SV#2\000"
  80      00
  81              		.section	.text.dbg_check_suspend,"ax",%progbits
  82              		.align	2
  83              		.p2align 4,,15
  84              		.global	dbg_check_suspend
  85              		.thumb
  86              		.thumb_func
  87              		.type	dbg_check_suspend, %function
  88              	dbg_check_suspend:
  89              	.LFB8:
  90              		.loc 1 92 0
  91              		.cfi_startproc
  92              		@ args = 0, pretend = 0, frame = 0
  93              		@ frame_needed = 0, uses_anonymous_args = 0
  94 0000 08B5     		push	{r3, lr}
  95              		.cfi_def_cfa_offset 8
  96              		.cfi_offset 3, -8
  97              		.cfi_offset 14, -4
  98              		.loc 1 94 0
  99 0002 40F20003 		movw	r3, #:lower16:dbg_isr_cnt
 100 0006 C0F20003 		movt	r3, #:upper16:dbg_isr_cnt
 101 000a 1B68     		ldr	r3, [r3]
 102 000c 002B     		cmp	r3, #0
 103 000e 06D1     		bne	.L5
 104              		.loc 1 94 0 is_stmt 0 discriminator 1
 105 0010 40F20003 		movw	r3, #:lower16:dbg_lock_cnt
 106 0014 C0F20003 		movt	r3, #:upper16:dbg_lock_cnt
 107 0018 1B68     		ldr	r3, [r3]
 108 001a 002B     		cmp	r3, #0
 109 001c 05D0     		beq	.L4
 110              	.L5:
 111              		.loc 1 95 0 is_stmt 1
 112 001e 40F20000 		movw	r0, #:lower16:.LC1
ARM GAS  /tmp/ccOL87QB.s 			page 3


 113 0022 C0F20000 		movt	r0, #:upper16:.LC1
 114 0026 FFF7FEFF 		bl	chDbgPanic
 115              	.L4:
 116              		.loc 1 96 0
 117 002a 08BD     		pop	{r3, pc}
 118              		.cfi_endproc
 119              	.LFE8:
 120              		.size	dbg_check_suspend, .-dbg_check_suspend
 121 002c AFF30080 		.section	.rodata
 122 000d 000000   		.align	2
 123              	.LC2:
 124 0010 53562333 		.ascii	"SV#3\000"
 124      00
 125              		.section	.text.dbg_check_enable,"ax",%progbits
 126              		.align	2
 127              		.p2align 4,,15
 128              		.global	dbg_check_enable
 129              		.thumb
 130              		.thumb_func
 131              		.type	dbg_check_enable, %function
 132              	dbg_check_enable:
 133              	.LFB9:
 134              		.loc 1 103 0
 135              		.cfi_startproc
 136              		@ args = 0, pretend = 0, frame = 0
 137              		@ frame_needed = 0, uses_anonymous_args = 0
 138 0000 08B5     		push	{r3, lr}
 139              		.cfi_def_cfa_offset 8
 140              		.cfi_offset 3, -8
 141              		.cfi_offset 14, -4
 142              		.loc 1 105 0
 143 0002 40F20003 		movw	r3, #:lower16:dbg_isr_cnt
 144 0006 C0F20003 		movt	r3, #:upper16:dbg_isr_cnt
 145 000a 1B68     		ldr	r3, [r3]
 146 000c 002B     		cmp	r3, #0
 147 000e 06D1     		bne	.L8
 148              		.loc 1 105 0 is_stmt 0 discriminator 1
 149 0010 40F20003 		movw	r3, #:lower16:dbg_lock_cnt
 150 0014 C0F20003 		movt	r3, #:upper16:dbg_lock_cnt
 151 0018 1B68     		ldr	r3, [r3]
 152 001a 002B     		cmp	r3, #0
 153 001c 05D0     		beq	.L7
 154              	.L8:
 155              		.loc 1 106 0 is_stmt 1
 156 001e 40F20000 		movw	r0, #:lower16:.LC2
 157 0022 C0F20000 		movt	r0, #:upper16:.LC2
 158 0026 FFF7FEFF 		bl	chDbgPanic
 159              	.L7:
 160              		.loc 1 107 0
 161 002a 08BD     		pop	{r3, pc}
 162              		.cfi_endproc
 163              	.LFE9:
 164              		.size	dbg_check_enable, .-dbg_check_enable
 165 002c AFF30080 		.section	.rodata
 166 0015 000000   		.align	2
 167              	.LC3:
 168 0018 53562334 		.ascii	"SV#4\000"
ARM GAS  /tmp/ccOL87QB.s 			page 4


 168      00
 169              		.section	.text.dbg_check_lock,"ax",%progbits
 170              		.align	2
 171              		.p2align 4,,15
 172              		.global	dbg_check_lock
 173              		.thumb
 174              		.thumb_func
 175              		.type	dbg_check_lock, %function
 176              	dbg_check_lock:
 177              	.LFB10:
 178              		.loc 1 114 0
 179              		.cfi_startproc
 180              		@ args = 0, pretend = 0, frame = 0
 181              		@ frame_needed = 0, uses_anonymous_args = 0
 182 0000 08B5     		push	{r3, lr}
 183              		.cfi_def_cfa_offset 8
 184              		.cfi_offset 3, -8
 185              		.cfi_offset 14, -4
 186              		.loc 1 116 0
 187 0002 40F20003 		movw	r3, #:lower16:dbg_isr_cnt
 188 0006 C0F20003 		movt	r3, #:upper16:dbg_isr_cnt
 189 000a 1B68     		ldr	r3, [r3]
 190 000c 002B     		cmp	r3, #0
 191 000e 06D1     		bne	.L11
 192              		.loc 1 116 0 is_stmt 0 discriminator 1
 193 0010 40F20003 		movw	r3, #:lower16:dbg_lock_cnt
 194 0014 C0F20003 		movt	r3, #:upper16:dbg_lock_cnt
 195 0018 1B68     		ldr	r3, [r3]
 196 001a 002B     		cmp	r3, #0
 197 001c 05D0     		beq	.L12
 198              	.L11:
 199              		.loc 1 117 0 is_stmt 1
 200 001e 40F20000 		movw	r0, #:lower16:.LC3
 201 0022 C0F20000 		movt	r0, #:upper16:.LC3
 202 0026 FFF7FEFF 		bl	chDbgPanic
 203              	.L12:
 204              		.loc 1 118 0
 205 002a 40F20003 		movw	r3, #:lower16:dbg_lock_cnt
 206 002e C0F20003 		movt	r3, #:upper16:dbg_lock_cnt
 207 0032 0122     		movs	r2, #1
 208 0034 1A60     		str	r2, [r3]
 209              		.loc 1 119 0
 210 0036 08BD     		pop	{r3, pc}
 211              		.cfi_endproc
 212              	.LFE10:
 213              		.size	dbg_check_lock, .-dbg_check_lock
 214 0038 AFF30080 		.section	.rodata
 214      AFF30080 
 215 001d 000000   		.align	2
 216              	.LC4:
 217 0020 53562335 		.ascii	"SV#5\000"
 217      00
 218              		.section	.text.dbg_check_unlock,"ax",%progbits
 219              		.align	2
 220              		.p2align 4,,15
 221              		.global	dbg_check_unlock
 222              		.thumb
ARM GAS  /tmp/ccOL87QB.s 			page 5


 223              		.thumb_func
 224              		.type	dbg_check_unlock, %function
 225              	dbg_check_unlock:
 226              	.LFB11:
 227              		.loc 1 126 0
 228              		.cfi_startproc
 229              		@ args = 0, pretend = 0, frame = 0
 230              		@ frame_needed = 0, uses_anonymous_args = 0
 231 0000 08B5     		push	{r3, lr}
 232              		.cfi_def_cfa_offset 8
 233              		.cfi_offset 3, -8
 234              		.cfi_offset 14, -4
 235              		.loc 1 128 0
 236 0002 40F20003 		movw	r3, #:lower16:dbg_isr_cnt
 237 0006 C0F20003 		movt	r3, #:upper16:dbg_isr_cnt
 238 000a 1B68     		ldr	r3, [r3]
 239 000c 002B     		cmp	r3, #0
 240 000e 06D1     		bne	.L14
 241              		.loc 1 128 0 is_stmt 0 discriminator 1
 242 0010 40F20003 		movw	r3, #:lower16:dbg_lock_cnt
 243 0014 C0F20003 		movt	r3, #:upper16:dbg_lock_cnt
 244 0018 1B68     		ldr	r3, [r3]
 245 001a 002B     		cmp	r3, #0
 246 001c 05DC     		bgt	.L15
 247              	.L14:
 248              		.loc 1 129 0 is_stmt 1
 249 001e 40F20000 		movw	r0, #:lower16:.LC4
 250 0022 C0F20000 		movt	r0, #:upper16:.LC4
 251 0026 FFF7FEFF 		bl	chDbgPanic
 252              	.L15:
 253              		.loc 1 130 0
 254 002a 40F20003 		movw	r3, #:lower16:dbg_lock_cnt
 255 002e C0F20003 		movt	r3, #:upper16:dbg_lock_cnt
 256 0032 0022     		movs	r2, #0
 257 0034 1A60     		str	r2, [r3]
 258              		.loc 1 131 0
 259 0036 08BD     		pop	{r3, pc}
 260              		.cfi_endproc
 261              	.LFE11:
 262              		.size	dbg_check_unlock, .-dbg_check_unlock
 263 0038 AFF30080 		.section	.rodata
 263      AFF30080 
 264 0025 000000   		.align	2
 265              	.LC5:
 266 0028 53562336 		.ascii	"SV#6\000"
 266      00
 267              		.section	.text.dbg_check_lock_from_isr,"ax",%progbits
 268              		.align	2
 269              		.p2align 4,,15
 270              		.global	dbg_check_lock_from_isr
 271              		.thumb
 272              		.thumb_func
 273              		.type	dbg_check_lock_from_isr, %function
 274              	dbg_check_lock_from_isr:
 275              	.LFB12:
 276              		.loc 1 138 0
 277              		.cfi_startproc
ARM GAS  /tmp/ccOL87QB.s 			page 6


 278              		@ args = 0, pretend = 0, frame = 0
 279              		@ frame_needed = 0, uses_anonymous_args = 0
 280 0000 08B5     		push	{r3, lr}
 281              		.cfi_def_cfa_offset 8
 282              		.cfi_offset 3, -8
 283              		.cfi_offset 14, -4
 284              		.loc 1 140 0
 285 0002 40F20003 		movw	r3, #:lower16:dbg_isr_cnt
 286 0006 C0F20003 		movt	r3, #:upper16:dbg_isr_cnt
 287 000a 1B68     		ldr	r3, [r3]
 288 000c 002B     		cmp	r3, #0
 289 000e 06DD     		ble	.L17
 290              		.loc 1 140 0 is_stmt 0 discriminator 1
 291 0010 40F20003 		movw	r3, #:lower16:dbg_lock_cnt
 292 0014 C0F20003 		movt	r3, #:upper16:dbg_lock_cnt
 293 0018 1B68     		ldr	r3, [r3]
 294 001a 002B     		cmp	r3, #0
 295 001c 05D0     		beq	.L18
 296              	.L17:
 297              		.loc 1 141 0 is_stmt 1
 298 001e 40F20000 		movw	r0, #:lower16:.LC5
 299 0022 C0F20000 		movt	r0, #:upper16:.LC5
 300 0026 FFF7FEFF 		bl	chDbgPanic
 301              	.L18:
 302              		.loc 1 142 0
 303 002a 40F20003 		movw	r3, #:lower16:dbg_lock_cnt
 304 002e C0F20003 		movt	r3, #:upper16:dbg_lock_cnt
 305 0032 0122     		movs	r2, #1
 306 0034 1A60     		str	r2, [r3]
 307              		.loc 1 143 0
 308 0036 08BD     		pop	{r3, pc}
 309              		.cfi_endproc
 310              	.LFE12:
 311              		.size	dbg_check_lock_from_isr, .-dbg_check_lock_from_isr
 312 0038 AFF30080 		.section	.rodata
 312      AFF30080 
 313 002d 000000   		.align	2
 314              	.LC6:
 315 0030 53562337 		.ascii	"SV#7\000"
 315      00
 316              		.section	.text.dbg_check_unlock_from_isr,"ax",%progbits
 317              		.align	2
 318              		.p2align 4,,15
 319              		.global	dbg_check_unlock_from_isr
 320              		.thumb
 321              		.thumb_func
 322              		.type	dbg_check_unlock_from_isr, %function
 323              	dbg_check_unlock_from_isr:
 324              	.LFB13:
 325              		.loc 1 150 0
 326              		.cfi_startproc
 327              		@ args = 0, pretend = 0, frame = 0
 328              		@ frame_needed = 0, uses_anonymous_args = 0
 329 0000 08B5     		push	{r3, lr}
 330              		.cfi_def_cfa_offset 8
 331              		.cfi_offset 3, -8
 332              		.cfi_offset 14, -4
ARM GAS  /tmp/ccOL87QB.s 			page 7


 333              		.loc 1 152 0
 334 0002 40F20003 		movw	r3, #:lower16:dbg_isr_cnt
 335 0006 C0F20003 		movt	r3, #:upper16:dbg_isr_cnt
 336 000a 1B68     		ldr	r3, [r3]
 337 000c 002B     		cmp	r3, #0
 338 000e 06DD     		ble	.L20
 339              		.loc 1 152 0 is_stmt 0 discriminator 1
 340 0010 40F20003 		movw	r3, #:lower16:dbg_lock_cnt
 341 0014 C0F20003 		movt	r3, #:upper16:dbg_lock_cnt
 342 0018 1B68     		ldr	r3, [r3]
 343 001a 002B     		cmp	r3, #0
 344 001c 05DC     		bgt	.L21
 345              	.L20:
 346              		.loc 1 153 0 is_stmt 1
 347 001e 40F20000 		movw	r0, #:lower16:.LC6
 348 0022 C0F20000 		movt	r0, #:upper16:.LC6
 349 0026 FFF7FEFF 		bl	chDbgPanic
 350              	.L21:
 351              		.loc 1 154 0
 352 002a 40F20003 		movw	r3, #:lower16:dbg_lock_cnt
 353 002e C0F20003 		movt	r3, #:upper16:dbg_lock_cnt
 354 0032 0022     		movs	r2, #0
 355 0034 1A60     		str	r2, [r3]
 356              		.loc 1 155 0
 357 0036 08BD     		pop	{r3, pc}
 358              		.cfi_endproc
 359              	.LFE13:
 360              		.size	dbg_check_unlock_from_isr, .-dbg_check_unlock_from_isr
 361 0038 AFF30080 		.section	.rodata
 361      AFF30080 
 362 0035 000000   		.align	2
 363              	.LC7:
 364 0038 53562338 		.ascii	"SV#8\000"
 364      00
 365              		.section	.text.dbg_check_enter_isr,"ax",%progbits
 366              		.align	2
 367              		.p2align 4,,15
 368              		.global	dbg_check_enter_isr
 369              		.thumb
 370              		.thumb_func
 371              		.type	dbg_check_enter_isr, %function
 372              	dbg_check_enter_isr:
 373              	.LFB14:
 374              		.loc 1 162 0
 375              		.cfi_startproc
 376              		@ args = 0, pretend = 0, frame = 0
 377              		@ frame_needed = 0, uses_anonymous_args = 0
 378 0000 08B5     		push	{r3, lr}
 379              		.cfi_def_cfa_offset 8
 380              		.cfi_offset 3, -8
 381              		.cfi_offset 14, -4
 382              	.LBB2:
 383              		.loc 1 164 0
 384 0002 2023     		movs	r3, #32
 385              	@ 164 "../..//os/kernel/src/chdebug.c" 1
 386 0004 83F31188 		msr     BASEPRI, r3
 387              	@ 0 "" 2
ARM GAS  /tmp/ccOL87QB.s 			page 8


 388              		.thumb
 389              	.LBE2:
 390              		.loc 1 165 0
 391 0008 40F20003 		movw	r3, #:lower16:dbg_isr_cnt
 392 000c C0F20003 		movt	r3, #:upper16:dbg_isr_cnt
 393 0010 1B68     		ldr	r3, [r3]
 394 0012 002B     		cmp	r3, #0
 395 0014 06DB     		blt	.L23
 396              		.loc 1 165 0 is_stmt 0 discriminator 1
 397 0016 40F20003 		movw	r3, #:lower16:dbg_lock_cnt
 398 001a C0F20003 		movt	r3, #:upper16:dbg_lock_cnt
 399 001e 1B68     		ldr	r3, [r3]
 400 0020 002B     		cmp	r3, #0
 401 0022 05D0     		beq	.L24
 402              	.L23:
 403              		.loc 1 166 0 is_stmt 1
 404 0024 40F20000 		movw	r0, #:lower16:.LC7
 405 0028 C0F20000 		movt	r0, #:upper16:.LC7
 406 002c FFF7FEFF 		bl	chDbgPanic
 407              	.L24:
 408              		.loc 1 167 0
 409 0030 40F20003 		movw	r3, #:lower16:dbg_isr_cnt
 410 0034 C0F20003 		movt	r3, #:upper16:dbg_isr_cnt
 411 0038 1B68     		ldr	r3, [r3]
 412 003a 5A1C     		adds	r2, r3, #1
 413 003c 40F20003 		movw	r3, #:lower16:dbg_isr_cnt
 414 0040 C0F20003 		movt	r3, #:upper16:dbg_isr_cnt
 415 0044 1A60     		str	r2, [r3]
 416              	.LBB3:
 417              		.loc 1 168 0
 418 0046 0023     		movs	r3, #0
 419              	@ 168 "../..//os/kernel/src/chdebug.c" 1
 420 0048 83F31188 		msr     BASEPRI, r3
 421              	@ 0 "" 2
 422              		.thumb
 423              	.LBE3:
 424              		.loc 1 169 0
 425 004c 08BD     		pop	{r3, pc}
 426              		.cfi_endproc
 427              	.LFE14:
 428              		.size	dbg_check_enter_isr, .-dbg_check_enter_isr
 429 004e 00BF     		.section	.rodata
 430 003d 000000   		.align	2
 431              	.LC8:
 432 0040 53562339 		.ascii	"SV#9\000"
 432      00
 433              		.section	.text.dbg_check_leave_isr,"ax",%progbits
 434              		.align	2
 435              		.p2align 4,,15
 436              		.global	dbg_check_leave_isr
 437              		.thumb
 438              		.thumb_func
 439              		.type	dbg_check_leave_isr, %function
 440              	dbg_check_leave_isr:
 441              	.LFB15:
 442              		.loc 1 176 0
 443              		.cfi_startproc
ARM GAS  /tmp/ccOL87QB.s 			page 9


 444              		@ args = 0, pretend = 0, frame = 0
 445              		@ frame_needed = 0, uses_anonymous_args = 0
 446 0000 08B5     		push	{r3, lr}
 447              		.cfi_def_cfa_offset 8
 448              		.cfi_offset 3, -8
 449              		.cfi_offset 14, -4
 450              	.LBB4:
 451              		.loc 1 178 0
 452 0002 2023     		movs	r3, #32
 453              	@ 178 "../..//os/kernel/src/chdebug.c" 1
 454 0004 83F31188 		msr     BASEPRI, r3
 455              	@ 0 "" 2
 456              		.thumb
 457              	.LBE4:
 458              		.loc 1 179 0
 459 0008 40F20003 		movw	r3, #:lower16:dbg_isr_cnt
 460 000c C0F20003 		movt	r3, #:upper16:dbg_isr_cnt
 461 0010 1B68     		ldr	r3, [r3]
 462 0012 002B     		cmp	r3, #0
 463 0014 06DD     		ble	.L26
 464              		.loc 1 179 0 is_stmt 0 discriminator 1
 465 0016 40F20003 		movw	r3, #:lower16:dbg_lock_cnt
 466 001a C0F20003 		movt	r3, #:upper16:dbg_lock_cnt
 467 001e 1B68     		ldr	r3, [r3]
 468 0020 002B     		cmp	r3, #0
 469 0022 05D0     		beq	.L27
 470              	.L26:
 471              		.loc 1 180 0 is_stmt 1
 472 0024 40F20000 		movw	r0, #:lower16:.LC8
 473 0028 C0F20000 		movt	r0, #:upper16:.LC8
 474 002c FFF7FEFF 		bl	chDbgPanic
 475              	.L27:
 476              		.loc 1 181 0
 477 0030 40F20003 		movw	r3, #:lower16:dbg_isr_cnt
 478 0034 C0F20003 		movt	r3, #:upper16:dbg_isr_cnt
 479 0038 1B68     		ldr	r3, [r3]
 480 003a 5A1E     		subs	r2, r3, #1
 481 003c 40F20003 		movw	r3, #:lower16:dbg_isr_cnt
 482 0040 C0F20003 		movt	r3, #:upper16:dbg_isr_cnt
 483 0044 1A60     		str	r2, [r3]
 484              	.LBB5:
 485              		.loc 1 182 0
 486 0046 0023     		movs	r3, #0
 487              	@ 182 "../..//os/kernel/src/chdebug.c" 1
 488 0048 83F31188 		msr     BASEPRI, r3
 489              	@ 0 "" 2
 490              		.thumb
 491              	.LBE5:
 492              		.loc 1 183 0
 493 004c 08BD     		pop	{r3, pc}
 494              		.cfi_endproc
 495              	.LFE15:
 496              		.size	dbg_check_leave_isr, .-dbg_check_leave_isr
 497 004e 00BF     		.section	.rodata
 498 0045 000000   		.align	2
 499              	.LC9:
 500 0048 53562331 		.ascii	"SV#10\000"
ARM GAS  /tmp/ccOL87QB.s 			page 10


 500      3000
 501              		.section	.text.chDbgCheckClassI,"ax",%progbits
 502              		.align	2
 503              		.p2align 4,,15
 504              		.global	chDbgCheckClassI
 505              		.thumb
 506              		.thumb_func
 507              		.type	chDbgCheckClassI, %function
 508              	chDbgCheckClassI:
 509              	.LFB16:
 510              		.loc 1 193 0
 511              		.cfi_startproc
 512              		@ args = 0, pretend = 0, frame = 0
 513              		@ frame_needed = 0, uses_anonymous_args = 0
 514 0000 08B5     		push	{r3, lr}
 515              		.cfi_def_cfa_offset 8
 516              		.cfi_offset 3, -8
 517              		.cfi_offset 14, -4
 518              		.loc 1 195 0
 519 0002 40F20003 		movw	r3, #:lower16:dbg_isr_cnt
 520 0006 C0F20003 		movt	r3, #:upper16:dbg_isr_cnt
 521 000a 1B68     		ldr	r3, [r3]
 522 000c 002B     		cmp	r3, #0
 523 000e 06DB     		blt	.L29
 524              		.loc 1 195 0 is_stmt 0 discriminator 1
 525 0010 40F20003 		movw	r3, #:lower16:dbg_lock_cnt
 526 0014 C0F20003 		movt	r3, #:upper16:dbg_lock_cnt
 527 0018 1B68     		ldr	r3, [r3]
 528 001a 002B     		cmp	r3, #0
 529 001c 05DC     		bgt	.L28
 530              	.L29:
 531              		.loc 1 196 0 is_stmt 1
 532 001e 40F20000 		movw	r0, #:lower16:.LC9
 533 0022 C0F20000 		movt	r0, #:upper16:.LC9
 534 0026 FFF7FEFF 		bl	chDbgPanic
 535              	.L28:
 536              		.loc 1 197 0
 537 002a 08BD     		pop	{r3, pc}
 538              		.cfi_endproc
 539              	.LFE16:
 540              		.size	chDbgCheckClassI, .-chDbgCheckClassI
 541 002c AFF30080 		.section	.rodata
 542 004e 0000     		.align	2
 543              	.LC10:
 544 0050 53562331 		.ascii	"SV#11\000"
 544      3100
 545 0056 0000     		.section	.text.chDbgCheckClassS,"ax",%progbits
 546              		.align	2
 547              		.p2align 4,,15
 548              		.global	chDbgCheckClassS
 549              		.thumb
 550              		.thumb_func
 551              		.type	chDbgCheckClassS, %function
 552              	chDbgCheckClassS:
 553              	.LFB17:
 554              		.loc 1 207 0
 555              		.cfi_startproc
ARM GAS  /tmp/ccOL87QB.s 			page 11


 556              		@ args = 0, pretend = 0, frame = 0
 557              		@ frame_needed = 0, uses_anonymous_args = 0
 558 0000 08B5     		push	{r3, lr}
 559              		.cfi_def_cfa_offset 8
 560              		.cfi_offset 3, -8
 561              		.cfi_offset 14, -4
 562              		.loc 1 209 0
 563 0002 40F20003 		movw	r3, #:lower16:dbg_isr_cnt
 564 0006 C0F20003 		movt	r3, #:upper16:dbg_isr_cnt
 565 000a 1B68     		ldr	r3, [r3]
 566 000c 002B     		cmp	r3, #0
 567 000e 06D1     		bne	.L32
 568              		.loc 1 209 0 is_stmt 0 discriminator 1
 569 0010 40F20003 		movw	r3, #:lower16:dbg_lock_cnt
 570 0014 C0F20003 		movt	r3, #:upper16:dbg_lock_cnt
 571 0018 1B68     		ldr	r3, [r3]
 572 001a 002B     		cmp	r3, #0
 573 001c 05DC     		bgt	.L31
 574              	.L32:
 575              		.loc 1 210 0 is_stmt 1
 576 001e 40F20000 		movw	r0, #:lower16:.LC10
 577 0022 C0F20000 		movt	r0, #:upper16:.LC10
 578 0026 FFF7FEFF 		bl	chDbgPanic
 579              	.L31:
 580              		.loc 1 211 0
 581 002a 08BD     		pop	{r3, pc}
 582              		.cfi_endproc
 583              	.LFE17:
 584              		.size	chDbgCheckClassS, .-chDbgCheckClassS
 585              		.global	dbg_trace_buffer
 586 002c AFF30080 		.section	.bss.dbg_trace_buffer,"aw",%nobits
 587              		.align	2
 588              		.type	dbg_trace_buffer, %object
 589              		.size	dbg_trace_buffer, 1032
 590              	dbg_trace_buffer:
 591 0000 00000000 		.space	1032
 591      00000000 
 591      00000000 
 591      00000000 
 591      00000000 
 592              		.section	.text._trace_init,"ax",%progbits
 593              		.align	2
 594              		.p2align 4,,15
 595              		.global	_trace_init
 596              		.thumb
 597              		.thumb_func
 598              		.type	_trace_init, %function
 599              	_trace_init:
 600              	.LFB18:
 601              		.loc 1 229 0
 602              		.cfi_startproc
 603              		@ args = 0, pretend = 0, frame = 0
 604              		@ frame_needed = 0, uses_anonymous_args = 0
 605              		@ link register save eliminated.
 606              		.loc 1 231 0
 607 0000 40F20003 		movw	r3, #:lower16:dbg_trace_buffer
 608 0004 C0F20003 		movt	r3, #:upper16:dbg_trace_buffer
ARM GAS  /tmp/ccOL87QB.s 			page 12


 609 0008 4022     		movs	r2, #64
 610 000a 1A60     		str	r2, [r3]
 611              		.loc 1 232 0
 612 000c 40F20003 		movw	r3, #:lower16:dbg_trace_buffer
 613 0010 C0F20003 		movt	r3, #:upper16:dbg_trace_buffer
 614 0014 014A     		ldr	r2, .L35
 615 0016 5A60     		str	r2, [r3, #4]
 616              		.loc 1 233 0
 617 0018 7047     		bx	lr
 618              	.L36:
 619 001a 00BF     		.align	2
 620              	.L35:
 621 001c 08000000 		.word	dbg_trace_buffer+8
 622              		.cfi_endproc
 623              	.LFE18:
 624              		.size	_trace_init, .-_trace_init
 625              		.section	.text.dbg_trace,"ax",%progbits
 626              		.align	2
 627              		.p2align 4,,15
 628              		.global	dbg_trace
 629              		.thumb
 630              		.thumb_func
 631              		.type	dbg_trace, %function
 632              	dbg_trace:
 633              	.LFB19:
 634              		.loc 1 242 0
 635              		.cfi_startproc
 636              		@ args = 0, pretend = 0, frame = 8
 637              		@ frame_needed = 0, uses_anonymous_args = 0
 638              		@ link register save eliminated.
 639 0000 82B0     		sub	sp, sp, #8
 640              		.cfi_def_cfa_offset 8
 641 0002 0190     		str	r0, [sp, #4]
 642              		.loc 1 244 0
 643 0004 40F20003 		movw	r3, #:lower16:dbg_trace_buffer
 644 0008 C0F20003 		movt	r3, #:upper16:dbg_trace_buffer
 645 000c 5A68     		ldr	r2, [r3, #4]
 646 000e 40F20003 		movw	r3, #:lower16:vtlist
 647 0012 C0F20003 		movt	r3, #:upper16:vtlist
 648 0016 DB68     		ldr	r3, [r3, #12]
 649 0018 1360     		str	r3, [r2]
 650              		.loc 1 245 0
 651 001a 40F20003 		movw	r3, #:lower16:dbg_trace_buffer
 652 001e C0F20003 		movt	r3, #:upper16:dbg_trace_buffer
 653 0022 5A68     		ldr	r2, [r3, #4]
 654 0024 40F20003 		movw	r3, #:lower16:rlist
 655 0028 C0F20003 		movt	r3, #:upper16:rlist
 656 002c 9B69     		ldr	r3, [r3, #24]
 657 002e 5360     		str	r3, [r2, #4]
 658              		.loc 1 246 0
 659 0030 40F20003 		movw	r3, #:lower16:dbg_trace_buffer
 660 0034 C0F20003 		movt	r3, #:upper16:dbg_trace_buffer
 661 0038 5B68     		ldr	r3, [r3, #4]
 662 003a 019A     		ldr	r2, [sp, #4]
 663 003c 926A     		ldr	r2, [r2, #40]
 664 003e 9A60     		str	r2, [r3, #8]
 665              		.loc 1 247 0
ARM GAS  /tmp/ccOL87QB.s 			page 13


 666 0040 40F20003 		movw	r3, #:lower16:dbg_trace_buffer
 667 0044 C0F20003 		movt	r3, #:upper16:dbg_trace_buffer
 668 0048 5B68     		ldr	r3, [r3, #4]
 669 004a 019A     		ldr	r2, [sp, #4]
 670 004c 92F82020 		ldrb	r2, [r2, #32]	@ zero_extendqisi2
 671 0050 1A73     		strb	r2, [r3, #12]
 672              		.loc 1 248 0
 673 0052 40F20003 		movw	r3, #:lower16:dbg_trace_buffer
 674 0056 C0F20003 		movt	r3, #:upper16:dbg_trace_buffer
 675 005a 5B68     		ldr	r3, [r3, #4]
 676 005c 03F11002 		add	r2, r3, #16
 677 0060 40F20003 		movw	r3, #:lower16:dbg_trace_buffer
 678 0064 C0F20003 		movt	r3, #:upper16:dbg_trace_buffer
 679 0068 5A60     		str	r2, [r3, #4]
 680 006a 40F20003 		movw	r3, #:lower16:dbg_trace_buffer
 681 006e C0F20003 		movt	r3, #:upper16:dbg_trace_buffer
 682 0072 5A68     		ldr	r2, [r3, #4]
 683 0074 054B     		ldr	r3, .L39
 684 0076 9A42     		cmp	r2, r3
 685 0078 05D3     		bcc	.L37
 686              		.loc 1 250 0
 687 007a 40F20003 		movw	r3, #:lower16:dbg_trace_buffer
 688 007e C0F20003 		movt	r3, #:upper16:dbg_trace_buffer
 689 0082 034A     		ldr	r2, .L39+4
 690 0084 5A60     		str	r2, [r3, #4]
 691              	.L37:
 692              		.loc 1 251 0
 693 0086 02B0     		add	sp, sp, #8
 694              		@ sp needed
 695 0088 7047     		bx	lr
 696              	.L40:
 697 008a 00BF     		.align	2
 698              	.L39:
 699 008c 08040000 		.word	dbg_trace_buffer+1032
 700 0090 08000000 		.word	dbg_trace_buffer+8
 701              		.cfi_endproc
 702              	.LFE19:
 703              		.size	dbg_trace, .-dbg_trace
 704              		.global	dbg_panic_msg
 705 0094 AFF30080 		.section	.bss.dbg_panic_msg,"aw",%nobits
 705      AFF30080 
 705      AFF30080 
 706              		.align	2
 707              		.type	dbg_panic_msg, %object
 708              		.size	dbg_panic_msg, 4
 709              	dbg_panic_msg:
 710 0000 00000000 		.space	4
 711              		.section	.text.chDbgPanic,"ax",%progbits
 712              		.align	2
 713              		.p2align 4,,15
 714              		.global	chDbgPanic
 715              		.thumb
 716              		.thumb_func
 717              		.type	chDbgPanic, %function
 718              	chDbgPanic:
 719              	.LFB20:
 720              		.loc 1 271 0
ARM GAS  /tmp/ccOL87QB.s 			page 14


 721              		.cfi_startproc
 722              		@ args = 0, pretend = 0, frame = 8
 723              		@ frame_needed = 0, uses_anonymous_args = 0
 724 0000 00B5     		push	{lr}
 725              		.cfi_def_cfa_offset 4
 726              		.cfi_offset 14, -4
 727 0002 83B0     		sub	sp, sp, #12
 728              		.cfi_def_cfa_offset 16
 729 0004 0190     		str	r0, [sp, #4]
 730              		.loc 1 273 0
 731 0006 40F20003 		movw	r3, #:lower16:dbg_panic_msg
 732 000a C0F20003 		movt	r3, #:upper16:dbg_panic_msg
 733 000e 019A     		ldr	r2, [sp, #4]
 734 0010 1A60     		str	r2, [r3]
 735              		.loc 1 274 0
 736 0012 FFF7FEFF 		bl	port_halt
 737              		.loc 1 275 0
 738 0016 03B0     		add	sp, sp, #12
 739              		@ sp needed
 740 0018 5DF804FB 		ldr	pc, [sp], #4
 741              		.cfi_endproc
 742              	.LFE20:
 743              		.size	chDbgPanic, .-chDbgPanic
 744 001c AFF30080 		.text
 745              	.Letext0:
 746              		.file 2 "/usr/arm-none-eabi/include/machine/_default_types.h"
 747              		.file 3 "/usr/arm-none-eabi/include/stdint.h"
 748              		.file 4 "../..//os/ports/GCC/ARMCMx/chtypes.h"
 749              		.file 5 "../..//os/kernel/include/chlists.h"
 750              		.file 6 "../..//os/kernel/include/chthreads.h"
 751              		.file 7 "../..//os/ports/GCC/ARMCMx/chcore_v7m.h"
 752              		.file 8 "../..//os/kernel/include/chvt.h"
 753              		.file 9 "../..//os/kernel/include/chschd.h"
 754              		.file 10 "../..//os/kernel/include/chmtx.h"
 755              		.file 11 "../..//os/kernel/include/chdebug.h"