ARM GAS  /tmp/cc9HJ4ck.s 			page 1


   1              		.syntax unified
   2              		.cpu cortex-m4
   3              		.fpu softvfp
   4              		.eabi_attribute 20, 1
   5              		.eabi_attribute 21, 1
   6              		.eabi_attribute 23, 3
   7              		.eabi_attribute 24, 1
   8              		.eabi_attribute 25, 1
   9              		.eabi_attribute 26, 1
  10              		.eabi_attribute 30, 6
  11              		.eabi_attribute 34, 1
  12              		.eabi_attribute 18, 4
  13              		.thumb
  14              		.file	"chmboxes.c"
  15              		.text
  16              	.Ltext0:
  17              		.cfi_sections	.debug_frame
  18              		.section	.rodata
  19              		.align	2
  20              	.LC0:
  21 0000 2263684D 		.ascii	"\"chMBInit\"()\000"
  21      42496E69 
  21      74222829 
  21      00
  22              		.section	.text.chMBInit,"ax",%progbits
  23              		.align	2
  24              		.p2align 4,,15
  25              		.global	chMBInit
  26              		.thumb
  27              		.thumb_func
  28              		.type	chMBInit, %function
  29              	chMBInit:
  30              	.LFB7:
  31              		.file 1 "../..//os/kernel/src/chmboxes.c"
  32              		.loc 1 72 0
  33              		.cfi_startproc
  34              		@ args = 0, pretend = 0, frame = 16
  35              		@ frame_needed = 0, uses_anonymous_args = 0
  36 0000 00B5     		push	{lr}
  37              		.cfi_def_cfa_offset 4
  38              		.cfi_offset 14, -4
  39 0002 85B0     		sub	sp, sp, #20
  40              		.cfi_def_cfa_offset 24
  41 0004 0390     		str	r0, [sp, #12]
  42 0006 0291     		str	r1, [sp, #8]
  43 0008 0192     		str	r2, [sp, #4]
  44              		.loc 1 74 0
  45 000a 039B     		ldr	r3, [sp, #12]
  46 000c 002B     		cmp	r3, #0
  47 000e 05D0     		beq	.L2
  48              		.loc 1 74 0 is_stmt 0 discriminator 2
  49 0010 029B     		ldr	r3, [sp, #8]
  50 0012 002B     		cmp	r3, #0
  51 0014 02D0     		beq	.L2
  52              		.loc 1 74 0 discriminator 1
  53 0016 019B     		ldr	r3, [sp, #4]
  54 0018 002B     		cmp	r3, #0
ARM GAS  /tmp/cc9HJ4ck.s 			page 2


  55 001a 05DC     		bgt	.L3
  56              	.L2:
  57 001c 40F20000 		movw	r0, #:lower16:.LC0
  58 0020 C0F20000 		movt	r0, #:upper16:.LC0
  59 0024 FFF7FEFF 		bl	chDbgPanic
  60              	.L3:
  61              		.loc 1 76 0 is_stmt 1
  62 0028 039B     		ldr	r3, [sp, #12]
  63 002a 029A     		ldr	r2, [sp, #8]
  64 002c DA60     		str	r2, [r3, #12]
  65 002e 039B     		ldr	r3, [sp, #12]
  66 0030 DA68     		ldr	r2, [r3, #12]
  67 0032 039B     		ldr	r3, [sp, #12]
  68 0034 9A60     		str	r2, [r3, #8]
  69 0036 039B     		ldr	r3, [sp, #12]
  70 0038 9A68     		ldr	r2, [r3, #8]
  71 003a 039B     		ldr	r3, [sp, #12]
  72 003c 1A60     		str	r2, [r3]
  73              		.loc 1 77 0
  74 003e 019B     		ldr	r3, [sp, #4]
  75 0040 9B00     		lsls	r3, r3, #2
  76 0042 029A     		ldr	r2, [sp, #8]
  77 0044 1A44     		add	r2, r2, r3
  78 0046 039B     		ldr	r3, [sp, #12]
  79 0048 5A60     		str	r2, [r3, #4]
  80              		.loc 1 78 0
  81 004a 039B     		ldr	r3, [sp, #12]
  82 004c 1C33     		adds	r3, r3, #28
  83 004e 1846     		mov	r0, r3
  84 0050 0199     		ldr	r1, [sp, #4]
  85 0052 FFF7FEFF 		bl	chSemInit
  86              		.loc 1 79 0
  87 0056 039B     		ldr	r3, [sp, #12]
  88 0058 1033     		adds	r3, r3, #16
  89 005a 1846     		mov	r0, r3
  90 005c 0021     		movs	r1, #0
  91 005e FFF7FEFF 		bl	chSemInit
  92              		.loc 1 80 0
  93 0062 05B0     		add	sp, sp, #20
  94              		@ sp needed
  95 0064 5DF804FB 		ldr	pc, [sp], #4
  96              		.cfi_endproc
  97              	.LFE7:
  98              		.size	chMBInit, .-chMBInit
  99 0068 AFF30080 		.section	.rodata
  99      AFF30080 
 100 000d 000000   		.align	2
 101              	.LC1:
 102 0010 2263684D 		.ascii	"\"chMBReset\"()\000"
 102      42526573 
 102      65742228 
 102      2900
 103              		.section	.text.chMBReset,"ax",%progbits
 104              		.align	2
 105              		.p2align 4,,15
 106              		.global	chMBReset
 107              		.thumb
ARM GAS  /tmp/cc9HJ4ck.s 			page 3


 108              		.thumb_func
 109              		.type	chMBReset, %function
 110              	chMBReset:
 111              	.LFB8:
 112              		.loc 1 91 0
 113              		.cfi_startproc
 114              		@ args = 0, pretend = 0, frame = 8
 115              		@ frame_needed = 0, uses_anonymous_args = 0
 116 0000 00B5     		push	{lr}
 117              		.cfi_def_cfa_offset 4
 118              		.cfi_offset 14, -4
 119 0002 83B0     		sub	sp, sp, #12
 120              		.cfi_def_cfa_offset 16
 121 0004 0190     		str	r0, [sp, #4]
 122              		.loc 1 93 0
 123 0006 019B     		ldr	r3, [sp, #4]
 124 0008 002B     		cmp	r3, #0
 125 000a 05D1     		bne	.L5
 126              		.loc 1 93 0 is_stmt 0 discriminator 1
 127 000c 40F20000 		movw	r0, #:lower16:.LC1
 128 0010 C0F20000 		movt	r0, #:upper16:.LC1
 129 0014 FFF7FEFF 		bl	chDbgPanic
 130              	.L5:
 131              	.LBB2:
 132              		.loc 1 95 0 is_stmt 1
 133 0018 2023     		movs	r3, #32
 134              	@ 95 "../..//os/kernel/src/chmboxes.c" 1
 135 001a 83F31188 		msr     BASEPRI, r3
 136              	@ 0 "" 2
 137              		.thumb
 138              	.LBE2:
 139 001e FFF7FEFF 		bl	dbg_check_lock
 140              		.loc 1 96 0
 141 0022 019B     		ldr	r3, [sp, #4]
 142 0024 1A68     		ldr	r2, [r3]
 143 0026 019B     		ldr	r3, [sp, #4]
 144 0028 DA60     		str	r2, [r3, #12]
 145 002a 019B     		ldr	r3, [sp, #4]
 146 002c DA68     		ldr	r2, [r3, #12]
 147 002e 019B     		ldr	r3, [sp, #4]
 148 0030 9A60     		str	r2, [r3, #8]
 149              		.loc 1 97 0
 150 0032 019B     		ldr	r3, [sp, #4]
 151 0034 03F11C02 		add	r2, r3, #28
 152 0038 019B     		ldr	r3, [sp, #4]
 153 003a 5B68     		ldr	r3, [r3, #4]
 154 003c 1946     		mov	r1, r3
 155 003e 019B     		ldr	r3, [sp, #4]
 156 0040 1B68     		ldr	r3, [r3]
 157 0042 CB1A     		subs	r3, r1, r3
 158 0044 9B10     		asrs	r3, r3, #2
 159 0046 1046     		mov	r0, r2
 160 0048 1946     		mov	r1, r3
 161 004a FFF7FEFF 		bl	chSemResetI
 162              		.loc 1 98 0
 163 004e 019B     		ldr	r3, [sp, #4]
 164 0050 1033     		adds	r3, r3, #16
ARM GAS  /tmp/cc9HJ4ck.s 			page 4


 165 0052 1846     		mov	r0, r3
 166 0054 0021     		movs	r1, #0
 167 0056 FFF7FEFF 		bl	chSemResetI
 168              		.loc 1 99 0
 169 005a FFF7FEFF 		bl	chSchRescheduleS
 170              		.loc 1 100 0
 171 005e FFF7FEFF 		bl	dbg_check_unlock
 172              	.LBB3:
 173 0062 0023     		movs	r3, #0
 174              	@ 100 "../..//os/kernel/src/chmboxes.c" 1
 175 0064 83F31188 		msr     BASEPRI, r3
 176              	@ 0 "" 2
 177              		.thumb
 178              	.LBE3:
 179              		.loc 1 101 0
 180 0068 03B0     		add	sp, sp, #12
 181              		@ sp needed
 182 006a 5DF804FB 		ldr	pc, [sp], #4
 183              		.cfi_endproc
 184              	.LFE8:
 185              		.size	chMBReset, .-chMBReset
 186 006e 00BF     		.section	.text.chMBPost,"ax",%progbits
 187              		.align	2
 188              		.p2align 4,,15
 189              		.global	chMBPost
 190              		.thumb
 191              		.thumb_func
 192              		.type	chMBPost, %function
 193              	chMBPost:
 194              	.LFB9:
 195              		.loc 1 122 0
 196              		.cfi_startproc
 197              		@ args = 0, pretend = 0, frame = 24
 198              		@ frame_needed = 0, uses_anonymous_args = 0
 199 0000 00B5     		push	{lr}
 200              		.cfi_def_cfa_offset 4
 201              		.cfi_offset 14, -4
 202 0002 87B0     		sub	sp, sp, #28
 203              		.cfi_def_cfa_offset 32
 204 0004 0390     		str	r0, [sp, #12]
 205 0006 0291     		str	r1, [sp, #8]
 206 0008 0192     		str	r2, [sp, #4]
 207              	.LBB4:
 208              		.loc 1 125 0
 209 000a 2023     		movs	r3, #32
 210              	@ 125 "../..//os/kernel/src/chmboxes.c" 1
 211 000c 83F31188 		msr     BASEPRI, r3
 212              	@ 0 "" 2
 213              		.thumb
 214              	.LBE4:
 215 0010 FFF7FEFF 		bl	dbg_check_lock
 216              		.loc 1 126 0
 217 0014 0398     		ldr	r0, [sp, #12]
 218 0016 0299     		ldr	r1, [sp, #8]
 219 0018 019A     		ldr	r2, [sp, #4]
 220 001a FFF7FEFF 		bl	chMBPostS
 221 001e 0590     		str	r0, [sp, #20]
ARM GAS  /tmp/cc9HJ4ck.s 			page 5


 222              		.loc 1 127 0
 223 0020 FFF7FEFF 		bl	dbg_check_unlock
 224              	.LBB5:
 225 0024 0023     		movs	r3, #0
 226              	@ 127 "../..//os/kernel/src/chmboxes.c" 1
 227 0026 83F31188 		msr     BASEPRI, r3
 228              	@ 0 "" 2
 229              		.thumb
 230              	.LBE5:
 231              		.loc 1 128 0
 232 002a 059B     		ldr	r3, [sp, #20]
 233              		.loc 1 129 0
 234 002c 1846     		mov	r0, r3
 235 002e 07B0     		add	sp, sp, #28
 236              		@ sp needed
 237 0030 5DF804FB 		ldr	pc, [sp], #4
 238              		.cfi_endproc
 239              	.LFE9:
 240              		.size	chMBPost, .-chMBPost
 241 0034 AFF30080 		.section	.rodata
 241      AFF30080 
 241      AFF30080 
 242 001e 0000     		.align	2
 243              	.LC2:
 244 0020 2263684D 		.ascii	"\"chMBPostS\"()\000"
 244      42506F73 
 244      74532228 
 244      2900
 245              		.section	.text.chMBPostS,"ax",%progbits
 246              		.align	2
 247              		.p2align 4,,15
 248              		.global	chMBPostS
 249              		.thumb
 250              		.thumb_func
 251              		.type	chMBPostS, %function
 252              	chMBPostS:
 253              	.LFB10:
 254              		.loc 1 150 0
 255              		.cfi_startproc
 256              		@ args = 0, pretend = 0, frame = 24
 257              		@ frame_needed = 0, uses_anonymous_args = 0
 258 0000 00B5     		push	{lr}
 259              		.cfi_def_cfa_offset 4
 260              		.cfi_offset 14, -4
 261 0002 87B0     		sub	sp, sp, #28
 262              		.cfi_def_cfa_offset 32
 263 0004 0390     		str	r0, [sp, #12]
 264 0006 0291     		str	r1, [sp, #8]
 265 0008 0192     		str	r2, [sp, #4]
 266              		.loc 1 153 0
 267 000a FFF7FEFF 		bl	chDbgCheckClassS
 268              		.loc 1 154 0
 269 000e 039B     		ldr	r3, [sp, #12]
 270 0010 002B     		cmp	r3, #0
 271 0012 05D1     		bne	.L9
 272              		.loc 1 154 0 is_stmt 0 discriminator 1
 273 0014 40F20000 		movw	r0, #:lower16:.LC2
ARM GAS  /tmp/cc9HJ4ck.s 			page 6


 274 0018 C0F20000 		movt	r0, #:upper16:.LC2
 275 001c FFF7FEFF 		bl	chDbgPanic
 276              	.L9:
 277              		.loc 1 156 0 is_stmt 1
 278 0020 039B     		ldr	r3, [sp, #12]
 279 0022 1C33     		adds	r3, r3, #28
 280 0024 1846     		mov	r0, r3
 281 0026 0199     		ldr	r1, [sp, #4]
 282 0028 FFF7FEFF 		bl	chSemWaitTimeoutS
 283 002c 0590     		str	r0, [sp, #20]
 284              		.loc 1 157 0
 285 002e 059B     		ldr	r3, [sp, #20]
 286 0030 002B     		cmp	r3, #0
 287 0032 17D1     		bne	.L10
 288              		.loc 1 158 0
 289 0034 039B     		ldr	r3, [sp, #12]
 290 0036 9B68     		ldr	r3, [r3, #8]
 291 0038 191D     		adds	r1, r3, #4
 292 003a 039A     		ldr	r2, [sp, #12]
 293 003c 9160     		str	r1, [r2, #8]
 294 003e 029A     		ldr	r2, [sp, #8]
 295 0040 1A60     		str	r2, [r3]
 296              		.loc 1 159 0
 297 0042 039B     		ldr	r3, [sp, #12]
 298 0044 9A68     		ldr	r2, [r3, #8]
 299 0046 039B     		ldr	r3, [sp, #12]
 300 0048 5B68     		ldr	r3, [r3, #4]
 301 004a 9A42     		cmp	r2, r3
 302 004c 03D3     		bcc	.L11
 303              		.loc 1 160 0
 304 004e 039B     		ldr	r3, [sp, #12]
 305 0050 1A68     		ldr	r2, [r3]
 306 0052 039B     		ldr	r3, [sp, #12]
 307 0054 9A60     		str	r2, [r3, #8]
 308              	.L11:
 309              		.loc 1 161 0
 310 0056 039B     		ldr	r3, [sp, #12]
 311 0058 1033     		adds	r3, r3, #16
 312 005a 1846     		mov	r0, r3
 313 005c FFF7FEFF 		bl	chSemSignalI
 314              		.loc 1 162 0
 315 0060 FFF7FEFF 		bl	chSchRescheduleS
 316              	.L10:
 317              		.loc 1 164 0
 318 0064 059B     		ldr	r3, [sp, #20]
 319              		.loc 1 165 0
 320 0066 1846     		mov	r0, r3
 321 0068 07B0     		add	sp, sp, #28
 322              		@ sp needed
 323 006a 5DF804FB 		ldr	pc, [sp], #4
 324              		.cfi_endproc
 325              	.LFE10:
 326              		.size	chMBPostS, .-chMBPostS
 327 006e 00BF     		.section	.rodata
 328 002e 0000     		.align	2
 329              	.LC3:
 330 0030 2263684D 		.ascii	"\"chMBPostI\"()\000"
ARM GAS  /tmp/cc9HJ4ck.s 			page 7


 330      42506F73 
 330      74492228 
 330      2900
 331              		.section	.text.chMBPostI,"ax",%progbits
 332              		.align	2
 333              		.p2align 4,,15
 334              		.global	chMBPostI
 335              		.thumb
 336              		.thumb_func
 337              		.type	chMBPostI, %function
 338              	chMBPostI:
 339              	.LFB11:
 340              		.loc 1 181 0
 341              		.cfi_startproc
 342              		@ args = 0, pretend = 0, frame = 8
 343              		@ frame_needed = 0, uses_anonymous_args = 0
 344 0000 00B5     		push	{lr}
 345              		.cfi_def_cfa_offset 4
 346              		.cfi_offset 14, -4
 347 0002 83B0     		sub	sp, sp, #12
 348              		.cfi_def_cfa_offset 16
 349 0004 0190     		str	r0, [sp, #4]
 350 0006 0091     		str	r1, [sp]
 351              		.loc 1 183 0
 352 0008 FFF7FEFF 		bl	chDbgCheckClassI
 353              		.loc 1 184 0
 354 000c 019B     		ldr	r3, [sp, #4]
 355 000e 002B     		cmp	r3, #0
 356 0010 05D1     		bne	.L14
 357              		.loc 1 184 0 is_stmt 0 discriminator 1
 358 0012 40F20000 		movw	r0, #:lower16:.LC3
 359 0016 C0F20000 		movt	r0, #:upper16:.LC3
 360 001a FFF7FEFF 		bl	chDbgPanic
 361              	.L14:
 362              		.loc 1 186 0 is_stmt 1
 363 001e 019B     		ldr	r3, [sp, #4]
 364 0020 5B6A     		ldr	r3, [r3, #36]
 365 0022 002B     		cmp	r3, #0
 366 0024 02DC     		bgt	.L15
 367              		.loc 1 187 0
 368 0026 4FF0FF33 		mov	r3, #-1
 369 002a 1BE0     		b	.L16
 370              	.L15:
 371              		.loc 1 188 0
 372 002c 019B     		ldr	r3, [sp, #4]
 373 002e 5B6A     		ldr	r3, [r3, #36]
 374 0030 5A1E     		subs	r2, r3, #1
 375 0032 019B     		ldr	r3, [sp, #4]
 376 0034 5A62     		str	r2, [r3, #36]
 377              		.loc 1 189 0
 378 0036 019B     		ldr	r3, [sp, #4]
 379 0038 9B68     		ldr	r3, [r3, #8]
 380 003a 191D     		adds	r1, r3, #4
 381 003c 019A     		ldr	r2, [sp, #4]
 382 003e 9160     		str	r1, [r2, #8]
 383 0040 009A     		ldr	r2, [sp]
 384 0042 1A60     		str	r2, [r3]
ARM GAS  /tmp/cc9HJ4ck.s 			page 8


 385              		.loc 1 190 0
 386 0044 019B     		ldr	r3, [sp, #4]
 387 0046 9A68     		ldr	r2, [r3, #8]
 388 0048 019B     		ldr	r3, [sp, #4]
 389 004a 5B68     		ldr	r3, [r3, #4]
 390 004c 9A42     		cmp	r2, r3
 391 004e 03D3     		bcc	.L17
 392              		.loc 1 191 0
 393 0050 019B     		ldr	r3, [sp, #4]
 394 0052 1A68     		ldr	r2, [r3]
 395 0054 019B     		ldr	r3, [sp, #4]
 396 0056 9A60     		str	r2, [r3, #8]
 397              	.L17:
 398              		.loc 1 192 0
 399 0058 019B     		ldr	r3, [sp, #4]
 400 005a 1033     		adds	r3, r3, #16
 401 005c 1846     		mov	r0, r3
 402 005e FFF7FEFF 		bl	chSemSignalI
 403              		.loc 1 193 0
 404 0062 0023     		movs	r3, #0
 405              	.L16:
 406              		.loc 1 194 0
 407 0064 1846     		mov	r0, r3
 408 0066 03B0     		add	sp, sp, #12
 409              		@ sp needed
 410 0068 5DF804FB 		ldr	pc, [sp], #4
 411              		.cfi_endproc
 412              	.LFE11:
 413              		.size	chMBPostI, .-chMBPostI
 414 006c AFF30080 		.section	.text.chMBPostAhead,"ax",%progbits
 415              		.align	2
 416              		.p2align 4,,15
 417              		.global	chMBPostAhead
 418              		.thumb
 419              		.thumb_func
 420              		.type	chMBPostAhead, %function
 421              	chMBPostAhead:
 422              	.LFB12:
 423              		.loc 1 215 0
 424              		.cfi_startproc
 425              		@ args = 0, pretend = 0, frame = 24
 426              		@ frame_needed = 0, uses_anonymous_args = 0
 427 0000 00B5     		push	{lr}
 428              		.cfi_def_cfa_offset 4
 429              		.cfi_offset 14, -4
 430 0002 87B0     		sub	sp, sp, #28
 431              		.cfi_def_cfa_offset 32
 432 0004 0390     		str	r0, [sp, #12]
 433 0006 0291     		str	r1, [sp, #8]
 434 0008 0192     		str	r2, [sp, #4]
 435              	.LBB6:
 436              		.loc 1 218 0
 437 000a 2023     		movs	r3, #32
 438              	@ 218 "../..//os/kernel/src/chmboxes.c" 1
 439 000c 83F31188 		msr     BASEPRI, r3
 440              	@ 0 "" 2
 441              		.thumb
ARM GAS  /tmp/cc9HJ4ck.s 			page 9


 442              	.LBE6:
 443 0010 FFF7FEFF 		bl	dbg_check_lock
 444              		.loc 1 219 0
 445 0014 0398     		ldr	r0, [sp, #12]
 446 0016 0299     		ldr	r1, [sp, #8]
 447 0018 019A     		ldr	r2, [sp, #4]
 448 001a FFF7FEFF 		bl	chMBPostAheadS
 449 001e 0590     		str	r0, [sp, #20]
 450              		.loc 1 220 0
 451 0020 FFF7FEFF 		bl	dbg_check_unlock
 452              	.LBB7:
 453 0024 0023     		movs	r3, #0
 454              	@ 220 "../..//os/kernel/src/chmboxes.c" 1
 455 0026 83F31188 		msr     BASEPRI, r3
 456              	@ 0 "" 2
 457              		.thumb
 458              	.LBE7:
 459              		.loc 1 221 0
 460 002a 059B     		ldr	r3, [sp, #20]
 461              		.loc 1 222 0
 462 002c 1846     		mov	r0, r3
 463 002e 07B0     		add	sp, sp, #28
 464              		@ sp needed
 465 0030 5DF804FB 		ldr	pc, [sp], #4
 466              		.cfi_endproc
 467              	.LFE12:
 468              		.size	chMBPostAhead, .-chMBPostAhead
 469 0034 AFF30080 		.section	.rodata
 469      AFF30080 
 469      AFF30080 
 470 003e 0000     		.align	2
 471              	.LC4:
 472 0040 2263684D 		.ascii	"\"chMBPostAheadS\"()\000"
 472      42506F73 
 472      74416865 
 472      61645322 
 472      282900
 473              		.section	.text.chMBPostAheadS,"ax",%progbits
 474              		.align	2
 475              		.p2align 4,,15
 476              		.global	chMBPostAheadS
 477              		.thumb
 478              		.thumb_func
 479              		.type	chMBPostAheadS, %function
 480              	chMBPostAheadS:
 481              	.LFB13:
 482              		.loc 1 243 0
 483              		.cfi_startproc
 484              		@ args = 0, pretend = 0, frame = 24
 485              		@ frame_needed = 0, uses_anonymous_args = 0
 486 0000 00B5     		push	{lr}
 487              		.cfi_def_cfa_offset 4
 488              		.cfi_offset 14, -4
 489 0002 87B0     		sub	sp, sp, #28
 490              		.cfi_def_cfa_offset 32
 491 0004 0390     		str	r0, [sp, #12]
 492 0006 0291     		str	r1, [sp, #8]
ARM GAS  /tmp/cc9HJ4ck.s 			page 10


 493 0008 0192     		str	r2, [sp, #4]
 494              		.loc 1 246 0
 495 000a FFF7FEFF 		bl	chDbgCheckClassS
 496              		.loc 1 247 0
 497 000e 039B     		ldr	r3, [sp, #12]
 498 0010 002B     		cmp	r3, #0
 499 0012 05D1     		bne	.L21
 500              		.loc 1 247 0 is_stmt 0 discriminator 1
 501 0014 40F20000 		movw	r0, #:lower16:.LC4
 502 0018 C0F20000 		movt	r0, #:upper16:.LC4
 503 001c FFF7FEFF 		bl	chDbgPanic
 504              	.L21:
 505              		.loc 1 249 0 is_stmt 1
 506 0020 039B     		ldr	r3, [sp, #12]
 507 0022 1C33     		adds	r3, r3, #28
 508 0024 1846     		mov	r0, r3
 509 0026 0199     		ldr	r1, [sp, #4]
 510 0028 FFF7FEFF 		bl	chSemWaitTimeoutS
 511 002c 0590     		str	r0, [sp, #20]
 512              		.loc 1 250 0
 513 002e 059B     		ldr	r3, [sp, #20]
 514 0030 002B     		cmp	r3, #0
 515 0032 1AD1     		bne	.L22
 516              		.loc 1 251 0
 517 0034 039B     		ldr	r3, [sp, #12]
 518 0036 DB68     		ldr	r3, [r3, #12]
 519 0038 1A1F     		subs	r2, r3, #4
 520 003a 039B     		ldr	r3, [sp, #12]
 521 003c DA60     		str	r2, [r3, #12]
 522 003e 039B     		ldr	r3, [sp, #12]
 523 0040 DA68     		ldr	r2, [r3, #12]
 524 0042 039B     		ldr	r3, [sp, #12]
 525 0044 1B68     		ldr	r3, [r3]
 526 0046 9A42     		cmp	r2, r3
 527 0048 04D2     		bcs	.L23
 528              		.loc 1 252 0
 529 004a 039B     		ldr	r3, [sp, #12]
 530 004c 5B68     		ldr	r3, [r3, #4]
 531 004e 1A1F     		subs	r2, r3, #4
 532 0050 039B     		ldr	r3, [sp, #12]
 533 0052 DA60     		str	r2, [r3, #12]
 534              	.L23:
 535              		.loc 1 253 0
 536 0054 039B     		ldr	r3, [sp, #12]
 537 0056 DB68     		ldr	r3, [r3, #12]
 538 0058 029A     		ldr	r2, [sp, #8]
 539 005a 1A60     		str	r2, [r3]
 540              		.loc 1 254 0
 541 005c 039B     		ldr	r3, [sp, #12]
 542 005e 1033     		adds	r3, r3, #16
 543 0060 1846     		mov	r0, r3
 544 0062 FFF7FEFF 		bl	chSemSignalI
 545              		.loc 1 255 0
 546 0066 FFF7FEFF 		bl	chSchRescheduleS
 547              	.L22:
 548              		.loc 1 257 0
 549 006a 059B     		ldr	r3, [sp, #20]
ARM GAS  /tmp/cc9HJ4ck.s 			page 11


 550              		.loc 1 258 0
 551 006c 1846     		mov	r0, r3
 552 006e 07B0     		add	sp, sp, #28
 553              		@ sp needed
 554 0070 5DF804FB 		ldr	pc, [sp], #4
 555              		.cfi_endproc
 556              	.LFE13:
 557              		.size	chMBPostAheadS, .-chMBPostAheadS
 558 0074 AFF30080 		.section	.rodata
 558      AFF30080 
 558      AFF30080 
 559 0053 00       		.align	2
 560              	.LC5:
 561 0054 2263684D 		.ascii	"\"chMBPostAheadI\"()\000"
 561      42506F73 
 561      74416865 
 561      61644922 
 561      282900
 562              		.section	.text.chMBPostAheadI,"ax",%progbits
 563              		.align	2
 564              		.p2align 4,,15
 565              		.global	chMBPostAheadI
 566              		.thumb
 567              		.thumb_func
 568              		.type	chMBPostAheadI, %function
 569              	chMBPostAheadI:
 570              	.LFB14:
 571              		.loc 1 274 0
 572              		.cfi_startproc
 573              		@ args = 0, pretend = 0, frame = 8
 574              		@ frame_needed = 0, uses_anonymous_args = 0
 575 0000 00B5     		push	{lr}
 576              		.cfi_def_cfa_offset 4
 577              		.cfi_offset 14, -4
 578 0002 83B0     		sub	sp, sp, #12
 579              		.cfi_def_cfa_offset 16
 580 0004 0190     		str	r0, [sp, #4]
 581 0006 0091     		str	r1, [sp]
 582              		.loc 1 276 0
 583 0008 FFF7FEFF 		bl	chDbgCheckClassI
 584              		.loc 1 277 0
 585 000c 019B     		ldr	r3, [sp, #4]
 586 000e 002B     		cmp	r3, #0
 587 0010 05D1     		bne	.L26
 588              		.loc 1 277 0 is_stmt 0 discriminator 1
 589 0012 40F20000 		movw	r0, #:lower16:.LC5
 590 0016 C0F20000 		movt	r0, #:upper16:.LC5
 591 001a FFF7FEFF 		bl	chDbgPanic
 592              	.L26:
 593              		.loc 1 279 0 is_stmt 1
 594 001e 019B     		ldr	r3, [sp, #4]
 595 0020 5B6A     		ldr	r3, [r3, #36]
 596 0022 002B     		cmp	r3, #0
 597 0024 02DC     		bgt	.L27
 598              		.loc 1 280 0
 599 0026 4FF0FF33 		mov	r3, #-1
 600 002a 1EE0     		b	.L28
ARM GAS  /tmp/cc9HJ4ck.s 			page 12


 601              	.L27:
 602              		.loc 1 281 0
 603 002c 019B     		ldr	r3, [sp, #4]
 604 002e 5B6A     		ldr	r3, [r3, #36]
 605 0030 5A1E     		subs	r2, r3, #1
 606 0032 019B     		ldr	r3, [sp, #4]
 607 0034 5A62     		str	r2, [r3, #36]
 608              		.loc 1 282 0
 609 0036 019B     		ldr	r3, [sp, #4]
 610 0038 DB68     		ldr	r3, [r3, #12]
 611 003a 1A1F     		subs	r2, r3, #4
 612 003c 019B     		ldr	r3, [sp, #4]
 613 003e DA60     		str	r2, [r3, #12]
 614 0040 019B     		ldr	r3, [sp, #4]
 615 0042 DA68     		ldr	r2, [r3, #12]
 616 0044 019B     		ldr	r3, [sp, #4]
 617 0046 1B68     		ldr	r3, [r3]
 618 0048 9A42     		cmp	r2, r3
 619 004a 04D2     		bcs	.L29
 620              		.loc 1 283 0
 621 004c 019B     		ldr	r3, [sp, #4]
 622 004e 5B68     		ldr	r3, [r3, #4]
 623 0050 1A1F     		subs	r2, r3, #4
 624 0052 019B     		ldr	r3, [sp, #4]
 625 0054 DA60     		str	r2, [r3, #12]
 626              	.L29:
 627              		.loc 1 284 0
 628 0056 019B     		ldr	r3, [sp, #4]
 629 0058 DB68     		ldr	r3, [r3, #12]
 630 005a 009A     		ldr	r2, [sp]
 631 005c 1A60     		str	r2, [r3]
 632              		.loc 1 285 0
 633 005e 019B     		ldr	r3, [sp, #4]
 634 0060 1033     		adds	r3, r3, #16
 635 0062 1846     		mov	r0, r3
 636 0064 FFF7FEFF 		bl	chSemSignalI
 637              		.loc 1 286 0
 638 0068 0023     		movs	r3, #0
 639              	.L28:
 640              		.loc 1 287 0
 641 006a 1846     		mov	r0, r3
 642 006c 03B0     		add	sp, sp, #12
 643              		@ sp needed
 644 006e 5DF804FB 		ldr	pc, [sp], #4
 645              		.cfi_endproc
 646              	.LFE14:
 647              		.size	chMBPostAheadI, .-chMBPostAheadI
 648 0072 00BFAFF3 		.section	.text.chMBFetch,"ax",%progbits
 648      0080AFF3 
 648      0080AFF3 
 648      0080
 649              		.align	2
 650              		.p2align 4,,15
 651              		.global	chMBFetch
 652              		.thumb
 653              		.thumb_func
 654              		.type	chMBFetch, %function
ARM GAS  /tmp/cc9HJ4ck.s 			page 13


 655              	chMBFetch:
 656              	.LFB15:
 657              		.loc 1 308 0
 658              		.cfi_startproc
 659              		@ args = 0, pretend = 0, frame = 24
 660              		@ frame_needed = 0, uses_anonymous_args = 0
 661 0000 00B5     		push	{lr}
 662              		.cfi_def_cfa_offset 4
 663              		.cfi_offset 14, -4
 664 0002 87B0     		sub	sp, sp, #28
 665              		.cfi_def_cfa_offset 32
 666 0004 0390     		str	r0, [sp, #12]
 667 0006 0291     		str	r1, [sp, #8]
 668 0008 0192     		str	r2, [sp, #4]
 669              	.LBB8:
 670              		.loc 1 311 0
 671 000a 2023     		movs	r3, #32
 672              	@ 311 "../..//os/kernel/src/chmboxes.c" 1
 673 000c 83F31188 		msr     BASEPRI, r3
 674              	@ 0 "" 2
 675              		.thumb
 676              	.LBE8:
 677 0010 FFF7FEFF 		bl	dbg_check_lock
 678              		.loc 1 312 0
 679 0014 0398     		ldr	r0, [sp, #12]
 680 0016 0299     		ldr	r1, [sp, #8]
 681 0018 019A     		ldr	r2, [sp, #4]
 682 001a FFF7FEFF 		bl	chMBFetchS
 683 001e 0590     		str	r0, [sp, #20]
 684              		.loc 1 313 0
 685 0020 FFF7FEFF 		bl	dbg_check_unlock
 686              	.LBB9:
 687 0024 0023     		movs	r3, #0
 688              	@ 313 "../..//os/kernel/src/chmboxes.c" 1
 689 0026 83F31188 		msr     BASEPRI, r3
 690              	@ 0 "" 2
 691              		.thumb
 692              	.LBE9:
 693              		.loc 1 314 0
 694 002a 059B     		ldr	r3, [sp, #20]
 695              		.loc 1 315 0
 696 002c 1846     		mov	r0, r3
 697 002e 07B0     		add	sp, sp, #28
 698              		@ sp needed
 699 0030 5DF804FB 		ldr	pc, [sp], #4
 700              		.cfi_endproc
 701              	.LFE15:
 702              		.size	chMBFetch, .-chMBFetch
 703 0034 AFF30080 		.section	.rodata
 703      AFF30080 
 703      AFF30080 
 704 0067 00       		.align	2
 705              	.LC6:
 706 0068 2263684D 		.ascii	"\"chMBFetchS\"()\000"
 706      42466574 
 706      63685322 
 706      282900
ARM GAS  /tmp/cc9HJ4ck.s 			page 14


 707              		.section	.text.chMBFetchS,"ax",%progbits
 708              		.align	2
 709              		.p2align 4,,15
 710              		.global	chMBFetchS
 711              		.thumb
 712              		.thumb_func
 713              		.type	chMBFetchS, %function
 714              	chMBFetchS:
 715              	.LFB16:
 716              		.loc 1 336 0
 717              		.cfi_startproc
 718              		@ args = 0, pretend = 0, frame = 24
 719              		@ frame_needed = 0, uses_anonymous_args = 0
 720 0000 00B5     		push	{lr}
 721              		.cfi_def_cfa_offset 4
 722              		.cfi_offset 14, -4
 723 0002 87B0     		sub	sp, sp, #28
 724              		.cfi_def_cfa_offset 32
 725 0004 0390     		str	r0, [sp, #12]
 726 0006 0291     		str	r1, [sp, #8]
 727 0008 0192     		str	r2, [sp, #4]
 728              		.loc 1 339 0
 729 000a FFF7FEFF 		bl	chDbgCheckClassS
 730              		.loc 1 340 0
 731 000e 039B     		ldr	r3, [sp, #12]
 732 0010 002B     		cmp	r3, #0
 733 0012 02D0     		beq	.L33
 734              		.loc 1 340 0 is_stmt 0 discriminator 2
 735 0014 029B     		ldr	r3, [sp, #8]
 736 0016 002B     		cmp	r3, #0
 737 0018 05D1     		bne	.L34
 738              	.L33:
 739              		.loc 1 340 0 discriminator 1
 740 001a 40F20000 		movw	r0, #:lower16:.LC6
 741 001e C0F20000 		movt	r0, #:upper16:.LC6
 742 0022 FFF7FEFF 		bl	chDbgPanic
 743              	.L34:
 744              		.loc 1 342 0 is_stmt 1
 745 0026 039B     		ldr	r3, [sp, #12]
 746 0028 1033     		adds	r3, r3, #16
 747 002a 1846     		mov	r0, r3
 748 002c 0199     		ldr	r1, [sp, #4]
 749 002e FFF7FEFF 		bl	chSemWaitTimeoutS
 750 0032 0590     		str	r0, [sp, #20]
 751              		.loc 1 343 0
 752 0034 059B     		ldr	r3, [sp, #20]
 753 0036 002B     		cmp	r3, #0
 754 0038 18D1     		bne	.L35
 755              		.loc 1 344 0
 756 003a 039B     		ldr	r3, [sp, #12]
 757 003c DB68     		ldr	r3, [r3, #12]
 758 003e 191D     		adds	r1, r3, #4
 759 0040 039A     		ldr	r2, [sp, #12]
 760 0042 D160     		str	r1, [r2, #12]
 761 0044 1A68     		ldr	r2, [r3]
 762 0046 029B     		ldr	r3, [sp, #8]
 763 0048 1A60     		str	r2, [r3]
ARM GAS  /tmp/cc9HJ4ck.s 			page 15


 764              		.loc 1 345 0
 765 004a 039B     		ldr	r3, [sp, #12]
 766 004c DA68     		ldr	r2, [r3, #12]
 767 004e 039B     		ldr	r3, [sp, #12]
 768 0050 5B68     		ldr	r3, [r3, #4]
 769 0052 9A42     		cmp	r2, r3
 770 0054 03D3     		bcc	.L36
 771              		.loc 1 346 0
 772 0056 039B     		ldr	r3, [sp, #12]
 773 0058 1A68     		ldr	r2, [r3]
 774 005a 039B     		ldr	r3, [sp, #12]
 775 005c DA60     		str	r2, [r3, #12]
 776              	.L36:
 777              		.loc 1 347 0
 778 005e 039B     		ldr	r3, [sp, #12]
 779 0060 1C33     		adds	r3, r3, #28
 780 0062 1846     		mov	r0, r3
 781 0064 FFF7FEFF 		bl	chSemSignalI
 782              		.loc 1 348 0
 783 0068 FFF7FEFF 		bl	chSchRescheduleS
 784              	.L35:
 785              		.loc 1 350 0
 786 006c 059B     		ldr	r3, [sp, #20]
 787              		.loc 1 351 0
 788 006e 1846     		mov	r0, r3
 789 0070 07B0     		add	sp, sp, #28
 790              		@ sp needed
 791 0072 5DF804FB 		ldr	pc, [sp], #4
 792              		.cfi_endproc
 793              	.LFE16:
 794              		.size	chMBFetchS, .-chMBFetchS
 795 0076 00BFAFF3 		.section	.rodata
 795      0080AFF3 
 795      0080
 796 0077 00       		.align	2
 797              	.LC7:
 798 0078 2263684D 		.ascii	"\"chMBFetchI\"()\000"
 798      42466574 
 798      63684922 
 798      282900
 799 0087 00       		.section	.text.chMBFetchI,"ax",%progbits
 800              		.align	2
 801              		.p2align 4,,15
 802              		.global	chMBFetchI
 803              		.thumb
 804              		.thumb_func
 805              		.type	chMBFetchI, %function
 806              	chMBFetchI:
 807              	.LFB17:
 808              		.loc 1 367 0
 809              		.cfi_startproc
 810              		@ args = 0, pretend = 0, frame = 8
 811              		@ frame_needed = 0, uses_anonymous_args = 0
 812 0000 00B5     		push	{lr}
 813              		.cfi_def_cfa_offset 4
 814              		.cfi_offset 14, -4
 815 0002 83B0     		sub	sp, sp, #12
ARM GAS  /tmp/cc9HJ4ck.s 			page 16


 816              		.cfi_def_cfa_offset 16
 817 0004 0190     		str	r0, [sp, #4]
 818 0006 0091     		str	r1, [sp]
 819              		.loc 1 369 0
 820 0008 FFF7FEFF 		bl	chDbgCheckClassI
 821              		.loc 1 370 0
 822 000c 019B     		ldr	r3, [sp, #4]
 823 000e 002B     		cmp	r3, #0
 824 0010 02D0     		beq	.L39
 825              		.loc 1 370 0 is_stmt 0 discriminator 2
 826 0012 009B     		ldr	r3, [sp]
 827 0014 002B     		cmp	r3, #0
 828 0016 05D1     		bne	.L40
 829              	.L39:
 830              		.loc 1 370 0 discriminator 1
 831 0018 40F20000 		movw	r0, #:lower16:.LC7
 832 001c C0F20000 		movt	r0, #:upper16:.LC7
 833 0020 FFF7FEFF 		bl	chDbgPanic
 834              	.L40:
 835              		.loc 1 372 0 is_stmt 1
 836 0024 019B     		ldr	r3, [sp, #4]
 837 0026 9B69     		ldr	r3, [r3, #24]
 838 0028 002B     		cmp	r3, #0
 839 002a 02DC     		bgt	.L41
 840              		.loc 1 373 0
 841 002c 4FF0FF33 		mov	r3, #-1
 842 0030 1CE0     		b	.L42
 843              	.L41:
 844              		.loc 1 374 0
 845 0032 019B     		ldr	r3, [sp, #4]
 846 0034 9B69     		ldr	r3, [r3, #24]
 847 0036 5A1E     		subs	r2, r3, #1
 848 0038 019B     		ldr	r3, [sp, #4]
 849 003a 9A61     		str	r2, [r3, #24]
 850              		.loc 1 375 0
 851 003c 019B     		ldr	r3, [sp, #4]
 852 003e DB68     		ldr	r3, [r3, #12]
 853 0040 191D     		adds	r1, r3, #4
 854 0042 019A     		ldr	r2, [sp, #4]
 855 0044 D160     		str	r1, [r2, #12]
 856 0046 1A68     		ldr	r2, [r3]
 857 0048 009B     		ldr	r3, [sp]
 858 004a 1A60     		str	r2, [r3]
 859              		.loc 1 376 0
 860 004c 019B     		ldr	r3, [sp, #4]
 861 004e DA68     		ldr	r2, [r3, #12]
 862 0050 019B     		ldr	r3, [sp, #4]
 863 0052 5B68     		ldr	r3, [r3, #4]
 864 0054 9A42     		cmp	r2, r3
 865 0056 03D3     		bcc	.L43
 866              		.loc 1 377 0
 867 0058 019B     		ldr	r3, [sp, #4]
 868 005a 1A68     		ldr	r2, [r3]
 869 005c 019B     		ldr	r3, [sp, #4]
 870 005e DA60     		str	r2, [r3, #12]
 871              	.L43:
 872              		.loc 1 378 0
ARM GAS  /tmp/cc9HJ4ck.s 			page 17


 873 0060 019B     		ldr	r3, [sp, #4]
 874 0062 1C33     		adds	r3, r3, #28
 875 0064 1846     		mov	r0, r3
 876 0066 FFF7FEFF 		bl	chSemSignalI
 877              		.loc 1 379 0
 878 006a 0023     		movs	r3, #0
 879              	.L42:
 880              		.loc 1 380 0
 881 006c 1846     		mov	r0, r3
 882 006e 03B0     		add	sp, sp, #12
 883              		@ sp needed
 884 0070 5DF804FB 		ldr	pc, [sp], #4
 885              		.cfi_endproc
 886              	.LFE17:
 887              		.size	chMBFetchI, .-chMBFetchI
 888 0074 AFF30080 		.text
 888      AFF30080 
 888      AFF30080 
 889              	.Letext0:
 890              		.file 2 "/usr/arm-none-eabi/include/machine/_default_types.h"
 891              		.file 3 "/usr/arm-none-eabi/include/stdint.h"
 892              		.file 4 "../..//os/ports/GCC/ARMCMx/chtypes.h"
 893              		.file 5 "../..//os/kernel/include/chlists.h"
 894              		.file 6 "../..//os/kernel/include/chthreads.h"
 895              		.file 7 "../..//os/ports/GCC/ARMCMx/chcore_v7m.h"
 896              		.file 8 "../..//os/kernel/include/chsem.h"
 897              		.file 9 "../..//os/kernel/include/chmtx.h"
 898              		.file 10 "../..//os/kernel/include/chmboxes.h"