ARM GAS  /tmp/ccIsfVgg.s 			page 1


   1              		.syntax unified
   2              		.cpu cortex-m4
   3              		.fpu softvfp
   4              		.eabi_attribute 20, 1
   5              		.eabi_attribute 21, 1
   6              		.eabi_attribute 23, 3
   7              		.eabi_attribute 24, 1
   8              		.eabi_attribute 25, 1
   9              		.eabi_attribute 26, 1
  10              		.eabi_attribute 30, 6
  11              		.eabi_attribute 34, 1
  12              		.eabi_attribute 18, 4
  13              		.thumb
  14              		.file	"chmsg.c"
  15              		.text
  16              	.Ltext0:
  17              		.cfi_sections	.debug_frame
  18              		.section	.text.queue_insert,"ax",%progbits
  19              		.align	2
  20              		.p2align 4,,15
  21              		.thumb
  22              		.thumb_func
  23              		.type	queue_insert, %function
  24              	queue_insert:
  25              	.LFB1:
  26              		.file 1 "../..//os/kernel/include/chinline.h"
  27              		.loc 1 52 0
  28              		.cfi_startproc
  29              		@ args = 0, pretend = 0, frame = 8
  30              		@ frame_needed = 0, uses_anonymous_args = 0
  31              		@ link register save eliminated.
  32 0000 82B0     		sub	sp, sp, #8
  33              		.cfi_def_cfa_offset 8
  34 0002 0190     		str	r0, [sp, #4]
  35 0004 0091     		str	r1, [sp]
  36              		.loc 1 54 0
  37 0006 019B     		ldr	r3, [sp, #4]
  38 0008 009A     		ldr	r2, [sp]
  39 000a 1A60     		str	r2, [r3]
  40              		.loc 1 55 0
  41 000c 009B     		ldr	r3, [sp]
  42 000e 5A68     		ldr	r2, [r3, #4]
  43 0010 019B     		ldr	r3, [sp, #4]
  44 0012 5A60     		str	r2, [r3, #4]
  45              		.loc 1 56 0
  46 0014 019B     		ldr	r3, [sp, #4]
  47 0016 5B68     		ldr	r3, [r3, #4]
  48 0018 009A     		ldr	r2, [sp]
  49 001a 0199     		ldr	r1, [sp, #4]
  50 001c 5160     		str	r1, [r2, #4]
  51 001e 009A     		ldr	r2, [sp]
  52 0020 5268     		ldr	r2, [r2, #4]
  53 0022 1A60     		str	r2, [r3]
  54              		.loc 1 57 0
  55 0024 02B0     		add	sp, sp, #8
  56              		@ sp needed
  57 0026 7047     		bx	lr
ARM GAS  /tmp/ccIsfVgg.s 			page 2


  58              		.cfi_endproc
  59              	.LFE1:
  60              		.size	queue_insert, .-queue_insert
  61 0028 AFF30080 		.section	.text.fifo_remove,"ax",%progbits
  61      AFF30080 
  62              		.align	2
  63              		.p2align 4,,15
  64              		.thumb
  65              		.thumb_func
  66              		.type	fifo_remove, %function
  67              	fifo_remove:
  68              	.LFB2:
  69              		.loc 1 59 0
  70              		.cfi_startproc
  71              		@ args = 0, pretend = 0, frame = 16
  72              		@ frame_needed = 0, uses_anonymous_args = 0
  73              		@ link register save eliminated.
  74 0000 84B0     		sub	sp, sp, #16
  75              		.cfi_def_cfa_offset 16
  76 0002 0190     		str	r0, [sp, #4]
  77              		.loc 1 60 0
  78 0004 019B     		ldr	r3, [sp, #4]
  79 0006 1B68     		ldr	r3, [r3]
  80 0008 0393     		str	r3, [sp, #12]
  81              		.loc 1 62 0
  82 000a 039B     		ldr	r3, [sp, #12]
  83 000c 1A68     		ldr	r2, [r3]
  84 000e 019B     		ldr	r3, [sp, #4]
  85 0010 1A60     		str	r2, [r3]
  86 0012 019B     		ldr	r3, [sp, #4]
  87 0014 1B68     		ldr	r3, [r3]
  88 0016 019A     		ldr	r2, [sp, #4]
  89 0018 5A60     		str	r2, [r3, #4]
  90              		.loc 1 63 0
  91 001a 039B     		ldr	r3, [sp, #12]
  92              		.loc 1 64 0
  93 001c 1846     		mov	r0, r3
  94 001e 04B0     		add	sp, sp, #16
  95              		@ sp needed
  96 0020 7047     		bx	lr
  97              		.cfi_endproc
  98              	.LFE2:
  99              		.size	fifo_remove, .-fifo_remove
 100 0022 00BFAFF3 		.section	.rodata
 100      0080AFF3 
 100      0080AFF3 
 100      0080
 101              		.align	2
 102              	.LC0:
 103 0000 2263684D 		.ascii	"\"chMsgSend\"()\000"
 103      73675365 
 103      6E642228 
 103      2900
 104              		.section	.text.chMsgSend,"ax",%progbits
 105              		.align	2
 106              		.p2align 4,,15
 107              		.global	chMsgSend
ARM GAS  /tmp/ccIsfVgg.s 			page 3


 108              		.thumb
 109              		.thumb_func
 110              		.type	chMsgSend, %function
 111              	chMsgSend:
 112              	.LFB7:
 113              		.file 2 "../..//os/kernel/src/chmsg.c"
 114              		.loc 2 75 0
 115              		.cfi_startproc
 116              		@ args = 0, pretend = 0, frame = 16
 117              		@ frame_needed = 0, uses_anonymous_args = 0
 118 0000 00B5     		push	{lr}
 119              		.cfi_def_cfa_offset 4
 120              		.cfi_offset 14, -4
 121 0002 85B0     		sub	sp, sp, #20
 122              		.cfi_def_cfa_offset 24
 123 0004 0190     		str	r0, [sp, #4]
 124 0006 0091     		str	r1, [sp]
 125              		.loc 2 76 0
 126 0008 40F20003 		movw	r3, #:lower16:rlist
 127 000c C0F20003 		movt	r3, #:upper16:rlist
 128 0010 9B69     		ldr	r3, [r3, #24]
 129 0012 0393     		str	r3, [sp, #12]
 130              		.loc 2 78 0
 131 0014 019B     		ldr	r3, [sp, #4]
 132 0016 002B     		cmp	r3, #0
 133 0018 05D1     		bne	.L5
 134              		.loc 2 78 0 is_stmt 0 discriminator 1
 135 001a 40F20000 		movw	r0, #:lower16:.LC0
 136 001e C0F20000 		movt	r0, #:upper16:.LC0
 137 0022 FFF7FEFF 		bl	chDbgPanic
 138              	.L5:
 139              	.LBB2:
 140              		.loc 2 80 0 is_stmt 1
 141 0026 2023     		movs	r3, #32
 142              	@ 80 "../..//os/kernel/src/chmsg.c" 1
 143 0028 83F31188 		msr     BASEPRI, r3
 144              	@ 0 "" 2
 145              		.thumb
 146              	.LBE2:
 147 002c FFF7FEFF 		bl	dbg_check_lock
 148              		.loc 2 81 0
 149 0030 039B     		ldr	r3, [sp, #12]
 150 0032 009A     		ldr	r2, [sp]
 151 0034 9A63     		str	r2, [r3, #56]
 152              		.loc 2 82 0
 153 0036 019B     		ldr	r3, [sp, #4]
 154 0038 03F13002 		add	r2, r3, #48
 155 003c 039B     		ldr	r3, [sp, #12]
 156 003e 9A62     		str	r2, [r3, #40]
 157              		.loc 2 83 0
 158 0040 019B     		ldr	r3, [sp, #4]
 159 0042 3033     		adds	r3, r3, #48
 160 0044 0398     		ldr	r0, [sp, #12]
 161 0046 1946     		mov	r1, r3
 162 0048 FFF7FEFF 		bl	queue_insert
 163              		.loc 2 84 0
 164 004c 019B     		ldr	r3, [sp, #4]
ARM GAS  /tmp/ccIsfVgg.s 			page 4


 165 004e 93F82030 		ldrb	r3, [r3, #32]	@ zero_extendqisi2
 166 0052 0C2B     		cmp	r3, #12
 167 0054 02D1     		bne	.L6
 168              		.loc 2 85 0
 169 0056 0198     		ldr	r0, [sp, #4]
 170 0058 FFF7FEFF 		bl	chSchReadyI
 171              	.L6:
 172              		.loc 2 86 0
 173 005c 0A20     		movs	r0, #10
 174 005e FFF7FEFF 		bl	chSchGoSleepS
 175              		.loc 2 87 0
 176 0062 039B     		ldr	r3, [sp, #12]
 177 0064 9B6A     		ldr	r3, [r3, #40]
 178 0066 0093     		str	r3, [sp]
 179              		.loc 2 88 0
 180 0068 FFF7FEFF 		bl	dbg_check_unlock
 181              	.LBB3:
 182 006c 0023     		movs	r3, #0
 183              	@ 88 "../..//os/kernel/src/chmsg.c" 1
 184 006e 83F31188 		msr     BASEPRI, r3
 185              	@ 0 "" 2
 186              		.thumb
 187              	.LBE3:
 188              		.loc 2 89 0
 189 0072 009B     		ldr	r3, [sp]
 190              		.loc 2 90 0
 191 0074 1846     		mov	r0, r3
 192 0076 05B0     		add	sp, sp, #20
 193              		@ sp needed
 194 0078 5DF804FB 		ldr	pc, [sp], #4
 195              		.cfi_endproc
 196              	.LFE7:
 197              		.size	chMsgSend, .-chMsgSend
 198 007c AFF30080 		.section	.text.chMsgWait,"ax",%progbits
 199              		.align	2
 200              		.p2align 4,,15
 201              		.global	chMsgWait
 202              		.thumb
 203              		.thumb_func
 204              		.type	chMsgWait, %function
 205              	chMsgWait:
 206              	.LFB8:
 207              		.loc 2 106 0
 208              		.cfi_startproc
 209              		@ args = 0, pretend = 0, frame = 8
 210              		@ frame_needed = 0, uses_anonymous_args = 0
 211 0000 00B5     		push	{lr}
 212              		.cfi_def_cfa_offset 4
 213              		.cfi_offset 14, -4
 214 0002 83B0     		sub	sp, sp, #12
 215              		.cfi_def_cfa_offset 16
 216              	.LBB4:
 217              		.loc 2 109 0
 218 0004 2023     		movs	r3, #32
 219              	@ 109 "../..//os/kernel/src/chmsg.c" 1
 220 0006 83F31188 		msr     BASEPRI, r3
 221              	@ 0 "" 2
ARM GAS  /tmp/ccIsfVgg.s 			page 5


 222              		.thumb
 223              	.LBE4:
 224 000a FFF7FEFF 		bl	dbg_check_lock
 225              		.loc 2 110 0
 226 000e 40F20003 		movw	r3, #:lower16:rlist
 227 0012 C0F20003 		movt	r3, #:upper16:rlist
 228 0016 9B69     		ldr	r3, [r3, #24]
 229 0018 1A6B     		ldr	r2, [r3, #48]
 230 001a 40F20003 		movw	r3, #:lower16:rlist
 231 001e C0F20003 		movt	r3, #:upper16:rlist
 232 0022 9B69     		ldr	r3, [r3, #24]
 233 0024 3033     		adds	r3, r3, #48
 234 0026 9A42     		cmp	r2, r3
 235 0028 02D1     		bne	.L9
 236              		.loc 2 111 0
 237 002a 0C20     		movs	r0, #12
 238 002c FFF7FEFF 		bl	chSchGoSleepS
 239              	.L9:
 240              		.loc 2 112 0
 241 0030 40F20003 		movw	r3, #:lower16:rlist
 242 0034 C0F20003 		movt	r3, #:upper16:rlist
 243 0038 9B69     		ldr	r3, [r3, #24]
 244 003a 3033     		adds	r3, r3, #48
 245 003c 1846     		mov	r0, r3
 246 003e FFF7FEFF 		bl	fifo_remove
 247 0042 0190     		str	r0, [sp, #4]
 248              		.loc 2 113 0
 249 0044 019B     		ldr	r3, [sp, #4]
 250 0046 0B22     		movs	r2, #11
 251 0048 83F82020 		strb	r2, [r3, #32]
 252              		.loc 2 114 0
 253 004c FFF7FEFF 		bl	dbg_check_unlock
 254              	.LBB5:
 255 0050 0023     		movs	r3, #0
 256              	@ 114 "../..//os/kernel/src/chmsg.c" 1
 257 0052 83F31188 		msr     BASEPRI, r3
 258              	@ 0 "" 2
 259              		.thumb
 260              	.LBE5:
 261              		.loc 2 115 0
 262 0056 019B     		ldr	r3, [sp, #4]
 263              		.loc 2 116 0
 264 0058 1846     		mov	r0, r3
 265 005a 03B0     		add	sp, sp, #12
 266              		@ sp needed
 267 005c 5DF804FB 		ldr	pc, [sp], #4
 268              		.cfi_endproc
 269              	.LFE8:
 270              		.size	chMsgWait, .-chMsgWait
 271              		.section	.rodata
 272 000e 0000     		.align	2
 273              	.LC1:
 274 0010 63684D73 		.ascii	"chMsgRelease(), #1\000"
 274      6752656C 
 274      65617365 
 274      28292C20 
 274      233100
ARM GAS  /tmp/ccIsfVgg.s 			page 6


 275 0023 00       		.section	.text.chMsgRelease,"ax",%progbits
 276              		.align	2
 277              		.p2align 4,,15
 278              		.global	chMsgRelease
 279              		.thumb
 280              		.thumb_func
 281              		.type	chMsgRelease, %function
 282              	chMsgRelease:
 283              	.LFB9:
 284              		.loc 2 128 0
 285              		.cfi_startproc
 286              		@ args = 0, pretend = 0, frame = 8
 287              		@ frame_needed = 0, uses_anonymous_args = 0
 288 0000 00B5     		push	{lr}
 289              		.cfi_def_cfa_offset 4
 290              		.cfi_offset 14, -4
 291 0002 83B0     		sub	sp, sp, #12
 292              		.cfi_def_cfa_offset 16
 293 0004 0190     		str	r0, [sp, #4]
 294 0006 0091     		str	r1, [sp]
 295              	.LBB6:
 296              		.loc 2 130 0
 297 0008 2023     		movs	r3, #32
 298              	@ 130 "../..//os/kernel/src/chmsg.c" 1
 299 000a 83F31188 		msr     BASEPRI, r3
 300              	@ 0 "" 2
 301              		.thumb
 302              	.LBE6:
 303 000e FFF7FEFF 		bl	dbg_check_lock
 304              		.loc 2 131 0
 305 0012 019B     		ldr	r3, [sp, #4]
 306 0014 93F82030 		ldrb	r3, [r3, #32]	@ zero_extendqisi2
 307 0018 0B2B     		cmp	r3, #11
 308 001a 05D0     		beq	.L12
 309              		.loc 2 131 0 is_stmt 0 discriminator 1
 310 001c 40F20000 		movw	r0, #:lower16:.LC1
 311 0020 C0F20000 		movt	r0, #:upper16:.LC1
 312 0024 FFF7FEFF 		bl	chDbgPanic
 313              	.L12:
 314              		.loc 2 133 0 is_stmt 1
 315 0028 0198     		ldr	r0, [sp, #4]
 316 002a 0099     		ldr	r1, [sp]
 317 002c FFF7FEFF 		bl	chSchWakeupS
 318              		.loc 2 134 0
 319 0030 FFF7FEFF 		bl	dbg_check_unlock
 320              	.LBB7:
 321 0034 0023     		movs	r3, #0
 322              	@ 134 "../..//os/kernel/src/chmsg.c" 1
 323 0036 83F31188 		msr     BASEPRI, r3
 324              	@ 0 "" 2
 325              		.thumb
 326              	.LBE7:
 327              		.loc 2 135 0
 328 003a 03B0     		add	sp, sp, #12
 329              		@ sp needed
 330 003c 5DF804FB 		ldr	pc, [sp], #4
 331              		.cfi_endproc
ARM GAS  /tmp/ccIsfVgg.s 			page 7


 332              	.LFE9:
 333              		.size	chMsgRelease, .-chMsgRelease
 334              		.text
 335              	.Letext0:
 336              		.file 3 "/usr/arm-none-eabi/include/machine/_default_types.h"
 337              		.file 4 "/usr/arm-none-eabi/include/stdint.h"
 338              		.file 5 "../..//os/ports/GCC/ARMCMx/chtypes.h"
 339              		.file 6 "../..//os/kernel/include/chlists.h"
 340              		.file 7 "../..//os/kernel/include/chthreads.h"
 341              		.file 8 "../..//os/ports/GCC/ARMCMx/chcore_v7m.h"
 342              		.file 9 "../..//os/kernel/include/chschd.h"
 343              		.file 10 "../..//os/kernel/include/chmtx.h"