ARM GAS  /tmp/cctvxLjo.s 			page 1


   1              		.syntax unified
   2              		.cpu cortex-m4
   3              		.fpu softvfp
   4              		.eabi_attribute 20, 1
   5              		.eabi_attribute 21, 1
   6              		.eabi_attribute 23, 3
   7              		.eabi_attribute 24, 1
   8              		.eabi_attribute 25, 1
   9              		.eabi_attribute 26, 1
  10              		.eabi_attribute 30, 6
  11              		.eabi_attribute 34, 1
  12              		.eabi_attribute 18, 4
  13              		.thumb
  14              		.file	"chqueues.c"
  15              		.text
  16              	.Ltext0:
  17              		.cfi_sections	.debug_frame
  18              		.section	.text.queue_insert,"ax",%progbits
  19              		.align	2
  20              		.p2align 4,,15
  21              		.thumb
  22              		.thumb_func
  23              		.type	queue_insert, %function
  24              	queue_insert:
  25              	.LFB1:
  26              		.file 1 "../..//os/kernel/include/chinline.h"
  27              		.loc 1 52 0
  28              		.cfi_startproc
  29              		@ args = 0, pretend = 0, frame = 8
  30              		@ frame_needed = 0, uses_anonymous_args = 0
  31              		@ link register save eliminated.
  32 0000 82B0     		sub	sp, sp, #8
  33              		.cfi_def_cfa_offset 8
  34 0002 0190     		str	r0, [sp, #4]
  35 0004 0091     		str	r1, [sp]
  36              		.loc 1 54 0
  37 0006 019B     		ldr	r3, [sp, #4]
  38 0008 009A     		ldr	r2, [sp]
  39 000a 1A60     		str	r2, [r3]
  40              		.loc 1 55 0
  41 000c 009B     		ldr	r3, [sp]
  42 000e 5A68     		ldr	r2, [r3, #4]
  43 0010 019B     		ldr	r3, [sp, #4]
  44 0012 5A60     		str	r2, [r3, #4]
  45              		.loc 1 56 0
  46 0014 019B     		ldr	r3, [sp, #4]
  47 0016 5B68     		ldr	r3, [r3, #4]
  48 0018 009A     		ldr	r2, [sp]
  49 001a 0199     		ldr	r1, [sp, #4]
  50 001c 5160     		str	r1, [r2, #4]
  51 001e 009A     		ldr	r2, [sp]
  52 0020 5268     		ldr	r2, [r2, #4]
  53 0022 1A60     		str	r2, [r3]
  54              		.loc 1 57 0
  55 0024 02B0     		add	sp, sp, #8
  56              		@ sp needed
  57 0026 7047     		bx	lr
ARM GAS  /tmp/cctvxLjo.s 			page 2


  58              		.cfi_endproc
  59              	.LFE1:
  60              		.size	queue_insert, .-queue_insert
  61 0028 AFF30080 		.section	.text.fifo_remove,"ax",%progbits
  61      AFF30080 
  62              		.align	2
  63              		.p2align 4,,15
  64              		.thumb
  65              		.thumb_func
  66              		.type	fifo_remove, %function
  67              	fifo_remove:
  68              	.LFB2:
  69              		.loc 1 59 0
  70              		.cfi_startproc
  71              		@ args = 0, pretend = 0, frame = 16
  72              		@ frame_needed = 0, uses_anonymous_args = 0
  73              		@ link register save eliminated.
  74 0000 84B0     		sub	sp, sp, #16
  75              		.cfi_def_cfa_offset 16
  76 0002 0190     		str	r0, [sp, #4]
  77              		.loc 1 60 0
  78 0004 019B     		ldr	r3, [sp, #4]
  79 0006 1B68     		ldr	r3, [r3]
  80 0008 0393     		str	r3, [sp, #12]
  81              		.loc 1 62 0
  82 000a 039B     		ldr	r3, [sp, #12]
  83 000c 1A68     		ldr	r2, [r3]
  84 000e 019B     		ldr	r3, [sp, #4]
  85 0010 1A60     		str	r2, [r3]
  86 0012 019B     		ldr	r3, [sp, #4]
  87 0014 1B68     		ldr	r3, [r3]
  88 0016 019A     		ldr	r2, [sp, #4]
  89 0018 5A60     		str	r2, [r3, #4]
  90              		.loc 1 63 0
  91 001a 039B     		ldr	r3, [sp, #12]
  92              		.loc 1 64 0
  93 001c 1846     		mov	r0, r3
  94 001e 04B0     		add	sp, sp, #16
  95              		@ sp needed
  96 0020 7047     		bx	lr
  97              		.cfi_endproc
  98              	.LFE2:
  99              		.size	fifo_remove, .-fifo_remove
 100 0022 00BFAFF3 		.section	.text.qwait,"ax",%progbits
 100      0080AFF3 
 100      0080AFF3 
 100      0080
 101              		.align	2
 102              		.p2align 4,,15
 103              		.thumb
 104              		.thumb_func
 105              		.type	qwait, %function
 106              	qwait:
 107              	.LFB7:
 108              		.file 2 "../..//os/kernel/src/chqueues.c"
 109              		.loc 2 70 0
 110              		.cfi_startproc
ARM GAS  /tmp/cctvxLjo.s 			page 3


 111              		@ args = 0, pretend = 0, frame = 8
 112              		@ frame_needed = 0, uses_anonymous_args = 0
 113 0000 00B5     		push	{lr}
 114              		.cfi_def_cfa_offset 4
 115              		.cfi_offset 14, -4
 116 0002 83B0     		sub	sp, sp, #12
 117              		.cfi_def_cfa_offset 16
 118 0004 0190     		str	r0, [sp, #4]
 119 0006 0091     		str	r1, [sp]
 120              		.loc 2 72 0
 121 0008 009B     		ldr	r3, [sp]
 122 000a 002B     		cmp	r3, #0
 123 000c 02D1     		bne	.L5
 124              		.loc 2 73 0
 125 000e 4FF0FF33 		mov	r3, #-1
 126 0012 15E0     		b	.L6
 127              	.L5:
 128              		.loc 2 74 0
 129 0014 40F20003 		movw	r3, #:lower16:rlist
 130 0018 C0F20003 		movt	r3, #:upper16:rlist
 131 001c 9B69     		ldr	r3, [r3, #24]
 132 001e 019A     		ldr	r2, [sp, #4]
 133 0020 9A62     		str	r2, [r3, #40]
 134              		.loc 2 75 0
 135 0022 40F20003 		movw	r3, #:lower16:rlist
 136 0026 C0F20003 		movt	r3, #:upper16:rlist
 137 002a 9A69     		ldr	r2, [r3, #24]
 138 002c 019B     		ldr	r3, [sp, #4]
 139 002e 1046     		mov	r0, r2
 140 0030 1946     		mov	r1, r3
 141 0032 FFF7FEFF 		bl	queue_insert
 142              		.loc 2 76 0
 143 0036 0D20     		movs	r0, #13
 144 0038 0099     		ldr	r1, [sp]
 145 003a FFF7FEFF 		bl	chSchGoSleepTimeoutS
 146 003e 0346     		mov	r3, r0
 147              	.L6:
 148              		.loc 2 77 0
 149 0040 1846     		mov	r0, r3
 150 0042 03B0     		add	sp, sp, #12
 151              		@ sp needed
 152 0044 5DF804FB 		ldr	pc, [sp], #4
 153              		.cfi_endproc
 154              	.LFE7:
 155              		.size	qwait, .-qwait
 156 0048 AFF30080 		.section	.text.chIQInit,"ax",%progbits
 156      AFF30080 
 157              		.align	2
 158              		.p2align 4,,15
 159              		.global	chIQInit
 160              		.thumb
 161              		.thumb_func
 162              		.type	chIQInit, %function
 163              	chIQInit:
 164              	.LFB8:
 165              		.loc 2 96 0
 166              		.cfi_startproc
ARM GAS  /tmp/cctvxLjo.s 			page 4


 167              		@ args = 4, pretend = 0, frame = 16
 168              		@ frame_needed = 0, uses_anonymous_args = 0
 169              		@ link register save eliminated.
 170 0000 84B0     		sub	sp, sp, #16
 171              		.cfi_def_cfa_offset 16
 172 0002 0390     		str	r0, [sp, #12]
 173 0004 0291     		str	r1, [sp, #8]
 174 0006 0192     		str	r2, [sp, #4]
 175 0008 0093     		str	r3, [sp]
 176              		.loc 2 98 0
 177 000a 039A     		ldr	r2, [sp, #12]
 178 000c 039B     		ldr	r3, [sp, #12]
 179 000e 5A60     		str	r2, [r3, #4]
 180 0010 039B     		ldr	r3, [sp, #12]
 181 0012 5A68     		ldr	r2, [r3, #4]
 182 0014 039B     		ldr	r3, [sp, #12]
 183 0016 1A60     		str	r2, [r3]
 184              		.loc 2 99 0
 185 0018 039B     		ldr	r3, [sp, #12]
 186 001a 0022     		movs	r2, #0
 187 001c 9A60     		str	r2, [r3, #8]
 188              		.loc 2 100 0
 189 001e 039B     		ldr	r3, [sp, #12]
 190 0020 029A     		ldr	r2, [sp, #8]
 191 0022 5A61     		str	r2, [r3, #20]
 192 0024 039B     		ldr	r3, [sp, #12]
 193 0026 5A69     		ldr	r2, [r3, #20]
 194 0028 039B     		ldr	r3, [sp, #12]
 195 002a 9A61     		str	r2, [r3, #24]
 196 002c 039B     		ldr	r3, [sp, #12]
 197 002e 9A69     		ldr	r2, [r3, #24]
 198 0030 039B     		ldr	r3, [sp, #12]
 199 0032 DA60     		str	r2, [r3, #12]
 200              		.loc 2 101 0
 201 0034 029A     		ldr	r2, [sp, #8]
 202 0036 019B     		ldr	r3, [sp, #4]
 203 0038 1A44     		add	r2, r2, r3
 204 003a 039B     		ldr	r3, [sp, #12]
 205 003c 1A61     		str	r2, [r3, #16]
 206              		.loc 2 102 0
 207 003e 039B     		ldr	r3, [sp, #12]
 208 0040 009A     		ldr	r2, [sp]
 209 0042 DA61     		str	r2, [r3, #28]
 210              		.loc 2 103 0
 211 0044 039B     		ldr	r3, [sp, #12]
 212 0046 049A     		ldr	r2, [sp, #16]
 213 0048 1A62     		str	r2, [r3, #32]
 214              		.loc 2 104 0
 215 004a 04B0     		add	sp, sp, #16
 216              		@ sp needed
 217 004c 7047     		bx	lr
 218              		.cfi_endproc
 219              	.LFE8:
 220              		.size	chIQInit, .-chIQInit
 221 004e 00BF     		.section	.text.chIQResetI,"ax",%progbits
 222              		.align	2
 223              		.p2align 4,,15
ARM GAS  /tmp/cctvxLjo.s 			page 5


 224              		.global	chIQResetI
 225              		.thumb
 226              		.thumb_func
 227              		.type	chIQResetI, %function
 228              	chIQResetI:
 229              	.LFB9:
 230              		.loc 2 117 0
 231              		.cfi_startproc
 232              		@ args = 0, pretend = 0, frame = 8
 233              		@ frame_needed = 0, uses_anonymous_args = 0
 234 0000 00B5     		push	{lr}
 235              		.cfi_def_cfa_offset 4
 236              		.cfi_offset 14, -4
 237 0002 83B0     		sub	sp, sp, #12
 238              		.cfi_def_cfa_offset 16
 239 0004 0190     		str	r0, [sp, #4]
 240              		.loc 2 119 0
 241 0006 FFF7FEFF 		bl	chDbgCheckClassI
 242              		.loc 2 121 0
 243 000a 019B     		ldr	r3, [sp, #4]
 244 000c DA68     		ldr	r2, [r3, #12]
 245 000e 019B     		ldr	r3, [sp, #4]
 246 0010 5A61     		str	r2, [r3, #20]
 247 0012 019B     		ldr	r3, [sp, #4]
 248 0014 5A69     		ldr	r2, [r3, #20]
 249 0016 019B     		ldr	r3, [sp, #4]
 250 0018 9A61     		str	r2, [r3, #24]
 251              		.loc 2 122 0
 252 001a 019B     		ldr	r3, [sp, #4]
 253 001c 0022     		movs	r2, #0
 254 001e 9A60     		str	r2, [r3, #8]
 255              		.loc 2 123 0
 256 0020 0BE0     		b	.L9
 257              	.L10:
 258              		.loc 2 124 0
 259 0022 019B     		ldr	r3, [sp, #4]
 260 0024 1846     		mov	r0, r3
 261 0026 FFF7FEFF 		bl	fifo_remove
 262 002a 0346     		mov	r3, r0
 263 002c 1846     		mov	r0, r3
 264 002e FFF7FEFF 		bl	chSchReadyI
 265 0032 0346     		mov	r3, r0
 266 0034 6FF00102 		mvn	r2, #1
 267 0038 9A62     		str	r2, [r3, #40]
 268              	.L9:
 269              		.loc 2 123 0 discriminator 1
 270 003a 019B     		ldr	r3, [sp, #4]
 271 003c 1A68     		ldr	r2, [r3]
 272 003e 019B     		ldr	r3, [sp, #4]
 273 0040 9A42     		cmp	r2, r3
 274 0042 EED1     		bne	.L10
 275              		.loc 2 125 0
 276 0044 03B0     		add	sp, sp, #12
 277              		@ sp needed
 278 0046 5DF804FB 		ldr	pc, [sp], #4
 279              		.cfi_endproc
 280              	.LFE9:
ARM GAS  /tmp/cctvxLjo.s 			page 6


 281              		.size	chIQResetI, .-chIQResetI
 282 004a 00BFAFF3 		.section	.text.chIQPutI,"ax",%progbits
 282      0080
 283              		.align	2
 284              		.p2align 4,,15
 285              		.global	chIQPutI
 286              		.thumb
 287              		.thumb_func
 288              		.type	chIQPutI, %function
 289              	chIQPutI:
 290              	.LFB10:
 291              		.loc 2 140 0
 292              		.cfi_startproc
 293              		@ args = 0, pretend = 0, frame = 8
 294              		@ frame_needed = 0, uses_anonymous_args = 0
 295 0000 00B5     		push	{lr}
 296              		.cfi_def_cfa_offset 4
 297              		.cfi_offset 14, -4
 298 0002 83B0     		sub	sp, sp, #12
 299              		.cfi_def_cfa_offset 16
 300 0004 0190     		str	r0, [sp, #4]
 301 0006 0B46     		mov	r3, r1
 302 0008 8DF80330 		strb	r3, [sp, #3]
 303              		.loc 2 142 0
 304 000c FFF7FEFF 		bl	chDbgCheckClassI
 305              		.loc 2 144 0
 306 0010 019B     		ldr	r3, [sp, #4]
 307 0012 5A69     		ldr	r2, [r3, #20]
 308 0014 019B     		ldr	r3, [sp, #4]
 309 0016 9B69     		ldr	r3, [r3, #24]
 310 0018 9A42     		cmp	r2, r3
 311 001a 05D1     		bne	.L12
 312              		.loc 2 144 0 is_stmt 0 discriminator 1
 313 001c 019B     		ldr	r3, [sp, #4]
 314 001e 9B68     		ldr	r3, [r3, #8]
 315 0020 002B     		cmp	r3, #0
 316 0022 01D0     		beq	.L12
 317              		.loc 2 144 0 discriminator 3
 318 0024 0123     		movs	r3, #1
 319 0026 00E0     		b	.L13
 320              	.L12:
 321              		.loc 2 144 0 discriminator 2
 322 0028 0023     		movs	r3, #0
 323              	.L13:
 324              		.loc 2 144 0 discriminator 4
 325 002a 03F00103 		and	r3, r3, #1
 326 002e DBB2     		uxtb	r3, r3
 327 0030 002B     		cmp	r3, #0
 328 0032 02D0     		beq	.L14
 329              		.loc 2 145 0 is_stmt 1
 330 0034 6FF00303 		mvn	r3, #3
 331 0038 27E0     		b	.L15
 332              	.L14:
 333              		.loc 2 147 0
 334 003a 019B     		ldr	r3, [sp, #4]
 335 003c 9B68     		ldr	r3, [r3, #8]
 336 003e 5A1C     		adds	r2, r3, #1
ARM GAS  /tmp/cctvxLjo.s 			page 7


 337 0040 019B     		ldr	r3, [sp, #4]
 338 0042 9A60     		str	r2, [r3, #8]
 339              		.loc 2 148 0
 340 0044 019B     		ldr	r3, [sp, #4]
 341 0046 5B69     		ldr	r3, [r3, #20]
 342 0048 591C     		adds	r1, r3, #1
 343 004a 019A     		ldr	r2, [sp, #4]
 344 004c 5161     		str	r1, [r2, #20]
 345 004e 9DF80320 		ldrb	r2, [sp, #3]
 346 0052 1A70     		strb	r2, [r3]
 347              		.loc 2 149 0
 348 0054 019B     		ldr	r3, [sp, #4]
 349 0056 5A69     		ldr	r2, [r3, #20]
 350 0058 019B     		ldr	r3, [sp, #4]
 351 005a 1B69     		ldr	r3, [r3, #16]
 352 005c 9A42     		cmp	r2, r3
 353 005e 03D3     		bcc	.L16
 354              		.loc 2 150 0
 355 0060 019B     		ldr	r3, [sp, #4]
 356 0062 DA68     		ldr	r2, [r3, #12]
 357 0064 019B     		ldr	r3, [sp, #4]
 358 0066 5A61     		str	r2, [r3, #20]
 359              	.L16:
 360              		.loc 2 152 0
 361 0068 019B     		ldr	r3, [sp, #4]
 362 006a 1A68     		ldr	r2, [r3]
 363 006c 019B     		ldr	r3, [sp, #4]
 364 006e 9A42     		cmp	r2, r3
 365 0070 0AD0     		beq	.L17
 366              		.loc 2 153 0
 367 0072 019B     		ldr	r3, [sp, #4]
 368 0074 1846     		mov	r0, r3
 369 0076 FFF7FEFF 		bl	fifo_remove
 370 007a 0346     		mov	r3, r0
 371 007c 1846     		mov	r0, r3
 372 007e FFF7FEFF 		bl	chSchReadyI
 373 0082 0346     		mov	r3, r0
 374 0084 0022     		movs	r2, #0
 375 0086 9A62     		str	r2, [r3, #40]
 376              	.L17:
 377              		.loc 2 155 0
 378 0088 0023     		movs	r3, #0
 379              	.L15:
 380              		.loc 2 156 0
 381 008a 1846     		mov	r0, r3
 382 008c 03B0     		add	sp, sp, #12
 383              		@ sp needed
 384 008e 5DF804FB 		ldr	pc, [sp], #4
 385              		.cfi_endproc
 386              	.LFE10:
 387              		.size	chIQPutI, .-chIQPutI
 388 0092 00BFAFF3 		.section	.text.chIQGetTimeout,"ax",%progbits
 388      0080AFF3 
 388      0080AFF3 
 388      0080
 389              		.align	2
 390              		.p2align 4,,15
ARM GAS  /tmp/cctvxLjo.s 			page 8


 391              		.global	chIQGetTimeout
 392              		.thumb
 393              		.thumb_func
 394              		.type	chIQGetTimeout, %function
 395              	chIQGetTimeout:
 396              	.LFB11:
 397              		.loc 2 178 0
 398              		.cfi_startproc
 399              		@ args = 0, pretend = 0, frame = 16
 400              		@ frame_needed = 0, uses_anonymous_args = 0
 401 0000 00B5     		push	{lr}
 402              		.cfi_def_cfa_offset 4
 403              		.cfi_offset 14, -4
 404 0002 85B0     		sub	sp, sp, #20
 405              		.cfi_def_cfa_offset 24
 406 0004 0190     		str	r0, [sp, #4]
 407 0006 0091     		str	r1, [sp]
 408              	.LBB2:
 409              		.loc 2 181 0
 410 0008 2023     		movs	r3, #32
 411              	@ 181 "../..//os/kernel/src/chqueues.c" 1
 412 000a 83F31188 		msr     BASEPRI, r3
 413              	@ 0 "" 2
 414              		.thumb
 415              	.LBE2:
 416 000e FFF7FEFF 		bl	dbg_check_lock
 417              		.loc 2 182 0
 418 0012 019B     		ldr	r3, [sp, #4]
 419 0014 DB69     		ldr	r3, [r3, #28]
 420 0016 002B     		cmp	r3, #0
 421 0018 04D0     		beq	.L19
 422              		.loc 2 183 0
 423 001a 019B     		ldr	r3, [sp, #4]
 424 001c DB69     		ldr	r3, [r3, #28]
 425 001e 0198     		ldr	r0, [sp, #4]
 426 0020 9847     		blx	r3
 427              		.loc 2 185 0
 428 0022 0FE0     		b	.L20
 429              	.L19:
 430 0024 0EE0     		b	.L20
 431              	.L22:
 432              	.LBB3:
 433              		.loc 2 187 0
 434 0026 0198     		ldr	r0, [sp, #4]
 435 0028 0099     		ldr	r1, [sp]
 436 002a FFF7FEFF 		bl	qwait
 437 002e 0390     		str	r0, [sp, #12]
 438 0030 039B     		ldr	r3, [sp, #12]
 439 0032 002B     		cmp	r3, #0
 440 0034 06DA     		bge	.L20
 441              		.loc 2 188 0
 442 0036 FFF7FEFF 		bl	dbg_check_unlock
 443              	.LBB4:
 444 003a 0023     		movs	r3, #0
 445              	@ 188 "../..//os/kernel/src/chqueues.c" 1
 446 003c 83F31188 		msr     BASEPRI, r3
 447              	@ 0 "" 2
ARM GAS  /tmp/cctvxLjo.s 			page 9


 448              		.thumb
 449              	.LBE4:
 450              		.loc 2 189 0
 451 0040 039B     		ldr	r3, [sp, #12]
 452 0042 21E0     		b	.L21
 453              	.L20:
 454              	.LBE3:
 455              		.loc 2 185 0 discriminator 1
 456 0044 019B     		ldr	r3, [sp, #4]
 457 0046 9B68     		ldr	r3, [r3, #8]
 458 0048 002B     		cmp	r3, #0
 459 004a ECD0     		beq	.L22
 460              		.loc 2 193 0
 461 004c 019B     		ldr	r3, [sp, #4]
 462 004e 9B68     		ldr	r3, [r3, #8]
 463 0050 5A1E     		subs	r2, r3, #1
 464 0052 019B     		ldr	r3, [sp, #4]
 465 0054 9A60     		str	r2, [r3, #8]
 466              		.loc 2 194 0
 467 0056 019B     		ldr	r3, [sp, #4]
 468 0058 9B69     		ldr	r3, [r3, #24]
 469 005a 591C     		adds	r1, r3, #1
 470 005c 019A     		ldr	r2, [sp, #4]
 471 005e 9161     		str	r1, [r2, #24]
 472 0060 1B78     		ldrb	r3, [r3]
 473 0062 8DF80B30 		strb	r3, [sp, #11]
 474              		.loc 2 195 0
 475 0066 019B     		ldr	r3, [sp, #4]
 476 0068 9A69     		ldr	r2, [r3, #24]
 477 006a 019B     		ldr	r3, [sp, #4]
 478 006c 1B69     		ldr	r3, [r3, #16]
 479 006e 9A42     		cmp	r2, r3
 480 0070 03D3     		bcc	.L23
 481              		.loc 2 196 0
 482 0072 019B     		ldr	r3, [sp, #4]
 483 0074 DA68     		ldr	r2, [r3, #12]
 484 0076 019B     		ldr	r3, [sp, #4]
 485 0078 9A61     		str	r2, [r3, #24]
 486              	.L23:
 487              		.loc 2 198 0
 488 007a FFF7FEFF 		bl	dbg_check_unlock
 489              	.LBB5:
 490 007e 0023     		movs	r3, #0
 491              	@ 198 "../..//os/kernel/src/chqueues.c" 1
 492 0080 83F31188 		msr     BASEPRI, r3
 493              	@ 0 "" 2
 494              		.thumb
 495              	.LBE5:
 496              		.loc 2 199 0
 497 0084 9DF80B30 		ldrb	r3, [sp, #11]	@ zero_extendqisi2
 498              	.L21:
 499              		.loc 2 200 0
 500 0088 1846     		mov	r0, r3
 501 008a 05B0     		add	sp, sp, #20
 502              		@ sp needed
 503 008c 5DF804FB 		ldr	pc, [sp], #4
 504              		.cfi_endproc
ARM GAS  /tmp/cctvxLjo.s 			page 10


 505              	.LFE11:
 506              		.size	chIQGetTimeout, .-chIQGetTimeout
 507              		.section	.rodata
 508              		.align	2
 509              	.LC0:
 510 0000 22636849 		.ascii	"\"chIQReadTimeout\"()\000"
 510      51526561 
 510      6454696D 
 510      656F7574 
 510      22282900 
 511              		.section	.text.chIQReadTimeout,"ax",%progbits
 512              		.align	2
 513              		.p2align 4,,15
 514              		.global	chIQReadTimeout
 515              		.thumb
 516              		.thumb_func
 517              		.type	chIQReadTimeout, %function
 518              	chIQReadTimeout:
 519              	.LFB12:
 520              		.loc 2 227 0
 521              		.cfi_startproc
 522              		@ args = 0, pretend = 0, frame = 24
 523              		@ frame_needed = 0, uses_anonymous_args = 0
 524 0000 00B5     		push	{lr}
 525              		.cfi_def_cfa_offset 4
 526              		.cfi_offset 14, -4
 527 0002 87B0     		sub	sp, sp, #28
 528              		.cfi_def_cfa_offset 32
 529 0004 0390     		str	r0, [sp, #12]
 530 0006 0291     		str	r1, [sp, #8]
 531 0008 0192     		str	r2, [sp, #4]
 532 000a 0093     		str	r3, [sp]
 533              		.loc 2 228 0
 534 000c 039B     		ldr	r3, [sp, #12]
 535 000e DB69     		ldr	r3, [r3, #28]
 536 0010 0493     		str	r3, [sp, #16]
 537              		.loc 2 229 0
 538 0012 0023     		movs	r3, #0
 539 0014 0593     		str	r3, [sp, #20]
 540              		.loc 2 231 0
 541 0016 019B     		ldr	r3, [sp, #4]
 542 0018 002B     		cmp	r3, #0
 543 001a 05D1     		bne	.L25
 544              		.loc 2 231 0 is_stmt 0 discriminator 1
 545 001c 40F20000 		movw	r0, #:lower16:.LC0
 546 0020 C0F20000 		movt	r0, #:upper16:.LC0
 547 0024 FFF7FEFF 		bl	chDbgPanic
 548              	.L25:
 549              	.LBB6:
 550              		.loc 2 233 0 is_stmt 1
 551 0028 2023     		movs	r3, #32
 552              	@ 233 "../..//os/kernel/src/chqueues.c" 1
 553 002a 83F31188 		msr     BASEPRI, r3
 554              	@ 0 "" 2
 555              		.thumb
 556              	.LBE6:
 557 002e FFF7FEFF 		bl	dbg_check_lock
ARM GAS  /tmp/cctvxLjo.s 			page 11


 558              	.L32:
 559              		.loc 2 235 0
 560 0032 049B     		ldr	r3, [sp, #16]
 561 0034 002B     		cmp	r3, #0
 562 0036 03D0     		beq	.L26
 563              		.loc 2 236 0
 564 0038 049B     		ldr	r3, [sp, #16]
 565 003a 0398     		ldr	r0, [sp, #12]
 566 003c 9847     		blx	r3
 567              		.loc 2 238 0
 568 003e 0EE0     		b	.L27
 569              	.L26:
 570 0040 0DE0     		b	.L27
 571              	.L29:
 572              		.loc 2 239 0
 573 0042 0398     		ldr	r0, [sp, #12]
 574 0044 0099     		ldr	r1, [sp]
 575 0046 FFF7FEFF 		bl	qwait
 576 004a 0346     		mov	r3, r0
 577 004c 002B     		cmp	r3, #0
 578 004e 06D0     		beq	.L27
 579              		.loc 2 240 0
 580 0050 FFF7FEFF 		bl	dbg_check_unlock
 581              	.LBB7:
 582 0054 0023     		movs	r3, #0
 583              	@ 240 "../..//os/kernel/src/chqueues.c" 1
 584 0056 83F31188 		msr     BASEPRI, r3
 585              	@ 0 "" 2
 586              		.thumb
 587              	.LBE7:
 588              		.loc 2 241 0
 589 005a 059B     		ldr	r3, [sp, #20]
 590 005c 32E0     		b	.L28
 591              	.L27:
 592              		.loc 2 238 0 discriminator 1
 593 005e 039B     		ldr	r3, [sp, #12]
 594 0060 9B68     		ldr	r3, [r3, #8]
 595 0062 002B     		cmp	r3, #0
 596 0064 EDD0     		beq	.L29
 597              		.loc 2 245 0
 598 0066 039B     		ldr	r3, [sp, #12]
 599 0068 9B68     		ldr	r3, [r3, #8]
 600 006a 5A1E     		subs	r2, r3, #1
 601 006c 039B     		ldr	r3, [sp, #12]
 602 006e 9A60     		str	r2, [r3, #8]
 603              		.loc 2 246 0
 604 0070 029B     		ldr	r3, [sp, #8]
 605 0072 5A1C     		adds	r2, r3, #1
 606 0074 0292     		str	r2, [sp, #8]
 607 0076 039A     		ldr	r2, [sp, #12]
 608 0078 9269     		ldr	r2, [r2, #24]
 609 007a 501C     		adds	r0, r2, #1
 610 007c 0399     		ldr	r1, [sp, #12]
 611 007e 8861     		str	r0, [r1, #24]
 612 0080 1278     		ldrb	r2, [r2]	@ zero_extendqisi2
 613 0082 1A70     		strb	r2, [r3]
 614              		.loc 2 247 0
ARM GAS  /tmp/cctvxLjo.s 			page 12


 615 0084 039B     		ldr	r3, [sp, #12]
 616 0086 9A69     		ldr	r2, [r3, #24]
 617 0088 039B     		ldr	r3, [sp, #12]
 618 008a 1B69     		ldr	r3, [r3, #16]
 619 008c 9A42     		cmp	r2, r3
 620 008e 03D3     		bcc	.L30
 621              		.loc 2 248 0
 622 0090 039B     		ldr	r3, [sp, #12]
 623 0092 DA68     		ldr	r2, [r3, #12]
 624 0094 039B     		ldr	r3, [sp, #12]
 625 0096 9A61     		str	r2, [r3, #24]
 626              	.L30:
 627              		.loc 2 250 0
 628 0098 FFF7FEFF 		bl	dbg_check_unlock
 629              	.LBB8:
 630 009c 0023     		movs	r3, #0
 631              	@ 250 "../..//os/kernel/src/chqueues.c" 1
 632 009e 83F31188 		msr     BASEPRI, r3
 633              	@ 0 "" 2
 634              		.thumb
 635              	.LBE8:
 636              		.loc 2 251 0
 637 00a2 059B     		ldr	r3, [sp, #20]
 638 00a4 0133     		adds	r3, r3, #1
 639 00a6 0593     		str	r3, [sp, #20]
 640              		.loc 2 252 0
 641 00a8 019B     		ldr	r3, [sp, #4]
 642 00aa 013B     		subs	r3, r3, #1
 643 00ac 0193     		str	r3, [sp, #4]
 644 00ae 019B     		ldr	r3, [sp, #4]
 645 00b0 002B     		cmp	r3, #0
 646 00b2 01D1     		bne	.L31
 647              		.loc 2 253 0
 648 00b4 059B     		ldr	r3, [sp, #20]
 649 00b6 05E0     		b	.L28
 650              	.L31:
 651              	.LBB9:
 652              		.loc 2 255 0
 653 00b8 2023     		movs	r3, #32
 654              	@ 255 "../..//os/kernel/src/chqueues.c" 1
 655 00ba 83F31188 		msr     BASEPRI, r3
 656              	@ 0 "" 2
 657              		.thumb
 658              	.LBE9:
 659 00be FFF7FEFF 		bl	dbg_check_lock
 660              		.loc 2 256 0
 661 00c2 B6E7     		b	.L32
 662              	.L28:
 663              		.loc 2 257 0
 664 00c4 1846     		mov	r0, r3
 665 00c6 07B0     		add	sp, sp, #28
 666              		@ sp needed
 667 00c8 5DF804FB 		ldr	pc, [sp], #4
 668              		.cfi_endproc
 669              	.LFE12:
 670              		.size	chIQReadTimeout, .-chIQReadTimeout
 671 00cc AFF30080 		.section	.text.chOQInit,"ax",%progbits
ARM GAS  /tmp/cctvxLjo.s 			page 13


 672              		.align	2
 673              		.p2align 4,,15
 674              		.global	chOQInit
 675              		.thumb
 676              		.thumb_func
 677              		.type	chOQInit, %function
 678              	chOQInit:
 679              	.LFB13:
 680              		.loc 2 276 0
 681              		.cfi_startproc
 682              		@ args = 4, pretend = 0, frame = 16
 683              		@ frame_needed = 0, uses_anonymous_args = 0
 684              		@ link register save eliminated.
 685 0000 84B0     		sub	sp, sp, #16
 686              		.cfi_def_cfa_offset 16
 687 0002 0390     		str	r0, [sp, #12]
 688 0004 0291     		str	r1, [sp, #8]
 689 0006 0192     		str	r2, [sp, #4]
 690 0008 0093     		str	r3, [sp]
 691              		.loc 2 278 0
 692 000a 039A     		ldr	r2, [sp, #12]
 693 000c 039B     		ldr	r3, [sp, #12]
 694 000e 5A60     		str	r2, [r3, #4]
 695 0010 039B     		ldr	r3, [sp, #12]
 696 0012 5A68     		ldr	r2, [r3, #4]
 697 0014 039B     		ldr	r3, [sp, #12]
 698 0016 1A60     		str	r2, [r3]
 699              		.loc 2 279 0
 700 0018 039B     		ldr	r3, [sp, #12]
 701 001a 019A     		ldr	r2, [sp, #4]
 702 001c 9A60     		str	r2, [r3, #8]
 703              		.loc 2 280 0
 704 001e 039B     		ldr	r3, [sp, #12]
 705 0020 029A     		ldr	r2, [sp, #8]
 706 0022 5A61     		str	r2, [r3, #20]
 707 0024 039B     		ldr	r3, [sp, #12]
 708 0026 5A69     		ldr	r2, [r3, #20]
 709 0028 039B     		ldr	r3, [sp, #12]
 710 002a 9A61     		str	r2, [r3, #24]
 711 002c 039B     		ldr	r3, [sp, #12]
 712 002e 9A69     		ldr	r2, [r3, #24]
 713 0030 039B     		ldr	r3, [sp, #12]
 714 0032 DA60     		str	r2, [r3, #12]
 715              		.loc 2 281 0
 716 0034 029A     		ldr	r2, [sp, #8]
 717 0036 019B     		ldr	r3, [sp, #4]
 718 0038 1A44     		add	r2, r2, r3
 719 003a 039B     		ldr	r3, [sp, #12]
 720 003c 1A61     		str	r2, [r3, #16]
 721              		.loc 2 282 0
 722 003e 039B     		ldr	r3, [sp, #12]
 723 0040 009A     		ldr	r2, [sp]
 724 0042 DA61     		str	r2, [r3, #28]
 725              		.loc 2 283 0
 726 0044 039B     		ldr	r3, [sp, #12]
 727 0046 049A     		ldr	r2, [sp, #16]
 728 0048 1A62     		str	r2, [r3, #32]
ARM GAS  /tmp/cctvxLjo.s 			page 14


 729              		.loc 2 284 0
 730 004a 04B0     		add	sp, sp, #16
 731              		@ sp needed
 732 004c 7047     		bx	lr
 733              		.cfi_endproc
 734              	.LFE13:
 735              		.size	chOQInit, .-chOQInit
 736 004e 00BF     		.section	.text.chOQResetI,"ax",%progbits
 737              		.align	2
 738              		.p2align 4,,15
 739              		.global	chOQResetI
 740              		.thumb
 741              		.thumb_func
 742              		.type	chOQResetI, %function
 743              	chOQResetI:
 744              	.LFB14:
 745              		.loc 2 297 0
 746              		.cfi_startproc
 747              		@ args = 0, pretend = 0, frame = 8
 748              		@ frame_needed = 0, uses_anonymous_args = 0
 749 0000 00B5     		push	{lr}
 750              		.cfi_def_cfa_offset 4
 751              		.cfi_offset 14, -4
 752 0002 83B0     		sub	sp, sp, #12
 753              		.cfi_def_cfa_offset 16
 754 0004 0190     		str	r0, [sp, #4]
 755              		.loc 2 299 0
 756 0006 FFF7FEFF 		bl	chDbgCheckClassI
 757              		.loc 2 301 0
 758 000a 019B     		ldr	r3, [sp, #4]
 759 000c DA68     		ldr	r2, [r3, #12]
 760 000e 019B     		ldr	r3, [sp, #4]
 761 0010 5A61     		str	r2, [r3, #20]
 762 0012 019B     		ldr	r3, [sp, #4]
 763 0014 5A69     		ldr	r2, [r3, #20]
 764 0016 019B     		ldr	r3, [sp, #4]
 765 0018 9A61     		str	r2, [r3, #24]
 766              		.loc 2 302 0
 767 001a 019B     		ldr	r3, [sp, #4]
 768 001c 1B69     		ldr	r3, [r3, #16]
 769 001e 1A46     		mov	r2, r3
 770 0020 019B     		ldr	r3, [sp, #4]
 771 0022 DB68     		ldr	r3, [r3, #12]
 772 0024 D31A     		subs	r3, r2, r3
 773 0026 1A46     		mov	r2, r3
 774 0028 019B     		ldr	r3, [sp, #4]
 775 002a 9A60     		str	r2, [r3, #8]
 776              		.loc 2 303 0
 777 002c 0BE0     		b	.L35
 778              	.L36:
 779              		.loc 2 304 0
 780 002e 019B     		ldr	r3, [sp, #4]
 781 0030 1846     		mov	r0, r3
 782 0032 FFF7FEFF 		bl	fifo_remove
 783 0036 0346     		mov	r3, r0
 784 0038 1846     		mov	r0, r3
 785 003a FFF7FEFF 		bl	chSchReadyI
ARM GAS  /tmp/cctvxLjo.s 			page 15


 786 003e 0346     		mov	r3, r0
 787 0040 6FF00102 		mvn	r2, #1
 788 0044 9A62     		str	r2, [r3, #40]
 789              	.L35:
 790              		.loc 2 303 0 discriminator 1
 791 0046 019B     		ldr	r3, [sp, #4]
 792 0048 1A68     		ldr	r2, [r3]
 793 004a 019B     		ldr	r3, [sp, #4]
 794 004c 9A42     		cmp	r2, r3
 795 004e EED1     		bne	.L36
 796              		.loc 2 305 0
 797 0050 03B0     		add	sp, sp, #12
 798              		@ sp needed
 799 0052 5DF804FB 		ldr	pc, [sp], #4
 800              		.cfi_endproc
 801              	.LFE14:
 802              		.size	chOQResetI, .-chOQResetI
 803 0056 00BFAFF3 		.section	.text.chOQPutTimeout,"ax",%progbits
 803      0080AFF3 
 803      0080
 804              		.align	2
 805              		.p2align 4,,15
 806              		.global	chOQPutTimeout
 807              		.thumb
 808              		.thumb_func
 809              		.type	chOQPutTimeout, %function
 810              	chOQPutTimeout:
 811              	.LFB15:
 812              		.loc 2 329 0
 813              		.cfi_startproc
 814              		@ args = 0, pretend = 0, frame = 24
 815              		@ frame_needed = 0, uses_anonymous_args = 0
 816 0000 00B5     		push	{lr}
 817              		.cfi_def_cfa_offset 4
 818              		.cfi_offset 14, -4
 819 0002 87B0     		sub	sp, sp, #28
 820              		.cfi_def_cfa_offset 32
 821 0004 0390     		str	r0, [sp, #12]
 822 0006 0B46     		mov	r3, r1
 823 0008 0192     		str	r2, [sp, #4]
 824 000a 8DF80B30 		strb	r3, [sp, #11]
 825              	.LBB10:
 826              		.loc 2 331 0
 827 000e 2023     		movs	r3, #32
 828              	@ 331 "../..//os/kernel/src/chqueues.c" 1
 829 0010 83F31188 		msr     BASEPRI, r3
 830              	@ 0 "" 2
 831              		.thumb
 832              	.LBE10:
 833 0014 FFF7FEFF 		bl	dbg_check_lock
 834              		.loc 2 332 0
 835 0018 0EE0     		b	.L38
 836              	.L40:
 837              	.LBB11:
 838              		.loc 2 335 0
 839 001a 0398     		ldr	r0, [sp, #12]
 840 001c 0199     		ldr	r1, [sp, #4]
ARM GAS  /tmp/cctvxLjo.s 			page 16


 841 001e FFF7FEFF 		bl	qwait
 842 0022 0590     		str	r0, [sp, #20]
 843 0024 059B     		ldr	r3, [sp, #20]
 844 0026 002B     		cmp	r3, #0
 845 0028 06DA     		bge	.L38
 846              		.loc 2 336 0
 847 002a FFF7FEFF 		bl	dbg_check_unlock
 848              	.LBB12:
 849 002e 0023     		movs	r3, #0
 850              	@ 336 "../..//os/kernel/src/chqueues.c" 1
 851 0030 83F31188 		msr     BASEPRI, r3
 852              	@ 0 "" 2
 853              		.thumb
 854              	.LBE12:
 855              		.loc 2 337 0
 856 0034 059B     		ldr	r3, [sp, #20]
 857 0036 28E0     		b	.L39
 858              	.L38:
 859              	.LBE11:
 860              		.loc 2 332 0 discriminator 1
 861 0038 039B     		ldr	r3, [sp, #12]
 862 003a 9B68     		ldr	r3, [r3, #8]
 863 003c 002B     		cmp	r3, #0
 864 003e ECD0     		beq	.L40
 865              		.loc 2 341 0
 866 0040 039B     		ldr	r3, [sp, #12]
 867 0042 9B68     		ldr	r3, [r3, #8]
 868 0044 5A1E     		subs	r2, r3, #1
 869 0046 039B     		ldr	r3, [sp, #12]
 870 0048 9A60     		str	r2, [r3, #8]
 871              		.loc 2 342 0
 872 004a 039B     		ldr	r3, [sp, #12]
 873 004c 5B69     		ldr	r3, [r3, #20]
 874 004e 591C     		adds	r1, r3, #1
 875 0050 039A     		ldr	r2, [sp, #12]
 876 0052 5161     		str	r1, [r2, #20]
 877 0054 9DF80B20 		ldrb	r2, [sp, #11]
 878 0058 1A70     		strb	r2, [r3]
 879              		.loc 2 343 0
 880 005a 039B     		ldr	r3, [sp, #12]
 881 005c 5A69     		ldr	r2, [r3, #20]
 882 005e 039B     		ldr	r3, [sp, #12]
 883 0060 1B69     		ldr	r3, [r3, #16]
 884 0062 9A42     		cmp	r2, r3
 885 0064 03D3     		bcc	.L41
 886              		.loc 2 344 0
 887 0066 039B     		ldr	r3, [sp, #12]
 888 0068 DA68     		ldr	r2, [r3, #12]
 889 006a 039B     		ldr	r3, [sp, #12]
 890 006c 5A61     		str	r2, [r3, #20]
 891              	.L41:
 892              		.loc 2 346 0
 893 006e 039B     		ldr	r3, [sp, #12]
 894 0070 DB69     		ldr	r3, [r3, #28]
 895 0072 002B     		cmp	r3, #0
 896 0074 03D0     		beq	.L42
 897              		.loc 2 347 0
ARM GAS  /tmp/cctvxLjo.s 			page 17


 898 0076 039B     		ldr	r3, [sp, #12]
 899 0078 DB69     		ldr	r3, [r3, #28]
 900 007a 0398     		ldr	r0, [sp, #12]
 901 007c 9847     		blx	r3
 902              	.L42:
 903              		.loc 2 349 0
 904 007e FFF7FEFF 		bl	dbg_check_unlock
 905              	.LBB13:
 906 0082 0023     		movs	r3, #0
 907              	@ 349 "../..//os/kernel/src/chqueues.c" 1
 908 0084 83F31188 		msr     BASEPRI, r3
 909              	@ 0 "" 2
 910              		.thumb
 911              	.LBE13:
 912              		.loc 2 350 0
 913 0088 0023     		movs	r3, #0
 914              	.L39:
 915              		.loc 2 351 0
 916 008a 1846     		mov	r0, r3
 917 008c 07B0     		add	sp, sp, #28
 918              		@ sp needed
 919 008e 5DF804FB 		ldr	pc, [sp], #4
 920              		.cfi_endproc
 921              	.LFE15:
 922              		.size	chOQPutTimeout, .-chOQPutTimeout
 923 0092 00BFAFF3 		.section	.text.chOQGetI,"ax",%progbits
 923      0080AFF3 
 923      0080AFF3 
 923      0080
 924              		.align	2
 925              		.p2align 4,,15
 926              		.global	chOQGetI
 927              		.thumb
 928              		.thumb_func
 929              		.type	chOQGetI, %function
 930              	chOQGetI:
 931              	.LFB16:
 932              		.loc 2 363 0
 933              		.cfi_startproc
 934              		@ args = 0, pretend = 0, frame = 16
 935              		@ frame_needed = 0, uses_anonymous_args = 0
 936 0000 00B5     		push	{lr}
 937              		.cfi_def_cfa_offset 4
 938              		.cfi_offset 14, -4
 939 0002 85B0     		sub	sp, sp, #20
 940              		.cfi_def_cfa_offset 24
 941 0004 0190     		str	r0, [sp, #4]
 942              		.loc 2 366 0
 943 0006 FFF7FEFF 		bl	chDbgCheckClassI
 944              		.loc 2 368 0
 945 000a 019B     		ldr	r3, [sp, #4]
 946 000c 5A69     		ldr	r2, [r3, #20]
 947 000e 019B     		ldr	r3, [sp, #4]
 948 0010 9B69     		ldr	r3, [r3, #24]
 949 0012 9A42     		cmp	r2, r3
 950 0014 05D1     		bne	.L44
 951              		.loc 2 368 0 is_stmt 0 discriminator 1
ARM GAS  /tmp/cctvxLjo.s 			page 18


 952 0016 019B     		ldr	r3, [sp, #4]
 953 0018 9B68     		ldr	r3, [r3, #8]
 954 001a 002B     		cmp	r3, #0
 955 001c 01D0     		beq	.L44
 956              		.loc 2 368 0 discriminator 3
 957 001e 0123     		movs	r3, #1
 958 0020 00E0     		b	.L45
 959              	.L44:
 960              		.loc 2 368 0 discriminator 2
 961 0022 0023     		movs	r3, #0
 962              	.L45:
 963              		.loc 2 368 0 discriminator 4
 964 0024 03F00103 		and	r3, r3, #1
 965 0028 DBB2     		uxtb	r3, r3
 966 002a 002B     		cmp	r3, #0
 967 002c 02D0     		beq	.L46
 968              		.loc 2 369 0 is_stmt 1
 969 002e 6FF00203 		mvn	r3, #2
 970 0032 28E0     		b	.L47
 971              	.L46:
 972              		.loc 2 371 0
 973 0034 019B     		ldr	r3, [sp, #4]
 974 0036 9B68     		ldr	r3, [r3, #8]
 975 0038 5A1C     		adds	r2, r3, #1
 976 003a 019B     		ldr	r3, [sp, #4]
 977 003c 9A60     		str	r2, [r3, #8]
 978              		.loc 2 372 0
 979 003e 019B     		ldr	r3, [sp, #4]
 980 0040 9B69     		ldr	r3, [r3, #24]
 981 0042 591C     		adds	r1, r3, #1
 982 0044 019A     		ldr	r2, [sp, #4]
 983 0046 9161     		str	r1, [r2, #24]
 984 0048 1B78     		ldrb	r3, [r3]
 985 004a 8DF80F30 		strb	r3, [sp, #15]
 986              		.loc 2 373 0
 987 004e 019B     		ldr	r3, [sp, #4]
 988 0050 9A69     		ldr	r2, [r3, #24]
 989 0052 019B     		ldr	r3, [sp, #4]
 990 0054 1B69     		ldr	r3, [r3, #16]
 991 0056 9A42     		cmp	r2, r3
 992 0058 03D3     		bcc	.L48
 993              		.loc 2 374 0
 994 005a 019B     		ldr	r3, [sp, #4]
 995 005c DA68     		ldr	r2, [r3, #12]
 996 005e 019B     		ldr	r3, [sp, #4]
 997 0060 9A61     		str	r2, [r3, #24]
 998              	.L48:
 999              		.loc 2 376 0
 1000 0062 019B     		ldr	r3, [sp, #4]
 1001 0064 1A68     		ldr	r2, [r3]
 1002 0066 019B     		ldr	r3, [sp, #4]
 1003 0068 9A42     		cmp	r2, r3
 1004 006a 0AD0     		beq	.L49
 1005              		.loc 2 377 0
 1006 006c 019B     		ldr	r3, [sp, #4]
 1007 006e 1846     		mov	r0, r3
 1008 0070 FFF7FEFF 		bl	fifo_remove
ARM GAS  /tmp/cctvxLjo.s 			page 19


 1009 0074 0346     		mov	r3, r0
 1010 0076 1846     		mov	r0, r3
 1011 0078 FFF7FEFF 		bl	chSchReadyI
 1012 007c 0346     		mov	r3, r0
 1013 007e 0022     		movs	r2, #0
 1014 0080 9A62     		str	r2, [r3, #40]
 1015              	.L49:
 1016              		.loc 2 379 0
 1017 0082 9DF80F30 		ldrb	r3, [sp, #15]	@ zero_extendqisi2
 1018              	.L47:
 1019              		.loc 2 380 0
 1020 0086 1846     		mov	r0, r3
 1021 0088 05B0     		add	sp, sp, #20
 1022              		@ sp needed
 1023 008a 5DF804FB 		ldr	pc, [sp], #4
 1024              		.cfi_endproc
 1025              	.LFE16:
 1026              		.size	chOQGetI, .-chOQGetI
 1027 008e 00BF     		.section	.rodata
 1028              		.align	2
 1029              	.LC1:
 1030 0014 2263684F 		.ascii	"\"chOQWriteTimeout\"()\000"
 1030      51577269 
 1030      74655469 
 1030      6D656F75 
 1030      74222829 
 1031 0029 000000   		.section	.text.chOQWriteTimeout,"ax",%progbits
 1032              		.align	2
 1033              		.p2align 4,,15
 1034              		.global	chOQWriteTimeout
 1035              		.thumb
 1036              		.thumb_func
 1037              		.type	chOQWriteTimeout, %function
 1038              	chOQWriteTimeout:
 1039              	.LFB17:
 1040              		.loc 2 407 0
 1041              		.cfi_startproc
 1042              		@ args = 0, pretend = 0, frame = 24
 1043              		@ frame_needed = 0, uses_anonymous_args = 0
 1044 0000 00B5     		push	{lr}
 1045              		.cfi_def_cfa_offset 4
 1046              		.cfi_offset 14, -4
 1047 0002 87B0     		sub	sp, sp, #28
 1048              		.cfi_def_cfa_offset 32
 1049 0004 0390     		str	r0, [sp, #12]
 1050 0006 0291     		str	r1, [sp, #8]
 1051 0008 0192     		str	r2, [sp, #4]
 1052 000a 0093     		str	r3, [sp]
 1053              		.loc 2 408 0
 1054 000c 039B     		ldr	r3, [sp, #12]
 1055 000e DB69     		ldr	r3, [r3, #28]
 1056 0010 0493     		str	r3, [sp, #16]
 1057              		.loc 2 409 0
 1058 0012 0023     		movs	r3, #0
 1059 0014 0593     		str	r3, [sp, #20]
 1060              		.loc 2 411 0
 1061 0016 019B     		ldr	r3, [sp, #4]
ARM GAS  /tmp/cctvxLjo.s 			page 20


 1062 0018 002B     		cmp	r3, #0
 1063 001a 05D1     		bne	.L51
 1064              		.loc 2 411 0 is_stmt 0 discriminator 1
 1065 001c 40F20000 		movw	r0, #:lower16:.LC1
 1066 0020 C0F20000 		movt	r0, #:upper16:.LC1
 1067 0024 FFF7FEFF 		bl	chDbgPanic
 1068              	.L51:
 1069              	.LBB14:
 1070              		.loc 2 413 0 is_stmt 1
 1071 0028 2023     		movs	r3, #32
 1072              	@ 413 "../..//os/kernel/src/chqueues.c" 1
 1073 002a 83F31188 		msr     BASEPRI, r3
 1074              	@ 0 "" 2
 1075              		.thumb
 1076              	.LBE14:
 1077 002e FFF7FEFF 		bl	dbg_check_lock
 1078              		.loc 2 415 0
 1079 0032 0DE0     		b	.L52
 1080              	.L54:
 1081              		.loc 2 416 0
 1082 0034 0398     		ldr	r0, [sp, #12]
 1083 0036 0099     		ldr	r1, [sp]
 1084 0038 FFF7FEFF 		bl	qwait
 1085 003c 0346     		mov	r3, r0
 1086 003e 002B     		cmp	r3, #0
 1087 0040 06D0     		beq	.L52
 1088              		.loc 2 417 0
 1089 0042 FFF7FEFF 		bl	dbg_check_unlock
 1090              	.LBB15:
 1091 0046 0023     		movs	r3, #0
 1092              	@ 417 "../..//os/kernel/src/chqueues.c" 1
 1093 0048 83F31188 		msr     BASEPRI, r3
 1094              	@ 0 "" 2
 1095              		.thumb
 1096              	.LBE15:
 1097              		.loc 2 418 0
 1098 004c 059B     		ldr	r3, [sp, #20]
 1099 004e 39E0     		b	.L53
 1100              	.L52:
 1101              		.loc 2 415 0 discriminator 1
 1102 0050 039B     		ldr	r3, [sp, #12]
 1103 0052 9B68     		ldr	r3, [r3, #8]
 1104 0054 002B     		cmp	r3, #0
 1105 0056 EDD0     		beq	.L54
 1106              		.loc 2 421 0
 1107 0058 039B     		ldr	r3, [sp, #12]
 1108 005a 9B68     		ldr	r3, [r3, #8]
 1109 005c 5A1E     		subs	r2, r3, #1
 1110 005e 039B     		ldr	r3, [sp, #12]
 1111 0060 9A60     		str	r2, [r3, #8]
 1112              		.loc 2 422 0
 1113 0062 039B     		ldr	r3, [sp, #12]
 1114 0064 5B69     		ldr	r3, [r3, #20]
 1115 0066 591C     		adds	r1, r3, #1
 1116 0068 039A     		ldr	r2, [sp, #12]
 1117 006a 5161     		str	r1, [r2, #20]
 1118 006c 029A     		ldr	r2, [sp, #8]
ARM GAS  /tmp/cctvxLjo.s 			page 21


 1119 006e 511C     		adds	r1, r2, #1
 1120 0070 0291     		str	r1, [sp, #8]
 1121 0072 1278     		ldrb	r2, [r2]	@ zero_extendqisi2
 1122 0074 1A70     		strb	r2, [r3]
 1123              		.loc 2 423 0
 1124 0076 039B     		ldr	r3, [sp, #12]
 1125 0078 5A69     		ldr	r2, [r3, #20]
 1126 007a 039B     		ldr	r3, [sp, #12]
 1127 007c 1B69     		ldr	r3, [r3, #16]
 1128 007e 9A42     		cmp	r2, r3
 1129 0080 03D3     		bcc	.L55
 1130              		.loc 2 424 0
 1131 0082 039B     		ldr	r3, [sp, #12]
 1132 0084 DA68     		ldr	r2, [r3, #12]
 1133 0086 039B     		ldr	r3, [sp, #12]
 1134 0088 5A61     		str	r2, [r3, #20]
 1135              	.L55:
 1136              		.loc 2 426 0
 1137 008a 049B     		ldr	r3, [sp, #16]
 1138 008c 002B     		cmp	r3, #0
 1139 008e 02D0     		beq	.L56
 1140              		.loc 2 427 0
 1141 0090 049B     		ldr	r3, [sp, #16]
 1142 0092 0398     		ldr	r0, [sp, #12]
 1143 0094 9847     		blx	r3
 1144              	.L56:
 1145              		.loc 2 429 0
 1146 0096 FFF7FEFF 		bl	dbg_check_unlock
 1147              	.LBB16:
 1148 009a 0023     		movs	r3, #0
 1149              	@ 429 "../..//os/kernel/src/chqueues.c" 1
 1150 009c 83F31188 		msr     BASEPRI, r3
 1151              	@ 0 "" 2
 1152              		.thumb
 1153              	.LBE16:
 1154              		.loc 2 430 0
 1155 00a0 059B     		ldr	r3, [sp, #20]
 1156 00a2 0133     		adds	r3, r3, #1
 1157 00a4 0593     		str	r3, [sp, #20]
 1158              		.loc 2 431 0
 1159 00a6 019B     		ldr	r3, [sp, #4]
 1160 00a8 013B     		subs	r3, r3, #1
 1161 00aa 0193     		str	r3, [sp, #4]
 1162 00ac 019B     		ldr	r3, [sp, #4]
 1163 00ae 002B     		cmp	r3, #0
 1164 00b0 01D1     		bne	.L57
 1165              		.loc 2 432 0
 1166 00b2 059B     		ldr	r3, [sp, #20]
 1167 00b4 06E0     		b	.L53
 1168              	.L57:
 1169              	.LBB17:
 1170              		.loc 2 433 0
 1171 00b6 2023     		movs	r3, #32
 1172              	@ 433 "../..//os/kernel/src/chqueues.c" 1
 1173 00b8 83F31188 		msr     BASEPRI, r3
 1174              	@ 0 "" 2
 1175              		.thumb
ARM GAS  /tmp/cctvxLjo.s 			page 22


 1176              	.LBE17:
 1177 00bc FFF7FEFF 		bl	dbg_check_lock
 1178              		.loc 2 434 0
 1179 00c0 00BF     		nop
 1180              		.loc 2 415 0
 1181 00c2 C5E7     		b	.L52
 1182              	.L53:
 1183              		.loc 2 435 0
 1184 00c4 1846     		mov	r0, r3
 1185 00c6 07B0     		add	sp, sp, #28
 1186              		@ sp needed
 1187 00c8 5DF804FB 		ldr	pc, [sp], #4
 1188              		.cfi_endproc
 1189              	.LFE17:
 1190              		.size	chOQWriteTimeout, .-chOQWriteTimeout
 1191 00cc AFF30080 		.text
 1192              	.Letext0:
 1193              		.file 3 "/usr/lib/gcc/arm-none-eabi/4.8.2/include/stddef.h"
 1194              		.file 4 "/usr/arm-none-eabi/include/machine/_default_types.h"
 1195              		.file 5 "/usr/arm-none-eabi/include/stdint.h"
 1196              		.file 6 "../..//os/ports/GCC/ARMCMx/chtypes.h"
 1197              		.file 7 "../..//os/kernel/include/chlists.h"
 1198              		.file 8 "../..//os/kernel/include/chthreads.h"
 1199              		.file 9 "../..//os/ports/GCC/ARMCMx/chcore_v7m.h"
 1200              		.file 10 "../..//os/kernel/include/chschd.h"
 1201              		.file 11 "../..//os/kernel/include/chmtx.h"
 1202              		.file 12 "../..//os/kernel/include/chqueues.h"