ARM GAS  /tmp/ccaxTi7Q.s 			page 1


   1              		.syntax unified
   2              		.cpu cortex-m4
   3              		.fpu softvfp
   4              		.eabi_attribute 20, 1
   5              		.eabi_attribute 21, 1
   6              		.eabi_attribute 23, 3
   7              		.eabi_attribute 24, 1
   8              		.eabi_attribute 25, 1
   9              		.eabi_attribute 26, 1
  10              		.eabi_attribute 30, 6
  11              		.eabi_attribute 34, 1
  12              		.eabi_attribute 18, 4
  13              		.thumb
  14              		.file	"chregistry.c"
  15              		.text
  16              	.Ltext0:
  17              		.cfi_sections	.debug_frame
  18              		.global	ch_debug
  19              		.section	.rodata.ch_debug,"a",%progbits
  20              		.align	2
  21              		.type	ch_debug, %object
  22              		.size	ch_debug, 22
  23              	ch_debug:
  24 0000 6D61696E 		.ascii	"main"
  25 0004 00       		.byte	0
  26 0005 16       		.byte	22
  27 0006 8311     		.short	4483
  28 0008 04       		.byte	4
  29 0009 04       		.byte	4
  30 000a 4C       		.byte	76
  31 000b 08       		.byte	8
  32 000c 0C       		.byte	12
  33 000d 10       		.byte	16
  34 000e 14       		.byte	20
  35 000f 18       		.byte	24
  36 0010 1C       		.byte	28
  37 0011 20       		.byte	32
  38 0012 21       		.byte	33
  39 0013 22       		.byte	34
  40 0014 23       		.byte	35
  41 0015 24       		.byte	36
  42 0016 0000     		.section	.text.chRegFirstThread,"ax",%progbits
  43              		.align	2
  44              		.p2align 4,,15
  45              		.global	chRegFirstThread
  46              		.thumb
  47              		.thumb_func
  48              		.type	chRegFirstThread, %function
  49              	chRegFirstThread:
  50              	.LFB7:
  51              		.file 1 "../..//os/kernel/src/chregistry.c"
  52              		.loc 1 117 0
  53              		.cfi_startproc
  54              		@ args = 0, pretend = 0, frame = 8
  55              		@ frame_needed = 0, uses_anonymous_args = 0
  56 0000 00B5     		push	{lr}
  57              		.cfi_def_cfa_offset 4
ARM GAS  /tmp/ccaxTi7Q.s 			page 2


  58              		.cfi_offset 14, -4
  59 0002 83B0     		sub	sp, sp, #12
  60              		.cfi_def_cfa_offset 16
  61              	.LBB2:
  62              		.loc 1 120 0
  63 0004 2023     		movs	r3, #32
  64              	@ 120 "../..//os/kernel/src/chregistry.c" 1
  65 0006 83F31188 		msr     BASEPRI, r3
  66              	@ 0 "" 2
  67              		.thumb
  68              	.LBE2:
  69 000a FFF7FEFF 		bl	dbg_check_lock
  70              		.loc 1 121 0
  71 000e 40F20003 		movw	r3, #:lower16:rlist
  72 0012 C0F20003 		movt	r3, #:upper16:rlist
  73 0016 1B69     		ldr	r3, [r3, #16]
  74 0018 0193     		str	r3, [sp, #4]
  75              		.loc 1 123 0
  76 001a 019B     		ldr	r3, [sp, #4]
  77 001c 93F82230 		ldrb	r3, [r3, #34]	@ zero_extendqisi2
  78 0020 0133     		adds	r3, r3, #1
  79 0022 DAB2     		uxtb	r2, r3
  80 0024 019B     		ldr	r3, [sp, #4]
  81 0026 83F82220 		strb	r2, [r3, #34]
  82              		.loc 1 125 0
  83 002a FFF7FEFF 		bl	dbg_check_unlock
  84              	.LBB3:
  85 002e 0023     		movs	r3, #0
  86              	@ 125 "../..//os/kernel/src/chregistry.c" 1
  87 0030 83F31188 		msr     BASEPRI, r3
  88              	@ 0 "" 2
  89              		.thumb
  90              	.LBE3:
  91              		.loc 1 126 0
  92 0034 019B     		ldr	r3, [sp, #4]
  93              		.loc 1 127 0
  94 0036 1846     		mov	r0, r3
  95 0038 03B0     		add	sp, sp, #12
  96              		@ sp needed
  97 003a 5DF804FB 		ldr	pc, [sp], #4
  98              		.cfi_endproc
  99              	.LFE7:
 100              		.size	chRegFirstThread, .-chRegFirstThread
 101 003e 00BF     		.section	.rodata
 102              		.align	2
 103              	.LC0:
 104 0000 63685265 		.ascii	"chRegNextThread(), #1\000"
 104      674E6578 
 104      74546872 
 104      65616428 
 104      292C2023 
 105 0016 0000     		.section	.text.chRegNextThread,"ax",%progbits
 106              		.align	2
 107              		.p2align 4,,15
 108              		.global	chRegNextThread
 109              		.thumb
 110              		.thumb_func
ARM GAS  /tmp/ccaxTi7Q.s 			page 3


 111              		.type	chRegNextThread, %function
 112              	chRegNextThread:
 113              	.LFB8:
 114              		.loc 1 140 0
 115              		.cfi_startproc
 116              		@ args = 0, pretend = 0, frame = 16
 117              		@ frame_needed = 0, uses_anonymous_args = 0
 118 0000 00B5     		push	{lr}
 119              		.cfi_def_cfa_offset 4
 120              		.cfi_offset 14, -4
 121 0002 85B0     		sub	sp, sp, #20
 122              		.cfi_def_cfa_offset 24
 123 0004 0190     		str	r0, [sp, #4]
 124              	.LBB4:
 125              		.loc 1 143 0
 126 0006 2023     		movs	r3, #32
 127              	@ 143 "../..//os/kernel/src/chregistry.c" 1
 128 0008 83F31188 		msr     BASEPRI, r3
 129              	@ 0 "" 2
 130              		.thumb
 131              	.LBE4:
 132 000c FFF7FEFF 		bl	dbg_check_lock
 133              		.loc 1 144 0
 134 0010 019B     		ldr	r3, [sp, #4]
 135 0012 1B69     		ldr	r3, [r3, #16]
 136 0014 0393     		str	r3, [sp, #12]
 137              		.loc 1 145 0
 138 0016 039A     		ldr	r2, [sp, #12]
 139 0018 40F20003 		movw	r3, #:lower16:rlist
 140 001c C0F20003 		movt	r3, #:upper16:rlist
 141 0020 9A42     		cmp	r2, r3
 142 0022 02D1     		bne	.L4
 143              		.loc 1 146 0
 144 0024 0023     		movs	r3, #0
 145 0026 0393     		str	r3, [sp, #12]
 146 0028 12E0     		b	.L5
 147              	.L4:
 148              		.loc 1 149 0
 149 002a 039B     		ldr	r3, [sp, #12]
 150 002c 93F82230 		ldrb	r3, [r3, #34]	@ zero_extendqisi2
 151 0030 FF2B     		cmp	r3, #255
 152 0032 05D1     		bne	.L6
 153              		.loc 1 149 0 is_stmt 0 discriminator 1
 154 0034 40F20000 		movw	r0, #:lower16:.LC0
 155 0038 C0F20000 		movt	r0, #:upper16:.LC0
 156 003c FFF7FEFF 		bl	chDbgPanic
 157              	.L6:
 158              		.loc 1 151 0 is_stmt 1
 159 0040 039B     		ldr	r3, [sp, #12]
 160 0042 93F82230 		ldrb	r3, [r3, #34]	@ zero_extendqisi2
 161 0046 0133     		adds	r3, r3, #1
 162 0048 DAB2     		uxtb	r2, r3
 163 004a 039B     		ldr	r3, [sp, #12]
 164 004c 83F82220 		strb	r2, [r3, #34]
 165              	.L5:
 166              		.loc 1 154 0
 167 0050 FFF7FEFF 		bl	dbg_check_unlock
ARM GAS  /tmp/ccaxTi7Q.s 			page 4


 168              	.LBB5:
 169 0054 0023     		movs	r3, #0
 170              	@ 154 "../..//os/kernel/src/chregistry.c" 1
 171 0056 83F31188 		msr     BASEPRI, r3
 172              	@ 0 "" 2
 173              		.thumb
 174              	.LBE5:
 175              		.loc 1 156 0
 176 005a 0198     		ldr	r0, [sp, #4]
 177 005c FFF7FEFF 		bl	chThdRelease
 178              		.loc 1 158 0
 179 0060 039B     		ldr	r3, [sp, #12]
 180              		.loc 1 159 0
 181 0062 1846     		mov	r0, r3
 182 0064 05B0     		add	sp, sp, #20
 183              		@ sp needed
 184 0066 5DF804FB 		ldr	pc, [sp], #4
 185              		.cfi_endproc
 186              	.LFE8:
 187              		.size	chRegNextThread, .-chRegNextThread
 188 006a 00BFAFF3 		.text
 188      0080
 189              	.Letext0:
 190              		.file 2 "/usr/lib/gcc/arm-none-eabi/4.8.2/include/stddef.h"
 191              		.file 3 "/usr/arm-none-eabi/include/machine/_default_types.h"
 192              		.file 4 "/usr/arm-none-eabi/include/stdint.h"
 193              		.file 5 "../..//os/ports/GCC/ARMCMx/chtypes.h"
 194              		.file 6 "../..//os/kernel/include/chlists.h"
 195              		.file 7 "../..//os/kernel/include/chthreads.h"
 196              		.file 8 "../..//os/ports/GCC/ARMCMx/chcore_v7m.h"
 197              		.file 9 "../..//os/kernel/include/chschd.h"
 198              		.file 10 "../..//os/kernel/include/chmtx.h"
 199              		.file 11 "../..//os/kernel/include/chregistry.h"