ARM GAS  /tmp/ccOIXWqe.s 			page 1


   1              		.syntax unified
   2              		.cpu cortex-m4
   3              		.fpu softvfp
   4              		.eabi_attribute 20, 1
   5              		.eabi_attribute 21, 1
   6              		.eabi_attribute 23, 3
   7              		.eabi_attribute 24, 1
   8              		.eabi_attribute 25, 1
   9              		.eabi_attribute 26, 1
  10              		.eabi_attribute 30, 6
  11              		.eabi_attribute 34, 1
  12              		.eabi_attribute 18, 4
  13              		.thumb
  14              		.file	"evtimer.c"
  15              		.text
  16              	.Ltext0:
  17              		.cfi_sections	.debug_frame
  18              		.section	.text.tmrcb,"ax",%progbits
  19              		.align	2
  20              		.p2align 4,,15
  21              		.thumb
  22              		.thumb_func
  23              		.type	tmrcb, %function
  24              	tmrcb:
  25              	.LFB7:
  26              		.file 1 "../..//os/various/evtimer.c"
  27              		.loc 1 28 0
  28              		.cfi_startproc
  29              		@ args = 0, pretend = 0, frame = 16
  30              		@ frame_needed = 0, uses_anonymous_args = 0
  31 0000 00B5     		push	{lr}
  32              		.cfi_def_cfa_offset 4
  33              		.cfi_offset 14, -4
  34 0002 85B0     		sub	sp, sp, #20
  35              		.cfi_def_cfa_offset 24
  36 0004 0190     		str	r0, [sp, #4]
  37              		.loc 1 29 0
  38 0006 019B     		ldr	r3, [sp, #4]
  39 0008 0393     		str	r3, [sp, #12]
  40              	.LBB2:
  41              		.loc 1 31 0
  42 000a 2023     		movs	r3, #32
  43              	@ 31 "../..//os/various/evtimer.c" 1
  44 000c 83F31188 		msr     BASEPRI, r3
  45              	@ 0 "" 2
  46              		.thumb
  47              	.LBE2:
  48 0010 FFF7FEFF 		bl	dbg_check_lock_from_isr
  49              		.loc 1 32 0
  50 0014 039B     		ldr	r3, [sp, #12]
  51 0016 1433     		adds	r3, r3, #20
  52 0018 1846     		mov	r0, r3
  53 001a 0021     		movs	r1, #0
  54 001c FFF7FEFF 		bl	chEvtBroadcastFlagsI
  55              		.loc 1 33 0
  56 0020 039A     		ldr	r2, [sp, #12]
  57 0022 039B     		ldr	r3, [sp, #12]
ARM GAS  /tmp/ccOIXWqe.s 			page 2


  58 0024 9B69     		ldr	r3, [r3, #24]
  59 0026 1046     		mov	r0, r2
  60 0028 1946     		mov	r1, r3
  61 002a 40F20002 		movw	r2, #:lower16:tmrcb
  62 002e C0F20002 		movt	r2, #:upper16:tmrcb
  63 0032 039B     		ldr	r3, [sp, #12]
  64 0034 FFF7FEFF 		bl	chVTSetI
  65              		.loc 1 34 0
  66 0038 FFF7FEFF 		bl	dbg_check_unlock_from_isr
  67              	.LBB3:
  68 003c 0023     		movs	r3, #0
  69              	@ 34 "../..//os/various/evtimer.c" 1
  70 003e 83F31188 		msr     BASEPRI, r3
  71              	@ 0 "" 2
  72              		.thumb
  73              	.LBE3:
  74              		.loc 1 35 0
  75 0042 05B0     		add	sp, sp, #20
  76              		@ sp needed
  77 0044 5DF804FB 		ldr	pc, [sp], #4
  78              		.cfi_endproc
  79              	.LFE7:
  80              		.size	tmrcb, .-tmrcb
  81 0048 AFF30080 		.section	.text.evtStart,"ax",%progbits
  81      AFF30080 
  82              		.align	2
  83              		.p2align 4,,15
  84              		.global	evtStart
  85              		.thumb
  86              		.thumb_func
  87              		.type	evtStart, %function
  88              	evtStart:
  89              	.LFB8:
  90              		.loc 1 43 0
  91              		.cfi_startproc
  92              		@ args = 0, pretend = 0, frame = 8
  93              		@ frame_needed = 0, uses_anonymous_args = 0
  94 0000 00B5     		push	{lr}
  95              		.cfi_def_cfa_offset 4
  96              		.cfi_offset 14, -4
  97 0002 83B0     		sub	sp, sp, #12
  98              		.cfi_def_cfa_offset 16
  99 0004 0190     		str	r0, [sp, #4]
 100              	.LBB4:
 101              		.loc 1 45 0
 102 0006 2023     		movs	r3, #32
 103              	@ 45 "../..//os/various/evtimer.c" 1
 104 0008 83F31188 		msr     BASEPRI, r3
 105              	@ 0 "" 2
 106              		.thumb
 107              	.LBE4:
 108 000c FFF7FEFF 		bl	dbg_check_lock
 109              		.loc 1 47 0
 110 0010 019B     		ldr	r3, [sp, #4]
 111 0012 DB68     		ldr	r3, [r3, #12]
 112 0014 002B     		cmp	r3, #0
 113 0016 0BD1     		bne	.L3
ARM GAS  /tmp/ccOIXWqe.s 			page 3


 114              		.loc 1 48 0
 115 0018 019A     		ldr	r2, [sp, #4]
 116 001a 019B     		ldr	r3, [sp, #4]
 117 001c 9B69     		ldr	r3, [r3, #24]
 118 001e 1046     		mov	r0, r2
 119 0020 1946     		mov	r1, r3
 120 0022 40F20002 		movw	r2, #:lower16:tmrcb
 121 0026 C0F20002 		movt	r2, #:upper16:tmrcb
 122 002a 019B     		ldr	r3, [sp, #4]
 123 002c FFF7FEFF 		bl	chVTSetI
 124              	.L3:
 125              		.loc 1 50 0
 126 0030 FFF7FEFF 		bl	dbg_check_unlock
 127              	.LBB5:
 128 0034 0023     		movs	r3, #0
 129              	@ 50 "../..//os/various/evtimer.c" 1
 130 0036 83F31188 		msr     BASEPRI, r3
 131              	@ 0 "" 2
 132              		.thumb
 133              	.LBE5:
 134              		.loc 1 51 0
 135 003a 03B0     		add	sp, sp, #12
 136              		@ sp needed
 137 003c 5DF804FB 		ldr	pc, [sp], #4
 138              		.cfi_endproc
 139              	.LFE8:
 140              		.size	evtStart, .-evtStart
 141              		.section	.text.evtStop,"ax",%progbits
 142              		.align	2
 143              		.p2align 4,,15
 144              		.global	evtStop
 145              		.thumb
 146              		.thumb_func
 147              		.type	evtStop, %function
 148              	evtStop:
 149              	.LFB9:
 150              		.loc 1 59 0
 151              		.cfi_startproc
 152              		@ args = 0, pretend = 0, frame = 8
 153              		@ frame_needed = 0, uses_anonymous_args = 0
 154 0000 00B5     		push	{lr}
 155              		.cfi_def_cfa_offset 4
 156              		.cfi_offset 14, -4
 157 0002 83B0     		sub	sp, sp, #12
 158              		.cfi_def_cfa_offset 16
 159 0004 0190     		str	r0, [sp, #4]
 160              	.LBB6:
 161              		.loc 1 61 0
 162 0006 2023     		movs	r3, #32
 163              	@ 61 "../..//os/various/evtimer.c" 1
 164 0008 83F31188 		msr     BASEPRI, r3
 165              	@ 0 "" 2
 166              		.thumb
 167              	.LBE6:
 168 000c FFF7FEFF 		bl	dbg_check_lock
 169 0010 019B     		ldr	r3, [sp, #4]
 170 0012 DB68     		ldr	r3, [r3, #12]
ARM GAS  /tmp/ccOIXWqe.s 			page 4


 171 0014 002B     		cmp	r3, #0
 172 0016 03D0     		beq	.L5
 173              		.loc 1 61 0 is_stmt 0 discriminator 1
 174 0018 019B     		ldr	r3, [sp, #4]
 175 001a 1846     		mov	r0, r3
 176 001c FFF7FEFF 		bl	chVTResetI
 177              	.L5:
 178              		.loc 1 61 0 discriminator 2
 179 0020 FFF7FEFF 		bl	dbg_check_unlock
 180              	.LBB7:
 181 0024 0023     		movs	r3, #0
 182              	@ 61 "../..//os/various/evtimer.c" 1
 183 0026 83F31188 		msr     BASEPRI, r3
 184              	@ 0 "" 2
 185              		.thumb
 186              	.LBE7:
 187              		.loc 1 62 0 is_stmt 1 discriminator 2
 188 002a 03B0     		add	sp, sp, #12
 189              		@ sp needed
 190 002c 5DF804FB 		ldr	pc, [sp], #4
 191              		.cfi_endproc
 192              	.LFE9:
 193              		.size	evtStop, .-evtStop
 194              		.text
 195              	.Letext0:
 196              		.file 2 "/usr/arm-none-eabi/include/machine/_default_types.h"
 197              		.file 3 "/usr/arm-none-eabi/include/stdint.h"
 198              		.file 4 "../..//os/ports/GCC/ARMCMx/chtypes.h"
 199              		.file 5 "../..//os/kernel/include/chlists.h"
 200              		.file 6 "../..//os/kernel/include/chthreads.h"
 201              		.file 7 "../..//os/ports/GCC/ARMCMx/chcore_v7m.h"
 202              		.file 8 "../..//os/kernel/include/chvt.h"
 203              		.file 9 "../..//os/kernel/include/chmtx.h"
 204              		.file 10 "../..//os/kernel/include/chevents.h"
 205              		.file 11 "../..//os/various/evtimer.h"