ARM GAS  /tmp/ccIWRJEN.s 			page 1


   1              		.syntax unified
   2              		.cpu cortex-m4
   3              		.fpu softvfp
   4              		.eabi_attribute 20, 1
   5              		.eabi_attribute 21, 1
   6              		.eabi_attribute 23, 3
   7              		.eabi_attribute 24, 1
   8              		.eabi_attribute 25, 1
   9              		.eabi_attribute 26, 1
  10              		.eabi_attribute 30, 6
  11              		.eabi_attribute 34, 1
  12              		.eabi_attribute 18, 4
  13              		.thumb
  14              		.file	"ff.c"
  15              		.text
  16              	.Ltext0:
  17              		.cfi_sections	.debug_frame
  18              		.section	.bss.FatFs,"aw",%nobits
  19              		.align	2
  20              		.type	FatFs, %object
  21              		.size	FatFs, 4
  22              	FatFs:
  23 0000 00000000 		.space	4
  24              		.section	.bss.Fsid,"aw",%nobits
  25              		.align	1
  26              		.type	Fsid, %object
  27              		.size	Fsid, 2
  28              	Fsid:
  29 0000 0000     		.space	2
  30              		.section	.text.mem_cpy,"ax",%progbits
  31              		.align	2
  32              		.p2align 4,,15
  33              		.thumb
  34              		.thumb_func
  35              		.type	mem_cpy, %function
  36              	mem_cpy:
  37              	.LFB7:
  38              		.file 1 "../..//ext/fatfs/src/ff.c"
  39              		.loc 1 529 0
  40              		.cfi_startproc
  41              		@ args = 0, pretend = 0, frame = 24
  42              		@ frame_needed = 0, uses_anonymous_args = 0
  43              		@ link register save eliminated.
  44 0000 86B0     		sub	sp, sp, #24
  45              		.cfi_def_cfa_offset 24
  46 0002 0390     		str	r0, [sp, #12]
  47 0004 0291     		str	r1, [sp, #8]
  48 0006 0192     		str	r2, [sp, #4]
  49              		.loc 1 530 0
  50 0008 039B     		ldr	r3, [sp, #12]
  51 000a 0593     		str	r3, [sp, #20]
  52              		.loc 1 531 0
  53 000c 029B     		ldr	r3, [sp, #8]
  54 000e 0493     		str	r3, [sp, #16]
  55              		.loc 1 534 0
  56 0010 0CE0     		b	.L2
  57              	.L3:
ARM GAS  /tmp/ccIWRJEN.s 			page 2


  58              		.loc 1 535 0
  59 0012 049B     		ldr	r3, [sp, #16]
  60 0014 1A68     		ldr	r2, [r3]
  61 0016 059B     		ldr	r3, [sp, #20]
  62 0018 1A60     		str	r2, [r3]
  63              		.loc 1 536 0
  64 001a 059B     		ldr	r3, [sp, #20]
  65 001c 0433     		adds	r3, r3, #4
  66 001e 0593     		str	r3, [sp, #20]
  67 0020 049B     		ldr	r3, [sp, #16]
  68 0022 0433     		adds	r3, r3, #4
  69 0024 0493     		str	r3, [sp, #16]
  70              		.loc 1 537 0
  71 0026 019B     		ldr	r3, [sp, #4]
  72 0028 043B     		subs	r3, r3, #4
  73 002a 0193     		str	r3, [sp, #4]
  74              	.L2:
  75              		.loc 1 534 0 discriminator 1
  76 002c 019B     		ldr	r3, [sp, #4]
  77 002e 032B     		cmp	r3, #3
  78 0030 EFD8     		bhi	.L3
  79              		.loc 1 540 0
  80 0032 07E0     		b	.L4
  81              	.L5:
  82              		.loc 1 541 0
  83 0034 059B     		ldr	r3, [sp, #20]
  84 0036 5A1C     		adds	r2, r3, #1
  85 0038 0592     		str	r2, [sp, #20]
  86 003a 049A     		ldr	r2, [sp, #16]
  87 003c 511C     		adds	r1, r2, #1
  88 003e 0491     		str	r1, [sp, #16]
  89 0040 1278     		ldrb	r2, [r2]	@ zero_extendqisi2
  90 0042 1A70     		strb	r2, [r3]
  91              	.L4:
  92              		.loc 1 540 0 discriminator 1
  93 0044 019B     		ldr	r3, [sp, #4]
  94 0046 5A1E     		subs	r2, r3, #1
  95 0048 0192     		str	r2, [sp, #4]
  96 004a 002B     		cmp	r3, #0
  97 004c F2D1     		bne	.L5
  98              		.loc 1 542 0
  99 004e 06B0     		add	sp, sp, #24
 100              		@ sp needed
 101 0050 7047     		bx	lr
 102              		.cfi_endproc
 103              	.LFE7:
 104              		.size	mem_cpy, .-mem_cpy
 105 0052 00BFAFF3 		.section	.text.mem_set,"ax",%progbits
 105      0080AFF3 
 105      0080AFF3 
 105      0080
 106              		.align	2
 107              		.p2align 4,,15
 108              		.thumb
 109              		.thumb_func
 110              		.type	mem_set, %function
 111              	mem_set:
ARM GAS  /tmp/ccIWRJEN.s 			page 3


 112              	.LFB8:
 113              		.loc 1 546 0
 114              		.cfi_startproc
 115              		@ args = 0, pretend = 0, frame = 24
 116              		@ frame_needed = 0, uses_anonymous_args = 0
 117              		@ link register save eliminated.
 118 0000 86B0     		sub	sp, sp, #24
 119              		.cfi_def_cfa_offset 24
 120 0002 0390     		str	r0, [sp, #12]
 121 0004 0291     		str	r1, [sp, #8]
 122 0006 0192     		str	r2, [sp, #4]
 123              		.loc 1 547 0
 124 0008 039B     		ldr	r3, [sp, #12]
 125 000a 0593     		str	r3, [sp, #20]
 126              		.loc 1 549 0
 127 000c 05E0     		b	.L7
 128              	.L8:
 129              		.loc 1 550 0
 130 000e 059B     		ldr	r3, [sp, #20]
 131 0010 5A1C     		adds	r2, r3, #1
 132 0012 0592     		str	r2, [sp, #20]
 133 0014 029A     		ldr	r2, [sp, #8]
 134 0016 D2B2     		uxtb	r2, r2
 135 0018 1A70     		strb	r2, [r3]
 136              	.L7:
 137              		.loc 1 549 0 discriminator 1
 138 001a 019B     		ldr	r3, [sp, #4]
 139 001c 5A1E     		subs	r2, r3, #1
 140 001e 0192     		str	r2, [sp, #4]
 141 0020 002B     		cmp	r3, #0
 142 0022 F4D1     		bne	.L8
 143              		.loc 1 551 0
 144 0024 06B0     		add	sp, sp, #24
 145              		@ sp needed
 146 0026 7047     		bx	lr
 147              		.cfi_endproc
 148              	.LFE8:
 149              		.size	mem_set, .-mem_set
 150              		.section	.text.mem_cmp,"ax",%progbits
 151              		.align	2
 152              		.p2align 4,,15
 153              		.thumb
 154              		.thumb_func
 155              		.type	mem_cmp, %function
 156              	mem_cmp:
 157              	.LFB9:
 158              		.loc 1 555 0
 159              		.cfi_startproc
 160              		@ args = 0, pretend = 0, frame = 32
 161              		@ frame_needed = 0, uses_anonymous_args = 0
 162              		@ link register save eliminated.
 163 0000 88B0     		sub	sp, sp, #32
 164              		.cfi_def_cfa_offset 32
 165 0002 0390     		str	r0, [sp, #12]
 166 0004 0291     		str	r1, [sp, #8]
 167 0006 0192     		str	r2, [sp, #4]
 168              		.loc 1 556 0
ARM GAS  /tmp/ccIWRJEN.s 			page 4


 169 0008 039B     		ldr	r3, [sp, #12]
 170 000a 0793     		str	r3, [sp, #28]
 171 000c 029B     		ldr	r3, [sp, #8]
 172 000e 0693     		str	r3, [sp, #24]
 173              		.loc 1 557 0
 174 0010 0023     		movs	r3, #0
 175 0012 0593     		str	r3, [sp, #20]
 176              		.loc 1 559 0
 177 0014 00BF     		nop
 178              	.L11:
 179              		.loc 1 559 0 is_stmt 0 discriminator 1
 180 0016 019B     		ldr	r3, [sp, #4]
 181 0018 5A1E     		subs	r2, r3, #1
 182 001a 0192     		str	r2, [sp, #4]
 183 001c 002B     		cmp	r3, #0
 184 001e 0DD0     		beq	.L10
 185              		.loc 1 559 0 discriminator 2
 186 0020 079B     		ldr	r3, [sp, #28]
 187 0022 5A1C     		adds	r2, r3, #1
 188 0024 0792     		str	r2, [sp, #28]
 189 0026 1B78     		ldrb	r3, [r3]	@ zero_extendqisi2
 190 0028 1A46     		mov	r2, r3
 191 002a 069B     		ldr	r3, [sp, #24]
 192 002c 591C     		adds	r1, r3, #1
 193 002e 0691     		str	r1, [sp, #24]
 194 0030 1B78     		ldrb	r3, [r3]	@ zero_extendqisi2
 195 0032 D31A     		subs	r3, r2, r3
 196 0034 0593     		str	r3, [sp, #20]
 197 0036 059B     		ldr	r3, [sp, #20]
 198 0038 002B     		cmp	r3, #0
 199 003a ECD0     		beq	.L11
 200              	.L10:
 201              		.loc 1 560 0 is_stmt 1
 202 003c 059B     		ldr	r3, [sp, #20]
 203              		.loc 1 561 0
 204 003e 1846     		mov	r0, r3
 205 0040 08B0     		add	sp, sp, #32
 206              		@ sp needed
 207 0042 7047     		bx	lr
 208              		.cfi_endproc
 209              	.LFE9:
 210              		.size	mem_cmp, .-mem_cmp
 211 0044 AFF30080 		.section	.text.chk_chr,"ax",%progbits
 211      AFF30080 
 211      AFF30080 
 212              		.align	2
 213              		.p2align 4,,15
 214              		.thumb
 215              		.thumb_func
 216              		.type	chk_chr, %function
 217              	chk_chr:
 218              	.LFB10:
 219              		.loc 1 565 0
 220              		.cfi_startproc
 221              		@ args = 0, pretend = 0, frame = 8
 222              		@ frame_needed = 0, uses_anonymous_args = 0
 223              		@ link register save eliminated.
ARM GAS  /tmp/ccIWRJEN.s 			page 5


 224 0000 82B0     		sub	sp, sp, #8
 225              		.cfi_def_cfa_offset 8
 226 0002 0190     		str	r0, [sp, #4]
 227 0004 0091     		str	r1, [sp]
 228              		.loc 1 566 0
 229 0006 02E0     		b	.L14
 230              	.L16:
 231              		.loc 1 566 0 is_stmt 0 discriminator 1
 232 0008 019B     		ldr	r3, [sp, #4]
 233 000a 0133     		adds	r3, r3, #1
 234 000c 0193     		str	r3, [sp, #4]
 235              	.L14:
 236 000e 019B     		ldr	r3, [sp, #4]
 237 0010 1B78     		ldrb	r3, [r3]	@ zero_extendqisi2
 238 0012 002B     		cmp	r3, #0
 239 0014 05D0     		beq	.L15
 240              		.loc 1 566 0 discriminator 2
 241 0016 019B     		ldr	r3, [sp, #4]
 242 0018 1B78     		ldrb	r3, [r3]	@ zero_extendqisi2
 243 001a 1A46     		mov	r2, r3
 244 001c 009B     		ldr	r3, [sp]
 245 001e 9A42     		cmp	r2, r3
 246 0020 F2D1     		bne	.L16
 247              	.L15:
 248              		.loc 1 567 0 is_stmt 1
 249 0022 019B     		ldr	r3, [sp, #4]
 250 0024 1B78     		ldrb	r3, [r3]	@ zero_extendqisi2
 251              		.loc 1 568 0
 252 0026 1846     		mov	r0, r3
 253 0028 02B0     		add	sp, sp, #8
 254              		@ sp needed
 255 002a 7047     		bx	lr
 256              		.cfi_endproc
 257              	.LFE10:
 258              		.size	chk_chr, .-chk_chr
 259 002c AFF30080 		.section	.text.move_window,"ax",%progbits
 260              		.align	2
 261              		.p2align 4,,15
 262              		.thumb
 263              		.thumb_func
 264              		.type	move_window, %function
 265              	move_window:
 266              	.LFB11:
 267              		.loc 1 723 0
 268              		.cfi_startproc
 269              		@ args = 0, pretend = 0, frame = 16
 270              		@ frame_needed = 0, uses_anonymous_args = 0
 271 0000 00B5     		push	{lr}
 272              		.cfi_def_cfa_offset 4
 273              		.cfi_offset 14, -4
 274 0002 85B0     		sub	sp, sp, #20
 275              		.cfi_def_cfa_offset 24
 276 0004 0190     		str	r0, [sp, #4]
 277 0006 0091     		str	r1, [sp]
 278              		.loc 1 727 0
 279 0008 019B     		ldr	r3, [sp, #4]
 280 000a DB6A     		ldr	r3, [r3, #44]
ARM GAS  /tmp/ccIWRJEN.s 			page 6


 281 000c 0393     		str	r3, [sp, #12]
 282              		.loc 1 728 0
 283 000e 039A     		ldr	r2, [sp, #12]
 284 0010 009B     		ldr	r3, [sp]
 285 0012 9A42     		cmp	r2, r3
 286 0014 4FD0     		beq	.L19
 287              		.loc 1 730 0
 288 0016 019B     		ldr	r3, [sp, #4]
 289 0018 1B79     		ldrb	r3, [r3, #4]	@ zero_extendqisi2
 290 001a 002B     		cmp	r3, #0
 291 001c 36D0     		beq	.L20
 292              		.loc 1 731 0
 293 001e 019B     		ldr	r3, [sp, #4]
 294 0020 5A78     		ldrb	r2, [r3, #1]	@ zero_extendqisi2
 295 0022 019B     		ldr	r3, [sp, #4]
 296 0024 3033     		adds	r3, r3, #48
 297 0026 1046     		mov	r0, r2
 298 0028 1946     		mov	r1, r3
 299 002a 039A     		ldr	r2, [sp, #12]
 300 002c 0123     		movs	r3, #1
 301 002e FFF7FEFF 		bl	disk_write
 302 0032 0346     		mov	r3, r0
 303 0034 002B     		cmp	r3, #0
 304 0036 01D0     		beq	.L21
 305              		.loc 1 732 0
 306 0038 0123     		movs	r3, #1
 307 003a 3DE0     		b	.L22
 308              	.L21:
 309              		.loc 1 733 0
 310 003c 019B     		ldr	r3, [sp, #4]
 311 003e 0022     		movs	r2, #0
 312 0040 1A71     		strb	r2, [r3, #4]
 313              		.loc 1 734 0
 314 0042 019B     		ldr	r3, [sp, #4]
 315 0044 1A6A     		ldr	r2, [r3, #32]
 316 0046 019B     		ldr	r3, [sp, #4]
 317 0048 DB69     		ldr	r3, [r3, #28]
 318 004a 1A44     		add	r2, r2, r3
 319 004c 039B     		ldr	r3, [sp, #12]
 320 004e 9A42     		cmp	r2, r3
 321 0050 1CD9     		bls	.L20
 322              	.LBB2:
 323              		.loc 1 736 0
 324 0052 019B     		ldr	r3, [sp, #4]
 325 0054 DB78     		ldrb	r3, [r3, #3]
 326 0056 8DF80B30 		strb	r3, [sp, #11]
 327 005a 13E0     		b	.L23
 328              	.L24:
 329              		.loc 1 737 0 discriminator 2
 330 005c 019B     		ldr	r3, [sp, #4]
 331 005e DB69     		ldr	r3, [r3, #28]
 332 0060 039A     		ldr	r2, [sp, #12]
 333 0062 1344     		add	r3, r3, r2
 334 0064 0393     		str	r3, [sp, #12]
 335              		.loc 1 738 0 discriminator 2
 336 0066 019B     		ldr	r3, [sp, #4]
 337 0068 5A78     		ldrb	r2, [r3, #1]	@ zero_extendqisi2
ARM GAS  /tmp/ccIWRJEN.s 			page 7


 338 006a 019B     		ldr	r3, [sp, #4]
 339 006c 3033     		adds	r3, r3, #48
 340 006e 1046     		mov	r0, r2
 341 0070 1946     		mov	r1, r3
 342 0072 039A     		ldr	r2, [sp, #12]
 343 0074 0123     		movs	r3, #1
 344 0076 FFF7FEFF 		bl	disk_write
 345              		.loc 1 736 0 discriminator 2
 346 007a 9DF80B30 		ldrb	r3, [sp, #11]	@ zero_extendqisi2
 347 007e 013B     		subs	r3, r3, #1
 348 0080 8DF80B30 		strb	r3, [sp, #11]
 349              	.L23:
 350              		.loc 1 736 0 is_stmt 0 discriminator 1
 351 0084 9DF80B30 		ldrb	r3, [sp, #11]	@ zero_extendqisi2
 352 0088 012B     		cmp	r3, #1
 353 008a E7D8     		bhi	.L24
 354              	.L20:
 355              	.LBE2:
 356              		.loc 1 743 0 is_stmt 1
 357 008c 009B     		ldr	r3, [sp]
 358 008e 002B     		cmp	r3, #0
 359 0090 11D0     		beq	.L19
 360              		.loc 1 744 0
 361 0092 019B     		ldr	r3, [sp, #4]
 362 0094 5A78     		ldrb	r2, [r3, #1]	@ zero_extendqisi2
 363 0096 019B     		ldr	r3, [sp, #4]
 364 0098 3033     		adds	r3, r3, #48
 365 009a 1046     		mov	r0, r2
 366 009c 1946     		mov	r1, r3
 367 009e 009A     		ldr	r2, [sp]
 368 00a0 0123     		movs	r3, #1
 369 00a2 FFF7FEFF 		bl	disk_read
 370 00a6 0346     		mov	r3, r0
 371 00a8 002B     		cmp	r3, #0
 372 00aa 01D0     		beq	.L25
 373              		.loc 1 745 0
 374 00ac 0123     		movs	r3, #1
 375 00ae 03E0     		b	.L22
 376              	.L25:
 377              		.loc 1 746 0
 378 00b0 019B     		ldr	r3, [sp, #4]
 379 00b2 009A     		ldr	r2, [sp]
 380 00b4 DA62     		str	r2, [r3, #44]
 381              	.L19:
 382              		.loc 1 750 0
 383 00b6 0023     		movs	r3, #0
 384              	.L22:
 385              		.loc 1 751 0
 386 00b8 1846     		mov	r0, r3
 387 00ba 05B0     		add	sp, sp, #20
 388              		@ sp needed
 389 00bc 5DF804FB 		ldr	pc, [sp], #4
 390              		.cfi_endproc
 391              	.LFE11:
 392              		.size	move_window, .-move_window
 393              		.section	.text.sync,"ax",%progbits
 394              		.align	2
ARM GAS  /tmp/ccIWRJEN.s 			page 8


 395              		.p2align 4,,15
 396              		.thumb
 397              		.thumb_func
 398              		.type	sync, %function
 399              	sync:
 400              	.LFB12:
 401              		.loc 1 764 0
 402              		.cfi_startproc
 403              		@ args = 0, pretend = 0, frame = 16
 404              		@ frame_needed = 0, uses_anonymous_args = 0
 405 0000 00B5     		push	{lr}
 406              		.cfi_def_cfa_offset 4
 407              		.cfi_offset 14, -4
 408 0002 85B0     		sub	sp, sp, #20
 409              		.cfi_def_cfa_offset 24
 410 0004 0190     		str	r0, [sp, #4]
 411              		.loc 1 768 0
 412 0006 0198     		ldr	r0, [sp, #4]
 413 0008 0021     		movs	r1, #0
 414 000a FFF7FEFF 		bl	move_window
 415 000e 0346     		mov	r3, r0
 416 0010 8DF80F30 		strb	r3, [sp, #15]
 417              		.loc 1 769 0
 418 0014 9DF80F30 		ldrb	r3, [sp, #15]	@ zero_extendqisi2
 419 0018 002B     		cmp	r3, #0
 420 001a 51D1     		bne	.L27
 421              		.loc 1 771 0
 422 001c 019B     		ldr	r3, [sp, #4]
 423 001e 1B78     		ldrb	r3, [r3]	@ zero_extendqisi2
 424 0020 032B     		cmp	r3, #3
 425 0022 40D1     		bne	.L28
 426              		.loc 1 771 0 is_stmt 0 discriminator 1
 427 0024 019B     		ldr	r3, [sp, #4]
 428 0026 5B79     		ldrb	r3, [r3, #5]	@ zero_extendqisi2
 429 0028 002B     		cmp	r3, #0
 430 002a 3CD0     		beq	.L28
 431              		.loc 1 772 0 is_stmt 1
 432 002c 019B     		ldr	r3, [sp, #4]
 433 002e 0022     		movs	r2, #0
 434 0030 DA62     		str	r2, [r3, #44]
 435              		.loc 1 774 0
 436 0032 019B     		ldr	r3, [sp, #4]
 437 0034 3033     		adds	r3, r3, #48
 438 0036 1846     		mov	r0, r3
 439 0038 0021     		movs	r1, #0
 440 003a 4FF40072 		mov	r2, #512
 441 003e FFF7FEFF 		bl	mem_set
 442              		.loc 1 775 0
 443 0042 019B     		ldr	r3, [sp, #4]
 444 0044 03F22E23 		addw	r3, r3, #558
 445 0048 4AF65522 		movw	r2, #43605
 446 004c 1A80     		strh	r2, [r3]	@ movhi
 447              		.loc 1 776 0
 448 004e 019B     		ldr	r3, [sp, #4]
 449 0050 03F13002 		add	r2, r3, #48
 450 0054 45F25223 		movw	r3, #21074
 451 0058 C4F26113 		movt	r3, 16737
ARM GAS  /tmp/ccIWRJEN.s 			page 9


 452 005c 1360     		str	r3, [r2]
 453              		.loc 1 777 0
 454 005e 019B     		ldr	r3, [sp, #4]
 455 0060 03F50572 		add	r2, r3, #532
 456 0064 47F27223 		movw	r3, #29298
 457 0068 C6F24113 		movt	r3, 24897
 458 006c 1360     		str	r3, [r2]
 459              		.loc 1 778 0
 460 006e 019B     		ldr	r3, [sp, #4]
 461 0070 03F50673 		add	r3, r3, #536
 462 0074 019A     		ldr	r2, [sp, #4]
 463 0076 1269     		ldr	r2, [r2, #16]
 464 0078 1A60     		str	r2, [r3]
 465              		.loc 1 779 0
 466 007a 019B     		ldr	r3, [sp, #4]
 467 007c 03F50773 		add	r3, r3, #540
 468 0080 019A     		ldr	r2, [sp, #4]
 469 0082 D268     		ldr	r2, [r2, #12]
 470 0084 1A60     		str	r2, [r3]
 471              		.loc 1 781 0
 472 0086 019B     		ldr	r3, [sp, #4]
 473 0088 5978     		ldrb	r1, [r3, #1]	@ zero_extendqisi2
 474 008a 019B     		ldr	r3, [sp, #4]
 475 008c 03F13002 		add	r2, r3, #48
 476 0090 019B     		ldr	r3, [sp, #4]
 477 0092 5B69     		ldr	r3, [r3, #20]
 478 0094 0846     		mov	r0, r1
 479 0096 1146     		mov	r1, r2
 480 0098 1A46     		mov	r2, r3
 481 009a 0123     		movs	r3, #1
 482 009c FFF7FEFF 		bl	disk_write
 483              		.loc 1 782 0
 484 00a0 019B     		ldr	r3, [sp, #4]
 485 00a2 0022     		movs	r2, #0
 486 00a4 5A71     		strb	r2, [r3, #5]
 487              	.L28:
 488              		.loc 1 785 0
 489 00a6 019B     		ldr	r3, [sp, #4]
 490 00a8 5B78     		ldrb	r3, [r3, #1]	@ zero_extendqisi2
 491 00aa 1846     		mov	r0, r3
 492 00ac 0021     		movs	r1, #0
 493 00ae 0022     		movs	r2, #0
 494 00b0 FFF7FEFF 		bl	disk_ioctl
 495 00b4 0346     		mov	r3, r0
 496 00b6 002B     		cmp	r3, #0
 497 00b8 02D0     		beq	.L27
 498              		.loc 1 786 0
 499 00ba 0123     		movs	r3, #1
 500 00bc 8DF80F30 		strb	r3, [sp, #15]
 501              	.L27:
 502              		.loc 1 789 0
 503 00c0 9DF80F30 		ldrb	r3, [sp, #15]	@ zero_extendqisi2
 504              		.loc 1 790 0
 505 00c4 1846     		mov	r0, r3
 506 00c6 05B0     		add	sp, sp, #20
 507              		@ sp needed
 508 00c8 5DF804FB 		ldr	pc, [sp], #4
ARM GAS  /tmp/ccIWRJEN.s 			page 10


 509              		.cfi_endproc
 510              	.LFE12:
 511              		.size	sync, .-sync
 512 00cc AFF30080 		.section	.text.clust2sect,"ax",%progbits
 513              		.align	2
 514              		.p2align 4,,15
 515              		.global	clust2sect
 516              		.thumb
 517              		.thumb_func
 518              		.type	clust2sect, %function
 519              	clust2sect:
 520              	.LFB13:
 521              		.loc 1 805 0
 522              		.cfi_startproc
 523              		@ args = 0, pretend = 0, frame = 8
 524              		@ frame_needed = 0, uses_anonymous_args = 0
 525              		@ link register save eliminated.
 526 0000 82B0     		sub	sp, sp, #8
 527              		.cfi_def_cfa_offset 8
 528 0002 0190     		str	r0, [sp, #4]
 529 0004 0091     		str	r1, [sp]
 530              		.loc 1 806 0
 531 0006 009B     		ldr	r3, [sp]
 532 0008 023B     		subs	r3, r3, #2
 533 000a 0093     		str	r3, [sp]
 534              		.loc 1 807 0
 535 000c 019B     		ldr	r3, [sp, #4]
 536 000e 9B69     		ldr	r3, [r3, #24]
 537 0010 9A1E     		subs	r2, r3, #2
 538 0012 009B     		ldr	r3, [sp]
 539 0014 9A42     		cmp	r2, r3
 540 0016 01D8     		bhi	.L31
 541              		.loc 1 807 0 is_stmt 0 discriminator 1
 542 0018 0023     		movs	r3, #0
 543 001a 07E0     		b	.L32
 544              	.L31:
 545              		.loc 1 808 0 is_stmt 1
 546 001c 019B     		ldr	r3, [sp, #4]
 547 001e 9B78     		ldrb	r3, [r3, #2]	@ zero_extendqisi2
 548 0020 009A     		ldr	r2, [sp]
 549 0022 02FB03F2 		mul	r2, r2, r3
 550 0026 019B     		ldr	r3, [sp, #4]
 551 0028 9B6A     		ldr	r3, [r3, #40]
 552 002a 1344     		add	r3, r3, r2
 553              	.L32:
 554              		.loc 1 809 0
 555 002c 1846     		mov	r0, r3
 556 002e 02B0     		add	sp, sp, #8
 557              		@ sp needed
 558 0030 7047     		bx	lr
 559              		.cfi_endproc
 560              	.LFE13:
 561              		.size	clust2sect, .-clust2sect
 562 0032 00BFAFF3 		.section	.text.get_fat,"ax",%progbits
 562      0080AFF3 
 562      0080AFF3 
 562      0080
ARM GAS  /tmp/ccIWRJEN.s 			page 11


 563              		.align	2
 564              		.p2align 4,,15
 565              		.global	get_fat
 566              		.thumb
 567              		.thumb_func
 568              		.type	get_fat, %function
 569              	get_fat:
 570              	.LFB14:
 571              		.loc 1 823 0
 572              		.cfi_startproc
 573              		@ args = 0, pretend = 0, frame = 24
 574              		@ frame_needed = 0, uses_anonymous_args = 0
 575 0000 00B5     		push	{lr}
 576              		.cfi_def_cfa_offset 4
 577              		.cfi_offset 14, -4
 578 0002 87B0     		sub	sp, sp, #28
 579              		.cfi_def_cfa_offset 32
 580 0004 0190     		str	r0, [sp, #4]
 581 0006 0091     		str	r1, [sp]
 582              		.loc 1 828 0
 583 0008 009B     		ldr	r3, [sp]
 584 000a 012B     		cmp	r3, #1
 585 000c 04D9     		bls	.L34
 586              		.loc 1 828 0 is_stmt 0 discriminator 1
 587 000e 019B     		ldr	r3, [sp, #4]
 588 0010 9A69     		ldr	r2, [r3, #24]
 589 0012 009B     		ldr	r3, [sp]
 590 0014 9A42     		cmp	r2, r3
 591 0016 01D8     		bhi	.L35
 592              	.L34:
 593              		.loc 1 829 0 is_stmt 1
 594 0018 0123     		movs	r3, #1
 595 001a 7EE0     		b	.L36
 596              	.L35:
 597              		.loc 1 831 0
 598 001c 019B     		ldr	r3, [sp, #4]
 599 001e 1B78     		ldrb	r3, [r3]	@ zero_extendqisi2
 600 0020 022B     		cmp	r3, #2
 601 0022 46D0     		beq	.L38
 602 0024 032B     		cmp	r3, #3
 603 0026 5CD0     		beq	.L39
 604 0028 012B     		cmp	r3, #1
 605 002a 74D1     		bne	.L37
 606              		.loc 1 833 0
 607 002c 009B     		ldr	r3, [sp]
 608 002e 0593     		str	r3, [sp, #20]
 609 0030 059B     		ldr	r3, [sp, #20]
 610 0032 5B08     		lsrs	r3, r3, #1
 611 0034 059A     		ldr	r2, [sp, #20]
 612 0036 1344     		add	r3, r3, r2
 613 0038 0593     		str	r3, [sp, #20]
 614              		.loc 1 834 0
 615 003a 019B     		ldr	r3, [sp, #4]
 616 003c 1A6A     		ldr	r2, [r3, #32]
 617 003e 059B     		ldr	r3, [sp, #20]
 618 0040 5B0A     		lsrs	r3, r3, #9
 619 0042 1344     		add	r3, r3, r2
ARM GAS  /tmp/ccIWRJEN.s 			page 12


 620 0044 0198     		ldr	r0, [sp, #4]
 621 0046 1946     		mov	r1, r3
 622 0048 FFF7FEFF 		bl	move_window
 623 004c 0346     		mov	r3, r0
 624 004e 002B     		cmp	r3, #0
 625 0050 00D0     		beq	.L41
 626              		.loc 1 834 0 is_stmt 0 discriminator 1
 627 0052 60E0     		b	.L37
 628              	.L41:
 629              		.loc 1 835 0 is_stmt 1
 630 0054 059B     		ldr	r3, [sp, #20]
 631 0056 C3F30803 		ubfx	r3, r3, #0, #9
 632 005a 019A     		ldr	r2, [sp, #4]
 633 005c 1344     		add	r3, r3, r2
 634 005e 93F83030 		ldrb	r3, [r3, #48]	@ zero_extendqisi2
 635 0062 0493     		str	r3, [sp, #16]
 636 0064 059B     		ldr	r3, [sp, #20]
 637 0066 0133     		adds	r3, r3, #1
 638 0068 0593     		str	r3, [sp, #20]
 639              		.loc 1 836 0
 640 006a 019B     		ldr	r3, [sp, #4]
 641 006c 1A6A     		ldr	r2, [r3, #32]
 642 006e 059B     		ldr	r3, [sp, #20]
 643 0070 5B0A     		lsrs	r3, r3, #9
 644 0072 1344     		add	r3, r3, r2
 645 0074 0198     		ldr	r0, [sp, #4]
 646 0076 1946     		mov	r1, r3
 647 0078 FFF7FEFF 		bl	move_window
 648 007c 0346     		mov	r3, r0
 649 007e 002B     		cmp	r3, #0
 650 0080 00D0     		beq	.L42
 651              		.loc 1 836 0 is_stmt 0 discriminator 1
 652 0082 48E0     		b	.L37
 653              	.L42:
 654              		.loc 1 837 0 is_stmt 1
 655 0084 059B     		ldr	r3, [sp, #20]
 656 0086 C3F30803 		ubfx	r3, r3, #0, #9
 657 008a 019A     		ldr	r2, [sp, #4]
 658 008c 1344     		add	r3, r3, r2
 659 008e 93F83030 		ldrb	r3, [r3, #48]	@ zero_extendqisi2
 660 0092 1B02     		lsls	r3, r3, #8
 661 0094 049A     		ldr	r2, [sp, #16]
 662 0096 1343     		orrs	r3, r3, r2
 663 0098 0493     		str	r3, [sp, #16]
 664              		.loc 1 838 0
 665 009a 009B     		ldr	r3, [sp]
 666 009c 03F00103 		and	r3, r3, #1
 667 00a0 002B     		cmp	r3, #0
 668 00a2 02D0     		beq	.L43
 669              		.loc 1 838 0 is_stmt 0 discriminator 1
 670 00a4 049B     		ldr	r3, [sp, #16]
 671 00a6 1B09     		lsrs	r3, r3, #4
 672 00a8 02E0     		b	.L44
 673              	.L43:
 674              		.loc 1 838 0 discriminator 2
 675 00aa 049B     		ldr	r3, [sp, #16]
 676 00ac C3F30B03 		ubfx	r3, r3, #0, #12
ARM GAS  /tmp/ccIWRJEN.s 			page 13


 677              	.L44:
 678              		.loc 1 838 0 discriminator 3
 679 00b0 33E0     		b	.L36
 680              	.L38:
 681              		.loc 1 841 0 is_stmt 1
 682 00b2 019B     		ldr	r3, [sp, #4]
 683 00b4 1A6A     		ldr	r2, [r3, #32]
 684 00b6 009B     		ldr	r3, [sp]
 685 00b8 1B0A     		lsrs	r3, r3, #8
 686 00ba 1344     		add	r3, r3, r2
 687 00bc 0198     		ldr	r0, [sp, #4]
 688 00be 1946     		mov	r1, r3
 689 00c0 FFF7FEFF 		bl	move_window
 690 00c4 0346     		mov	r3, r0
 691 00c6 002B     		cmp	r3, #0
 692 00c8 00D0     		beq	.L45
 693              		.loc 1 841 0 is_stmt 0 discriminator 1
 694 00ca 24E0     		b	.L37
 695              	.L45:
 696              		.loc 1 842 0 is_stmt 1
 697 00cc 009B     		ldr	r3, [sp]
 698 00ce 5B00     		lsls	r3, r3, #1
 699 00d0 03F4FF73 		and	r3, r3, #510
 700 00d4 3033     		adds	r3, r3, #48
 701 00d6 019A     		ldr	r2, [sp, #4]
 702 00d8 1344     		add	r3, r3, r2
 703 00da 0393     		str	r3, [sp, #12]
 704              		.loc 1 843 0
 705 00dc 039B     		ldr	r3, [sp, #12]
 706 00de 1B88     		ldrh	r3, [r3]
 707 00e0 1BE0     		b	.L36
 708              	.L39:
 709              		.loc 1 846 0
 710 00e2 019B     		ldr	r3, [sp, #4]
 711 00e4 1A6A     		ldr	r2, [r3, #32]
 712 00e6 009B     		ldr	r3, [sp]
 713 00e8 DB09     		lsrs	r3, r3, #7
 714 00ea 1344     		add	r3, r3, r2
 715 00ec 0198     		ldr	r0, [sp, #4]
 716 00ee 1946     		mov	r1, r3
 717 00f0 FFF7FEFF 		bl	move_window
 718 00f4 0346     		mov	r3, r0
 719 00f6 002B     		cmp	r3, #0
 720 00f8 00D0     		beq	.L46
 721              		.loc 1 846 0 is_stmt 0 discriminator 1
 722 00fa 0CE0     		b	.L37
 723              	.L46:
 724              		.loc 1 847 0 is_stmt 1
 725 00fc 009B     		ldr	r3, [sp]
 726 00fe 9B00     		lsls	r3, r3, #2
 727 0100 03F4FE73 		and	r3, r3, #508
 728 0104 3033     		adds	r3, r3, #48
 729 0106 019A     		ldr	r2, [sp, #4]
 730 0108 1344     		add	r3, r3, r2
 731 010a 0393     		str	r3, [sp, #12]
 732              		.loc 1 848 0
 733 010c 039B     		ldr	r3, [sp, #12]
ARM GAS  /tmp/ccIWRJEN.s 			page 14


 734 010e 1B68     		ldr	r3, [r3]
 735 0110 23F07043 		bic	r3, r3, #-268435456
 736 0114 01E0     		b	.L36
 737              	.L37:
 738              		.loc 1 851 0
 739 0116 4FF0FF33 		mov	r3, #-1
 740              	.L36:
 741              		.loc 1 852 0
 742 011a 1846     		mov	r0, r3
 743 011c 07B0     		add	sp, sp, #28
 744              		@ sp needed
 745 011e 5DF804FB 		ldr	pc, [sp], #4
 746              		.cfi_endproc
 747              	.LFE14:
 748              		.size	get_fat, .-get_fat
 749 0122 00BFAFF3 		.section	.text.put_fat,"ax",%progbits
 749      0080AFF3 
 749      0080AFF3 
 749      0080
 750              		.align	2
 751              		.p2align 4,,15
 752              		.global	put_fat
 753              		.thumb
 754              		.thumb_func
 755              		.type	put_fat, %function
 756              	put_fat:
 757              	.LFB15:
 758              		.loc 1 867 0
 759              		.cfi_startproc
 760              		@ args = 0, pretend = 0, frame = 32
 761              		@ frame_needed = 0, uses_anonymous_args = 0
 762 0000 00B5     		push	{lr}
 763              		.cfi_def_cfa_offset 4
 764              		.cfi_offset 14, -4
 765 0002 89B0     		sub	sp, sp, #36
 766              		.cfi_def_cfa_offset 40
 767 0004 0390     		str	r0, [sp, #12]
 768 0006 0291     		str	r1, [sp, #8]
 769 0008 0192     		str	r2, [sp, #4]
 770              		.loc 1 873 0
 771 000a 029B     		ldr	r3, [sp, #8]
 772 000c 012B     		cmp	r3, #1
 773 000e 04D9     		bls	.L48
 774              		.loc 1 873 0 is_stmt 0 discriminator 1
 775 0010 039B     		ldr	r3, [sp, #12]
 776 0012 9A69     		ldr	r2, [r3, #24]
 777 0014 029B     		ldr	r3, [sp, #8]
 778 0016 9A42     		cmp	r2, r3
 779 0018 03D8     		bhi	.L49
 780              	.L48:
 781              		.loc 1 874 0 is_stmt 1
 782 001a 0223     		movs	r3, #2
 783 001c 8DF81F30 		strb	r3, [sp, #31]
 784 0020 C0E0     		b	.L50
 785              	.L49:
 786              		.loc 1 877 0
 787 0022 039B     		ldr	r3, [sp, #12]
ARM GAS  /tmp/ccIWRJEN.s 			page 15


 788 0024 1B78     		ldrb	r3, [r3]	@ zero_extendqisi2
 789 0026 022B     		cmp	r3, #2
 790 0028 74D0     		beq	.L52
 791 002a 032B     		cmp	r3, #3
 792 002c 00F09080 		beq	.L53
 793 0030 012B     		cmp	r3, #1
 794 0032 40F0B180 		bne	.L65
 795              		.loc 1 879 0
 796 0036 029B     		ldr	r3, [sp, #8]
 797 0038 0693     		str	r3, [sp, #24]
 798 003a 069B     		ldr	r3, [sp, #24]
 799 003c 5B08     		lsrs	r3, r3, #1
 800 003e 069A     		ldr	r2, [sp, #24]
 801 0040 1344     		add	r3, r3, r2
 802 0042 0693     		str	r3, [sp, #24]
 803              		.loc 1 880 0
 804 0044 039B     		ldr	r3, [sp, #12]
 805 0046 1A6A     		ldr	r2, [r3, #32]
 806 0048 069B     		ldr	r3, [sp, #24]
 807 004a 5B0A     		lsrs	r3, r3, #9
 808 004c 1344     		add	r3, r3, r2
 809 004e 0398     		ldr	r0, [sp, #12]
 810 0050 1946     		mov	r1, r3
 811 0052 FFF7FEFF 		bl	move_window
 812 0056 0346     		mov	r3, r0
 813 0058 8DF81F30 		strb	r3, [sp, #31]
 814              		.loc 1 881 0
 815 005c 9DF81F30 		ldrb	r3, [sp, #31]	@ zero_extendqisi2
 816 0060 002B     		cmp	r3, #0
 817 0062 00D0     		beq	.L55
 818              		.loc 1 881 0 is_stmt 0 discriminator 1
 819 0064 9BE0     		b	.L56
 820              	.L55:
 821              		.loc 1 882 0 is_stmt 1
 822 0066 069B     		ldr	r3, [sp, #24]
 823 0068 C3F30803 		ubfx	r3, r3, #0, #9
 824 006c 3033     		adds	r3, r3, #48
 825 006e 039A     		ldr	r2, [sp, #12]
 826 0070 1344     		add	r3, r3, r2
 827 0072 0593     		str	r3, [sp, #20]
 828              		.loc 1 883 0
 829 0074 029B     		ldr	r3, [sp, #8]
 830 0076 03F00103 		and	r3, r3, #1
 831 007a 002B     		cmp	r3, #0
 832 007c 0DD0     		beq	.L57
 833              		.loc 1 883 0 is_stmt 0 discriminator 1
 834 007e 059B     		ldr	r3, [sp, #20]
 835 0080 1B78     		ldrb	r3, [r3]	@ zero_extendqisi2
 836 0082 DBB2     		uxtb	r3, r3
 837 0084 03F00F03 		and	r3, r3, #15
 838 0088 DAB2     		uxtb	r2, r3
 839 008a 019B     		ldr	r3, [sp, #4]
 840 008c DBB2     		uxtb	r3, r3
 841 008e 1B01     		lsls	r3, r3, #4
 842 0090 DBB2     		uxtb	r3, r3
 843 0092 1343     		orrs	r3, r3, r2
 844 0094 DBB2     		uxtb	r3, r3
ARM GAS  /tmp/ccIWRJEN.s 			page 16


 845 0096 DBB2     		uxtb	r3, r3
 846 0098 01E0     		b	.L58
 847              	.L57:
 848              		.loc 1 883 0 discriminator 2
 849 009a 019B     		ldr	r3, [sp, #4]
 850 009c DBB2     		uxtb	r3, r3
 851              	.L58:
 852              		.loc 1 883 0 discriminator 3
 853 009e 059A     		ldr	r2, [sp, #20]
 854 00a0 1370     		strb	r3, [r2]
 855              		.loc 1 884 0 is_stmt 1 discriminator 3
 856 00a2 069B     		ldr	r3, [sp, #24]
 857 00a4 0133     		adds	r3, r3, #1
 858 00a6 0693     		str	r3, [sp, #24]
 859              		.loc 1 885 0 discriminator 3
 860 00a8 039B     		ldr	r3, [sp, #12]
 861 00aa 0122     		movs	r2, #1
 862 00ac 1A71     		strb	r2, [r3, #4]
 863              		.loc 1 886 0 discriminator 3
 864 00ae 039B     		ldr	r3, [sp, #12]
 865 00b0 1A6A     		ldr	r2, [r3, #32]
 866 00b2 069B     		ldr	r3, [sp, #24]
 867 00b4 5B0A     		lsrs	r3, r3, #9
 868 00b6 1344     		add	r3, r3, r2
 869 00b8 0398     		ldr	r0, [sp, #12]
 870 00ba 1946     		mov	r1, r3
 871 00bc FFF7FEFF 		bl	move_window
 872 00c0 0346     		mov	r3, r0
 873 00c2 8DF81F30 		strb	r3, [sp, #31]
 874              		.loc 1 887 0 discriminator 3
 875 00c6 9DF81F30 		ldrb	r3, [sp, #31]	@ zero_extendqisi2
 876 00ca 002B     		cmp	r3, #0
 877 00cc 00D0     		beq	.L59
 878              		.loc 1 887 0 is_stmt 0 discriminator 1
 879 00ce 66E0     		b	.L56
 880              	.L59:
 881              		.loc 1 888 0 is_stmt 1
 882 00d0 069B     		ldr	r3, [sp, #24]
 883 00d2 C3F30803 		ubfx	r3, r3, #0, #9
 884 00d6 3033     		adds	r3, r3, #48
 885 00d8 039A     		ldr	r2, [sp, #12]
 886 00da 1344     		add	r3, r3, r2
 887 00dc 0593     		str	r3, [sp, #20]
 888              		.loc 1 889 0
 889 00de 029B     		ldr	r3, [sp, #8]
 890 00e0 03F00103 		and	r3, r3, #1
 891 00e4 002B     		cmp	r3, #0
 892 00e6 03D0     		beq	.L60
 893              		.loc 1 889 0 is_stmt 0 discriminator 1
 894 00e8 019B     		ldr	r3, [sp, #4]
 895 00ea 1B09     		lsrs	r3, r3, #4
 896 00ec DBB2     		uxtb	r3, r3
 897 00ee 0EE0     		b	.L61
 898              	.L60:
 899              		.loc 1 889 0 discriminator 2
 900 00f0 059B     		ldr	r3, [sp, #20]
 901 00f2 1B78     		ldrb	r3, [r3]	@ zero_extendqisi2
ARM GAS  /tmp/ccIWRJEN.s 			page 17


 902 00f4 DBB2     		uxtb	r3, r3
 903 00f6 23F00F03 		bic	r3, r3, #15
 904 00fa DAB2     		uxtb	r2, r3
 905 00fc 019B     		ldr	r3, [sp, #4]
 906 00fe 1B0A     		lsrs	r3, r3, #8
 907 0100 DBB2     		uxtb	r3, r3
 908 0102 03F00F03 		and	r3, r3, #15
 909 0106 DBB2     		uxtb	r3, r3
 910 0108 1343     		orrs	r3, r3, r2
 911 010a DBB2     		uxtb	r3, r3
 912 010c DBB2     		uxtb	r3, r3
 913              	.L61:
 914              		.loc 1 889 0 discriminator 3
 915 010e 059A     		ldr	r2, [sp, #20]
 916 0110 1370     		strb	r3, [r2]
 917              		.loc 1 890 0 is_stmt 1 discriminator 3
 918 0112 44E0     		b	.L56
 919              	.L52:
 920              		.loc 1 893 0
 921 0114 039B     		ldr	r3, [sp, #12]
 922 0116 1A6A     		ldr	r2, [r3, #32]
 923 0118 029B     		ldr	r3, [sp, #8]
 924 011a 1B0A     		lsrs	r3, r3, #8
 925 011c 1344     		add	r3, r3, r2
 926 011e 0398     		ldr	r0, [sp, #12]
 927 0120 1946     		mov	r1, r3
 928 0122 FFF7FEFF 		bl	move_window
 929 0126 0346     		mov	r3, r0
 930 0128 8DF81F30 		strb	r3, [sp, #31]
 931              		.loc 1 894 0
 932 012c 9DF81F30 		ldrb	r3, [sp, #31]	@ zero_extendqisi2
 933 0130 002B     		cmp	r3, #0
 934 0132 00D0     		beq	.L62
 935              		.loc 1 894 0 is_stmt 0 discriminator 1
 936 0134 33E0     		b	.L56
 937              	.L62:
 938              		.loc 1 895 0 is_stmt 1
 939 0136 029B     		ldr	r3, [sp, #8]
 940 0138 5B00     		lsls	r3, r3, #1
 941 013a 03F4FF73 		and	r3, r3, #510
 942 013e 3033     		adds	r3, r3, #48
 943 0140 039A     		ldr	r2, [sp, #12]
 944 0142 1344     		add	r3, r3, r2
 945 0144 0593     		str	r3, [sp, #20]
 946              		.loc 1 896 0
 947 0146 019B     		ldr	r3, [sp, #4]
 948 0148 9AB2     		uxth	r2, r3
 949 014a 059B     		ldr	r3, [sp, #20]
 950 014c 1A80     		strh	r2, [r3]	@ movhi
 951              		.loc 1 897 0
 952 014e 26E0     		b	.L56
 953              	.L53:
 954              		.loc 1 900 0
 955 0150 039B     		ldr	r3, [sp, #12]
 956 0152 1A6A     		ldr	r2, [r3, #32]
 957 0154 029B     		ldr	r3, [sp, #8]
 958 0156 DB09     		lsrs	r3, r3, #7
ARM GAS  /tmp/ccIWRJEN.s 			page 18


 959 0158 1344     		add	r3, r3, r2
 960 015a 0398     		ldr	r0, [sp, #12]
 961 015c 1946     		mov	r1, r3
 962 015e FFF7FEFF 		bl	move_window
 963 0162 0346     		mov	r3, r0
 964 0164 8DF81F30 		strb	r3, [sp, #31]
 965              		.loc 1 901 0
 966 0168 9DF81F30 		ldrb	r3, [sp, #31]	@ zero_extendqisi2
 967 016c 002B     		cmp	r3, #0
 968 016e 00D0     		beq	.L63
 969              		.loc 1 901 0 is_stmt 0 discriminator 1
 970 0170 15E0     		b	.L56
 971              	.L63:
 972              		.loc 1 902 0 is_stmt 1
 973 0172 029B     		ldr	r3, [sp, #8]
 974 0174 9B00     		lsls	r3, r3, #2
 975 0176 03F4FE73 		and	r3, r3, #508
 976 017a 3033     		adds	r3, r3, #48
 977 017c 039A     		ldr	r2, [sp, #12]
 978 017e 1344     		add	r3, r3, r2
 979 0180 0593     		str	r3, [sp, #20]
 980              		.loc 1 903 0
 981 0182 059B     		ldr	r3, [sp, #20]
 982 0184 1B68     		ldr	r3, [r3]
 983 0186 03F07043 		and	r3, r3, #-268435456
 984 018a 019A     		ldr	r2, [sp, #4]
 985 018c 1343     		orrs	r3, r3, r2
 986 018e 0193     		str	r3, [sp, #4]
 987              		.loc 1 904 0
 988 0190 059B     		ldr	r3, [sp, #20]
 989 0192 019A     		ldr	r2, [sp, #4]
 990 0194 1A60     		str	r2, [r3]
 991              		.loc 1 905 0
 992 0196 02E0     		b	.L56
 993              	.L65:
 994              		.loc 1 908 0
 995 0198 0223     		movs	r3, #2
 996 019a 8DF81F30 		strb	r3, [sp, #31]
 997              	.L56:
 998              		.loc 1 910 0
 999 019e 039B     		ldr	r3, [sp, #12]
 1000 01a0 0122     		movs	r2, #1
 1001 01a2 1A71     		strb	r2, [r3, #4]
 1002              	.L50:
 1003              		.loc 1 913 0
 1004 01a4 9DF81F30 		ldrb	r3, [sp, #31]	@ zero_extendqisi2
 1005              		.loc 1 914 0
 1006 01a8 1846     		mov	r0, r3
 1007 01aa 09B0     		add	sp, sp, #36
 1008              		@ sp needed
 1009 01ac 5DF804FB 		ldr	pc, [sp], #4
 1010              		.cfi_endproc
 1011              	.LFE15:
 1012              		.size	put_fat, .-put_fat
 1013              		.section	.text.remove_chain,"ax",%progbits
 1014              		.align	2
 1015              		.p2align 4,,15
ARM GAS  /tmp/ccIWRJEN.s 			page 19


 1016              		.thumb
 1017              		.thumb_func
 1018              		.type	remove_chain, %function
 1019              	remove_chain:
 1020              	.LFB16:
 1021              		.loc 1 929 0
 1022              		.cfi_startproc
 1023              		@ args = 0, pretend = 0, frame = 32
 1024              		@ frame_needed = 0, uses_anonymous_args = 0
 1025 0000 00B5     		push	{lr}
 1026              		.cfi_def_cfa_offset 4
 1027              		.cfi_offset 14, -4
 1028 0002 89B0     		sub	sp, sp, #36
 1029              		.cfi_def_cfa_offset 40
 1030 0004 0190     		str	r0, [sp, #4]
 1031 0006 0091     		str	r1, [sp]
 1032              		.loc 1 933 0
 1033 0008 009B     		ldr	r3, [sp]
 1034 000a 0693     		str	r3, [sp, #24]
 1035 000c 009B     		ldr	r3, [sp]
 1036 000e 0593     		str	r3, [sp, #20]
 1037              		.loc 1 936 0
 1038 0010 009B     		ldr	r3, [sp]
 1039 0012 012B     		cmp	r3, #1
 1040 0014 04D9     		bls	.L67
 1041              		.loc 1 936 0 is_stmt 0 discriminator 1
 1042 0016 019B     		ldr	r3, [sp, #4]
 1043 0018 9A69     		ldr	r2, [r3, #24]
 1044 001a 009B     		ldr	r3, [sp]
 1045 001c 9A42     		cmp	r2, r3
 1046 001e 03D8     		bhi	.L68
 1047              	.L67:
 1048              		.loc 1 937 0 is_stmt 1
 1049 0020 0223     		movs	r3, #2
 1050 0022 8DF81F30 		strb	r3, [sp, #31]
 1051 0026 60E0     		b	.L69
 1052              	.L68:
 1053              		.loc 1 940 0
 1054 0028 0023     		movs	r3, #0
 1055 002a 8DF81F30 		strb	r3, [sp, #31]
 1056              		.loc 1 941 0
 1057 002e 57E0     		b	.L70
 1058              	.L78:
 1059              		.loc 1 942 0
 1060 0030 0198     		ldr	r0, [sp, #4]
 1061 0032 0099     		ldr	r1, [sp]
 1062 0034 FFF7FEFF 		bl	get_fat
 1063 0038 0490     		str	r0, [sp, #16]
 1064              		.loc 1 943 0
 1065 003a 049B     		ldr	r3, [sp, #16]
 1066 003c 002B     		cmp	r3, #0
 1067 003e 00D1     		bne	.L71
 1068              		.loc 1 943 0 is_stmt 0 discriminator 1
 1069 0040 53E0     		b	.L69
 1070              	.L71:
 1071              		.loc 1 944 0 is_stmt 1
 1072 0042 049B     		ldr	r3, [sp, #16]
ARM GAS  /tmp/ccIWRJEN.s 			page 20


 1073 0044 012B     		cmp	r3, #1
 1074 0046 03D1     		bne	.L72
 1075              		.loc 1 944 0 is_stmt 0 discriminator 1
 1076 0048 0223     		movs	r3, #2
 1077 004a 8DF81F30 		strb	r3, [sp, #31]
 1078 004e 4CE0     		b	.L69
 1079              	.L72:
 1080              		.loc 1 945 0 is_stmt 1
 1081 0050 049B     		ldr	r3, [sp, #16]
 1082 0052 B3F1FF3F 		cmp	r3, #-1
 1083 0056 03D1     		bne	.L73
 1084              		.loc 1 945 0 is_stmt 0 discriminator 1
 1085 0058 0123     		movs	r3, #1
 1086 005a 8DF81F30 		strb	r3, [sp, #31]
 1087 005e 44E0     		b	.L69
 1088              	.L73:
 1089              		.loc 1 946 0 is_stmt 1
 1090 0060 0198     		ldr	r0, [sp, #4]
 1091 0062 0099     		ldr	r1, [sp]
 1092 0064 0022     		movs	r2, #0
 1093 0066 FFF7FEFF 		bl	put_fat
 1094 006a 0346     		mov	r3, r0
 1095 006c 8DF81F30 		strb	r3, [sp, #31]
 1096              		.loc 1 947 0
 1097 0070 9DF81F30 		ldrb	r3, [sp, #31]	@ zero_extendqisi2
 1098 0074 002B     		cmp	r3, #0
 1099 0076 00D0     		beq	.L74
 1100              		.loc 1 947 0 is_stmt 0 discriminator 1
 1101 0078 37E0     		b	.L69
 1102              	.L74:
 1103              		.loc 1 948 0 is_stmt 1
 1104 007a 019B     		ldr	r3, [sp, #4]
 1105 007c 1B69     		ldr	r3, [r3, #16]
 1106 007e B3F1FF3F 		cmp	r3, #-1
 1107 0082 07D0     		beq	.L75
 1108              		.loc 1 949 0
 1109 0084 019B     		ldr	r3, [sp, #4]
 1110 0086 1B69     		ldr	r3, [r3, #16]
 1111 0088 5A1C     		adds	r2, r3, #1
 1112 008a 019B     		ldr	r3, [sp, #4]
 1113 008c 1A61     		str	r2, [r3, #16]
 1114              		.loc 1 950 0
 1115 008e 019B     		ldr	r3, [sp, #4]
 1116 0090 0122     		movs	r2, #1
 1117 0092 5A71     		strb	r2, [r3, #5]
 1118              	.L75:
 1119              		.loc 1 953 0
 1120 0094 059B     		ldr	r3, [sp, #20]
 1121 0096 5A1C     		adds	r2, r3, #1
 1122 0098 049B     		ldr	r3, [sp, #16]
 1123 009a 9A42     		cmp	r2, r3
 1124 009c 02D1     		bne	.L76
 1125              		.loc 1 954 0
 1126 009e 049B     		ldr	r3, [sp, #16]
 1127 00a0 0593     		str	r3, [sp, #20]
 1128 00a2 1BE0     		b	.L77
 1129              	.L76:
ARM GAS  /tmp/ccIWRJEN.s 			page 21


 1130              		.loc 1 956 0
 1131 00a4 0198     		ldr	r0, [sp, #4]
 1132 00a6 0699     		ldr	r1, [sp, #24]
 1133 00a8 FFF7FEFF 		bl	clust2sect
 1134 00ac 0346     		mov	r3, r0
 1135 00ae 0293     		str	r3, [sp, #8]
 1136              		.loc 1 957 0
 1137 00b0 0198     		ldr	r0, [sp, #4]
 1138 00b2 0599     		ldr	r1, [sp, #20]
 1139 00b4 FFF7FEFF 		bl	clust2sect
 1140 00b8 0246     		mov	r2, r0
 1141 00ba 019B     		ldr	r3, [sp, #4]
 1142 00bc 9B78     		ldrb	r3, [r3, #2]	@ zero_extendqisi2
 1143 00be 1344     		add	r3, r3, r2
 1144 00c0 013B     		subs	r3, r3, #1
 1145 00c2 0393     		str	r3, [sp, #12]
 1146              		.loc 1 958 0
 1147 00c4 019B     		ldr	r3, [sp, #4]
 1148 00c6 5A78     		ldrb	r2, [r3, #1]	@ zero_extendqisi2
 1149 00c8 02AB     		add	r3, sp, #8
 1150 00ca 1046     		mov	r0, r2
 1151 00cc 0421     		movs	r1, #4
 1152 00ce 1A46     		mov	r2, r3
 1153 00d0 FFF7FEFF 		bl	disk_ioctl
 1154              		.loc 1 959 0
 1155 00d4 049B     		ldr	r3, [sp, #16]
 1156 00d6 0593     		str	r3, [sp, #20]
 1157 00d8 059B     		ldr	r3, [sp, #20]
 1158 00da 0693     		str	r3, [sp, #24]
 1159              	.L77:
 1160              		.loc 1 962 0
 1161 00dc 049B     		ldr	r3, [sp, #16]
 1162 00de 0093     		str	r3, [sp]
 1163              	.L70:
 1164              		.loc 1 941 0 discriminator 1
 1165 00e0 019B     		ldr	r3, [sp, #4]
 1166 00e2 9A69     		ldr	r2, [r3, #24]
 1167 00e4 009B     		ldr	r3, [sp]
 1168 00e6 9A42     		cmp	r2, r3
 1169 00e8 A2D8     		bhi	.L78
 1170              	.L69:
 1171              		.loc 1 966 0
 1172 00ea 9DF81F30 		ldrb	r3, [sp, #31]	@ zero_extendqisi2
 1173              		.loc 1 967 0
 1174 00ee 1846     		mov	r0, r3
 1175 00f0 09B0     		add	sp, sp, #36
 1176              		@ sp needed
 1177 00f2 5DF804FB 		ldr	pc, [sp], #4
 1178              		.cfi_endproc
 1179              	.LFE16:
 1180              		.size	remove_chain, .-remove_chain
 1181 00f6 00BFAFF3 		.section	.text.create_chain,"ax",%progbits
 1181      0080AFF3 
 1181      0080
 1182              		.align	2
 1183              		.p2align 4,,15
 1184              		.thumb
ARM GAS  /tmp/ccIWRJEN.s 			page 22


 1185              		.thumb_func
 1186              		.type	create_chain, %function
 1187              	create_chain:
 1188              	.LFB17:
 1189              		.loc 1 982 0
 1190              		.cfi_startproc
 1191              		@ args = 0, pretend = 0, frame = 24
 1192              		@ frame_needed = 0, uses_anonymous_args = 0
 1193 0000 00B5     		push	{lr}
 1194              		.cfi_def_cfa_offset 4
 1195              		.cfi_offset 14, -4
 1196 0002 87B0     		sub	sp, sp, #28
 1197              		.cfi_def_cfa_offset 32
 1198 0004 0190     		str	r0, [sp, #4]
 1199 0006 0091     		str	r1, [sp]
 1200              		.loc 1 987 0
 1201 0008 009B     		ldr	r3, [sp]
 1202 000a 002B     		cmp	r3, #0
 1203 000c 0DD1     		bne	.L81
 1204              		.loc 1 988 0
 1205 000e 019B     		ldr	r3, [sp, #4]
 1206 0010 DB68     		ldr	r3, [r3, #12]
 1207 0012 0493     		str	r3, [sp, #16]
 1208              		.loc 1 989 0
 1209 0014 049B     		ldr	r3, [sp, #16]
 1210 0016 002B     		cmp	r3, #0
 1211 0018 04D0     		beq	.L82
 1212              		.loc 1 989 0 is_stmt 0 discriminator 2
 1213 001a 019B     		ldr	r3, [sp, #4]
 1214 001c 9A69     		ldr	r2, [r3, #24]
 1215 001e 049B     		ldr	r3, [sp, #16]
 1216 0020 9A42     		cmp	r2, r3
 1217 0022 15D8     		bhi	.L84
 1218              	.L82:
 1219              		.loc 1 989 0 discriminator 1
 1220 0024 0123     		movs	r3, #1
 1221 0026 0493     		str	r3, [sp, #16]
 1222 0028 12E0     		b	.L84
 1223              	.L81:
 1224              		.loc 1 992 0 is_stmt 1
 1225 002a 0198     		ldr	r0, [sp, #4]
 1226 002c 0099     		ldr	r1, [sp]
 1227 002e FFF7FEFF 		bl	get_fat
 1228 0032 0290     		str	r0, [sp, #8]
 1229              		.loc 1 993 0
 1230 0034 029B     		ldr	r3, [sp, #8]
 1231 0036 012B     		cmp	r3, #1
 1232 0038 01D8     		bhi	.L85
 1233              		.loc 1 993 0 is_stmt 0 discriminator 1
 1234 003a 0123     		movs	r3, #1
 1235 003c 6BE0     		b	.L86
 1236              	.L85:
 1237              		.loc 1 994 0 is_stmt 1
 1238 003e 019B     		ldr	r3, [sp, #4]
 1239 0040 9A69     		ldr	r2, [r3, #24]
 1240 0042 029B     		ldr	r3, [sp, #8]
 1241 0044 9A42     		cmp	r2, r3
ARM GAS  /tmp/ccIWRJEN.s 			page 23


 1242 0046 01D9     		bls	.L87
 1243              		.loc 1 994 0 is_stmt 0 discriminator 1
 1244 0048 029B     		ldr	r3, [sp, #8]
 1245 004a 64E0     		b	.L86
 1246              	.L87:
 1247              		.loc 1 995 0 is_stmt 1
 1248 004c 009B     		ldr	r3, [sp]
 1249 004e 0493     		str	r3, [sp, #16]
 1250              	.L84:
 1251              		.loc 1 998 0
 1252 0050 049B     		ldr	r3, [sp, #16]
 1253 0052 0593     		str	r3, [sp, #20]
 1254              	.L94:
 1255              		.loc 1 1000 0
 1256 0054 059B     		ldr	r3, [sp, #20]
 1257 0056 0133     		adds	r3, r3, #1
 1258 0058 0593     		str	r3, [sp, #20]
 1259              		.loc 1 1001 0
 1260 005a 019B     		ldr	r3, [sp, #4]
 1261 005c 9A69     		ldr	r2, [r3, #24]
 1262 005e 059B     		ldr	r3, [sp, #20]
 1263 0060 9A42     		cmp	r2, r3
 1264 0062 07D8     		bhi	.L88
 1265              		.loc 1 1002 0
 1266 0064 0223     		movs	r3, #2
 1267 0066 0593     		str	r3, [sp, #20]
 1268              		.loc 1 1003 0
 1269 0068 059A     		ldr	r2, [sp, #20]
 1270 006a 049B     		ldr	r3, [sp, #16]
 1271 006c 9A42     		cmp	r2, r3
 1272 006e 01D9     		bls	.L88
 1273              		.loc 1 1003 0 is_stmt 0 discriminator 1
 1274 0070 0023     		movs	r3, #0
 1275 0072 50E0     		b	.L86
 1276              	.L88:
 1277              		.loc 1 1005 0 is_stmt 1
 1278 0074 0198     		ldr	r0, [sp, #4]
 1279 0076 0599     		ldr	r1, [sp, #20]
 1280 0078 FFF7FEFF 		bl	get_fat
 1281 007c 0290     		str	r0, [sp, #8]
 1282              		.loc 1 1006 0
 1283 007e 029B     		ldr	r3, [sp, #8]
 1284 0080 002B     		cmp	r3, #0
 1285 0082 0ED1     		bne	.L89
 1286              		.loc 1 1006 0 is_stmt 0 discriminator 1
 1287 0084 00BF     		nop
 1288              		.loc 1 1012 0 is_stmt 1 discriminator 1
 1289 0086 0198     		ldr	r0, [sp, #4]
 1290 0088 0599     		ldr	r1, [sp, #20]
 1291 008a 6FF07042 		mvn	r2, #-268435456
 1292 008e FFF7FEFF 		bl	put_fat
 1293 0092 0346     		mov	r3, r0
 1294 0094 8DF80F30 		strb	r3, [sp, #15]
 1295              		.loc 1 1013 0 discriminator 1
 1296 0098 9DF80F30 		ldrb	r3, [sp, #15]	@ zero_extendqisi2
 1297 009c 002B     		cmp	r3, #0
 1298 009e 1BD1     		bne	.L95
ARM GAS  /tmp/ccIWRJEN.s 			page 24


 1299 00a0 0FE0     		b	.L101
 1300              	.L89:
 1301              		.loc 1 1007 0
 1302 00a2 029B     		ldr	r3, [sp, #8]
 1303 00a4 B3F1FF3F 		cmp	r3, #-1
 1304 00a8 02D0     		beq	.L91
 1305              		.loc 1 1007 0 is_stmt 0 discriminator 1
 1306 00aa 029B     		ldr	r3, [sp, #8]
 1307 00ac 012B     		cmp	r3, #1
 1308 00ae 01D1     		bne	.L92
 1309              	.L91:
 1310              		.loc 1 1008 0 is_stmt 1
 1311 00b0 029B     		ldr	r3, [sp, #8]
 1312 00b2 30E0     		b	.L86
 1313              	.L92:
 1314              		.loc 1 1009 0
 1315 00b4 059A     		ldr	r2, [sp, #20]
 1316 00b6 049B     		ldr	r3, [sp, #16]
 1317 00b8 9A42     		cmp	r2, r3
 1318 00ba 01D1     		bne	.L93
 1319              		.loc 1 1009 0 is_stmt 0 discriminator 1
 1320 00bc 0023     		movs	r3, #0
 1321 00be 2AE0     		b	.L86
 1322              	.L93:
 1323              		.loc 1 1010 0 is_stmt 1
 1324 00c0 C8E7     		b	.L94
 1325              	.L101:
 1326              		.loc 1 1013 0 discriminator 1
 1327 00c2 009B     		ldr	r3, [sp]
 1328 00c4 002B     		cmp	r3, #0
 1329 00c6 07D0     		beq	.L95
 1330              		.loc 1 1014 0
 1331 00c8 0198     		ldr	r0, [sp, #4]
 1332 00ca 0099     		ldr	r1, [sp]
 1333 00cc 059A     		ldr	r2, [sp, #20]
 1334 00ce FFF7FEFF 		bl	put_fat
 1335 00d2 0346     		mov	r3, r0
 1336 00d4 8DF80F30 		strb	r3, [sp, #15]
 1337              	.L95:
 1338              		.loc 1 1016 0
 1339 00d8 9DF80F30 		ldrb	r3, [sp, #15]	@ zero_extendqisi2
 1340 00dc 002B     		cmp	r3, #0
 1341 00de 10D1     		bne	.L96
 1342              		.loc 1 1017 0
 1343 00e0 019B     		ldr	r3, [sp, #4]
 1344 00e2 059A     		ldr	r2, [sp, #20]
 1345 00e4 DA60     		str	r2, [r3, #12]
 1346              		.loc 1 1018 0
 1347 00e6 019B     		ldr	r3, [sp, #4]
 1348 00e8 1B69     		ldr	r3, [r3, #16]
 1349 00ea B3F1FF3F 		cmp	r3, #-1
 1350 00ee 11D0     		beq	.L98
 1351              		.loc 1 1019 0
 1352 00f0 019B     		ldr	r3, [sp, #4]
 1353 00f2 1B69     		ldr	r3, [r3, #16]
 1354 00f4 5A1E     		subs	r2, r3, #1
 1355 00f6 019B     		ldr	r3, [sp, #4]
ARM GAS  /tmp/ccIWRJEN.s 			page 25


 1356 00f8 1A61     		str	r2, [r3, #16]
 1357              		.loc 1 1020 0
 1358 00fa 019B     		ldr	r3, [sp, #4]
 1359 00fc 0122     		movs	r2, #1
 1360 00fe 5A71     		strb	r2, [r3, #5]
 1361 0100 08E0     		b	.L98
 1362              	.L96:
 1363              		.loc 1 1023 0
 1364 0102 9DF80F30 		ldrb	r3, [sp, #15]	@ zero_extendqisi2
 1365 0106 012B     		cmp	r3, #1
 1366 0108 02D1     		bne	.L99
 1367              		.loc 1 1023 0 is_stmt 0 discriminator 1
 1368 010a 4FF0FF33 		mov	r3, #-1
 1369 010e 00E0     		b	.L100
 1370              	.L99:
 1371              		.loc 1 1023 0 discriminator 2
 1372 0110 0123     		movs	r3, #1
 1373              	.L100:
 1374              		.loc 1 1023 0 discriminator 3
 1375 0112 0593     		str	r3, [sp, #20]
 1376              	.L98:
 1377              		.loc 1 1026 0 is_stmt 1
 1378 0114 059B     		ldr	r3, [sp, #20]
 1379              	.L86:
 1380              		.loc 1 1027 0
 1381 0116 1846     		mov	r0, r3
 1382 0118 07B0     		add	sp, sp, #28
 1383              		@ sp needed
 1384 011a 5DF804FB 		ldr	pc, [sp], #4
 1385              		.cfi_endproc
 1386              	.LFE17:
 1387              		.size	create_chain, .-create_chain
 1388 011e 00BF     		.section	.text.dir_sdi,"ax",%progbits
 1389              		.align	2
 1390              		.p2align 4,,15
 1391              		.thumb
 1392              		.thumb_func
 1393              		.type	dir_sdi, %function
 1394              	dir_sdi:
 1395              	.LFB18:
 1396              		.loc 1 1069 0
 1397              		.cfi_startproc
 1398              		@ args = 0, pretend = 0, frame = 16
 1399              		@ frame_needed = 0, uses_anonymous_args = 0
 1400 0000 00B5     		push	{lr}
 1401              		.cfi_def_cfa_offset 4
 1402              		.cfi_offset 14, -4
 1403 0002 85B0     		sub	sp, sp, #20
 1404              		.cfi_def_cfa_offset 24
 1405 0004 0190     		str	r0, [sp, #4]
 1406 0006 0B46     		mov	r3, r1
 1407 0008 ADF80230 		strh	r3, [sp, #2]	@ movhi
 1408              		.loc 1 1074 0
 1409 000c 019B     		ldr	r3, [sp, #4]
 1410 000e BDF80220 		ldrh	r2, [sp, #2]	@ movhi
 1411 0012 DA80     		strh	r2, [r3, #6]	@ movhi
 1412              		.loc 1 1075 0
ARM GAS  /tmp/ccIWRJEN.s 			page 26


 1413 0014 019B     		ldr	r3, [sp, #4]
 1414 0016 9B68     		ldr	r3, [r3, #8]
 1415 0018 0393     		str	r3, [sp, #12]
 1416              		.loc 1 1076 0
 1417 001a 039B     		ldr	r3, [sp, #12]
 1418 001c 012B     		cmp	r3, #1
 1419 001e 05D0     		beq	.L103
 1420              		.loc 1 1076 0 is_stmt 0 discriminator 1
 1421 0020 019B     		ldr	r3, [sp, #4]
 1422 0022 1B68     		ldr	r3, [r3]
 1423 0024 9A69     		ldr	r2, [r3, #24]
 1424 0026 039B     		ldr	r3, [sp, #12]
 1425 0028 9A42     		cmp	r2, r3
 1426 002a 01D8     		bhi	.L104
 1427              	.L103:
 1428              		.loc 1 1077 0 is_stmt 1
 1429 002c 0223     		movs	r3, #2
 1430 002e 6EE0     		b	.L105
 1431              	.L104:
 1432              		.loc 1 1078 0
 1433 0030 039B     		ldr	r3, [sp, #12]
 1434 0032 002B     		cmp	r3, #0
 1435 0034 08D1     		bne	.L106
 1436              		.loc 1 1078 0 is_stmt 0 discriminator 1
 1437 0036 019B     		ldr	r3, [sp, #4]
 1438 0038 1B68     		ldr	r3, [r3]
 1439 003a 1B78     		ldrb	r3, [r3]	@ zero_extendqisi2
 1440 003c 032B     		cmp	r3, #3
 1441 003e 03D1     		bne	.L106
 1442              		.loc 1 1079 0 is_stmt 1
 1443 0040 019B     		ldr	r3, [sp, #4]
 1444 0042 1B68     		ldr	r3, [r3]
 1445 0044 5B6A     		ldr	r3, [r3, #36]
 1446 0046 0393     		str	r3, [sp, #12]
 1447              	.L106:
 1448              		.loc 1 1081 0
 1449 0048 039B     		ldr	r3, [sp, #12]
 1450 004a 002B     		cmp	r3, #0
 1451 004c 16D1     		bne	.L107
 1452              		.loc 1 1082 0
 1453 004e 019B     		ldr	r3, [sp, #4]
 1454 0050 039A     		ldr	r2, [sp, #12]
 1455 0052 DA60     		str	r2, [r3, #12]
 1456              		.loc 1 1083 0
 1457 0054 019B     		ldr	r3, [sp, #4]
 1458 0056 1B68     		ldr	r3, [r3]
 1459 0058 1B89     		ldrh	r3, [r3, #8]
 1460 005a BDF80220 		ldrh	r2, [sp, #2]
 1461 005e 9A42     		cmp	r2, r3
 1462 0060 01D3     		bcc	.L108
 1463              		.loc 1 1084 0
 1464 0062 0223     		movs	r3, #2
 1465 0064 53E0     		b	.L105
 1466              	.L108:
 1467              		.loc 1 1085 0
 1468 0066 019B     		ldr	r3, [sp, #4]
 1469 0068 1B68     		ldr	r3, [r3]
ARM GAS  /tmp/ccIWRJEN.s 			page 27


 1470 006a 5A6A     		ldr	r2, [r3, #36]
 1471 006c BDF80230 		ldrh	r3, [sp, #2]
 1472 0070 1B09     		lsrs	r3, r3, #4
 1473 0072 9BB2     		uxth	r3, r3
 1474 0074 1A44     		add	r2, r2, r3
 1475 0076 019B     		ldr	r3, [sp, #4]
 1476 0078 1A61     		str	r2, [r3, #16]
 1477 007a 3CE0     		b	.L109
 1478              	.L107:
 1479              		.loc 1 1088 0
 1480 007c 019B     		ldr	r3, [sp, #4]
 1481 007e 1B68     		ldr	r3, [r3]
 1482 0080 9B78     		ldrb	r3, [r3, #2]	@ zero_extendqisi2
 1483 0082 1B01     		lsls	r3, r3, #4
 1484 0084 ADF80A30 		strh	r3, [sp, #10]	@ movhi
 1485              		.loc 1 1089 0
 1486 0088 1EE0     		b	.L110
 1487              	.L114:
 1488              		.loc 1 1090 0
 1489 008a 019B     		ldr	r3, [sp, #4]
 1490 008c 1B68     		ldr	r3, [r3]
 1491 008e 1846     		mov	r0, r3
 1492 0090 0399     		ldr	r1, [sp, #12]
 1493 0092 FFF7FEFF 		bl	get_fat
 1494 0096 0390     		str	r0, [sp, #12]
 1495              		.loc 1 1091 0
 1496 0098 039B     		ldr	r3, [sp, #12]
 1497 009a B3F1FF3F 		cmp	r3, #-1
 1498 009e 01D1     		bne	.L111
 1499              		.loc 1 1091 0 is_stmt 0 discriminator 1
 1500 00a0 0123     		movs	r3, #1
 1501 00a2 34E0     		b	.L105
 1502              	.L111:
 1503              		.loc 1 1092 0 is_stmt 1
 1504 00a4 039B     		ldr	r3, [sp, #12]
 1505 00a6 012B     		cmp	r3, #1
 1506 00a8 05D9     		bls	.L112
 1507              		.loc 1 1092 0 is_stmt 0 discriminator 1
 1508 00aa 019B     		ldr	r3, [sp, #4]
 1509 00ac 1B68     		ldr	r3, [r3]
 1510 00ae 9A69     		ldr	r2, [r3, #24]
 1511 00b0 039B     		ldr	r3, [sp, #12]
 1512 00b2 9A42     		cmp	r2, r3
 1513 00b4 01D8     		bhi	.L113
 1514              	.L112:
 1515              		.loc 1 1093 0 is_stmt 1
 1516 00b6 0223     		movs	r3, #2
 1517 00b8 29E0     		b	.L105
 1518              	.L113:
 1519              		.loc 1 1094 0
 1520 00ba BDF80220 		ldrh	r2, [sp, #2]	@ movhi
 1521 00be BDF80A30 		ldrh	r3, [sp, #10]	@ movhi
 1522 00c2 D31A     		subs	r3, r2, r3
 1523 00c4 ADF80230 		strh	r3, [sp, #2]	@ movhi
 1524              	.L110:
 1525              		.loc 1 1089 0 discriminator 1
 1526 00c8 BDF80220 		ldrh	r2, [sp, #2]
ARM GAS  /tmp/ccIWRJEN.s 			page 28


 1527 00cc BDF80A30 		ldrh	r3, [sp, #10]
 1528 00d0 9A42     		cmp	r2, r3
 1529 00d2 DAD2     		bcs	.L114
 1530              		.loc 1 1096 0
 1531 00d4 019B     		ldr	r3, [sp, #4]
 1532 00d6 039A     		ldr	r2, [sp, #12]
 1533 00d8 DA60     		str	r2, [r3, #12]
 1534              		.loc 1 1097 0
 1535 00da 019B     		ldr	r3, [sp, #4]
 1536 00dc 1B68     		ldr	r3, [r3]
 1537 00de 1846     		mov	r0, r3
 1538 00e0 0399     		ldr	r1, [sp, #12]
 1539 00e2 FFF7FEFF 		bl	clust2sect
 1540 00e6 0246     		mov	r2, r0
 1541 00e8 BDF80230 		ldrh	r3, [sp, #2]
 1542 00ec 1B09     		lsrs	r3, r3, #4
 1543 00ee 9BB2     		uxth	r3, r3
 1544 00f0 1A44     		add	r2, r2, r3
 1545 00f2 019B     		ldr	r3, [sp, #4]
 1546 00f4 1A61     		str	r2, [r3, #16]
 1547              	.L109:
 1548              		.loc 1 1100 0
 1549 00f6 019B     		ldr	r3, [sp, #4]
 1550 00f8 1A68     		ldr	r2, [r3]
 1551 00fa BDF80230 		ldrh	r3, [sp, #2]
 1552 00fe 03F00F03 		and	r3, r3, #15
 1553 0102 5B01     		lsls	r3, r3, #5
 1554 0104 3033     		adds	r3, r3, #48
 1555 0106 1A44     		add	r2, r2, r3
 1556 0108 019B     		ldr	r3, [sp, #4]
 1557 010a 5A61     		str	r2, [r3, #20]
 1558              		.loc 1 1102 0
 1559 010c 0023     		movs	r3, #0
 1560              	.L105:
 1561              		.loc 1 1103 0
 1562 010e 1846     		mov	r0, r3
 1563 0110 05B0     		add	sp, sp, #20
 1564              		@ sp needed
 1565 0112 5DF804FB 		ldr	pc, [sp], #4
 1566              		.cfi_endproc
 1567              	.LFE18:
 1568              		.size	dir_sdi, .-dir_sdi
 1569 0116 00BFAFF3 		.section	.text.dir_next,"ax",%progbits
 1569      0080AFF3 
 1569      0080
 1570              		.align	2
 1571              		.p2align 4,,15
 1572              		.thumb
 1573              		.thumb_func
 1574              		.type	dir_next, %function
 1575              	dir_next:
 1576              	.LFB19:
 1577              		.loc 1 1117 0
 1578              		.cfi_startproc
 1579              		@ args = 0, pretend = 0, frame = 16
 1580              		@ frame_needed = 0, uses_anonymous_args = 0
 1581 0000 10B5     		push	{r4, lr}
ARM GAS  /tmp/ccIWRJEN.s 			page 29


 1582              		.cfi_def_cfa_offset 8
 1583              		.cfi_offset 4, -8
 1584              		.cfi_offset 14, -4
 1585 0002 84B0     		sub	sp, sp, #16
 1586              		.cfi_def_cfa_offset 24
 1587 0004 0190     		str	r0, [sp, #4]
 1588 0006 0091     		str	r1, [sp]
 1589              		.loc 1 1123 0
 1590 0008 019B     		ldr	r3, [sp, #4]
 1591 000a DB88     		ldrh	r3, [r3, #6]
 1592 000c 0133     		adds	r3, r3, #1
 1593 000e ADF80830 		strh	r3, [sp, #8]	@ movhi
 1594              		.loc 1 1124 0
 1595 0012 BDF80830 		ldrh	r3, [sp, #8]
 1596 0016 002B     		cmp	r3, #0
 1597 0018 03D0     		beq	.L116
 1598              		.loc 1 1124 0 is_stmt 0 discriminator 1
 1599 001a 019B     		ldr	r3, [sp, #4]
 1600 001c 1B69     		ldr	r3, [r3, #16]
 1601 001e 002B     		cmp	r3, #0
 1602 0020 01D1     		bne	.L117
 1603              	.L116:
 1604              		.loc 1 1125 0 is_stmt 1
 1605 0022 0423     		movs	r3, #4
 1606 0024 C6E0     		b	.L118
 1607              	.L117:
 1608              		.loc 1 1127 0
 1609 0026 BDF80830 		ldrh	r3, [sp, #8]	@ movhi
 1610 002a 03F00F03 		and	r3, r3, #15
 1611 002e 9BB2     		uxth	r3, r3
 1612 0030 002B     		cmp	r3, #0
 1613 0032 40F0AF80 		bne	.L119
 1614              		.loc 1 1128 0
 1615 0036 019B     		ldr	r3, [sp, #4]
 1616 0038 1B69     		ldr	r3, [r3, #16]
 1617 003a 5A1C     		adds	r2, r3, #1
 1618 003c 019B     		ldr	r3, [sp, #4]
 1619 003e 1A61     		str	r2, [r3, #16]
 1620              		.loc 1 1130 0
 1621 0040 019B     		ldr	r3, [sp, #4]
 1622 0042 DB68     		ldr	r3, [r3, #12]
 1623 0044 002B     		cmp	r3, #0
 1624 0046 09D1     		bne	.L120
 1625              		.loc 1 1131 0
 1626 0048 019B     		ldr	r3, [sp, #4]
 1627 004a 1B68     		ldr	r3, [r3]
 1628 004c 1B89     		ldrh	r3, [r3, #8]
 1629 004e BDF80820 		ldrh	r2, [sp, #8]
 1630 0052 9A42     		cmp	r2, r3
 1631 0054 C0F09E80 		bcc	.L119
 1632              		.loc 1 1132 0
 1633 0058 0423     		movs	r3, #4
 1634 005a ABE0     		b	.L118
 1635              	.L120:
 1636              		.loc 1 1135 0
 1637 005c BDF80830 		ldrh	r3, [sp, #8]
 1638 0060 1B09     		lsrs	r3, r3, #4
ARM GAS  /tmp/ccIWRJEN.s 			page 30


 1639 0062 9BB2     		uxth	r3, r3
 1640 0064 1A46     		mov	r2, r3
 1641 0066 019B     		ldr	r3, [sp, #4]
 1642 0068 1B68     		ldr	r3, [r3]
 1643 006a 9B78     		ldrb	r3, [r3, #2]	@ zero_extendqisi2
 1644 006c 013B     		subs	r3, r3, #1
 1645 006e 1340     		ands	r3, r3, r2
 1646 0070 002B     		cmp	r3, #0
 1647 0072 40F08F80 		bne	.L119
 1648              		.loc 1 1136 0
 1649 0076 019B     		ldr	r3, [sp, #4]
 1650 0078 1A68     		ldr	r2, [r3]
 1651 007a 019B     		ldr	r3, [sp, #4]
 1652 007c DB68     		ldr	r3, [r3, #12]
 1653 007e 1046     		mov	r0, r2
 1654 0080 1946     		mov	r1, r3
 1655 0082 FFF7FEFF 		bl	get_fat
 1656 0086 0390     		str	r0, [sp, #12]
 1657              		.loc 1 1137 0
 1658 0088 039B     		ldr	r3, [sp, #12]
 1659 008a 012B     		cmp	r3, #1
 1660 008c 01D8     		bhi	.L121
 1661              		.loc 1 1137 0 is_stmt 0 discriminator 1
 1662 008e 0223     		movs	r3, #2
 1663 0090 90E0     		b	.L118
 1664              	.L121:
 1665              		.loc 1 1138 0 is_stmt 1
 1666 0092 039B     		ldr	r3, [sp, #12]
 1667 0094 B3F1FF3F 		cmp	r3, #-1
 1668 0098 01D1     		bne	.L122
 1669              		.loc 1 1138 0 is_stmt 0 discriminator 1
 1670 009a 0123     		movs	r3, #1
 1671 009c 8AE0     		b	.L118
 1672              	.L122:
 1673              		.loc 1 1139 0 is_stmt 1
 1674 009e 019B     		ldr	r3, [sp, #4]
 1675 00a0 1B68     		ldr	r3, [r3]
 1676 00a2 9A69     		ldr	r2, [r3, #24]
 1677 00a4 039B     		ldr	r3, [sp, #12]
 1678 00a6 9A42     		cmp	r2, r3
 1679 00a8 68D8     		bhi	.L123
 1680              	.LBB3:
 1681              		.loc 1 1142 0
 1682 00aa 009B     		ldr	r3, [sp]
 1683 00ac 002B     		cmp	r3, #0
 1684 00ae 01D1     		bne	.L124
 1685              		.loc 1 1142 0 is_stmt 0 discriminator 1
 1686 00b0 0423     		movs	r3, #4
 1687 00b2 7FE0     		b	.L118
 1688              	.L124:
 1689              		.loc 1 1143 0 is_stmt 1
 1690 00b4 019B     		ldr	r3, [sp, #4]
 1691 00b6 1A68     		ldr	r2, [r3]
 1692 00b8 019B     		ldr	r3, [sp, #4]
 1693 00ba DB68     		ldr	r3, [r3, #12]
 1694 00bc 1046     		mov	r0, r2
 1695 00be 1946     		mov	r1, r3
ARM GAS  /tmp/ccIWRJEN.s 			page 31


 1696 00c0 FFF7FEFF 		bl	create_chain
 1697 00c4 0390     		str	r0, [sp, #12]
 1698              		.loc 1 1144 0
 1699 00c6 039B     		ldr	r3, [sp, #12]
 1700 00c8 002B     		cmp	r3, #0
 1701 00ca 01D1     		bne	.L125
 1702              		.loc 1 1144 0 is_stmt 0 discriminator 1
 1703 00cc 0723     		movs	r3, #7
 1704 00ce 71E0     		b	.L118
 1705              	.L125:
 1706              		.loc 1 1145 0 is_stmt 1
 1707 00d0 039B     		ldr	r3, [sp, #12]
 1708 00d2 012B     		cmp	r3, #1
 1709 00d4 01D1     		bne	.L126
 1710              		.loc 1 1145 0 is_stmt 0 discriminator 1
 1711 00d6 0223     		movs	r3, #2
 1712 00d8 6CE0     		b	.L118
 1713              	.L126:
 1714              		.loc 1 1146 0 is_stmt 1
 1715 00da 039B     		ldr	r3, [sp, #12]
 1716 00dc B3F1FF3F 		cmp	r3, #-1
 1717 00e0 01D1     		bne	.L127
 1718              		.loc 1 1146 0 is_stmt 0 discriminator 1
 1719 00e2 0123     		movs	r3, #1
 1720 00e4 66E0     		b	.L118
 1721              	.L127:
 1722              		.loc 1 1148 0 is_stmt 1
 1723 00e6 019B     		ldr	r3, [sp, #4]
 1724 00e8 1B68     		ldr	r3, [r3]
 1725 00ea 1846     		mov	r0, r3
 1726 00ec 0021     		movs	r1, #0
 1727 00ee FFF7FEFF 		bl	move_window
 1728 00f2 0346     		mov	r3, r0
 1729 00f4 002B     		cmp	r3, #0
 1730 00f6 01D0     		beq	.L128
 1731              		.loc 1 1148 0 is_stmt 0 discriminator 1
 1732 00f8 0123     		movs	r3, #1
 1733 00fa 5BE0     		b	.L118
 1734              	.L128:
 1735              		.loc 1 1149 0 is_stmt 1
 1736 00fc 019B     		ldr	r3, [sp, #4]
 1737 00fe 1B68     		ldr	r3, [r3]
 1738 0100 3033     		adds	r3, r3, #48
 1739 0102 1846     		mov	r0, r3
 1740 0104 0021     		movs	r1, #0
 1741 0106 4FF40072 		mov	r2, #512
 1742 010a FFF7FEFF 		bl	mem_set
 1743              		.loc 1 1150 0
 1744 010e 019B     		ldr	r3, [sp, #4]
 1745 0110 1C68     		ldr	r4, [r3]
 1746 0112 019B     		ldr	r3, [sp, #4]
 1747 0114 1B68     		ldr	r3, [r3]
 1748 0116 1846     		mov	r0, r3
 1749 0118 0399     		ldr	r1, [sp, #12]
 1750 011a FFF7FEFF 		bl	clust2sect
 1751 011e 0346     		mov	r3, r0
 1752 0120 E362     		str	r3, [r4, #44]
ARM GAS  /tmp/ccIWRJEN.s 			page 32


 1753              		.loc 1 1151 0
 1754 0122 0023     		movs	r3, #0
 1755 0124 8DF80B30 		strb	r3, [sp, #11]
 1756 0128 18E0     		b	.L129
 1757              	.L131:
 1758              		.loc 1 1152 0
 1759 012a 019B     		ldr	r3, [sp, #4]
 1760 012c 1B68     		ldr	r3, [r3]
 1761 012e 0122     		movs	r2, #1
 1762 0130 1A71     		strb	r2, [r3, #4]
 1763              		.loc 1 1153 0
 1764 0132 019B     		ldr	r3, [sp, #4]
 1765 0134 1B68     		ldr	r3, [r3]
 1766 0136 1846     		mov	r0, r3
 1767 0138 0021     		movs	r1, #0
 1768 013a FFF7FEFF 		bl	move_window
 1769 013e 0346     		mov	r3, r0
 1770 0140 002B     		cmp	r3, #0
 1771 0142 01D0     		beq	.L130
 1772              		.loc 1 1153 0 is_stmt 0 discriminator 1
 1773 0144 0123     		movs	r3, #1
 1774 0146 35E0     		b	.L118
 1775              	.L130:
 1776              		.loc 1 1154 0 is_stmt 1
 1777 0148 019B     		ldr	r3, [sp, #4]
 1778 014a 1B68     		ldr	r3, [r3]
 1779 014c DA6A     		ldr	r2, [r3, #44]
 1780 014e 0132     		adds	r2, r2, #1
 1781 0150 DA62     		str	r2, [r3, #44]
 1782              		.loc 1 1151 0
 1783 0152 9DF80B30 		ldrb	r3, [sp, #11]	@ zero_extendqisi2
 1784 0156 0133     		adds	r3, r3, #1
 1785 0158 8DF80B30 		strb	r3, [sp, #11]
 1786              	.L129:
 1787              		.loc 1 1151 0 is_stmt 0 discriminator 1
 1788 015c 019B     		ldr	r3, [sp, #4]
 1789 015e 1B68     		ldr	r3, [r3]
 1790 0160 9B78     		ldrb	r3, [r3, #2]	@ zero_extendqisi2
 1791 0162 9DF80B20 		ldrb	r2, [sp, #11]	@ zero_extendqisi2
 1792 0166 9A42     		cmp	r2, r3
 1793 0168 DFD3     		bcc	.L131
 1794              		.loc 1 1156 0 is_stmt 1
 1795 016a 019B     		ldr	r3, [sp, #4]
 1796 016c 1B68     		ldr	r3, [r3]
 1797 016e 019A     		ldr	r2, [sp, #4]
 1798 0170 1268     		ldr	r2, [r2]
 1799 0172 D16A     		ldr	r1, [r2, #44]
 1800 0174 9DF80B20 		ldrb	r2, [sp, #11]	@ zero_extendqisi2
 1801 0178 8A1A     		subs	r2, r1, r2
 1802 017a DA62     		str	r2, [r3, #44]
 1803              	.L123:
 1804              	.LBE3:
 1805              		.loc 1 1161 0
 1806 017c 019B     		ldr	r3, [sp, #4]
 1807 017e 039A     		ldr	r2, [sp, #12]
 1808 0180 DA60     		str	r2, [r3, #12]
 1809              		.loc 1 1162 0
ARM GAS  /tmp/ccIWRJEN.s 			page 33


 1810 0182 019B     		ldr	r3, [sp, #4]
 1811 0184 1B68     		ldr	r3, [r3]
 1812 0186 1846     		mov	r0, r3
 1813 0188 0399     		ldr	r1, [sp, #12]
 1814 018a FFF7FEFF 		bl	clust2sect
 1815 018e 0246     		mov	r2, r0
 1816 0190 019B     		ldr	r3, [sp, #4]
 1817 0192 1A61     		str	r2, [r3, #16]
 1818              	.L119:
 1819              		.loc 1 1167 0
 1820 0194 019B     		ldr	r3, [sp, #4]
 1821 0196 BDF80820 		ldrh	r2, [sp, #8]	@ movhi
 1822 019a DA80     		strh	r2, [r3, #6]	@ movhi
 1823              		.loc 1 1168 0
 1824 019c 019B     		ldr	r3, [sp, #4]
 1825 019e 1A68     		ldr	r2, [r3]
 1826 01a0 BDF80830 		ldrh	r3, [sp, #8]
 1827 01a4 03F00F03 		and	r3, r3, #15
 1828 01a8 5B01     		lsls	r3, r3, #5
 1829 01aa 3033     		adds	r3, r3, #48
 1830 01ac 1A44     		add	r2, r2, r3
 1831 01ae 019B     		ldr	r3, [sp, #4]
 1832 01b0 5A61     		str	r2, [r3, #20]
 1833              		.loc 1 1170 0
 1834 01b2 0023     		movs	r3, #0
 1835              	.L118:
 1836              		.loc 1 1171 0
 1837 01b4 1846     		mov	r0, r3
 1838 01b6 04B0     		add	sp, sp, #16
 1839              		@ sp needed
 1840 01b8 10BD     		pop	{r4, pc}
 1841              		.cfi_endproc
 1842              	.LFE19:
 1843              		.size	dir_next, .-dir_next
 1844 01ba 00BFAFF3 		.section	.rodata.LfnOfs,"a",%progbits
 1844      0080
 1845              		.align	2
 1846              		.type	LfnOfs, %object
 1847              		.size	LfnOfs, 13
 1848              	LfnOfs:
 1849 0000 01       		.byte	1
 1850 0001 03       		.byte	3
 1851 0002 05       		.byte	5
 1852 0003 07       		.byte	7
 1853 0004 09       		.byte	9
 1854 0005 0E       		.byte	14
 1855 0006 10       		.byte	16
 1856 0007 12       		.byte	18
 1857 0008 14       		.byte	20
 1858 0009 16       		.byte	22
 1859 000a 18       		.byte	24
 1860 000b 1C       		.byte	28
 1861 000c 1E       		.byte	30
 1862 000d 000000   		.section	.text.cmp_lfn,"ax",%progbits
 1863              		.align	2
 1864              		.p2align 4,,15
 1865              		.thumb
ARM GAS  /tmp/ccIWRJEN.s 			page 34


 1866              		.thumb_func
 1867              		.type	cmp_lfn, %function
 1868              	cmp_lfn:
 1869              	.LFB20:
 1870              		.loc 1 1189 0
 1871              		.cfi_startproc
 1872              		@ args = 0, pretend = 0, frame = 24
 1873              		@ frame_needed = 0, uses_anonymous_args = 0
 1874 0000 00B5     		push	{lr}
 1875              		.cfi_def_cfa_offset 4
 1876              		.cfi_offset 14, -4
 1877 0002 87B0     		sub	sp, sp, #28
 1878              		.cfi_def_cfa_offset 32
 1879 0004 0190     		str	r0, [sp, #4]
 1880 0006 0091     		str	r1, [sp]
 1881              		.loc 1 1194 0
 1882 0008 009B     		ldr	r3, [sp]
 1883 000a 1B78     		ldrb	r3, [r3]	@ zero_extendqisi2
 1884 000c 23F04003 		bic	r3, r3, #64
 1885 0010 5A1E     		subs	r2, r3, #1
 1886 0012 1346     		mov	r3, r2
 1887 0014 5B00     		lsls	r3, r3, #1
 1888 0016 1344     		add	r3, r3, r2
 1889 0018 9B00     		lsls	r3, r3, #2
 1890 001a 1344     		add	r3, r3, r2
 1891 001c 0593     		str	r3, [sp, #20]
 1892              		.loc 1 1195 0
 1893 001e 0023     		movs	r3, #0
 1894 0020 0493     		str	r3, [sp, #16]
 1895 0022 0123     		movs	r3, #1
 1896 0024 ADF80E30 		strh	r3, [sp, #14]	@ movhi
 1897              	.L137:
 1898              		.loc 1 1197 0
 1899 0028 40F20003 		movw	r3, #:lower16:LfnOfs
 1900 002c C0F20003 		movt	r3, #:upper16:LfnOfs
 1901 0030 049A     		ldr	r2, [sp, #16]
 1902 0032 1344     		add	r3, r3, r2
 1903 0034 1B78     		ldrb	r3, [r3]	@ zero_extendqisi2
 1904 0036 009A     		ldr	r2, [sp]
 1905 0038 1344     		add	r3, r3, r2
 1906 003a 1B88     		ldrh	r3, [r3]	@ movhi
 1907 003c ADF80C30 		strh	r3, [sp, #12]	@ movhi
 1908              		.loc 1 1198 0
 1909 0040 BDF80E30 		ldrh	r3, [sp, #14]
 1910 0044 002B     		cmp	r3, #0
 1911 0046 1BD0     		beq	.L133
 1912              		.loc 1 1199 0
 1913 0048 BDF80C30 		ldrh	r3, [sp, #12]
 1914 004c 1846     		mov	r0, r3
 1915 004e FFF7FEFF 		bl	ff_wtoupper
 1916 0052 0346     		mov	r3, r0
 1917 0054 ADF80E30 		strh	r3, [sp, #14]	@ movhi
 1918              		.loc 1 1200 0
 1919 0058 059B     		ldr	r3, [sp, #20]
 1920 005a FE2B     		cmp	r3, #254
 1921 005c 0ED8     		bhi	.L134
 1922              		.loc 1 1200 0 is_stmt 0 discriminator 1
ARM GAS  /tmp/ccIWRJEN.s 			page 35


 1923 005e 059B     		ldr	r3, [sp, #20]
 1924 0060 5A1C     		adds	r2, r3, #1
 1925 0062 0592     		str	r2, [sp, #20]
 1926 0064 5B00     		lsls	r3, r3, #1
 1927 0066 019A     		ldr	r2, [sp, #4]
 1928 0068 1344     		add	r3, r3, r2
 1929 006a 1B88     		ldrh	r3, [r3]
 1930 006c 1846     		mov	r0, r3
 1931 006e FFF7FEFF 		bl	ff_wtoupper
 1932 0072 0346     		mov	r3, r0
 1933 0074 BDF80E20 		ldrh	r2, [sp, #14]
 1934 0078 9A42     		cmp	r2, r3
 1935 007a 09D0     		beq	.L135
 1936              	.L134:
 1937              		.loc 1 1201 0 is_stmt 1
 1938 007c 0023     		movs	r3, #0
 1939 007e 21E0     		b	.L136
 1940              	.L133:
 1941              		.loc 1 1203 0
 1942 0080 BDF80C20 		ldrh	r2, [sp, #12]
 1943 0084 4FF6FF73 		movw	r3, #65535
 1944 0088 9A42     		cmp	r2, r3
 1945 008a 01D0     		beq	.L135
 1946              		.loc 1 1203 0 is_stmt 0 discriminator 1
 1947 008c 0023     		movs	r3, #0
 1948 008e 19E0     		b	.L136
 1949              	.L135:
 1950              		.loc 1 1205 0 is_stmt 1
 1951 0090 049B     		ldr	r3, [sp, #16]
 1952 0092 0133     		adds	r3, r3, #1
 1953 0094 0493     		str	r3, [sp, #16]
 1954 0096 049B     		ldr	r3, [sp, #16]
 1955 0098 0C2B     		cmp	r3, #12
 1956 009a C5D9     		bls	.L137
 1957              		.loc 1 1207 0
 1958 009c 009B     		ldr	r3, [sp]
 1959 009e 1B78     		ldrb	r3, [r3]	@ zero_extendqisi2
 1960 00a0 03F04003 		and	r3, r3, #64
 1961 00a4 002B     		cmp	r3, #0
 1962 00a6 0CD0     		beq	.L138
 1963              		.loc 1 1207 0 is_stmt 0 discriminator 1
 1964 00a8 BDF80E30 		ldrh	r3, [sp, #14]
 1965 00ac 002B     		cmp	r3, #0
 1966 00ae 08D0     		beq	.L138
 1967 00b0 059B     		ldr	r3, [sp, #20]
 1968 00b2 5B00     		lsls	r3, r3, #1
 1969 00b4 019A     		ldr	r2, [sp, #4]
 1970 00b6 1344     		add	r3, r3, r2
 1971 00b8 1B88     		ldrh	r3, [r3]
 1972 00ba 002B     		cmp	r3, #0
 1973 00bc 01D0     		beq	.L138
 1974              		.loc 1 1208 0 is_stmt 1
 1975 00be 0023     		movs	r3, #0
 1976 00c0 00E0     		b	.L136
 1977              	.L138:
 1978              		.loc 1 1210 0
 1979 00c2 0123     		movs	r3, #1
ARM GAS  /tmp/ccIWRJEN.s 			page 36


 1980              	.L136:
 1981              		.loc 1 1211 0
 1982 00c4 1846     		mov	r0, r3
 1983 00c6 07B0     		add	sp, sp, #28
 1984              		@ sp needed
 1985 00c8 5DF804FB 		ldr	pc, [sp], #4
 1986              		.cfi_endproc
 1987              	.LFE20:
 1988              		.size	cmp_lfn, .-cmp_lfn
 1989 00cc AFF30080 		.section	.text.pick_lfn,"ax",%progbits
 1990              		.align	2
 1991              		.p2align 4,,15
 1992              		.thumb
 1993              		.thumb_func
 1994              		.type	pick_lfn, %function
 1995              	pick_lfn:
 1996              	.LFB21:
 1997              		.loc 1 1220 0
 1998              		.cfi_startproc
 1999              		@ args = 0, pretend = 0, frame = 24
 2000              		@ frame_needed = 0, uses_anonymous_args = 0
 2001              		@ link register save eliminated.
 2002 0000 86B0     		sub	sp, sp, #24
 2003              		.cfi_def_cfa_offset 24
 2004 0002 0190     		str	r0, [sp, #4]
 2005 0004 0091     		str	r1, [sp]
 2006              		.loc 1 1225 0
 2007 0006 009B     		ldr	r3, [sp]
 2008 0008 1B78     		ldrb	r3, [r3]	@ zero_extendqisi2
 2009 000a 03F03F03 		and	r3, r3, #63
 2010 000e 5A1E     		subs	r2, r3, #1
 2011 0010 1346     		mov	r3, r2
 2012 0012 5B00     		lsls	r3, r3, #1
 2013 0014 1344     		add	r3, r3, r2
 2014 0016 9B00     		lsls	r3, r3, #2
 2015 0018 1344     		add	r3, r3, r2
 2016 001a 0593     		str	r3, [sp, #20]
 2017              		.loc 1 1227 0
 2018 001c 0023     		movs	r3, #0
 2019 001e 0493     		str	r3, [sp, #16]
 2020 0020 0123     		movs	r3, #1
 2021 0022 ADF80E30 		strh	r3, [sp, #14]	@ movhi
 2022              	.L144:
 2023              		.loc 1 1229 0
 2024 0026 40F20003 		movw	r3, #:lower16:LfnOfs
 2025 002a C0F20003 		movt	r3, #:upper16:LfnOfs
 2026 002e 049A     		ldr	r2, [sp, #16]
 2027 0030 1344     		add	r3, r3, r2
 2028 0032 1B78     		ldrb	r3, [r3]	@ zero_extendqisi2
 2029 0034 009A     		ldr	r2, [sp]
 2030 0036 1344     		add	r3, r3, r2
 2031 0038 1B88     		ldrh	r3, [r3]	@ movhi
 2032 003a ADF80C30 		strh	r3, [sp, #12]	@ movhi
 2033              		.loc 1 1230 0
 2034 003e BDF80E30 		ldrh	r3, [sp, #14]
 2035 0042 002B     		cmp	r3, #0
 2036 0044 12D0     		beq	.L140
ARM GAS  /tmp/ccIWRJEN.s 			page 37


 2037              		.loc 1 1231 0
 2038 0046 059B     		ldr	r3, [sp, #20]
 2039 0048 FE2B     		cmp	r3, #254
 2040 004a 01D9     		bls	.L141
 2041              		.loc 1 1231 0 is_stmt 0 discriminator 1
 2042 004c 0023     		movs	r3, #0
 2043 004e 2DE0     		b	.L142
 2044              	.L141:
 2045              		.loc 1 1232 0 is_stmt 1
 2046 0050 059B     		ldr	r3, [sp, #20]
 2047 0052 5A1C     		adds	r2, r3, #1
 2048 0054 0592     		str	r2, [sp, #20]
 2049 0056 5B00     		lsls	r3, r3, #1
 2050 0058 019A     		ldr	r2, [sp, #4]
 2051 005a 1344     		add	r3, r3, r2
 2052 005c BDF80C20 		ldrh	r2, [sp, #12]	@ movhi
 2053 0060 ADF80E20 		strh	r2, [sp, #14]	@ movhi
 2054 0064 BDF80E20 		ldrh	r2, [sp, #14]	@ movhi
 2055 0068 1A80     		strh	r2, [r3]	@ movhi
 2056 006a 07E0     		b	.L143
 2057              	.L140:
 2058              		.loc 1 1234 0
 2059 006c BDF80C20 		ldrh	r2, [sp, #12]
 2060 0070 4FF6FF73 		movw	r3, #65535
 2061 0074 9A42     		cmp	r2, r3
 2062 0076 01D0     		beq	.L143
 2063              		.loc 1 1234 0 is_stmt 0 discriminator 1
 2064 0078 0023     		movs	r3, #0
 2065 007a 17E0     		b	.L142
 2066              	.L143:
 2067              		.loc 1 1236 0 is_stmt 1
 2068 007c 049B     		ldr	r3, [sp, #16]
 2069 007e 0133     		adds	r3, r3, #1
 2070 0080 0493     		str	r3, [sp, #16]
 2071 0082 049B     		ldr	r3, [sp, #16]
 2072 0084 0C2B     		cmp	r3, #12
 2073 0086 CED9     		bls	.L144
 2074              		.loc 1 1238 0
 2075 0088 009B     		ldr	r3, [sp]
 2076 008a 1B78     		ldrb	r3, [r3]	@ zero_extendqisi2
 2077 008c 03F04003 		and	r3, r3, #64
 2078 0090 002B     		cmp	r3, #0
 2079 0092 0AD0     		beq	.L145
 2080              		.loc 1 1239 0
 2081 0094 059B     		ldr	r3, [sp, #20]
 2082 0096 FE2B     		cmp	r3, #254
 2083 0098 01D9     		bls	.L146
 2084              		.loc 1 1239 0 is_stmt 0 discriminator 1
 2085 009a 0023     		movs	r3, #0
 2086 009c 06E0     		b	.L142
 2087              	.L146:
 2088              		.loc 1 1240 0 is_stmt 1
 2089 009e 059B     		ldr	r3, [sp, #20]
 2090 00a0 5B00     		lsls	r3, r3, #1
 2091 00a2 019A     		ldr	r2, [sp, #4]
 2092 00a4 1344     		add	r3, r3, r2
 2093 00a6 0022     		movs	r2, #0
ARM GAS  /tmp/ccIWRJEN.s 			page 38


 2094 00a8 1A80     		strh	r2, [r3]	@ movhi
 2095              	.L145:
 2096              		.loc 1 1243 0
 2097 00aa 0123     		movs	r3, #1
 2098              	.L142:
 2099              		.loc 1 1244 0
 2100 00ac 1846     		mov	r0, r3
 2101 00ae 06B0     		add	sp, sp, #24
 2102              		@ sp needed
 2103 00b0 7047     		bx	lr
 2104              		.cfi_endproc
 2105              	.LFE21:
 2106              		.size	pick_lfn, .-pick_lfn
 2107 00b2 00BFAFF3 		.section	.text.fit_lfn,"ax",%progbits
 2107      0080AFF3 
 2107      0080AFF3 
 2107      0080
 2108              		.align	2
 2109              		.p2align 4,,15
 2110              		.thumb
 2111              		.thumb_func
 2112              		.type	fit_lfn, %function
 2113              	fit_lfn:
 2114              	.LFB22:
 2115              		.loc 1 1255 0
 2116              		.cfi_startproc
 2117              		@ args = 0, pretend = 0, frame = 32
 2118              		@ frame_needed = 0, uses_anonymous_args = 0
 2119              		@ link register save eliminated.
 2120 0000 88B0     		sub	sp, sp, #32
 2121              		.cfi_def_cfa_offset 32
 2122 0002 0390     		str	r0, [sp, #12]
 2123 0004 0291     		str	r1, [sp, #8]
 2124 0006 8DF80720 		strb	r2, [sp, #7]
 2125 000a 8DF80630 		strb	r3, [sp, #6]
 2126              		.loc 1 1260 0
 2127 000e 029B     		ldr	r3, [sp, #8]
 2128 0010 0D33     		adds	r3, r3, #13
 2129 0012 9DF80620 		ldrb	r2, [sp, #6]
 2130 0016 1A70     		strb	r2, [r3]
 2131              		.loc 1 1261 0
 2132 0018 029B     		ldr	r3, [sp, #8]
 2133 001a 0B33     		adds	r3, r3, #11
 2134 001c 0F22     		movs	r2, #15
 2135 001e 1A70     		strb	r2, [r3]
 2136              		.loc 1 1262 0
 2137 0020 029B     		ldr	r3, [sp, #8]
 2138 0022 0C33     		adds	r3, r3, #12
 2139 0024 0022     		movs	r2, #0
 2140 0026 1A70     		strb	r2, [r3]
 2141              		.loc 1 1263 0
 2142 0028 029B     		ldr	r3, [sp, #8]
 2143 002a 1A33     		adds	r3, r3, #26
 2144 002c 0022     		movs	r2, #0
 2145 002e 1A80     		strh	r2, [r3]	@ movhi
 2146              		.loc 1 1265 0
 2147 0030 9DF80730 		ldrb	r3, [sp, #7]	@ zero_extendqisi2
ARM GAS  /tmp/ccIWRJEN.s 			page 39


 2148 0034 5A1E     		subs	r2, r3, #1
 2149 0036 1346     		mov	r3, r2
 2150 0038 5B00     		lsls	r3, r3, #1
 2151 003a 1344     		add	r3, r3, r2
 2152 003c 9B00     		lsls	r3, r3, #2
 2153 003e 1344     		add	r3, r3, r2
 2154 0040 0793     		str	r3, [sp, #28]
 2155              		.loc 1 1266 0
 2156 0042 0023     		movs	r3, #0
 2157 0044 ADF81630 		strh	r3, [sp, #22]	@ movhi
 2158 0048 0023     		movs	r3, #0
 2159 004a 0693     		str	r3, [sp, #24]
 2160              	.L150:
 2161              		.loc 1 1268 0
 2162 004c BDF81620 		ldrh	r2, [sp, #22]
 2163 0050 4FF6FF73 		movw	r3, #65535
 2164 0054 9A42     		cmp	r2, r3
 2165 0056 08D0     		beq	.L148
 2166              		.loc 1 1268 0 is_stmt 0 discriminator 1
 2167 0058 079B     		ldr	r3, [sp, #28]
 2168 005a 5A1C     		adds	r2, r3, #1
 2169 005c 0792     		str	r2, [sp, #28]
 2170 005e 5B00     		lsls	r3, r3, #1
 2171 0060 039A     		ldr	r2, [sp, #12]
 2172 0062 1344     		add	r3, r3, r2
 2173 0064 1B88     		ldrh	r3, [r3]	@ movhi
 2174 0066 ADF81630 		strh	r3, [sp, #22]	@ movhi
 2175              	.L148:
 2176              		.loc 1 1269 0 is_stmt 1
 2177 006a 40F20003 		movw	r3, #:lower16:LfnOfs
 2178 006e C0F20003 		movt	r3, #:upper16:LfnOfs
 2179 0072 069A     		ldr	r2, [sp, #24]
 2180 0074 1344     		add	r3, r3, r2
 2181 0076 1B78     		ldrb	r3, [r3]	@ zero_extendqisi2
 2182 0078 029A     		ldr	r2, [sp, #8]
 2183 007a 1344     		add	r3, r3, r2
 2184 007c BDF81620 		ldrh	r2, [sp, #22]	@ movhi
 2185 0080 1A80     		strh	r2, [r3]	@ movhi
 2186              		.loc 1 1270 0
 2187 0082 BDF81630 		ldrh	r3, [sp, #22]
 2188 0086 002B     		cmp	r3, #0
 2189 0088 03D1     		bne	.L149
 2190              		.loc 1 1270 0 is_stmt 0 discriminator 1
 2191 008a 4FF6FF73 		movw	r3, #65535
 2192 008e ADF81630 		strh	r3, [sp, #22]	@ movhi
 2193              	.L149:
 2194              		.loc 1 1271 0 is_stmt 1
 2195 0092 069B     		ldr	r3, [sp, #24]
 2196 0094 0133     		adds	r3, r3, #1
 2197 0096 0693     		str	r3, [sp, #24]
 2198 0098 069B     		ldr	r3, [sp, #24]
 2199 009a 0C2B     		cmp	r3, #12
 2200 009c D6D9     		bls	.L150
 2201              		.loc 1 1272 0
 2202 009e BDF81620 		ldrh	r2, [sp, #22]
 2203 00a2 4FF6FF73 		movw	r3, #65535
 2204 00a6 9A42     		cmp	r2, r3
ARM GAS  /tmp/ccIWRJEN.s 			page 40


 2205 00a8 06D0     		beq	.L151
 2206              		.loc 1 1272 0 is_stmt 0 discriminator 2
 2207 00aa 079B     		ldr	r3, [sp, #28]
 2208 00ac 5B00     		lsls	r3, r3, #1
 2209 00ae 039A     		ldr	r2, [sp, #12]
 2210 00b0 1344     		add	r3, r3, r2
 2211 00b2 1B88     		ldrh	r3, [r3]
 2212 00b4 002B     		cmp	r3, #0
 2213 00b6 05D1     		bne	.L152
 2214              	.L151:
 2215              		.loc 1 1272 0 discriminator 1
 2216 00b8 9DF80730 		ldrb	r3, [sp, #7]
 2217 00bc 43F04003 		orr	r3, r3, #64
 2218 00c0 8DF80730 		strb	r3, [sp, #7]
 2219              	.L152:
 2220              		.loc 1 1273 0 is_stmt 1
 2221 00c4 029B     		ldr	r3, [sp, #8]
 2222 00c6 9DF80720 		ldrb	r2, [sp, #7]
 2223 00ca 1A70     		strb	r2, [r3]
 2224              		.loc 1 1274 0
 2225 00cc 08B0     		add	sp, sp, #32
 2226              		@ sp needed
 2227 00ce 7047     		bx	lr
 2228              		.cfi_endproc
 2229              	.LFE22:
 2230              		.size	fit_lfn, .-fit_lfn
 2231              		.section	.text.gen_numname,"ax",%progbits
 2232              		.align	2
 2233              		.p2align 4,,15
 2234              		.global	gen_numname
 2235              		.thumb
 2236              		.thumb_func
 2237              		.type	gen_numname, %function
 2238              	gen_numname:
 2239              	.LFB23:
 2240              		.loc 1 1291 0
 2241              		.cfi_startproc
 2242              		@ args = 0, pretend = 0, frame = 40
 2243              		@ frame_needed = 0, uses_anonymous_args = 0
 2244 0000 00B5     		push	{lr}
 2245              		.cfi_def_cfa_offset 4
 2246              		.cfi_offset 14, -4
 2247 0002 8BB0     		sub	sp, sp, #44
 2248              		.cfi_def_cfa_offset 48
 2249 0004 0390     		str	r0, [sp, #12]
 2250 0006 0291     		str	r1, [sp, #8]
 2251 0008 0192     		str	r2, [sp, #4]
 2252 000a ADF80230 		strh	r3, [sp, #2]	@ movhi
 2253              		.loc 1 1296 0
 2254 000e 0398     		ldr	r0, [sp, #12]
 2255 0010 0299     		ldr	r1, [sp, #8]
 2256 0012 0B22     		movs	r2, #11
 2257 0014 FFF7FEFF 		bl	mem_cpy
 2258              		.loc 1 1298 0
 2259 0018 BDF80230 		ldrh	r3, [sp, #2]
 2260 001c 052B     		cmp	r3, #5
 2261 001e 11D9     		bls	.L154
ARM GAS  /tmp/ccIWRJEN.s 			page 41


 2262              	.L155:
 2263              		.loc 1 1299 0 discriminator 1
 2264 0020 BDF80230 		ldrh	r3, [sp, #2]	@ movhi
 2265 0024 9AB2     		uxth	r2, r3
 2266 0026 5208     		lsrs	r2, r2, #1
 2267 0028 DB03     		lsls	r3, r3, #15
 2268 002a 1343     		orrs	r3, r3, r2
 2269 002c 9AB2     		uxth	r2, r3
 2270 002e 019B     		ldr	r3, [sp, #4]
 2271 0030 991C     		adds	r1, r3, #2
 2272 0032 0191     		str	r1, [sp, #4]
 2273 0034 1B88     		ldrh	r3, [r3]
 2274 0036 1344     		add	r3, r3, r2
 2275 0038 ADF80230 		strh	r3, [sp, #2]	@ movhi
 2276 003c 019B     		ldr	r3, [sp, #4]
 2277 003e 1B88     		ldrh	r3, [r3]
 2278 0040 002B     		cmp	r3, #0
 2279 0042 EDD1     		bne	.L155
 2280              	.L154:
 2281              		.loc 1 1303 0
 2282 0044 0723     		movs	r3, #7
 2283 0046 0893     		str	r3, [sp, #32]
 2284              	.L157:
 2285              		.loc 1 1305 0
 2286 0048 BDF80230 		ldrh	r3, [sp, #2]	@ movhi
 2287 004c DBB2     		uxtb	r3, r3
 2288 004e 03F00F03 		and	r3, r3, #15
 2289 0052 DBB2     		uxtb	r3, r3
 2290 0054 3033     		adds	r3, r3, #48
 2291 0056 8DF82730 		strb	r3, [sp, #39]
 2292              		.loc 1 1306 0
 2293 005a 9DF82730 		ldrb	r3, [sp, #39]	@ zero_extendqisi2
 2294 005e 392B     		cmp	r3, #57
 2295 0060 04D9     		bls	.L156
 2296              		.loc 1 1306 0 is_stmt 0 discriminator 1
 2297 0062 9DF82730 		ldrb	r3, [sp, #39]
 2298 0066 0733     		adds	r3, r3, #7
 2299 0068 8DF82730 		strb	r3, [sp, #39]
 2300              	.L156:
 2301              		.loc 1 1307 0 is_stmt 1
 2302 006c 089B     		ldr	r3, [sp, #32]
 2303 006e 5A1E     		subs	r2, r3, #1
 2304 0070 0892     		str	r2, [sp, #32]
 2305 0072 0AA9     		add	r1, sp, #40
 2306 0074 0B44     		add	r3, r3, r1
 2307 0076 9DF82720 		ldrb	r2, [sp, #39]
 2308 007a 03F8142C 		strb	r2, [r3, #-20]
 2309              		.loc 1 1308 0
 2310 007e BDF80230 		ldrh	r3, [sp, #2]
 2311 0082 1B09     		lsrs	r3, r3, #4
 2312 0084 ADF80230 		strh	r3, [sp, #2]	@ movhi
 2313              		.loc 1 1309 0
 2314 0088 BDF80230 		ldrh	r3, [sp, #2]
 2315 008c 002B     		cmp	r3, #0
 2316 008e DBD1     		bne	.L157
 2317              		.loc 1 1310 0
 2318 0090 05AA     		add	r2, sp, #20
ARM GAS  /tmp/ccIWRJEN.s 			page 42


 2319 0092 089B     		ldr	r3, [sp, #32]
 2320 0094 1344     		add	r3, r3, r2
 2321 0096 7E22     		movs	r2, #126
 2322 0098 1A70     		strb	r2, [r3]
 2323              		.loc 1 1313 0
 2324 009a 0023     		movs	r3, #0
 2325 009c 0793     		str	r3, [sp, #28]
 2326 009e 02E0     		b	.L158
 2327              	.L160:
 2328 00a0 079B     		ldr	r3, [sp, #28]
 2329 00a2 0133     		adds	r3, r3, #1
 2330 00a4 0793     		str	r3, [sp, #28]
 2331              	.L158:
 2332              		.loc 1 1313 0 is_stmt 0 discriminator 1
 2333 00a6 079A     		ldr	r2, [sp, #28]
 2334 00a8 089B     		ldr	r3, [sp, #32]
 2335 00aa 9A42     		cmp	r2, r3
 2336 00ac 05D2     		bcs	.L159
 2337              		.loc 1 1313 0 discriminator 2
 2338 00ae 039A     		ldr	r2, [sp, #12]
 2339 00b0 079B     		ldr	r3, [sp, #28]
 2340 00b2 1344     		add	r3, r3, r2
 2341 00b4 1B78     		ldrb	r3, [r3]	@ zero_extendqisi2
 2342 00b6 202B     		cmp	r3, #32
 2343 00b8 F2D1     		bne	.L160
 2344              	.L159:
 2345              		.loc 1 1320 0 is_stmt 1
 2346 00ba 079B     		ldr	r3, [sp, #28]
 2347 00bc 5A1C     		adds	r2, r3, #1
 2348 00be 0792     		str	r2, [sp, #28]
 2349 00c0 039A     		ldr	r2, [sp, #12]
 2350 00c2 1A44     		add	r2, r2, r3
 2351 00c4 089B     		ldr	r3, [sp, #32]
 2352 00c6 072B     		cmp	r3, #7
 2353 00c8 07D8     		bhi	.L161
 2354              		.loc 1 1320 0 is_stmt 0 discriminator 1
 2355 00ca 089B     		ldr	r3, [sp, #32]
 2356 00cc 591C     		adds	r1, r3, #1
 2357 00ce 0891     		str	r1, [sp, #32]
 2358 00d0 0AA9     		add	r1, sp, #40
 2359 00d2 0B44     		add	r3, r3, r1
 2360 00d4 13F8143C 		ldrb	r3, [r3, #-20]	@ zero_extendqisi2
 2361 00d8 00E0     		b	.L162
 2362              	.L161:
 2363              		.loc 1 1320 0 discriminator 2
 2364 00da 2023     		movs	r3, #32
 2365              	.L162:
 2366              		.loc 1 1320 0 discriminator 3
 2367 00dc 1370     		strb	r3, [r2]
 2368              		.loc 1 1321 0 is_stmt 1 discriminator 3
 2369 00de 079B     		ldr	r3, [sp, #28]
 2370 00e0 072B     		cmp	r3, #7
 2371 00e2 EAD9     		bls	.L159
 2372              		.loc 1 1322 0
 2373 00e4 0BB0     		add	sp, sp, #44
 2374              		@ sp needed
 2375 00e6 5DF804FB 		ldr	pc, [sp], #4
ARM GAS  /tmp/ccIWRJEN.s 			page 43


 2376              		.cfi_endproc
 2377              	.LFE23:
 2378              		.size	gen_numname, .-gen_numname
 2379 00ea 00BFAFF3 		.section	.text.sum_sfn,"ax",%progbits
 2379      0080
 2380              		.align	2
 2381              		.p2align 4,,15
 2382              		.thumb
 2383              		.thumb_func
 2384              		.type	sum_sfn, %function
 2385              	sum_sfn:
 2386              	.LFB24:
 2387              		.loc 1 1336 0
 2388              		.cfi_startproc
 2389              		@ args = 0, pretend = 0, frame = 16
 2390              		@ frame_needed = 0, uses_anonymous_args = 0
 2391              		@ link register save eliminated.
 2392 0000 84B0     		sub	sp, sp, #16
 2393              		.cfi_def_cfa_offset 16
 2394 0002 0190     		str	r0, [sp, #4]
 2395              		.loc 1 1337 0
 2396 0004 0023     		movs	r3, #0
 2397 0006 8DF80F30 		strb	r3, [sp, #15]
 2398              		.loc 1 1338 0
 2399 000a 0B23     		movs	r3, #11
 2400 000c 0293     		str	r3, [sp, #8]
 2401              	.L164:
 2402              		.loc 1 1340 0 discriminator 1
 2403 000e 9DF80F30 		ldrb	r3, [sp, #15]
 2404 0012 DAB2     		uxtb	r2, r3
 2405 0014 5208     		lsrs	r2, r2, #1
 2406 0016 DB01     		lsls	r3, r3, #7
 2407 0018 1343     		orrs	r3, r3, r2
 2408 001a DAB2     		uxtb	r2, r3
 2409 001c 019B     		ldr	r3, [sp, #4]
 2410 001e 591C     		adds	r1, r3, #1
 2411 0020 0191     		str	r1, [sp, #4]
 2412 0022 1B78     		ldrb	r3, [r3]	@ zero_extendqisi2
 2413 0024 1344     		add	r3, r3, r2
 2414 0026 8DF80F30 		strb	r3, [sp, #15]
 2415 002a 029B     		ldr	r3, [sp, #8]
 2416 002c 013B     		subs	r3, r3, #1
 2417 002e 0293     		str	r3, [sp, #8]
 2418 0030 029B     		ldr	r3, [sp, #8]
 2419 0032 002B     		cmp	r3, #0
 2420 0034 EBD1     		bne	.L164
 2421              		.loc 1 1341 0
 2422 0036 9DF80F30 		ldrb	r3, [sp, #15]	@ zero_extendqisi2
 2423              		.loc 1 1342 0
 2424 003a 1846     		mov	r0, r3
 2425 003c 04B0     		add	sp, sp, #16
 2426              		@ sp needed
 2427 003e 7047     		bx	lr
 2428              		.cfi_endproc
 2429              	.LFE24:
 2430              		.size	sum_sfn, .-sum_sfn
 2431              		.section	.text.dir_find,"ax",%progbits
ARM GAS  /tmp/ccIWRJEN.s 			page 44


 2432              		.align	2
 2433              		.p2align 4,,15
 2434              		.thumb
 2435              		.thumb_func
 2436              		.type	dir_find, %function
 2437              	dir_find:
 2438              	.LFB25:
 2439              		.loc 1 1356 0
 2440              		.cfi_startproc
 2441              		@ args = 0, pretend = 0, frame = 24
 2442              		@ frame_needed = 0, uses_anonymous_args = 0
 2443 0000 00B5     		push	{lr}
 2444              		.cfi_def_cfa_offset 4
 2445              		.cfi_offset 14, -4
 2446 0002 87B0     		sub	sp, sp, #28
 2447              		.cfi_def_cfa_offset 32
 2448 0004 0190     		str	r0, [sp, #4]
 2449              		.loc 1 1363 0
 2450 0006 0198     		ldr	r0, [sp, #4]
 2451 0008 0021     		movs	r1, #0
 2452 000a FFF7FEFF 		bl	dir_sdi
 2453 000e 0346     		mov	r3, r0
 2454 0010 8DF81730 		strb	r3, [sp, #23]
 2455              		.loc 1 1364 0
 2456 0014 9DF81730 		ldrb	r3, [sp, #23]	@ zero_extendqisi2
 2457 0018 002B     		cmp	r3, #0
 2458 001a 02D0     		beq	.L167
 2459              		.loc 1 1364 0 is_stmt 0 discriminator 1
 2460 001c 9DF81730 		ldrb	r3, [sp, #23]	@ zero_extendqisi2
 2461 0020 B2E0     		b	.L168
 2462              	.L167:
 2463              		.loc 1 1367 0 is_stmt 1
 2464 0022 FF23     		movs	r3, #255
 2465 0024 8DF81430 		strb	r3, [sp, #20]
 2466 0028 9DF81430 		ldrb	r3, [sp, #20]
 2467 002c 8DF81530 		strb	r3, [sp, #21]
 2468              	.L181:
 2469              		.loc 1 1370 0
 2470 0030 019B     		ldr	r3, [sp, #4]
 2471 0032 1A68     		ldr	r2, [r3]
 2472 0034 019B     		ldr	r3, [sp, #4]
 2473 0036 1B69     		ldr	r3, [r3, #16]
 2474 0038 1046     		mov	r0, r2
 2475 003a 1946     		mov	r1, r3
 2476 003c FFF7FEFF 		bl	move_window
 2477 0040 0346     		mov	r3, r0
 2478 0042 8DF81730 		strb	r3, [sp, #23]
 2479              		.loc 1 1371 0
 2480 0046 9DF81730 		ldrb	r3, [sp, #23]	@ zero_extendqisi2
 2481 004a 002B     		cmp	r3, #0
 2482 004c 00D0     		beq	.L169
 2483              		.loc 1 1371 0 is_stmt 0 discriminator 1
 2484 004e 99E0     		b	.L170
 2485              	.L169:
 2486              		.loc 1 1372 0 is_stmt 1
 2487 0050 019B     		ldr	r3, [sp, #4]
 2488 0052 5B69     		ldr	r3, [r3, #20]
ARM GAS  /tmp/ccIWRJEN.s 			page 45


 2489 0054 0493     		str	r3, [sp, #16]
 2490              		.loc 1 1373 0
 2491 0056 049B     		ldr	r3, [sp, #16]
 2492 0058 1B78     		ldrb	r3, [r3]
 2493 005a 8DF81630 		strb	r3, [sp, #22]
 2494              		.loc 1 1374 0
 2495 005e 9DF81630 		ldrb	r3, [sp, #22]	@ zero_extendqisi2
 2496 0062 002B     		cmp	r3, #0
 2497 0064 03D1     		bne	.L171
 2498              		.loc 1 1374 0 is_stmt 0 discriminator 1
 2499 0066 0423     		movs	r3, #4
 2500 0068 8DF81730 		strb	r3, [sp, #23]
 2501 006c 8AE0     		b	.L170
 2502              	.L171:
 2503              		.loc 1 1376 0 is_stmt 1
 2504 006e 049B     		ldr	r3, [sp, #16]
 2505 0070 0B33     		adds	r3, r3, #11
 2506 0072 1B78     		ldrb	r3, [r3]	@ zero_extendqisi2
 2507 0074 03F03F03 		and	r3, r3, #63
 2508 0078 8DF80F30 		strb	r3, [sp, #15]
 2509              		.loc 1 1377 0
 2510 007c 9DF81630 		ldrb	r3, [sp, #22]	@ zero_extendqisi2
 2511 0080 E52B     		cmp	r3, #229
 2512 0082 09D0     		beq	.L172
 2513              		.loc 1 1377 0 is_stmt 0 discriminator 1
 2514 0084 9DF80F30 		ldrb	r3, [sp, #15]	@ zero_extendqisi2
 2515 0088 03F00803 		and	r3, r3, #8
 2516 008c 002B     		cmp	r3, #0
 2517 008e 07D0     		beq	.L173
 2518 0090 9DF80F30 		ldrb	r3, [sp, #15]	@ zero_extendqisi2
 2519 0094 0F2B     		cmp	r3, #15
 2520 0096 03D0     		beq	.L173
 2521              	.L172:
 2522              		.loc 1 1378 0 is_stmt 1
 2523 0098 FF23     		movs	r3, #255
 2524 009a 8DF81530 		strb	r3, [sp, #21]
 2525 009e 65E0     		b	.L174
 2526              	.L173:
 2527              		.loc 1 1380 0
 2528 00a0 9DF80F30 		ldrb	r3, [sp, #15]	@ zero_extendqisi2
 2529 00a4 0F2B     		cmp	r3, #15
 2530 00a6 3AD1     		bne	.L175
 2531              		.loc 1 1381 0
 2532 00a8 019B     		ldr	r3, [sp, #4]
 2533 00aa DB69     		ldr	r3, [r3, #28]
 2534 00ac 002B     		cmp	r3, #0
 2535 00ae 5DD0     		beq	.L174
 2536              		.loc 1 1382 0
 2537 00b0 9DF81630 		ldrb	r3, [sp, #22]	@ zero_extendqisi2
 2538 00b4 03F04003 		and	r3, r3, #64
 2539 00b8 002B     		cmp	r3, #0
 2540 00ba 11D0     		beq	.L177
 2541              		.loc 1 1383 0
 2542 00bc 049B     		ldr	r3, [sp, #16]
 2543 00be 5B7B     		ldrb	r3, [r3, #13]
 2544 00c0 8DF81430 		strb	r3, [sp, #20]
 2545              		.loc 1 1384 0
ARM GAS  /tmp/ccIWRJEN.s 			page 46


 2546 00c4 9DF81630 		ldrb	r3, [sp, #22]
 2547 00c8 23F04003 		bic	r3, r3, #64
 2548 00cc 8DF81630 		strb	r3, [sp, #22]
 2549 00d0 9DF81630 		ldrb	r3, [sp, #22]
 2550 00d4 8DF81530 		strb	r3, [sp, #21]
 2551              		.loc 1 1385 0
 2552 00d8 019B     		ldr	r3, [sp, #4]
 2553 00da DA88     		ldrh	r2, [r3, #6]
 2554 00dc 019B     		ldr	r3, [sp, #4]
 2555 00de 1A84     		strh	r2, [r3, #32]	@ movhi
 2556              	.L177:
 2557              		.loc 1 1388 0
 2558 00e0 9DF81620 		ldrb	r2, [sp, #22]	@ zero_extendqisi2
 2559 00e4 9DF81530 		ldrb	r3, [sp, #21]	@ zero_extendqisi2
 2560 00e8 9A42     		cmp	r2, r3
 2561 00ea 14D1     		bne	.L178
 2562              		.loc 1 1388 0 is_stmt 0 discriminator 1
 2563 00ec 049B     		ldr	r3, [sp, #16]
 2564 00ee 0D33     		adds	r3, r3, #13
 2565 00f0 1B78     		ldrb	r3, [r3]	@ zero_extendqisi2
 2566 00f2 9DF81420 		ldrb	r2, [sp, #20]	@ zero_extendqisi2
 2567 00f6 9A42     		cmp	r2, r3
 2568 00f8 0DD1     		bne	.L178
 2569 00fa 019B     		ldr	r3, [sp, #4]
 2570 00fc DB69     		ldr	r3, [r3, #28]
 2571 00fe 1846     		mov	r0, r3
 2572 0100 0499     		ldr	r1, [sp, #16]
 2573 0102 FFF7FEFF 		bl	cmp_lfn
 2574 0106 0346     		mov	r3, r0
 2575 0108 002B     		cmp	r3, #0
 2576 010a 04D0     		beq	.L178
 2577 010c 9DF81530 		ldrb	r3, [sp, #21]
 2578 0110 013B     		subs	r3, r3, #1
 2579 0112 DBB2     		uxtb	r3, r3
 2580 0114 00E0     		b	.L179
 2581              	.L178:
 2582              		.loc 1 1388 0 discriminator 2
 2583 0116 FF23     		movs	r3, #255
 2584              	.L179:
 2585              		.loc 1 1388 0 discriminator 3
 2586 0118 8DF81530 		strb	r3, [sp, #21]
 2587 011c 26E0     		b	.L174
 2588              	.L175:
 2589              		.loc 1 1391 0 is_stmt 1
 2590 011e 9DF81530 		ldrb	r3, [sp, #21]	@ zero_extendqisi2
 2591 0122 002B     		cmp	r3, #0
 2592 0124 08D1     		bne	.L180
 2593              		.loc 1 1391 0 is_stmt 0 discriminator 1
 2594 0126 0498     		ldr	r0, [sp, #16]
 2595 0128 FFF7FEFF 		bl	sum_sfn
 2596 012c 0346     		mov	r3, r0
 2597 012e 9DF81420 		ldrb	r2, [sp, #20]	@ zero_extendqisi2
 2598 0132 9A42     		cmp	r2, r3
 2599 0134 00D1     		bne	.L180
 2600 0136 25E0     		b	.L170
 2601              	.L180:
 2602              		.loc 1 1392 0 is_stmt 1
ARM GAS  /tmp/ccIWRJEN.s 			page 47


 2603 0138 FF23     		movs	r3, #255
 2604 013a 8DF81530 		strb	r3, [sp, #21]
 2605 013e 019B     		ldr	r3, [sp, #4]
 2606 0140 4FF6FF72 		movw	r2, #65535
 2607 0144 1A84     		strh	r2, [r3, #32]	@ movhi
 2608              		.loc 1 1393 0
 2609 0146 019B     		ldr	r3, [sp, #4]
 2610 0148 9B69     		ldr	r3, [r3, #24]
 2611 014a 0B33     		adds	r3, r3, #11
 2612 014c 1B78     		ldrb	r3, [r3]	@ zero_extendqisi2
 2613 014e 03F00103 		and	r3, r3, #1
 2614 0152 002B     		cmp	r3, #0
 2615 0154 0AD1     		bne	.L174
 2616              		.loc 1 1393 0 is_stmt 0 discriminator 1
 2617 0156 019B     		ldr	r3, [sp, #4]
 2618 0158 9B69     		ldr	r3, [r3, #24]
 2619 015a 0498     		ldr	r0, [sp, #16]
 2620 015c 1946     		mov	r1, r3
 2621 015e 0B22     		movs	r2, #11
 2622 0160 FFF7FEFF 		bl	mem_cmp
 2623 0164 0346     		mov	r3, r0
 2624 0166 002B     		cmp	r3, #0
 2625 0168 00D1     		bne	.L174
 2626 016a 0BE0     		b	.L170
 2627              	.L174:
 2628              		.loc 1 1400 0 is_stmt 1
 2629 016c 0198     		ldr	r0, [sp, #4]
 2630 016e 0021     		movs	r1, #0
 2631 0170 FFF7FEFF 		bl	dir_next
 2632 0174 0346     		mov	r3, r0
 2633 0176 8DF81730 		strb	r3, [sp, #23]
 2634              		.loc 1 1401 0
 2635 017a 9DF81730 		ldrb	r3, [sp, #23]	@ zero_extendqisi2
 2636 017e 002B     		cmp	r3, #0
 2637 0180 3FF456AF 		beq	.L181
 2638              	.L170:
 2639              		.loc 1 1403 0
 2640 0184 9DF81730 		ldrb	r3, [sp, #23]	@ zero_extendqisi2
 2641              	.L168:
 2642              		.loc 1 1404 0
 2643 0188 1846     		mov	r0, r3
 2644 018a 07B0     		add	sp, sp, #28
 2645              		@ sp needed
 2646 018c 5DF804FB 		ldr	pc, [sp], #4
 2647              		.cfi_endproc
 2648              	.LFE25:
 2649              		.size	dir_find, .-dir_find
 2650              		.section	.text.dir_read,"ax",%progbits
 2651              		.align	2
 2652              		.p2align 4,,15
 2653              		.thumb
 2654              		.thumb_func
 2655              		.type	dir_read, %function
 2656              	dir_read:
 2657              	.LFB26:
 2658              		.loc 1 1417 0
 2659              		.cfi_startproc
ARM GAS  /tmp/ccIWRJEN.s 			page 48


 2660              		@ args = 0, pretend = 0, frame = 24
 2661              		@ frame_needed = 0, uses_anonymous_args = 0
 2662 0000 00B5     		push	{lr}
 2663              		.cfi_def_cfa_offset 4
 2664              		.cfi_offset 14, -4
 2665 0002 87B0     		sub	sp, sp, #28
 2666              		.cfi_def_cfa_offset 32
 2667 0004 0190     		str	r0, [sp, #4]
 2668              		.loc 1 1421 0
 2669 0006 FF23     		movs	r3, #255
 2670 0008 8DF81530 		strb	r3, [sp, #21]
 2671 000c FF23     		movs	r3, #255
 2672 000e 8DF81430 		strb	r3, [sp, #20]
 2673              		.loc 1 1424 0
 2674 0012 0423     		movs	r3, #4
 2675 0014 8DF81730 		strb	r3, [sp, #23]
 2676              		.loc 1 1425 0
 2677 0018 94E0     		b	.L183
 2678              	.L196:
 2679              		.loc 1 1426 0
 2680 001a 019B     		ldr	r3, [sp, #4]
 2681 001c 1A68     		ldr	r2, [r3]
 2682 001e 019B     		ldr	r3, [sp, #4]
 2683 0020 1B69     		ldr	r3, [r3, #16]
 2684 0022 1046     		mov	r0, r2
 2685 0024 1946     		mov	r1, r3
 2686 0026 FFF7FEFF 		bl	move_window
 2687 002a 0346     		mov	r3, r0
 2688 002c 8DF81730 		strb	r3, [sp, #23]
 2689              		.loc 1 1427 0
 2690 0030 9DF81730 		ldrb	r3, [sp, #23]	@ zero_extendqisi2
 2691 0034 002B     		cmp	r3, #0
 2692 0036 00D0     		beq	.L184
 2693              		.loc 1 1427 0 is_stmt 0 discriminator 1
 2694 0038 89E0     		b	.L185
 2695              	.L184:
 2696              		.loc 1 1428 0 is_stmt 1
 2697 003a 019B     		ldr	r3, [sp, #4]
 2698 003c 5B69     		ldr	r3, [r3, #20]
 2699 003e 0493     		str	r3, [sp, #16]
 2700              		.loc 1 1429 0
 2701 0040 049B     		ldr	r3, [sp, #16]
 2702 0042 1B78     		ldrb	r3, [r3]
 2703 0044 8DF81630 		strb	r3, [sp, #22]
 2704              		.loc 1 1430 0
 2705 0048 9DF81630 		ldrb	r3, [sp, #22]	@ zero_extendqisi2
 2706 004c 002B     		cmp	r3, #0
 2707 004e 03D1     		bne	.L186
 2708              		.loc 1 1430 0 is_stmt 0 discriminator 1
 2709 0050 0423     		movs	r3, #4
 2710 0052 8DF81730 		strb	r3, [sp, #23]
 2711 0056 7AE0     		b	.L185
 2712              	.L186:
 2713              		.loc 1 1432 0 is_stmt 1
 2714 0058 049B     		ldr	r3, [sp, #16]
 2715 005a 0B33     		adds	r3, r3, #11
 2716 005c 1B78     		ldrb	r3, [r3]	@ zero_extendqisi2
ARM GAS  /tmp/ccIWRJEN.s 			page 49


 2717 005e 03F03F03 		and	r3, r3, #63
 2718 0062 8DF80F30 		strb	r3, [sp, #15]
 2719              		.loc 1 1433 0
 2720 0066 9DF81630 		ldrb	r3, [sp, #22]	@ zero_extendqisi2
 2721 006a E52B     		cmp	r3, #229
 2722 006c 0DD0     		beq	.L187
 2723              		.loc 1 1433 0 is_stmt 0 discriminator 1
 2724 006e 9DF81630 		ldrb	r3, [sp, #22]	@ zero_extendqisi2
 2725 0072 2E2B     		cmp	r3, #46
 2726 0074 09D0     		beq	.L187
 2727 0076 9DF80F30 		ldrb	r3, [sp, #15]	@ zero_extendqisi2
 2728 007a 03F00803 		and	r3, r3, #8
 2729 007e 002B     		cmp	r3, #0
 2730 0080 07D0     		beq	.L188
 2731 0082 9DF80F30 		ldrb	r3, [sp, #15]	@ zero_extendqisi2
 2732 0086 0F2B     		cmp	r3, #15
 2733 0088 03D0     		beq	.L188
 2734              	.L187:
 2735              		.loc 1 1434 0 is_stmt 1
 2736 008a FF23     		movs	r3, #255
 2737 008c 8DF81530 		strb	r3, [sp, #21]
 2738 0090 4CE0     		b	.L189
 2739              	.L188:
 2740              		.loc 1 1436 0
 2741 0092 9DF80F30 		ldrb	r3, [sp, #15]	@ zero_extendqisi2
 2742 0096 0F2B     		cmp	r3, #15
 2743 0098 36D1     		bne	.L190
 2744              		.loc 1 1437 0
 2745 009a 9DF81630 		ldrb	r3, [sp, #22]	@ zero_extendqisi2
 2746 009e 03F04003 		and	r3, r3, #64
 2747 00a2 002B     		cmp	r3, #0
 2748 00a4 11D0     		beq	.L191
 2749              		.loc 1 1438 0
 2750 00a6 049B     		ldr	r3, [sp, #16]
 2751 00a8 5B7B     		ldrb	r3, [r3, #13]
 2752 00aa 8DF81430 		strb	r3, [sp, #20]
 2753              		.loc 1 1439 0
 2754 00ae 9DF81630 		ldrb	r3, [sp, #22]
 2755 00b2 23F04003 		bic	r3, r3, #64
 2756 00b6 8DF81630 		strb	r3, [sp, #22]
 2757 00ba 9DF81630 		ldrb	r3, [sp, #22]
 2758 00be 8DF81530 		strb	r3, [sp, #21]
 2759              		.loc 1 1440 0
 2760 00c2 019B     		ldr	r3, [sp, #4]
 2761 00c4 DA88     		ldrh	r2, [r3, #6]
 2762 00c6 019B     		ldr	r3, [sp, #4]
 2763 00c8 1A84     		strh	r2, [r3, #32]	@ movhi
 2764              	.L191:
 2765              		.loc 1 1443 0
 2766 00ca 9DF81620 		ldrb	r2, [sp, #22]	@ zero_extendqisi2
 2767 00ce 9DF81530 		ldrb	r3, [sp, #21]	@ zero_extendqisi2
 2768 00d2 9A42     		cmp	r2, r3
 2769 00d4 14D1     		bne	.L192
 2770              		.loc 1 1443 0 is_stmt 0 discriminator 1
 2771 00d6 049B     		ldr	r3, [sp, #16]
 2772 00d8 0D33     		adds	r3, r3, #13
 2773 00da 1B78     		ldrb	r3, [r3]	@ zero_extendqisi2
ARM GAS  /tmp/ccIWRJEN.s 			page 50


 2774 00dc 9DF81420 		ldrb	r2, [sp, #20]	@ zero_extendqisi2
 2775 00e0 9A42     		cmp	r2, r3
 2776 00e2 0DD1     		bne	.L192
 2777 00e4 019B     		ldr	r3, [sp, #4]
 2778 00e6 DB69     		ldr	r3, [r3, #28]
 2779 00e8 1846     		mov	r0, r3
 2780 00ea 0499     		ldr	r1, [sp, #16]
 2781 00ec FFF7FEFF 		bl	pick_lfn
 2782 00f0 0346     		mov	r3, r0
 2783 00f2 002B     		cmp	r3, #0
 2784 00f4 04D0     		beq	.L192
 2785 00f6 9DF81530 		ldrb	r3, [sp, #21]
 2786 00fa 013B     		subs	r3, r3, #1
 2787 00fc DBB2     		uxtb	r3, r3
 2788 00fe 00E0     		b	.L193
 2789              	.L192:
 2790              		.loc 1 1443 0 discriminator 2
 2791 0100 FF23     		movs	r3, #255
 2792              	.L193:
 2793              		.loc 1 1443 0 discriminator 3
 2794 0102 8DF81530 		strb	r3, [sp, #21]
 2795 0106 11E0     		b	.L189
 2796              	.L190:
 2797              		.loc 1 1445 0 is_stmt 1
 2798 0108 9DF81530 		ldrb	r3, [sp, #21]	@ zero_extendqisi2
 2799 010c 002B     		cmp	r3, #0
 2800 010e 07D1     		bne	.L194
 2801              		.loc 1 1445 0 is_stmt 0 discriminator 1
 2802 0110 0498     		ldr	r0, [sp, #16]
 2803 0112 FFF7FEFF 		bl	sum_sfn
 2804 0116 0346     		mov	r3, r0
 2805 0118 9DF81420 		ldrb	r2, [sp, #20]	@ zero_extendqisi2
 2806 011c 9A42     		cmp	r2, r3
 2807 011e 04D0     		beq	.L195
 2808              	.L194:
 2809              		.loc 1 1446 0 is_stmt 1
 2810 0120 019B     		ldr	r3, [sp, #4]
 2811 0122 4FF6FF72 		movw	r2, #65535
 2812 0126 1A84     		strh	r2, [r3, #32]	@ movhi
 2813              		.loc 1 1447 0
 2814 0128 11E0     		b	.L185
 2815              	.L195:
 2816 012a 10E0     		b	.L185
 2817              	.L189:
 2818              		.loc 1 1454 0
 2819 012c 0198     		ldr	r0, [sp, #4]
 2820 012e 0021     		movs	r1, #0
 2821 0130 FFF7FEFF 		bl	dir_next
 2822 0134 0346     		mov	r3, r0
 2823 0136 8DF81730 		strb	r3, [sp, #23]
 2824              		.loc 1 1455 0
 2825 013a 9DF81730 		ldrb	r3, [sp, #23]	@ zero_extendqisi2
 2826 013e 002B     		cmp	r3, #0
 2827 0140 00D0     		beq	.L183
 2828              		.loc 1 1455 0 is_stmt 0 discriminator 1
 2829 0142 04E0     		b	.L185
 2830              	.L183:
ARM GAS  /tmp/ccIWRJEN.s 			page 51


 2831              		.loc 1 1425 0 is_stmt 1 discriminator 1
 2832 0144 019B     		ldr	r3, [sp, #4]
 2833 0146 1B69     		ldr	r3, [r3, #16]
 2834 0148 002B     		cmp	r3, #0
 2835 014a 7FF466AF 		bne	.L196
 2836              	.L185:
 2837              		.loc 1 1458 0
 2838 014e 9DF81730 		ldrb	r3, [sp, #23]	@ zero_extendqisi2
 2839 0152 002B     		cmp	r3, #0
 2840 0154 02D0     		beq	.L197
 2841              		.loc 1 1458 0 is_stmt 0 discriminator 1
 2842 0156 019B     		ldr	r3, [sp, #4]
 2843 0158 0022     		movs	r2, #0
 2844 015a 1A61     		str	r2, [r3, #16]
 2845              	.L197:
 2846              		.loc 1 1460 0 is_stmt 1
 2847 015c 9DF81730 		ldrb	r3, [sp, #23]	@ zero_extendqisi2
 2848              		.loc 1 1461 0
 2849 0160 1846     		mov	r0, r3
 2850 0162 07B0     		add	sp, sp, #28
 2851              		@ sp needed
 2852 0164 5DF804FB 		ldr	pc, [sp], #4
 2853              		.cfi_endproc
 2854              	.LFE26:
 2855              		.size	dir_read, .-dir_read
 2856 0168 AFF30080 		.section	.text.dir_register,"ax",%progbits
 2856      AFF30080 
 2857              		.align	2
 2858              		.p2align 4,,15
 2859              		.thumb
 2860              		.thumb_func
 2861              		.type	dir_register, %function
 2862              	dir_register:
 2863              	.LFB27:
 2864              		.loc 1 1474 0
 2865              		.cfi_startproc
 2866              		@ args = 0, pretend = 0, frame = 48
 2867              		@ frame_needed = 0, uses_anonymous_args = 0
 2868 0000 00B5     		push	{lr}
 2869              		.cfi_def_cfa_offset 4
 2870              		.cfi_offset 14, -4
 2871 0002 8DB0     		sub	sp, sp, #52
 2872              		.cfi_def_cfa_offset 56
 2873 0004 0190     		str	r0, [sp, #4]
 2874              		.loc 1 1483 0
 2875 0006 019B     		ldr	r3, [sp, #4]
 2876 0008 9B69     		ldr	r3, [r3, #24]
 2877 000a 0993     		str	r3, [sp, #36]
 2878 000c 019B     		ldr	r3, [sp, #4]
 2879 000e DB69     		ldr	r3, [r3, #28]
 2880 0010 0893     		str	r3, [sp, #32]
 2881              		.loc 1 1484 0
 2882 0012 03AB     		add	r3, sp, #12
 2883 0014 1846     		mov	r0, r3
 2884 0016 0999     		ldr	r1, [sp, #36]
 2885 0018 0C22     		movs	r2, #12
 2886 001a FFF7FEFF 		bl	mem_cpy
ARM GAS  /tmp/ccIWRJEN.s 			page 52


 2887              		.loc 1 1489 0
 2888 001e 9DF81730 		ldrb	r3, [sp, #23]	@ zero_extendqisi2
 2889 0022 03F00103 		and	r3, r3, #1
 2890 0026 002B     		cmp	r3, #0
 2891 0028 3BD0     		beq	.L200
 2892              		.loc 1 1490 0
 2893 002a 099B     		ldr	r3, [sp, #36]
 2894 002c 0B33     		adds	r3, r3, #11
 2895 002e 0022     		movs	r2, #0
 2896 0030 1A70     		strb	r2, [r3]
 2897 0032 019B     		ldr	r3, [sp, #4]
 2898 0034 0022     		movs	r2, #0
 2899 0036 DA61     		str	r2, [r3, #28]
 2900              		.loc 1 1491 0
 2901 0038 0123     		movs	r3, #1
 2902 003a ADF82C30 		strh	r3, [sp, #44]	@ movhi
 2903 003e 17E0     		b	.L201
 2904              	.L204:
 2905              		.loc 1 1492 0
 2906 0040 03AA     		add	r2, sp, #12
 2907 0042 BDF82C30 		ldrh	r3, [sp, #44]
 2908 0046 0998     		ldr	r0, [sp, #36]
 2909 0048 1146     		mov	r1, r2
 2910 004a 089A     		ldr	r2, [sp, #32]
 2911 004c FFF7FEFF 		bl	gen_numname
 2912              		.loc 1 1493 0
 2913 0050 0198     		ldr	r0, [sp, #4]
 2914 0052 FFF7FEFF 		bl	dir_find
 2915 0056 0346     		mov	r3, r0
 2916 0058 8DF82F30 		strb	r3, [sp, #47]
 2917              		.loc 1 1494 0
 2918 005c 9DF82F30 		ldrb	r3, [sp, #47]	@ zero_extendqisi2
 2919 0060 002B     		cmp	r3, #0
 2920 0062 00D0     		beq	.L202
 2921              		.loc 1 1494 0 is_stmt 0 discriminator 1
 2922 0064 08E0     		b	.L203
 2923              	.L202:
 2924              		.loc 1 1491 0 is_stmt 1
 2925 0066 BDF82C30 		ldrh	r3, [sp, #44]
 2926 006a 0133     		adds	r3, r3, #1
 2927 006c ADF82C30 		strh	r3, [sp, #44]	@ movhi
 2928              	.L201:
 2929              		.loc 1 1491 0 is_stmt 0 discriminator 1
 2930 0070 BDF82C30 		ldrh	r3, [sp, #44]
 2931 0074 632B     		cmp	r3, #99
 2932 0076 E3D9     		bls	.L204
 2933              	.L203:
 2934              		.loc 1 1496 0 is_stmt 1
 2935 0078 BDF82C30 		ldrh	r3, [sp, #44]
 2936 007c 642B     		cmp	r3, #100
 2937 007e 01D1     		bne	.L205
 2938              		.loc 1 1496 0 is_stmt 0 discriminator 1
 2939 0080 0723     		movs	r3, #7
 2940 0082 14E1     		b	.L225
 2941              	.L205:
 2942              		.loc 1 1497 0 is_stmt 1
 2943 0084 9DF82F30 		ldrb	r3, [sp, #47]	@ zero_extendqisi2
ARM GAS  /tmp/ccIWRJEN.s 			page 53


 2944 0088 042B     		cmp	r3, #4
 2945 008a 02D0     		beq	.L207
 2946              		.loc 1 1497 0 is_stmt 0 discriminator 1
 2947 008c 9DF82F30 		ldrb	r3, [sp, #47]	@ zero_extendqisi2
 2948 0090 0DE1     		b	.L225
 2949              	.L207:
 2950              		.loc 1 1498 0 is_stmt 1
 2951 0092 099B     		ldr	r3, [sp, #36]
 2952 0094 0B33     		adds	r3, r3, #11
 2953 0096 9DF81720 		ldrb	r2, [sp, #23]	@ zero_extendqisi2
 2954 009a 1A70     		strb	r2, [r3]
 2955 009c 019B     		ldr	r3, [sp, #4]
 2956 009e 089A     		ldr	r2, [sp, #32]
 2957 00a0 DA61     		str	r2, [r3, #28]
 2958              	.L200:
 2959              		.loc 1 1501 0
 2960 00a2 9DF81730 		ldrb	r3, [sp, #23]	@ zero_extendqisi2
 2961 00a6 03F00203 		and	r3, r3, #2
 2962 00aa 002B     		cmp	r3, #0
 2963 00ac 20D0     		beq	.L208
 2964              		.loc 1 1502 0
 2965 00ae 0023     		movs	r3, #0
 2966 00b0 ADF82A30 		strh	r3, [sp, #42]	@ movhi
 2967 00b4 04E0     		b	.L209
 2968              	.L210:
 2969              		.loc 1 1502 0 is_stmt 0 discriminator 2
 2970 00b6 BDF82A30 		ldrh	r3, [sp, #42]
 2971 00ba 0133     		adds	r3, r3, #1
 2972 00bc ADF82A30 		strh	r3, [sp, #42]	@ movhi
 2973              	.L209:
 2974              		.loc 1 1502 0 discriminator 1
 2975 00c0 BDF82A30 		ldrh	r3, [sp, #42]
 2976 00c4 5B00     		lsls	r3, r3, #1
 2977 00c6 089A     		ldr	r2, [sp, #32]
 2978 00c8 1344     		add	r3, r3, r2
 2979 00ca 1B88     		ldrh	r3, [r3]
 2980 00cc 002B     		cmp	r3, #0
 2981 00ce F2D1     		bne	.L210
 2982              		.loc 1 1503 0 is_stmt 1
 2983 00d0 BDF82A30 		ldrh	r3, [sp, #42]
 2984 00d4 03F11902 		add	r2, r3, #25
 2985 00d8 4EF64F43 		movw	r3, #60495
 2986 00dc C4F6C463 		movt	r3, 20164
 2987 00e0 83FB0213 		smull	r1, r3, r3, r2
 2988 00e4 9910     		asrs	r1, r3, #2
 2989 00e6 D317     		asrs	r3, r2, #31
 2990 00e8 CB1A     		subs	r3, r1, r3
 2991 00ea ADF82A30 		strh	r3, [sp, #42]	@ movhi
 2992 00ee 02E0     		b	.L211
 2993              	.L208:
 2994              		.loc 1 1505 0
 2995 00f0 0123     		movs	r3, #1
 2996 00f2 ADF82A30 		strh	r3, [sp, #42]	@ movhi
 2997              	.L211:
 2998              		.loc 1 1509 0
 2999 00f6 0198     		ldr	r0, [sp, #4]
 3000 00f8 0021     		movs	r1, #0
ARM GAS  /tmp/ccIWRJEN.s 			page 54


 3001 00fa FFF7FEFF 		bl	dir_sdi
 3002 00fe 0346     		mov	r3, r0
 3003 0100 8DF82F30 		strb	r3, [sp, #47]
 3004              		.loc 1 1510 0
 3005 0104 9DF82F30 		ldrb	r3, [sp, #47]	@ zero_extendqisi2
 3006 0108 002B     		cmp	r3, #0
 3007 010a 02D0     		beq	.L212
 3008              		.loc 1 1510 0 is_stmt 0 discriminator 1
 3009 010c 9DF82F30 		ldrb	r3, [sp, #47]	@ zero_extendqisi2
 3010 0110 CDE0     		b	.L225
 3011              	.L212:
 3012              		.loc 1 1511 0 is_stmt 1
 3013 0112 0023     		movs	r3, #0
 3014 0114 ADF82830 		strh	r3, [sp, #40]	@ movhi
 3015 0118 BDF82830 		ldrh	r3, [sp, #40]	@ movhi
 3016 011c ADF82C30 		strh	r3, [sp, #44]	@ movhi
 3017              	.L220:
 3018              		.loc 1 1513 0
 3019 0120 019B     		ldr	r3, [sp, #4]
 3020 0122 1A68     		ldr	r2, [r3]
 3021 0124 019B     		ldr	r3, [sp, #4]
 3022 0126 1B69     		ldr	r3, [r3, #16]
 3023 0128 1046     		mov	r0, r2
 3024 012a 1946     		mov	r1, r3
 3025 012c FFF7FEFF 		bl	move_window
 3026 0130 0346     		mov	r3, r0
 3027 0132 8DF82F30 		strb	r3, [sp, #47]
 3028              		.loc 1 1514 0
 3029 0136 9DF82F30 		ldrb	r3, [sp, #47]	@ zero_extendqisi2
 3030 013a 002B     		cmp	r3, #0
 3031 013c 00D0     		beq	.L213
 3032              		.loc 1 1514 0 is_stmt 0 discriminator 1
 3033 013e 2FE0     		b	.L214
 3034              	.L213:
 3035              		.loc 1 1515 0 is_stmt 1
 3036 0140 019B     		ldr	r3, [sp, #4]
 3037 0142 5B69     		ldr	r3, [r3, #20]
 3038 0144 1B78     		ldrb	r3, [r3]
 3039 0146 8DF81F30 		strb	r3, [sp, #31]
 3040              		.loc 1 1516 0
 3041 014a 9DF81F30 		ldrb	r3, [sp, #31]	@ zero_extendqisi2
 3042 014e E52B     		cmp	r3, #229
 3043 0150 03D0     		beq	.L215
 3044              		.loc 1 1516 0 is_stmt 0 discriminator 1
 3045 0152 9DF81F30 		ldrb	r3, [sp, #31]	@ zero_extendqisi2
 3046 0156 002B     		cmp	r3, #0
 3047 0158 14D1     		bne	.L216
 3048              	.L215:
 3049              		.loc 1 1517 0 is_stmt 1
 3050 015a BDF82C30 		ldrh	r3, [sp, #44]
 3051 015e 002B     		cmp	r3, #0
 3052 0160 03D1     		bne	.L217
 3053              		.loc 1 1517 0 is_stmt 0 discriminator 1
 3054 0162 019B     		ldr	r3, [sp, #4]
 3055 0164 DB88     		ldrh	r3, [r3, #6]	@ movhi
 3056 0166 ADF82830 		strh	r3, [sp, #40]	@ movhi
 3057              	.L217:
ARM GAS  /tmp/ccIWRJEN.s 			page 55


 3058              		.loc 1 1518 0 is_stmt 1
 3059 016a BDF82C30 		ldrh	r3, [sp, #44]	@ movhi
 3060 016e 0133     		adds	r3, r3, #1
 3061 0170 ADF82C30 		strh	r3, [sp, #44]	@ movhi
 3062 0174 BDF82C20 		ldrh	r2, [sp, #44]
 3063 0178 BDF82A30 		ldrh	r3, [sp, #42]
 3064 017c 9A42     		cmp	r2, r3
 3065 017e 00D1     		bne	.L218
 3066              		.loc 1 1518 0 is_stmt 0 discriminator 1
 3067 0180 0EE0     		b	.L214
 3068              	.L218:
 3069              		.loc 1 1518 0 discriminator 2
 3070 0182 02E0     		b	.L219
 3071              	.L216:
 3072              		.loc 1 1520 0 is_stmt 1
 3073 0184 0023     		movs	r3, #0
 3074 0186 ADF82C30 		strh	r3, [sp, #44]	@ movhi
 3075              	.L219:
 3076              		.loc 1 1522 0
 3077 018a 0198     		ldr	r0, [sp, #4]
 3078 018c 0121     		movs	r1, #1
 3079 018e FFF7FEFF 		bl	dir_next
 3080 0192 0346     		mov	r3, r0
 3081 0194 8DF82F30 		strb	r3, [sp, #47]
 3082              		.loc 1 1523 0
 3083 0198 9DF82F30 		ldrb	r3, [sp, #47]	@ zero_extendqisi2
 3084 019c 002B     		cmp	r3, #0
 3085 019e BFD0     		beq	.L220
 3086              	.L214:
 3087              		.loc 1 1525 0
 3088 01a0 9DF82F30 		ldrb	r3, [sp, #47]	@ zero_extendqisi2
 3089 01a4 002B     		cmp	r3, #0
 3090 01a6 50D1     		bne	.L221
 3091              		.loc 1 1525 0 is_stmt 0 discriminator 1
 3092 01a8 BDF82A30 		ldrh	r3, [sp, #42]
 3093 01ac 012B     		cmp	r3, #1
 3094 01ae 4CD9     		bls	.L221
 3095              		.loc 1 1526 0 is_stmt 1
 3096 01b0 BDF82830 		ldrh	r3, [sp, #40]
 3097 01b4 0198     		ldr	r0, [sp, #4]
 3098 01b6 1946     		mov	r1, r3
 3099 01b8 FFF7FEFF 		bl	dir_sdi
 3100 01bc 0346     		mov	r3, r0
 3101 01be 8DF82F30 		strb	r3, [sp, #47]
 3102              		.loc 1 1527 0
 3103 01c2 9DF82F30 		ldrb	r3, [sp, #47]	@ zero_extendqisi2
 3104 01c6 002B     		cmp	r3, #0
 3105 01c8 3FD1     		bne	.L221
 3106              		.loc 1 1528 0
 3107 01ca 019B     		ldr	r3, [sp, #4]
 3108 01cc 9B69     		ldr	r3, [r3, #24]
 3109 01ce 1846     		mov	r0, r3
 3110 01d0 FFF7FEFF 		bl	sum_sfn
 3111 01d4 0346     		mov	r3, r0
 3112 01d6 8DF81E30 		strb	r3, [sp, #30]
 3113              		.loc 1 1529 0
 3114 01da BDF82A30 		ldrh	r3, [sp, #42]
ARM GAS  /tmp/ccIWRJEN.s 			page 56


 3115 01de 013B     		subs	r3, r3, #1
 3116 01e0 ADF82A30 		strh	r3, [sp, #42]	@ movhi
 3117              	.L223:
 3118              		.loc 1 1531 0
 3119 01e4 019B     		ldr	r3, [sp, #4]
 3120 01e6 1A68     		ldr	r2, [r3]
 3121 01e8 019B     		ldr	r3, [sp, #4]
 3122 01ea 1B69     		ldr	r3, [r3, #16]
 3123 01ec 1046     		mov	r0, r2
 3124 01ee 1946     		mov	r1, r3
 3125 01f0 FFF7FEFF 		bl	move_window
 3126 01f4 0346     		mov	r3, r0
 3127 01f6 8DF82F30 		strb	r3, [sp, #47]
 3128              		.loc 1 1532 0
 3129 01fa 9DF82F30 		ldrb	r3, [sp, #47]	@ zero_extendqisi2
 3130 01fe 002B     		cmp	r3, #0
 3131 0200 00D0     		beq	.L222
 3132              		.loc 1 1532 0 is_stmt 0 discriminator 1
 3133 0202 22E0     		b	.L221
 3134              	.L222:
 3135              		.loc 1 1533 0 is_stmt 1
 3136 0204 019B     		ldr	r3, [sp, #4]
 3137 0206 D869     		ldr	r0, [r3, #28]
 3138 0208 019B     		ldr	r3, [sp, #4]
 3139 020a 5969     		ldr	r1, [r3, #20]
 3140 020c BDF82A30 		ldrh	r3, [sp, #42]	@ movhi
 3141 0210 DAB2     		uxtb	r2, r3
 3142 0212 9DF81E30 		ldrb	r3, [sp, #30]	@ zero_extendqisi2
 3143 0216 FFF7FEFF 		bl	fit_lfn
 3144              		.loc 1 1534 0
 3145 021a 019B     		ldr	r3, [sp, #4]
 3146 021c 1B68     		ldr	r3, [r3]
 3147 021e 0122     		movs	r2, #1
 3148 0220 1A71     		strb	r2, [r3, #4]
 3149              		.loc 1 1535 0
 3150 0222 0198     		ldr	r0, [sp, #4]
 3151 0224 0021     		movs	r1, #0
 3152 0226 FFF7FEFF 		bl	dir_next
 3153 022a 0346     		mov	r3, r0
 3154 022c 8DF82F30 		strb	r3, [sp, #47]
 3155              		.loc 1 1536 0
 3156 0230 9DF82F30 		ldrb	r3, [sp, #47]	@ zero_extendqisi2
 3157 0234 002B     		cmp	r3, #0
 3158 0236 08D1     		bne	.L221
 3159              		.loc 1 1536 0 is_stmt 0 discriminator 1
 3160 0238 BDF82A30 		ldrh	r3, [sp, #42]	@ movhi
 3161 023c 013B     		subs	r3, r3, #1
 3162 023e ADF82A30 		strh	r3, [sp, #42]	@ movhi
 3163 0242 BDF82A30 		ldrh	r3, [sp, #42]
 3164 0246 002B     		cmp	r3, #0
 3165 0248 CCD1     		bne	.L223
 3166              	.L221:
 3167              		.loc 1 1553 0 is_stmt 1
 3168 024a 9DF82F30 		ldrb	r3, [sp, #47]	@ zero_extendqisi2
 3169 024e 002B     		cmp	r3, #0
 3170 0250 2BD1     		bne	.L224
 3171              		.loc 1 1554 0
ARM GAS  /tmp/ccIWRJEN.s 			page 57


 3172 0252 019B     		ldr	r3, [sp, #4]
 3173 0254 1A68     		ldr	r2, [r3]
 3174 0256 019B     		ldr	r3, [sp, #4]
 3175 0258 1B69     		ldr	r3, [r3, #16]
 3176 025a 1046     		mov	r0, r2
 3177 025c 1946     		mov	r1, r3
 3178 025e FFF7FEFF 		bl	move_window
 3179 0262 0346     		mov	r3, r0
 3180 0264 8DF82F30 		strb	r3, [sp, #47]
 3181              		.loc 1 1555 0
 3182 0268 9DF82F30 		ldrb	r3, [sp, #47]	@ zero_extendqisi2
 3183 026c 002B     		cmp	r3, #0
 3184 026e 1CD1     		bne	.L224
 3185              		.loc 1 1556 0
 3186 0270 019B     		ldr	r3, [sp, #4]
 3187 0272 5B69     		ldr	r3, [r3, #20]
 3188 0274 0693     		str	r3, [sp, #24]
 3189              		.loc 1 1557 0
 3190 0276 0698     		ldr	r0, [sp, #24]
 3191 0278 0021     		movs	r1, #0
 3192 027a 2022     		movs	r2, #32
 3193 027c FFF7FEFF 		bl	mem_set
 3194              		.loc 1 1558 0
 3195 0280 019B     		ldr	r3, [sp, #4]
 3196 0282 9B69     		ldr	r3, [r3, #24]
 3197 0284 0698     		ldr	r0, [sp, #24]
 3198 0286 1946     		mov	r1, r3
 3199 0288 0B22     		movs	r2, #11
 3200 028a FFF7FEFF 		bl	mem_cpy
 3201              		.loc 1 1560 0
 3202 028e 069B     		ldr	r3, [sp, #24]
 3203 0290 0C33     		adds	r3, r3, #12
 3204 0292 019A     		ldr	r2, [sp, #4]
 3205 0294 9269     		ldr	r2, [r2, #24]
 3206 0296 0B32     		adds	r2, r2, #11
 3207 0298 1278     		ldrb	r2, [r2]	@ zero_extendqisi2
 3208 029a 02F01802 		and	r2, r2, #24
 3209 029e D2B2     		uxtb	r2, r2
 3210 02a0 1A70     		strb	r2, [r3]
 3211              		.loc 1 1562 0
 3212 02a2 019B     		ldr	r3, [sp, #4]
 3213 02a4 1B68     		ldr	r3, [r3]
 3214 02a6 0122     		movs	r2, #1
 3215 02a8 1A71     		strb	r2, [r3, #4]
 3216              	.L224:
 3217              		.loc 1 1566 0
 3218 02aa 9DF82F30 		ldrb	r3, [sp, #47]	@ zero_extendqisi2
 3219              	.L225:
 3220              		.loc 1 1567 0
 3221 02ae 1846     		mov	r0, r3
 3222 02b0 0DB0     		add	sp, sp, #52
 3223              		@ sp needed
 3224 02b2 5DF804FB 		ldr	pc, [sp], #4
 3225              		.cfi_endproc
 3226              	.LFE27:
 3227              		.size	dir_register, .-dir_register
 3228 02b6 00BFAFF3 		.section	.text.dir_remove,"ax",%progbits
ARM GAS  /tmp/ccIWRJEN.s 			page 58


 3228      0080AFF3 
 3228      0080
 3229              		.align	2
 3230              		.p2align 4,,15
 3231              		.thumb
 3232              		.thumb_func
 3233              		.type	dir_remove, %function
 3234              	dir_remove:
 3235              	.LFB28:
 3236              		.loc 1 1581 0
 3237              		.cfi_startproc
 3238              		@ args = 0, pretend = 0, frame = 16
 3239              		@ frame_needed = 0, uses_anonymous_args = 0
 3240 0000 00B5     		push	{lr}
 3241              		.cfi_def_cfa_offset 4
 3242              		.cfi_offset 14, -4
 3243 0002 85B0     		sub	sp, sp, #20
 3244              		.cfi_def_cfa_offset 24
 3245 0004 0190     		str	r0, [sp, #4]
 3246              		.loc 1 1586 0
 3247 0006 019B     		ldr	r3, [sp, #4]
 3248 0008 DB88     		ldrh	r3, [r3, #6]	@ movhi
 3249 000a ADF80C30 		strh	r3, [sp, #12]	@ movhi
 3250              		.loc 1 1587 0
 3251 000e 019B     		ldr	r3, [sp, #4]
 3252 0010 1A8C     		ldrh	r2, [r3, #32]
 3253 0012 4FF6FF73 		movw	r3, #65535
 3254 0016 9A42     		cmp	r2, r3
 3255 0018 02D0     		beq	.L227
 3256              		.loc 1 1587 0 is_stmt 0 discriminator 1
 3257 001a 019B     		ldr	r3, [sp, #4]
 3258 001c 1B8C     		ldrh	r3, [r3, #32]
 3259 001e 01E0     		b	.L228
 3260              	.L227:
 3261              		.loc 1 1587 0 discriminator 2
 3262 0020 BDF80C30 		ldrh	r3, [sp, #12]
 3263              	.L228:
 3264              		.loc 1 1587 0 discriminator 3
 3265 0024 0198     		ldr	r0, [sp, #4]
 3266 0026 1946     		mov	r1, r3
 3267 0028 FFF7FEFF 		bl	dir_sdi
 3268 002c 0346     		mov	r3, r0
 3269 002e 8DF80F30 		strb	r3, [sp, #15]
 3270              		.loc 1 1588 0 is_stmt 1 discriminator 3
 3271 0032 9DF80F30 		ldrb	r3, [sp, #15]	@ zero_extendqisi2
 3272 0036 002B     		cmp	r3, #0
 3273 0038 30D1     		bne	.L229
 3274              	.L233:
 3275              		.loc 1 1590 0
 3276 003a 019B     		ldr	r3, [sp, #4]
 3277 003c 1A68     		ldr	r2, [r3]
 3278 003e 019B     		ldr	r3, [sp, #4]
 3279 0040 1B69     		ldr	r3, [r3, #16]
 3280 0042 1046     		mov	r0, r2
 3281 0044 1946     		mov	r1, r3
 3282 0046 FFF7FEFF 		bl	move_window
 3283 004a 0346     		mov	r3, r0
ARM GAS  /tmp/ccIWRJEN.s 			page 59


 3284 004c 8DF80F30 		strb	r3, [sp, #15]
 3285              		.loc 1 1591 0
 3286 0050 9DF80F30 		ldrb	r3, [sp, #15]	@ zero_extendqisi2
 3287 0054 002B     		cmp	r3, #0
 3288 0056 00D0     		beq	.L230
 3289              		.loc 1 1591 0 is_stmt 0 discriminator 1
 3290 0058 19E0     		b	.L231
 3291              	.L230:
 3292              		.loc 1 1592 0 is_stmt 1
 3293 005a 019B     		ldr	r3, [sp, #4]
 3294 005c 5B69     		ldr	r3, [r3, #20]
 3295 005e E522     		movs	r2, #229
 3296 0060 1A70     		strb	r2, [r3]
 3297              		.loc 1 1593 0
 3298 0062 019B     		ldr	r3, [sp, #4]
 3299 0064 1B68     		ldr	r3, [r3]
 3300 0066 0122     		movs	r2, #1
 3301 0068 1A71     		strb	r2, [r3, #4]
 3302              		.loc 1 1594 0
 3303 006a 019B     		ldr	r3, [sp, #4]
 3304 006c DB88     		ldrh	r3, [r3, #6]
 3305 006e BDF80C20 		ldrh	r2, [sp, #12]
 3306 0072 9A42     		cmp	r2, r3
 3307 0074 00D8     		bhi	.L232
 3308              		.loc 1 1594 0 is_stmt 0 discriminator 1
 3309 0076 0AE0     		b	.L231
 3310              	.L232:
 3311              		.loc 1 1595 0 is_stmt 1
 3312 0078 0198     		ldr	r0, [sp, #4]
 3313 007a 0021     		movs	r1, #0
 3314 007c FFF7FEFF 		bl	dir_next
 3315 0080 0346     		mov	r3, r0
 3316 0082 8DF80F30 		strb	r3, [sp, #15]
 3317              		.loc 1 1596 0
 3318 0086 9DF80F30 		ldrb	r3, [sp, #15]	@ zero_extendqisi2
 3319 008a 002B     		cmp	r3, #0
 3320 008c D5D0     		beq	.L233
 3321              	.L231:
 3322              		.loc 1 1597 0
 3323 008e 9DF80F30 		ldrb	r3, [sp, #15]	@ zero_extendqisi2
 3324 0092 042B     		cmp	r3, #4
 3325 0094 02D1     		bne	.L229
 3326              		.loc 1 1597 0 is_stmt 0 discriminator 1
 3327 0096 0223     		movs	r3, #2
 3328 0098 8DF80F30 		strb	r3, [sp, #15]
 3329              	.L229:
 3330              		.loc 1 1611 0 is_stmt 1
 3331 009c 9DF80F30 		ldrb	r3, [sp, #15]	@ zero_extendqisi2
 3332              		.loc 1 1612 0
 3333 00a0 1846     		mov	r0, r3
 3334 00a2 05B0     		add	sp, sp, #20
 3335              		@ sp needed
 3336 00a4 5DF804FB 		ldr	pc, [sp], #4
 3337              		.cfi_endproc
 3338              	.LFE28:
 3339              		.size	dir_remove, .-dir_remove
 3340 00a8 AFF30080 		.section	.rodata
ARM GAS  /tmp/ccIWRJEN.s 			page 60


 3340      AFF30080 
 3341              		.align	2
 3342              	.LC0:
 3343 0000 222A3A3C 		.ascii	"\"*:<>?|\177\000"
 3343      3E3F7C7F 
 3343      00
 3344 0009 000000   		.align	2
 3345              	.LC1:
 3346 000c 2B2C3B3D 		.ascii	"+,;=[]\000"
 3346      5B5D00
 3347              		.section	.text.create_name,"ax",%progbits
 3348              		.align	2
 3349              		.p2align 4,,15
 3350              		.thumb
 3351              		.thumb_func
 3352              		.type	create_name, %function
 3353              	create_name:
 3354              	.LFB29:
 3355              		.loc 1 1627 0
 3356              		.cfi_startproc
 3357              		@ args = 0, pretend = 0, frame = 40
 3358              		@ frame_needed = 0, uses_anonymous_args = 0
 3359 0000 00B5     		push	{lr}
 3360              		.cfi_def_cfa_offset 4
 3361              		.cfi_offset 14, -4
 3362 0002 8BB0     		sub	sp, sp, #44
 3363              		.cfi_def_cfa_offset 48
 3364 0004 0190     		str	r0, [sp, #4]
 3365 0006 0091     		str	r1, [sp]
 3366              		.loc 1 1639 0
 3367 0008 009B     		ldr	r3, [sp]
 3368 000a 1B68     		ldr	r3, [r3]
 3369 000c 0493     		str	r3, [sp, #16]
 3370 000e 02E0     		b	.L236
 3371              	.L237:
 3372              		.loc 1 1639 0 is_stmt 0 discriminator 2
 3373 0010 049B     		ldr	r3, [sp, #16]
 3374 0012 0133     		adds	r3, r3, #1
 3375 0014 0493     		str	r3, [sp, #16]
 3376              	.L236:
 3377              		.loc 1 1639 0 discriminator 1
 3378 0016 049B     		ldr	r3, [sp, #16]
 3379 0018 1B78     		ldrb	r3, [r3]	@ zero_extendqisi2
 3380 001a 2F2B     		cmp	r3, #47
 3381 001c F8D0     		beq	.L237
 3382              		.loc 1 1639 0 discriminator 3
 3383 001e 049B     		ldr	r3, [sp, #16]
 3384 0020 1B78     		ldrb	r3, [r3]	@ zero_extendqisi2
 3385 0022 5C2B     		cmp	r3, #92
 3386 0024 F4D0     		beq	.L237
 3387              		.loc 1 1640 0 is_stmt 1
 3388 0026 019B     		ldr	r3, [sp, #4]
 3389 0028 DB69     		ldr	r3, [r3, #28]
 3390 002a 0393     		str	r3, [sp, #12]
 3391              		.loc 1 1641 0
 3392 002c 0023     		movs	r3, #0
 3393 002e 0593     		str	r3, [sp, #20]
ARM GAS  /tmp/ccIWRJEN.s 			page 61


 3394 0030 059B     		ldr	r3, [sp, #20]
 3395 0032 0693     		str	r3, [sp, #24]
 3396              	.L243:
 3397              		.loc 1 1643 0
 3398 0034 069B     		ldr	r3, [sp, #24]
 3399 0036 5A1C     		adds	r2, r3, #1
 3400 0038 0692     		str	r2, [sp, #24]
 3401 003a 049A     		ldr	r2, [sp, #16]
 3402 003c 1344     		add	r3, r3, r2
 3403 003e 1B78     		ldrb	r3, [r3]	@ zero_extendqisi2
 3404 0040 ADF82430 		strh	r3, [sp, #36]	@ movhi
 3405              		.loc 1 1644 0
 3406 0044 BDF82430 		ldrh	r3, [sp, #36]
 3407 0048 1F2B     		cmp	r3, #31
 3408 004a 3CD9     		bls	.L238
 3409              		.loc 1 1644 0 is_stmt 0 discriminator 1
 3410 004c BDF82430 		ldrh	r3, [sp, #36]
 3411 0050 2F2B     		cmp	r3, #47
 3412 0052 38D0     		beq	.L238
 3413 0054 BDF82430 		ldrh	r3, [sp, #36]
 3414 0058 5C2B     		cmp	r3, #92
 3415 005a 34D0     		beq	.L238
 3416              		.loc 1 1645 0 is_stmt 1
 3417 005c 059B     		ldr	r3, [sp, #20]
 3418 005e FE2B     		cmp	r3, #254
 3419 0060 01D9     		bls	.L239
 3420              		.loc 1 1646 0
 3421 0062 0623     		movs	r3, #6
 3422 0064 9FE1     		b	.L240
 3423              	.L239:
 3424              		.loc 1 1648 0
 3425 0066 BDF82430 		ldrh	r3, [sp, #36]	@ movhi
 3426 006a DBB2     		uxtb	r3, r3
 3427 006c ADF82430 		strh	r3, [sp, #36]	@ movhi
 3428              		.loc 1 1655 0
 3429 0070 BDF82430 		ldrh	r3, [sp, #36]
 3430 0074 1846     		mov	r0, r3
 3431 0076 0121     		movs	r1, #1
 3432 0078 FFF7FEFF 		bl	ff_convert
 3433 007c 0346     		mov	r3, r0
 3434 007e ADF82430 		strh	r3, [sp, #36]	@ movhi
 3435              		.loc 1 1656 0
 3436 0082 BDF82430 		ldrh	r3, [sp, #36]
 3437 0086 002B     		cmp	r3, #0
 3438 0088 01D1     		bne	.L241
 3439              		.loc 1 1656 0 is_stmt 0 discriminator 1
 3440 008a 0623     		movs	r3, #6
 3441 008c 8BE1     		b	.L240
 3442              	.L241:
 3443              		.loc 1 1658 0 is_stmt 1
 3444 008e BDF82430 		ldrh	r3, [sp, #36]
 3445 0092 7F2B     		cmp	r3, #127
 3446 0094 0DD8     		bhi	.L242
 3447              		.loc 1 1658 0 is_stmt 0 discriminator 1
 3448 0096 BDF82430 		ldrh	r3, [sp, #36]
 3449 009a 40F20000 		movw	r0, #:lower16:.LC0
 3450 009e C0F20000 		movt	r0, #:upper16:.LC0
ARM GAS  /tmp/ccIWRJEN.s 			page 62


 3451 00a2 1946     		mov	r1, r3
 3452 00a4 FFF7FEFF 		bl	chk_chr
 3453 00a8 0346     		mov	r3, r0
 3454 00aa 002B     		cmp	r3, #0
 3455 00ac 01D0     		beq	.L242
 3456              		.loc 1 1659 0 is_stmt 1
 3457 00ae 0623     		movs	r3, #6
 3458 00b0 79E1     		b	.L240
 3459              	.L242:
 3460              		.loc 1 1660 0
 3461 00b2 059B     		ldr	r3, [sp, #20]
 3462 00b4 5A1C     		adds	r2, r3, #1
 3463 00b6 0592     		str	r2, [sp, #20]
 3464 00b8 5B00     		lsls	r3, r3, #1
 3465 00ba 039A     		ldr	r2, [sp, #12]
 3466 00bc 1344     		add	r3, r3, r2
 3467 00be BDF82420 		ldrh	r2, [sp, #36]	@ movhi
 3468 00c2 1A80     		strh	r2, [r3]	@ movhi
 3469              		.loc 1 1661 0
 3470 00c4 B6E7     		b	.L243
 3471              	.L238:
 3472              		.loc 1 1662 0
 3473 00c6 049A     		ldr	r2, [sp, #16]
 3474 00c8 069B     		ldr	r3, [sp, #24]
 3475 00ca 1A44     		add	r2, r2, r3
 3476 00cc 009B     		ldr	r3, [sp]
 3477 00ce 1A60     		str	r2, [r3]
 3478              		.loc 1 1663 0
 3479 00d0 BDF82430 		ldrh	r3, [sp, #36]
 3480 00d4 1F2B     		cmp	r3, #31
 3481 00d6 01D8     		bhi	.L244
 3482              		.loc 1 1663 0 is_stmt 0 discriminator 1
 3483 00d8 0423     		movs	r3, #4
 3484 00da 00E0     		b	.L245
 3485              	.L244:
 3486              		.loc 1 1663 0 discriminator 2
 3487 00dc 0023     		movs	r3, #0
 3488              	.L245:
 3489              		.loc 1 1663 0 discriminator 3
 3490 00de 8DF82630 		strb	r3, [sp, #38]
 3491              		.loc 1 1674 0 is_stmt 1 discriminator 3
 3492 00e2 15E0     		b	.L246
 3493              	.L249:
 3494              		.loc 1 1675 0
 3495 00e4 059B     		ldr	r3, [sp, #20]
 3496 00e6 03F10043 		add	r3, r3, #-2147483648
 3497 00ea 013B     		subs	r3, r3, #1
 3498 00ec 5B00     		lsls	r3, r3, #1
 3499 00ee 039A     		ldr	r2, [sp, #12]
 3500 00f0 1344     		add	r3, r3, r2
 3501 00f2 1B88     		ldrh	r3, [r3]	@ movhi
 3502 00f4 ADF82430 		strh	r3, [sp, #36]	@ movhi
 3503              		.loc 1 1676 0
 3504 00f8 BDF82430 		ldrh	r3, [sp, #36]
 3505 00fc 202B     		cmp	r3, #32
 3506 00fe 04D0     		beq	.L247
 3507              		.loc 1 1676 0 is_stmt 0 discriminator 1
ARM GAS  /tmp/ccIWRJEN.s 			page 63


 3508 0100 BDF82430 		ldrh	r3, [sp, #36]
 3509 0104 2E2B     		cmp	r3, #46
 3510 0106 00D0     		beq	.L247
 3511 0108 05E0     		b	.L248
 3512              	.L247:
 3513              		.loc 1 1677 0 is_stmt 1
 3514 010a 059B     		ldr	r3, [sp, #20]
 3515 010c 013B     		subs	r3, r3, #1
 3516 010e 0593     		str	r3, [sp, #20]
 3517              	.L246:
 3518              		.loc 1 1674 0 discriminator 1
 3519 0110 059B     		ldr	r3, [sp, #20]
 3520 0112 002B     		cmp	r3, #0
 3521 0114 E6D1     		bne	.L249
 3522              	.L248:
 3523              		.loc 1 1679 0
 3524 0116 059B     		ldr	r3, [sp, #20]
 3525 0118 002B     		cmp	r3, #0
 3526 011a 01D1     		bne	.L250
 3527              		.loc 1 1679 0 is_stmt 0 discriminator 1
 3528 011c 0623     		movs	r3, #6
 3529 011e 42E1     		b	.L240
 3530              	.L250:
 3531              		.loc 1 1681 0 is_stmt 1
 3532 0120 059B     		ldr	r3, [sp, #20]
 3533 0122 5B00     		lsls	r3, r3, #1
 3534 0124 039A     		ldr	r2, [sp, #12]
 3535 0126 1344     		add	r3, r3, r2
 3536 0128 0022     		movs	r2, #0
 3537 012a 1A80     		strh	r2, [r3]	@ movhi
 3538              		.loc 1 1684 0
 3539 012c 019B     		ldr	r3, [sp, #4]
 3540 012e 9B69     		ldr	r3, [r3, #24]
 3541 0130 1846     		mov	r0, r3
 3542 0132 2021     		movs	r1, #32
 3543 0134 0B22     		movs	r2, #11
 3544 0136 FFF7FEFF 		bl	mem_set
 3545              		.loc 1 1685 0
 3546 013a 0023     		movs	r3, #0
 3547 013c 0693     		str	r3, [sp, #24]
 3548 013e 02E0     		b	.L251
 3549              	.L252:
 3550              		.loc 1 1685 0 is_stmt 0 discriminator 2
 3551 0140 069B     		ldr	r3, [sp, #24]
 3552 0142 0133     		adds	r3, r3, #1
 3553 0144 0693     		str	r3, [sp, #24]
 3554              	.L251:
 3555              		.loc 1 1685 0 discriminator 1
 3556 0146 069B     		ldr	r3, [sp, #24]
 3557 0148 5B00     		lsls	r3, r3, #1
 3558 014a 039A     		ldr	r2, [sp, #12]
 3559 014c 1344     		add	r3, r3, r2
 3560 014e 1B88     		ldrh	r3, [r3]
 3561 0150 202B     		cmp	r3, #32
 3562 0152 F5D0     		beq	.L252
 3563              		.loc 1 1685 0 discriminator 3
 3564 0154 069B     		ldr	r3, [sp, #24]
ARM GAS  /tmp/ccIWRJEN.s 			page 64


 3565 0156 5B00     		lsls	r3, r3, #1
 3566 0158 039A     		ldr	r2, [sp, #12]
 3567 015a 1344     		add	r3, r3, r2
 3568 015c 1B88     		ldrh	r3, [r3]
 3569 015e 2E2B     		cmp	r3, #46
 3570 0160 EED0     		beq	.L252
 3571              		.loc 1 1686 0 is_stmt 1
 3572 0162 069B     		ldr	r3, [sp, #24]
 3573 0164 002B     		cmp	r3, #0
 3574 0166 06D0     		beq	.L253
 3575              		.loc 1 1686 0 is_stmt 0 discriminator 1
 3576 0168 9DF82630 		ldrb	r3, [sp, #38]
 3577 016c 43F00303 		orr	r3, r3, #3
 3578 0170 8DF82630 		strb	r3, [sp, #38]
 3579              		.loc 1 1687 0 is_stmt 1 discriminator 1
 3580 0174 03E0     		b	.L254
 3581              	.L253:
 3582              		.loc 1 1687 0 is_stmt 0
 3583 0176 02E0     		b	.L254
 3584              	.L256:
 3585              		.loc 1 1687 0 discriminator 1
 3586 0178 059B     		ldr	r3, [sp, #20]
 3587 017a 013B     		subs	r3, r3, #1
 3588 017c 0593     		str	r3, [sp, #20]
 3589              	.L254:
 3590 017e 059B     		ldr	r3, [sp, #20]
 3591 0180 002B     		cmp	r3, #0
 3592 0182 09D0     		beq	.L255
 3593              		.loc 1 1687 0 discriminator 2
 3594 0184 059B     		ldr	r3, [sp, #20]
 3595 0186 03F10043 		add	r3, r3, #-2147483648
 3596 018a 013B     		subs	r3, r3, #1
 3597 018c 5B00     		lsls	r3, r3, #1
 3598 018e 039A     		ldr	r2, [sp, #12]
 3599 0190 1344     		add	r3, r3, r2
 3600 0192 1B88     		ldrh	r3, [r3]
 3601 0194 2E2B     		cmp	r3, #46
 3602 0196 EFD1     		bne	.L256
 3603              	.L255:
 3604              		.loc 1 1689 0 is_stmt 1
 3605 0198 0023     		movs	r3, #0
 3606 019a 0893     		str	r3, [sp, #32]
 3607 019c 0023     		movs	r3, #0
 3608 019e 8DF82730 		strb	r3, [sp, #39]
 3609 01a2 0823     		movs	r3, #8
 3610 01a4 0793     		str	r3, [sp, #28]
 3611              	.L273:
 3612              		.loc 1 1691 0
 3613 01a6 069B     		ldr	r3, [sp, #24]
 3614 01a8 5A1C     		adds	r2, r3, #1
 3615 01aa 0692     		str	r2, [sp, #24]
 3616 01ac 5B00     		lsls	r3, r3, #1
 3617 01ae 039A     		ldr	r2, [sp, #12]
 3618 01b0 1344     		add	r3, r3, r2
 3619 01b2 1B88     		ldrh	r3, [r3]	@ movhi
 3620 01b4 ADF82430 		strh	r3, [sp, #36]	@ movhi
 3621              		.loc 1 1692 0
ARM GAS  /tmp/ccIWRJEN.s 			page 65


 3622 01b8 BDF82430 		ldrh	r3, [sp, #36]
 3623 01bc 002B     		cmp	r3, #0
 3624 01be 00D1     		bne	.L257
 3625              		.loc 1 1692 0 is_stmt 0 discriminator 1
 3626 01c0 A9E0     		b	.L258
 3627              	.L257:
 3628              		.loc 1 1693 0 is_stmt 1
 3629 01c2 BDF82430 		ldrh	r3, [sp, #36]
 3630 01c6 202B     		cmp	r3, #32
 3631 01c8 07D0     		beq	.L259
 3632              		.loc 1 1693 0 is_stmt 0 discriminator 1
 3633 01ca BDF82430 		ldrh	r3, [sp, #36]
 3634 01ce 2E2B     		cmp	r3, #46
 3635 01d0 0AD1     		bne	.L260
 3636 01d2 069A     		ldr	r2, [sp, #24]
 3637 01d4 059B     		ldr	r3, [sp, #20]
 3638 01d6 9A42     		cmp	r2, r3
 3639 01d8 06D0     		beq	.L260
 3640              	.L259:
 3641              		.loc 1 1694 0 is_stmt 1
 3642 01da 9DF82630 		ldrb	r3, [sp, #38]
 3643 01de 43F00303 		orr	r3, r3, #3
 3644 01e2 8DF82630 		strb	r3, [sp, #38]
 3645 01e6 95E0     		b	.L261
 3646              	.L260:
 3647              		.loc 1 1697 0
 3648 01e8 089A     		ldr	r2, [sp, #32]
 3649 01ea 079B     		ldr	r3, [sp, #28]
 3650 01ec 9A42     		cmp	r2, r3
 3651 01ee 03D2     		bcs	.L262
 3652              		.loc 1 1697 0 is_stmt 0 discriminator 1
 3653 01f0 069A     		ldr	r2, [sp, #24]
 3654 01f2 059B     		ldr	r3, [sp, #20]
 3655 01f4 9A42     		cmp	r2, r3
 3656 01f6 24D1     		bne	.L263
 3657              	.L262:
 3658              		.loc 1 1698 0 is_stmt 1
 3659 01f8 079B     		ldr	r3, [sp, #28]
 3660 01fa 0B2B     		cmp	r3, #11
 3661 01fc 06D1     		bne	.L264
 3662              		.loc 1 1699 0
 3663 01fe 9DF82630 		ldrb	r3, [sp, #38]
 3664 0202 43F00303 		orr	r3, r3, #3
 3665 0206 8DF82630 		strb	r3, [sp, #38]
 3666 020a 84E0     		b	.L258
 3667              	.L264:
 3668              		.loc 1 1701 0
 3669 020c 069A     		ldr	r2, [sp, #24]
 3670 020e 059B     		ldr	r3, [sp, #20]
 3671 0210 9A42     		cmp	r2, r3
 3672 0212 05D0     		beq	.L265
 3673              		.loc 1 1701 0 is_stmt 0 discriminator 1
 3674 0214 9DF82630 		ldrb	r3, [sp, #38]
 3675 0218 43F00303 		orr	r3, r3, #3
 3676 021c 8DF82630 		strb	r3, [sp, #38]
 3677              	.L265:
 3678              		.loc 1 1702 0 is_stmt 1
ARM GAS  /tmp/ccIWRJEN.s 			page 66


 3679 0220 069A     		ldr	r2, [sp, #24]
 3680 0222 059B     		ldr	r3, [sp, #20]
 3681 0224 9A42     		cmp	r2, r3
 3682 0226 00D9     		bls	.L266
 3683              		.loc 1 1702 0 is_stmt 0 discriminator 1
 3684 0228 75E0     		b	.L258
 3685              	.L266:
 3686              		.loc 1 1703 0 is_stmt 1
 3687 022a 059B     		ldr	r3, [sp, #20]
 3688 022c 0693     		str	r3, [sp, #24]
 3689 022e 0823     		movs	r3, #8
 3690 0230 0893     		str	r3, [sp, #32]
 3691 0232 0B23     		movs	r3, #11
 3692 0234 0793     		str	r3, [sp, #28]
 3693              		.loc 1 1704 0
 3694 0236 9DF82730 		ldrb	r3, [sp, #39]
 3695 023a 9B00     		lsls	r3, r3, #2
 3696 023c 8DF82730 		strb	r3, [sp, #39]
 3697 0240 68E0     		b	.L261
 3698              	.L263:
 3699              		.loc 1 1707 0
 3700 0242 BDF82430 		ldrh	r3, [sp, #36]
 3701 0246 7F2B     		cmp	r3, #127
 3702 0248 1DD9     		bls	.L280
 3703              		.loc 1 1709 0
 3704 024a BDF82430 		ldrh	r3, [sp, #36]
 3705 024e 1846     		mov	r0, r3
 3706 0250 0021     		movs	r1, #0
 3707 0252 FFF7FEFF 		bl	ff_convert
 3708 0256 0346     		mov	r3, r0
 3709 0258 ADF82430 		strh	r3, [sp, #36]	@ movhi
 3710              		.loc 1 1710 0
 3711 025c BDF82430 		ldrh	r3, [sp, #36]
 3712 0260 002B     		cmp	r3, #0
 3713 0262 0AD0     		beq	.L268
 3714              		.loc 1 1710 0 is_stmt 0 discriminator 1
 3715 0264 BDF82430 		ldrh	r3, [sp, #36]
 3716 0268 A3F18002 		sub	r2, r3, #128
 3717 026c 40F20003 		movw	r3, #:lower16:excvt.5289
 3718 0270 C0F20003 		movt	r3, #:upper16:excvt.5289
 3719 0274 9B5C     		ldrb	r3, [r3, r2]	@ zero_extendqisi2
 3720 0276 ADF82430 		strh	r3, [sp, #36]	@ movhi
 3721              	.L268:
 3722              		.loc 1 1714 0 is_stmt 1
 3723 027a 9DF82630 		ldrb	r3, [sp, #38]
 3724 027e 43F00203 		orr	r3, r3, #2
 3725 0282 8DF82630 		strb	r3, [sp, #38]
 3726              	.L280:
 3727              		.loc 1 1723 0
 3728 0286 BDF82430 		ldrh	r3, [sp, #36]
 3729 028a 002B     		cmp	r3, #0
 3730 028c 0BD0     		beq	.L269
 3731              		.loc 1 1723 0 is_stmt 0 discriminator 1
 3732 028e BDF82430 		ldrh	r3, [sp, #36]
 3733 0292 40F20000 		movw	r0, #:lower16:.LC1
 3734 0296 C0F20000 		movt	r0, #:upper16:.LC1
 3735 029a 1946     		mov	r1, r3
ARM GAS  /tmp/ccIWRJEN.s 			page 67


 3736 029c FFF7FEFF 		bl	chk_chr
 3737 02a0 0346     		mov	r3, r0
 3738 02a2 002B     		cmp	r3, #0
 3739 02a4 09D0     		beq	.L270
 3740              	.L269:
 3741              		.loc 1 1724 0 is_stmt 1
 3742 02a6 5F23     		movs	r3, #95
 3743 02a8 ADF82430 		strh	r3, [sp, #36]	@ movhi
 3744 02ac 9DF82630 		ldrb	r3, [sp, #38]
 3745 02b0 43F00303 		orr	r3, r3, #3
 3746 02b4 8DF82630 		strb	r3, [sp, #38]
 3747 02b8 21E0     		b	.L271
 3748              	.L270:
 3749              		.loc 1 1726 0
 3750 02ba BDF82430 		ldrh	r3, [sp, #36]
 3751 02be 402B     		cmp	r3, #64
 3752 02c0 0AD9     		bls	.L272
 3753              		.loc 1 1726 0 is_stmt 0 discriminator 1
 3754 02c2 BDF82430 		ldrh	r3, [sp, #36]
 3755 02c6 5A2B     		cmp	r3, #90
 3756 02c8 06D8     		bhi	.L272
 3757              		.loc 1 1727 0 is_stmt 1
 3758 02ca 9DF82730 		ldrb	r3, [sp, #39]
 3759 02ce 43F00203 		orr	r3, r3, #2
 3760 02d2 8DF82730 		strb	r3, [sp, #39]
 3761 02d6 12E0     		b	.L271
 3762              	.L272:
 3763              		.loc 1 1729 0
 3764 02d8 BDF82430 		ldrh	r3, [sp, #36]
 3765 02dc 602B     		cmp	r3, #96
 3766 02de 0ED9     		bls	.L271
 3767              		.loc 1 1729 0 is_stmt 0 discriminator 1
 3768 02e0 BDF82430 		ldrh	r3, [sp, #36]
 3769 02e4 7A2B     		cmp	r3, #122
 3770 02e6 0AD8     		bhi	.L271
 3771              		.loc 1 1730 0 is_stmt 1
 3772 02e8 9DF82730 		ldrb	r3, [sp, #39]
 3773 02ec 43F00103 		orr	r3, r3, #1
 3774 02f0 8DF82730 		strb	r3, [sp, #39]
 3775 02f4 BDF82430 		ldrh	r3, [sp, #36]	@ movhi
 3776 02f8 203B     		subs	r3, r3, #32
 3777 02fa ADF82430 		strh	r3, [sp, #36]	@ movhi
 3778              	.L271:
 3779              		.loc 1 1735 0
 3780 02fe 019B     		ldr	r3, [sp, #4]
 3781 0300 9A69     		ldr	r2, [r3, #24]
 3782 0302 089B     		ldr	r3, [sp, #32]
 3783 0304 591C     		adds	r1, r3, #1
 3784 0306 0891     		str	r1, [sp, #32]
 3785 0308 1344     		add	r3, r3, r2
 3786 030a BDF82420 		ldrh	r2, [sp, #36]	@ movhi
 3787 030e D2B2     		uxtb	r2, r2
 3788 0310 1A70     		strb	r2, [r3]
 3789              		.loc 1 1736 0
 3790 0312 48E7     		b	.L273
 3791              	.L261:
 3792 0314 47E7     		b	.L273
ARM GAS  /tmp/ccIWRJEN.s 			page 68


 3793              	.L258:
 3794              		.loc 1 1738 0
 3795 0316 019B     		ldr	r3, [sp, #4]
 3796 0318 9B69     		ldr	r3, [r3, #24]
 3797 031a 1B78     		ldrb	r3, [r3]	@ zero_extendqisi2
 3798 031c E52B     		cmp	r3, #229
 3799 031e 03D1     		bne	.L274
 3800              		.loc 1 1738 0 is_stmt 0 discriminator 1
 3801 0320 019B     		ldr	r3, [sp, #4]
 3802 0322 9B69     		ldr	r3, [r3, #24]
 3803 0324 0522     		movs	r2, #5
 3804 0326 1A70     		strb	r2, [r3]
 3805              	.L274:
 3806              		.loc 1 1740 0 is_stmt 1
 3807 0328 079B     		ldr	r3, [sp, #28]
 3808 032a 082B     		cmp	r3, #8
 3809 032c 04D1     		bne	.L275
 3810              		.loc 1 1740 0 is_stmt 0 discriminator 1
 3811 032e 9DF82730 		ldrb	r3, [sp, #39]
 3812 0332 9B00     		lsls	r3, r3, #2
 3813 0334 8DF82730 		strb	r3, [sp, #39]
 3814              	.L275:
 3815              		.loc 1 1741 0 is_stmt 1
 3816 0338 9DF82730 		ldrb	r3, [sp, #39]	@ zero_extendqisi2
 3817 033c 03F00C03 		and	r3, r3, #12
 3818 0340 0C2B     		cmp	r3, #12
 3819 0342 05D0     		beq	.L276
 3820              		.loc 1 1741 0 is_stmt 0 discriminator 1
 3821 0344 9DF82730 		ldrb	r3, [sp, #39]	@ zero_extendqisi2
 3822 0348 03F00303 		and	r3, r3, #3
 3823 034c 032B     		cmp	r3, #3
 3824 034e 05D1     		bne	.L277
 3825              	.L276:
 3826              		.loc 1 1742 0 is_stmt 1
 3827 0350 9DF82630 		ldrb	r3, [sp, #38]
 3828 0354 43F00203 		orr	r3, r3, #2
 3829 0358 8DF82630 		strb	r3, [sp, #38]
 3830              	.L277:
 3831              		.loc 1 1743 0
 3832 035c 9DF82630 		ldrb	r3, [sp, #38]	@ zero_extendqisi2
 3833 0360 03F00203 		and	r3, r3, #2
 3834 0364 002B     		cmp	r3, #0
 3835 0366 17D1     		bne	.L278
 3836              		.loc 1 1744 0
 3837 0368 9DF82730 		ldrb	r3, [sp, #39]	@ zero_extendqisi2
 3838 036c 03F00303 		and	r3, r3, #3
 3839 0370 012B     		cmp	r3, #1
 3840 0372 05D1     		bne	.L279
 3841              		.loc 1 1744 0 is_stmt 0 discriminator 1
 3842 0374 9DF82630 		ldrb	r3, [sp, #38]
 3843 0378 43F01003 		orr	r3, r3, #16
 3844 037c 8DF82630 		strb	r3, [sp, #38]
 3845              	.L279:
 3846              		.loc 1 1745 0 is_stmt 1
 3847 0380 9DF82730 		ldrb	r3, [sp, #39]	@ zero_extendqisi2
 3848 0384 03F00C03 		and	r3, r3, #12
 3849 0388 042B     		cmp	r3, #4
ARM GAS  /tmp/ccIWRJEN.s 			page 69


 3850 038a 05D1     		bne	.L278
 3851              		.loc 1 1745 0 is_stmt 0 discriminator 1
 3852 038c 9DF82630 		ldrb	r3, [sp, #38]
 3853 0390 43F00803 		orr	r3, r3, #8
 3854 0394 8DF82630 		strb	r3, [sp, #38]
 3855              	.L278:
 3856              		.loc 1 1748 0 is_stmt 1
 3857 0398 019B     		ldr	r3, [sp, #4]
 3858 039a 9B69     		ldr	r3, [r3, #24]
 3859 039c 0B33     		adds	r3, r3, #11
 3860 039e 9DF82620 		ldrb	r2, [sp, #38]
 3861 03a2 1A70     		strb	r2, [r3]
 3862              		.loc 1 1750 0
 3863 03a4 0023     		movs	r3, #0
 3864              	.L240:
 3865              		.loc 1 1827 0
 3866 03a6 1846     		mov	r0, r3
 3867 03a8 0BB0     		add	sp, sp, #44
 3868              		@ sp needed
 3869 03aa 5DF804FB 		ldr	pc, [sp], #4
 3870              		.cfi_endproc
 3871              	.LFE29:
 3872              		.size	create_name, .-create_name
 3873 03ae 00BF     		.section	.text.get_fileinfo,"ax",%progbits
 3874              		.align	2
 3875              		.p2align 4,,15
 3876              		.thumb
 3877              		.thumb_func
 3878              		.type	get_fileinfo, %function
 3879              	get_fileinfo:
 3880              	.LFB30:
 3881              		.loc 1 1841 0
 3882              		.cfi_startproc
 3883              		@ args = 0, pretend = 0, frame = 40
 3884              		@ frame_needed = 0, uses_anonymous_args = 0
 3885 0000 00B5     		push	{lr}
 3886              		.cfi_def_cfa_offset 4
 3887              		.cfi_offset 14, -4
 3888 0002 8BB0     		sub	sp, sp, #44
 3889              		.cfi_def_cfa_offset 48
 3890 0004 0190     		str	r0, [sp, #4]
 3891 0006 0091     		str	r1, [sp]
 3892              		.loc 1 1847 0
 3893 0008 009B     		ldr	r3, [sp]
 3894 000a 0933     		adds	r3, r3, #9
 3895 000c 0893     		str	r3, [sp, #32]
 3896              		.loc 1 1848 0
 3897 000e 019B     		ldr	r3, [sp, #4]
 3898 0010 1B69     		ldr	r3, [r3, #16]
 3899 0012 002B     		cmp	r3, #0
 3900 0014 00F08280 		beq	.L282
 3901              		.loc 1 1849 0
 3902 0018 019B     		ldr	r3, [sp, #4]
 3903 001a 5B69     		ldr	r3, [r3, #20]
 3904 001c 0593     		str	r3, [sp, #20]
 3905              		.loc 1 1850 0
 3906 001e 059B     		ldr	r3, [sp, #20]
ARM GAS  /tmp/ccIWRJEN.s 			page 70


 3907 0020 1B7B     		ldrb	r3, [r3, #12]
 3908 0022 8DF81330 		strb	r3, [sp, #19]
 3909              		.loc 1 1851 0
 3910 0026 0023     		movs	r3, #0
 3911 0028 0993     		str	r3, [sp, #36]
 3912 002a 2DE0     		b	.L283
 3913              	.L288:
 3914              		.loc 1 1852 0
 3915 002c 059A     		ldr	r2, [sp, #20]
 3916 002e 099B     		ldr	r3, [sp, #36]
 3917 0030 1344     		add	r3, r3, r2
 3918 0032 1B78     		ldrb	r3, [r3]
 3919 0034 8DF81F30 		strb	r3, [sp, #31]
 3920              		.loc 1 1853 0
 3921 0038 9DF81F30 		ldrb	r3, [sp, #31]	@ zero_extendqisi2
 3922 003c 202B     		cmp	r3, #32
 3923 003e 00D1     		bne	.L284
 3924              		.loc 1 1853 0 is_stmt 0 discriminator 1
 3925 0040 25E0     		b	.L285
 3926              	.L284:
 3927              		.loc 1 1854 0 is_stmt 1
 3928 0042 9DF81F30 		ldrb	r3, [sp, #31]	@ zero_extendqisi2
 3929 0046 052B     		cmp	r3, #5
 3930 0048 02D1     		bne	.L286
 3931              		.loc 1 1854 0 is_stmt 0 discriminator 1
 3932 004a E523     		movs	r3, #229
 3933 004c 8DF81F30 		strb	r3, [sp, #31]
 3934              	.L286:
 3935              		.loc 1 1855 0 is_stmt 1
 3936 0050 9DF81330 		ldrb	r3, [sp, #19]	@ zero_extendqisi2
 3937 0054 03F00803 		and	r3, r3, #8
 3938 0058 002B     		cmp	r3, #0
 3939 005a 0CD0     		beq	.L287
 3940              		.loc 1 1855 0 is_stmt 0 discriminator 1
 3941 005c 9DF81F30 		ldrb	r3, [sp, #31]	@ zero_extendqisi2
 3942 0060 402B     		cmp	r3, #64
 3943 0062 08D9     		bls	.L287
 3944 0064 9DF81F30 		ldrb	r3, [sp, #31]	@ zero_extendqisi2
 3945 0068 5A2B     		cmp	r3, #90
 3946 006a 04D8     		bhi	.L287
 3947 006c 9DF81F30 		ldrb	r3, [sp, #31]
 3948 0070 2033     		adds	r3, r3, #32
 3949 0072 8DF81F30 		strb	r3, [sp, #31]
 3950              	.L287:
 3951              		.loc 1 1862 0 is_stmt 1
 3952 0076 089B     		ldr	r3, [sp, #32]
 3953 0078 5A1C     		adds	r2, r3, #1
 3954 007a 0892     		str	r2, [sp, #32]
 3955 007c 9DF81F20 		ldrb	r2, [sp, #31]
 3956 0080 1A70     		strb	r2, [r3]
 3957              		.loc 1 1851 0
 3958 0082 099B     		ldr	r3, [sp, #36]
 3959 0084 0133     		adds	r3, r3, #1
 3960 0086 0993     		str	r3, [sp, #36]
 3961              	.L283:
 3962              		.loc 1 1851 0 is_stmt 0 discriminator 1
 3963 0088 099B     		ldr	r3, [sp, #36]
ARM GAS  /tmp/ccIWRJEN.s 			page 71


 3964 008a 072B     		cmp	r3, #7
 3965 008c CED9     		bls	.L288
 3966              	.L285:
 3967              		.loc 1 1864 0 is_stmt 1
 3968 008e 059B     		ldr	r3, [sp, #20]
 3969 0090 0833     		adds	r3, r3, #8
 3970 0092 1B78     		ldrb	r3, [r3]	@ zero_extendqisi2
 3971 0094 202B     		cmp	r3, #32
 3972 0096 31D0     		beq	.L289
 3973              		.loc 1 1865 0
 3974 0098 089B     		ldr	r3, [sp, #32]
 3975 009a 5A1C     		adds	r2, r3, #1
 3976 009c 0892     		str	r2, [sp, #32]
 3977 009e 2E22     		movs	r2, #46
 3978 00a0 1A70     		strb	r2, [r3]
 3979              		.loc 1 1866 0
 3980 00a2 0823     		movs	r3, #8
 3981 00a4 0993     		str	r3, [sp, #36]
 3982 00a6 26E0     		b	.L290
 3983              	.L293:
 3984              		.loc 1 1867 0
 3985 00a8 059A     		ldr	r2, [sp, #20]
 3986 00aa 099B     		ldr	r3, [sp, #36]
 3987 00ac 1344     		add	r3, r3, r2
 3988 00ae 1B78     		ldrb	r3, [r3]
 3989 00b0 8DF81F30 		strb	r3, [sp, #31]
 3990              		.loc 1 1868 0
 3991 00b4 9DF81F30 		ldrb	r3, [sp, #31]	@ zero_extendqisi2
 3992 00b8 202B     		cmp	r3, #32
 3993 00ba 00D1     		bne	.L291
 3994              		.loc 1 1868 0 is_stmt 0 discriminator 1
 3995 00bc 1EE0     		b	.L289
 3996              	.L291:
 3997              		.loc 1 1869 0 is_stmt 1
 3998 00be 9DF81330 		ldrb	r3, [sp, #19]	@ zero_extendqisi2
 3999 00c2 03F01003 		and	r3, r3, #16
 4000 00c6 002B     		cmp	r3, #0
 4001 00c8 0CD0     		beq	.L292
 4002              		.loc 1 1869 0 is_stmt 0 discriminator 1
 4003 00ca 9DF81F30 		ldrb	r3, [sp, #31]	@ zero_extendqisi2
 4004 00ce 402B     		cmp	r3, #64
 4005 00d0 08D9     		bls	.L292
 4006 00d2 9DF81F30 		ldrb	r3, [sp, #31]	@ zero_extendqisi2
 4007 00d6 5A2B     		cmp	r3, #90
 4008 00d8 04D8     		bhi	.L292
 4009 00da 9DF81F30 		ldrb	r3, [sp, #31]
 4010 00de 2033     		adds	r3, r3, #32
 4011 00e0 8DF81F30 		strb	r3, [sp, #31]
 4012              	.L292:
 4013              		.loc 1 1876 0 is_stmt 1
 4014 00e4 089B     		ldr	r3, [sp, #32]
 4015 00e6 5A1C     		adds	r2, r3, #1
 4016 00e8 0892     		str	r2, [sp, #32]
 4017 00ea 9DF81F20 		ldrb	r2, [sp, #31]
 4018 00ee 1A70     		strb	r2, [r3]
 4019              		.loc 1 1866 0
 4020 00f0 099B     		ldr	r3, [sp, #36]
ARM GAS  /tmp/ccIWRJEN.s 			page 72


 4021 00f2 0133     		adds	r3, r3, #1
 4022 00f4 0993     		str	r3, [sp, #36]
 4023              	.L290:
 4024              		.loc 1 1866 0 is_stmt 0 discriminator 1
 4025 00f6 099B     		ldr	r3, [sp, #36]
 4026 00f8 0A2B     		cmp	r3, #10
 4027 00fa D5D9     		bls	.L293
 4028              	.L289:
 4029              		.loc 1 1879 0 is_stmt 1
 4030 00fc 059B     		ldr	r3, [sp, #20]
 4031 00fe DA7A     		ldrb	r2, [r3, #11]	@ zero_extendqisi2
 4032 0100 009B     		ldr	r3, [sp]
 4033 0102 1A72     		strb	r2, [r3, #8]
 4034              		.loc 1 1880 0
 4035 0104 059B     		ldr	r3, [sp, #20]
 4036 0106 DA69     		ldr	r2, [r3, #28]
 4037 0108 009B     		ldr	r3, [sp]
 4038 010a 1A60     		str	r2, [r3]
 4039              		.loc 1 1881 0
 4040 010c 059B     		ldr	r3, [sp, #20]
 4041 010e 1A8B     		ldrh	r2, [r3, #24]
 4042 0110 009B     		ldr	r3, [sp]
 4043 0112 9A80     		strh	r2, [r3, #4]	@ movhi
 4044              		.loc 1 1882 0
 4045 0114 059B     		ldr	r3, [sp, #20]
 4046 0116 DA8A     		ldrh	r2, [r3, #22]
 4047 0118 009B     		ldr	r3, [sp]
 4048 011a DA80     		strh	r2, [r3, #6]	@ movhi
 4049              	.L282:
 4050              		.loc 1 1884 0
 4051 011c 089B     		ldr	r3, [sp, #32]
 4052 011e 0022     		movs	r2, #0
 4053 0120 1A70     		strb	r2, [r3]
 4054              		.loc 1 1887 0
 4055 0122 009B     		ldr	r3, [sp]
 4056 0124 9B69     		ldr	r3, [r3, #24]
 4057 0126 002B     		cmp	r3, #0
 4058 0128 47D0     		beq	.L281
 4059              		.loc 1 1887 0 is_stmt 0 discriminator 1
 4060 012a 009B     		ldr	r3, [sp]
 4061 012c DB69     		ldr	r3, [r3, #28]
 4062 012e 002B     		cmp	r3, #0
 4063 0130 43D0     		beq	.L281
 4064              	.LBB4:
 4065              		.loc 1 1888 0 is_stmt 1
 4066 0132 009B     		ldr	r3, [sp]
 4067 0134 9B69     		ldr	r3, [r3, #24]
 4068 0136 0393     		str	r3, [sp, #12]
 4069              		.loc 1 1891 0
 4070 0138 0023     		movs	r3, #0
 4071 013a 0993     		str	r3, [sp, #36]
 4072              		.loc 1 1892 0
 4073 013c 019B     		ldr	r3, [sp, #4]
 4074 013e 1B69     		ldr	r3, [r3, #16]
 4075 0140 002B     		cmp	r3, #0
 4076 0142 35D0     		beq	.L295
 4077              		.loc 1 1892 0 is_stmt 0 discriminator 1
ARM GAS  /tmp/ccIWRJEN.s 			page 73


 4078 0144 019B     		ldr	r3, [sp, #4]
 4079 0146 1A8C     		ldrh	r2, [r3, #32]
 4080 0148 4FF6FF73 		movw	r3, #65535
 4081 014c 9A42     		cmp	r2, r3
 4082 014e 2FD0     		beq	.L295
 4083              		.loc 1 1893 0 is_stmt 1
 4084 0150 019B     		ldr	r3, [sp, #4]
 4085 0152 DB69     		ldr	r3, [r3, #28]
 4086 0154 0693     		str	r3, [sp, #24]
 4087              		.loc 1 1894 0
 4088 0156 21E0     		b	.L296
 4089              	.L299:
 4090              		.loc 1 1896 0
 4091 0158 BDF80A30 		ldrh	r3, [sp, #10]
 4092 015c 1846     		mov	r0, r3
 4093 015e 0021     		movs	r1, #0
 4094 0160 FFF7FEFF 		bl	ff_convert
 4095 0164 0346     		mov	r3, r0
 4096 0166 ADF80A30 		strh	r3, [sp, #10]	@ movhi
 4097              		.loc 1 1897 0
 4098 016a BDF80A30 		ldrh	r3, [sp, #10]
 4099 016e 002B     		cmp	r3, #0
 4100 0170 02D1     		bne	.L297
 4101              		.loc 1 1897 0 is_stmt 0 discriminator 1
 4102 0172 0023     		movs	r3, #0
 4103 0174 0993     		str	r3, [sp, #36]
 4104 0176 1BE0     		b	.L295
 4105              	.L297:
 4106              		.loc 1 1901 0 is_stmt 1
 4107 0178 009B     		ldr	r3, [sp]
 4108 017a DB69     		ldr	r3, [r3, #28]
 4109 017c 5A1E     		subs	r2, r3, #1
 4110 017e 099B     		ldr	r3, [sp, #36]
 4111 0180 9A42     		cmp	r2, r3
 4112 0182 02D8     		bhi	.L298
 4113              		.loc 1 1901 0 is_stmt 0 discriminator 1
 4114 0184 0023     		movs	r3, #0
 4115 0186 0993     		str	r3, [sp, #36]
 4116 0188 12E0     		b	.L295
 4117              	.L298:
 4118              		.loc 1 1902 0 is_stmt 1
 4119 018a 099B     		ldr	r3, [sp, #36]
 4120 018c 5A1C     		adds	r2, r3, #1
 4121 018e 0992     		str	r2, [sp, #36]
 4122 0190 039A     		ldr	r2, [sp, #12]
 4123 0192 1344     		add	r3, r3, r2
 4124 0194 BDF80A20 		ldrh	r2, [sp, #10]	@ movhi
 4125 0198 D2B2     		uxtb	r2, r2
 4126 019a 1A70     		strb	r2, [r3]
 4127              	.L296:
 4128              		.loc 1 1894 0 discriminator 1
 4129 019c 069B     		ldr	r3, [sp, #24]
 4130 019e 9A1C     		adds	r2, r3, #2
 4131 01a0 0692     		str	r2, [sp, #24]
 4132 01a2 1B88     		ldrh	r3, [r3]	@ movhi
 4133 01a4 ADF80A30 		strh	r3, [sp, #10]	@ movhi
 4134 01a8 BDF80A30 		ldrh	r3, [sp, #10]
ARM GAS  /tmp/ccIWRJEN.s 			page 74


 4135 01ac 002B     		cmp	r3, #0
 4136 01ae D3D1     		bne	.L299
 4137              	.L295:
 4138              		.loc 1 1905 0
 4139 01b0 039A     		ldr	r2, [sp, #12]
 4140 01b2 099B     		ldr	r3, [sp, #36]
 4141 01b4 1344     		add	r3, r3, r2
 4142 01b6 0022     		movs	r2, #0
 4143 01b8 1A70     		strb	r2, [r3]
 4144              	.L281:
 4145              	.LBE4:
 4146              		.loc 1 1908 0
 4147 01ba 0BB0     		add	sp, sp, #44
 4148              		@ sp needed
 4149 01bc 5DF804FB 		ldr	pc, [sp], #4
 4150              		.cfi_endproc
 4151              	.LFE30:
 4152              		.size	get_fileinfo, .-get_fileinfo
 4153              		.section	.text.follow_path,"ax",%progbits
 4154              		.align	2
 4155              		.p2align 4,,15
 4156              		.thumb
 4157              		.thumb_func
 4158              		.type	follow_path, %function
 4159              	follow_path:
 4160              	.LFB31:
 4161              		.loc 1 1923 0
 4162              		.cfi_startproc
 4163              		@ args = 0, pretend = 0, frame = 16
 4164              		@ frame_needed = 0, uses_anonymous_args = 0
 4165 0000 00B5     		push	{lr}
 4166              		.cfi_def_cfa_offset 4
 4167              		.cfi_offset 14, -4
 4168 0002 85B0     		sub	sp, sp, #20
 4169              		.cfi_def_cfa_offset 24
 4170 0004 0190     		str	r0, [sp, #4]
 4171 0006 0091     		str	r1, [sp]
 4172              		.loc 1 1935 0
 4173 0008 009B     		ldr	r3, [sp]
 4174 000a 1B78     		ldrb	r3, [r3]	@ zero_extendqisi2
 4175 000c 2F2B     		cmp	r3, #47
 4176 000e 03D0     		beq	.L301
 4177              		.loc 1 1935 0 is_stmt 0 discriminator 1
 4178 0010 009B     		ldr	r3, [sp]
 4179 0012 1B78     		ldrb	r3, [r3]	@ zero_extendqisi2
 4180 0014 5C2B     		cmp	r3, #92
 4181 0016 02D1     		bne	.L302
 4182              	.L301:
 4183              		.loc 1 1936 0 is_stmt 1
 4184 0018 009B     		ldr	r3, [sp]
 4185 001a 0133     		adds	r3, r3, #1
 4186 001c 0093     		str	r3, [sp]
 4187              	.L302:
 4188              		.loc 1 1937 0
 4189 001e 019B     		ldr	r3, [sp, #4]
 4190 0020 0022     		movs	r2, #0
 4191 0022 9A60     		str	r2, [r3, #8]
ARM GAS  /tmp/ccIWRJEN.s 			page 75


 4192              		.loc 1 1940 0
 4193 0024 009B     		ldr	r3, [sp]
 4194 0026 1B78     		ldrb	r3, [r3]	@ zero_extendqisi2
 4195 0028 1F2B     		cmp	r3, #31
 4196 002a 0AD8     		bhi	.L303
 4197              		.loc 1 1941 0
 4198 002c 0198     		ldr	r0, [sp, #4]
 4199 002e 0021     		movs	r1, #0
 4200 0030 FFF7FEFF 		bl	dir_sdi
 4201 0034 0346     		mov	r3, r0
 4202 0036 8DF80F30 		strb	r3, [sp, #15]
 4203              		.loc 1 1942 0
 4204 003a 019B     		ldr	r3, [sp, #4]
 4205 003c 0022     		movs	r2, #0
 4206 003e 5A61     		str	r2, [r3, #20]
 4207 0040 4BE0     		b	.L304
 4208              	.L303:
 4209              		.loc 1 1946 0
 4210 0042 6B46     		mov	r3, sp
 4211 0044 0198     		ldr	r0, [sp, #4]
 4212 0046 1946     		mov	r1, r3
 4213 0048 FFF7FEFF 		bl	create_name
 4214 004c 0346     		mov	r3, r0
 4215 004e 8DF80F30 		strb	r3, [sp, #15]
 4216              		.loc 1 1947 0
 4217 0052 9DF80F30 		ldrb	r3, [sp, #15]	@ zero_extendqisi2
 4218 0056 002B     		cmp	r3, #0
 4219 0058 00D0     		beq	.L305
 4220              		.loc 1 1947 0 is_stmt 0 discriminator 1
 4221 005a 3EE0     		b	.L304
 4222              	.L305:
 4223              		.loc 1 1948 0 is_stmt 1
 4224 005c 0198     		ldr	r0, [sp, #4]
 4225 005e FFF7FEFF 		bl	dir_find
 4226 0062 0346     		mov	r3, r0
 4227 0064 8DF80F30 		strb	r3, [sp, #15]
 4228              		.loc 1 1949 0
 4229 0068 019B     		ldr	r3, [sp, #4]
 4230 006a 9B69     		ldr	r3, [r3, #24]
 4231 006c DB7A     		ldrb	r3, [r3, #11]
 4232 006e 8DF80E30 		strb	r3, [sp, #14]
 4233              		.loc 1 1950 0
 4234 0072 9DF80F30 		ldrb	r3, [sp, #15]	@ zero_extendqisi2
 4235 0076 002B     		cmp	r3, #0
 4236 0078 0FD0     		beq	.L306
 4237              		.loc 1 1951 0
 4238 007a 9DF80F30 		ldrb	r3, [sp, #15]	@ zero_extendqisi2
 4239 007e 042B     		cmp	r3, #4
 4240 0080 00D0     		beq	.L307
 4241              		.loc 1 1951 0 is_stmt 0 discriminator 1
 4242 0082 2AE0     		b	.L304
 4243              	.L307:
 4244              		.loc 1 1958 0 is_stmt 1
 4245 0084 9DF80E30 		ldrb	r3, [sp, #14]	@ zero_extendqisi2
 4246 0088 03F00403 		and	r3, r3, #4
 4247 008c 002B     		cmp	r3, #0
 4248 008e 03D1     		bne	.L308
ARM GAS  /tmp/ccIWRJEN.s 			page 76


 4249              		.loc 1 1958 0 is_stmt 0 discriminator 1
 4250 0090 0523     		movs	r3, #5
 4251 0092 8DF80F30 		strb	r3, [sp, #15]
 4252              		.loc 1 1960 0 is_stmt 1 discriminator 1
 4253 0096 20E0     		b	.L304
 4254              	.L308:
 4255              		.loc 1 1960 0 is_stmt 0
 4256 0098 1FE0     		b	.L304
 4257              	.L306:
 4258              		.loc 1 1962 0 is_stmt 1
 4259 009a 9DF80E30 		ldrb	r3, [sp, #14]	@ zero_extendqisi2
 4260 009e 03F00403 		and	r3, r3, #4
 4261 00a2 002B     		cmp	r3, #0
 4262 00a4 00D0     		beq	.L309
 4263              		.loc 1 1962 0 is_stmt 0 discriminator 1
 4264 00a6 18E0     		b	.L304
 4265              	.L309:
 4266              		.loc 1 1963 0 is_stmt 1
 4267 00a8 019B     		ldr	r3, [sp, #4]
 4268 00aa 5B69     		ldr	r3, [r3, #20]
 4269 00ac 0293     		str	r3, [sp, #8]
 4270              		.loc 1 1964 0
 4271 00ae 029B     		ldr	r3, [sp, #8]
 4272 00b0 0B33     		adds	r3, r3, #11
 4273 00b2 1B78     		ldrb	r3, [r3]	@ zero_extendqisi2
 4274 00b4 03F01003 		and	r3, r3, #16
 4275 00b8 002B     		cmp	r3, #0
 4276 00ba 03D1     		bne	.L310
 4277              		.loc 1 1965 0
 4278 00bc 0523     		movs	r3, #5
 4279 00be 8DF80F30 		strb	r3, [sp, #15]
 4280 00c2 0AE0     		b	.L304
 4281              	.L310:
 4282              		.loc 1 1967 0
 4283 00c4 029B     		ldr	r3, [sp, #8]
 4284 00c6 1433     		adds	r3, r3, #20
 4285 00c8 1B88     		ldrh	r3, [r3]
 4286 00ca 1A04     		lsls	r2, r3, #16
 4287 00cc 029B     		ldr	r3, [sp, #8]
 4288 00ce 1A33     		adds	r3, r3, #26
 4289 00d0 1B88     		ldrh	r3, [r3]
 4290 00d2 1A43     		orrs	r2, r2, r3
 4291 00d4 019B     		ldr	r3, [sp, #4]
 4292 00d6 9A60     		str	r2, [r3, #8]
 4293              		.loc 1 1968 0
 4294 00d8 B3E7     		b	.L303
 4295              	.L304:
 4296              		.loc 1 1971 0
 4297 00da 9DF80F30 		ldrb	r3, [sp, #15]	@ zero_extendqisi2
 4298              		.loc 1 1972 0
 4299 00de 1846     		mov	r0, r3
 4300 00e0 05B0     		add	sp, sp, #20
 4301              		@ sp needed
 4302 00e2 5DF804FB 		ldr	pc, [sp], #4
 4303              		.cfi_endproc
 4304              	.LFE31:
 4305              		.size	follow_path, .-follow_path
ARM GAS  /tmp/ccIWRJEN.s 			page 77


 4306 00e6 00BFAFF3 		.section	.text.check_fs,"ax",%progbits
 4306      0080AFF3 
 4306      0080
 4307              		.align	2
 4308              		.p2align 4,,15
 4309              		.thumb
 4310              		.thumb_func
 4311              		.type	check_fs, %function
 4312              	check_fs:
 4313              	.LFB32:
 4314              		.loc 1 1986 0
 4315              		.cfi_startproc
 4316              		@ args = 0, pretend = 0, frame = 8
 4317              		@ frame_needed = 0, uses_anonymous_args = 0
 4318 0000 00B5     		push	{lr}
 4319              		.cfi_def_cfa_offset 4
 4320              		.cfi_offset 14, -4
 4321 0002 83B0     		sub	sp, sp, #12
 4322              		.cfi_def_cfa_offset 16
 4323 0004 0190     		str	r0, [sp, #4]
 4324 0006 0091     		str	r1, [sp]
 4325              		.loc 1 1987 0
 4326 0008 019B     		ldr	r3, [sp, #4]
 4327 000a 5A78     		ldrb	r2, [r3, #1]	@ zero_extendqisi2
 4328 000c 019B     		ldr	r3, [sp, #4]
 4329 000e 3033     		adds	r3, r3, #48
 4330 0010 1046     		mov	r0, r2
 4331 0012 1946     		mov	r1, r3
 4332 0014 009A     		ldr	r2, [sp]
 4333 0016 0123     		movs	r3, #1
 4334 0018 FFF7FEFF 		bl	disk_read
 4335 001c 0346     		mov	r3, r0
 4336 001e 002B     		cmp	r3, #0
 4337 0020 01D0     		beq	.L313
 4338              		.loc 1 1988 0
 4339 0022 0323     		movs	r3, #3
 4340 0024 24E0     		b	.L314
 4341              	.L313:
 4342              		.loc 1 1989 0
 4343 0026 019B     		ldr	r3, [sp, #4]
 4344 0028 03F22E23 		addw	r3, r3, #558
 4345 002c 1A88     		ldrh	r2, [r3]
 4346 002e 4AF65523 		movw	r3, #43605
 4347 0032 9A42     		cmp	r2, r3
 4348 0034 01D0     		beq	.L315
 4349              		.loc 1 1990 0
 4350 0036 0223     		movs	r3, #2
 4351 0038 1AE0     		b	.L314
 4352              	.L315:
 4353              		.loc 1 1992 0
 4354 003a 019B     		ldr	r3, [sp, #4]
 4355 003c 6633     		adds	r3, r3, #102
 4356 003e 1B68     		ldr	r3, [r3]
 4357 0040 23F07F42 		bic	r2, r3, #-16777216
 4358 0044 44F24613 		movw	r3, #16710
 4359 0048 C0F25403 		movt	r3, 84
 4360 004c 9A42     		cmp	r2, r3
ARM GAS  /tmp/ccIWRJEN.s 			page 78


 4361 004e 01D1     		bne	.L316
 4362              		.loc 1 1993 0
 4363 0050 0023     		movs	r3, #0
 4364 0052 0DE0     		b	.L314
 4365              	.L316:
 4366              		.loc 1 1994 0
 4367 0054 019B     		ldr	r3, [sp, #4]
 4368 0056 8233     		adds	r3, r3, #130
 4369 0058 1B68     		ldr	r3, [r3]
 4370 005a 23F07F42 		bic	r2, r3, #-16777216
 4371 005e 44F24613 		movw	r3, #16710
 4372 0062 C0F25403 		movt	r3, 84
 4373 0066 9A42     		cmp	r2, r3
 4374 0068 01D1     		bne	.L317
 4375              		.loc 1 1995 0
 4376 006a 0023     		movs	r3, #0
 4377 006c 00E0     		b	.L314
 4378              	.L317:
 4379              		.loc 1 1997 0
 4380 006e 0123     		movs	r3, #1
 4381              	.L314:
 4382              		.loc 1 1998 0
 4383 0070 1846     		mov	r0, r3
 4384 0072 03B0     		add	sp, sp, #12
 4385              		@ sp needed
 4386 0074 5DF804FB 		ldr	pc, [sp], #4
 4387              		.cfi_endproc
 4388              	.LFE32:
 4389              		.size	check_fs, .-check_fs
 4390 0078 AFF30080 		.section	.text.chk_mounted,"ax",%progbits
 4390      AFF30080 
 4391              		.align	2
 4392              		.p2align 4,,15
 4393              		.thumb
 4394              		.thumb_func
 4395              		.type	chk_mounted, %function
 4396              	chk_mounted:
 4397              	.LFB33:
 4398              		.loc 1 2013 0
 4399              		.cfi_startproc
 4400              		@ args = 0, pretend = 0, frame = 72
 4401              		@ frame_needed = 0, uses_anonymous_args = 0
 4402 0000 00B5     		push	{lr}
 4403              		.cfi_def_cfa_offset 4
 4404              		.cfi_offset 14, -4
 4405 0002 93B0     		sub	sp, sp, #76
 4406              		.cfi_def_cfa_offset 80
 4407 0004 0390     		str	r0, [sp, #12]
 4408 0006 0291     		str	r1, [sp, #8]
 4409 0008 1346     		mov	r3, r2
 4410 000a 8DF80730 		strb	r3, [sp, #7]
 4411              		.loc 1 2019 0
 4412 000e 039B     		ldr	r3, [sp, #12]
 4413 0010 1B68     		ldr	r3, [r3]
 4414 0012 0B93     		str	r3, [sp, #44]
 4415              		.loc 1 2023 0
 4416 0014 0B9B     		ldr	r3, [sp, #44]
ARM GAS  /tmp/ccIWRJEN.s 			page 79


 4417 0016 1B78     		ldrb	r3, [r3]	@ zero_extendqisi2
 4418 0018 303B     		subs	r3, r3, #48
 4419 001a 1093     		str	r3, [sp, #64]
 4420              		.loc 1 2024 0
 4421 001c 109B     		ldr	r3, [sp, #64]
 4422 001e 092B     		cmp	r3, #9
 4423 0020 0BD8     		bhi	.L319
 4424              		.loc 1 2024 0 is_stmt 0 discriminator 1
 4425 0022 0B9B     		ldr	r3, [sp, #44]
 4426 0024 0133     		adds	r3, r3, #1
 4427 0026 1B78     		ldrb	r3, [r3]	@ zero_extendqisi2
 4428 0028 3A2B     		cmp	r3, #58
 4429 002a 06D1     		bne	.L319
 4430              		.loc 1 2025 0 is_stmt 1
 4431 002c 0B9B     		ldr	r3, [sp, #44]
 4432 002e 0233     		adds	r3, r3, #2
 4433 0030 0B93     		str	r3, [sp, #44]
 4434 0032 039B     		ldr	r3, [sp, #12]
 4435 0034 0B9A     		ldr	r2, [sp, #44]
 4436 0036 1A60     		str	r2, [r3]
 4437 0038 01E0     		b	.L320
 4438              	.L319:
 4439              		.loc 1 2030 0
 4440 003a 0023     		movs	r3, #0
 4441 003c 1093     		str	r3, [sp, #64]
 4442              	.L320:
 4443              		.loc 1 2035 0
 4444 003e 109B     		ldr	r3, [sp, #64]
 4445 0040 002B     		cmp	r3, #0
 4446 0042 01D0     		beq	.L321
 4447              		.loc 1 2036 0
 4448 0044 0B23     		movs	r3, #11
 4449 0046 E1E1     		b	.L322
 4450              	.L321:
 4451              		.loc 1 2037 0
 4452 0048 40F20003 		movw	r3, #:lower16:FatFs
 4453 004c C0F20003 		movt	r3, #:upper16:FatFs
 4454 0050 109A     		ldr	r2, [sp, #64]
 4455 0052 53F82230 		ldr	r3, [r3, r2, lsl #2]
 4456 0056 0A93     		str	r3, [sp, #40]
 4457 0058 029B     		ldr	r3, [sp, #8]
 4458 005a 0A9A     		ldr	r2, [sp, #40]
 4459 005c 1A60     		str	r2, [r3]
 4460              		.loc 1 2038 0
 4461 005e 0A9B     		ldr	r3, [sp, #40]
 4462 0060 002B     		cmp	r3, #0
 4463 0062 01D1     		bne	.L323
 4464              		.loc 1 2038 0 is_stmt 0 discriminator 1
 4465 0064 0C23     		movs	r3, #12
 4466 0066 D1E1     		b	.L322
 4467              	.L323:
 4468              		.loc 1 2042 0 is_stmt 1
 4469 0068 0A9B     		ldr	r3, [sp, #40]
 4470 006a 1B78     		ldrb	r3, [r3]	@ zero_extendqisi2
 4471 006c 002B     		cmp	r3, #0
 4472 006e 1BD0     		beq	.L324
 4473              		.loc 1 2043 0
ARM GAS  /tmp/ccIWRJEN.s 			page 80


 4474 0070 0A9B     		ldr	r3, [sp, #40]
 4475 0072 5B78     		ldrb	r3, [r3, #1]	@ zero_extendqisi2
 4476 0074 1846     		mov	r0, r3
 4477 0076 FFF7FEFF 		bl	disk_status
 4478 007a 0346     		mov	r3, r0
 4479 007c 8DF82730 		strb	r3, [sp, #39]
 4480              		.loc 1 2044 0
 4481 0080 9DF82730 		ldrb	r3, [sp, #39]	@ zero_extendqisi2
 4482 0084 03F00103 		and	r3, r3, #1
 4483 0088 002B     		cmp	r3, #0
 4484 008a 0DD1     		bne	.L324
 4485              		.loc 1 2045 0
 4486 008c 9DF80730 		ldrb	r3, [sp, #7]	@ zero_extendqisi2
 4487 0090 002B     		cmp	r3, #0
 4488 0092 07D0     		beq	.L325
 4489              		.loc 1 2045 0 is_stmt 0 discriminator 1
 4490 0094 9DF82730 		ldrb	r3, [sp, #39]	@ zero_extendqisi2
 4491 0098 03F00403 		and	r3, r3, #4
 4492 009c 002B     		cmp	r3, #0
 4493 009e 01D0     		beq	.L325
 4494              		.loc 1 2046 0 is_stmt 1
 4495 00a0 0A23     		movs	r3, #10
 4496 00a2 B3E1     		b	.L322
 4497              	.L325:
 4498              		.loc 1 2047 0
 4499 00a4 0023     		movs	r3, #0
 4500 00a6 B1E1     		b	.L322
 4501              	.L324:
 4502              		.loc 1 2054 0
 4503 00a8 0A9B     		ldr	r3, [sp, #40]
 4504 00aa 0022     		movs	r2, #0
 4505 00ac 1A70     		strb	r2, [r3]
 4506              		.loc 1 2055 0
 4507 00ae 109B     		ldr	r3, [sp, #64]
 4508 00b0 DAB2     		uxtb	r2, r3
 4509 00b2 0A9B     		ldr	r3, [sp, #40]
 4510 00b4 5A70     		strb	r2, [r3, #1]
 4511              		.loc 1 2056 0
 4512 00b6 0A9B     		ldr	r3, [sp, #40]
 4513 00b8 5B78     		ldrb	r3, [r3, #1]	@ zero_extendqisi2
 4514 00ba 1846     		mov	r0, r3
 4515 00bc FFF7FEFF 		bl	disk_initialize
 4516 00c0 0346     		mov	r3, r0
 4517 00c2 8DF82730 		strb	r3, [sp, #39]
 4518              		.loc 1 2057 0
 4519 00c6 9DF82730 		ldrb	r3, [sp, #39]	@ zero_extendqisi2
 4520 00ca 03F00103 		and	r3, r3, #1
 4521 00ce 002B     		cmp	r3, #0
 4522 00d0 01D0     		beq	.L326
 4523              		.loc 1 2058 0
 4524 00d2 0323     		movs	r3, #3
 4525 00d4 9AE1     		b	.L322
 4526              	.L326:
 4527              		.loc 1 2059 0
 4528 00d6 9DF80730 		ldrb	r3, [sp, #7]	@ zero_extendqisi2
 4529 00da 002B     		cmp	r3, #0
 4530 00dc 07D0     		beq	.L327
ARM GAS  /tmp/ccIWRJEN.s 			page 81


 4531              		.loc 1 2059 0 is_stmt 0 discriminator 1
 4532 00de 9DF82730 		ldrb	r3, [sp, #39]	@ zero_extendqisi2
 4533 00e2 03F00403 		and	r3, r3, #4
 4534 00e6 002B     		cmp	r3, #0
 4535 00e8 01D0     		beq	.L327
 4536              		.loc 1 2060 0 is_stmt 1
 4537 00ea 0A23     		movs	r3, #10
 4538 00ec 8EE1     		b	.L322
 4539              	.L327:
 4540              		.loc 1 2066 0
 4541 00ee 0023     		movs	r3, #0
 4542 00f0 0F93     		str	r3, [sp, #60]
 4543 00f2 0A98     		ldr	r0, [sp, #40]
 4544 00f4 0F99     		ldr	r1, [sp, #60]
 4545 00f6 FFF7FEFF 		bl	check_fs
 4546 00fa 0346     		mov	r3, r0
 4547 00fc 8DF84730 		strb	r3, [sp, #71]
 4548              		.loc 1 2068 0
 4549 0100 9DF84730 		ldrb	r3, [sp, #71]	@ zero_extendqisi2
 4550 0104 012B     		cmp	r3, #1
 4551 0106 23D1     		bne	.L328
 4552              		.loc 1 2070 0
 4553 0108 0023     		movs	r3, #0
 4554 010a 8DF84630 		strb	r3, [sp, #70]
 4555              		.loc 1 2071 0
 4556 010e 9DF84630 		ldrb	r3, [sp, #70]	@ zero_extendqisi2
 4557 0112 002B     		cmp	r3, #0
 4558 0114 04D0     		beq	.L329
 4559              		.loc 1 2071 0 is_stmt 0 discriminator 1
 4560 0116 9DF84630 		ldrb	r3, [sp, #70]	@ zero_extendqisi2
 4561 011a 013B     		subs	r3, r3, #1
 4562 011c 8DF84630 		strb	r3, [sp, #70]
 4563              	.L329:
 4564              		.loc 1 2072 0 is_stmt 1
 4565 0120 9DF84630 		ldrb	r3, [sp, #70]	@ zero_extendqisi2
 4566 0124 1B01     		lsls	r3, r3, #4
 4567 0126 03F5DF73 		add	r3, r3, #446
 4568 012a 3033     		adds	r3, r3, #48
 4569 012c 0A9A     		ldr	r2, [sp, #40]
 4570 012e 1344     		add	r3, r3, r2
 4571 0130 0893     		str	r3, [sp, #32]
 4572              		.loc 1 2073 0
 4573 0132 089B     		ldr	r3, [sp, #32]
 4574 0134 0433     		adds	r3, r3, #4
 4575 0136 1B78     		ldrb	r3, [r3]	@ zero_extendqisi2
 4576 0138 002B     		cmp	r3, #0
 4577 013a 09D0     		beq	.L328
 4578              		.loc 1 2074 0
 4579 013c 089B     		ldr	r3, [sp, #32]
 4580 013e 9B68     		ldr	r3, [r3, #8]
 4581 0140 0F93     		str	r3, [sp, #60]
 4582              		.loc 1 2075 0
 4583 0142 0A98     		ldr	r0, [sp, #40]
 4584 0144 0F99     		ldr	r1, [sp, #60]
 4585 0146 FFF7FEFF 		bl	check_fs
 4586 014a 0346     		mov	r3, r0
 4587 014c 8DF84730 		strb	r3, [sp, #71]
ARM GAS  /tmp/ccIWRJEN.s 			page 82


 4588              	.L328:
 4589              		.loc 1 2078 0
 4590 0150 9DF84730 		ldrb	r3, [sp, #71]	@ zero_extendqisi2
 4591 0154 032B     		cmp	r3, #3
 4592 0156 01D1     		bne	.L330
 4593              		.loc 1 2078 0 is_stmt 0 discriminator 1
 4594 0158 0123     		movs	r3, #1
 4595 015a 57E1     		b	.L322
 4596              	.L330:
 4597              		.loc 1 2079 0 is_stmt 1
 4598 015c 9DF84730 		ldrb	r3, [sp, #71]	@ zero_extendqisi2
 4599 0160 002B     		cmp	r3, #0
 4600 0162 01D0     		beq	.L331
 4601              		.loc 1 2079 0 is_stmt 0 discriminator 1
 4602 0164 0D23     		movs	r3, #13
 4603 0166 51E1     		b	.L322
 4604              	.L331:
 4605              		.loc 1 2083 0 is_stmt 1
 4606 0168 0A9B     		ldr	r3, [sp, #40]
 4607 016a 3B33     		adds	r3, r3, #59
 4608 016c 1B88     		ldrh	r3, [r3]
 4609 016e B3F5007F 		cmp	r3, #512
 4610 0172 01D0     		beq	.L332
 4611              		.loc 1 2084 0
 4612 0174 0D23     		movs	r3, #13
 4613 0176 49E1     		b	.L322
 4614              	.L332:
 4615              		.loc 1 2086 0
 4616 0178 0A9B     		ldr	r3, [sp, #40]
 4617 017a 4633     		adds	r3, r3, #70
 4618 017c 1B88     		ldrh	r3, [r3]
 4619 017e 0E93     		str	r3, [sp, #56]
 4620              		.loc 1 2087 0
 4621 0180 0E9B     		ldr	r3, [sp, #56]
 4622 0182 002B     		cmp	r3, #0
 4623 0184 03D1     		bne	.L333
 4624              		.loc 1 2087 0 is_stmt 0 discriminator 1
 4625 0186 0A9B     		ldr	r3, [sp, #40]
 4626 0188 5433     		adds	r3, r3, #84
 4627 018a 1B68     		ldr	r3, [r3]
 4628 018c 0E93     		str	r3, [sp, #56]
 4629              	.L333:
 4630              		.loc 1 2088 0 is_stmt 1
 4631 018e 0A9B     		ldr	r3, [sp, #40]
 4632 0190 0E9A     		ldr	r2, [sp, #56]
 4633 0192 DA61     		str	r2, [r3, #28]
 4634              		.loc 1 2090 0
 4635 0194 0A9B     		ldr	r3, [sp, #40]
 4636 0196 93F84030 		ldrb	r3, [r3, #64]
 4637 019a 8DF81F30 		strb	r3, [sp, #31]
 4638 019e 0A9B     		ldr	r3, [sp, #40]
 4639 01a0 9DF81F20 		ldrb	r2, [sp, #31]
 4640 01a4 DA70     		strb	r2, [r3, #3]
 4641              		.loc 1 2091 0
 4642 01a6 9DF81F30 		ldrb	r3, [sp, #31]	@ zero_extendqisi2
 4643 01aa 012B     		cmp	r3, #1
 4644 01ac 05D0     		beq	.L334
ARM GAS  /tmp/ccIWRJEN.s 			page 83


 4645              		.loc 1 2091 0 is_stmt 0 discriminator 1
 4646 01ae 9DF81F30 		ldrb	r3, [sp, #31]	@ zero_extendqisi2
 4647 01b2 022B     		cmp	r3, #2
 4648 01b4 01D0     		beq	.L334
 4649 01b6 0D23     		movs	r3, #13
 4650 01b8 28E1     		b	.L322
 4651              	.L334:
 4652              		.loc 1 2092 0 is_stmt 1
 4653 01ba 9DF81F20 		ldrb	r2, [sp, #31]	@ zero_extendqisi2
 4654 01be 0E9B     		ldr	r3, [sp, #56]
 4655 01c0 02FB03F3 		mul	r3, r2, r3
 4656 01c4 0E93     		str	r3, [sp, #56]
 4657              		.loc 1 2094 0
 4658 01c6 0A9B     		ldr	r3, [sp, #40]
 4659 01c8 93F83D30 		ldrb	r3, [r3, #61]
 4660 01cc 8DF81F30 		strb	r3, [sp, #31]
 4661 01d0 0A9B     		ldr	r3, [sp, #40]
 4662 01d2 9DF81F20 		ldrb	r2, [sp, #31]
 4663 01d6 9A70     		strb	r2, [r3, #2]
 4664              		.loc 1 2095 0
 4665 01d8 9DF81F30 		ldrb	r3, [sp, #31]	@ zero_extendqisi2
 4666 01dc 002B     		cmp	r3, #0
 4667 01de 07D0     		beq	.L335
 4668              		.loc 1 2095 0 is_stmt 0 discriminator 2
 4669 01e0 9DF81F20 		ldrb	r2, [sp, #31]	@ zero_extendqisi2
 4670 01e4 9DF81F30 		ldrb	r3, [sp, #31]	@ zero_extendqisi2
 4671 01e8 013B     		subs	r3, r3, #1
 4672 01ea 1340     		ands	r3, r3, r2
 4673 01ec 002B     		cmp	r3, #0
 4674 01ee 01D0     		beq	.L336
 4675              	.L335:
 4676              		.loc 1 2095 0 discriminator 1
 4677 01f0 0D23     		movs	r3, #13
 4678 01f2 0BE1     		b	.L322
 4679              	.L336:
 4680              		.loc 1 2097 0 is_stmt 1
 4681 01f4 0A9B     		ldr	r3, [sp, #40]
 4682 01f6 4133     		adds	r3, r3, #65
 4683 01f8 1A88     		ldrh	r2, [r3]
 4684 01fa 0A9B     		ldr	r3, [sp, #40]
 4685 01fc 1A81     		strh	r2, [r3, #8]	@ movhi
 4686              		.loc 1 2098 0
 4687 01fe 0A9B     		ldr	r3, [sp, #40]
 4688 0200 1B89     		ldrh	r3, [r3, #8]
 4689 0202 03F00F03 		and	r3, r3, #15
 4690 0206 9BB2     		uxth	r3, r3
 4691 0208 002B     		cmp	r3, #0
 4692 020a 01D0     		beq	.L337
 4693              		.loc 1 2098 0 is_stmt 0 discriminator 1
 4694 020c 0D23     		movs	r3, #13
 4695 020e FDE0     		b	.L322
 4696              	.L337:
 4697              		.loc 1 2100 0 is_stmt 1
 4698 0210 0A9B     		ldr	r3, [sp, #40]
 4699 0212 4333     		adds	r3, r3, #67
 4700 0214 1B88     		ldrh	r3, [r3]
 4701 0216 0D93     		str	r3, [sp, #52]
ARM GAS  /tmp/ccIWRJEN.s 			page 84


 4702              		.loc 1 2101 0
 4703 0218 0D9B     		ldr	r3, [sp, #52]
 4704 021a 002B     		cmp	r3, #0
 4705 021c 03D1     		bne	.L338
 4706              		.loc 1 2101 0 is_stmt 0 discriminator 1
 4707 021e 0A9B     		ldr	r3, [sp, #40]
 4708 0220 5033     		adds	r3, r3, #80
 4709 0222 1B68     		ldr	r3, [r3]
 4710 0224 0D93     		str	r3, [sp, #52]
 4711              	.L338:
 4712              		.loc 1 2103 0 is_stmt 1
 4713 0226 0A9B     		ldr	r3, [sp, #40]
 4714 0228 3E33     		adds	r3, r3, #62
 4715 022a 1B88     		ldrh	r3, [r3]	@ movhi
 4716 022c ADF81C30 		strh	r3, [sp, #28]	@ movhi
 4717              		.loc 1 2104 0
 4718 0230 BDF81C30 		ldrh	r3, [sp, #28]
 4719 0234 002B     		cmp	r3, #0
 4720 0236 01D1     		bne	.L339
 4721              		.loc 1 2104 0 is_stmt 0 discriminator 1
 4722 0238 0D23     		movs	r3, #13
 4723 023a E7E0     		b	.L322
 4724              	.L339:
 4725              		.loc 1 2107 0 is_stmt 1
 4726 023c BDF81C20 		ldrh	r2, [sp, #28]
 4727 0240 0E9B     		ldr	r3, [sp, #56]
 4728 0242 1A44     		add	r2, r2, r3
 4729 0244 0A9B     		ldr	r3, [sp, #40]
 4730 0246 1B89     		ldrh	r3, [r3, #8]
 4731 0248 1B09     		lsrs	r3, r3, #4
 4732 024a 9BB2     		uxth	r3, r3
 4733 024c 1344     		add	r3, r3, r2
 4734 024e 0693     		str	r3, [sp, #24]
 4735              		.loc 1 2108 0
 4736 0250 0D9A     		ldr	r2, [sp, #52]
 4737 0252 069B     		ldr	r3, [sp, #24]
 4738 0254 9A42     		cmp	r2, r3
 4739 0256 01D2     		bcs	.L340
 4740              		.loc 1 2108 0 is_stmt 0 discriminator 1
 4741 0258 0D23     		movs	r3, #13
 4742 025a D7E0     		b	.L322
 4743              	.L340:
 4744              		.loc 1 2109 0 is_stmt 1
 4745 025c 0D9A     		ldr	r2, [sp, #52]
 4746 025e 069B     		ldr	r3, [sp, #24]
 4747 0260 D21A     		subs	r2, r2, r3
 4748 0262 0A9B     		ldr	r3, [sp, #40]
 4749 0264 9B78     		ldrb	r3, [r3, #2]	@ zero_extendqisi2
 4750 0266 B2FBF3F3 		udiv	r3, r2, r3
 4751 026a 0593     		str	r3, [sp, #20]
 4752              		.loc 1 2110 0
 4753 026c 059B     		ldr	r3, [sp, #20]
 4754 026e 002B     		cmp	r3, #0
 4755 0270 01D1     		bne	.L341
 4756              		.loc 1 2110 0 is_stmt 0 discriminator 1
 4757 0272 0D23     		movs	r3, #13
 4758 0274 CAE0     		b	.L322
ARM GAS  /tmp/ccIWRJEN.s 			page 85


 4759              	.L341:
 4760              		.loc 1 2111 0 is_stmt 1
 4761 0276 0123     		movs	r3, #1
 4762 0278 8DF84730 		strb	r3, [sp, #71]
 4763              		.loc 1 2112 0
 4764 027c 059A     		ldr	r2, [sp, #20]
 4765 027e 40F6F573 		movw	r3, #4085
 4766 0282 9A42     		cmp	r2, r3
 4767 0284 02D9     		bls	.L342
 4768              		.loc 1 2112 0 is_stmt 0 discriminator 1
 4769 0286 0223     		movs	r3, #2
 4770 0288 8DF84730 		strb	r3, [sp, #71]
 4771              	.L342:
 4772              		.loc 1 2113 0 is_stmt 1
 4773 028c 059A     		ldr	r2, [sp, #20]
 4774 028e 4FF6F573 		movw	r3, #65525
 4775 0292 9A42     		cmp	r2, r3
 4776 0294 02D9     		bls	.L343
 4777              		.loc 1 2113 0 is_stmt 0 discriminator 1
 4778 0296 0323     		movs	r3, #3
 4779 0298 8DF84730 		strb	r3, [sp, #71]
 4780              	.L343:
 4781              		.loc 1 2116 0 is_stmt 1
 4782 029c 059B     		ldr	r3, [sp, #20]
 4783 029e 9A1C     		adds	r2, r3, #2
 4784 02a0 0A9B     		ldr	r3, [sp, #40]
 4785 02a2 9A61     		str	r2, [r3, #24]
 4786              		.loc 1 2117 0
 4787 02a4 0F9A     		ldr	r2, [sp, #60]
 4788 02a6 069B     		ldr	r3, [sp, #24]
 4789 02a8 1A44     		add	r2, r2, r3
 4790 02aa 0A9B     		ldr	r3, [sp, #40]
 4791 02ac 9A62     		str	r2, [r3, #40]
 4792              		.loc 1 2118 0
 4793 02ae BDF81C20 		ldrh	r2, [sp, #28]
 4794 02b2 0F9B     		ldr	r3, [sp, #60]
 4795 02b4 1A44     		add	r2, r2, r3
 4796 02b6 0A9B     		ldr	r3, [sp, #40]
 4797 02b8 1A62     		str	r2, [r3, #32]
 4798              		.loc 1 2119 0
 4799 02ba 9DF84730 		ldrb	r3, [sp, #71]	@ zero_extendqisi2
 4800 02be 032B     		cmp	r3, #3
 4801 02c0 0FD1     		bne	.L344
 4802              		.loc 1 2120 0
 4803 02c2 0A9B     		ldr	r3, [sp, #40]
 4804 02c4 1B89     		ldrh	r3, [r3, #8]
 4805 02c6 002B     		cmp	r3, #0
 4806 02c8 01D0     		beq	.L345
 4807              		.loc 1 2120 0 is_stmt 0 discriminator 1
 4808 02ca 0D23     		movs	r3, #13
 4809 02cc 9EE0     		b	.L322
 4810              	.L345:
 4811              		.loc 1 2121 0 is_stmt 1
 4812 02ce 0A9B     		ldr	r3, [sp, #40]
 4813 02d0 5C33     		adds	r3, r3, #92
 4814 02d2 1A68     		ldr	r2, [r3]
 4815 02d4 0A9B     		ldr	r3, [sp, #40]
ARM GAS  /tmp/ccIWRJEN.s 			page 86


 4816 02d6 5A62     		str	r2, [r3, #36]
 4817              		.loc 1 2122 0
 4818 02d8 0A9B     		ldr	r3, [sp, #40]
 4819 02da 9B69     		ldr	r3, [r3, #24]
 4820 02dc 9B00     		lsls	r3, r3, #2
 4821 02de 0C93     		str	r3, [sp, #48]
 4822 02e0 1FE0     		b	.L346
 4823              	.L344:
 4824              		.loc 1 2124 0
 4825 02e2 0A9B     		ldr	r3, [sp, #40]
 4826 02e4 1B89     		ldrh	r3, [r3, #8]
 4827 02e6 002B     		cmp	r3, #0
 4828 02e8 01D1     		bne	.L347
 4829              		.loc 1 2124 0 is_stmt 0 discriminator 1
 4830 02ea 0D23     		movs	r3, #13
 4831 02ec 8EE0     		b	.L322
 4832              	.L347:
 4833              		.loc 1 2125 0 is_stmt 1
 4834 02ee 0A9B     		ldr	r3, [sp, #40]
 4835 02f0 1A6A     		ldr	r2, [r3, #32]
 4836 02f2 0E9B     		ldr	r3, [sp, #56]
 4837 02f4 1A44     		add	r2, r2, r3
 4838 02f6 0A9B     		ldr	r3, [sp, #40]
 4839 02f8 5A62     		str	r2, [r3, #36]
 4840              		.loc 1 2127 0
 4841 02fa 9DF84730 		ldrb	r3, [sp, #71]	@ zero_extendqisi2
 4842 02fe 022B     		cmp	r3, #2
 4843 0300 03D1     		bne	.L348
 4844              		.loc 1 2127 0 is_stmt 0 discriminator 1
 4845 0302 0A9B     		ldr	r3, [sp, #40]
 4846 0304 9B69     		ldr	r3, [r3, #24]
 4847 0306 5B00     		lsls	r3, r3, #1
 4848 0308 0AE0     		b	.L349
 4849              	.L348:
 4850              		.loc 1 2127 0 discriminator 2
 4851 030a 0A9B     		ldr	r3, [sp, #40]
 4852 030c 9A69     		ldr	r2, [r3, #24]
 4853 030e 1346     		mov	r3, r2
 4854 0310 5B00     		lsls	r3, r3, #1
 4855 0312 1344     		add	r3, r3, r2
 4856 0314 5A08     		lsrs	r2, r3, #1
 4857 0316 0A9B     		ldr	r3, [sp, #40]
 4858 0318 9B69     		ldr	r3, [r3, #24]
 4859 031a 03F00103 		and	r3, r3, #1
 4860 031e 1344     		add	r3, r3, r2
 4861              	.L349:
 4862              		.loc 1 2126 0 is_stmt 1
 4863 0320 0C93     		str	r3, [sp, #48]
 4864              	.L346:
 4865              		.loc 1 2129 0
 4866 0322 0A9B     		ldr	r3, [sp, #40]
 4867 0324 DA69     		ldr	r2, [r3, #28]
 4868 0326 0C9B     		ldr	r3, [sp, #48]
 4869 0328 03F2FF13 		addw	r3, r3, #511
 4870 032c 5B0A     		lsrs	r3, r3, #9
 4871 032e 9A42     		cmp	r2, r3
 4872 0330 01D2     		bcs	.L350
ARM GAS  /tmp/ccIWRJEN.s 			page 87


 4873              		.loc 1 2130 0
 4874 0332 0D23     		movs	r3, #13
 4875 0334 6AE0     		b	.L322
 4876              	.L350:
 4877              		.loc 1 2134 0
 4878 0336 0A9B     		ldr	r3, [sp, #40]
 4879 0338 4FF0FF32 		mov	r2, #-1
 4880 033c 1A61     		str	r2, [r3, #16]
 4881              		.loc 1 2135 0
 4882 033e 0A9B     		ldr	r3, [sp, #40]
 4883 0340 0022     		movs	r2, #0
 4884 0342 DA60     		str	r2, [r3, #12]
 4885              		.loc 1 2138 0
 4886 0344 9DF84730 		ldrb	r3, [sp, #71]	@ zero_extendqisi2
 4887 0348 032B     		cmp	r3, #3
 4888 034a 41D1     		bne	.L351
 4889              		.loc 1 2139 0
 4890 034c 0A9B     		ldr	r3, [sp, #40]
 4891 034e 0022     		movs	r2, #0
 4892 0350 5A71     		strb	r2, [r3, #5]
 4893              		.loc 1 2140 0
 4894 0352 0A9B     		ldr	r3, [sp, #40]
 4895 0354 6033     		adds	r3, r3, #96
 4896 0356 1B88     		ldrh	r3, [r3]
 4897 0358 1A46     		mov	r2, r3
 4898 035a 0F9B     		ldr	r3, [sp, #60]
 4899 035c 1A44     		add	r2, r2, r3
 4900 035e 0A9B     		ldr	r3, [sp, #40]
 4901 0360 5A61     		str	r2, [r3, #20]
 4902              		.loc 1 2141 0
 4903 0362 0A9B     		ldr	r3, [sp, #40]
 4904 0364 5978     		ldrb	r1, [r3, #1]	@ zero_extendqisi2
 4905 0366 0A9B     		ldr	r3, [sp, #40]
 4906 0368 03F13002 		add	r2, r3, #48
 4907 036c 0A9B     		ldr	r3, [sp, #40]
 4908 036e 5B69     		ldr	r3, [r3, #20]
 4909 0370 0846     		mov	r0, r1
 4910 0372 1146     		mov	r1, r2
 4911 0374 1A46     		mov	r2, r3
 4912 0376 0123     		movs	r3, #1
 4913 0378 FFF7FEFF 		bl	disk_read
 4914 037c 0346     		mov	r3, r0
 4915 037e 002B     		cmp	r3, #0
 4916 0380 26D1     		bne	.L351
 4917              		.loc 1 2142 0 discriminator 1
 4918 0382 0A9B     		ldr	r3, [sp, #40]
 4919 0384 03F22E23 		addw	r3, r3, #558
 4920 0388 1A88     		ldrh	r2, [r3]
 4921              		.loc 1 2141 0 discriminator 1
 4922 038a 4AF65523 		movw	r3, #43605
 4923 038e 9A42     		cmp	r2, r3
 4924 0390 1ED1     		bne	.L351
 4925              		.loc 1 2143 0
 4926 0392 0A9B     		ldr	r3, [sp, #40]
 4927 0394 3033     		adds	r3, r3, #48
 4928 0396 1A68     		ldr	r2, [r3]
 4929              		.loc 1 2142 0
ARM GAS  /tmp/ccIWRJEN.s 			page 88


 4930 0398 45F25223 		movw	r3, #21074
 4931 039c C4F26113 		movt	r3, 16737
 4932 03a0 9A42     		cmp	r2, r3
 4933 03a2 15D1     		bne	.L351
 4934              		.loc 1 2144 0
 4935 03a4 0A9B     		ldr	r3, [sp, #40]
 4936 03a6 03F50573 		add	r3, r3, #532
 4937 03aa 1A68     		ldr	r2, [r3]
 4938              		.loc 1 2143 0
 4939 03ac 47F27223 		movw	r3, #29298
 4940 03b0 C6F24113 		movt	r3, 24897
 4941 03b4 9A42     		cmp	r2, r3
 4942 03b6 0BD1     		bne	.L351
 4943              		.loc 1 2145 0
 4944 03b8 0A9B     		ldr	r3, [sp, #40]
 4945 03ba 03F50773 		add	r3, r3, #540
 4946 03be 1A68     		ldr	r2, [r3]
 4947 03c0 0A9B     		ldr	r3, [sp, #40]
 4948 03c2 DA60     		str	r2, [r3, #12]
 4949              		.loc 1 2146 0
 4950 03c4 0A9B     		ldr	r3, [sp, #40]
 4951 03c6 03F50673 		add	r3, r3, #536
 4952 03ca 1A68     		ldr	r2, [r3]
 4953 03cc 0A9B     		ldr	r3, [sp, #40]
 4954 03ce 1A61     		str	r2, [r3, #16]
 4955              	.L351:
 4956              		.loc 1 2150 0
 4957 03d0 0A9B     		ldr	r3, [sp, #40]
 4958 03d2 9DF84720 		ldrb	r2, [sp, #71]
 4959 03d6 1A70     		strb	r2, [r3]
 4960              		.loc 1 2151 0
 4961 03d8 40F20003 		movw	r3, #:lower16:Fsid
 4962 03dc C0F20003 		movt	r3, #:upper16:Fsid
 4963 03e0 1B88     		ldrh	r3, [r3]
 4964 03e2 0133     		adds	r3, r3, #1
 4965 03e4 9AB2     		uxth	r2, r3
 4966 03e6 40F20003 		movw	r3, #:lower16:Fsid
 4967 03ea C0F20003 		movt	r3, #:upper16:Fsid
 4968 03ee 1A80     		strh	r2, [r3]	@ movhi
 4969 03f0 40F20003 		movw	r3, #:lower16:Fsid
 4970 03f4 C0F20003 		movt	r3, #:upper16:Fsid
 4971 03f8 1A88     		ldrh	r2, [r3]
 4972 03fa 0A9B     		ldr	r3, [sp, #40]
 4973 03fc DA80     		strh	r2, [r3, #6]	@ movhi
 4974              		.loc 1 2152 0
 4975 03fe 0A9B     		ldr	r3, [sp, #40]
 4976 0400 0022     		movs	r2, #0
 4977 0402 DA62     		str	r2, [r3, #44]
 4978              		.loc 1 2153 0
 4979 0404 0A9B     		ldr	r3, [sp, #40]
 4980 0406 0022     		movs	r2, #0
 4981 0408 1A71     		strb	r2, [r3, #4]
 4982              		.loc 1 2161 0
 4983 040a 0023     		movs	r3, #0
 4984              	.L322:
 4985              		.loc 1 2162 0
 4986 040c 1846     		mov	r0, r3
ARM GAS  /tmp/ccIWRJEN.s 			page 89


 4987 040e 13B0     		add	sp, sp, #76
 4988              		@ sp needed
 4989 0410 5DF804FB 		ldr	pc, [sp], #4
 4990              		.cfi_endproc
 4991              	.LFE33:
 4992              		.size	chk_mounted, .-chk_mounted
 4993 0414 AFF30080 		.section	.text.validate,"ax",%progbits
 4993      AFF30080 
 4993      AFF30080 
 4994              		.align	2
 4995              		.p2align 4,,15
 4996              		.thumb
 4997              		.thumb_func
 4998              		.type	validate, %function
 4999              	validate:
 5000              	.LFB34:
 5001              		.loc 1 2176 0
 5002              		.cfi_startproc
 5003              		@ args = 0, pretend = 0, frame = 8
 5004              		@ frame_needed = 0, uses_anonymous_args = 0
 5005 0000 00B5     		push	{lr}
 5006              		.cfi_def_cfa_offset 4
 5007              		.cfi_offset 14, -4
 5008 0002 83B0     		sub	sp, sp, #12
 5009              		.cfi_def_cfa_offset 16
 5010 0004 0190     		str	r0, [sp, #4]
 5011 0006 0B46     		mov	r3, r1
 5012 0008 ADF80230 		strh	r3, [sp, #2]	@ movhi
 5013              		.loc 1 2177 0
 5014 000c 019B     		ldr	r3, [sp, #4]
 5015 000e 002B     		cmp	r3, #0
 5016 0010 09D0     		beq	.L353
 5017              		.loc 1 2177 0 is_stmt 0 discriminator 1
 5018 0012 019B     		ldr	r3, [sp, #4]
 5019 0014 1B78     		ldrb	r3, [r3]	@ zero_extendqisi2
 5020 0016 002B     		cmp	r3, #0
 5021 0018 05D0     		beq	.L353
 5022 001a 019B     		ldr	r3, [sp, #4]
 5023 001c DB88     		ldrh	r3, [r3, #6]
 5024 001e BDF80220 		ldrh	r2, [sp, #2]
 5025 0022 9A42     		cmp	r2, r3
 5026 0024 01D0     		beq	.L354
 5027              	.L353:
 5028              		.loc 1 2178 0 is_stmt 1
 5029 0026 0923     		movs	r3, #9
 5030 0028 0CE0     		b	.L355
 5031              	.L354:
 5032              		.loc 1 2182 0
 5033 002a 019B     		ldr	r3, [sp, #4]
 5034 002c 5B78     		ldrb	r3, [r3, #1]	@ zero_extendqisi2
 5035 002e 1846     		mov	r0, r3
 5036 0030 FFF7FEFF 		bl	disk_status
 5037 0034 0346     		mov	r3, r0
 5038 0036 03F00103 		and	r3, r3, #1
 5039 003a 002B     		cmp	r3, #0
 5040 003c 01D0     		beq	.L356
 5041              		.loc 1 2183 0
ARM GAS  /tmp/ccIWRJEN.s 			page 90


 5042 003e 0323     		movs	r3, #3
 5043 0040 00E0     		b	.L355
 5044              	.L356:
 5045              		.loc 1 2185 0
 5046 0042 0023     		movs	r3, #0
 5047              	.L355:
 5048              		.loc 1 2186 0
 5049 0044 1846     		mov	r0, r3
 5050 0046 03B0     		add	sp, sp, #12
 5051              		@ sp needed
 5052 0048 5DF804FB 		ldr	pc, [sp], #4
 5053              		.cfi_endproc
 5054              	.LFE34:
 5055              		.size	validate, .-validate
 5056 004c AFF30080 		.section	.text.f_mount,"ax",%progbits
 5057              		.align	2
 5058              		.p2align 4,,15
 5059              		.global	f_mount
 5060              		.thumb
 5061              		.thumb_func
 5062              		.type	f_mount, %function
 5063              	f_mount:
 5064              	.LFB35:
 5065              		.loc 1 2207 0
 5066              		.cfi_startproc
 5067              		@ args = 0, pretend = 0, frame = 16
 5068              		@ frame_needed = 0, uses_anonymous_args = 0
 5069              		@ link register save eliminated.
 5070 0000 84B0     		sub	sp, sp, #16
 5071              		.cfi_def_cfa_offset 16
 5072 0002 0346     		mov	r3, r0
 5073 0004 0091     		str	r1, [sp]
 5074 0006 8DF80730 		strb	r3, [sp, #7]
 5075              		.loc 1 2211 0
 5076 000a 9DF80730 		ldrb	r3, [sp, #7]	@ zero_extendqisi2
 5077 000e 002B     		cmp	r3, #0
 5078 0010 01D0     		beq	.L358
 5079              		.loc 1 2212 0
 5080 0012 0B23     		movs	r3, #11
 5081 0014 1EE0     		b	.L359
 5082              	.L358:
 5083              		.loc 1 2213 0
 5084 0016 9DF80720 		ldrb	r2, [sp, #7]	@ zero_extendqisi2
 5085 001a 40F20003 		movw	r3, #:lower16:FatFs
 5086 001e C0F20003 		movt	r3, #:upper16:FatFs
 5087 0022 53F82230 		ldr	r3, [r3, r2, lsl #2]
 5088 0026 0393     		str	r3, [sp, #12]
 5089              		.loc 1 2215 0
 5090 0028 039B     		ldr	r3, [sp, #12]
 5091 002a 002B     		cmp	r3, #0
 5092 002c 02D0     		beq	.L360
 5093              		.loc 1 2222 0
 5094 002e 039B     		ldr	r3, [sp, #12]
 5095 0030 0022     		movs	r2, #0
 5096 0032 1A70     		strb	r2, [r3]
 5097              	.L360:
 5098              		.loc 1 2225 0
ARM GAS  /tmp/ccIWRJEN.s 			page 91


 5099 0034 009B     		ldr	r3, [sp]
 5100 0036 002B     		cmp	r3, #0
 5101 0038 02D0     		beq	.L361
 5102              		.loc 1 2226 0
 5103 003a 009B     		ldr	r3, [sp]
 5104 003c 0022     		movs	r2, #0
 5105 003e 1A70     		strb	r2, [r3]
 5106              	.L361:
 5107              		.loc 1 2231 0
 5108 0040 9DF80720 		ldrb	r2, [sp, #7]	@ zero_extendqisi2
 5109 0044 40F20003 		movw	r3, #:lower16:FatFs
 5110 0048 C0F20003 		movt	r3, #:upper16:FatFs
 5111 004c 0099     		ldr	r1, [sp]
 5112 004e 43F82210 		str	r1, [r3, r2, lsl #2]
 5113              		.loc 1 2233 0
 5114 0052 0023     		movs	r3, #0
 5115              	.L359:
 5116              		.loc 1 2234 0
 5117 0054 1846     		mov	r0, r3
 5118 0056 04B0     		add	sp, sp, #16
 5119              		@ sp needed
 5120 0058 7047     		bx	lr
 5121              		.cfi_endproc
 5122              	.LFE35:
 5123              		.size	f_mount, .-f_mount
 5124 005a 00BFAFF3 		.section	.text.f_open,"ax",%progbits
 5124      0080
 5125              		.align	2
 5126              		.p2align 4,,15
 5127              		.global	f_open
 5128              		.thumb
 5129              		.thumb_func
 5130              		.type	f_open, %function
 5131              	f_open:
 5132              	.LFB36:
 5133              		.loc 1 2248 0
 5134              		.cfi_startproc
 5135              		@ args = 0, pretend = 0, frame = 88
 5136              		@ frame_needed = 0, uses_anonymous_args = 0
 5137 0000 00B5     		push	{lr}
 5138              		.cfi_def_cfa_offset 4
 5139              		.cfi_offset 14, -4
 5140 0002 97B0     		sub	sp, sp, #92
 5141              		.cfi_def_cfa_offset 96
 5142 0004 0390     		str	r0, [sp, #12]
 5143 0006 0291     		str	r1, [sp, #8]
 5144 0008 1346     		mov	r3, r2
 5145 000a 8DF80730 		strb	r3, [sp, #7]
 5146              		.loc 1 2255 0
 5147 000e 039B     		ldr	r3, [sp, #12]
 5148 0010 0022     		movs	r2, #0
 5149 0012 1A60     		str	r2, [r3]
 5150              		.loc 1 2258 0
 5151 0014 9DF80730 		ldrb	r3, [sp, #7]
 5152 0018 03F01F03 		and	r3, r3, #31
 5153 001c 8DF80730 		strb	r3, [sp, #7]
 5154              		.loc 1 2259 0
ARM GAS  /tmp/ccIWRJEN.s 			page 92


 5155 0020 9DF80730 		ldrb	r3, [sp, #7]
 5156 0024 23F00103 		bic	r3, r3, #1
 5157 0028 DBB2     		uxtb	r3, r3
 5158 002a 02A9     		add	r1, sp, #8
 5159 002c 08AA     		add	r2, sp, #32
 5160 002e 0846     		mov	r0, r1
 5161 0030 1146     		mov	r1, r2
 5162 0032 1A46     		mov	r2, r3
 5163 0034 FFF7FEFF 		bl	chk_mounted
 5164 0038 0346     		mov	r3, r0
 5165 003a 8DF85730 		strb	r3, [sp, #87]
 5166              		.loc 1 2264 0
 5167 003e 4FF40070 		mov	r0, #512
 5168 0042 FFF7FEFF 		bl	ff_memalloc
 5169 0046 1390     		str	r0, [sp, #76]
 5170 0048 139B     		ldr	r3, [sp, #76]
 5171 004a 002B     		cmp	r3, #0
 5172 004c 01D1     		bne	.L363
 5173              		.loc 1 2264 0 is_stmt 0 discriminator 1
 5174 004e 1123     		movs	r3, #17
 5175 0050 F9E0     		b	.L378
 5176              	.L363:
 5177              		.loc 1 2264 0 discriminator 2
 5178 0052 139B     		ldr	r3, [sp, #76]
 5179 0054 0F93     		str	r3, [sp, #60]
 5180 0056 05AB     		add	r3, sp, #20
 5181 0058 0E93     		str	r3, [sp, #56]
 5182              		.loc 1 2265 0 is_stmt 1 discriminator 2
 5183 005a 9DF85730 		ldrb	r3, [sp, #87]	@ zero_extendqisi2
 5184 005e 002B     		cmp	r3, #0
 5185 0060 08D1     		bne	.L365
 5186              		.loc 1 2266 0
 5187 0062 029B     		ldr	r3, [sp, #8]
 5188 0064 08AA     		add	r2, sp, #32
 5189 0066 1046     		mov	r0, r2
 5190 0068 1946     		mov	r1, r3
 5191 006a FFF7FEFF 		bl	follow_path
 5192 006e 0346     		mov	r3, r0
 5193 0070 8DF85730 		strb	r3, [sp, #87]
 5194              	.L365:
 5195              		.loc 1 2267 0
 5196 0074 0D9B     		ldr	r3, [sp, #52]
 5197 0076 1493     		str	r3, [sp, #80]
 5198              		.loc 1 2270 0
 5199 0078 9DF85730 		ldrb	r3, [sp, #87]	@ zero_extendqisi2
 5200 007c 002B     		cmp	r3, #0
 5201 007e 05D1     		bne	.L366
 5202              		.loc 1 2271 0
 5203 0080 149B     		ldr	r3, [sp, #80]
 5204 0082 002B     		cmp	r3, #0
 5205 0084 02D1     		bne	.L366
 5206              		.loc 1 2272 0
 5207 0086 0623     		movs	r3, #6
 5208 0088 8DF85730 		strb	r3, [sp, #87]
 5209              	.L366:
 5210              		.loc 1 2279 0
 5211 008c 9DF80730 		ldrb	r3, [sp, #7]	@ zero_extendqisi2
ARM GAS  /tmp/ccIWRJEN.s 			page 93


 5212 0090 03F01C03 		and	r3, r3, #28
 5213 0094 002B     		cmp	r3, #0
 5214 0096 78D0     		beq	.L367
 5215              	.LBB5:
 5216              		.loc 1 2282 0
 5217 0098 9DF85730 		ldrb	r3, [sp, #87]	@ zero_extendqisi2
 5218 009c 002B     		cmp	r3, #0
 5219 009e 13D0     		beq	.L368
 5220              		.loc 1 2283 0
 5221 00a0 9DF85730 		ldrb	r3, [sp, #87]	@ zero_extendqisi2
 5222 00a4 042B     		cmp	r3, #4
 5223 00a6 06D1     		bne	.L369
 5224              		.loc 1 2287 0
 5225 00a8 08AB     		add	r3, sp, #32
 5226 00aa 1846     		mov	r0, r3
 5227 00ac FFF7FEFF 		bl	dir_register
 5228 00b0 0346     		mov	r3, r0
 5229 00b2 8DF85730 		strb	r3, [sp, #87]
 5230              	.L369:
 5231              		.loc 1 2289 0
 5232 00b6 9DF80730 		ldrb	r3, [sp, #7]
 5233 00ba 43F00803 		orr	r3, r3, #8
 5234 00be 8DF80730 		strb	r3, [sp, #7]
 5235              		.loc 1 2290 0
 5236 00c2 0D9B     		ldr	r3, [sp, #52]
 5237 00c4 1493     		str	r3, [sp, #80]
 5238 00c6 13E0     		b	.L370
 5239              	.L368:
 5240              		.loc 1 2293 0
 5241 00c8 149B     		ldr	r3, [sp, #80]
 5242 00ca 0B33     		adds	r3, r3, #11
 5243 00cc 1B78     		ldrb	r3, [r3]	@ zero_extendqisi2
 5244 00ce 03F01103 		and	r3, r3, #17
 5245 00d2 002B     		cmp	r3, #0
 5246 00d4 03D0     		beq	.L371
 5247              		.loc 1 2294 0
 5248 00d6 0723     		movs	r3, #7
 5249 00d8 8DF85730 		strb	r3, [sp, #87]
 5250 00dc 08E0     		b	.L370
 5251              	.L371:
 5252              		.loc 1 2296 0
 5253 00de 9DF80730 		ldrb	r3, [sp, #7]	@ zero_extendqisi2
 5254 00e2 03F00403 		and	r3, r3, #4
 5255 00e6 002B     		cmp	r3, #0
 5256 00e8 02D0     		beq	.L370
 5257              		.loc 1 2297 0
 5258 00ea 0823     		movs	r3, #8
 5259 00ec 8DF85730 		strb	r3, [sp, #87]
 5260              	.L370:
 5261              		.loc 1 2300 0
 5262 00f0 9DF85730 		ldrb	r3, [sp, #87]	@ zero_extendqisi2
 5263 00f4 002B     		cmp	r3, #0
 5264 00f6 47D1     		bne	.L372
 5265              		.loc 1 2300 0 is_stmt 0 discriminator 1
 5266 00f8 9DF80730 		ldrb	r3, [sp, #7]	@ zero_extendqisi2
 5267 00fc 03F00803 		and	r3, r3, #8
 5268 0100 002B     		cmp	r3, #0
ARM GAS  /tmp/ccIWRJEN.s 			page 94


 5269 0102 41D0     		beq	.L372
 5270              		.loc 1 2301 0 is_stmt 1
 5271 0104 FFF7FEFF 		bl	get_fattime
 5272 0108 1290     		str	r0, [sp, #72]
 5273              		.loc 1 2302 0
 5274 010a 149B     		ldr	r3, [sp, #80]
 5275 010c 0E33     		adds	r3, r3, #14
 5276 010e 129A     		ldr	r2, [sp, #72]
 5277 0110 1A60     		str	r2, [r3]
 5278              		.loc 1 2303 0
 5279 0112 149B     		ldr	r3, [sp, #80]
 5280 0114 0B33     		adds	r3, r3, #11
 5281 0116 0022     		movs	r2, #0
 5282 0118 1A70     		strb	r2, [r3]
 5283              		.loc 1 2304 0
 5284 011a 149B     		ldr	r3, [sp, #80]
 5285 011c 1C33     		adds	r3, r3, #28
 5286 011e 0022     		movs	r2, #0
 5287 0120 1A60     		str	r2, [r3]
 5288              		.loc 1 2305 0
 5289 0122 149B     		ldr	r3, [sp, #80]
 5290 0124 1433     		adds	r3, r3, #20
 5291 0126 1B88     		ldrh	r3, [r3]
 5292 0128 1A04     		lsls	r2, r3, #16
 5293 012a 149B     		ldr	r3, [sp, #80]
 5294 012c 1A33     		adds	r3, r3, #26
 5295 012e 1B88     		ldrh	r3, [r3]
 5296 0130 1343     		orrs	r3, r3, r2
 5297 0132 1193     		str	r3, [sp, #68]
 5298              		.loc 1 2306 0
 5299 0134 149B     		ldr	r3, [sp, #80]
 5300 0136 1A33     		adds	r3, r3, #26
 5301 0138 0022     		movs	r2, #0
 5302 013a 1A80     		strh	r2, [r3]	@ movhi
 5303 013c 149B     		ldr	r3, [sp, #80]
 5304 013e 1433     		adds	r3, r3, #20
 5305 0140 0022     		movs	r2, #0
 5306 0142 1A80     		strh	r2, [r3]	@ movhi
 5307              		.loc 1 2307 0
 5308 0144 089B     		ldr	r3, [sp, #32]
 5309 0146 0122     		movs	r2, #1
 5310 0148 1A71     		strb	r2, [r3, #4]
 5311              		.loc 1 2308 0
 5312 014a 119B     		ldr	r3, [sp, #68]
 5313 014c 002B     		cmp	r3, #0
 5314 014e 1BD0     		beq	.L372
 5315              		.loc 1 2309 0
 5316 0150 089B     		ldr	r3, [sp, #32]
 5317 0152 DB6A     		ldr	r3, [r3, #44]
 5318 0154 1293     		str	r3, [sp, #72]
 5319              		.loc 1 2310 0
 5320 0156 089B     		ldr	r3, [sp, #32]
 5321 0158 1846     		mov	r0, r3
 5322 015a 1199     		ldr	r1, [sp, #68]
 5323 015c FFF7FEFF 		bl	remove_chain
 5324 0160 0346     		mov	r3, r0
 5325 0162 8DF85730 		strb	r3, [sp, #87]
ARM GAS  /tmp/ccIWRJEN.s 			page 95


 5326              		.loc 1 2311 0
 5327 0166 9DF85730 		ldrb	r3, [sp, #87]	@ zero_extendqisi2
 5328 016a 002B     		cmp	r3, #0
 5329 016c 0CD1     		bne	.L372
 5330              		.loc 1 2312 0
 5331 016e 089B     		ldr	r3, [sp, #32]
 5332 0170 119A     		ldr	r2, [sp, #68]
 5333 0172 013A     		subs	r2, r2, #1
 5334 0174 DA60     		str	r2, [r3, #12]
 5335              		.loc 1 2313 0
 5336 0176 089B     		ldr	r3, [sp, #32]
 5337 0178 1846     		mov	r0, r3
 5338 017a 1299     		ldr	r1, [sp, #72]
 5339 017c FFF7FEFF 		bl	move_window
 5340 0180 0346     		mov	r3, r0
 5341 0182 8DF85730 		strb	r3, [sp, #87]
 5342              	.LBE5:
 5343 0186 1FE0     		b	.L373
 5344              	.L372:
 5345 0188 1EE0     		b	.L373
 5346              	.L367:
 5347              		.loc 1 2319 0
 5348 018a 9DF85730 		ldrb	r3, [sp, #87]	@ zero_extendqisi2
 5349 018e 002B     		cmp	r3, #0
 5350 0190 1AD1     		bne	.L373
 5351              		.loc 1 2320 0
 5352 0192 149B     		ldr	r3, [sp, #80]
 5353 0194 0B33     		adds	r3, r3, #11
 5354 0196 1B78     		ldrb	r3, [r3]	@ zero_extendqisi2
 5355 0198 03F01003 		and	r3, r3, #16
 5356 019c 002B     		cmp	r3, #0
 5357 019e 03D0     		beq	.L374
 5358              		.loc 1 2321 0
 5359 01a0 0423     		movs	r3, #4
 5360 01a2 8DF85730 		strb	r3, [sp, #87]
 5361 01a6 0FE0     		b	.L373
 5362              	.L374:
 5363              		.loc 1 2323 0
 5364 01a8 9DF80730 		ldrb	r3, [sp, #7]	@ zero_extendqisi2
 5365 01ac 03F00203 		and	r3, r3, #2
 5366 01b0 002B     		cmp	r3, #0
 5367 01b2 09D0     		beq	.L373
 5368              		.loc 1 2323 0 is_stmt 0 discriminator 1
 5369 01b4 149B     		ldr	r3, [sp, #80]
 5370 01b6 0B33     		adds	r3, r3, #11
 5371 01b8 1B78     		ldrb	r3, [r3]	@ zero_extendqisi2
 5372 01ba 03F00103 		and	r3, r3, #1
 5373 01be 002B     		cmp	r3, #0
 5374 01c0 02D0     		beq	.L373
 5375              		.loc 1 2324 0 is_stmt 1
 5376 01c2 0723     		movs	r3, #7
 5377 01c4 8DF85730 		strb	r3, [sp, #87]
 5378              	.L373:
 5379              		.loc 1 2328 0
 5380 01c8 9DF85730 		ldrb	r3, [sp, #87]	@ zero_extendqisi2
 5381 01cc 002B     		cmp	r3, #0
 5382 01ce 12D1     		bne	.L375
ARM GAS  /tmp/ccIWRJEN.s 			page 96


 5383              		.loc 1 2329 0
 5384 01d0 9DF80730 		ldrb	r3, [sp, #7]	@ zero_extendqisi2
 5385 01d4 03F00803 		and	r3, r3, #8
 5386 01d8 002B     		cmp	r3, #0
 5387 01da 05D0     		beq	.L376
 5388              		.loc 1 2330 0
 5389 01dc 9DF80730 		ldrb	r3, [sp, #7]
 5390 01e0 43F02003 		orr	r3, r3, #32
 5391 01e4 8DF80730 		strb	r3, [sp, #7]
 5392              	.L376:
 5393              		.loc 1 2331 0
 5394 01e8 089B     		ldr	r3, [sp, #32]
 5395 01ea DA6A     		ldr	r2, [r3, #44]
 5396 01ec 039B     		ldr	r3, [sp, #12]
 5397 01ee DA61     		str	r2, [r3, #28]
 5398              		.loc 1 2332 0
 5399 01f0 039B     		ldr	r3, [sp, #12]
 5400 01f2 149A     		ldr	r2, [sp, #80]
 5401 01f4 1A62     		str	r2, [r3, #32]
 5402              	.L375:
 5403              		.loc 1 2349 0
 5404 01f6 1398     		ldr	r0, [sp, #76]
 5405 01f8 FFF7FEFF 		bl	ff_memfree
 5406              		.loc 1 2351 0
 5407 01fc 9DF85730 		ldrb	r3, [sp, #87]	@ zero_extendqisi2
 5408 0200 002B     		cmp	r3, #0
 5409 0202 1ED1     		bne	.L377
 5410              		.loc 1 2352 0
 5411 0204 039B     		ldr	r3, [sp, #12]
 5412 0206 9DF80720 		ldrb	r2, [sp, #7]
 5413 020a 9A71     		strb	r2, [r3, #6]
 5414              		.loc 1 2353 0
 5415 020c 149B     		ldr	r3, [sp, #80]
 5416 020e 1433     		adds	r3, r3, #20
 5417 0210 1B88     		ldrh	r3, [r3]
 5418 0212 1A04     		lsls	r2, r3, #16
 5419 0214 149B     		ldr	r3, [sp, #80]
 5420 0216 1A33     		adds	r3, r3, #26
 5421 0218 1B88     		ldrh	r3, [r3]
 5422 021a 1A43     		orrs	r2, r2, r3
 5423 021c 039B     		ldr	r3, [sp, #12]
 5424 021e 1A61     		str	r2, [r3, #16]
 5425              		.loc 1 2354 0
 5426 0220 149B     		ldr	r3, [sp, #80]
 5427 0222 DA69     		ldr	r2, [r3, #28]
 5428 0224 039B     		ldr	r3, [sp, #12]
 5429 0226 DA60     		str	r2, [r3, #12]
 5430              		.loc 1 2355 0
 5431 0228 039B     		ldr	r3, [sp, #12]
 5432 022a 0022     		movs	r2, #0
 5433 022c 9A60     		str	r2, [r3, #8]
 5434              		.loc 1 2356 0
 5435 022e 039B     		ldr	r3, [sp, #12]
 5436 0230 0022     		movs	r2, #0
 5437 0232 9A61     		str	r2, [r3, #24]
 5438              		.loc 1 2360 0
 5439 0234 089A     		ldr	r2, [sp, #32]
ARM GAS  /tmp/ccIWRJEN.s 			page 97


 5440 0236 039B     		ldr	r3, [sp, #12]
 5441 0238 1A60     		str	r2, [r3]
 5442 023a 089B     		ldr	r3, [sp, #32]
 5443 023c DA88     		ldrh	r2, [r3, #6]
 5444 023e 039B     		ldr	r3, [sp, #12]
 5445 0240 9A80     		strh	r2, [r3, #4]	@ movhi
 5446              	.L377:
 5447              		.loc 1 2363 0
 5448 0242 9DF85730 		ldrb	r3, [sp, #87]	@ zero_extendqisi2
 5449              	.L378:
 5450              		.loc 1 2364 0
 5451 0246 1846     		mov	r0, r3
 5452 0248 17B0     		add	sp, sp, #92
 5453              		@ sp needed
 5454 024a 5DF804FB 		ldr	pc, [sp], #4
 5455              		.cfi_endproc
 5456              	.LFE36:
 5457              		.size	f_open, .-f_open
 5458 024e 00BF     		.section	.text.f_read,"ax",%progbits
 5459              		.align	2
 5460              		.p2align 4,,15
 5461              		.global	f_read
 5462              		.thumb
 5463              		.thumb_func
 5464              		.type	f_read, %function
 5465              	f_read:
 5466              	.LFB37:
 5467              		.loc 1 2379 0
 5468              		.cfi_startproc
 5469              		@ args = 0, pretend = 0, frame = 48
 5470              		@ frame_needed = 0, uses_anonymous_args = 0
 5471 0000 00B5     		push	{lr}
 5472              		.cfi_def_cfa_offset 4
 5473              		.cfi_offset 14, -4
 5474 0002 8DB0     		sub	sp, sp, #52
 5475              		.cfi_def_cfa_offset 56
 5476 0004 0390     		str	r0, [sp, #12]
 5477 0006 0291     		str	r1, [sp, #8]
 5478 0008 0192     		str	r2, [sp, #4]
 5479 000a 0093     		str	r3, [sp]
 5480              		.loc 1 2383 0
 5481 000c 029B     		ldr	r3, [sp, #8]
 5482 000e 0893     		str	r3, [sp, #32]
 5483              		.loc 1 2386 0
 5484 0010 009B     		ldr	r3, [sp]
 5485 0012 0022     		movs	r2, #0
 5486 0014 1A60     		str	r2, [r3]
 5487              		.loc 1 2388 0
 5488 0016 039B     		ldr	r3, [sp, #12]
 5489 0018 1A68     		ldr	r2, [r3]
 5490 001a 039B     		ldr	r3, [sp, #12]
 5491 001c 9B88     		ldrh	r3, [r3, #4]
 5492 001e 1046     		mov	r0, r2
 5493 0020 1946     		mov	r1, r3
 5494 0022 FFF7FEFF 		bl	validate
 5495 0026 0346     		mov	r3, r0
 5496 0028 8DF81F30 		strb	r3, [sp, #31]
ARM GAS  /tmp/ccIWRJEN.s 			page 98


 5497              		.loc 1 2389 0
 5498 002c 9DF81F30 		ldrb	r3, [sp, #31]	@ zero_extendqisi2
 5499 0030 002B     		cmp	r3, #0
 5500 0032 02D0     		beq	.L380
 5501              		.loc 1 2389 0 is_stmt 0 discriminator 1
 5502 0034 9DF81F30 		ldrb	r3, [sp, #31]	@ zero_extendqisi2
 5503 0038 41E1     		b	.L381
 5504              	.L380:
 5505              		.loc 1 2390 0 is_stmt 1
 5506 003a 039B     		ldr	r3, [sp, #12]
 5507 003c 9B79     		ldrb	r3, [r3, #6]	@ zero_extendqisi2
 5508 003e DBB2     		uxtb	r3, r3
 5509 0040 5BB2     		sxtb	r3, r3
 5510 0042 002B     		cmp	r3, #0
 5511 0044 01DA     		bge	.L382
 5512              		.loc 1 2391 0
 5513 0046 0223     		movs	r3, #2
 5514 0048 39E1     		b	.L381
 5515              	.L382:
 5516              		.loc 1 2392 0
 5517 004a 039B     		ldr	r3, [sp, #12]
 5518 004c 9B79     		ldrb	r3, [r3, #6]	@ zero_extendqisi2
 5519 004e 03F00103 		and	r3, r3, #1
 5520 0052 002B     		cmp	r3, #0
 5521 0054 01D1     		bne	.L383
 5522              		.loc 1 2393 0
 5523 0056 0723     		movs	r3, #7
 5524 0058 31E1     		b	.L381
 5525              	.L383:
 5526              		.loc 1 2394 0
 5527 005a 039B     		ldr	r3, [sp, #12]
 5528 005c DA68     		ldr	r2, [r3, #12]
 5529 005e 039B     		ldr	r3, [sp, #12]
 5530 0060 9B68     		ldr	r3, [r3, #8]
 5531 0062 D31A     		subs	r3, r2, r3
 5532 0064 0693     		str	r3, [sp, #24]
 5533              		.loc 1 2395 0
 5534 0066 019A     		ldr	r2, [sp, #4]
 5535 0068 069B     		ldr	r3, [sp, #24]
 5536 006a 9A42     		cmp	r2, r3
 5537 006c 02D9     		bls	.L384
 5538              		.loc 1 2395 0 is_stmt 0 discriminator 1
 5539 006e 069B     		ldr	r3, [sp, #24]
 5540 0070 0193     		str	r3, [sp, #4]
 5541              		.loc 1 2397 0 is_stmt 1 discriminator 1
 5542 0072 1FE1     		b	.L385
 5543              	.L384:
 5544              		.loc 1 2397 0 is_stmt 0
 5545 0074 1EE1     		b	.L385
 5546              	.L402:
 5547              		.loc 1 2399 0 is_stmt 1
 5548 0076 039B     		ldr	r3, [sp, #12]
 5549 0078 9B68     		ldr	r3, [r3, #8]
 5550 007a C3F30803 		ubfx	r3, r3, #0, #9
 5551 007e 002B     		cmp	r3, #0
 5552 0080 40F0EA80 		bne	.L386
 5553              		.loc 1 2400 0
ARM GAS  /tmp/ccIWRJEN.s 			page 99


 5554 0084 039B     		ldr	r3, [sp, #12]
 5555 0086 9B68     		ldr	r3, [r3, #8]
 5556 0088 5B0A     		lsrs	r3, r3, #9
 5557 008a DAB2     		uxtb	r2, r3
 5558 008c 039B     		ldr	r3, [sp, #12]
 5559 008e 1B68     		ldr	r3, [r3]
 5560 0090 9B78     		ldrb	r3, [r3, #2]	@ zero_extendqisi2
 5561 0092 013B     		subs	r3, r3, #1
 5562 0094 DBB2     		uxtb	r3, r3
 5563 0096 1340     		ands	r3, r3, r2
 5564 0098 8DF81730 		strb	r3, [sp, #23]
 5565              		.loc 1 2401 0
 5566 009c 9DF81730 		ldrb	r3, [sp, #23]	@ zero_extendqisi2
 5567 00a0 002B     		cmp	r3, #0
 5568 00a2 2CD1     		bne	.L387
 5569              		.loc 1 2402 0
 5570 00a4 039B     		ldr	r3, [sp, #12]
 5571 00a6 9B68     		ldr	r3, [r3, #8]
 5572 00a8 002B     		cmp	r3, #0
 5573 00aa 03D1     		bne	.L388
 5574              		.loc 1 2403 0
 5575 00ac 039B     		ldr	r3, [sp, #12]
 5576 00ae 1B69     		ldr	r3, [r3, #16]
 5577 00b0 0B93     		str	r3, [sp, #44]
 5578 00b2 08E0     		b	.L389
 5579              	.L388:
 5580              		.loc 1 2410 0
 5581 00b4 039B     		ldr	r3, [sp, #12]
 5582 00b6 1A68     		ldr	r2, [r3]
 5583 00b8 039B     		ldr	r3, [sp, #12]
 5584 00ba 5B69     		ldr	r3, [r3, #20]
 5585 00bc 1046     		mov	r0, r2
 5586 00be 1946     		mov	r1, r3
 5587 00c0 FFF7FEFF 		bl	get_fat
 5588 00c4 0B90     		str	r0, [sp, #44]
 5589              	.L389:
 5590              		.loc 1 2412 0
 5591 00c6 0B9B     		ldr	r3, [sp, #44]
 5592 00c8 012B     		cmp	r3, #1
 5593 00ca 08D8     		bhi	.L390
 5594              		.loc 1 2412 0 is_stmt 0 discriminator 1
 5595 00cc 039B     		ldr	r3, [sp, #12]
 5596 00ce 9B79     		ldrb	r3, [r3, #6]	@ zero_extendqisi2
 5597 00d0 63F07F03 		orn	r3, r3, #127
 5598 00d4 DAB2     		uxtb	r2, r3
 5599 00d6 039B     		ldr	r3, [sp, #12]
 5600 00d8 9A71     		strb	r2, [r3, #6]
 5601 00da 0223     		movs	r3, #2
 5602 00dc EFE0     		b	.L381
 5603              	.L390:
 5604              		.loc 1 2413 0 is_stmt 1
 5605 00de 0B9B     		ldr	r3, [sp, #44]
 5606 00e0 B3F1FF3F 		cmp	r3, #-1
 5607 00e4 08D1     		bne	.L391
 5608              		.loc 1 2413 0 is_stmt 0 discriminator 1
 5609 00e6 039B     		ldr	r3, [sp, #12]
 5610 00e8 9B79     		ldrb	r3, [r3, #6]	@ zero_extendqisi2
ARM GAS  /tmp/ccIWRJEN.s 			page 100


 5611 00ea 63F07F03 		orn	r3, r3, #127
 5612 00ee DAB2     		uxtb	r2, r3
 5613 00f0 039B     		ldr	r3, [sp, #12]
 5614 00f2 9A71     		strb	r2, [r3, #6]
 5615 00f4 0123     		movs	r3, #1
 5616 00f6 E2E0     		b	.L381
 5617              	.L391:
 5618              		.loc 1 2414 0 is_stmt 1
 5619 00f8 039B     		ldr	r3, [sp, #12]
 5620 00fa 0B9A     		ldr	r2, [sp, #44]
 5621 00fc 5A61     		str	r2, [r3, #20]
 5622              	.L387:
 5623              		.loc 1 2416 0
 5624 00fe 039B     		ldr	r3, [sp, #12]
 5625 0100 1A68     		ldr	r2, [r3]
 5626 0102 039B     		ldr	r3, [sp, #12]
 5627 0104 5B69     		ldr	r3, [r3, #20]
 5628 0106 1046     		mov	r0, r2
 5629 0108 1946     		mov	r1, r3
 5630 010a FFF7FEFF 		bl	clust2sect
 5631 010e 0490     		str	r0, [sp, #16]
 5632              		.loc 1 2417 0
 5633 0110 049B     		ldr	r3, [sp, #16]
 5634 0112 002B     		cmp	r3, #0
 5635 0114 08D1     		bne	.L392
 5636              		.loc 1 2417 0 is_stmt 0 discriminator 1
 5637 0116 039B     		ldr	r3, [sp, #12]
 5638 0118 9B79     		ldrb	r3, [r3, #6]	@ zero_extendqisi2
 5639 011a 63F07F03 		orn	r3, r3, #127
 5640 011e DAB2     		uxtb	r2, r3
 5641 0120 039B     		ldr	r3, [sp, #12]
 5642 0122 9A71     		strb	r2, [r3, #6]
 5643 0124 0223     		movs	r3, #2
 5644 0126 CAE0     		b	.L381
 5645              	.L392:
 5646              		.loc 1 2418 0 is_stmt 1
 5647 0128 9DF81730 		ldrb	r3, [sp, #23]	@ zero_extendqisi2
 5648 012c 049A     		ldr	r2, [sp, #16]
 5649 012e 1344     		add	r3, r3, r2
 5650 0130 0493     		str	r3, [sp, #16]
 5651              		.loc 1 2419 0
 5652 0132 019B     		ldr	r3, [sp, #4]
 5653 0134 5B0A     		lsrs	r3, r3, #9
 5654 0136 0993     		str	r3, [sp, #36]
 5655              		.loc 1 2420 0
 5656 0138 099B     		ldr	r3, [sp, #36]
 5657 013a 002B     		cmp	r3, #0
 5658 013c 46D0     		beq	.L393
 5659              		.loc 1 2421 0
 5660 013e 9DF81720 		ldrb	r2, [sp, #23]	@ zero_extendqisi2
 5661 0142 099B     		ldr	r3, [sp, #36]
 5662 0144 1A44     		add	r2, r2, r3
 5663 0146 039B     		ldr	r3, [sp, #12]
 5664 0148 1B68     		ldr	r3, [r3]
 5665 014a 9B78     		ldrb	r3, [r3, #2]	@ zero_extendqisi2
 5666 014c 9A42     		cmp	r2, r3
 5667 014e 07D9     		bls	.L394
ARM GAS  /tmp/ccIWRJEN.s 			page 101


 5668              		.loc 1 2422 0
 5669 0150 039B     		ldr	r3, [sp, #12]
 5670 0152 1B68     		ldr	r3, [r3]
 5671 0154 9B78     		ldrb	r3, [r3, #2]	@ zero_extendqisi2
 5672 0156 1A46     		mov	r2, r3
 5673 0158 9DF81730 		ldrb	r3, [sp, #23]	@ zero_extendqisi2
 5674 015c D31A     		subs	r3, r2, r3
 5675 015e 0993     		str	r3, [sp, #36]
 5676              	.L394:
 5677              		.loc 1 2423 0
 5678 0160 039B     		ldr	r3, [sp, #12]
 5679 0162 1B68     		ldr	r3, [r3]
 5680 0164 5A78     		ldrb	r2, [r3, #1]	@ zero_extendqisi2
 5681 0166 099B     		ldr	r3, [sp, #36]
 5682 0168 DBB2     		uxtb	r3, r3
 5683 016a 1046     		mov	r0, r2
 5684 016c 0899     		ldr	r1, [sp, #32]
 5685 016e 049A     		ldr	r2, [sp, #16]
 5686 0170 FFF7FEFF 		bl	disk_read
 5687 0174 0346     		mov	r3, r0
 5688 0176 002B     		cmp	r3, #0
 5689 0178 08D0     		beq	.L395
 5690              		.loc 1 2424 0
 5691 017a 039B     		ldr	r3, [sp, #12]
 5692 017c 9B79     		ldrb	r3, [r3, #6]	@ zero_extendqisi2
 5693 017e 63F07F03 		orn	r3, r3, #127
 5694 0182 DAB2     		uxtb	r2, r3
 5695 0184 039B     		ldr	r3, [sp, #12]
 5696 0186 9A71     		strb	r2, [r3, #6]
 5697 0188 0123     		movs	r3, #1
 5698 018a 98E0     		b	.L381
 5699              	.L395:
 5700              		.loc 1 2430 0
 5701 018c 039B     		ldr	r3, [sp, #12]
 5702 018e 9B79     		ldrb	r3, [r3, #6]	@ zero_extendqisi2
 5703 0190 03F04003 		and	r3, r3, #64
 5704 0194 002B     		cmp	r3, #0
 5705 0196 15D0     		beq	.L396
 5706              		.loc 1 2430 0 is_stmt 0 discriminator 1
 5707 0198 039B     		ldr	r3, [sp, #12]
 5708 019a 9A69     		ldr	r2, [r3, #24]
 5709 019c 049B     		ldr	r3, [sp, #16]
 5710 019e D21A     		subs	r2, r2, r3
 5711 01a0 099B     		ldr	r3, [sp, #36]
 5712 01a2 9A42     		cmp	r2, r3
 5713 01a4 0ED2     		bcs	.L396
 5714              		.loc 1 2431 0 is_stmt 1
 5715 01a6 039B     		ldr	r3, [sp, #12]
 5716 01a8 9A69     		ldr	r2, [r3, #24]
 5717 01aa 049B     		ldr	r3, [sp, #16]
 5718 01ac D31A     		subs	r3, r2, r3
 5719 01ae 5B02     		lsls	r3, r3, #9
 5720 01b0 089A     		ldr	r2, [sp, #32]
 5721 01b2 1A44     		add	r2, r2, r3
 5722 01b4 039B     		ldr	r3, [sp, #12]
 5723 01b6 2433     		adds	r3, r3, #36
 5724 01b8 1046     		mov	r0, r2
ARM GAS  /tmp/ccIWRJEN.s 			page 102


 5725 01ba 1946     		mov	r1, r3
 5726 01bc 4FF40072 		mov	r2, #512
 5727 01c0 FFF7FEFF 		bl	mem_cpy
 5728              	.L396:
 5729              		.loc 1 2434 0
 5730 01c4 099B     		ldr	r3, [sp, #36]
 5731 01c6 5B02     		lsls	r3, r3, #9
 5732 01c8 0A93     		str	r3, [sp, #40]
 5733              		.loc 1 2435 0
 5734 01ca 5FE0     		b	.L397
 5735              	.L393:
 5736              		.loc 1 2438 0
 5737 01cc 039B     		ldr	r3, [sp, #12]
 5738 01ce 9A69     		ldr	r2, [r3, #24]
 5739 01d0 049B     		ldr	r3, [sp, #16]
 5740 01d2 9A42     		cmp	r2, r3
 5741 01d4 3DD0     		beq	.L398
 5742              		.loc 1 2440 0
 5743 01d6 039B     		ldr	r3, [sp, #12]
 5744 01d8 9B79     		ldrb	r3, [r3, #6]	@ zero_extendqisi2
 5745 01da 03F04003 		and	r3, r3, #64
 5746 01de 002B     		cmp	r3, #0
 5747 01e0 20D0     		beq	.L399
 5748              		.loc 1 2441 0
 5749 01e2 039B     		ldr	r3, [sp, #12]
 5750 01e4 1B68     		ldr	r3, [r3]
 5751 01e6 5978     		ldrb	r1, [r3, #1]	@ zero_extendqisi2
 5752 01e8 039B     		ldr	r3, [sp, #12]
 5753 01ea 03F12402 		add	r2, r3, #36
 5754 01ee 039B     		ldr	r3, [sp, #12]
 5755 01f0 9B69     		ldr	r3, [r3, #24]
 5756 01f2 0846     		mov	r0, r1
 5757 01f4 1146     		mov	r1, r2
 5758 01f6 1A46     		mov	r2, r3
 5759 01f8 0123     		movs	r3, #1
 5760 01fa FFF7FEFF 		bl	disk_write
 5761 01fe 0346     		mov	r3, r0
 5762 0200 002B     		cmp	r3, #0
 5763 0202 08D0     		beq	.L400
 5764              		.loc 1 2442 0
 5765 0204 039B     		ldr	r3, [sp, #12]
 5766 0206 9B79     		ldrb	r3, [r3, #6]	@ zero_extendqisi2
 5767 0208 63F07F03 		orn	r3, r3, #127
 5768 020c DAB2     		uxtb	r2, r3
 5769 020e 039B     		ldr	r3, [sp, #12]
 5770 0210 9A71     		strb	r2, [r3, #6]
 5771 0212 0123     		movs	r3, #1
 5772 0214 53E0     		b	.L381
 5773              	.L400:
 5774              		.loc 1 2443 0
 5775 0216 039B     		ldr	r3, [sp, #12]
 5776 0218 9B79     		ldrb	r3, [r3, #6]	@ zero_extendqisi2
 5777 021a 23F04003 		bic	r3, r3, #64
 5778 021e DAB2     		uxtb	r2, r3
 5779 0220 039B     		ldr	r3, [sp, #12]
 5780 0222 9A71     		strb	r2, [r3, #6]
 5781              	.L399:
ARM GAS  /tmp/ccIWRJEN.s 			page 103


 5782              		.loc 1 2446 0
 5783 0224 039B     		ldr	r3, [sp, #12]
 5784 0226 1B68     		ldr	r3, [r3]
 5785 0228 5A78     		ldrb	r2, [r3, #1]	@ zero_extendqisi2
 5786 022a 039B     		ldr	r3, [sp, #12]
 5787 022c 2433     		adds	r3, r3, #36
 5788 022e 1046     		mov	r0, r2
 5789 0230 1946     		mov	r1, r3
 5790 0232 049A     		ldr	r2, [sp, #16]
 5791 0234 0123     		movs	r3, #1
 5792 0236 FFF7FEFF 		bl	disk_read
 5793 023a 0346     		mov	r3, r0
 5794 023c 002B     		cmp	r3, #0
 5795 023e 08D0     		beq	.L398
 5796              		.loc 1 2447 0
 5797 0240 039B     		ldr	r3, [sp, #12]
 5798 0242 9B79     		ldrb	r3, [r3, #6]	@ zero_extendqisi2
 5799 0244 63F07F03 		orn	r3, r3, #127
 5800 0248 DAB2     		uxtb	r2, r3
 5801 024a 039B     		ldr	r3, [sp, #12]
 5802 024c 9A71     		strb	r2, [r3, #6]
 5803 024e 0123     		movs	r3, #1
 5804 0250 35E0     		b	.L381
 5805              	.L398:
 5806              		.loc 1 2450 0
 5807 0252 039B     		ldr	r3, [sp, #12]
 5808 0254 049A     		ldr	r2, [sp, #16]
 5809 0256 9A61     		str	r2, [r3, #24]
 5810              	.L386:
 5811              		.loc 1 2452 0
 5812 0258 039B     		ldr	r3, [sp, #12]
 5813 025a 9B68     		ldr	r3, [r3, #8]
 5814 025c C3F30803 		ubfx	r3, r3, #0, #9
 5815 0260 C3F50073 		rsb	r3, r3, #512
 5816 0264 0A93     		str	r3, [sp, #40]
 5817              		.loc 1 2453 0
 5818 0266 0A9A     		ldr	r2, [sp, #40]
 5819 0268 019B     		ldr	r3, [sp, #4]
 5820 026a 9A42     		cmp	r2, r3
 5821 026c 01D9     		bls	.L401
 5822              		.loc 1 2453 0 is_stmt 0 discriminator 1
 5823 026e 019B     		ldr	r3, [sp, #4]
 5824 0270 0A93     		str	r3, [sp, #40]
 5825              	.L401:
 5826              		.loc 1 2459 0 is_stmt 1
 5827 0272 039B     		ldr	r3, [sp, #12]
 5828 0274 9B68     		ldr	r3, [r3, #8]
 5829 0276 C3F30803 		ubfx	r3, r3, #0, #9
 5830 027a 2033     		adds	r3, r3, #32
 5831 027c 039A     		ldr	r2, [sp, #12]
 5832 027e 1344     		add	r3, r3, r2
 5833 0280 0433     		adds	r3, r3, #4
 5834 0282 0898     		ldr	r0, [sp, #32]
 5835 0284 1946     		mov	r1, r3
 5836 0286 0A9A     		ldr	r2, [sp, #40]
 5837 0288 FFF7FEFF 		bl	mem_cpy
 5838              	.L397:
ARM GAS  /tmp/ccIWRJEN.s 			page 104


 5839              		.loc 1 2398 0
 5840 028c 089A     		ldr	r2, [sp, #32]
 5841 028e 0A9B     		ldr	r3, [sp, #40]
 5842 0290 1344     		add	r3, r3, r2
 5843 0292 0893     		str	r3, [sp, #32]
 5844 0294 039B     		ldr	r3, [sp, #12]
 5845 0296 9A68     		ldr	r2, [r3, #8]
 5846 0298 0A9B     		ldr	r3, [sp, #40]
 5847 029a 1A44     		add	r2, r2, r3
 5848 029c 039B     		ldr	r3, [sp, #12]
 5849 029e 9A60     		str	r2, [r3, #8]
 5850 02a0 009B     		ldr	r3, [sp]
 5851 02a2 1A68     		ldr	r2, [r3]
 5852 02a4 0A9B     		ldr	r3, [sp, #40]
 5853 02a6 1A44     		add	r2, r2, r3
 5854 02a8 009B     		ldr	r3, [sp]
 5855 02aa 1A60     		str	r2, [r3]
 5856 02ac 019A     		ldr	r2, [sp, #4]
 5857 02ae 0A9B     		ldr	r3, [sp, #40]
 5858 02b0 D31A     		subs	r3, r2, r3
 5859 02b2 0193     		str	r3, [sp, #4]
 5860              	.L385:
 5861              		.loc 1 2397 0 discriminator 1
 5862 02b4 019B     		ldr	r3, [sp, #4]
 5863 02b6 002B     		cmp	r3, #0
 5864 02b8 7FF4DDAE 		bne	.L402
 5865              		.loc 1 2463 0
 5866 02bc 0023     		movs	r3, #0
 5867              	.L381:
 5868              		.loc 1 2464 0
 5869 02be 1846     		mov	r0, r3
 5870 02c0 0DB0     		add	sp, sp, #52
 5871              		@ sp needed
 5872 02c2 5DF804FB 		ldr	pc, [sp], #4
 5873              		.cfi_endproc
 5874              	.LFE37:
 5875              		.size	f_read, .-f_read
 5876 02c6 00BFAFF3 		.section	.text.f_write,"ax",%progbits
 5876      0080AFF3 
 5876      0080
 5877              		.align	2
 5878              		.p2align 4,,15
 5879              		.global	f_write
 5880              		.thumb
 5881              		.thumb_func
 5882              		.type	f_write, %function
 5883              	f_write:
 5884              	.LFB38:
 5885              		.loc 1 2480 0
 5886              		.cfi_startproc
 5887              		@ args = 0, pretend = 0, frame = 40
 5888              		@ frame_needed = 0, uses_anonymous_args = 0
 5889 0000 00B5     		push	{lr}
 5890              		.cfi_def_cfa_offset 4
 5891              		.cfi_offset 14, -4
 5892 0002 8BB0     		sub	sp, sp, #44
 5893              		.cfi_def_cfa_offset 48
ARM GAS  /tmp/ccIWRJEN.s 			page 105


 5894 0004 0390     		str	r0, [sp, #12]
 5895 0006 0291     		str	r1, [sp, #8]
 5896 0008 0192     		str	r2, [sp, #4]
 5897 000a 0093     		str	r3, [sp]
 5898              		.loc 1 2484 0
 5899 000c 029B     		ldr	r3, [sp, #8]
 5900 000e 0693     		str	r3, [sp, #24]
 5901              		.loc 1 2488 0
 5902 0010 009B     		ldr	r3, [sp]
 5903 0012 0022     		movs	r2, #0
 5904 0014 1A60     		str	r2, [r3]
 5905              		.loc 1 2490 0
 5906 0016 039B     		ldr	r3, [sp, #12]
 5907 0018 1A68     		ldr	r2, [r3]
 5908 001a 039B     		ldr	r3, [sp, #12]
 5909 001c 9B88     		ldrh	r3, [r3, #4]
 5910 001e 1046     		mov	r0, r2
 5911 0020 1946     		mov	r1, r3
 5912 0022 FFF7FEFF 		bl	validate
 5913 0026 0346     		mov	r3, r0
 5914 0028 8DF81730 		strb	r3, [sp, #23]
 5915              		.loc 1 2491 0
 5916 002c 9DF81730 		ldrb	r3, [sp, #23]	@ zero_extendqisi2
 5917 0030 002B     		cmp	r3, #0
 5918 0032 02D0     		beq	.L404
 5919              		.loc 1 2491 0 is_stmt 0 discriminator 1
 5920 0034 9DF81730 		ldrb	r3, [sp, #23]	@ zero_extendqisi2
 5921 0038 70E1     		b	.L405
 5922              	.L404:
 5923              		.loc 1 2492 0 is_stmt 1
 5924 003a 039B     		ldr	r3, [sp, #12]
 5925 003c 9B79     		ldrb	r3, [r3, #6]	@ zero_extendqisi2
 5926 003e DBB2     		uxtb	r3, r3
 5927 0040 5BB2     		sxtb	r3, r3
 5928 0042 002B     		cmp	r3, #0
 5929 0044 01DA     		bge	.L406
 5930              		.loc 1 2493 0
 5931 0046 0223     		movs	r3, #2
 5932 0048 68E1     		b	.L405
 5933              	.L406:
 5934              		.loc 1 2494 0
 5935 004a 039B     		ldr	r3, [sp, #12]
 5936 004c 9B79     		ldrb	r3, [r3, #6]	@ zero_extendqisi2
 5937 004e 03F00203 		and	r3, r3, #2
 5938 0052 002B     		cmp	r3, #0
 5939 0054 01D1     		bne	.L407
 5940              		.loc 1 2495 0
 5941 0056 0723     		movs	r3, #7
 5942 0058 60E1     		b	.L405
 5943              	.L407:
 5944              		.loc 1 2496 0
 5945 005a 039B     		ldr	r3, [sp, #12]
 5946 005c DA68     		ldr	r2, [r3, #12]
 5947 005e 019B     		ldr	r3, [sp, #4]
 5948 0060 1A44     		add	r2, r2, r3
 5949 0062 039B     		ldr	r3, [sp, #12]
 5950 0064 DB68     		ldr	r3, [r3, #12]
ARM GAS  /tmp/ccIWRJEN.s 			page 106


 5951 0066 9A42     		cmp	r2, r3
 5952 0068 02D2     		bcs	.L408
 5953              		.loc 1 2496 0 is_stmt 0 discriminator 1
 5954 006a 0023     		movs	r3, #0
 5955 006c 0193     		str	r3, [sp, #4]
 5956              		.loc 1 2498 0 is_stmt 1 discriminator 1
 5957 006e 3FE1     		b	.L409
 5958              	.L408:
 5959              		.loc 1 2498 0 is_stmt 0
 5960 0070 3EE1     		b	.L409
 5961              	.L429:
 5962              		.loc 1 2500 0 is_stmt 1
 5963 0072 039B     		ldr	r3, [sp, #12]
 5964 0074 9B68     		ldr	r3, [r3, #8]
 5965 0076 C3F30803 		ubfx	r3, r3, #0, #9
 5966 007a 002B     		cmp	r3, #0
 5967 007c 40F00381 		bne	.L410
 5968              		.loc 1 2501 0
 5969 0080 039B     		ldr	r3, [sp, #12]
 5970 0082 9B68     		ldr	r3, [r3, #8]
 5971 0084 5B0A     		lsrs	r3, r3, #9
 5972 0086 DAB2     		uxtb	r2, r3
 5973 0088 039B     		ldr	r3, [sp, #12]
 5974 008a 1B68     		ldr	r3, [r3]
 5975 008c 9B78     		ldrb	r3, [r3, #2]	@ zero_extendqisi2
 5976 008e 013B     		subs	r3, r3, #1
 5977 0090 DBB2     		uxtb	r3, r3
 5978 0092 1340     		ands	r3, r3, r2
 5979 0094 8DF81630 		strb	r3, [sp, #22]
 5980              		.loc 1 2502 0
 5981 0098 9DF81630 		ldrb	r3, [sp, #22]	@ zero_extendqisi2
 5982 009c 002B     		cmp	r3, #0
 5983 009e 3DD1     		bne	.L411
 5984              		.loc 1 2503 0
 5985 00a0 039B     		ldr	r3, [sp, #12]
 5986 00a2 9B68     		ldr	r3, [r3, #8]
 5987 00a4 002B     		cmp	r3, #0
 5988 00a6 10D1     		bne	.L412
 5989              		.loc 1 2504 0
 5990 00a8 039B     		ldr	r3, [sp, #12]
 5991 00aa 1B69     		ldr	r3, [r3, #16]
 5992 00ac 0993     		str	r3, [sp, #36]
 5993              		.loc 1 2505 0
 5994 00ae 099B     		ldr	r3, [sp, #36]
 5995 00b0 002B     		cmp	r3, #0
 5996 00b2 13D1     		bne	.L414
 5997              		.loc 1 2506 0
 5998 00b4 039B     		ldr	r3, [sp, #12]
 5999 00b6 1B68     		ldr	r3, [r3]
 6000 00b8 1846     		mov	r0, r3
 6001 00ba 0021     		movs	r1, #0
 6002 00bc FFF7FEFF 		bl	create_chain
 6003 00c0 0990     		str	r0, [sp, #36]
 6004 00c2 039B     		ldr	r3, [sp, #12]
 6005 00c4 099A     		ldr	r2, [sp, #36]
 6006 00c6 1A61     		str	r2, [r3, #16]
 6007 00c8 08E0     		b	.L414
ARM GAS  /tmp/ccIWRJEN.s 			page 107


 6008              	.L412:
 6009              		.loc 1 2513 0
 6010 00ca 039B     		ldr	r3, [sp, #12]
 6011 00cc 1A68     		ldr	r2, [r3]
 6012 00ce 039B     		ldr	r3, [sp, #12]
 6013 00d0 5B69     		ldr	r3, [r3, #20]
 6014 00d2 1046     		mov	r0, r2
 6015 00d4 1946     		mov	r1, r3
 6016 00d6 FFF7FEFF 		bl	create_chain
 6017 00da 0990     		str	r0, [sp, #36]
 6018              	.L414:
 6019              		.loc 1 2515 0
 6020 00dc 099B     		ldr	r3, [sp, #36]
 6021 00de 002B     		cmp	r3, #0
 6022 00e0 00D1     		bne	.L415
 6023              		.loc 1 2515 0 is_stmt 0 discriminator 1
 6024 00e2 09E1     		b	.L416
 6025              	.L415:
 6026              		.loc 1 2516 0 is_stmt 1
 6027 00e4 099B     		ldr	r3, [sp, #36]
 6028 00e6 012B     		cmp	r3, #1
 6029 00e8 08D1     		bne	.L417
 6030              		.loc 1 2516 0 is_stmt 0 discriminator 1
 6031 00ea 039B     		ldr	r3, [sp, #12]
 6032 00ec 9B79     		ldrb	r3, [r3, #6]	@ zero_extendqisi2
 6033 00ee 63F07F03 		orn	r3, r3, #127
 6034 00f2 DAB2     		uxtb	r2, r3
 6035 00f4 039B     		ldr	r3, [sp, #12]
 6036 00f6 9A71     		strb	r2, [r3, #6]
 6037 00f8 0223     		movs	r3, #2
 6038 00fa 0FE1     		b	.L405
 6039              	.L417:
 6040              		.loc 1 2517 0 is_stmt 1
 6041 00fc 099B     		ldr	r3, [sp, #36]
 6042 00fe B3F1FF3F 		cmp	r3, #-1
 6043 0102 08D1     		bne	.L418
 6044              		.loc 1 2517 0 is_stmt 0 discriminator 1
 6045 0104 039B     		ldr	r3, [sp, #12]
 6046 0106 9B79     		ldrb	r3, [r3, #6]	@ zero_extendqisi2
 6047 0108 63F07F03 		orn	r3, r3, #127
 6048 010c DAB2     		uxtb	r2, r3
 6049 010e 039B     		ldr	r3, [sp, #12]
 6050 0110 9A71     		strb	r2, [r3, #6]
 6051 0112 0123     		movs	r3, #1
 6052 0114 02E1     		b	.L405
 6053              	.L418:
 6054              		.loc 1 2518 0 is_stmt 1
 6055 0116 039B     		ldr	r3, [sp, #12]
 6056 0118 099A     		ldr	r2, [sp, #36]
 6057 011a 5A61     		str	r2, [r3, #20]
 6058              	.L411:
 6059              		.loc 1 2524 0
 6060 011c 039B     		ldr	r3, [sp, #12]
 6061 011e 9B79     		ldrb	r3, [r3, #6]	@ zero_extendqisi2
 6062 0120 03F04003 		and	r3, r3, #64
 6063 0124 002B     		cmp	r3, #0
 6064 0126 20D0     		beq	.L419
ARM GAS  /tmp/ccIWRJEN.s 			page 108


 6065              		.loc 1 2525 0
 6066 0128 039B     		ldr	r3, [sp, #12]
 6067 012a 1B68     		ldr	r3, [r3]
 6068 012c 5978     		ldrb	r1, [r3, #1]	@ zero_extendqisi2
 6069 012e 039B     		ldr	r3, [sp, #12]
 6070 0130 03F12402 		add	r2, r3, #36
 6071 0134 039B     		ldr	r3, [sp, #12]
 6072 0136 9B69     		ldr	r3, [r3, #24]
 6073 0138 0846     		mov	r0, r1
 6074 013a 1146     		mov	r1, r2
 6075 013c 1A46     		mov	r2, r3
 6076 013e 0123     		movs	r3, #1
 6077 0140 FFF7FEFF 		bl	disk_write
 6078 0144 0346     		mov	r3, r0
 6079 0146 002B     		cmp	r3, #0
 6080 0148 08D0     		beq	.L420
 6081              		.loc 1 2526 0
 6082 014a 039B     		ldr	r3, [sp, #12]
 6083 014c 9B79     		ldrb	r3, [r3, #6]	@ zero_extendqisi2
 6084 014e 63F07F03 		orn	r3, r3, #127
 6085 0152 DAB2     		uxtb	r2, r3
 6086 0154 039B     		ldr	r3, [sp, #12]
 6087 0156 9A71     		strb	r2, [r3, #6]
 6088 0158 0123     		movs	r3, #1
 6089 015a DFE0     		b	.L405
 6090              	.L420:
 6091              		.loc 1 2527 0
 6092 015c 039B     		ldr	r3, [sp, #12]
 6093 015e 9B79     		ldrb	r3, [r3, #6]	@ zero_extendqisi2
 6094 0160 23F04003 		bic	r3, r3, #64
 6095 0164 DAB2     		uxtb	r2, r3
 6096 0166 039B     		ldr	r3, [sp, #12]
 6097 0168 9A71     		strb	r2, [r3, #6]
 6098              	.L419:
 6099              		.loc 1 2530 0
 6100 016a 039B     		ldr	r3, [sp, #12]
 6101 016c 1A68     		ldr	r2, [r3]
 6102 016e 039B     		ldr	r3, [sp, #12]
 6103 0170 5B69     		ldr	r3, [r3, #20]
 6104 0172 1046     		mov	r0, r2
 6105 0174 1946     		mov	r1, r3
 6106 0176 FFF7FEFF 		bl	clust2sect
 6107 017a 0490     		str	r0, [sp, #16]
 6108              		.loc 1 2531 0
 6109 017c 049B     		ldr	r3, [sp, #16]
 6110 017e 002B     		cmp	r3, #0
 6111 0180 08D1     		bne	.L421
 6112              		.loc 1 2531 0 is_stmt 0 discriminator 1
 6113 0182 039B     		ldr	r3, [sp, #12]
 6114 0184 9B79     		ldrb	r3, [r3, #6]	@ zero_extendqisi2
 6115 0186 63F07F03 		orn	r3, r3, #127
 6116 018a DAB2     		uxtb	r2, r3
 6117 018c 039B     		ldr	r3, [sp, #12]
 6118 018e 9A71     		strb	r2, [r3, #6]
 6119 0190 0223     		movs	r3, #2
 6120 0192 C3E0     		b	.L405
 6121              	.L421:
ARM GAS  /tmp/ccIWRJEN.s 			page 109


 6122              		.loc 1 2532 0 is_stmt 1
 6123 0194 9DF81630 		ldrb	r3, [sp, #22]	@ zero_extendqisi2
 6124 0198 049A     		ldr	r2, [sp, #16]
 6125 019a 1344     		add	r3, r3, r2
 6126 019c 0493     		str	r3, [sp, #16]
 6127              		.loc 1 2533 0
 6128 019e 019B     		ldr	r3, [sp, #4]
 6129 01a0 5B0A     		lsrs	r3, r3, #9
 6130 01a2 0793     		str	r3, [sp, #28]
 6131              		.loc 1 2534 0
 6132 01a4 079B     		ldr	r3, [sp, #28]
 6133 01a6 002B     		cmp	r3, #0
 6134 01a8 48D0     		beq	.L422
 6135              		.loc 1 2535 0
 6136 01aa 9DF81620 		ldrb	r2, [sp, #22]	@ zero_extendqisi2
 6137 01ae 079B     		ldr	r3, [sp, #28]
 6138 01b0 1A44     		add	r2, r2, r3
 6139 01b2 039B     		ldr	r3, [sp, #12]
 6140 01b4 1B68     		ldr	r3, [r3]
 6141 01b6 9B78     		ldrb	r3, [r3, #2]	@ zero_extendqisi2
 6142 01b8 9A42     		cmp	r2, r3
 6143 01ba 07D9     		bls	.L423
 6144              		.loc 1 2536 0
 6145 01bc 039B     		ldr	r3, [sp, #12]
 6146 01be 1B68     		ldr	r3, [r3]
 6147 01c0 9B78     		ldrb	r3, [r3, #2]	@ zero_extendqisi2
 6148 01c2 1A46     		mov	r2, r3
 6149 01c4 9DF81630 		ldrb	r3, [sp, #22]	@ zero_extendqisi2
 6150 01c8 D31A     		subs	r3, r2, r3
 6151 01ca 0793     		str	r3, [sp, #28]
 6152              	.L423:
 6153              		.loc 1 2537 0
 6154 01cc 039B     		ldr	r3, [sp, #12]
 6155 01ce 1B68     		ldr	r3, [r3]
 6156 01d0 5A78     		ldrb	r2, [r3, #1]	@ zero_extendqisi2
 6157 01d2 079B     		ldr	r3, [sp, #28]
 6158 01d4 DBB2     		uxtb	r3, r3
 6159 01d6 1046     		mov	r0, r2
 6160 01d8 0699     		ldr	r1, [sp, #24]
 6161 01da 049A     		ldr	r2, [sp, #16]
 6162 01dc FFF7FEFF 		bl	disk_write
 6163 01e0 0346     		mov	r3, r0
 6164 01e2 002B     		cmp	r3, #0
 6165 01e4 08D0     		beq	.L424
 6166              		.loc 1 2538 0
 6167 01e6 039B     		ldr	r3, [sp, #12]
 6168 01e8 9B79     		ldrb	r3, [r3, #6]	@ zero_extendqisi2
 6169 01ea 63F07F03 		orn	r3, r3, #127
 6170 01ee DAB2     		uxtb	r2, r3
 6171 01f0 039B     		ldr	r3, [sp, #12]
 6172 01f2 9A71     		strb	r2, [r3, #6]
 6173 01f4 0123     		movs	r3, #1
 6174 01f6 91E0     		b	.L405
 6175              	.L424:
 6176              		.loc 1 2545 0
 6177 01f8 039B     		ldr	r3, [sp, #12]
 6178 01fa 9A69     		ldr	r2, [r3, #24]
ARM GAS  /tmp/ccIWRJEN.s 			page 110


 6179 01fc 049B     		ldr	r3, [sp, #16]
 6180 01fe D21A     		subs	r2, r2, r3
 6181 0200 079B     		ldr	r3, [sp, #28]
 6182 0202 9A42     		cmp	r2, r3
 6183 0204 16D2     		bcs	.L425
 6184              		.loc 1 2546 0
 6185 0206 039B     		ldr	r3, [sp, #12]
 6186 0208 03F12402 		add	r2, r3, #36
 6187 020c 039B     		ldr	r3, [sp, #12]
 6188 020e 9969     		ldr	r1, [r3, #24]
 6189 0210 049B     		ldr	r3, [sp, #16]
 6190 0212 CB1A     		subs	r3, r1, r3
 6191 0214 5B02     		lsls	r3, r3, #9
 6192 0216 0699     		ldr	r1, [sp, #24]
 6193 0218 0B44     		add	r3, r3, r1
 6194 021a 1046     		mov	r0, r2
 6195 021c 1946     		mov	r1, r3
 6196 021e 4FF40072 		mov	r2, #512
 6197 0222 FFF7FEFF 		bl	mem_cpy
 6198              		.loc 1 2547 0
 6199 0226 039B     		ldr	r3, [sp, #12]
 6200 0228 9B79     		ldrb	r3, [r3, #6]	@ zero_extendqisi2
 6201 022a 23F04003 		bic	r3, r3, #64
 6202 022e DAB2     		uxtb	r2, r3
 6203 0230 039B     		ldr	r3, [sp, #12]
 6204 0232 9A71     		strb	r2, [r3, #6]
 6205              	.L425:
 6206              		.loc 1 2550 0
 6207 0234 079B     		ldr	r3, [sp, #28]
 6208 0236 5B02     		lsls	r3, r3, #9
 6209 0238 0893     		str	r3, [sp, #32]
 6210              		.loc 1 2551 0
 6211 023a 45E0     		b	.L426
 6212              	.L422:
 6213              		.loc 1 2559 0
 6214 023c 039B     		ldr	r3, [sp, #12]
 6215 023e 9A69     		ldr	r2, [r3, #24]
 6216 0240 049B     		ldr	r3, [sp, #16]
 6217 0242 9A42     		cmp	r2, r3
 6218 0244 1CD0     		beq	.L427
 6219              		.loc 1 2560 0
 6220 0246 039B     		ldr	r3, [sp, #12]
 6221 0248 9A68     		ldr	r2, [r3, #8]
 6222 024a 039B     		ldr	r3, [sp, #12]
 6223 024c DB68     		ldr	r3, [r3, #12]
 6224 024e 9A42     		cmp	r2, r3
 6225 0250 16D2     		bcs	.L427
 6226              		.loc 1 2561 0 discriminator 1
 6227 0252 039B     		ldr	r3, [sp, #12]
 6228 0254 1B68     		ldr	r3, [r3]
 6229 0256 5A78     		ldrb	r2, [r3, #1]	@ zero_extendqisi2
 6230 0258 039B     		ldr	r3, [sp, #12]
 6231 025a 2433     		adds	r3, r3, #36
 6232 025c 1046     		mov	r0, r2
 6233 025e 1946     		mov	r1, r3
 6234 0260 049A     		ldr	r2, [sp, #16]
 6235 0262 0123     		movs	r3, #1
ARM GAS  /tmp/ccIWRJEN.s 			page 111


 6236 0264 FFF7FEFF 		bl	disk_read
 6237 0268 0346     		mov	r3, r0
 6238              		.loc 1 2560 0 discriminator 1
 6239 026a 002B     		cmp	r3, #0
 6240 026c 08D0     		beq	.L427
 6241              		.loc 1 2562 0
 6242 026e 039B     		ldr	r3, [sp, #12]
 6243 0270 9B79     		ldrb	r3, [r3, #6]	@ zero_extendqisi2
 6244 0272 63F07F03 		orn	r3, r3, #127
 6245 0276 DAB2     		uxtb	r2, r3
 6246 0278 039B     		ldr	r3, [sp, #12]
 6247 027a 9A71     		strb	r2, [r3, #6]
 6248 027c 0123     		movs	r3, #1
 6249 027e 4DE0     		b	.L405
 6250              	.L427:
 6251              		.loc 1 2565 0
 6252 0280 039B     		ldr	r3, [sp, #12]
 6253 0282 049A     		ldr	r2, [sp, #16]
 6254 0284 9A61     		str	r2, [r3, #24]
 6255              	.L410:
 6256              		.loc 1 2567 0
 6257 0286 039B     		ldr	r3, [sp, #12]
 6258 0288 9B68     		ldr	r3, [r3, #8]
 6259 028a C3F30803 		ubfx	r3, r3, #0, #9
 6260 028e C3F50073 		rsb	r3, r3, #512
 6261 0292 0893     		str	r3, [sp, #32]
 6262              		.loc 1 2568 0
 6263 0294 089A     		ldr	r2, [sp, #32]
 6264 0296 019B     		ldr	r3, [sp, #4]
 6265 0298 9A42     		cmp	r2, r3
 6266 029a 01D9     		bls	.L428
 6267              		.loc 1 2568 0 is_stmt 0 discriminator 1
 6268 029c 019B     		ldr	r3, [sp, #4]
 6269 029e 0893     		str	r3, [sp, #32]
 6270              	.L428:
 6271              		.loc 1 2575 0 is_stmt 1
 6272 02a0 039B     		ldr	r3, [sp, #12]
 6273 02a2 9B68     		ldr	r3, [r3, #8]
 6274 02a4 C3F30803 		ubfx	r3, r3, #0, #9
 6275 02a8 2033     		adds	r3, r3, #32
 6276 02aa 039A     		ldr	r2, [sp, #12]
 6277 02ac 1344     		add	r3, r3, r2
 6278 02ae 0433     		adds	r3, r3, #4
 6279 02b0 1846     		mov	r0, r3
 6280 02b2 0699     		ldr	r1, [sp, #24]
 6281 02b4 089A     		ldr	r2, [sp, #32]
 6282 02b6 FFF7FEFF 		bl	mem_cpy
 6283              		.loc 1 2576 0
 6284 02ba 039B     		ldr	r3, [sp, #12]
 6285 02bc 9B79     		ldrb	r3, [r3, #6]	@ zero_extendqisi2
 6286 02be 43F04003 		orr	r3, r3, #64
 6287 02c2 DAB2     		uxtb	r2, r3
 6288 02c4 039B     		ldr	r3, [sp, #12]
 6289 02c6 9A71     		strb	r2, [r3, #6]
 6290              	.L426:
 6291              		.loc 1 2499 0
 6292 02c8 069A     		ldr	r2, [sp, #24]
ARM GAS  /tmp/ccIWRJEN.s 			page 112


 6293 02ca 089B     		ldr	r3, [sp, #32]
 6294 02cc 1344     		add	r3, r3, r2
 6295 02ce 0693     		str	r3, [sp, #24]
 6296 02d0 039B     		ldr	r3, [sp, #12]
 6297 02d2 9A68     		ldr	r2, [r3, #8]
 6298 02d4 089B     		ldr	r3, [sp, #32]
 6299 02d6 1A44     		add	r2, r2, r3
 6300 02d8 039B     		ldr	r3, [sp, #12]
 6301 02da 9A60     		str	r2, [r3, #8]
 6302 02dc 009B     		ldr	r3, [sp]
 6303 02de 1A68     		ldr	r2, [r3]
 6304 02e0 089B     		ldr	r3, [sp, #32]
 6305 02e2 1A44     		add	r2, r2, r3
 6306 02e4 009B     		ldr	r3, [sp]
 6307 02e6 1A60     		str	r2, [r3]
 6308 02e8 019A     		ldr	r2, [sp, #4]
 6309 02ea 089B     		ldr	r3, [sp, #32]
 6310 02ec D31A     		subs	r3, r2, r3
 6311 02ee 0193     		str	r3, [sp, #4]
 6312              	.L409:
 6313              		.loc 1 2498 0 discriminator 1
 6314 02f0 019B     		ldr	r3, [sp, #4]
 6315 02f2 002B     		cmp	r3, #0
 6316 02f4 7FF4BDAE 		bne	.L429
 6317              	.L416:
 6318              		.loc 1 2580 0
 6319 02f8 039B     		ldr	r3, [sp, #12]
 6320 02fa 9A68     		ldr	r2, [r3, #8]
 6321 02fc 039B     		ldr	r3, [sp, #12]
 6322 02fe DB68     		ldr	r3, [r3, #12]
 6323 0300 9A42     		cmp	r2, r3
 6324 0302 03D9     		bls	.L430
 6325              		.loc 1 2580 0 is_stmt 0 discriminator 1
 6326 0304 039B     		ldr	r3, [sp, #12]
 6327 0306 9A68     		ldr	r2, [r3, #8]
 6328 0308 039B     		ldr	r3, [sp, #12]
 6329 030a DA60     		str	r2, [r3, #12]
 6330              	.L430:
 6331              		.loc 1 2581 0 is_stmt 1
 6332 030c 039B     		ldr	r3, [sp, #12]
 6333 030e 9B79     		ldrb	r3, [r3, #6]	@ zero_extendqisi2
 6334 0310 43F02003 		orr	r3, r3, #32
 6335 0314 DAB2     		uxtb	r2, r3
 6336 0316 039B     		ldr	r3, [sp, #12]
 6337 0318 9A71     		strb	r2, [r3, #6]
 6338              		.loc 1 2583 0
 6339 031a 0023     		movs	r3, #0
 6340              	.L405:
 6341              		.loc 1 2584 0
 6342 031c 1846     		mov	r0, r3
 6343 031e 0BB0     		add	sp, sp, #44
 6344              		@ sp needed
 6345 0320 5DF804FB 		ldr	pc, [sp], #4
 6346              		.cfi_endproc
 6347              	.LFE38:
 6348              		.size	f_write, .-f_write
 6349 0324 AFF30080 		.section	.text.f_sync,"ax",%progbits
ARM GAS  /tmp/ccIWRJEN.s 			page 113


 6349      AFF30080 
 6349      AFF30080 
 6350              		.align	2
 6351              		.p2align 4,,15
 6352              		.global	f_sync
 6353              		.thumb
 6354              		.thumb_func
 6355              		.type	f_sync, %function
 6356              	f_sync:
 6357              	.LFB39:
 6358              		.loc 1 2596 0
 6359              		.cfi_startproc
 6360              		@ args = 0, pretend = 0, frame = 24
 6361              		@ frame_needed = 0, uses_anonymous_args = 0
 6362 0000 00B5     		push	{lr}
 6363              		.cfi_def_cfa_offset 4
 6364              		.cfi_offset 14, -4
 6365 0002 87B0     		sub	sp, sp, #28
 6366              		.cfi_def_cfa_offset 32
 6367 0004 0190     		str	r0, [sp, #4]
 6368              		.loc 1 2602 0
 6369 0006 019B     		ldr	r3, [sp, #4]
 6370 0008 1A68     		ldr	r2, [r3]
 6371 000a 019B     		ldr	r3, [sp, #4]
 6372 000c 9B88     		ldrh	r3, [r3, #4]
 6373 000e 1046     		mov	r0, r2
 6374 0010 1946     		mov	r1, r3
 6375 0012 FFF7FEFF 		bl	validate
 6376 0016 0346     		mov	r3, r0
 6377 0018 8DF81730 		strb	r3, [sp, #23]
 6378              		.loc 1 2603 0
 6379 001c 9DF81730 		ldrb	r3, [sp, #23]	@ zero_extendqisi2
 6380 0020 002B     		cmp	r3, #0
 6381 0022 6CD1     		bne	.L432
 6382              		.loc 1 2604 0
 6383 0024 019B     		ldr	r3, [sp, #4]
 6384 0026 9B79     		ldrb	r3, [r3, #6]	@ zero_extendqisi2
 6385 0028 03F02003 		and	r3, r3, #32
 6386 002c 002B     		cmp	r3, #0
 6387 002e 66D0     		beq	.L432
 6388              		.loc 1 2606 0
 6389 0030 019B     		ldr	r3, [sp, #4]
 6390 0032 9B79     		ldrb	r3, [r3, #6]	@ zero_extendqisi2
 6391 0034 03F04003 		and	r3, r3, #64
 6392 0038 002B     		cmp	r3, #0
 6393 003a 19D0     		beq	.L433
 6394              		.loc 1 2607 0
 6395 003c 019B     		ldr	r3, [sp, #4]
 6396 003e 1B68     		ldr	r3, [r3]
 6397 0040 5978     		ldrb	r1, [r3, #1]	@ zero_extendqisi2
 6398 0042 019B     		ldr	r3, [sp, #4]
 6399 0044 03F12402 		add	r2, r3, #36
 6400 0048 019B     		ldr	r3, [sp, #4]
 6401 004a 9B69     		ldr	r3, [r3, #24]
 6402 004c 0846     		mov	r0, r1
 6403 004e 1146     		mov	r1, r2
 6404 0050 1A46     		mov	r2, r3
ARM GAS  /tmp/ccIWRJEN.s 			page 114


 6405 0052 0123     		movs	r3, #1
 6406 0054 FFF7FEFF 		bl	disk_write
 6407 0058 0346     		mov	r3, r0
 6408 005a 002B     		cmp	r3, #0
 6409 005c 01D0     		beq	.L434
 6410              		.loc 1 2608 0
 6411 005e 0123     		movs	r3, #1
 6412 0060 4FE0     		b	.L435
 6413              	.L434:
 6414              		.loc 1 2609 0
 6415 0062 019B     		ldr	r3, [sp, #4]
 6416 0064 9B79     		ldrb	r3, [r3, #6]	@ zero_extendqisi2
 6417 0066 23F04003 		bic	r3, r3, #64
 6418 006a DAB2     		uxtb	r2, r3
 6419 006c 019B     		ldr	r3, [sp, #4]
 6420 006e 9A71     		strb	r2, [r3, #6]
 6421              	.L433:
 6422              		.loc 1 2613 0
 6423 0070 019B     		ldr	r3, [sp, #4]
 6424 0072 1A68     		ldr	r2, [r3]
 6425 0074 019B     		ldr	r3, [sp, #4]
 6426 0076 DB69     		ldr	r3, [r3, #28]
 6427 0078 1046     		mov	r0, r2
 6428 007a 1946     		mov	r1, r3
 6429 007c FFF7FEFF 		bl	move_window
 6430 0080 0346     		mov	r3, r0
 6431 0082 8DF81730 		strb	r3, [sp, #23]
 6432              		.loc 1 2614 0
 6433 0086 9DF81730 		ldrb	r3, [sp, #23]	@ zero_extendqisi2
 6434 008a 002B     		cmp	r3, #0
 6435 008c 37D1     		bne	.L432
 6436              		.loc 1 2615 0
 6437 008e 019B     		ldr	r3, [sp, #4]
 6438 0090 1B6A     		ldr	r3, [r3, #32]
 6439 0092 0493     		str	r3, [sp, #16]
 6440              		.loc 1 2616 0
 6441 0094 049B     		ldr	r3, [sp, #16]
 6442 0096 0B33     		adds	r3, r3, #11
