ARM GAS  /tmp/ccIWRJEN.s 			page 1


   1              		.syntax unified
   2              		.cpu cortex-m4
   3              		.fpu softvfp
   4              		.eabi_attribute 20, 1
   5              		.eabi_attribute 21, 1
   6              		.eabi_attribute 23, 3
   7              		.eabi_attribute 24, 1
   8              		.eabi_attribute 25, 1
   9              		.eabi_attribute 26, 1
  10              		.eabi_attribute 30, 6
  11              		.eabi_attribute 34, 1
  12              		.eabi_attribute 18, 4
  13              		.thumb
  14              		.file	"ff.c"
  15              		.text
  16              	.Ltext0:
  17              		.cfi_sections	.debug_frame
  18              		.section	.bss.FatFs,"aw",%nobits
  19              		.align	2
  20              		.type	FatFs, %object
  21              		.size	FatFs, 4
  22              	FatFs:
  23 0000 00000000 		.space	4
  24              		.section	.bss.Fsid,"aw",%nobits
  25              		.align	1
  26              		.type	Fsid, %object
  27              		.size	Fsid, 2
  28              	Fsid:
  29 0000 0000     		.space	2
  30              		.section	.text.mem_cpy,"ax",%progbits
  31              		.align	2
  32              		.p2align 4,,15
  33              		.thumb
  34              		.thumb_func
  35              		.type	mem_cpy, %function
  36              	mem_cpy:
  37              	.LFB7:
  38              		.file 1 "../..//ext/fatfs/src/ff.c"
  39              		.loc 1 529 0
  40              		.cfi_startproc
  41              		@ args = 0, pretend = 0, frame = 24
  42              		@ frame_needed = 0, uses_anonymous_args = 0
  43              		@ link register save eliminated.
  44 0000 86B0     		sub	sp, sp, #24
  45              		.cfi_def_cfa_offset 24
  46 0002 0390     		str	r0, [sp, #12]
  47 0004 0291     		str	r1, [sp, #8]
  48 0006 0192     		str	r2, [sp, #4]
  49              		.loc 1 530 0
  50 0008 039B     		ldr	r3, [sp, #12]
  51 000a 0593     		str	r3, [sp, #20]
  52              		.loc 1 531 0
  53 000c 029B     		ldr	r3, [sp, #8]
  54 000e 0493     		str	r3, [sp, #16]
  55              		.loc 1 534 0
  56 0010 0CE0     		b	.L2
  57              	.L3:
ARM GAS  /tmp/ccIWRJEN.s 			page 2


  58              		.loc 1 535 0
  59 0012 049B     		ldr	r3, [sp, #16]
  60 0014 1A68     		ldr	r2, [r3]
  61 0016 059B     		ldr	r3, [sp, #20]
  62 0018 1A60     		str	r2, [r3]
  63              		.loc 1 536 0
  64 001a 059B     		ldr	r3, [sp, #20]
  65 001c 0433     		adds	r3, r3, #4
  66 001e 0593     		str	r3, [sp, #20]
  67 0020 049B     		ldr	r3, [sp, #16]
  68 0022 0433     		adds	r3, r3, #4
  69 0024 0493     		str	r3, [sp, #16]
  70              		.loc 1 537 0
  71 0026 019B     		ldr	r3, [sp, #4]
  72 0028 043B     		subs	r3, r3, #4
  73 002a 0193     		str	r3, [sp, #4]
  74              	.L2:
  75              		.loc 1 534 0 discriminator 1
  76 002c 019B     		ldr	r3, [sp, #4]
  77 002e 032B     		cmp	r3, #3
  78 0030 EFD8     		bhi	.L3
  79              		.loc 1 540 0
  80 0032 07E0     		b	.L4
  81              	.L5:
  82              		.loc 1 541 0
  83 0034 059B     		ldr	r3, [sp, #20]
  84 0036 5A1C     		adds	r2, r3, #1
  85 0038 0592     		str	r2, [sp, #20]
  86 003a 049A     		ldr	r2, [sp, #16]
  87 003c 511C     		adds	r1, r2, #1
  88 003e 0491     		str	r1, [sp, #16]
  89 0040 1278     		ldrb	r2, [r2]	@ zero_extendqisi2
  90 0042 1A70     		strb	r2, [r3]
  91              	.L4:
  92              		.loc 1 540 0 discriminator 1
  93 0044 019B     		ldr	r3, [sp, #4]
  94 0046 5A1E     		subs	r2, r3, #1
  95 0048 0192     		str	r2, [sp, #4]
  96 004a 002B     		cmp	r3, #0
  97 004c F2D1     		bne	.L5
  98              		.loc 1 542 0
  99 004e 06B0     		add	sp, sp, #24
 100              		@ sp needed
 101 0050 7047     		bx	lr
 102              		.cfi_endproc
 103              	.LFE7:
 104              		.size	mem_cpy, .-mem_cpy
 105 0052 00BFAFF3 		.section	.text.mem_set,"ax",%progbits
 105      0080AFF3 
 105      0080AFF3 
 105      0080
 106              		.align	2
 107              		.p2align 4,,15
 108              		.thumb
 109              		.thumb_func
 110              		.type	mem_set, %function
 111              	mem_set:
ARM GAS  /tmp/ccIWRJEN.s 			page 3


 112              	.LFB8:
 113              		.loc 1 546 0
 114              		.cfi_startproc
 115              		@ args = 0, pretend = 0, frame = 24
 116              		@ frame_needed = 0, uses_anonymous_args = 0
 117              		@ link register save eliminated.
 118 0000 86B0     		sub	sp, sp, #24
 119              		.cfi_def_cfa_offset 24
 120 0002 0390     		str	r0, [sp, #12]
 121 0004 0291     		str	r1, [sp, #8]
 122 0006 0192     		str	r2, [sp, #4]
 123              		.loc 1 547 0
 124 0008 039B     		ldr	r3, [sp, #12]
 125 000a 0593     		str	r3, [sp, #20]
 126              		.loc 1 549 0
 127 000c 05E0     		b	.L7
 128              	.L8:
 129              		.loc 1 550 0
 130 000e 059B     		ldr	r3, [sp, #20]
 131 0010 5A1C     		adds	r2, r3, #1
 132 0012 0592     		str	r2, [sp, #20]
 133 0014 029A     		ldr	r2, [sp, #8]
 134 0016 D2B2     		uxtb	r2, r2
 135 0018 1A70     		strb	r2, [r3]
 136              	.L7:
 137              		.loc 1 549 0 discriminator 1
 138 001a 019B     		ldr	r3, [sp, #4]
 139 001c 5A1E     		subs	r2, r3, #1
 140 001e 0192     		str	r2, [sp, #4]
 141 0020 002B     		cmp	r3, #0
 142 0022 F4D1     		bne	.L8
 143              		.loc 1 551 0
 144 0024 06B0     		add	sp, sp, #24
 145              		@ sp needed
 146 0026 7047     		bx	lr
 147              		.cfi_endproc
 148              	.LFE8:
 149              		.size	mem_set, .-mem_set
 150              		.section	.text.mem_cmp,"ax",%progbits
 151              		.align	2
 152              		.p2align 4,,15
 153              		.thumb
 154              		.thumb_func
 155              		.type	mem_cmp, %function
 156              	mem_cmp:
 157              	.LFB9:
 158              		.loc 1 555 0
 159              		.cfi_startproc
 160              		@ args = 0, pretend = 0, frame = 32
 161              		@ frame_needed = 0, uses_anonymous_args = 0
 162              		@ link register save eliminated.
 163 0000 88B0     		sub	sp, sp, #32
 164              		.cfi_def_cfa_offset 32
 165 0002 0390     		str	r0, [sp, #12]
 166 0004 0291     		str	r1, [sp, #8]
 167 0006 0192     		str	r2, [sp, #4]
 168              		.loc 1 556 0
ARM GAS  /tmp/ccIWRJEN.s 			page 4


 169 0008 039B     		ldr	r3, [sp, #12]
 170 000a 0793     		str	r3, [sp, #28]
 171 000c 029B     		ldr	r3, [sp, #8]
 172 000e 0693     		str	r3, [sp, #24]
 173              		.loc 1 557 0
 174 0010 0023     		movs	r3, #0
 175 0012 0593     		str	r3, [sp, #20]
 176              		.loc 1 559 0
 177 0014 00BF     		nop
 178              	.L11:
 179              		.loc 1 559 0 is_stmt 0 discriminator 1
 180 0016 019B     		ldr	r3, [sp, #4]
 181 0018 5A1E     		subs	r2, r3, #1
 182 001a 0192     		str	r2, [sp, #4]
 183 001c 002B     		cmp	r3, #0
 184 001e 0DD0     		beq	.L10
 185              		.loc 1 559 0 discriminator 2
 186 0020 079B     		ldr	r3, [sp, #28]
 187 0022 5A1C     		adds	r2, r3, #1
 188 0024 0792     		str	r2, [sp, #28]
 189 0026 1B78     		ldrb	r3, [r3]	@ zero_extendqisi2
 190 0028 1A46     		mov	r2, r3
 191 002a 069B     		ldr	r3, [sp, #24]
 192 002c 591C     		adds	r1, r3, #1
 193 002e 0691     		str	r1, [sp, #24]
 194 0030 1B78     		ldrb	r3, [r3]	@ zero_extendqisi2
 195 0032 D31A     		subs	r3, r2, r3
 196 0034 0593     		str	r3, [sp, #20]
 197 0036 059B     		ldr	r3, [sp, #20]
 198 0038 002B     		cmp	r3, #0
 199 003a ECD0     		beq	.L11
 200              	.L10:
 201              		.loc 1 560 0 is_stmt 1
 202 003c 059B     		ldr	r3, [sp, #20]
 203              		.loc 1 561 0
 204 003e 1846     		mov	r0, r3
 205 0040 08B0     		add	sp, sp, #32
 206              		@ sp needed
 207 0042 7047     		bx	lr
 208              		.cfi_endproc
 209              	.LFE9:
 210              		.size	mem_cmp, .-mem_cmp
 211 0044 AFF30080 		.section	.text.chk_chr,"ax",%progbits
 211      AFF30080 
 211      AFF30080 
 212              		.align	2
 213              		.p2align 4,,15
 214              		.thumb
 215              		.thumb_func
 216              		.type	chk_chr, %function
 217              	chk_chr:
 218              	.LFB10:
 219              		.loc 1 565 0
 220              		.cfi_startproc
 221              		@ args = 0, pretend = 0, frame = 8
 222              		@ frame_needed = 0, uses_anonymous_args = 0
 223              		@ link register save eliminated.
ARM GAS  /tmp/ccIWRJEN.s 			page 5


 224 0000 82B0     		sub	sp, sp, #8
 225              		.cfi_def_cfa_offset 8
 226 0002 0190     		str	r0, [sp, #4]
 227 0004 0091     		str	r1, [sp]
 228              		.loc 1 566 0
 229 0006 02E0     		b	.L14
 230              	.L16:
 231              		.loc 1 566 0 is_stmt 0 discriminator 1
 232 0008 019B     		ldr	r3, [sp, #4]
 233 000a 0133     		adds	r3, r3, #1
 234 000c 0193     		str	r3, [sp, #4]
 235              	.L14:
 236 000e 019B     		ldr	r3, [sp, #4]
 237 0010 1B78     		ldrb	r3, [r3]	@ zero_extendqisi2
 238 0012 002B     		cmp	r3, #0
 239 0014 05D0     		beq	.L15
 240              		.loc 1 566 0 discriminator 2
 241 0016 019B     		ldr	r3, [sp, #4]
 242 0018 1B78     		ldrb	r3, [r3]	@ zero_extendqisi2
 243 001a 1A46     		mov	r2, r3
 244 001c 009B     		ldr	r3, [sp]
 245 001e 9A42     		cmp	r2, r3
 246 0020 F2D1     		bne	.L16
 247              	.L15:
 248              		.loc 1 567 0 is_stmt 1
 249 0022 019B     		ldr	r3, [sp, #4]
 250 0024 1B78     		ldrb	r3, [r3]	@ zero_extendqisi2
 251              		.loc 1 568 0
 252 0026 1846     		mov	r0, r3
 253 0028 02B0     		add	sp, sp, #8
 254              		@ sp needed
 255 002a 7047     		bx	lr
 256              		.cfi_endproc
 257              	.LFE10:
 258              		.size	chk_chr, .-chk_chr
 259 002c AFF30080 		.section	.text.move_window,"ax",%progbits
 260              		.align	2
 261              		.p2align 4,,15
 262              		.thumb
 263              		.thumb_func
 264              		.type	move_window, %function
 265              	move_window:
 266              	.LFB11:
 267              		.loc 1 723 0
 268              		.cfi_startproc
 269              		@ args = 0, pretend = 0, frame = 16
 270              		@ frame_needed = 0, uses_anonymous_args = 0
 271 0000 00B5     		push	{lr}
 272              		.cfi_def_cfa_offset 4
 273              		.cfi_offset 14, -4
 274 0002 85B0     		sub	sp, sp, #20
 275              		.cfi_def_cfa_offset 24
 276 0004 0190     		str	r0, [sp, #4]
 277 0006 0091     		str	r1, [sp]
 278              		.loc 1 727 0
 279 0008 019B     		ldr	r3, [sp, #4]
 280 000a DB6A     		ldr	r3, [r3, #44]
ARM GAS  /tmp/ccIWRJEN.s 			page 6


 281 000c 0393     		str	r3, [sp, #12]
 282              		.loc 1 728 0
 283 000e 039A     		ldr	r2, [sp, #12]
 284 0010 009B     		ldr	r3, [sp]
 285 0012 9A42     		cmp	r2, r3
 286 0014 4FD0     		beq	.L19
 287              		.loc 1 730 0
 288 0016 019B     		ldr	r3, [sp, #4]
 289 0018 1B79     		ldrb	r3, [r3, #4]	@ zero_extendqisi2
 290 001a 002B     		cmp	r3, #0
 291 001c 36D0     		beq	.L20
 292              		.loc 1 731 0
 293 001e 019B     		ldr	r3, [sp, #4]
 294 0020 5A78     		ldrb	r2, [r3, #1]	@ zero_extendqisi2
 295 0022 019B     		ldr	r3, [sp, #4]
 296 0024 3033     		adds	r3, r3, #48
 297 0026 1046     		mov	r0, r2
 298 0028 1946     		mov	r1, r3
 299 002a 039A     		ldr	r2, [sp, #12]
 300 002c 0123     		movs	r3, #1
 301 002e FFF7FEFF 		bl	disk_write
 302 0032 0346     		mov	r3, r0
 303 0034 002B     		cmp	r3, #0
 304 0036 01D0     		beq	.L21
 305              		.loc 1 732 0
 306 0038 0123     		movs	r3, #1
 307 003a 3DE0     		b	.L22
 308              	.L21:
 309              		.loc 1 733 0
 310 003c 019B     		ldr	r3, [sp, #4]
 311 003e 0022     		movs	r2, #0
 312 0040 1A71     		strb	r2, [r3, #4]
 313              		.loc 1 734 0
 314 0042 019B     		ldr	r3, [sp, #4]
 315 0044 1A6A     		ldr	r2, [r3, #32]
 316 0046 019B     		ldr	r3, [sp, #4]
 317 0048 DB69     		ldr	r3, [r3, #28]
 318 004a 1A44     		add	r2, r2, r3
 319 004c 039B     		ldr	r3, [sp, #12]
 320 004e 9A42     		cmp	r2, r3
 321 0050 1CD9     		bls	.L20
 322              	.LBB2:
 323              		.loc 1 736 0
 324 0052 019B     		ldr	r3, [sp, #4]
 325 0054 DB78     		ldrb	r3, [r3, #3]
 326 0056 8DF80B30 		strb	r3, [sp, #11]
 327 005a 13E0     		b	.L23
 328              	.L24:
 329              		.loc 1 737 0 discriminator 2
 330 005c 019B     		ldr	r3, [sp, #4]
 331 005e DB69     		ldr	r3, [r3, #28]
 332 0060 039A     		ldr	r2, [sp, #12]
 333 0062 1344     		add	r3, r3, r2
 334 0064 0393     		str	r3, [sp, #12]
 335              		.loc 1 738 0 discriminator 2
 336 0066 019B     		ldr	r3, [sp, #4]
 337 0068 5A78     		ldrb	r2, [r3, #1]	@ zero_extendqisi2
ARM GAS  /tmp/ccIWRJEN.s 			page 7


 338 006a 019B     		ldr	r3, [sp, #4]
 339 006c 3033     		adds	r3, r3, #48
 340 006e 1046     		mov	r0, r2
 341 0070 1946     		mov	r1, r3
 342 0072 039A     		ldr	r2, [sp, #12]
 343 0074 0123     		movs	r3, #1
 344 0076 FFF7FEFF 		bl	disk_write
 345              		.loc 1 736 0 discriminator 2
 346 007a 9DF80B30 		ldrb	r3, [sp, #11]	@ zero_extendqisi2
 347 007e 013B     		subs	r3, r3, #1
 348 0080 8DF80B30 		strb	r3, [sp, #11]
 349              	.L23:
 350              		.loc 1 736 0 is_stmt 0 discriminator 1
 351 0084 9DF80B30 		ldrb	r3, [sp, #11]	@ zero_extendqisi2
 352 0088 012B     		cmp	r3, #1
 353 008a E7D8     		bhi	.L24
 354              	.L20:
 355              	.LBE2:
 356              		.loc 1 743 0 is_stmt 1
 357 008c 009B     		ldr	r3, [sp]
 358 008e 002B     		cmp	r3, #0
 359 0090 11D0     		beq	.L19
 360              		.loc 1 744 0
 361 0092 019B     		ldr	r3, [sp, #4]
 362 0094 5A78     		ldrb	r2, [r3, #1]	@ zero_extendqisi2
 363 0096 019B     		ldr	r3, [sp, #4]
 364 0098 3033     		adds	r3, r3, #48
 365 009a 1046     		mov	r0, r2
 366 009c 1946     		mov	r1, r3
 367 009e 009A     		ldr	r2, [sp]
 368 00a0 0123     		movs	r3, #1
 369 00a2 FFF7FEFF 		bl	disk_read
 370 00a6 0346     		mov	r3, r0
 371 00a8 002B     		cmp	r3, #0
 372 00aa 01D0     		beq	.L25
 373              		.loc 1 745 0
 374 00ac 0123     		movs	r3, #1
 375 00ae 03E0     		b	.L22
 376              	.L25:
 377              		.loc 1 746 0
 378 00b0 019B     		ldr	r3, [sp, #4]
 379 00b2 009A     		ldr	r2, [sp]
 380 00b4 DA62     		str	r2, [r3, #44]
 381              	.L19:
 382              		.loc 1 750 0
 383 00b6 0023     		movs	r3, #0
 384              	.L22:
 385              		.loc 1 751 0
 386 00b8 1846     		mov	r0, r3
 387 00ba 05B0     		add	sp, sp, #20
 388              		@ sp needed
 389 00bc 5DF804FB 		ldr	pc, [sp], #4
 390              		.cfi_endproc
 391              	.LFE11:
 392              		.size	move_window, .-move_window
 393              		.section	.text.sync,"ax",%progbits
 394              		.align	2
ARM GAS  /tmp/ccIWRJEN.s 			page 8


 395              		.p2align 4,,15
 396              		.thumb
 397              		.thumb_func
 398              		.type	sync, %function
 399              	sync:
 400              	.LFB12:
 401              		.loc 1 764 0
 402              		.cfi_startproc
 403              		@ args = 0, pretend = 0, frame = 16
 404              		@ frame_needed = 0, uses_anonymous_args = 0
 405 0000 00B5     		push	{lr}
 406              		.cfi_def_cfa_offset 4
 407              		.cfi_offset 14, -4
 408 0002 85B0     		sub	sp, sp, #20
 409              		.cfi_def_cfa_offset 24
 410 0004 0190     		str	r0, [sp, #4]
 411              		.loc 1 768 0
 412 0006 0198     		ldr	r0, [sp, #4]
 413 0008 0021     		movs	r1, #0
 414 000a FFF7FEFF 		bl	move_window
 415 000e 0346     		mov	r3, r0
 416 0010 8DF80F30 		strb	r3, [sp, #15]
 417              		.loc 1 769 0
 418 0014 9DF80F30 		ldrb	r3, [sp, #15]	@ zero_extendqisi2
 419 0018 002B     		cmp	r3, #0
 420 001a 51D1     		bne	.L27
 421              		.loc 1 771 0
 422 001c 019B     		ldr	r3, [sp, #4]
 423 001e 1B78     		ldrb	r3, [r3]	@ zero_extendqisi2
 424 0020 032B     		cmp	r3, #3
 425 0022 40D1     		bne	.L28
 426              		.loc 1 771 0 is_stmt 0 discriminator 1
 427 0024 019B     		ldr	r3, [sp, #4]
 428 0026 5B79     		ldrb	r3, [r3, #5]	@ zero_extendqisi2
 429 0028 002B     		cmp	r3, #0
 430 002a 3CD0     		beq	.L28
 431              		.loc 1 772 0 is_stmt 1
 432 002c 019B     		ldr	r3, [sp, #4]
 433 002e 0022     		movs	r2, #0
 434 0030 DA62     		str	r2, [r3, #44]
 435              		.loc 1 774 0
 436 0032 019B     		ldr	r3, [sp, #4]
 437 0034 3033     		adds	r3, r3, #48
 438 0036 1846     		mov	r0, r3
 439 0038 0021     		movs	r1, #0
 440 003a 4FF40072 		mov	r2, #512
 441 003e FFF7FEFF 		bl	mem_set
 442              		.loc 1 775 0
 443 0042 019B     		ldr	r3, [sp, #4]
 444 0044 03F22E23 		addw	r3, r3, #558
 445 0048 4AF65522 		movw	r2, #43605
 446 004c 1A80     		strh	r2, [r3]	@ movhi
 447              		.loc 1 776 0
 448 004e 019B     		ldr	r3, [sp, #4]
 449 0050 03F13002 		add	r2, r3, #48
 450 0054 45F25223 		movw	r3, #21074
 451 0058 C4F26113 		movt	r3, 16737
ARM GAS  /tmp/ccIWRJEN.s 			page 9


 452 005c 1360     		str	r3, [r2]
 453              		.loc 1 777 0
 454 005e 019B     		ldr	r3, [sp, #4]
 455 0060 03F50572 		add	r2, r3, #532
 456 0064 47F27223 		movw	r3, #29298
 457 0068 C6F24113 		movt	r3, 24897
 458 006c 1360     		str	r3, [r2]
 459              		.loc 1 778 0
 460 006e 019B     		ldr	r3, [sp, #4]
 461 0070 03F50673 		add	r3, r3, #536
 462 0074 019A     		ldr	r2, [sp, #4]
 463 0076 1269     		ldr	r2, [r2, #16]
 464 0078 1A60     		str	r2, [r3]
 465              		.loc 1 779 0
 466 007a 019B     		ldr	r3, [sp, #4]
 467 007c 03F50773 		add	r3, r3, #540
 468 0080 019A     		ldr	r2, [sp, #4]
 469 0082 D268     		ldr	r2, [r2, #12]
 470 0084 1A60     		str	r2, [r3]
 471              		.loc 1 781 0
 472 0086 019B     		ldr	r3, [sp, #4]
 473 0088 5978     		ldrb	r1, [r3, #1]	@ zero_extendqisi2
 474 008a 019B     		ldr	r3, [sp, #4]
 475 008c 03F13002 		add	r2, r3, #48
 476 0090 019B     		ldr	r3, [sp, #4]
 477 0092 5B69     		ldr	r3, [r3, #20]
 478 0094 0846     		mov	r0, r1
 479 0096 1146     		mov	r1, r2
 480 0098 1A46     		mov	r2, r3
 481 009a 0123     		movs	r3, #1
 482 009c FFF7FEFF 		bl	disk_write
 483              		.loc 1 782 0
 484 00a0 019B     		ldr	r3, [sp, #4]
 485 00a2 0022     		movs	r2, #0
 486 00a4 5A71     		strb	r2, [r3, #5]
 487              	.L28:
 488              		.loc 1 785 0
 489 00a6 019B     		ldr	r3, [sp, #4]
 490 00a8 5B78     		ldrb	r3, [r3, #1]	@ zero_extendqisi2
 491 00aa 1846     		mov	r0, r3
 492 00ac 0021     		movs	r1, #0
 493 00ae 0022     		movs	r2, #0
 494 00b0 FFF7FEFF 		bl	disk_ioctl
 495 00b4 0346     		mov	r3, r0
 496 00b6 002B     		cmp	r3, #0
 497 00b8 02D0     		beq	.L27
 498              		.loc 1 786 0
 499 00ba 0123     		movs	r3, #1
 500 00bc 8DF80F30 		strb	r3, [sp, #15]
 501              	.L27:
 502              		.loc 1 789 0
 503 00c0 9DF80F30 		ldrb	r3, [sp, #15]	@ zero_extendqisi2
 504              		.loc 1 790 0
 505 00c4 1846     		mov	r0, r3
 506 00c6 05B0     		add	sp, sp, #20
 507              		@ sp needed
 508 00c8 5DF804FB 		ldr	pc, [sp], #4
ARM GAS  /tmp/ccIWRJEN.s 			page 10


 509              		.cfi_endproc
 510              	.LFE12:
 511              		.size	sync, .-sync
 512 00cc AFF30080 		.section	.text.clust2sect,"ax",%progbits
 513              		.align	2
 514              		.p2align 4,,15
 515              		.global	clust2sect
 516              		.thumb
 517              		.thumb_func
 518              		.type	clust2sect, %function
 519              	clust2sect:
 520              	.LFB13:
 521              		.loc 1 805 0
 522              		.cfi_startproc
 523              		@ args = 0, pretend = 0, frame = 8
 524              		@ frame_needed = 0, uses_anonymous_args = 0
 525              		@ link register save eliminated.
 526 0000 82B0     		sub	sp, sp, #8
 527              		.cfi_def_cfa_offset 8
 528 0002 0190     		str	r0, [sp, #4]
 529 0004 0091     		str	r1, [sp]
 530              		.loc 1 806 0
 531 0006 009B     		ldr	r3, [sp]
 532 0008 023B     		subs	r3, r3, #2
 533 000a 0093     		str	r3, [sp]
 534              		.loc 1 807 0
 535 000c 019B     		ldr	r3, [sp, #4]
 536 000e 9B69     		ldr	r3, [r3, #24]
 537 0010 9A1E     		subs	r2, r3, #2
 538 0012 009B     		ldr	r3, [sp]
 539 0014 9A42     		cmp	r2, r3
 540 0016 01D8     		bhi	.L31
 541              		.loc 1 807 0 is_stmt 0 discriminator 1
 542 0018 0023     		movs	r3, #0
 543 001a 07E0     		b	.L32
 544              	.L31:
 545              		.loc 1 808 0 is_stmt 1
 546 001c 019B     		ldr	r3, [sp, #4]
 547 001e 9B78     		ldrb	r3, [r3, #2]	@ zero_extendqisi2
 548 0020 009A     		ldr	r2, [sp]
 549 0022 02FB03F2 		mul	r2, r2, r3
 550 0026 019B     		ldr	r3, [sp, #4]
 551 0028 9B6A     		ldr	r3, [r3, #40]
 552 002a 1344     		add	r3, r3, r2
 553              	.L32:
 554              		.loc 1 809 0
 555 002c 1846     		mov	r0, r3
 556 002e 02B0     		add	sp, sp, #8
 557              		@ sp needed
 558 0030 7047     		bx	lr
 559              		.cfi_endproc
 560              	.LFE13:
 561              		.size	clust2sect, .-clust2sect
 562 0032 00BFAFF3 		.section	.text.get_fat,"ax",%progbits
 562      0080AFF3 
 562      0080AFF3 
 562      0080
ARM GAS  /tmp/ccIWRJEN.s 			page 11


 563              		.align	2
 564              		.p2align 4,,15
 565              		.global	get_fat
 566              		.thumb
 567              		.thumb_func
 568              		.type	get_fat, %function
 569              	get_fat:
 570              	.LFB14:
 571              		.loc 1 823 0
 572              		.cfi_startproc
 573              		@ args = 0, pretend = 0, frame = 24
 574              		@ frame_needed = 0, uses_anonymous_args = 0
 575 0000 00B5     		push	{lr}
 576              		.cfi_def_cfa_offset 4
 577              		.cfi_offset 14, -4
 578 0002 87B0     		sub	sp, sp, #28
 579              		.cfi_def_cfa_offset 32
 580 0004 0190     		str	r0, [sp, #4]
 581 0006 0091     		str	r1, [sp]
 582              		.loc 1 828 0
 583 0008 009B     		ldr	r3, [sp]
 584 000a 012B     		cmp	r3, #1
 585 000c 04D9     		bls	.L34
 586              		.loc 1 828 0 is_stmt 0 discriminator 1
 587 000e 019B     		ldr	r3, [sp, #4]
 588 0010 9A69     		ldr	r2, [r3, #24]
 589 0012 009B     		ldr	r3, [sp]
 590 0014 9A42     		cmp	r2, r3
 591 0016 01D8     		bhi	.L35
 592              	.L34:
 593              		.loc 1 829 0 is_stmt 1
 594 0018 0123     		movs	r3, #1
 595 001a 7EE0     		b	.L36
 596              	.L35:
 597              		.loc 1 831 0
 598 001c 019B     		ldr	r3, [sp, #4]
 599 001e 1B78     		ldrb	r3, [r3]	@ zero_extendqisi2
 600 0020 022B     		cmp	r3, #2
 601 0022 46D0     		beq	.L38
 602 0024 032B     		cmp	r3, #3
 603 0026 5CD0     		beq	.L39
 604 0028 012B     		cmp	r3, #1
 605 002a 74D1     		bne	.L37
 606              		.loc 1 833 0
 607 002c 009B     		ldr	r3, [sp]
 608 002e 0593     		str	r3, [sp, #20]
 609 0030 059B     		ldr	r3, [sp, #20]
 610 0032 5B08     		lsrs	r3, r3, #1
 611 0034 059A     		ldr	r2, [sp, #20]
 612 0036 1344     		add	r3, r3, r2
 613 0038 0593     		str	r3, [sp, #20]
 614              		.loc 1 834 0
 615 003a 019B     		ldr	r3, [sp, #4]
 616 003c 1A6A     		ldr	r2, [r3, #32]
 617 003e 059B     		ldr	r3, [sp, #20]
 618 0040 5B0A     		lsrs	r3, r3, #9
 619 0042 1344     		add	r3, r3, r2
ARM GAS  /tmp/ccIWRJEN.s 			page 12


 620 0044 0198     		ldr	r0, [sp, #4]
 621 0046 1946     		mov	r1, r3
 622 0048 FFF7FEFF 		bl	move_window
 623 004c 0346     		mov	r3, r0
 624 004e 002B     		cmp	r3, #0
 625 0050 00D0     		beq	.L41
 626              		.loc 1 834 0 is_stmt 0 discriminator 1
 627 0052 60E0     		b	.L37
 628              	.L41:
 629              		.loc 1 835 0 is_stmt 1
 630 0054 059B     		ldr	r3, [sp, #20]
 631 0056 C3F30803 		ubfx	r3, r3, #0, #9
 632 005a 019A     		ldr	r2, [sp, #4]
 633 005c 1344     		add	r3, r3, r2
 634 005e 93F83030 		ldrb	r3, [r3, #48]	@ zero_extendqisi2
 635 0062 0493     		str	r3, [sp, #16]
 636 0064 059B     		ldr	r3, [sp, #20]
 637 0066 0133     		adds	r3, r3, #1
 638 0068 0593     		str	r3, [sp, #20]
 639              		.loc 1 836 0
 640 006a 019B     		ldr	r3, [sp, #4]
 641 006c 1A6A     		ldr	r2, [r3, #32]
 642 006e 059B     		ldr	r3, [sp, #20]
 643 0070 5B0A     		lsrs	r3, r3, #9
 644 0072 1344     		add	r3, r3, r2
 645 0074 0198     		ldr	r0, [sp, #4]
 646 0076 1946     		mov	r1, r3
 647 0078 FFF7FEFF 		bl	move_window
 648 007c 0346     		mov	r3, r0
 649 007e 002B     		cmp	r3, #0
 650 0080 00D0     		beq	.L42
 651              		.loc 1 836 0 is_stmt 0 discriminator 1
 652 0082 48E0     		b	.L37
 653              	.L42:
 654              		.loc 1 837 0 is_stmt 1
 655 0084 059B     		ldr	r3, [sp, #20]
 656 0086 C3F30803 		ubfx	r3, r3, #0, #9
 657 008a 019A     		ldr	r2, [sp, #4]
 658 008c 1344     		add	r3, r3, r2
 659 008e 93F83030 		ldrb	r3, [r3, #48]	@ zero_extendqisi2
 660 0092 1B02     		lsls	r3, r3, #8
 661 0094 049A     		ldr	r2, [sp, #16]
 662 0096 1343     		orrs	r3, r3, r2
 663 0098 0493     		str	r3, [sp, #16]
 664              		.loc 1 838 0
 665 009a 009B     		ldr	r3, [sp]
 666 009c 03F00103 		and	r3, r3, #1
 667 00a0 002B     		cmp	r3, #0
 668 00a2 02D0     		beq	.L43
 669              		.loc 1 838 0 is_stmt 0 discriminator 1
 670 00a4 049B     		ldr	r3, [sp, #16]
 671 00a6 1B09     		lsrs	r3, r3, #4
 672 00a8 02E0     		b	.L44
 673              	.L43:
 674              		.loc 1 838 0 discriminator 2
 675 00aa 049B     		ldr	r3, [sp, #16]
 676 00ac C3F30B03 		ubfx	r3, r3, #0, #12
ARM GAS  /tmp/ccIWRJEN.s 			page 13


 677              	.L44:
 678              		.loc 1 838 0 discriminator 3
 679 00b0 33E0     		b	.L36
 680              	.L38:
 681              		.loc 1 841 0 is_stmt 1
 682 00b2 019B     		ldr	r3, [sp, #4]
 683 00b4 1A6A     		ldr	r2, [r3, #32]
 684 00b6 009B     		ldr	r3, [sp]
 685 00b8 1B0A     		lsrs	r3, r3, #8
 686 00ba 1344     		add	r3, r3, r2
 687 00bc 0198     		ldr	r0, [sp, #4]
 688 00be 1946     		mov	r1, r3
 689 00c0 FFF7FEFF 		bl	move_window
 690 00c4 0346     		mov	r3, r0
 691 00c6 002B     		cmp	r3, #0
 692 00c8 00D0     		beq	.L45
 693              		.loc 1 841 0 is_stmt 0 discriminator 1
 694 00ca 24E0     		b	.L37
 695              	.L45:
 696              		.loc 1 842 0 is_stmt 1
 697 00cc 009B     		ldr	r3, [sp]
 698 00ce 5B00     		lsls	r3, r3, #1
 699 00d0 03F4FF73 		and	r3, r3, #510
 700 00d4 3033     		adds	r3, r3, #48
 701 00d6 019A     		ldr	r2, [sp, #4]
 702 00d8 1344     		add	r3, r3, r2
 703 00da 0393     		str	r3, [sp, #12]
 704              		.loc 1 843 0
 705 00dc 039B     		ldr	r3, [sp, #12]
 706 00de 1B88     		ldrh	r3, [r3]
 707 00e0 1BE0     		b	.L36
 708              	.L39:
 709              		.loc 1 846 0
 710 00e2 019B     		ldr	r3, [sp, #4]
 711 00e4 1A6A     		ldr	r2, [r3, #32]
 712 00e6 009B     		ldr	r3, [sp]
 713 00e8 DB09     		lsrs	r3, r3, #7
 714 00ea 1344     		add	r3, r3, r2
 715 00ec 0198     		ldr	r0, [sp, #4]
 716 00ee 1946     		mov	r1, r3
 717 00f0 FFF7FEFF 		bl	move_window
 718 00f4 0346     		mov	r3, r0
 719 00f6 002B     		cmp	r3, #0
 720 00f8 00D0     		beq	.L46
 721              		.loc 1 846 0 is_stmt 0 discriminator 1
 722 00fa 0CE0     		b	.L37
 723              	.L46:
 724              		.loc 1 847 0 is_stmt 1
 725 00fc 009B     		ldr	r3, [sp]
 726 00fe 9B00     		lsls	r3, r3, #2
 727 0100 03F4FE73 		and	r3, r3, #508
 728 0104 3033     		adds	r3, r3, #48
 729 0106 019A     		ldr	r2, [sp, #4]
 730 0108 1344     		add	r3, r3, r2
 731 010a 0393     		str	r3, [sp, #12]
 732              		.loc 1 848 0
 733 010c 039B     		ldr	r3, [sp, #12]
ARM GAS  /tmp/ccIWRJEN.s 			page 14


 734 010e 1B68     		ldr	r3, [r3]
 735 0110 23F07043 		bic	r3, r3, #-268435456
 736 0114 01E0     		b	.L36
 737              	.L37:
 738              		.loc 1 851 0
 739 0116 4FF0FF33 		mov	r3, #-1
 740              	.L36:
 741              		.loc 1 852 0
 742 011a 1846     		mov	r0, r3
 743 011c 07B0     		add	sp, sp, #28
 744              		@ sp needed
 745 011e 5DF804FB 		ldr	pc, [sp], #4
 746              		.cfi_endproc
 747              	.LFE14:
 748              		.size	get_fat, .-get_fat
 749 0122 00BFAFF3 		.section	.text.put_fat,"ax",%progbits
 749      0080AFF3 
 749      0080AFF3 
 749      0080
 750              		.align	2
 751              		.p2align 4,,15
 752              		.global	put_fat
 753              		.thumb
 754              		.thumb_func
 755              		.type	put_fat, %function
 756              	put_fat:
 757              	.LFB15:
 758              		.loc 1 867 0
 759              		.cfi_startproc
 760              		@ args = 0, pretend = 0, frame = 32
 761              		@ frame_needed = 0, uses_anonymous_args = 0
 762 0000 00B5     		push	{lr}
 763              		.cfi_def_cfa_offset 4
 764              		.cfi_offset 14, -4
 765 0002 89B0     		sub	sp, sp, #36
 766              		.cfi_def_cfa_offset 40
 767 0004 0390     		str	r0, [sp, #12]
 768 0006 0291     		str	r1, [sp, #8]
 769 0008 0192     		str	r2, [sp, #4]
 770              		.loc 1 873 0
 771 000a 029B     		ldr	r3, [sp, #8]
 772 000c 012B     		cmp	r3, #1
 773 000e 04D9     		bls	.L48
 774              		.loc 1 873 0 is_stmt 0 discriminator 1
 775 0010 039B     		ldr	r3, [sp, #12]
 776 0012 9A69     		ldr	r2, [r3, #24]
 777 0014 029B     		ldr	r3, [sp, #8]
 778 0016 9A42     		cmp	r2, r3
 779 0018 03D8     		bhi	.L49
 780              	.L48:
 781              		.loc 1 874 0 is_stmt 1
 782 001a 0223     		movs	r3, #2
 783 001c 8DF81F30 		strb	r3, [sp, #31]
 784 0020 C0E0     		b	.L50
 785              	.L49:
 786              		.loc 1 877 0
 787 0022 039B     		ldr	r3, [sp, #12]
ARM GAS  /tmp/ccIWRJEN.s 			page 15


 788 0024 1B78     		ldrb	r3, [r3]	@ zero_extendqisi2
 789 0026 022B     		cmp	r3, #2
 790 0028 74D0     		beq	.L52
 791 002a 032B     		cmp	r3, #3
 792 002c 00F09080 		beq	.L53
 793 0030 012B     		cmp	r3, #1
 794 0032 40F0B180 		bne	.L65
 795              		.loc 1 879 0
 796 0036 029B     		ldr	r3, [sp, #8]
 797 0038 0693     		str	r3, [sp, #24]
 798 003a 069B     		ldr	r3, [sp, #24]
 799 003c 5B08     		lsrs	r3, r3, #1
 800 003e 069A     		ldr	r2, [sp, #24]
 801 0040 1344     		add	r3, r3, r2
 802 0042 0693     		str	r3, [sp, #24]
 803              		.loc 1 880 0
 804 0044 039B     		ldr	r3, [sp, #12]
 805 0046 1A6A     		ldr	r2, [r3, #32]
 806 0048 069B     		ldr	r3, [sp, #24]
 807 004a 5B0A     		lsrs	r3, r3, #9
 808 004c 1344     		add	r3, r3, r2
 809 004e 0398     		ldr	r0, [sp, #12]
 810 0050 1946     		mov	r1, r3
 811 0052 FFF7FEFF 		bl	move_window
 812 0056 0346     		mov	r3, r0
 813 0058 8DF81F30 		strb	r3, [sp, #31]
 814              		.loc 1 881 0
 815 005c 9DF81F30 		ldrb	r3, [sp, #31]	@ zero_extendqisi2
 816 0060 002B     		cmp	r3, #0
 817 0062 00D0     		beq	.L55
 818              		.loc 1 881 0 is_stmt 0 discriminator 1
 819 0064 9BE0     		b	.L56
 820              	.L55:
 821              		.loc 1 882 0 is_stmt 1
 822 0066 069B     		ldr	r3, [sp, #24]
 823 0068 C3F30803 		ubfx	r3, r3, #0, #9
 824 006c 3033     		adds	r3, r3, #48
 825 006e 039A     		ldr	r2, [sp, #12]
 826 0070 1344     		add	r3, r3, r2
 827 0072 0593     		str	r3, [sp, #20]
 828              		.loc 1 883 0
 829 0074 029B     		ldr	r3, [sp, #8]
 830 0076 03F00103 		and	r3, r3, #1
 831 007a 002B     		cmp	r3, #0
 832 007c 0DD0     		beq	.L57
 833              		.loc 1 883 0 is_stmt 0 discriminator 1
 834 007e 059B     		ldr	r3, [sp, #20]
 835 0080 1B78     		ldrb	r3, [r3]	@ zero_extendqisi2
 836 0082 DBB2     		uxtb	r3, r3
 837 0084 03F00F03 		and	r3, r3, #15
 838 0088 DAB2     		uxtb	r2, r3
 839 008a 019B     		ldr	r3, [sp, #4]
 840 008c DBB2     		uxtb	r3, r3
 841 008e 1B01     		lsls	r3, r3, #4
 842 0090 DBB2     		uxtb	r3, r3
 843 0092 1343     		orrs	r3, r3, r2
 844 0094 DBB2     		uxtb	r3, r3
ARM GAS  /tmp/ccIWRJEN.s 			page 16


 845 0096 DBB2     		uxtb	r3, r3
 846 0098 01E0     		b	.L58
 847              	.L57:
 848              		.loc 1 883 0 discriminator 2
 849 009a 019B     		ldr	r3, [sp, #4]
 850 009c DBB2     		uxtb	r3, r3
 851              	.L58:
 852              		.loc 1 883 0 discriminator 3
 853 009e 059A     		ldr	r2, [sp, #20]
 854 00a0 1370     		strb	r3, [r2]
 855              		.loc 1 884 0 is_stmt 1 discriminator 3
 856 00a2 069B     		ldr	r3, [sp, #24]
 857 00a4 0133     		adds	r3, r3, #1
 858 00a6 0693     		str	r3, [sp, #24]
 859              		.loc 1 885 0 discriminator 3
 860 00a8 039B     		ldr	r3, [sp, #12]
 861 00aa 0122     		movs	r2, #1
 862 00ac 1A71     		strb	r2, [r3, #4]
 863              		.loc 1 886 0 discriminator 3
 864 00ae 039B     		ldr	r3, [sp, #12]
 865 00b0 1A6A     		ldr	r2, [r3, #32]
 866 00b2 069B     		ldr	r3, [sp, #24]
 867 00b4 5B0A     		lsrs	r3, r3, #9
 868 00b6 1344     		add	r3, r3, r2
 869 00b8 0398     		ldr	r0, [sp, #12]
 870 00ba 1946     		mov	r1, r3
 871 00bc FFF7FEFF 		bl	move_window
 872 00c0 0346     		mov	r3, r0
 873 00c2 8DF81F30 		strb	r3, [sp, #31]
 874              		.loc 1 887 0 discriminator 3
 875 00c6 9DF81F30 		ldrb	r3, [sp, #31]	@ zero_extendqisi2
 876 00ca 002B     		cmp	r3, #0
 877 00cc 00D0     		beq	.L59
 878              		.loc 1 887 0 is_stmt 0 discriminator 1
 879 00ce 66E0     		b	.L56
 880              	.L59:
 881              		.loc 1 888 0 is_stmt 1
 882 00d0 069B     		ldr	r3, [sp, #24]
 883 00d2 C3F30803 		ubfx	r3, r3, #0, #9
 884 00d6 3033     		adds	r3, r3, #48
 885 00d8 039A     		ldr	r2, [sp, #12]
 886 00da 1344     		add	r3, r3, r2
 887 00dc 0593     		str	r3, [sp, #20]
 888              		.loc 1 889 0
 889 00de 029B     		ldr	r3, [sp, #8]
 890 00e0 03F00103 		and	r3, r3, #1
 891 00e4 002B     		cmp	r3, #0
 892 00e6 03D0     		beq	.L60
 893              		.loc 1 889 0 is_stmt 0 discriminator 1
 894 00e8 019B     		ldr	r3, [sp, #4]
 895 00ea 1B09     		lsrs	r3, r3, #4
 896 00ec DBB2     		uxtb	r3, r3
 897 00ee 0EE0     		b	.L61
 898              	.L60:
 899              		.loc 1 889 0 discriminator 2
 900 00f0 059B     		ldr	r3, [sp, #20]
 901 00f2 1B78     		ldrb	r3, [r3]	@ zero_extendqisi2
ARM GAS  /tmp/ccIWRJEN.s 			page 17


 902 00f4 DBB2     		uxtb	r3, r3
 903 00f6 23F00F03 		bic	r3, r3, #15
 904 00fa DAB2     		uxtb	r2, r3
 905 00fc 019B     		ldr	r3, [sp, #4]
 906 00fe 1B0A     		lsrs	r3, r3, #8
 907 0100 DBB2     		uxtb	r3, r3
 908 0102 03F00F03 		and	r3, r3, #15
 909 0106 DBB2     		uxtb	r3, r3
 910 0108 1343     		orrs	r3, r3, r2
 911 010a DBB2     		uxtb	r3, r3
 912 010c DBB2     		uxtb	r3, r3
 913              	.L61:
 914              		.loc 1 889 0 discriminator 3
 915 010e 059A     		ldr	r2, [sp, #20]
 916 0110 1370     		strb	r3, [r2]
 917              		.loc 1 890 0 is_stmt 1 discriminator 3
 918 0112 44E0     		b	.L56
 919              	.L52:
 920              		.loc 1 893 0
 921 0114 039B     		ldr	r3, [sp, #12]
 922 0116 1A6A     		ldr	r2, [r3, #32]
 923 0118 029B     		ldr	r3, [sp, #8]
 924 011a 1B0A     		lsrs	r3, r3, #8
 925 011c 1344     		add	r3, r3, r2
 926 011e 0398     		ldr	r0, [sp, #12]
 927 0120 1946     		mov	r1, r3
 928 0122 FFF7FEFF 		bl	move_window
 929 0126 0346     		mov	r3, r0
 930 0128 8DF81F30 		strb	r3, [sp, #31]
 931              		.loc 1 894 0
 932 012c 9DF81F30 		ldrb	r3, [sp, #31]	@ zero_extendqisi2
 933 0130 002B     		cmp	r3, #0
 934 0132 00D0     		beq	.L62
 935              		.loc 1 894 0 is_stmt 0 discriminator 1
 936 0134 33E0     		b	.L56
 937              	.L62:
 938              		.loc 1 895 0 is_stmt 1
 939 0136 029B     		ldr	r3, [sp, #8]
 940 0138 5B00     		lsls	r3, r3, #1
 941 013a 03F4FF73 		and	r3, r3, #510
 942 013e 3033     		adds	r3, r3, #48
 943 0140 039A     		ldr	r2, [sp, #12]
 944 0142 1344     		add	r3, r3, r2
 945 0144 0593     		str	r3, [sp, #20]
 946              		.loc 1 896 0
 947 0146 019B     		ldr	r3, [sp, #4]
 948 0148 9AB2     		uxth	r2, r3
 949 014a 059B     		ldr	r3, [sp, #20]
 950 014c 1A80     		strh	r2, [r3]	@ movhi
 951              		.loc 1 897 0
 952 014e 26E0     		b	.L56
 953              	.L53:
 954              		.loc 1 900 0
 955 0150 039B     		ldr	r3, [sp, #12]
 956 0152 1A6A     		ldr	r2, [r3, #32]
 957 0154 029B     		ldr	r3, [sp, #8]
 958 0156 DB09     		lsrs	r3, r3, #7
ARM GAS  /tmp/ccIWRJEN.s 			page 18


 959 0158 1344     		add	r3, r3, r2
 960 015a 0398     		ldr	r0, [sp, #12]
 961 015c 1946     		mov	r1, r3
 962 015e FFF7FEFF 		bl	move_window
 963 0162 0346     		mov	r3, r0
 964 0164 8DF81F30 		strb	r3, [sp, #31]
 965              		.loc 1 901 0
 966 0168 9DF81F30 		ldrb	r3, [sp, #31]	@ zero_extendqisi2
 967 016c 002B     		cmp	r3, #0
 968 016e 00D0     		beq	.L63
 969              		.loc 1 901 0 is_stmt 0 discriminator 1
 970 0170 15E0     		b	.L56
 971              	.L63:
 972              		.loc 1 902 0 is_stmt 1
 973 0172 029B     		ldr	r3, [sp, #8]
 974 0174 9B00     		lsls	r3, r3, #2
 975 0176 03F4FE73 		and	r3, r3, #508
 976 017a 3033     		adds	r3, r3, #48
 977 017c 039A     		ldr	r2, [sp, #12]
 978 017e 1344     		add	r3, r3, r2
 979 0180 0593     		str	r3, [sp, #20]
 980              		.loc 1 903 0
 981 0182 059B     		ldr	r3, [sp, #20]
 982 0184 1B68     		ldr	r3, [r3]
 983 0186 03F07043 		and	r3, r3, #-268435456
 984 018a 019A     		ldr	r2, [sp, #4]
 985 018c 1343     		orrs	r3, r3, r2
 986 018e 0193     		str	r3, [sp, #4]
 987              		.loc 1 904 0
 988 0190 059B     		ldr	r3, [sp, #20]
 989 0192 019A     		ldr	r2, [sp, #4]
 990 0194 1A60     		str	r2, [r3]
 991              		.loc 1 905 0
 992 0196 02E0     		b	.L56
 993              	.L65:
 994              		.loc 1 908 0
 995 0198 0223     		movs	r3, #2
 996 019a 8DF81F30 		strb	r3, [sp, #31]
 997              	.L56:
 998              		.loc 1 910 0
 999 019e 039B     		ldr	r3, [sp, #12]
 1000 01a0 0122     		movs	r2, #1
 1001 01a2 1A71     		strb	r2, [r3, #4]
 1002              	.L50:
 1003              		.loc 1 913 0
 1004 01a4 9DF81F30 		ldrb	r3, [sp, #31]	@ zero_extendqisi2
 1005              		.loc 1 914 0
 1006 01a8 1846     		mov	r0, r3
 1007 01aa 09B0     		add	sp, sp, #36
 1008              		@ sp needed
 1009 01ac 5DF804FB 		ldr	pc, [sp], #4
 1010              		.cfi_endproc
 1011              	.LFE15:
 1012              		.size	put_fat, .-put_fat
 1013              		.section	.text.remove_chain,"ax",%progbits
 1014              		.align	2
 1015              		.p2align 4,,15
ARM GAS  /tmp/ccIWRJEN.s 			page 19


 1016              		.thumb
 1017              		.thumb_func
 1018              		.type	remove_chain, %function
 1019              	remove_chain:
 1020              	.LFB16:
 1021              		.loc 1 929 0
 1022              		.cfi_startproc
 1023              		@ args = 0, pretend = 0, frame = 32
 1024              		@ frame_needed = 0, uses_anonymous_args = 0
 1025 0000 00B5     		push	{lr}
 1026              		.cfi_def_cfa_offset 4
 1027              		.cfi_offset 14, -4
 1028 0002 89B0     		sub	sp, sp, #36
 1029              		.cfi_def_cfa_offset 40
 1030 0004 0190     		str	r0, [sp, #4]
 1031 0006 0091     		str	r1, [sp]
 1032              		.loc 1 933 0
 1033 0008 009B     		ldr	r3, [sp]
 1034 000a 0693     		str	r3, [sp, #24]
 1035 000c 009B     		ldr	r3, [sp]
 1036 000e 0593     		str	r3, [sp, #20]
 1037              		.loc 1 936 0
 1038 0010 009B     		ldr	r3, [sp]
 1039 0012 012B     		cmp	r3, #1
 1040 0014 04D9     		bls	.L67
 1041              		.loc 1 936 0 is_stmt 0 discriminator 1
 1042 0016 019B     		ldr	r3, [sp, #4]
 1043 0018 9A69     		ldr	r2, [r3, #24]
 1044 001a 009B     		ldr	r3, [sp]
 1045 001c 9A42     		cmp	r2, r3
 1046 001e 03D8     		bhi	.L68
 1047              	.L67:
 1048              		.loc 1 937 0 is_stmt 1
 1049 0020 0223     		movs	r3, #2
 1050 0022 8DF81F30 		strb	r3, [sp, #31]
 1051 0026 60E0     		b	.L69
 1052              	.L68:
 1053              		.loc 1 940 0
 1054 0028 0023     		movs	r3, #0
 1055 002a 8DF81F30 		strb	r3, [sp, #31]
 1056              		.loc 1 941 0
 1057 002e 57E0     		b	.L70
 1058              	.L78:
 1059              		.loc 1 942 0
 1060 0030 0198     		ldr	r0, [sp, #4]
 1061 0032 0099     		ldr	r1, [sp]
 1062 0034 FFF7FEFF 		bl	get_fat
 1063 0038 0490     		str	r0, [sp, #16]
 1064              		.loc 1 943 0
 1065 003a 049B     		ldr	r3, [sp, #16]
 1066 003c 002B     		cmp	r3, #0
 1067 003e 00D1     		bne	.L71
 1068              		.loc 1 943 0 is_stmt 0 discriminator 1
 1069 0040 53E0     		b	.L69
 1070              	.L71:
 1071              		.loc 1 944 0 is_stmt 1
 1072 0042 049B     		ldr	r3, [sp, #16]
ARM GAS  /tmp/ccIWRJEN.s 			page 20


 1073 0044 012B     		cmp	r3, #1
 1074 0046 03D1     		bne	.L72
 1075              		.loc 1 944 0 is_stmt 0 discriminator 1
 1076 0048 0223     		movs	r3, #2
 1077 004a 8DF81F30 		strb	r3, [sp, #31]
 1078 004e 4CE0     		b	.L69
 1079              	.L72:
 1080              		.loc 1 945 0 is_stmt 1
 1081 0050 049B     		ldr	r3, [sp, #16]
 1082 0052 B3F1FF3F 		cmp	r3, #-1
 1083 0056 03D1     		bne	.L73
 1084              		.loc 1 945 0 is_stmt 0 discriminator 1
 1085 0058 0123     		movs	r3, #1
 1086 005a 8DF81F30 		strb	r3, [sp, #31]
 1087 005e 44E0     		b	.L69
 1088              	.L73:
 1089              		.loc 1 946 0 is_stmt 1
 1090 0060 0198     		ldr	r0, [sp, #4]
 1091 0062 0099     		ldr	r1, [sp]
 1092 0064 0022     		movs	r2, #0
 1093 0066 FFF7FEFF 		bl	put_fat
 1094 006a 0346     		mov	r3, r0
 1095 006c 8DF81F30 		strb	r3, [sp, #31]
 1096              		.loc 1 947 0
 1097 0070 9DF81F30 		ldrb	r3, [sp, #31]	@ zero_extendqisi2
 1098 0074 002B     		cmp	r3, #0
 1099 0076 00D0     		beq	.L74
 1100              		.loc 1 947 0 is_stmt 0 discriminator 1
 1101 0078 37E0     		b	.L69
 1102              	.L74:
 1103              		.loc 1 948 0 is_stmt 1
 1104 007a 019B     		ldr	r3, [sp, #4]
 1105 007c 1B69     		ldr	r3, [r3, #16]
 1106 007e B3F1FF3F 		cmp	r3, #-1
 1107 0082 07D0     		beq	.L75
 1108              		.loc 1 949 0
 1109 0084 019B     		ldr	r3, [sp, #4]
 1110 0086 1B69     		ldr	r3, [r3, #16]
 1111 0088 5A1C     		adds	r2, r3, #1
 1112 008a 019B     		ldr	r3, [sp, #4]
 1113 008c 1A61     		str	r2, [r3, #16]
 1114              		.loc 1 950 0
 1115 008e 019B     		ldr	r3, [sp, #4]
 1116 0090 0122     		movs	r2, #1
 1117 0092 5A71     		strb	r2, [r3, #5]
 1118              	.L75:
 1119              		.loc 1 953 0
 1120 0094 059B     		ldr	r3, [sp, #20]
 1121 0096 5A1C     		adds	r2, r3, #1
 1122 0098 049B     		ldr	r3, [sp, #16]
 1123 009a 9A42     		cmp	r2, r3
 1124 009c 02D1     		bne	.L76
 1125              		.loc 1 954 0
 1126 009e 049B     		ldr	r3, [sp, #16]
 1127 00a0 0593     		str	r3, [sp, #20]
 1128 00a2 1BE0     		b	.L77
 1129              	.L76:
ARM GAS  /tmp/ccIWRJEN.s 			page 21


 1130              		.loc 1 956 0
 1131 00a4 0198     		ldr	r0, [sp, #4]
 1132 00a6 0699     		ldr	r1, [sp, #24]
 1133 00a8 FFF7FEFF 		bl	clust2sect
 1134 00ac 0346     		mov	r3, r0
 1135 00ae 0293     		str	r3, [sp, #8]
 1136              		.loc 1 957 0
 1137 00b0 0198     		ldr	r0, [sp, #4]
 1138 00b2 0599     		ldr	r1, [sp, #20]
 1139 00b4 FFF7FEFF 		bl	clust2sect
 1140 00b8 0246     		mov	r2, r0
 1141 00ba 019B     		ldr	r3, [sp, #4]
 1142 00bc 9B78     		ldrb	r3, [r3, #2]	@ zero_extendqisi2
 1143 00be 1344     		add	r3, r3, r2
 1144 00c0 013B     		subs	r3, r3, #1
 1145 00c2 0393     		str	r3, [sp, #12]
 1146              		.loc 1 958 0
 1147 00c4 019B     		ldr	r3, [sp, #4]
 1148 00c6 5A78     		ldrb	r2, [r3, #1]	@ zero_extendqisi2
 1149 00c8 02AB     		add	r3, sp, #8
 1150 00ca 1046     		mov	r0, r2
 1151 00cc 0421     		movs	r1, #4
 1152 00ce 1A46     		mov	r2, r3
 1153 00d0 FFF7FEFF 		bl	disk_ioctl
 1154              		.loc 1 959 0
 1155 00d4 049B     		ldr	r3, [sp, #16]
 1156 00d6 0593     		str	r3, [sp, #20]
 1157 00d8 059B     		ldr	r3, [sp, #20]
 1158 00da 0693     		str	r3, [sp, #24]
 1159              	.L77:
 1160              		.loc 1 962 0
 1161 00dc 049B     		ldr	r3, [sp, #16]
 1162 00de 0093     		str	r3, [sp]
 1163              	.L70:
 1164              		.loc 1 941 0 discriminator 1
 1165 00e0 019B     		ldr	r3, [sp, #4]
 1166 00e2 9A69     		ldr	r2, [r3, #24]
 1167 00e4 009B     		ldr	r3, [sp]
 1168 00e6 9A42     		cmp	r2, r3
 1169 00e8 A2D8     		bhi	.L78
 1170              	.L69:
 1171              		.loc 1 966 0
 1172 00ea 9DF81F30 		ldrb	r3, [sp, #31]	@ zero_extendqisi2
 1173              		.loc 1 967 0
 1174 00ee 1846     		mov	r0, r3
 1175 00f0 09B0     		add	sp, sp, #36
 1176              		@ sp needed
 1177 00f2 5DF804FB 		ldr	pc, [sp], #4
 1178              		.cfi_endproc
 1179              	.LFE16:
 1180              		.size	remove_chain, .-remove_chain
 1181 00f6 00BFAFF3 		.section	.text.create_chain,"ax",%progbits
 1181      0080AFF3 
 1181      0080
 1182              		.align	2
 1183              		.p2align 4,,15
 1184              		.thumb
ARM GAS  /tmp/ccIWRJEN.s 			page 22


 1185              		.thumb_func
 1186              		.type	create_chain, %function
 1187              	create_chain:
 1188              	.LFB17:
 1189              		.loc 1 982 0
 1190              		.cfi_startproc
 1191              		@ args = 0, pretend = 0, frame = 24
 1192              		@ frame_needed = 0, uses_anonymous_args = 0
 1193 0000 00B5     		push	{lr}
 1194              		.cfi_def_cfa_offset 4
 1195              		.cfi_offset 14, -4
 1196 0002 87B0     		sub	sp, sp, #28
 1197              		.cfi_def_cfa_offset 32
 1198 0004 0190     		str	r0, [sp, #4]
 1199 0006 0091     		str	r1, [sp]
 1200              		.loc 1 987 0
 1201 0008 009B     		ldr	r3, [sp]
 1202 000a 002B     		cmp	r3, #0
 1203 000c 0DD1     		bne	.L81
 1204              		.loc 1 988 0
 1205 000e 019B     		ldr	r3, [sp, #4]
 1206 0010 DB68     		ldr	r3, [r3, #12]
 1207 0012 0493     		str	r3, [sp, #16]
 1208              		.loc 1 989 0
 1209 0014 049B     		ldr	r3, [sp, #16]
 1210 0016 002B     		cmp	r3, #0
 1211 0018 04D0     		beq	.L82
 1212              		.loc 1 989 0 is_stmt 0 discriminator 2
 1213 001a 019B     		ldr	r3, [sp, #4]
 1214 001c 9A69     		ldr	r2, [r3, #24]
 1215 001e 049B     		ldr	r3, [sp, #16]
 1216 0020 9A42     		cmp	r2, r3
 1217 0022 15D8     		bhi	.L84
 1218              	.L82:
 1219              		.loc 1 989 0 discriminator 1
 1220 0024 0123     		movs	r3, #1
 1221 0026 0493     		str	r3, [sp, #16]
 1222 0028 12E0     		b	.L84
 1223              	.L81:
 1224              		.loc 1 992 0 is_stmt 1
 1225 002a 0198     		ldr	r0, [sp, #4]
 1226 002c 0099     		ldr	r1, [sp]
 1227 002e FFF7FEFF 		bl	get_fat
 1228 0032 0290     		str	r0, [sp, #8]
 1229              		.loc 1 993 0
 1230 0034 029B     		ldr	r3, [sp, #8]
 1231 0036 012B     		cmp	r3, #1
 1232 0038 01D8     		bhi	.L85
 1233              		.loc 1 993 0 is_stmt 0 discriminator 1
 1234 003a 0123     		movs	r3, #1
 1235 003c 6BE0     		b	.L86
 1236              	.L85:
 1237              		.loc 1 994 0 is_stmt 1
 1238 003e 019B     		ldr	r3, [sp, #4]
 1239 0040 9A69     		ldr	r2, [r3, #24]
 1240 0042 029B     		ldr	r3, [sp, #8]
 1241 0044 9A42     		cmp	r2, r3
ARM GAS  /tmp/ccIWRJEN.s 			page 23


 1242 0046 01D9     		bls	.L87
 1243              		.loc 1 994 0 is_stmt 0 discriminator 1
 1244 0048 029B     		ldr	r3, [sp, #8]
 1245 004a 64E0     		b	.L86
 1246              	.L87:
 1247              		.loc 1 995 0 is_stmt 1
 1248 004c 009B     		ldr	r3, [sp]
 1249 004e 0493     		str	r3, [sp, #16]
 1250              	.L84:
 1251              		.loc 1 998 0
 1252 0050 049B     		ldr	r3, [sp, #16]
 1253 0052 0593     		str	r3, [sp, #20]
 1254              	.L94:
 1255              		.loc 1 1000 0
 1256 0054 059B     		ldr	r3, [sp, #20]
 1257 0056 0133     		adds	r3, r3, #1
 1258 0058 0593     		str	r3, [sp, #20]
 1259              		.loc 1 1001 0
 1260 005a 019B     		ldr	r3, [sp, #4]
 1261 005c 9A69     		ldr	r2, [r3, #24]
 1262 005e 059B     		ldr	r3, [sp, #20]
 1263 0060 9A42     		cmp	r2, r3
 1264 0062 07D8     		bhi	.L88
 1265              		.loc 1 1002 0
 1266 0064 0223     		movs	r3, #2
 1267 0066 0593     		str	r3, [sp, #20]
 1268              		.loc 1 1003 0
 1269 0068 059A     		ldr	r2, [sp, #20]
 1270 006a 049B     		ldr	r3, [sp, #16]
 1271 006c 9A42     		cmp	r2, r3
 1272 006e 01D9     		bls	.L88
 1273              		.loc 1 1003 0 is_stmt 0 discriminator 1
 1274 0070 0023     		movs	r3, #0
 1275 0072 50E0     		b	.L86
 1276              	.L88:
 1277              		.loc 1 1005 0 is_stmt 1
 1278 0074 0198     		ldr	r0, [sp, #4]
 1279 0076 0599     		ldr	r1, [sp, #20]
 1280 0078 FFF7FEFF 		bl	get_fat
 1281 007c 0290     		str	r0, [sp, #8]
 1282              		.loc 1 1006 0
 1283 007e 029B     		ldr	r3, [sp, #8]
 1284 0080 002B     		cmp	r3, #0
 1285 0082 0ED1     		bne	.L89
 1286              		.loc 1 1006 0 is_stmt 0 discriminator 1
 1287 0084 00BF     		nop
 1288              		.loc 1 1012 0 is_stmt 1 discriminator 1
 1289 0086 0198     		ldr	r0, [sp, #4]
 1290 0088 0599     		ldr	r1, [sp, #20]
 1291 008a 6FF07042 		mvn	r2, #-268435456
 1292 008e FFF7FEFF 		bl	put_fat
 1293 0092 0346     		mov	r3, r0
 1294 0094 8DF80F30 		strb	r3, [sp, #15]
 1295              		.loc 1 1013 0 discriminator 1
 1296 0098 9DF80F30 		ldrb	r3, [sp, #15]	@ zero_extendqisi2
 1297 009c 002B     		cmp	r3, #0
 1298 009e 1BD1     		bne	.L95
ARM GAS  /tmp/ccIWRJEN.s 			page 24


 1299 00a0 0FE0     		b	.L101
 1300              	.L89:
 1301              		.loc 1 1007 0
 1302 00a2 029B     		ldr	r3, [sp, #8]
 1303 00a4 B3F1FF3F 		cmp	r3, #-1
 1304 00a8 02D0     		beq	.L91
 1305              		.loc 1 1007 0 is_stmt 0 discriminator 1
 1306 00aa 029B     		ldr	r3, [sp, #8]
 1307 00ac 012B     		cmp	r3, #1
 1308 00ae 01D1     		bne	.L92
 1309              	.L91:
 1310              		.loc 1 1008 0 is_stmt 1
 1311 00b0 029B     		ldr	r3, [sp, #8]
 1312 00b2 30E0     		b	.L86
 1313              	.L92:
 1314              		.loc 1 1009 0
 1315 00b4 059A     		ldr	r2, [sp, #20]
 1316 00b6 049B     		ldr	r3, [sp, #16]
 1317 00b8 9A42     		cmp	r2, r3
 1318 00ba 01D1     		bne	.L93
 1319              		.loc 1 1009 0 is_stmt 0 discriminator 1
 1320 00bc 0023     		movs	r3, #0
 1321 00be 2AE0     		b	.L86
 1322              	.L93:
 1323              		.loc 1 1010 0 is_stmt 1
 1324 00c0 C8E7     		b	.L94
 1325              	.L101:
 1326              		.loc 1 1013 0 discriminator 1
 1327 00c2 009B     		ldr	r3, [sp]
 1328 00c4 002B     		cmp	r3, #0
 1329 00c6 07D0     		beq	.L95
 1330              		.loc 1 1014 0
 1331 00c8 0198     		ldr	r0, [sp, #4]
 1332 00ca 0099     		ldr	r1, [sp]
 1333 00cc 059A     		ldr	r2, [sp, #20]
 1334 00ce FFF7FEFF 		bl	put_fat
 1335 00d2 0346     		mov	r3, r0
 1336 00d4 8DF80F30 		strb	r3, [sp, #15]
 1337              	.L95:
 1338              		.loc 1 1016 0
 1339 00d8 9DF80F30 		ldrb	r3, [sp, #15]	@ zero_extendqisi2
 1340 00dc 002B     		cmp	r3, #0
 1341 00de 10D1     		bne	.L96
 1342              		.loc 1 1017 0
 1343 00e0 019B     		ldr	r3, [sp, #4]
 1344 00e2 059A     		ldr	r2, [sp, #20]
 1345 00e4 DA60     		str	r2, [r3, #12]
 1346              		.loc 1 1018 0
 1347 00e6 019B     		ldr	r3, [sp, #4]
 1348 00e8 1B69     		ldr	r3, [r3, #16]
 1349 00ea B3F1FF3F 		cmp	r3, #-1
 1350 00ee 11D0     		beq	.L98
 1351              		.loc 1 1019 0
 1352 00f0 019B     		ldr	r3, [sp, #4]
 1353 00f2 1B69     		ldr	r3, [r3, #16]
 1354 00f4 5A1E     		subs	r2, r3, #1
 1355 00f6 019B     		ldr	r3, [sp, #4]
ARM GAS  /tmp/ccIWRJEN.s 			page 25


 1356 00f8 1A61     		str	r2, [r3, #16]
 1357              		.loc 1 1020 0
 1358 00fa 019B     		ldr	r3, [sp, #4]
 1359 00fc 0122     		movs	r2, #1
 1360 00fe 5A71     		strb	r2, [r3, #5]
 1361 0100 08E0     		b	.L98
 1362              	.L96:
 1363              		.loc 1 1023 0
 1364 0102 9DF80F30 		ldrb	r3, [sp, #15]	@ zero_extendqisi2
 1365 0106 012B     		cmp	r3, #1
 1366 0108 02D1     		bne	.L99
 1367              		.loc 1 1023 0 is_stmt 0 discriminator 1
 1368 010a 4FF0FF33 		mov	r3, #-1
 1369 010e 00E0     		b	.L100
 1370              	.L99:
 1371              		.loc 1 1023 0 discriminator 2
 1372 0110 0123     		movs	r3, #1
 1373              	.L100:
 1374              		.loc 1 1023 0 discriminator 3
 1375 0112 0593     		str	r3, [sp, #20]
 1376              	.L98:
 1377              		.loc 1 1026 0 is_stmt 1
 1378 0114 059B     		ldr	r3, [sp, #20]
 1379              	.L86:
 1380              		.loc 1 1027 0
 1381 0116 1846     		mov	r0, r3
 1382 0118 07B0     		add	sp, sp, #28
 1383              		@ sp needed
 1384 011a 5DF804FB 		ldr	pc, [sp], #4
 1385              		.cfi_endproc
 1386              	.LFE17:
 1387              		.size	create_chain, .-create_chain
 1388 011e 00BF     		.section	.text.dir_sdi,"ax",%progbits
 1389              		.align	2
 1390              		.p2align 4,,15
 1391              		.thumb
 1392              		.thumb_func
 1393              		.type	dir_sdi, %function
 1394              	dir_sdi:
 1395              	.LFB18:
 1396              		.loc 1 1069 0
 1397              		.cfi_startproc
 1398              		@ args = 0, pretend = 0, frame = 16
 1399              		@ frame_needed = 0, uses_anonymous_args = 0
 1400 0000 00B5     		push	{lr}
 1401              		.cfi_def_cfa_offset 4
 1402              		.cfi_offset 14, -4
 1403 0002 85B0     		sub	sp, sp, #20
 1404              		.cfi_def_cfa_offset 24
 1405 0004 0190     		str	r0, [sp, #4]
 1406 0006 0B46     		mov	r3, r1
 1407 0008 ADF80230 		strh	r3, [sp, #2]	@ movhi
 1408              		.loc 1 1074 0
 1409 000c 019B     		ldr	r3, [sp, #4]
 1410 000e BDF80220 		ldrh	r2, [sp, #2]	@ movhi
 1411 0012 DA80     		strh	r2, [r3, #6]	@ movhi
 1412              		.loc 1 1075 0
ARM GAS  /tmp/ccIWRJEN.s 			page 26


 1413 0014 019B     		ldr	r3, [sp, #4]
 1414 0016 9B68     		ldr	r3, [r3, #8]
 1415 0018 0393     		str	r3, [sp, #12]
 1416              		.loc 1 1076 0
 1417 001a 039B     		ldr	r3, [sp, #12]
 1418 001c 012B     		cmp	r3, #1
 1419 001e 05D0     		beq	.L103
 1420              		.loc 1 1076 0 is_stmt 0 discriminator 1
 1421 0020 019B     		ldr	r3, [sp, #4]
 1422 0022 1B68     		ldr	r3, [r3]
 1423 0024 9A69     		ldr	r2, [r3, #24]
 1424 0026 039B     		ldr	r3, [sp, #12]
 1425 0028 9A42     		cmp	r2, r3
 1426 002a 01D8     		bhi	.L104
 1427              	.L103:
 1428              		.loc 1 1077 0 is_stmt 1
 1429 002c 0223     		movs	r3, #2
 1430 002e 6EE0     		b	.L105
 1431              	.L104:
 1432              		.loc 1 1078 0
 1433 0030 039B     		ldr	r3, [sp, #12]
 1434 0032 002B     		cmp	r3, #0
 1435 0034 08D1     		bne	.L106
 1436              		.loc 1 1078 0 is_stmt 0 discriminator 1
 1437 0036 019B     		ldr	r3, [sp, #4]
 1438 0038 1B68     		ldr	r3, [r3]
 1439 003a 1B78     		ldrb	r3, [r3]	@ zero_extendqisi2
 1440 003c 032B     		cmp	r3, #3
 1441 003e 03D1     		bne	.L106
 1442              		.loc 1 1079 0 is_stmt 1
 1443 0040 019B     		ldr	r3, [sp, #4]
 1444 0042 1B68     		ldr	r3, [r3]
 1445 0044 5B6A     		ldr	r3, [r3, #36]
 1446 0046 0393     		str	r3, [sp, #12]
 1447              	.L106:
 1448              		.loc 1 1081 0
 1449 0048 039B     		ldr	r3, [sp, #12]
 1450 004a 002B     		cmp	r3, #0
 1451 004c 16D1     		bne	.L107
 1452              		.loc 1 1082 0
 1453 004e 019B     		ldr	r3, [sp, #4]
 1454 0050 039A     		ldr	r2, [sp, #12]
 1455 0052 DA60     		str	r2, [r3, #12]
 1456              		.loc 1 1083 0
 1457 0054 019B     		ldr	r3, [sp, #4]
 1458 0056 1B68     		ldr	r3, [r3]
 1459 0058 1B89     		ldrh	r3, [r3, #8]
 1460 005a BDF80220 		ldrh	r2, [sp, #2]
 1461 005e 9A42     		cmp	r2, r3
 1462 0060 01D3     		bcc	.L108
 1463              		.loc 1 1084 0
 1464 0062 0223     		movs	r3, #2
 1465 0064 53E0     		b	.L105
 1466              	.L108:
 1467              		.loc 1 1085 0
 1468 0066 019B     		ldr	r3, [sp, #4]
 1469 0068 1B68     		ldr	r3, [r3]
ARM GAS  /tmp/ccIWRJEN.s 			page 27


 1470 006a 5A6A     		ldr	r2, [r3, #36]
 1471 006c BDF80230 		ldrh	r3, [sp, #2]
 1472 0070 1B09     		lsrs	r3, r3, #4
 1473 0072 9BB2     		uxth	r3, r3
 1474 0074 1A44     		add	r2, r2, r3
 1475 0076 019B     		ldr	r3, [sp, #4]
 1476 0078 1A61     		str	r2, [r3, #16]
 1477 007a 3CE0     		b	.L109
 1478              	.L107:
 1479              		.loc 1 1088 0
 1480 007c 019B     		ldr	r3, [sp, #4]
 1481 007e 1B68     		ldr	r3, [r3]
 1482 0080 9B78     		ldrb	r3, [r3, #2]	@ zero_extendqisi2
 1483 0082 1B01     		lsls	r3, r3, #4
 1484 0084 ADF80A30 		strh	r3, [sp, #10]	@ movhi
 1485              		.loc 1 1089 0
 1486 0088 1EE0     		b	.L110
 1487              	.L114:
 1488              		.loc 1 1090 0
 1489 008a 019B     		ldr	r3, [sp, #4]
 1490 008c 1B68     		ldr	r3, [r3]
 1491 008e 1846     		mov	r0, r3
 1492 0090 0399     		ldr	r1, [sp, #12]
 1493 0092 FFF7FEFF 		bl	get_fat
 1494 0096 0390     		str	r0, [sp, #12]
 1495              		.loc 1 1091 0
 1496 0098 039B     		ldr	r3, [sp, #12]
 1497 009a B3F1FF3F 		cmp	r3, #-1
 1498 009e 01D1     		bne	.L111
 1499              		.loc 1 1091 0 is_stmt 0 discriminator 1
 1500 00a0 0123     		movs	r3, #1
 1501 00a2 34E0     		b	.L105
 1502              	.L111:
 1503              		.loc 1 1092 0 is_stmt 1
 1504 00a4 039B     		ldr	r3, [sp, #12]
 1505 00a6 012B     		cmp	r3, #1
 1506 00a8 05D9     		bls	.L112
 1507              		.loc 1 1092 0 is_stmt 0 discriminator 1
 1508 00aa 019B     		ldr	r3, [sp, #4]
 1509 00ac 1B68     		ldr	r3, [r3]
 1510 00ae 9A69     		ldr	r2, [r3, #24]
 1511 00b0 039B     		ldr	r3, [sp, #12]
 1512 00b2 9A42     		cmp	r2, r3
 1513 00b4 01D8     		bhi	.L113
 1514              	.L112:
 1515              		.loc 1 1093 0 is_stmt 1
 1516 00b6 0223     		movs	r3, #2
 1517 00b8 29E0     		b	.L105
 1518              	.L113:
 1519              		.loc 1 1094 0
 1520 00ba BDF80220 		ldrh	r2, [sp, #2]	@ movhi
 1521 00be BDF80A30 		ldrh	r3, [sp, #10]	@ movhi
 1522 00c2 D31A     		subs	r3, r2, r3
 1523 00c4 ADF80230 		strh	r3, [sp, #2]	@ movhi
 1524              	.L110:
 1525              		.loc 1 1089 0 discriminator 1
 1526 00c8 BDF80220 		ldrh	r2, [sp, #2]
ARM GAS  /tmp/ccIWRJEN.s 			page 28


 1527 00cc BDF80A30 		ldrh	r3, [sp, #10]
 1528 00d0 9A42     		cmp	r2, r3
 1529 00d2 DAD2     		bcs	.L114
 1530              		.loc 1 1096 0
 1531 00d4 019B     		ldr	r3, [sp, #4]
 1532 00d6 039A     		ldr	r2, [sp, #12]
 1533 00d8 DA60     		str	r2, [r3, #12]
 1534              		.loc 1 1097 0
 1535 00da 019B     		ldr	r3, [sp, #4]
 1536 00dc 1B68     		ldr	r3, [r3]
 1537 00de 1846     		mov	r0, r3
 1538 00e0 0399     		ldr	r1, [sp, #12]
 1539 00e2 FFF7FEFF 		bl	clust2sect
 1540 00e6 0246     		mov	r2, r0
 1541 00e8 BDF80230 		ldrh	r3, [sp, #2]
 1542 00ec 1B09     		lsrs	r3, r3, #4
 1543 00ee 9BB2     		uxth	r3, r3
 1544 00f0 1A44     		add	r2, r2, r3
 1545 00f2 019B     		ldr	r3, [sp, #4]
 1546 00f4 1A61     		str	r2, [r3, #16]
 1547              	.L109:
 1548              		.loc 1 1100 0
 1549 00f6 019B     		ldr	r3, [sp, #4]
 1550 00f8 1A68     		ldr	r2, [r3]
 1551 00fa BDF80230 		ldrh	r3, [sp, #2]
 1552 00fe 03F00F03 		and	r3, r3, #15
 1553 0102 5B01     		lsls	r3, r3, #5
 1554 0104 3033     		adds	r3, r3, #48
 1555 0106 1A44     		add	r2, r2, r3
 1556 0108 019B     		ldr	r3, [sp, #4]
 1557 010a 5A61     		str	r2, [r3, #20]
 1558              		.loc 1 1102 0
 1559 010c 0023     		movs	r3, #0
 1560              	.L105:
 1561              		.loc 1 1103 0
 1562 010e 1846     		mov	r0, r3
 1563 0110 05B0     		add	sp, sp, #20
 1564              		@ sp needed
 1565 0112 5DF804FB 		ldr	pc, [sp], #4
 1566              		.cfi_endproc
 1567              	.LFE18:
 1568              		.size	dir_sdi, .-dir_sdi
 1569 0116 00BFAFF3 		.section	.text.dir_next,"ax",%progbits
 1569      0080AFF3 
 1569      0080
 1570              		.align	2
 1571              		.p2align 4,,15
 1572              		.thumb
 1573              		.thumb_func
 1574              		.type	dir_next, %function
 1575              	dir_next:
 1576              	.LFB19:
 1577              		.loc 1 1117 0
 1578              		.cfi_startproc
 1579              		@ args = 0, pretend = 0, frame = 16
 1580              		@ frame_needed = 0, uses_anonymous_args = 0
 1581 0000 10B5     		push	{r4, lr}
ARM GAS  /tmp/ccIWRJEN.s 			page 29


 1582              		.cfi_def_cfa_offset 8
 1583              		.cfi_offset 4, -8
 1584              		.cfi_offset 14, -4
 1585 0002 84B0     		sub	sp, sp, #16
 1586              		.cfi_def_cfa_offset 24
 1587 0004 0190     		str	r0, [sp, #4]
 1588 0006 0091     		str	r1, [sp]
 1589              		.loc 1 1123 0
 1590 0008 019B     		ldr	r3, [sp, #4]
 1591 000a DB88     		ldrh	r3, [r3, #6]
 1592 000c 0133     		adds	r3, r3, #1
 1593 000e ADF80830 		strh	r3, [sp, #8]	@ movhi
 1594              		.loc 1 1124 0
 1595 0012 BDF80830 		ldrh	r3, [sp, #8]
 1596 0016 002B     		cmp	r3, #0
 1597 0018 03D0     		beq	.L116
 1598              		.loc 1 1124 0 is_stmt 0 discriminator 1
 1599 001a 019B     		ldr	r3, [sp, #4]
 1600 001c 1B69     		ldr	r3, [r3, #16]
 1601 001e 002B     		cmp	r3, #0
 1602 0020 01D1     		bne	.L117
 1603              	.L116:
 1604              		.loc 1 1125 0 is_stmt 1
 1605 0022 0423     		movs	r3, #4
 1606 0024 C6E0     		b	.L118
 1607              	.L117:
 1608              		.loc 1 1127 0
 1609 0026 BDF80830 		ldrh	r3, [sp, #8]	@ movhi
 1610 002a 03F00F03 		and	r3, r3, #15
 1611 002e 9BB2     		uxth	r3, r3
 1612 0030 002B     		cmp	r3, #0
 1613 0032 40F0AF80 		bne	.L119
 1614              		.loc 1 1128 0
 1615 0036 019B     		ldr	r3, [sp, #4]
 1616 0038 1B69     		ldr	r3, [r3, #16]
 1617 003a 5A1C     		adds	r2, r3, #1
 1618 003c 019B     		ldr	r3, [sp, #4]
 1619 003e 1A61     		str	r2, [r3, #16]
 1620              		.loc 1 1130 0
 1621 0040 019B     		ldr	r3, [sp, #4]
 1622 0042 DB68     		ldr	r3, [r3, #12]
 1623 0044 002B     		cmp	r3, #0
 1624 0046 09D1     		bne	.L120
 1625              		.loc 1 1131 0
 1626 0048 019B     		ldr	r3, [sp, #4]
 1627 004a 1B68     		ldr	r3, [r3]
 1628 004c 1B89     		ldrh	r3, [r3, #8]
 1629 004e BDF80820 		ldrh	r2, [sp, #8]
 1630 0052 9A42     		cmp	r2, r3
 1631 0054 C0F09E80 		bcc	.L119
 1632              		.loc 1 1132 0
 1633 0058 0423     		movs	r3, #4
 1634 005a ABE0     		b	.L118
 1635              	.L120:
 1636              		.loc 1 1135 0
 1637 005c BDF80830 		ldrh	r3, [sp, #8]
 1638 0060 1B09     		lsrs	r3, r3, #4
ARM GAS  /tmp/ccIWRJEN.s 			page 30


 1639 0062 9BB2     		uxth	r3, r3
 1640 0064 1A46     		mov	r2, r3
 1641 0066 019B     		ldr	r3, [sp, #4]
 1642 0068 1B68     		ldr	r3, [r3]
 1643 006a 9B78     		ldrb	r3, [r3, #2]	@ zero_extendqisi2
 1644 006c 013B     		subs	r3, r3, #1
 1645 006e 1340     		ands	r3, r3, r2
 1646 0070 002B     		cmp	r3, #0
 1647 0072 40F08F80 		bne	.L119
 1648              		.loc 1 1136 0
 1649 0076 019B     		ldr	r3, [sp, #4]
 1650 0078 1A68     		ldr	r2, [r3]
 1651 007a 019B     		ldr	r3, [sp, #4]
 1652 007c DB68     		ldr	r3, [r3, #12]
 1653 007e 1046     		mov	r0, r2
 1654 0080 1946     		mov	r1, r3
 1655 0082 FFF7FEFF 		bl	get_fat
 1656 0086 0390     		str	r0, [sp, #12]
 1657              		.loc 1 1137 0
 1658 0088 039B     		ldr	r3, [sp, #12]
 1659 008a 012B     		cmp	r3, #1
 1660 008c 01D8     		bhi	.L121
 1661              		.loc 1 1137 0 is_stmt 0 discriminator 1
 1662 008e 0223     		movs	r3, #2
 1663 0090 90E0     		b	.L118
 1664              	.L121:
 1665              		.loc 1 1138 0 is_stmt 1
 1666 0092 039B     		ldr	r3, [sp, #12]
 1667 0094 B3F1FF3F 		cmp	r3, #-1
 1668 0098 01D1     		bne	.L122
 1669              		.loc 1 1138 0 is_stmt 0 discriminator 1
 1670 009a 0123     		movs	r3, #1
 1671 009c 8AE0     		b	.L118
 1672              	.L122:
 1673              		.loc 1 1139 0 is_stmt 1
 1674 009e 019B     		ldr	r3, [sp, #4]
 1675 00a0 1B68     		ldr	r3, [r3]
 1676 00a2 9A69     		ldr	r2, [r3, #24]
 1677 00a4 039B     		ldr	r3, [sp, #12]
 1678 00a6 9A42     		cmp	r2, r3
 1679 00a8 68D8     		bhi	.L123
 1680              	.LBB3:
 1681              		.loc 1 1142 0
 1682 00aa 009B     		ldr	r3, [sp]
 1683 00ac 002B     		cmp	r3, #0
 1684 00ae 01D1     		bne	.L124
 1685              		.loc 1 1142 0 is_stmt 0 discriminator 1
 1686 00b0 0423     		movs	r3, #4
 1687 00b2 7FE0     		b	.L118
 1688              	.L124:
 1689              		.loc 1 1143 0 is_stmt 1
 1690 00b4 019B     		ldr	r3, [sp, #4]
 1691 00b6 1A68     		ldr	r2, [r3]
 1692 00b8 019B     		ldr	r3, [sp, #4]
 1693 00ba DB68     		ldr	r3, [r3, #12]
 1694 00bc 1046     		mov	r0, r2
 1695 00be 1946     		mov	r1, r3
ARM GAS  /tmp/ccIWRJEN.s 			page 31


 1696 00c0 FFF7FEFF 		bl	create_chain
 1697 00c4 0390     		str	r0, [sp, #12]
 1698              		.loc 1 1144 0
 1699 00c6 039B     		ldr	r3, [sp, #12]
 1700 00c8 002B     		cmp	r3, #0
 1701 00ca 01D1     		bne	.L125
 1702              		.loc 1 1144 0 is_stmt 0 discriminator 1
 1703 00cc 0723     		movs	r3, #7
 1704 00ce 71E0     		b	.L118
 1705              	.L125:
 1706              		.loc 1 1145 0 is_stmt 1
 1707 00d0 039B     		ldr	r3, [sp, #12]
 1708 00d2 012B     		cmp	r3, #1
 1709 00d4 01D1     		bne	.L126
 1710              		.loc 1 1145 0 is_stmt 0 discriminator 1
 1711 00d6 0223     		movs	r3, #2
 1712 00d8 6CE0     		b	.L118
 1713              	.L126:
 1714              		.loc 1 1146 0 is_stmt 1
 1715 00da 039B     		ldr	r3, [sp, #12]
 1716 00dc B3F1FF3F 		cmp	r3, #-1
 1717 00e0 01D1     		bne	.L127
 1718              		.loc 1 1146 0 is_stmt 0 discriminator 1
 1719 00e2 0123     		movs	r3, #1
 1720 00e4 66E0     		b	.L118
 1721              	.L127:
 1722              		.loc 1 1148 0 is_stmt 1
 1723 00e6 019B     		ldr	r3, [sp, #4]
 1724 00e8 1B68     		ldr	r3, [r3]
 1725 00ea 1846     		mov	r0, r3
 1726 00ec 0021     		movs	r1, #0
 1727 00ee FFF7FEFF 		bl	move_window
 1728 00f2 0346     		mov	r3, r0
 1729 00f4 002B     		cmp	r3, #0
 1730 00f6 01D0     		beq	.L128
 1731              		.loc 1 1148 0 is_stmt 0 discriminator 1
 1732 00f8 0123     		movs	r3, #1
 1733 00fa 5BE0     		b	.L118
 1734              	.L128:
 1735              		.loc 1 1149 0 is_stmt 1
 1736 00fc 019B     		ldr	r3, [sp, #4]
 1737 00fe 1B68     		ldr	r3, [r3]
 1738 0100 3033     		adds	r3, r3, #48
 1739 0102 1846     		mov	r0, r3
 1740 0104 0021     		movs	r1, #0
 1741 0106 4FF40072 		mov	r2, #512
 1742 010a FFF7FEFF 		bl	mem_set
 1743              		.loc 1 1150 0
 1744 010e 019B     		ldr	r3, [sp, #4]
 1745 0110 1C68     		ldr	r4, [r3]
 1746 0112 019B     		ldr	r3, [sp, #4]
 1747 0114 1B68     		ldr	r3, [r3]
 1748 0116 1846     		mov	r0, r3
 1749 0118 0399     		ldr	r1, [sp, #12]
 1750 011a FFF7FEFF 		bl	clust2sect
 1751 011e 0346     		mov	r3, r0
 1752 0120 E362     		str	r3, [r4, #44]
ARM GAS  /tmp/ccIWRJEN.s 			page 32


 1753              		.loc 1 1151 0
 1754 0122 0023     		movs	r3, #0
 1755 0124 8DF80B30 		strb	r3, [sp, #11]
 1756 0128 18E0     		b	.L129
 1757              	.L131:
 1758              		.loc 1 1152 0
 1759 012a 019B     		ldr	r3, [sp, #4]
 1760 012c 1B68     		ldr	r3, [r3]
 1761 012e 0122     		movs	r2, #1
 1762 0130 1A71     		strb	r2, [r3, #4]
 1763              		.loc 1 1153 0
 1764 0132 019B     		ldr	r3, [sp, #4]
 1765 0134 1B68     		ldr	r3, [r3]
 1766 0136 1846     		mov	r0, r3
 1767 0138 0021     		movs	r1, #0
 1768 013a FFF7FEFF 		bl	move_window
 1769 013e 0346     		mov	r3, r0
 1770 0140 002B     		cmp	r3, #0
 1771 0142 01D0     		beq	.L130
 1772              		.loc 1 1153 0 is_stmt 0 discriminator 1
 1773 0144 0123     		movs	r3, #1
 1774 0146 35E0     		b	.L118
 1775              	.L130:
 1776              		.loc 1 1154 0 is_stmt 1
 1777 0148 019B     		ldr	r3, [sp, #4]
 1778 014a 1B68     		ldr	r3, [r3]
 1779 014c DA6A     		ldr	r2, [r3, #44]
 1780 014e 0132     		adds	r2, r2, #1
 1781 0150 DA62     		str	r2, [r3, #44]
 1782              		.loc 1 1151 0
 1783 0152 9DF80B30 		ldrb	r3, [sp, #11]	@ zero_extendqisi2
 1784 0156 0133     		adds	r3, r3, #1
 1785 0158 8DF80B30 		strb	r3, [sp, #11]
 1786              	.L129:
 1787              		.loc 1 1151 0 is_stmt 0 discriminator 1
 1788 015c 019B     		ldr	r3, [sp, #4]
 1789 015e 1B68     		ldr	r3, [r3]
 1790 0160 9B78     		ldrb	r3, [r3, #2]	@ zero_extendqisi2
 1791 0162 9DF80B20 		ldrb	r2, [sp, #11]	@ zero_extendqisi2
 1792 0166 9A42     		cmp	r2, r3
 1793 0168 DFD3     		bcc	.L131
 1794              		.loc 1 1156 0 is_stmt 1
 1795 016a 019B     		ldr	r3, [sp, #4]
 1796 016c 1B68     		ldr	r3, [r3]
 1797 016e 019A     		ldr	r2, [sp, #4]
 1798 0170 1268     		ldr	r2, [r2]
 1799 0172 D16A     		ldr	r1, [r2, #44]
 1800 0174 9DF80B20 		ldrb	r2, [sp, #11]	@ zero_extendqisi2
 1801 0178 8A1A     		subs	r2, r1, r2
 1802 017a DA62     		str	r2, [r3, #44]
 1803              	.L123:
 1804              	.LBE3:
 1805              		.loc 1 1161 0
 1806 017c 019B     		ldr	r3, [sp, #4]
 1807 017e 039A     		ldr	r2, [sp, #12]
 1808 0180 DA60     		str	r2, [r3, #12]
 1809              		.loc 1 1162 0
ARM GAS  /tmp/ccIWRJEN.s 			page 33


 1810 0182 019B     		ldr	r3, [sp, #4]
 1811 0184 1B68     		ldr	r3, [r3]
 1812 0186 1846     		mov	r0, r3
 1813 0188 0399     		ldr	r1, [sp, #12]
 1814 018a FFF7FEFF 		bl	clust2sect
 1815 018e 0246     		mov	r2, r0
 1816 0190 019B     		ldr	r3, [sp, #4]
 1817 0192 1A61     		str	r2, [r3, #16]
 1818              	.L119:
 1819              		.loc 1 1167 0
 1820 0194 019B     		ldr	r3, [sp, #4]
 1821 0196 BDF80820 		ldrh	r2, [sp, #8]	@ movhi
 1822 019a DA80     		strh	r2, [r3, #6]	@ movhi
 1823              		.loc 1 1168 0
 1824 019c 019B     		ldr	r3, [sp, #4]
 1825 019e 1A68     		ldr	r2, [r3]
 1826 01a0 BDF80830 		ldrh	r3, [sp, #8]
 1827 01a4 03F00F03 		and	r3, r3, #15
 1828 01a8 5B01     		lsls	r3, r3, #5
 1829 01aa 3033     		adds	r3, r3, #48
 1830 01ac 1A44     		add	r2, r2, r3
 1831 01ae 019B     		ldr	r3, [sp, #4]
 1832 01b0 5A61     		str	r2, [r3, #20]
 1833              		.loc 1 1170 0
 1834 01b2 0023     		movs	r3, #0
 1835              	.L118:
 1836              		.loc 1 1171 0
 1837 01b4 1846     		mov	r0, r3
 1838 01b6 04B0     		add	sp, sp, #16
 1839              		@ sp needed
 1840 01b8 10BD     		pop	{r4, pc}
 1841              		.cfi_endproc
 1842              	.LFE19:
 1843              		.size	dir_next, .-dir_next
 1844 01ba 00BFAFF3 		.section	.rodata.LfnOfs,"a",%progbits
 1844      0080
 1845              		.align	2
 1846              		.type	LfnOfs, %object
 1847              		.size	LfnOfs, 13
 1848              	LfnOfs:
 1849 0000 01       		.byte	1
 1850 0001 03       		.byte	3
 1851 0002 05       		.byte	5
 1852 0003 07       		.byte	7
 1853 0004 09       		.byte	9
 1854 0005 0E       		.byte	14
 1855 0006 10       		.byte	16
 1856 0007 12       		.byte	18
 1857 0008 14       		.byte	20
 1858 0009 16       		.byte	22
 1859 000a 18       		.byte	24
 1860 000b 1C       		.byte	28
 1861 000c 1E       		.byte	30
 1862 000d 000000   		.section	.text.cmp_lfn,"ax",%progbits
 1863              		.align	2
 1864              		.p2align 4,,15
 1865              		.thumb
ARM GAS  /tmp/ccIWRJEN.s 			page 34


 1866              		.thumb_func
 1867              		.type	cmp_lfn, %function
 1868              	cmp_lfn:
 1869              	.LFB20:
 1870              		.loc 1 1189 0
 1871              		.cfi_startproc
 1872              		@ args = 0, pretend = 0, frame = 24
 1873              		@ frame_needed = 0, uses_anonymous_args = 0
 1874 0000 00B5     		push	{lr}
 1875              		.cfi_def_cfa_offset 4
 1876              		.cfi_offset 14, -4
 1877 0002 87B0     		sub	sp, sp, #28
 1878              		.cfi_def_cfa_offset 32
 1879 0004 0190     		str	r0, [sp, #4]
 1880 0006 0091     		str	r1, [sp]
 1881              		.loc 1 1194 0
 1882 0008 009B     		ldr	r3, [sp]
 1883 000a 1B78     		ldrb	r3, [r3]	@ zero_extendqisi2
 1884 000c 23F04003 		bic	r3, r3, #64
 1885 0010 5A1E     		subs	r2, r3, #1
 1886 0012 1346     		mov	r3, r2
 1887 0014 5B00     		lsls	r3, r3, #1
 1888 0016 1344     		add	r3, r3, r2
 1889 0018 9B00     		lsls	r3, r3, #2
 1890 001a 1344     		add	r3, r3, r2
 1891 001c 0593     		str	r3, [sp, #20]
 1892              		.loc 1 1195 0
 1893 001e 0023     		movs	r3, #0
 1894 0020 0493     		str	r3, [sp, #16]
 1895 0022 0123     		movs	r3, #1
 1896 0024 ADF80E30 		strh	r3, [sp, #14]	@ movhi
 1897              	.L137:
 1898              		.loc 1 1197 0
 1899 0028 40F20003 		movw	r3, #:lower16:LfnOfs
 1900 002c C0F20003 		movt	r3, #:upper16:LfnOfs
 1901 0030 049A     		ldr	r2, [sp, #16]
 1902 0032 1344     		add	r3, r3, r2
 1903 0034 1B78     		ldrb	r3, [r3]	@ zero_extendqisi2
 1904 0036 009A     		ldr	r2, [sp]
 1905 0038 1344     		add	r3, r3, r2
 1906 003a 1B88     		ldrh	r3, [r3]	@ movhi
 1907 003c ADF80C30 		strh	r3, [sp, #12]	@ movhi
 1908              		.loc 1 1198 0
 1909 0040 BDF80E30 		ldrh	r3, [sp, #14]
 1910 0044 002B     		cmp	r3, #0
 1911 0046 1BD0     		beq	.L133
 1912              		.loc 1 1199 0
 1913 0048 BDF80C30 		ldrh	r3, [sp, #12]
 1914 004c 1846     		mov	r0, r3
 1915 004e FFF7FEFF 		bl	ff_wtoupper
 1916 0052 0346     		mov	r3, r0
 1917 0054 ADF80E30 		strh	r3, [sp, #14]	@ movhi
 1918              		.loc 1 1200 0
 1919 0058 059B     		ldr	r3, [sp, #20]
 1920 005a FE2B     		cmp	r3, #254
 1921 005c 0ED8     		bhi	.L134
 1922              		.loc 1 1200 0 is_stmt 0 discriminator 1
ARM GAS  /tmp/ccIWRJEN.s 			page 35


 1923 005e 059B     		ldr	r3, [sp, #20]
 1924 0060 5A1C     		adds	r2, r3, #1
 1925 0062 0592     		str	r2, [sp, #20]
 1926 0064 5B00     		lsls	r3, r3, #1
 1927 0066 019A     		ldr	r2, [sp, #4]
 1928 0068 1344     		add	r3, r3, r2
 1929 006a 1B88     		ldrh	r3, [r3]
 1930 006c 1846     		mov	r0, r3
 1931 006e FFF7FEFF 		bl	ff_wtoupper
 1932 0072 0346     		mov	r3, r0
 1933 0074 BDF80E20 		ldrh	r2, [sp, #14]
 1934 0078 9A42     		cmp	r2, r3
 1935 007a 09D0     		beq	.L135
 1936              	.L134:
 1937              		.loc 1 1201 0 is_stmt 1
 1938 007c 0023     		movs	r3, #0
 1939 007e 21E0     		b	.L136
 1940              	.L133:
 1941              		.loc 1 1203 0
 1942 0080 BDF80C20 		ldrh	r2, [sp, #12]
 1943 0084 4FF6FF73 		movw	r3, #65535
 1944 0088 9A42     		cmp	r2, r3
 1945 008a 01D0     		beq	.L135
 1946              		.loc 1 1203 0 is_stmt 0 discriminator 1
 1947 008c 0023     		movs	r3, #0
 1948 008e 19E0     		b	.L136
 1949              	.L135:
 1950              		.loc 1 1205 0 is_stmt 1
 1951 0090 049B     		ldr	r3, [sp, #16]
 1952 0092 0133     		adds	r3, r3, #1
 1953 0094 0493     		str	r3, [sp, #16]
 1954 0096 049B     		ldr	r3, [sp, #16]
 1955 0098 0C2B     		cmp	r3, #12
 1956 009a C5D9     		bls	.L137
 1957              		.loc 1 1207 0
 1958 009c 009B     		ldr	r3, [sp]
 1959 009e 1B78     		ldrb	r3, [r3]	@ zero_extendqisi2
 1960 00a0 03F04003 		and	r3, r3, #64
 1961 00a4 002B     		cmp	r3, #0
 1962 00a6 0CD0     		beq	.L138
 1963              		.loc 1 1207 0 is_stmt 0 discriminator 1
 1964 00a8 BDF80E30 		ldrh	r3, [sp, #14]
 1965 00ac 002B     		cmp	r3, #0
 1966 00ae 08D0     		beq	.L138
 1967 00b0 059B     		ldr	r3, [sp, #20]
 1968 00b2 5B00     		lsls	r3, r3, #1
 1969 00b4 019A     		ldr	r2, [sp, #4]
 1970 00b6 1344     		add	r3, r3, r2
 1971 00b8 1B88     		ldrh	r3, [r3]
 1972 00ba 002B     		cmp	r3, #0
 1973 00bc 01D0     		beq	.L138
 1974              		.loc 1 1208 0 is_stmt 1
 1975 00be 0023     		movs	r3, #0
 1976 00c0 00E0     		b	.L136
 1977              	.L138:
 1978              		.loc 1 1210 0
 1979 00c2 0123     		movs	r3, #1
ARM GAS  /tmp/ccIWRJEN.s 			page 36


 1980              	.L136:
 1981              		.loc 1 1211 0
 1982 00c4 1846     		mov	r0, r3
 1983 00c6 07B0     		add	sp, sp, #28
 1984              		@ sp needed
 1985 00c8 5DF804FB 		ldr	pc, [sp], #4
 1986              		.cfi_endproc
 1987              	.LFE20:
 1988              		.size	cmp_lfn, .-cmp_lfn
 1989 00cc AFF30080 		.section	.text.pick_lfn,"ax",%progbits
 1990              		.align	2
 1991              		.p2align 4,,15
 1992              		.thumb
 1993              		.thumb_func
 1994              		.type	pick_lfn, %function
 1995              	pick_lfn:
 1996              	.LFB21:
 1997              		.loc 1 1220 0
 1998              		.cfi_startproc
 1999              		@ args = 0, pretend = 0, frame = 24
 2000              		@ frame_needed = 0, uses_anonymous_args = 0
 2001              		@ link register save eliminated.
 2002 0000 86B0     		sub	sp, sp, #24
 2003              		.cfi_def_cfa_offset 24
 2004 0002 0190     		str	r0, [sp, #4]
 2005 0004 0091     		str	r1, [sp]
 2006              		.loc 1 1225 0
 2007 0006 009B     		ldr	r3, [sp]
 2008 0008 1B78     		ldrb	r3, [r3]	@ zero_extendqisi2
 2009 000a 03F03F03 		and	r3, r3, #63
 2010 000e 5A1E     		subs	r2, r3, #1
 2011 0010 1346     		mov	r3, r2
 2012 0012 5B00     		lsls	r3, r3, #1
 2013 0014 1344     		add	r3, r3, r2
 2014 0016 9B00     		lsls	r3, r3, #2
 2015 0018 1344     		add	r3, r3, r2
 2016 001a 0593     		str	r3, [sp, #20]
 2017              		.loc 1 1227 0
 2018 001c 0023     		movs	r3, #0
 2019 001e 0493     		str	r3, [sp, #16]
 2020 0020 0123     		movs	r3, #1
 2021 0022 ADF80E30 		strh	r3, [sp, #14]	@ movhi
 2022              	.L144:
 2023              		.loc 1 1229 0
 2024 0026 40F20003 		movw	r3, #:lower16:LfnOfs
 2025 002a C0F20003 		movt	r3, #:upper16:LfnOfs
 2026 002e 049A     		ldr	r2, [sp, #16]
 2027 0030 1344     		add	r3, r3, r2
 2028 0032 1B78     		ldrb	r3, [r3]	@ zero_extendqisi2
 2029 0034 009A     		ldr	r2, [sp]
 2030 0036 1344     		add	r3, r3, r2
 2031 0038 1B88     		ldrh	r3, [r3]	@ movhi
 2032 003a ADF80C30 		strh	r3, [sp, #12]	@ movhi
 2033              		.loc 1 1230 0
 2034 003e BDF80E30 		ldrh	r3, [sp, #14]
 2035 0042 002B     		cmp	r3, #0
 2036 0044 12D0     		beq	.L140
ARM GAS  /tmp/ccIWRJEN.s 			page 37


 2037              		.loc 1 1231 0
 2038 0046 059B     		ldr	r3, [sp, #20]
 2039 0048 FE2B     		cmp	r3, #254
 2040 004a 01D9     		bls	.L141
 2041              		.loc 1 1231 0 is_stmt 0 discriminator 1
 2042 004c 0023     		movs	r3, #0
 2043 004e 2DE0     		b	.L142
 2044              	.L141:
 2045              		.loc 1 1232 0 is_stmt 1
 2046 0050 059B     		ldr	r3, [sp, #20]
 2047 0052 5A1C     		adds	r2, r3, #1
 2048 0054 0592     		str	r2, [sp, #20]
 2049 0056 5B00     		lsls	r3, r3, #1
 2050 0058 019A     		ldr	r2, [sp, #4]
 2051 005a 1344     		add	r3, r3, r2
 2052 005c BDF80C20 		ldrh	r2, [sp, #12]	@ movhi
 2053 0060 ADF80E20 		strh	r2, [sp, #14]	@ movhi
 2054 0064 BDF80E20 		ldrh	r2, [sp, #14]	@ movhi
 2055 0068 1A80     		strh	r2, [r3]	@ movhi
 2056 006a 07E0     		b	.L143
 2057              	.L140:
 2058              		.loc 1 1234 0
 2059 006c BDF80C20 		ldrh	r2, [sp, #12]
 2060 0070 4FF6FF73 		movw	r3, #65535
 2061 0074 9A42     		cmp	r2, r3
 2062 0076 01D0     		beq	.L143
 2063              		.loc 1 1234 0 is_stmt 0 discriminator 1
 2064 0078 0023     		movs	r3, #0
 2065 007a 17E0     		b	.L142
 2066              	.L143:
 2067              		.loc 1 1236 0 is_stmt 1
 2068 007c 049B     		ldr	r3, [sp, #16]
 2069 007e 0133     		adds	r3, r3, #1
 2070 0080 0493     		str	r3, [sp, #16]
 2071 0082 049B     		ldr	r3, [sp, #16]
 2072 0084 0C2B     		cmp	r3, #12
 2073 0086 CED9     		bls	.L144
 2074              		.loc 1 1238 0
 2075 0088 009B     		ldr	r3, [sp]
 2076 008a 1B78     		ldrb	r3, [r3]	@ zero_extendqisi2
 2077 008c 03F04003 		and	r3, r3, #64
 2078 0090 002B     		cmp	r3, #0
 2079 0092 0AD0     		beq	.L145
 2080              		.loc 1 1239 0
 2081 0094 059B     		ldr	r3, [sp, #20]
 2082 0096 FE2B     		cmp	r3, #254
 2083 0098 01D9     		bls	.L146
 2084              		.loc 1 1239 0 is_stmt 0 discriminator 1
 2085 009a 0023     		movs	r3, #0
 2086 009c 06E0     		b	.L142
 2087              	.L146:
 2088              		.loc 1 1240 0 is_stmt 1
 2089 009e 059B     		ldr	r3, [sp, #20]
 2090 00a0 5B00     		lsls	r3, r3, #1
 2091 00a2 019A     		ldr	r2, [sp, #4]
 2092 00a4 1344     		add	r3, r3, r2
 2093 00a6 0022     		movs	r2, #0
ARM GAS  /tmp/ccIWRJEN.s 			page 38


 2094 00a8 1A80     		strh	r2, [r3]	@ movhi
 2095              	.L145:
 2096              		.loc 1 1243 0
 2097 00aa 0123     		movs	r3, #1
 2098              	.L142:
 2099              		.loc 1 1244 0
 2100 00ac 1846     		mov	r0, r3
 2101 00ae 06B0     		add	sp, sp, #24
 2102              		@ sp needed
 2103 00b0 7047     		bx	lr
 2104              		.cfi_endproc
 2105              	.LFE21:
 2106              		.size	pick_lfn, .-pick_lfn
 2107 00b2 00BFAFF3 		.section	.text.fit_lfn,"ax",%progbits
 2107      0080AFF3 
 2107      0080AFF3 
 2107      0080
 2108              		.align	2
 2109              		.p2align 4,,15
 2110              		.thumb
 2111              		.thumb_func
 2112              		.type	fit_lfn, %function
 2113              	fit_lfn:
 2114              	.LFB22:
 2115              		.loc 1 1255 0
 2116              		.cfi_startproc
 2117              		@ args = 0, pretend = 0, frame = 32
 2118              		@ frame_needed = 0, uses_anonymous_args = 0
 2119              		@ link register save eliminated.
 2120 0000 88B0     		sub	sp, sp, #32
 2121              		.cfi_def_cfa_offset 32
 2122 0002 0390     		str	r0, [sp, #12]
 2123 0004 0291     		str	r1, [sp, #8]
 2124 0006 8DF80720 		strb	r2, [sp, #7]
 2125 000a 8DF80630 		strb	r3, [sp, #6]
 2126              		.loc 1 1260 0
 2127 000e 029B     		ldr	r3, [sp, #8]
 2128 0010 0D33     		adds	r3, r3, #13
 2129 0012 9DF80620 		ldrb	r2, [sp, #6]
 2130 0016 1A70     		strb	r2, [r3]
 2131              		.loc 1 1261 0
 2132 0018 029B     		ldr	r3, [sp, #8]
 2133 001a 0B33     		adds	r3, r3, #11
 2134 001c 0F22     		movs	r2, #15
 2135 001e 1A70     		strb	r2, [r3]
 2136              		.loc 1 1262 0
 2137 0020 029B     		ldr	r3, [sp, #8]
 2138 0022 0C33     		adds	r3, r3, #12
 2139 0024 0022     		movs	r2, #0
 2140 0026 1A70     		strb	r2, [r3]
 2141              		.loc 1 1263 0
 2142 0028 029B     		ldr	r3, [sp, #8]
 2143 002a 1A33     		adds	r3, r3, #26
 2144 002c 0022     		movs	r2, #0
 2145 002e 1A80     		strh	r2, [r3]	@ movhi
 2146              		.loc 1 1265 0
 2147 0030 9DF80730 		ldrb	r3, [sp, #7]	@ zero_extendqisi2
ARM GAS  /tmp/ccIWRJEN.s 			page 39


 2148 0034 5A1E     		subs	r2, r3, #1
 2149 0036 1346     		mov	r3, r2
 2150 0038 5B00     		lsls	r3, r3, #1
 2151 003a 1344     		add	r3, r3, r2
 2152 003c 9B00     		lsls	r3, r3, #2
 2153 003e 1344     		add	r3, r3, r2
 2154 0040 0793     		str	r3, [sp, #28]
 2155              		.loc 1 1266 0
 2156 0042 0023     		movs	r3, #0
 2157 0044 ADF81630 		strh	r3, [sp, #22]	@ movhi
 2158 0048 0023     		movs	r3, #0
 2159 004a 0693     		str	r3, [sp, #24]
 2160              	.L150:
 2161              		.loc 1 1268 0
 2162 004c BDF81620 		ldrh	r2, [sp, #22]
 2163 0050 4FF6FF73 		movw	r3, #65535
 2164 0054 9A42     		cmp	r2, r3
 2165 0056 08D0     		beq	.L148
 2166              		.loc 1 1268 0 is_stmt 0 discriminator 1
 2167 0058 079B     		ldr	r3, [sp, #28]
 2168 005a 5A1C     		adds	r2, r3, #1
 2169 005c 0792     		str	r2, [sp, #28]
 2170 005e 5B00     		lsls	r3, r3, #1
 2171 0060 039A     		ldr	r2, [sp, #12]
 2172 0062 1344     		add	r3, r3, r2
 2173 0064 1B88     		ldrh	r3, [r3]	@ movhi
 2174 0066 ADF81630 		strh	r3, [sp, #22]	@ movhi
 2175              	.L148:
 2176              		.loc 1 1269 0 is_stmt 1
 2177 006a 40F20003 		movw	r3, #:lower16:LfnOfs
 2178 006e C0F20003 		movt	r3, #:upper16:LfnOfs
 2179 0072 069A     		ldr	r2, [sp, #24]
 2180 0074 1344     		add	r3, r3, r2
 2181 0076 1B78     		ldrb	r3, [r3]	@ zero_extendqisi2
 2182 0078 029A     		ldr	r2, [sp, #8]
 2183 007a 1344     		add	r3, r3, r2
 2184 007c BDF81620 		ldrh	r2, [sp, #22]	@ movhi
 2185 0080 1A80     		strh	r2, [r3]	@ movhi
 2186              		.loc 1 1270 0
 2187 0082 BDF81630 		ldrh	r3, [sp, #22]
 2188 0086 002B     		cmp	r3, #0
 2189 0088 03D1     		bne	.L149
 2190              		.loc 1 1270 0 is_stmt 0 discriminator 1
 2191 008a 4FF6FF73 		movw	r3, #65535
 2192 008e ADF81630 		strh	r3, [sp, #22]	@ movhi
 2193              	.L149:
 2194              		.loc 1 1271 0 is_stmt 1
 2195 0092 069B     		ldr	r3, [sp, #24]
 2196 0094 0133     		adds	r3, r3, #1
 2197 0096 0693     		str	r3, [sp, #24]
 2198 0098 069B     		ldr	r3, [sp, #24]
 2199 009a 0C2B     		cmp	r3, #12
 2200 009c D6D9     		bls	.L150
 2201              		.loc 1 1272 0
 2202 009e BDF81620 		ldrh	r2, [sp, #22]
 2203 00a2 4FF6FF73 		movw	r3, #65535
 2204 00a6 9A42     		cmp	r2, r3
ARM GAS  /tmp/ccIWRJEN.s 			page 40


 2205 00a8 06D0     		beq	.L151
 2206              		.loc 1 1272 0 is_stmt 0 discriminator 2
 2207 00aa 079B     		ldr	r3, [sp, #28]
 2208 00ac 5B00     		lsls	r3, r3, #1
 2209 00ae 039A     		ldr	r2, [sp, #12]
 2210 00b0 1344     		add	r3, r3, r2
 2211 00b2 1B88     		ldrh	r3, [r3]
 2212 00b4 002B     		cmp	r3, #0
 2213 00b6 05D1     		bne	.L152
 2214              	.L151:
 2215              		.loc 1 1272 0 discriminator 1
 2216 00b8 9DF80730 		ldrb	r3, [sp, #7]
 2217 00bc 43F04003 		orr	r3, r3, #64
 2218 00c0 8DF80730 		strb	r3, [sp, #7]
 2219              	.L152:
 2220              		.loc 1 1273 0 is_stmt 1
 2221 00c4 029B     		ldr	r3, [sp, #8]
 2222 00c6 9DF80720 		ldrb	r2, [sp, #7]
 2223 00ca 1A70     		strb	r2, [r3]
 2224              		.loc 1 1274 0
 2225 00cc 08B0     		add	sp, sp, #32
 2226              		@ sp needed
 2227 00ce 7047     		bx	lr
 2228              		.cfi_endproc
 2229              	.LFE22:
 2230              		.size	fit_lfn, .-fit_lfn
 2231              		.section	.text.gen_numname,"ax",%progbits
 2232              		.align	2
 2233              		.p2align 4,,15
 2234              		.global	gen_numname
 2235              		.thumb
 2236              		.thumb_func
 2237              		.type	gen_numname, %function
 2238              	gen_numname:
 2239              	.LFB23:
 2240              		.loc 1 1291 0
 2241              		.cfi_startproc
 2242              		@ args = 0, pretend = 0, frame = 40
 2243              		@ frame_needed = 0, uses_anonymous_args = 0
 2244 0000 00B5     		push	{lr}
 2245              		.cfi_def_cfa_offset 4
 2246              		.cfi_offset 14, -4
 2247 0002 8BB0     		sub	sp, sp, #44
 2248              		.cfi_def_cfa_offset 48
 2249 0004 0390     		str	r0, [sp, #12]
 2250 0006 0291     		str	r1, [sp, #8]
 2251 0008 0192     		str	r2, [sp, #4]
 2252 000a ADF80230 		strh	r3, [sp, #2]	@ movhi
 2253              		.loc 1 1296 0
 2254 000e 0398     		ldr	r0, [sp, #12]
 2255 0010 0299     		ldr	r1, [sp, #8]
 2256 0012 0B22     		movs	r2, #11
 2257 0014 FFF7FEFF 		bl	mem_cpy
 2258              		.loc 1 1298 0
 2259 0018 BDF80230 		ldrh	r3, [sp, #2]
 2260 001c 052B     		cmp	r3, #5
 2261 001e 11D9     		bls	.L154
ARM GAS  /tmp/ccIWRJEN.s 			page 41


 2262              	.L155:
 2263              		.loc 1 1299 0 discriminator 1
 2264 0020 BDF80230 		ldrh	r3, [sp, #2]	@ movhi
 2265 0024 9AB2     		uxth	r2, r3
 2266 0026 5208     		lsrs	r2, r2, #1
 2267 0028 DB03     		lsls	r3, r3, #15
 2268 002a 1343     		orrs	r3, r3, r2
 2269 002c 9AB2     		uxth	r2, r3
 2270 002e 019B     		ldr	r3, [sp, #4]
 2271 0030 991C     		adds	r1, r3, #2
 2272 0032 0191     		str	r1, [sp, #4]
 2273 0034 1B88     		ldrh	r3, [r3]
 2274 0036 1344     		add	r3, r3, r2
 2275 0038 ADF80230 		strh	r3, [sp, #2]	@ movhi
 2276 003c 019B     		ldr	r3, [sp, #4]
 2277 003e 1B88     		ldrh	r3, [r3]
 2278 0040 002B     		cmp	r3, #0
 2279 0042 EDD1     		bne	.L155
 2280              	.L154:
 2281              		.loc 1 1303 0
 2282 0044 0723     		movs	r3, #7
 2283 0046 0893     		str	r3, [sp, #32]
 2284              	.L157:
 2285              		.loc 1 1305 0
 2286 0048 BDF80230 		ldrh	r3, [sp, #2]	@ movhi
 2287 004c DBB2     		uxtb	r3, r3
 2288 004e 03F00F03 		and	r3, r3, #15
 2289 0052 DBB2     		uxtb	r3, r3
 2290 0054 3033     		adds	r3, r3, #48
 2291 0056 8DF82730 		strb	r3, [sp, #39]
 2292              		.loc 1 1306 0
 2293 005a 9DF82730 		ldrb	r3, [sp, #39]	@ zero_extendqisi2
 2294 005e 392B     		cmp	r3, #57
 2295 0060 04D9     		bls	.L156
 2296              		.loc 1 1306 0 is_stmt 0 discriminator 1
 2297 0062 9DF82730 		ldrb	r3, [sp, #39]
 2298 0066 0733     		adds	r3, r3, #7
 2299 0068 8DF82730 		strb	r3, [sp, #39]
 2300              	.L156:
 2301              		.loc 1 1307 0 is_stmt 1
 2302 006c 089B     		ldr	r3, [sp, #32]
 2303 006e 5A1E     		subs	r2, r3, #1
 2304 0070 0892     		str	r2, [sp, #32]
 2305 0072 0AA9     		add	r1, sp, #40
 2306 0074 0B44     		add	r3, r3, r1
 2307 0076 9DF82720 		ldrb	r2, [sp, #39]
 2308 007a 03F8142C 		strb	r2, [r3, #-20]
 2309              		.loc 1 1308 0
 2310 007e BDF80230 		ldrh	r3, [sp, #2]
 2311 0082 1B09     		lsrs	r3, r3, #4
 2312 0084 ADF80230 		strh	r3, [sp, #2]	@ movhi
 2313              		.loc 1 1309 0
 2314 0088 BDF80230 		ldrh	r3, [sp, #2]
 2315 008c 002B     		cmp	r3, #0
 2316 008e DBD1     		bne	.L157
 2317              		.loc 1 1310 0
 2318 0090 05AA     		add	r2, sp, #20
ARM GAS  /tmp/ccIWRJEN.s 			page 42


 2319 0092 089B     		ldr	r3, [sp, #32]
 2320 0094 1344     		add	r3, r3, r2
 2321 0096 7E22     		movs	r2, #126
 2322 0098 1A70     		strb	r2, [r3]
 2323              		.loc 1 1313 0
 2324 009a 0023     		movs	r3, #0
 2325 009c 0793     		str	r3, [sp, #28]
 2326 009e 02E0     		b	.L158
 2327              	.L160:
 2328 00a0 079B     		ldr	r3, [sp, #28]
 2329 00a2 0133     		adds	r3, r3, #1
 2330 00a4 0793     		str	r3, [sp, #28]
 2331              	.L158:
 2332              		.loc 1 1313 0 is_stmt 0 discriminator 1
 2333 00a6 079A     		ldr	r2, [sp, #28]
 2334 00a8 089B     		ldr	r3, [sp, #32]
 2335 00aa 9A42     		cmp	r2, r3
 2336 00ac 05D2     		bcs	.L159
 2337              		.loc 1 1313 0 discriminator 2
 2338 00ae 039A     		ldr	r2, [sp, #12]
 2339 00b0 079B     		ldr	r3, [sp, #28]
 2340 00b2 1344     		add	r3, r3, r2
 2341 00b4 1B78     		ldrb	r3, [r3]	@ zero_extendqisi2
 2342 00b6 202B     		cmp	r3, #32
 2343 00b8 F2D1     		bne	.L160
 2344              	.L159:
 2345              		.loc 1 1320 0 is_stmt 1
 2346 00ba 079B     		ldr	r3, [sp, #28]
 2347 00bc 5A1C     		adds	r2, r3, #1
 2348 00be 0792     		str	r2, [sp, #28]
 2349 00c0 039A     		ldr	r2, [sp, #12]
 2350 00c2 1A44     		add	r2, r2, r3
 2351 00c4 089B     		ldr	r3, [sp, #32]
 2352 00c6 072B     		cmp	r3, #7
 2353 00c8 07D8     		bhi	.L161
 2354              		.loc 1 1320 0 is_stmt 0 discriminator 1
 2355 00ca 089B     		ldr	r3, [sp, #32]
 2356 00cc 591C     		adds	r1, r3, #1
 2357 00ce 0891     		str	r1, [sp, #32]
 2358 00d0 0AA9     		add	r1, sp, #40
 2359 00d2 0B44     		add	r3, r3, r1
 2360 00d4 13F8143C 		ldrb	r3, [r3, #-20]	@ zero_extendqisi2
 2361 00d8 00E0     		b	.L162
 2362              	.L161:
 2363              		.loc 1 1320 0 discriminator 2
 2364 00da 2023     		movs	r3, #32
 2365              	.L162:
 2366              		.loc 1 1320 0 discriminator 3
 2367 00dc 1370     		strb	r3, [r2]
 2368              		.loc 1 1321 0 is_stmt 1 discriminator 3
 2369 00de 079B     		ldr	r3, [sp, #28]
 2370 00e0 072B     		cmp	r3, #7
 2371 00e2 EAD9     		bls	.L159
 2372              		.loc 1 1322 0
 2373 00e4 0BB0     		add	sp, sp, #44
 2374              		@ sp needed
 2375 00e6 5DF804FB 		ldr	pc, [sp], #4
ARM GAS  /tmp/ccIWRJEN.s 			page 43


 2376              		.cfi_endproc
 2377              	.LFE23:
 2378              		.size	gen_numname, .-gen_numname
 2379 00ea 00BFAFF3 		.section	.text.sum_sfn,"ax",%progbits
 2379      0080
 2380              		.align	2
 2381              		.p2align 4,,15
 2382              		.thumb
 2383              		.thumb_func
 2384              		.type	sum_sfn, %function
 2385              	sum_sfn:
 2386              	.LFB24:
 2387              		.loc 1 1336 0
 2388              		.cfi_startproc
 2389              		@ args = 0, pretend = 0, frame = 16
 2390              		@ frame_needed = 0, uses_anonymous_args = 0
 2391              		@ link register save eliminated.
 2392 0000 84B0     		sub	sp, sp, #16
 2393              		.cfi_def_cfa_offset 16
 2394 0002 0190     		str	r0, [sp, #4]
 2395              		.loc 1 1337 0
 2396 0004 0023     		movs	r3, #0
 2397 0006 8DF80F30 		strb	r3, [sp, #15]
 2398              		.loc 1 1338 0
 2399 000a 0B23     		movs	r3, #11
 2400 000c 0293     		str	r3, [sp, #8]
 2401              	.L164:
 2402              		.loc 1 1340 0 discriminator 1
 2403 000e 9DF80F30 		ldrb	r3, [sp, #15]
 2404 0012 DAB2     		uxtb	r2, r3
 2405 0014 5208     		lsrs	r2, r2, #1
 2406 0016 DB01     		lsls	r3, r3, #7
 2407 0018 1343     		orrs	r3, r3, r2
 2408 001a DAB2     		uxtb	r2, r3
 2409 001c 019B     		ldr	r3, [sp, #4]
 2410 001e 591C     		adds	r1, r3, #1
 2411 0020 0191     		str	r1, [sp, #4]
 2412 0022 1B78     		ldrb	r3, [r3]	@ zero_extendqisi2
 2413 0024 1344     		add	r3, r3, r2
 2414 0026 8DF80F30 		strb	r3, [sp, #15]
 2415 002a 029B     		ldr	r3, [sp, #8]
 2416 002c 013B     		subs	r3, r3, #1
 2417 002e 0293     		str	r3, [sp, #8]
 2418 0030 029B     		ldr	r3, [sp, #8]
 2419 0032 002B     		cmp	r3, #0
 2420 0034 EBD1     		bne	.L164
 2421              		.loc 1 1341 0
 2422 0036 9DF80F30 		ldrb	r3, [sp, #15]	@ zero_extendqisi2
 2423              		.loc 1 1342 0
 2424 003a 1846     		mov	r0, r3
 2425 003c 04B0     		add	sp, sp, #16
 2426              		@ sp needed
 2427 003e 7047     		bx	lr
 2428              		.cfi_endproc
 2429              	.LFE24:
 2430              		.size	sum_sfn, .-sum_sfn
 2431              		.section	.text.dir_find,"ax",%progbits
ARM GAS  /tmp/ccIWRJEN.s 			page 44


 2432              		.align	2
 2433              		.p2align 4,,15
 2434              		.thumb
 2435              		.thumb_func
 2436              		.type	dir_find, %function
 2437              	dir_find:
 2438              	.LFB25:
 2439              		.loc 1 1356 0
 2440              		.cfi_startproc
 2441              		@ args = 0, pretend = 0, frame = 24
 2442              		@ frame_needed = 0, uses_anonymous_args = 0
 2443 0000 00B5     		push	{lr}
 2444              		.cfi_def_cfa_offset 4
 2445              		.cfi_offset 14, -4
 2446 0002 87B0     		sub	sp, sp, #28
 2447              		.cfi_def_cfa_offset 32
 2448 0004 0190     		str	r0, [sp, #4]
 2449              		.loc 1 1363 0
 2450 0006 0198     		ldr	r0, [sp, #4]
 2451 0008 0021     		movs	r1, #0
 2452 000a FFF7FEFF 		bl	dir_sdi
 2453 000e 0346     		mov	r3, r0
 2454 0010 8DF81730 		strb	r3, [sp, #23]
 2455              		.loc 1 1364 0
 2456 0014 9DF81730 		ldrb	r3, [sp, #23]	@ zero_extendqisi2
 2457 0018 002B     		cmp	r3, #0
 2458 001a 02D0     		beq	.L167
 2459              		.loc 1 1364 0 is_stmt 0 discriminator 1
 2460 001c 9DF81730 		ldrb	r3, [sp, #23]	@ zero_extendqisi2
 2461 0020 B2E0     		b	.L168
 2462              	.L167:
 2463              		.loc 1 1367 0 is_stmt 1
 2464 0022 FF23     		movs	r3, #255
 2465 0024 8DF81430 		strb	r3, [sp, #20]
 2466 0028 9DF81430 		ldrb	r3, [sp, #20]
 2467 002c 8DF81530 		strb	r3, [sp, #21]
 2468              	.L181:
 2469              		.loc 1 1370 0
 2470 0030 019B     		ldr	r3, [sp, #4]
 2471 0032 1A68     		ldr	r2, [r3]
 2472 0034 019B     		ldr	r3, [sp, #4]
 2473 0036 1B69     		ldr	r3, [r3, #16]
 2474 0038 1046     		mov	r0, r2
 2475 003a 1946     		mov	r1, r3
 2476 003c FFF7FEFF 		bl	move_window
 2477 0040 0346     		mov	r3, r0
 2478 0042 8DF81730 		strb	r3, [sp, #23]
 2479              		.loc 1 1371 0
 2480 0046 9DF81730 		ldrb	r3, [sp, #23]	@ zero_extendqisi2
 2481 004a 002B     		cmp	r3, #0
 2482 004c 00D0     		beq	.L169
 2483              		.loc 1 1371 0 is_stmt 0 discriminator 1
 2484 004e 99E0     		b	.L170
 2485              	.L169:
 2486              		.loc 1 1372 0 is_stmt 1
 2487 0050 019B     		ldr	r3, [sp, #4]
 2488 0052 5B69     		ldr	r3, [r3, #20]
ARM GAS  /tmp/ccIWRJEN.s 			page 45


 2489 0054 0493     		str	r3, [sp, #16]
 2490              		.loc 1 1373 0
 2491 0056 049B     		ldr	r3, [sp, #16]
 2492 0058 1B78     		ldrb	r3, [r3]
 2493 005a 8DF81630 		strb	r3, [sp, #22]
 2494              		.loc 1 1374 0
 2495 005e 9DF81630 		ldrb	r3, [sp, #22]	@ zero_extendqisi2
 2496 0062 002B     		cmp	r3, #0
 2497 0064 03D1     		bne	.L171
 2498              		.loc 1 1374 0 is_stmt 0 discriminator 1
 2499 0066 0423     		movs	r3, #4
 2500 0068 8DF81730 		strb	r3, [sp, #23]
 2501 006c 8AE0     		b	.L170
 2502              	.L171:
 2503              		.loc 1 1376 0 is_stmt 1
 2504 006e 049B     		ldr	r3, [sp, #16]
 2505 0070 0B33     		adds	r3, r3, #11
 2506 0072 1B78     		ldrb	r3, [r3]	@ zero_extendqisi2
 2507 0074 03F03F03 		and	r3, r3, #63
 2508 0078 8DF80F30 		strb	r3, [sp, #15]
 2509              		.loc 1 1377 0
 2510 007c 9DF81630 		ldrb	r3, [sp, #22]	@ zero_extendqisi2
 2511 0080 E52B     		cmp	r3, #229
 2512 0082 09D0     		beq	.L172
 2513              		.loc 1 1377 0 is_stmt 0 discriminator 1
 2514 0084 9DF80F30 		ldrb	r3, [sp, #15]	@ zero_extendqisi2
 2515 0088 03F00803 		and	r3, r3, #8
 2516 008c 002B     		cmp	r3, #0
 2517 008e 07D0     		beq	.L173
 2518 0090 9DF80F30 		ldrb	r3, [sp, #15]	@ zero_extendqisi2
 2519 0094 0F2B     		cmp	r3, #15
 2520 0096 03D0     		beq	.L173
 2521              	.L172:
 2522              		.loc 1 1378 0 is_stmt 1
 2523 0098 FF23     		movs	r3, #255
 2524 009a 8DF81530 		strb	r3, [sp, #21]
 2525 009e 65E0     		b	.L174
 2526              	.L173:
 2527              		.loc 1 1380 0
 2528 00a0 9DF80F30 		ldrb	r3, [sp, #15]	@ zero_extendqisi2
 2529 00a4 0F2B     		cmp	r3, #15
 2530 00a6 3AD1     		bne	.L175
 2531              		.loc 1 1381 0
 2532 00a8 019B     		ldr	r3, [sp, #4]
 2533 00aa DB69     		ldr	r3, [r3, #28]
 2534 00ac 002B     		cmp	r3, #0
 2535 00ae 5DD0     		beq	.L174
 2536              		.loc 1 1382 0
 2537 00b0 9DF81630 		ldrb	r3, [sp, #22]	@ zero_extendqisi2
 2538 00b4 03F04003 		and	r3, r3, #64
 2539 00b8 002B     		cmp	r3, #0
 2540 00ba 11D0     		beq	.L177
 2541              		.loc 1 1383 0
 2542 00bc 049B     		ldr	r3, [sp, #16]
 2543 00be 5B7B     		ldrb	r3, [r3, #13]
 2544 00c0 8DF81430 		strb	r3, [sp, #20]
 2545              		.loc 1 1384 0
ARM GAS  /tmp/ccIWRJEN.s 			page 46


 2546 00c4 9DF81630 		ldrb	r3, [sp, #22]
 2547 00c8 23F04003 		bic	r3, r3, #64
 2548 00cc 8DF81630 		strb	r3, [sp, #22]
 2549 00d0 9DF81630 		ldrb	r3, [sp, #22]
 2550 00d4 8DF81530 		strb	r3, [sp, #21]
 2551              		.loc 1 1385 0
 2552 00d8 019B     		ldr	r3, [sp, #4]
 2553 00da DA88     		ldrh	r2, [r3, #6]
 2554 00dc 019B     		ldr	r3, [sp, #4]
 2555 00de 1A84     		strh	r2, [r3, #32]	@ movhi
 2556              	.L177:
 2557              		.loc 1 1388 0
 2558 00e0 9DF81620 		ldrb	r2, [sp, #22]	@ zero_extendqisi2
 2559 00e4 9DF81530 		ldrb	r3, [sp, #21]	@ zero_extendqisi2
 2560 00e8 9A42     		cmp	r2, r3
 2561 00ea 14D1     		bne	.L178
 2562              		.loc 1 1388 0 is_stmt 0 discriminator 1
 2563 00ec 049B     		ldr	r3, [sp, #16]
 2564 00ee 0D33     		adds	r3, r3, #13
 2565 00f0 1B78     		ldrb	r3, [r3]	@ zero_extendqisi2
 2566 00f2 9DF81420 		ldrb	r2, [sp, #20]	@ zero_extendqisi2
 2567 00f6 9A42     		cmp	r2, r3
 2568 00f8 0DD1     		bne	.L178
 2569 00fa 019B     		ldr	r3, [sp, #4]
 2570 00fc DB69     		ldr	r3, [r3, #28]
 2571 00fe 1846     		mov	r0, r3
 2572 0100 0499     		ldr	r1, [sp, #16]
 2573 0102 FFF7FEFF 		bl	cmp_lfn
 2574 0106 0346     		mov	r3, r0
 2575 0108 002B     		cmp	r3, #0
 2576 010a 04D0     		beq	.L178
 2577 010c 9DF81530 		ldrb	r3, [sp, #21]
 2578 0110 013B     		subs	r3, r3, #1
 2579 0112 DBB2     		uxtb	r3, r3
 2580 0114 00E0     		b	.L179
 2581              	.L178:
 2582              		.loc 1 1388 0 discriminator 2
 2583 0116 FF23     		movs	r3, #255
 2584              	.L179:
 2585              		.loc 1 1388 0 discriminator 3
 2586 0118 8DF81530 		strb	r3, [sp, #21]
 2587 011c 26E0     		b	.L174
 2588              	.L175:
 2589              		.loc 1 1391 0 is_stmt 1
 2590 011e 9DF81530 		ldrb	r3, [sp, #21]	@ zero_extendqisi2
 2591 0122 002B     		cmp	r3, #0
 2592 0124 08D1     		bne	.L180
 2593              		.loc 1 1391 0 is_stmt 0 discriminator 1
 2594 0126 0498     		ldr	r0, [sp, #16]
 2595 0128 FFF7FEFF 		bl	sum_sfn
 2596 012c 0346     		mov	r3, r0
 2597 012e 9DF81420 		ldrb	r2, [sp, #20]	@ zero_extendqisi2
 2598 0132 9A42     		cmp	r2, r3
 2599 0134 00D1     		bne	.L180
 2600 0136 25E0     		b	.L170
 2601              	.L180:
 2602              		.loc 1 1392 0 is_stmt 1
ARM GAS  /tmp/ccIWRJEN.s 			page 47


 2603 0138 FF23     		movs	r3, #255
 2604 013a 8DF81530 		strb	r3, [sp, #21]
 2605 013e 019B     		ldr	r3, [sp, #4]
 2606 0140 4FF6FF72 		movw	r2, #65535
 2607 0144 1A84     		strh	r2, [r3, #32]	@ movhi
 2608              		.loc 1 1393 0
 2609 0146 019B     		ldr	r3, [sp, #4]
 2610 0148 9B69     		ldr	r3, [r3, #24]
 2611 014a 0B33     		adds	r3, r3, #11
 2612 014c 1B78     		ldrb	r3, [r3]	@ zero_extendqisi2
 2613 014e 03F00103 		and	r3, r3, #1
 2614 0152 002B     		cmp	r3, #0
 2615 0154 0AD1     		bne	.L174
 2616              		.loc 1 1393 0 is_stmt 0 discriminator 1
 2617 0156 019B     		ldr	r3, [sp, #4]
 2618 0158 9B69     		ldr	r3, [r3, #24]
 2619 015a 0498     		ldr	r0, [sp, #16]
 2620 015c 1946     		mov	r1, r3
 2621 015e 0B22     		movs	r2, #11
 2622 0160 FFF7FEFF 		bl	mem_cmp
 2623 0164 0346     		mov	r3, r0
 2624 0166 002B     		cmp	r3, #0
 2625 0168 00D1     		bne	.L174
 2626 016a 0BE0     		b	.L170
 2627              	.L174:
 2628              		.loc 1 1400 0 is_stmt 1
 2629 016c 0198     		ldr	r0, [sp, #4]
 2630 016e 0021     		movs	r1, #0
 2631 0170 FFF7FEFF 		bl	dir_next
 2632 0174 0346     		mov	r3, r0
 2633 0176 8DF81730 		strb	r3, [sp, #23]
 2634              		.loc 1 1401 0
 2635 017a 9DF81730 		ldrb	r3, [sp, #23]	@ zero_extendqisi2
 2636 017e 002B     		cmp	r3, #0
 2637 0180 3FF456AF 		beq	.L181
 2638              	.L170:
 2639              		.loc 1 1403 0
 2640 0184 9DF81730 		ldrb	r3, [sp, #23]	@ zero_extendqisi2
 2641              	.L168:
 2642              		.loc 1 1404 0
 2643 0188 1846     		mov	r0, r3
 2644 018a 07B0     		add	sp, sp, #28
 2645              		@ sp needed
 2646 018c 5DF804FB 		ldr	pc, [sp], #4
 2647              		.cfi_endproc
 2648              	.LFE25:
 2649              		.size	dir_find, .-dir_find
 2650              		.section	.text.dir_read,"ax",%progbits
 2651              		.align	2
 2652              		.p2align 4,,15
 2653              		.thumb
 2654              		.thumb_func
 2655              		.type	dir_read, %function
 2656              	dir_read:
 2657              	.LFB26:
 2658              		.loc 1 1417 0
 2659              		.cfi_startproc
ARM GAS  /tmp/ccIWRJEN.s 			page 48


 2660              		@ args = 0, pretend = 0, frame = 24
 2661              		@ frame_needed = 0, uses_anonymous_args = 0
 2662 0000 00B5     		push	{lr}
 2663              		.cfi_def_cfa_offset 4
 2664              		.cfi_offset 14, -4
 2665 0002 87B0     		sub	sp, sp, #28
 2666              		.cfi_def_cfa_offset 32
 2667 0004 0190     		str	r0, [sp, #4]
 2668              		.loc 1 1421 0
 2669 0006 FF23     		movs	r3, #255
 2670 0008 8DF81530 		strb	r3, [sp, #21]
 2671 000c FF23     		movs	r3, #255
 2672 000e 8DF81430 		strb	r3, [sp, #20]
 2673              		.loc 1 1424 0
 2674 0012 0423     		movs	r3, #4
 2675 0014 8DF81730 		strb	r3, [sp, #23]
 2676              		.loc 1 1425 0
 2677 0018 94E0     		b	.L183
 2678              	.L196:
 2679              		.loc 1 1426 0
 2680 001a 019B     		ldr	r3, [sp, #4]
 2681 001c 1A68     		ldr	r2, [r3]
 2682 001e 019B     		ldr	r3, [sp, #4]
 2683 0020 1B69     		ldr	r3, [r3, #16]
 2684 0022 1046     		mov	r0, r2
 2685 0024 1946     		mov	r1, r3
 2686 0026 FFF7FEFF 		bl	move_window
 2687 002a 0346     		mov	r3, r0
 2688 002c 8DF81730 		strb	r3, [sp, #23]
 2689              		.loc 1 1427 0
 2690 0030 9DF81730 		ldrb	r3, [sp, #23]	@ zero_extendqisi2
 2691 0034 002B     		cmp	r3, #0
 2692 0036 00D0     		beq	.L184
 2693              		.loc 1 1427 0 is_stmt 0 discriminator 1
 2694 0038 89E0     		b	.L185
 2695              	.L184:
 2696              		.loc 1 1428 0 is_stmt 1
 2697 003a 019B     		ldr	r3, [sp, #4]
 2698 003c 5B69     		ldr	r3, [r3, #20]
 2699 003e 0493     		str	r3, [sp, #16]
 2700              		.loc 1 1429 0
 2701 0040 049B     		ldr	r3, [sp, #16]
 2702 0042 1B78     		ldrb	r3, [r3]
 2703 0044 8DF81630 		strb	r3, [sp, #22]
 2704              		.loc 1 1430 0
 2705 0048 9DF81630 		ldrb	r3, [sp, #22]	@ zero_extendqisi2
 2706 004c 002B     		cmp	r3, #0
 2707 004e 03D1     		bne	.L186
 2708              		.loc 1 1430 0 is_stmt 0 discriminator 1
 2709 0050 0423     		movs	r3, #4
 2710 0052 8DF81730 		strb	r3, [sp, #23]
 2711 0056 7AE0     		b	.L185
 2712              	.L186:
 2713              		.loc 1 1432 0 is_stmt 1
 2714 0058 049B     		ldr	r3, [sp, #16]
 2715 005a 0B33     		adds	r3, r3, #11
 2716 005c 1B78     		ldrb	r3, [r3]	@ zero_extendqisi2
ARM GAS  /tmp/ccIWRJEN.s 			page 49


 2717 005e 03F03F03 		and	r3, r3, #63
 2718 0062 8DF80F30 		strb	r3, [sp, #15]
 2719              		.loc 1 1433 0
 2720 0066 9DF81630 		ldrb	r3, [sp, #22]	@ zero_extendqisi2
 2721 006a E52B     		cmp	r3, #229
 2722 006c 0DD0     		beq	.L187
 2723              		.loc 1 1433 0 is_stmt 0 discriminator 1
 2724 006e 9DF81630 		ldrb	r3, [sp, #22]	@ zero_extendqisi2
 2725 0072 2E2B     		cmp	r3, #46
 2726 0074 09D0     		beq	.L187
 2727 0076 9DF80F30 		ldrb	r3, [sp, #15]	@ zero_extendqisi2
 2728 007a 03F00803 		and	r3, r3, #8
 2729 007e 002B     		cmp	r3, #0
 2730 0080 07D0     		beq	.L188
 2731 0082 9DF80F30 		ldrb	r3, [sp, #15]	@ zero_extendqisi2
 2732 0086 0F2B     		cmp	r3, #15
 2733 0088 03D0     		beq	.L188
 2734              	.L187:
 2735              		.loc 1 1434 0 is_stmt 1
 2736 008a FF23     		movs	r3, #255
 2737 008c 8DF81530 		strb	r3, [sp, #21]
 2738 0090 4CE0     		b	.L189
 2739              	.L188:
 2740              		.loc 1 1436 0
 2741 0092 9DF80F30 		ldrb	r3, [sp, #15]	@ zero_extendqisi2
 2742 0096 0F2B     		cmp	r3, #15
 2743 0098 36D1     		bne	.L190
 2744              		.loc 1 1437 0
 2745 009a 9DF81630 		ldrb	r3, [sp, #22]	@ zero_extendqisi2
 2746 009e 03F04003 		and	r3, r3, #64
 2747 00a2 002B     		cmp	r3, #0
 2748 00a4 11D0     		beq	.L191
 2749              		.loc 1 1438 0
 2750 00a6 049B     		ldr	r3, [sp, #16]
 2751 00a8 5B7B     		ldrb	r3, [r3, #13]
 2752 00aa 8DF81430 		strb	r3, [sp, #20]
 2753              		.loc 1 1439 0
 2754 00ae 9DF81630 		ldrb	r3, [sp, #22]
 2755 00b2 23F04003 		bic	r3, r3, #64
 2756 00b6 8DF81630 		strb	r3, [sp, #22]
 2757 00ba 9DF81630 		ldrb	r3, [sp, #22]
 2758 00be 8DF81530 		strb	r3, [sp, #21]
 2759              		.loc 1 1440 0
 2760 00c2 019B     		ldr	r3, [sp, #4]
 2761 00c4 DA88     		ldrh	r2, [r3, #6]
 2762 00c6 019B     		ldr	r3, [sp, #4]
 2763 00c8 1A84     		strh	r2, [r3, #32]	@ movhi
 2764              	.L191:
 2765              		.loc 1 1443 0
 2766 00ca 9DF81620 		ldrb	r2, [sp, #22]	@ zero_extendqisi2
 2767 00ce 9DF81530 		ldrb	r3, [sp, #21]	@ zero_extendqisi2
 2768 00d2 9A42     		cmp	r2, r3
 2769 00d4 14D1     		bne	.L192
 2770              		.loc 1 1443 0 is_stmt 0 discriminator 1
 2771 00d6 049B     		ldr	r3, [sp, #16]
 2772 00d8 0D33     		adds	r3, r3, #13
 2773 00da 1B78     		ldrb	r3, [r3]	@ zero_extendqisi2
ARM GAS  /tmp/ccIWRJEN.s 			page 50


 2774 00dc 9DF81420 		ldrb	r2, [sp, #20]	@ zero_extendqisi2
 2775 00e0 9A42     		cmp	r2, r3
 2776 00e2 0DD1     		bne	.L192
 2777 00e4 019B     		ldr	r3, [sp, #4]
 2778 00e6 DB69     		ldr	r3, [r3, #28]
 2779 00e8 1846     		mov	r0, r3
 2780 00ea 0499     		ldr	r1, [sp, #16]
 2781 00ec FFF7FEFF 		bl	pick_lfn
 2782 00f0 0346     		mov	r3, r0
 2783 00f2 002B     		cmp	r3, #0
 2784 00f4 04D0     		beq	.L192
 2785 00f6 9DF81530 		ldrb	r3, [sp, #21]
 2786 00fa 013B     		subs	r3, r3, #1
 2787 00fc DBB2     		uxtb	r3, r3
 2788 00fe 00E0     		b	.L193
 2789              	.L192:
 2790              		.loc 1 1443 0 discriminator 2
 2791 0100 FF23     		movs	r3, #255
 2792              	.L193:
 2793              		.loc 1 1443 0 discriminator 3
 2794 0102 8DF81530 		strb	r3, [sp, #21]
 2795 0106 11E0     		b	.L189
 2796              	.L190:
 2797              		.loc 1 1445 0 is_stmt 1
 2798 0108 9DF81530 		ldrb	r3, [sp, #21]	@ zero_extendqisi2
 2799 010c 002B     		cmp	r3, #0
 2800 010e 07D1     		bne	.L194
 2801              		.loc 1 1445 0 is_stmt 0 discriminator 1
 2802 0110 0498     		ldr	r0, [sp, #16]
 2803 0112 FFF7FEFF 		bl	sum_sfn
 2804 0116 0346     		mov	r3, r0
 2805 0118 9DF81420 		ldrb	r2, [sp, #20]	@ zero_extendqisi2
 2806 011c 9A42     		cmp	r2, r3
 2807 011e 04D0     		beq	.L195
 2808              	.L194:
 2809              		.loc 1 1446 0 is_stmt 1
 2810 0120 019B     		ldr	r3, [sp, #4]
 2811 0122 4FF6FF72 		movw	r2, #65535
 2812 0126 1A84     		strh	r2, [r3, #32]	@ movhi
 2813              		.loc 1 1447 0
 2814 0128 11E0     		b	.L185
 2815              	.L195:
 2816 012a 10E0     		b	.L185
 2817              	.L189:
 2818              		.loc 1 1454 0
 2819 012c 0198     		ldr	r0, [sp, #4]
 2820 012e 0021     		movs	r1, #0
 2821 0130 FFF7FEFF 		bl	dir_next
 2822 0134 0346     		mov	r3, r0
 2823 0136 8DF81730 		strb	r3, [sp, #23]
 2824              		.loc 1 1455 0
 2825 013a 9DF81730 		ldrb	r3, [sp, #23]	@ zero_extendqisi2
 2826 013e 002B     		cmp	r3, #0
 2827 0140 00D0     		beq	.L183
 2828              		.loc 1 1455 0 is_stmt 0 discriminator 1
 2829 0142 04E0     		b	.L185
 2830              	.L183:
ARM GAS  /tmp/ccIWRJEN.s 			page 51


 2831              		.loc 1 1425 0 is_stmt 1 discriminator 1
 2832 0144 019B     		ldr	r3, [sp, #4]
 2833 0146 1B69     		ldr	r3, [r3, #16]
 2834 0148 002B     		cmp	r3, #0
 2835 014a 7FF466AF 		bne	.L196
 2836              	.L185:
 2837              		.loc 1 1458 0
 2838 014e 9DF81730 		ldrb	r3, [sp, #23]	@ zero_extendqisi2
 2839 0152 002B     		cmp	r3, #0
 2840 0154 02D0     		beq	.L197
 2841              		.loc 1 1458 0 is_stmt 0 discriminator 1
 2842 0156 019B     		ldr	r3, [sp, #4]
 2843 0158 0022     		movs	r2, #0
 2844 015a 1A61     		str	r2, [r3, #16]
 2845              	.L197:
 2846              		.loc 1 1460 0 is_stmt 1
 2847 015c 9DF81730 		ldrb	r3, [sp, #23]	@ zero_extendqisi2
 2848              		.loc 1 1461 0
 2849 0160 1846     		mov	r0, r3
 2850 0162 07B0     		add	sp, sp, #28
 2851              		@ sp needed
 2852 0164 5DF804FB 		ldr	pc, [sp], #4
 2853              		.cfi_endproc
 2854              	.LFE26:
 2855              		.size	dir_read, .-dir_read
 2856 0168 AFF30080 		.section	.text.dir_register,"ax",%progbits
 2856      AFF30080 
 2857              		.align	2
 2858              		.p2align 4,,15
 2859              		.thumb
 2860              		.thumb_func
 2861              		.type	dir_register, %function
 2862              	dir_register:
 2863              	.LFB27:
 2864              		.loc 1 1474 0
 2865              		.cfi_startproc
 2866              		@ args = 0, pretend = 0, frame = 48
 2867              		@ frame_needed = 0, uses_anonymous_args = 0
 2868 0000 00B5     		push	{lr}
 2869              		.cfi_def_cfa_offset 4
 2870              		.cfi_offset 14, -4
 2871 0002 8DB0     		sub	sp, sp, #52
 2872              		.cfi_def_cfa_offset 56
 2873 0004 0190     		str	r0, [sp, #4]
 2874              		.loc 1 1483 0
 2875 0006 019B     		ldr	r3, [sp, #4]
 2876 0008 9B69     		ldr	r3, [r3, #24]
 2877 000a 0993     		str	r3, [sp, #36]
 2878 000c 019B     		ldr	r3, [sp, #4]
 2879 000e DB69     		ldr	r3, [r3, #28]
 2880 0010 0893     		str	r3, [sp, #32]
 2881              		.loc 1 1484 0
 2882 0012 03AB     		add	r3, sp, #12
 2883 0014 1846     		mov	r0, r3
 2884 0016 0999     		ldr	r1, [sp, #36]
 2885 0018 0C22     		movs	r2, #12
 2886 001a FFF7FEFF 		bl	mem_cpy
ARM GAS  /tmp/ccIWRJEN.s 			page 52


 2887              		.loc 1 1489 0
 2888 001e 9DF81730 		ldrb	r3, [sp, #23]	@ zero_extendqisi2
 2889 0022 03F00103 		and	r3, r3, #1
 2890 0026 002B     		cmp	r3, #0
 2891 0028 3BD0     		beq	.L200
 2892              		.loc 1 1490 0
 2893 002a 099B     		ldr	r3, [sp, #36]
 2894 002c 0B33     		adds	r3, r3, #11
 2895 002e 0022     		movs	r2, #0
 2896 0030 1A70     		strb	r2, [r3]
 2897 0032 019B     		ldr	r3, [sp, #4]
 2898 0034 0022     		movs	r2, #0
 2899 0036 DA61     		str	r2, [r3, #28]
 2900              		.loc 1 1491 0
 2901 0038 0123     		movs	r3, #1
 2902 003a ADF82C30 		strh	r3, [sp, #44]	@ movhi
 2903 003e 17E0     		b	.L201
 2904              	.L204:
 2905              		.loc 1 1492 0
 2906 0040 03AA     		add	r2, sp, #12
 2907 0042 BDF82C30 		ldrh	r3, [sp, #44]
 2908 0046 0998     		ldr	r0, [sp, #36]
 2909 0048 1146     		mov	r1, r2
 2910 004a 089A     		ldr	r2, [sp, #32]
 2911 004c FFF7FEFF 		bl	gen_numname
 2912              		.loc 1 1493 0
 2913 0050 0198     		ldr	r0, [sp, #4]
 2914 0052 FFF7FEFF 		bl	dir_find
 2915 0056 0346     		mov	r3, r0
 2916 0058 8DF82F30 		strb	r3, [sp, #47]
 2917              		.loc 1 1494 0
 2918 005c 9DF82F30 		ldrb	r3, [sp, #47]	@ zero_extendqisi2
 2919 0060 002B     		cmp	r3, #0
 2920 0062 00D0     		beq	.L202
 2921              		.loc 1 1494 0 is_stmt 0 discriminator 1
 2922 0064 08E0     		b	.L203
 2923              	.L202:
 2924              		.loc 1 1491 0 is_stmt 1
 2925 0066 BDF82C30 		ldrh	r3, [sp, #44]
 2926 006a 0133     		adds	r3, r3, #1
 2927 006c ADF82C30 		strh	r3, [sp, #44]	@ movhi
 2928              	.L201:
 2929              		.loc 1 1491 0 is_stmt 0 discriminator 1
 2930 0070 BDF82C30 		ldrh	r3, [sp, #44]
 2931 0074 632B     		cmp	r3, #99
 2932 0076 E3D9     		bls	.L204
 2933              	.L203:
 2934              		.loc 1 1496 0 is_stmt 1
 2935 0078 BDF82C30 		ldrh	r3, [sp, #44]
 2936 007c 642B     		cmp	r3, #100
 2937 007e 01D1     		bne	.L205
 2938              		.loc 1 1496 0 is_stmt 0 discriminator 1
 2939 0080 0723     		movs	r3, #7
 2940 0082 14E1     		b	.L225
 2941              	.L205:
 2942              		.loc 1 1497 0 is_stmt 1
 2943 0084 9DF82F30 		ldrb	r3, [sp, #47]	@ zero_extendqisi2
ARM GAS  /tmp/ccIWRJEN.s 			page 53


 2944 0088 042B     		cmp	r3, #4
 2945 008a 02D0     		beq	.L207
 2946              		.loc 1 1497 0 is_stmt 0 discriminator 1
 2947 008c 9DF82F30 		ldrb	r3, [sp, #47]	@ zero_extendqisi2
 2948 0090 0DE1     		b	.L225
 2949              	.L207:
 2950              		.loc 1 1498 0 is_stmt 1
 2951 0092 099B     		ldr	r3, [sp, #36]
 2952 0094 0B33     		adds	r3, r3, #11
 2953 0096 9DF81720 		ldrb	r2, [sp, #23]	@ zero_extendqisi2
 2954 009a 1A70     		strb	r2, [r3]
 2955 009c 019B     		ldr	r3, [sp, #4]
 2956 009e 089A     		ldr	r2, [sp, #32]
 2957 00a0 DA61     		str	r2, [r3, #28]
 2958              	.L200:
 2959              		.loc 1 1501 0
 2960 00a2 9DF81730 		ldrb	r3, [sp, #23]	@ zero_extendqisi2
 2961 00a6 03F00203 		and	r3, r3, #2
 2962 00aa 002B     		cmp	r3, #0
 2963 00ac 20D0     		beq	.L208
 2964              		.loc 1 1502 0
 2965 00ae 0023     		movs	r3, #0
 2966 00b0 ADF82A30 		strh	r3, [sp, #42]	@ movhi
 2967 00b4 04E0     		b	.L209
 2968              	.L210:
 2969              		.loc 1 1502 0 is_stmt 0 discriminator 2
 2970 00b6 BDF82A30 		ldrh	r3, [sp, #42]
 2971 00ba 0133     		adds	r3, r3, #1
 2972 00bc ADF82A30 		strh	r3, [sp, #42]	@ movhi
 2973              	.L209:
 2974              		.loc 1 1502 0 discriminator 1
 2975 00c0 BDF82A30 		ldrh	r3, [sp, #42]
 2976 00c4 5B00     		lsls	r3, r3, #1
 2977 00c6 089A     		ldr	r2, [sp, #32]
 2978 00c8 1344     		add	r3, r3, r2
 2979 00ca 1B88     		ldrh	r3, [r3]
 2980 00cc 002B     		cmp	r3, #0
 2981 00ce F2D1     		bne	.L210
 2982              		.loc 1 1503 0 is_stmt 1
 2983 00d0 BDF82A30 		ldrh	r3, [sp, #42]
 2984 00d4 03F11902 		add	r2, r3, #25
 2985 00d8 4EF64F43 		movw	r3, #60495
 2986 00dc C4F6C463 		movt	r3, 20164
 2987 00e0 83FB0213 		smull	r1, r3, r3, r2
 2988 00e4 9910     		asrs	r1, r3, #2
 2989 00e6 D317     		asrs	r3, r2, #31
 2990 00e8 CB1A     		subs	r3, r1, r3
 2991 00ea ADF82A30 		strh	r3, [sp, #42]	@ movhi
 2992 00ee 02E0     		b	.L211
 2993              	.L208:
 2994              		.loc 1 1505 0
 2995 00f0 0123     		movs	r3, #1
 2996 00f2 ADF82A30 		strh	r3, [sp, #42]	@ movhi
 2997              	.L211:
 2998              		.loc 1 1509 0
 2999 00f6 0198     		ldr	r0, [sp, #4]
 3000 00f8 0021     		movs	r1, #0
ARM GAS  /tmp/ccIWRJEN.s 			page 54


 3001 00fa FFF7FEFF 		bl	dir_sdi
 3002 00fe 0346     		mov	r3, r0
 3003 0100 8DF82F30 		strb	r3, [sp, #47]
 3004              		.loc 1 1510 0
 3005 0104 9DF82F30 		ldrb	r3, [sp, #47]	@ zero_extendqisi2
 3006 0108 002B     		cmp	r3, #0
 3007 010a 02D0     		beq	.L212
 3008              		.loc 1 1510 0 is_stmt 0 discriminator 1
 3009 010c 9DF82F30 		ldrb	r3, [sp, #47]	@ zero_extendqisi2
 3010 0110 CDE0     		b	.L225
 3011              	.L212:
 3012              		.loc 1 1511 0 is_stmt 1
 3013 0112 0023     		movs	r3, #0
 3014 0114 ADF82830 		strh	r3, [sp, #40]	@ movhi
 3015 0118 BDF82830 		ldrh	r3, [sp, #40]	@ movhi
 3016 011c ADF82C30 		strh	r3, [sp, #44]	@ movhi
 3017              	.L220:
 3018              		.loc 1 1513 0
 3019 0120 019B     		ldr	r3, [sp, #4]
 3020 0122 1A68     		ldr	r2, [r3]
 3021 0124 019B     		ldr	r3, [sp, #4]
 3022 0126 1B69     		ldr	r3, [r3, #16]
 3023 0128 1046     		mov	r0, r2
 3024 012a 1946     		mov	r1, r3
 3025 012c FFF7FEFF 		bl	move_window
 3026 0130 0346     		mov	r3, r0
 3027 0132 8DF82F30 		strb	r3, [sp, #47]
 3028              		.loc 1 1514 0
 3029 0136 9DF82F30 		ldrb	r3, [sp, #47]	@ zero_extendqisi2
 3030 013a 002B     		cmp	r3, #0
 3031 013c 00D0     		beq	.L213
 3032              		.loc 1 1514 0 is_stmt 0 discriminator 1
 3033 013e 2FE0     		b	.L214
 3034              	.L213:
 3035              		.loc 1 1515 0 is_stmt 1
 3036 0140 019B     		ldr	r3, [sp, #4]
 3037 0142 5B69     		ldr	r3, [r3, #20]
 3038 0144 1B78     		ldrb	r3, [r3]
 3039 0146 8DF81F30 		strb	r3, [sp, #31]
 3040              		.loc 1 1516 0
 3041 014a 9DF81F30 		ldrb	r3, [sp, #31]	@ zero_extendqisi2
 3042 014e E52B     		cmp	r3, #229
 3043 0150 03D0     		beq	.L215
 3044              		.loc 1 1516 0 is_stmt 0 discriminator 1
 3045 0152 9DF81F30 		ldrb	r3, [sp, #31]	@ zero_extendqisi2
 3046 0156 002B     		cmp	r3, #0
 3047 0158 14D1     		bne	.L216
 3048              	.L215:
 3049              		.loc 1 1517 0 is_stmt 1
 3050 015a BDF82C30 		ldrh	r3, [sp, #44]
 3051 015e 002B     		cmp	r3, #0
 3052 0160 03D1     		bne	.L217
 3053              		.loc 1 1517 0 is_stmt 0 discriminator 1
 3054 0162 019B     		ldr	r3, [sp, #4]
 3055 0164 DB88     		ldrh	r3, [r3, #6]	@ movhi
 3056 0166 ADF82830 		strh	r3, [sp, #40]	@ movhi
 3057              	.L217:
ARM GAS  /tmp/ccIWRJEN.s 			page 55


 3058              		.loc 1 1518 0 is_stmt 1
 3059 016a BDF82C30 		ldrh	r3, [sp, #44]	@ movhi
 3060 016e 0133     		adds	r3, r3, #1
 3061 0170 ADF82C30 		strh	r3, [sp, #44]	@ movhi
 3062 0174 BDF82C20 		ldrh	r2, [sp, #44]
 3063 0178 BDF82A30 		ldrh	r3, [sp, #42]
 3064 017c 9A42     		cmp	r2, r3
 3065 017e 00D1     		bne	.L218
 3066              		.loc 1 1518 0 is_stmt 0 discriminator 1
 3067 0180 0EE0     		b	.L214
 3068              	.L218:
 3069              		.loc 1 1518 0 discriminator 2
 3070 0182 02E0     		b	.L219
 3071              	.L216:
 3072              		.loc 1 1520 0 is_stmt 1
 3073 0184 0023     		movs	r3, #0
 3074 0186 ADF82C30 		strh	r3, [sp, #44]	@ movhi
 3075              	.L219:
 3076              		.loc 1 1522 0
 3077 018a 0198     		ldr	r0, [sp, #4]
 3078 018c 0121     		movs	r1, #1
 3079 018e FFF7FEFF 		bl	dir_next
 3080 0192 0346     		mov	r3, r0
 3081 0194 8DF82F30 		strb	r3, [sp, #47]
 3082              		.loc 1 1523 0
 3083 0198 9DF82F30 		ldrb	r3, [sp, #47]	@ zero_extendqisi2
 3084 019c 002B     		cmp	r3, #0
 3085 019e BFD0     		beq	.L220
 3086              	.L214:
 3087              		.loc 1 1525 0
 3088 01a0 9DF82F30 		ldrb	r3, [sp, #47]	@ zero_extendqisi2
 3089 01a4 002B     		cmp	r3, #0
 3090 01a6 50D1     		bne	.L221
 3091              		.loc 1 1525 0 is_stmt 0 discriminator 1
 3092 01a8 BDF82A30 		ldrh	r3, [sp, #42]
 3093 01ac 012B     		cmp	r3, #1
 3094 01ae 4CD9     		bls	.L221
 3095              		.loc 1 1526 0 is_stmt 1
 3096 01b0 BDF82830 		ldrh	r3, [sp, #40]
 3097 01b4 0198     		ldr	r0, [sp, #4]
 3098 01b6 1946     		mov	r1, r3
 3099 01b8 FFF7FEFF 		bl	dir_sdi
 3100 01bc 0346     		mov	r3, r0
 3101 01be 8DF82F30 		strb	r3, [sp, #47]
 3102              		.loc 1 1527 0
 3103 01c2 9DF82F30 		ldrb	r3, [sp, #47]	@ zero_extendqisi2
 3104 01c6 002B     		cmp	r3, #0
 3105 01c8 3FD1     		bne	.L221
 3106              		.loc 1 1528 0
 3107 01ca 019B     		ldr	r3, [sp, #4]
 3108 01cc 9B69     		ldr	r3, [r3, #24]
 3109 01ce 1846     		mov	r0, r3
 3110 01d0 FFF7FEFF 		bl	sum_sfn
 3111 01d4 0346     		mov	r3, r0
 3112 01d6 8DF81E30 		strb	r3, [sp, #30]
 3113              		.loc 1 1529 0
 3114 01da BDF82A30 		ldrh	r3, [sp, #42]
ARM GAS  /tmp/ccIWRJEN.s 			page 56


 3115 01de 013B     		subs	r3, r3, #1
 3116 01e0 ADF82A30 		strh	r3, [sp, #42]	@ movhi
 3117              	.L223:
 3118              		.loc 1 1531 0
 3119 01e4 019B     		ldr	r3, [sp, #4]
 3120 01e6 1A68     		ldr	r2, [r3]
 3121 01e8 019B     		ldr	r3, [sp, #4]
 3122 01ea 1B69     		ldr	r3, [r3, #16]
 3123 01ec 1046     		mov	r0, r2
 3124 01ee 1946     		mov	r1, r3
 3125 01f0 FFF7FEFF 		bl	move_window
 3126 01f4 0346     		mov	r3, r0
 3127 01f6 8DF82F30 		strb	r3, [sp, #47]
 3128              		.loc 1 1532 0
 3129 01fa 9DF82F30 		ldrb	r3, [sp, #47]	@ zero_extendqisi2
 3130 01fe 002B     		cmp	r3, #0
 3131 0200 00D0     		beq	.L222
 3132              		.loc 1 1532 0 is_stmt 0 discriminator 1
 3133 0202 22E0     		b	.L221
 3134              	.L222:
 3135              		.loc 1 1533 0 is_stmt 1
 3136 0204 019B     		ldr	r3, [sp, #4]
 3137 0206 D869     		ldr	r0, [r3, #28]
 3138 0208 019B     		ldr	r3, [sp, #4]
 3139 020a 5969     		ldr	r1, [r3, #20]
 3140 020c BDF82A30 		ldrh	r3, [sp, #42]	@ movhi
 3141 0210 DAB2     		uxtb	r2, r3
 3142 0212 9DF81E30 		ldrb	r3, [sp, #30]	@ zero_extendqisi2
 3143 0216 FFF7FEFF 		bl	fit_lfn
 3144              		.loc 1 1534 0
 3145 021a 019B     		ldr	r3, [sp, #4]
 3146 021c 1B68     		ldr	r3, [r3]
 3147 021e 0122     		movs	r2, #1
 3148 0220 1A71     		strb	r2, [r3, #4]
 3149              		.loc 1 1535 0
 3150 0222 0198     		ldr	r0, [sp, #4]
 3151 0224 0021     		movs	r1, #0
 3152 0226 FFF7FEFF 		bl	dir_next
 3153 022a 0346     		mov	r3, r0
 3154 022c 8DF82F30 		strb	r3, [sp, #47]
 3155              		.loc 1 1536 0
 3156 0230 9DF82F30 		ldrb	r3, [sp, #47]	@ zero_extendqisi2
 3157 0234 002B     		cmp	r3, #0
 3158 0236 08D1     		bne	.L221
 3159              		.loc 1 1536 0 is_stmt 0 discriminator 1
 3160 0238 BDF82A30 		ldrh	r3, [sp, #42]	@ movhi
 3161 023c 013B     		subs	r3, r3, #1
 3162 023e ADF82A30 		strh	r3, [sp, #42]	@ movhi
 3163 0242 BDF82A30 		ldrh	r3, [sp, #42]
 3164 0246 002B     		cmp	r3, #0
 3165 0248 CCD1     		bne	.L223
 3166              	.L221:
 3167              		.loc 1 1553 0 is_stmt 1
 3168 024a 9DF82F30 		ldrb	r3, [sp, #47]	@ zero_extendqisi2
 3169 024e 002B     		cmp	r3, #0
 3170 0250 2BD1     		bne	.L224
 3171              		.loc 1 1554 0
ARM GAS  /tmp/ccIWRJEN.s 			page 57


 3172 0252 019B     		ldr	r3, [sp, #4]
 3173 0254 1A68     		ldr	r2, [r3]
 3174 0256 019B     		ldr	r3, [sp, #4]
 3175 0258 1B69     		ldr	r3, [r3, #16]
 3176 025a 1046     		mov	r0, r2
 3177 025c 1946     		mov	r1, r3
 3178 025e FFF7FEFF 		bl	move_window
 3179 0262 0346     		mov	r3, r0
 3180 0264 8DF82F30 		strb	r3, [sp, #47]
 3181              		.loc 1 1555 0
 3182 0268 9DF82F30 		ldrb	r3, [sp, #47]	@ zero_extendqisi2
 3183 026c 002B     		cmp	r3, #0
 3184 026e 1CD1     		bne	.L224
 3185              		.loc 1 1556 0
 3186 0270 019B     		ldr	r3, [sp, #4]
 3187 0272 5B69     		ldr	r3, [r3, #20]
 3188 0274 0693     		str	r3, [sp, #24]
 3189              		.loc 1 1557 0
 3190 0276 0698     		ldr	r0, [sp, #24]
 3191 0278 0021     		movs	r1, #0
 3192 027a 2022     		movs	r2, #32
 3193 027c FFF7FEFF 		bl	mem_set
 3194              		.loc 1 1558 0
 3195 0280 019B     		ldr	r3, [sp, #4]
 3196 0282 9B69     		ldr	r3, [r3, #24]
 3197 0284 0698     		ldr	r0, [sp, #24]
 3198 0286 1946     		mov	r1, r3
 3199 0288 0B22     		movs	r2, #11
 3200 028a FFF7FEFF 		bl	mem_cpy
 3201              		.loc 1 1560 0
 3202 028e 069B     		ldr	r3, [sp, #24]
 3203 0290 0C33     		adds	r3, r3, #12
 3204 0292 019A     		ldr	r2, [sp, #4]
 3205 0294 9269     		ldr	r2, [r2, #24]
 3206 0296 0B32     		adds	r2, r2, #11
 3207 0298 1278     		ldrb	r2, [r2]	@ zero_extendqisi2
 3208 029a 02F01802 		and	r2, r2, #24
 3209 029e D2B2     		uxtb	r2, r2
 3210 02a0 1A70     		strb	r2, [r3]
 3211              		.loc 1 1562 0
 3212 02a2 019B     		ldr	r3, [sp, #4]
 3213 02a4 1B68     		ldr	r3, [r3]
 3214 02a6 0122     		movs	r2, #1
 3215 02a8 1A71     		strb	r2, [r3, #4]
 3216              	.L224:
 3217              		.loc 1 1566 0
 3218 02aa 9DF82F30 		ldrb	r3, [sp, #47]	@ zero_extendqisi2
 3219              	.L225:
 3220              		.loc 1 1567 0
 3221 02ae 1846     		mov	r0, r3
 3222 02b0 0DB0     		add	sp, sp, #52
 3223              		@ sp needed
 3224 02b2 5DF804FB 		ldr	pc, [sp], #4
 3225              		.cfi_endproc
 3226              	.LFE27:
 3227              		.size	dir_register, .-dir_register
 3228 02b6 00BFAFF3 		.section	.text.dir_remove,"ax",%progbits
ARM GAS  /tmp/ccIWRJEN.s 			page 58


 3228      0080AFF3 
 3228      0080
 3229              		.align	2
 3230              		.p2align 4,,15
 3231              		.thumb
 3232              		.thumb_func
 3233              		.type	dir_remove, %function
 3234              	dir_remove:
 3235              	.LFB28:
 3236              		.loc 1 1581 0
 3237              		.cfi_startproc
 3238              		@ args = 0, pretend = 0, frame = 16
 3239              		@ frame_needed = 0, uses_anonymous_args = 0
 3240 0000 00B5     		push	{lr}
 3241              		.cfi_def_cfa_offset 4
 3242              		.cfi_offset 14, -4
 3243 0002 85B0     		sub	sp, sp, #20
 3244              		.cfi_def_cfa_offset 24
 3245 0004 0190     		str	r0, [sp, #4]
 3246              		.loc 1 1586 0
 3247 0006 019B     		ldr	r3, [sp, #4]
 3248 0008 DB88     		ldrh	r3, [r3, #6]	@ movhi
 3249 000a ADF80C30 		strh	r3, [sp, #12]	@ movhi
 3250              		.loc 1 1587 0
 3251 000e 019B     		ldr	r3, [sp, #4]
 3252 0010 1A8C     		ldrh	r2, [r3, #32]
 3253 0012 4FF6FF73 		movw	r3, #65535
 3254 0016 9A42     		cmp	r2, r3
 3255 0018 02D0     		beq	.L227
 3256              		.loc 1 1587 0 is_stmt 0 discriminator 1
 3257 001a 019B     		ldr	r3, [sp, #4]
 3258 001c 1B8C     		ldrh	r3, [r3, #32]
 3259 001e 01E0     		b	.L228
 3260              	.L227:
 3261              		.loc 1 1587 0 discriminator 2
 3262 0020 BDF80C30 		ldrh	r3, [sp, #12]
 3263              	.L228:
 3264              		.loc 1 1587 0 discriminator 3
 3265 0024 0198     		ldr	r0, [sp, #4]
 3266 0026 1946     		mov	r1, r3
 3267 0028 FFF7FEFF 		bl	dir_sdi
 3268 002c 0346     		mov	r3, r0
 3269 002e 8DF80F30 		strb	r3, [sp, #15]
 3270              		.loc 1 1588 0 is_stmt 1 discriminator 3
 3271 0032 9DF80F30 		ldrb	r3, [sp, #15]	@ zero_extendqisi2
 3272 0036 002B     		cmp	r3, #0
 3273 0038 30D1     		bne	.L229
 3274              	.L233:
 3275              		.loc 1 1590 0
 3276 003a 019B     		ldr	r3, [sp, #4]
 3277 003c 1A68     		ldr	r2, [r3]
 3278 003e 019B     		ldr	r3, [sp, #4]
 3279 0040 1B69     		ldr	r3, [r3, #16]
 3280 0042 1046     		mov	r0, r2
 3281 0044 1946     		mov	r1, r3
 3282 0046 FFF7FEFF 		bl	move_window
 3283 004a 0346     		mov	r3, r0
ARM GAS  /tmp/ccIWRJEN.s 			page 59


 3284 004c 8DF80F30 		strb	r3, [sp, #15]
 3285              		.loc 1 1591 0
 3286 0050 9DF80F30 		ldrb	r3, [sp, #15]	@ zero_extendqisi2
 3287 0054 002B     		cmp	r3, #0
 3288 0056 00D0     		beq	.L230
 3289              		.loc 1 1591 0 is_stmt 0 discriminator 1
 3290 0058 19E0     		b	.L231
 3291              	.L230:
 3292              		.loc 1 1592 0 is_stmt 1
 3293 005a 019B     		ldr	r3, [sp, #4]
 3294 005c 5B69     		ldr	r3, [r3, #20]
 3295 005e E522     		movs	r2, #229
 3296 0060 1A70     		strb	r2, [r3]
 3297              		.loc 1 1593 0
 3298 0062 019B     		ldr	r3, [sp, #4]
 3299 0064 1B68     		ldr	r3, [r3]
 3300 0066 0122     		movs	r2, #1
 3301 0068 1A71     		strb	r2, [r3, #4]
 3302              		.loc 1 1594 0
 3303 006a 019B     		ldr	r3, [sp, #4]
 3304 006c DB88     		ldrh	r3, [r3, #6]
 3305 006e BDF80C20 		ldrh	r2, [sp, #12]
 3306 0072 9A42     		cmp	r2, r3
 3307 0074 00D8     		bhi	.L232
 3308              		.loc 1 1594 0 is_stmt 0 discriminator 1
 3309 0076 0AE0     		b	.L231
 3310              	.L232:
 3311              		.loc 1 1595 0 is_stmt 1
 3312 0078 0198     		ldr	r0, [sp, #4]
 3313 007a 0021     		movs	r1, #0
 3314 007c FFF7FEFF 		bl	dir_next
 3315 0080 0346     		mov	r3, r0
 3316 0082 8DF80F30 		strb	r3, [sp, #15]
 3317              		.loc 1 1596 0
 3318 0086 9DF80F30 		ldrb	r3, [sp, #15]	@ zero_extendqisi2
 3319 008a 002B     		cmp	r3, #0
 3320 008c D5D0     		beq	.L233
 3321              	.L231:
 3322              		.loc 1 1597 0
 3323 008e 9DF80F30 		ldrb	r3, [sp, #15]	@ zero_extendqisi2
 3324 0092 042B     		cmp	r3, #4
 3325 0094 02D1     		bne	.L229
 3326              		.loc 1 1597 0 is_stmt 0 discriminator 1
 3327 0096 0223     		movs	r3, #2
 3328 0098 8DF80F30 		strb	r3, [sp, #15]
 3329              	.L229:
 3330              		.loc 1 1611 0 is_stmt 1
 3331 009c 9DF80F30 		ldrb	r3, [sp, #15]	@ zero_extendqisi2
 3332              		.loc 1 1612 0
 3333 00a0 1846     		mov	r0, r3
 3334 00a2 05B0     		add	sp, sp, #20
 3335              		@ sp needed
 3336 00a4 5DF804FB 		ldr	pc, [sp], #4
 3337              		.cfi_endproc
 3338              	.LFE28:
 3339              		.size	dir_remove, .-dir_remove
 3340 00a8 AFF30080 		.section	.rodata
ARM GAS  /tmp/ccIWRJEN.s 			page 60


 3340      AFF30080 
 3341              		.align	2
 3342              	.LC0:
 3343 0000 222A3A3C 		.ascii	"\"*:<>?|\177\000"
 3343      3E3F7C7F 
 3343      00
 3344 0009 000000   		.align	2
 3345              	.LC1:
 3346 000c 2B2C3B3D 		.ascii	"+,;=[]\000"
 3346      5B5D00
 3347              		.section	.text.create_name,"ax",%progbits
 3348              		.align	2
 3349              		.p2align 4,,15
 3350              		.thumb
 3351              		.thumb_func
 3352              		.type	create_name, %function
 3353              	create_name:
 3354              	.LFB29:
 3355              		.loc 1 1627 0
 3356              		.cfi_startproc
 3357              		@ args = 0, pretend = 0, frame = 40
 3358              		@ frame_needed = 0, uses_anonymous_args = 0
 3359 0000 00B5     		push	{lr}
 3360              		.cfi_def_cfa_offset 4
 3361              		.cfi_offset 14, -4
 3362 0002 8BB0     		sub	sp, sp, #44
 3363              		.cfi_def_cfa_offset 48
 3364 0004 0190     		str	r0, [sp, #4]
 3365 0006 0091     		str	r1, [sp]
 3366              		.loc 1 1639 0
 3367 0008 009B     		ldr	r3, [sp]
 3368 000a 1B68     		ldr	r3, [r3]
 3369 000c 0493     		str	r3, [sp, #16]
 3370 000e 02E0     		b	.L236
 3371              	.L237:
 3372              		.loc 1 1639 0 is_stmt 0 discriminator 2
 3373 0010 049B     		ldr	r3, [sp, #16]
 3374 0012 0133     		adds	r3, r3, #1
 3375 0014 0493     		str	r3, [sp, #16]
 3376              	.L236:
 3377              		.loc 1 1639 0 discriminator 1
 3378 0016 049B     		ldr	r3, [sp, #16]
 3379 0018 1B78     		ldrb	r3, [r3]	@ zero_extendqisi2
 3380 001a 2F2B     		cmp	r3, #47
 3381 001c F8D0     		beq	.L237
 3382              		.loc 1 1639 0 discriminator 3
 3383 001e 049B     		ldr	r3, [sp, #16]
 3384 0020 1B78     		ldrb	r3, [r3]	@ zero_extendqisi2
 3385 0022 5C2B     		cmp	r3, #92
 3386 0024 F4D0     		beq	.L237
 3387              		.loc 1 1640 0 is_stmt 1
 3388 0026 019B     		ldr	r3, [sp, #4]
 3389 0028 DB69     		ldr	r3, [r3, #28]
 3390 002a 0393     		str	r3, [sp, #12]
 3391              		.loc 1 1641 0
 3392 002c 0023     		movs	r3, #0
 3393 002e 0593     		str	r3, [sp, #20]
ARM GAS  /tmp/ccIWRJEN.s 			page 61


 3394 0030 059B     		ldr	r3, [sp, #20]
 3395 0032 0693     		str	r3, [sp, #24]
 3396              	.L243:
 3397              		.loc 1 1643 0
 3398 0034 069B     		ldr	r3, [sp, #24]
 3399 0036 5A1C     		adds	r2, r3, #1
 3400 0038 0692     		str	r2, [sp, #24]
 3401 003a 049A     		ldr	r2, [sp, #16]
 3402 003c 1344     		add	r3, r3, r2
 3403 003e 1B78     		ldrb	r3, [r3]	@ zero_extendqisi2
 3404 0040 ADF82430 		strh	r3, [sp, #36]	@ movhi
 3405              		.loc 1 1644 0
 3406 0044 BDF82430 		ldrh	r3, [sp, #36]
 3407 0048 1F2B     		cmp	r3, #31
 3408 004a 3CD9     		bls	.L238
 3409              		.loc 1 1644 0 is_stmt 0 discriminator 1
 3410 004c BDF82430 		ldrh	r3, [sp, #36]
 3411 0050 2F2B     		cmp	r3, #47
 3412 0052 38D0     		beq	.L238
 3413 0054 BDF82430 		ldrh	r3, [sp, #36]
 3414 0058 5C2B     		cmp	r3, #92
 3415 005a 34D0     		beq	.L238
 3416              		.loc 1 1645 0 is_stmt 1
 3417 005c 059B     		ldr	r3, [sp, #20]
 3418 005e FE2B     		cmp	r3, #254
 3419 0060 01D9     		bls	.L239
 3420              		.loc 1 1646 0
 3421 0062 0623     		movs	r3, #6
 3422 0064 9FE1     		b	.L240
 3423              	.L239:
 3424              		.loc 1 1648 0
 3425 0066 BDF82430 		ldrh	r3, [sp, #36]	@ movhi
 3426 006a DBB2     		uxtb	r3, r3
 3427 006c ADF82430 		strh	r3, [sp, #36]	@ movhi
 3428              		.loc 1 1655 0
 3429 0070 BDF82430 		ldrh	r3, [sp, #36]
 3430 0074 1846     		mov	r0, r3
 3431 0076 0121     		movs	r1, #1
 3432 0078 FFF7FEFF 		bl	ff_convert
 3433 007c 0346     		mov	r3, r0
 3434 007e ADF82430 		strh	r3, [sp, #36]	@ movhi
 3435              		.loc 1 1656 0
 3436 0082 BDF82430 		ldrh	r3, [sp, #36]
 3437 0086 002B     		cmp	r3, #0
 3438 0088 01D1     		bne	.L241
 3439              		.loc 1 1656 0 is_stmt 0 discriminator 1
 3440 008a 0623     		movs	r3, #6
 3441 008c 8BE1     		b	.L240
 3442              	.L241:
 3443              		.loc 1 1658 0 is_stmt 1
 3444 008e BDF82430 		ldrh	r3, [sp, #36]
 3445 0092 7F2B     		cmp	r3, #127
 3446 0094 0DD8     		bhi	.L242
 3447              		.loc 1 1658 0 is_stmt 0 discriminator 1
 3448 0096 BDF82430 		ldrh	r3, [sp, #36]
 3449 009a 40F20000 		movw	r0, #:lower16:.LC0
 3450 009e C0F20000 		movt	r0, #:upper16:.LC0
ARM GAS  /tmp/ccIWRJEN.s 			page 62


 3451 00a2 1946     		mov	r1, r3
 3452 00a4 FFF7FEFF 		bl	chk_chr
 3453 00a8 0346     		mov	r3, r0
 3454 00aa 002B     		cmp	r3, #0
 3455 00ac 01D0     		beq	.L242
 3456              		.loc 1 1659 0 is_stmt 1
 3457 00ae 0623     		movs	r3, #6
 3458 00b0 79E1     		b	.L240
 3459              	.L242:
 3460              		.loc 1 1660 0
 3461 00b2 059B     		ldr	r3, [sp, #20]
 3462 00b4 5A1C     		adds	r2, r3, #1
 3463 00b6 0592     		str	r2, [sp, #20]
 3464 00b8 5B00     		lsls	r3, r3, #1
 3465 00ba 039A     		ldr	r2, [sp, #12]
 3466 00bc 1344     		add	r3, r3, r2
 3467 00be BDF82420 		ldrh	r2, [sp, #36]	@ movhi
 3468 00c2 1A80     		strh	r2, [r3]	@ movhi
 3469              		.loc 1 1661 0
 3470 00c4 B6E7     		b	.L243
 3471              	.L238:
 3472              		.loc 1 1662 0
 3473 00c6 049A     		ldr	r2, [sp, #16]
 3474 00c8 069B     		ldr	r3, [sp, #24]
 3475 00ca 1A44     		add	r2, r2, r3
 3476 00cc 009B     		ldr	r3, [sp]
 3477 00ce 1A60     		str	r2, [r3]
 3478              		.loc 1 1663 0
 3479 00d0 BDF82430 		ldrh	r3, [sp, #36]
 3480 00d4 1F2B     		cmp	r3, #31
 3481 00d6 01D8     		bhi	.L244
 3482              		.loc 1 1663 0 is_stmt 0 discriminator 1
 3483 00d8 0423     		movs	r3, #4
 3484 00da 00E0     		b	.L245
 3485              	.L244:
 3486              		.loc 1 1663 0 discriminator 2
 3487 00dc 0023     		movs	r3, #0
 3488              	.L245:
 3489              		.loc 1 1663 0 discriminator 3
 3490 00de 8DF82630 		strb	r3, [sp, #38]
 3491              		.loc 1 1674 0 is_stmt 1 discriminator 3
 3492 00e2 15E0     		b	.L246
 3493              	.L249:
 3494              		.loc 1 1675 0
 3495 00e4 059B     		ldr	r3, [sp, #20]
 3496 00e6 03F10043 		add	r3, r3, #-2147483648
 3497 00ea 013B     		subs	r3, r3, #1
 3498 00ec 5B00     		lsls	r3, r3, #1
 3499 00ee 039A     		ldr	r2, [sp, #12]
 3500 00f0 1344     		add	r3, r3, r2
 3501 00f2 1B88     		ldrh	r3, [r3]	@ movhi
 3502 00f4 ADF82430 		strh	r3, [sp, #36]	@ movhi
 3503              		.loc 1 1676 0
 3504 00f8 BDF82430 		ldrh	r3, [sp, #36]
 3505 00fc 202B     		cmp	r3, #32
 3506 00fe 04D0     		beq	.L247
 3507              		.loc 1 1676 0 is_stmt 0 discriminator 1
ARM GAS  /tmp/ccIWRJEN.s 			page 63


 3508 0100 BDF82430 		ldrh	r3, [sp, #36]
 3509 0104 2E2B     		cmp	r3, #46
 3510 0106 00D0     		beq	.L247
 3511 0108 05E0     		b	.L248
 3512              	.L247:
 3513              		.loc 1 1677 0 is_stmt 1
 3514 010a 059B     		ldr	r3, [sp, #20]
 3515 010c 013B     		subs	r3, r3, #1
 3516 010e 0593     		str	r3, [sp, #20]
 3517              	.L246:
 3518              		.loc 1 1674 0 discriminator 1
 3519 0110 059B     		ldr	r3, [sp, #20]
 3520 0112 002B     		cmp	r3, #0
 3521 0114 E6D1     		bne	.L249
 3522              	.L248:
 3523              		.loc 1 1679 0
 3524 0116 059B     		ldr	r3, [sp, #20]
 3525 0118 002B     		cmp	r3, #0
 3526 011a 01D1     		bne	.L250
 3527              		.loc 1 1679 0 is_stmt 0 discriminator 1
 3528 011c 0623     		movs	r3, #6
 3529 011e 42E1     		b	.L240
 3530              	.L250:
 3531              		.loc 1 1681 0 is_stmt 1
 3532 0120 059B     		ldr	r3, [sp, #20]
 3533 0122 5B00     		lsls	r3, r3, #1
 3534 0124 039A     		ldr	r2, [sp, #12]
 3535 0126 1344     		add	r3, r3, r2
 3536 0128 0022     		movs	r2, #0
 3537 012a 1A80     		strh	r2, [r3]	@ movhi
 3538              		.loc 1 1684 0
 3539 012c 019B     		ldr	r3, [sp, #4]
 3540 012e 9B69     		ldr	r3, [r3, #24]
 3541 0130 1846     		mov	r0, r3
 3542 0132 2021     		movs	r1, #32
 3543 0134 0B22     		movs	r2, #11
 3544 0136 FFF7FEFF 		bl	mem_set
 3545              		.loc 1 1685 0
 3546 013a 0023     		movs	r3, #0
 3547 013c 0693     		str	r3, [sp, #24]
 3548 013e 02E0     		b	.L251
 3549              	.L252:
 3550              		.loc 1 1685 0 is_stmt 0 discriminator 2
 3551 0140 069B     		ldr	r3, [sp, #24]
 3552 0142 0133     		adds	r3, r3, #1
 3553 0144 0693     		str	r3, [sp, #24]
 3554              	.L251:
 3555              		.loc 1 1685 0 discriminator 1
 3556 0146 069B     		ldr	r3, [sp, #24]
 3557 0148 5B00     		lsls	r3, r3, #1
 3558 014a 039A     		ldr	r2, [sp, #12]
 3559 014c 1344     		add	r3, r3, r2
 3560 014e 1B88     		ldrh	r3, [r3]
 3561 0150 202B     		cmp	r3, #32
 3562 0152 F5D0     		beq	.L252
 3563              		.loc 1 1685 0 discriminator 3
 3564 0154 069B     		ldr	r3, [sp, #24]
ARM GAS  /tmp/ccIWRJEN.s 			page 64


 3565 0156 5B00     		lsls	r3, r3, #1
 3566 0158 039A     		ldr	r2, [sp, #12]
 3567 015a 1344     		add	r3, r3, r2
 3568 015c 1B88     		ldrh	r3, [r3]
 3569 015e 2E2B     		cmp	r3, #46
 3570 0160 EED0     		beq	.L252
 3571              		.loc 1 1686 0 is_stmt 1
 3572 0162 069B     		ldr	r3, [sp, #24]
 3573 0164 002B     		cmp	r3, #0
 3574 0166 06D0     		beq	.L253
 3575              		.loc 1 1686 0 is_stmt 0 discriminator 1
 3576 0168 9DF82630 		ldrb	r3, [sp, #38]
 3577 016c 43F00303 		orr	r3, r3, #3
 3578 0170 8DF82630 		strb	r3, [sp, #38]
 3579              		.loc 1 1687 0 is_stmt 1 discriminator 1
 3580 0174 03E0     		b	.L254
 3581              	.L253:
 3582              		.loc 1 1687 0 is_stmt 0
 3583 0176 02E0     		b	.L254
 3584              	.L256:
 3585              		.loc 1 1687 0 discriminator 1
 3586 0178 059B     		ldr	r3, [sp, #20]
 3587 017a 013B     		subs	r3, r3, #1
 3588 017c 0593     		str	r3, [sp, #20]
 3589              	.L254:
 3590 017e 059B     		ldr	r3, [sp, #20]
 3591 0180 002B     		cmp	r3, #0
 3592 0182 09D0     		beq	.L255
 3593              		.loc 1 1687 0 discriminator 2
 3594 0184 059B     		ldr	r3, [sp, #20]
 3595 0186 03F10043 		add	r3, r3, #-2147483648
 3596 018a 013B     		subs	r3, r3, #1
 3597 018c 5B00     		lsls	r3, r3, #1
 3598 018e 039A     		ldr	r2, [sp, #12]
 3599 0190 1344     		add	r3, r3, r2
 3600 0192 1B88     		ldrh	r3, [r3]
 3601 0194 2E2B     		cmp	r3, #46
 3602 0196 EFD1     		bne	.L256
 3603              	.L255:
 3604              		.loc 1 1689 0 is_stmt 1
 3605 0198 0023     		movs	r3, #0
 3606 019a 0893     		str	r3, [sp, #32]
 3607 019c 0023     		movs	r3, #0
 3608 019e 8DF82730 		strb	r3, [sp, #39]
 3609 01a2 0823     		movs	r3, #8
 3610 01a4 0793     		str	r3, [sp, #28]
 3611              	.L273:
 3612              		.loc 1 1691 0
 3613 01a6 069B     		ldr	r3, [sp, #24]
 3614 01a8 5A1C     		adds	r2, r3, #1
 3615 01aa 0692     		str	r2, [sp, #24]
 3616 01ac 5B00     		lsls	r3, r3, #1
 3617 01ae 039A     		ldr	r2, [sp, #12]
 3618 01b0 1344     		add	r3, r3, r2
 3619 01b2 1B88     		ldrh	r3, [r3]	@ movhi
 3620 01b4 ADF82430 		strh	r3, [sp, #36]	@ movhi
 3621              		.loc 1 1692 0
ARM GAS  /tmp/ccIWRJEN.s 			page 65


 3622 01b8 BDF82430 		ldrh	r3, [sp, #36]
 3623 01bc 002B     		cmp	r3, #0
 3624 01be 00D1     		bne	.L257
 3625              		.loc 1 1692 0 is_stmt 0 discriminator 1
 3626 01c0 A9E0     		b	.L258
 3627              	.L257:
 3628              		.loc 1 1693 0 is_stmt 1
 3629 01c2 BDF82430 		ldrh	r3, [sp, #36]
 3630 01c6 202B     		cmp	r3, #32
 3631 01c8 07D0     		beq	.L259
 3632              		.loc 1 1693 0 is_stmt 0 discriminator 1
 3633 01ca BDF82430 		ldrh	r3, [sp, #36]
 3634 01ce 2E2B     		cmp	r3, #46
 3635 01d0 0AD1     		bne	.L260
 3636 01d2 069A     		ldr	r2, [sp, #24]
 3637 01d4 059B     		ldr	r3, [sp, #20]
 3638 01d6 9A42     		cmp	r2, r3
 3639 01d8 06D0     		beq	.L260
 3640              	.L259:
 3641              		.loc 1 1694 0 is_stmt 1
 3642 01da 9DF82630 		ldrb	r3, [sp, #38]
 3643 01de 43F00303 		orr	r3, r3, #3
 3644 01e2 8DF82630 		strb	r3, [sp, #38]
 3645 01e6 95E0     		b	.L261
 3646              	.L260:
 3647              		.loc 1 1697 0
 3648 01e8 089A     		ldr	r2, [sp, #32]
 3649 01ea 079B     		ldr	r3, [sp, #28]
 3650 01ec 9A42     		cmp	r2, r3
 3651 01ee 03D2     		bcs	.L262
 3652              		.loc 1 1697 0 is_stmt 0 discriminator 1
 3653 01f0 069A     		ldr	r2, [sp, #24]
 3654 01f2 059B     		ldr	r3, [sp, #20]
 3655 01f4 9A42     		cmp	r2, r3
 3656 01f6 24D1     		bne	.L263
 3657              	.L262:
 3658              		.loc 1 1698 0 is_stmt 1
 3659 01f8 079B     		ldr	r3, [sp, #28]
 3660 01fa 0B2B     		cmp	r3, #11
 3661 01fc 06D1     		bne	.L264
 3662              		.loc 1 1699 0
 3663 01fe 9DF82630 		ldrb	r3, [sp, #38]
 3664 0202 43F00303 		orr	r3, r3, #3
 3665 0206 8DF82630 		strb	r3, [sp, #38]
 3666 020a 84E0     		b	.L258
 3667              	.L264:
 3668              		.loc 1 1701 0
 3669 020c 069A     		ldr	r2, [sp, #24]
 3670 020e 059B     		ldr	r3, [sp, #20]
 3671 0210 9A42     		cmp	r2, r3
 3672 0212 05D0     		beq	.L265
 3673              		.loc 1 1701 0 is_stmt 0 discriminator 1
 3674 0214 9DF82630 		ldrb	r3, [sp, #38]
 3675 0218 43F00303 		orr	r3, r3, #3
 3676 021c 8DF82630 		strb	r3, [sp, #38]
 3677              	.L265:
 3678              		.loc 1 1702 0 is_stmt 1
ARM GAS  /tmp/ccIWRJEN.s 			page 66


 3679 0220 069A     		ldr	r2, [sp, #24]
 3680 0222 059B     		ldr	r3, [sp, #20]
 3681 0224 9A42     		cmp	r2, r3
 3682 0226 00D9     		bls	.L266
 3683              		.loc 1 1702 0 is_stmt 0 discriminator 1
 3684 0228 75E0     		b	.L258
 3685              	.L266:
 3686              		.loc 1 1703 0 is_stmt 1
 3687 022a 059B     		ldr	r3, [sp, #20]
 3688 022c 0693     		str	r3, [sp, #24]
 3689 022e 0823     		movs	r3, #8
 3690 0230 0893     		str	r3, [sp, #32]
 3691 0232 0B23     		movs	r3, #11
 3692 0234 0793     		str	r3, [sp, #28]
 3693              		.loc 1 1704 0
 3694 0236 9DF82730 		ldrb	r3, [sp, #39]
 3695 023a 9B00     		lsls	r3, r3, #2
 3696 023c 8DF82730 		strb	r3, [sp, #39]
 3697 0240 68E0     		b	.L261
 3698              	.L263:
 3699              		.loc 1 1707 0
 3700 0242 BDF82430 		ldrh	r3, [sp, #36]
 3701 0246 7F2B     		cmp	r3, #127
 3702 0248 1DD9     		bls	.L280
 3703              		.loc 1 1709 0
 3704 024a BDF82430 		ldrh	r3, [sp, #36]
 3705 024e 1846     		mov	r0, r3
 3706 0250 0021     		movs	r1, #0
 3707 0252 FFF7FEFF 		bl	ff_convert
 3708 0256 0346     		mov	r3, r0
 3709 0258 ADF82430 		strh	r3, [sp, #36]	@ movhi
 3710              		.loc 1 1710 0
 3711 025c BDF82430 		ldrh	r3, [sp, #36]
 3712 0260 002B     		cmp	r3, #0
 3713 0262 0AD0     		beq	.L268
 3714              		.loc 1 1710 0 is_stmt 0 discriminator 1
 3715 0264 BDF82430 		ldrh	r3, [sp, #36]
 3716 0268 A3F18002 		sub	r2, r3, #128
 3717 026c 40F20003 		movw	r3, #:lower16:excvt.5289
 3718 0270 C0F20003 		movt	r3, #:upper16:excvt.5289
 3719 0274 9B5C     		ldrb	r3, [r3, r2]	@ zero_extendqisi2
 3720 0276 ADF82430 		strh	r3, [sp, #36]	@ movhi
 3721              	.L268:
 3722              		.loc 1 1714 0 is_stmt 1
 3723 027a 9DF82630 		ldrb	r3, [sp, #38]
 3724 027e 43F00203 		orr	r3, r3, #2
 3725 0282 8DF82630 		strb	r3, [sp, #38]
 3726              	.L280:
 3727              		.loc 1 1723 0
 3728 0286 BDF82430 		ldrh	r3, [sp, #36]
 3729 028a 002B     		cmp	r3, #0
 3730 028c 0BD0     		beq	.L269
 3731              		.loc 1 1723 0 is_stmt 0 discriminator 1
 3732 028e BDF82430 		ldrh	r3, [sp, #36]
 3733 0292 40F20000 		movw	r0, #:lower16:.LC1
 3734 0296 C0F20000 		movt	r0, #:upper16:.LC1
 3735 029a 1946     		mov	r1, r3
ARM GAS  /tmp/ccIWRJEN.s 			page 67


 3736 029c FFF7FEFF 		bl	chk_chr
 3737 02a0 0346     		mov	r3, r0
 3738 02a2 002B     		cmp	r3, #0
 3739 02a4 09D0     		beq	.L270
 3740              	.L269:
 3741              		.loc 1 1724 0 is_stmt 1
 3742 02a6 5F23     		movs	r3, #95
 3743 02a8 ADF82430 		strh	r3, [sp, #36]	@ movhi
 3744 02ac 9DF82630 		ldrb	r3, [sp, #38]
 3745 02b0 43F00303 		orr	r3, r3, #3
 3746 02b4 8DF82630 		strb	r3, [sp, #38]
 3747 02b8 21E0     		b	.L271
 3748              	.L270:
 3749              		.loc 1 1726 0
 3750 02ba BDF82430 		ldrh	r3, [sp, #36]
 3751 02be 402B     		cmp	r3, #64
 3752 02c0 0AD9     		bls	.L272
 3753              		.loc 1 1726 0 is_stmt 0 discriminator 1
 3754 02c2 BDF82430 		ldrh	r3, [sp, #36]
 3755 02c6 5A2B     		cmp	r3, #90
 3756 02c8 06D8     		bhi	.L272
 3757              		.loc 1 1727 0 is_stmt 1
 3758 02ca 9DF82730 		ldrb	r3, [sp, #39]
 3759 02ce 43F00203 		orr	r3, r3, #2
 3760 02d2 8DF82730 		strb	r3, [sp, #39]
 3761 02d6 12E0     		b	.L271
 3762              	.L272:
 3763              		.loc 1 1729 0
 3764 02d8 BDF82430 		ldrh	r3, [sp, #36]
 3765 02dc 602B     		cmp	r3, #96
 3766 02de 0ED9     		bls	.L271
 3767              		.loc 1 1729 0 is_stmt 0 discriminator 1
 3768 02e0 BDF82430 		ldrh	r3, [sp, #36]
 3769 02e4 7A2B     		cmp	r3, #122
 3770 02e6 0AD8     		bhi	.L271
 3771              		.loc 1 1730 0 is_stmt 1
 3772 02e8 9DF82730 		ldrb	r3, [sp, #39]
 3773 02ec 43F00103 		orr	r3, r3, #1
 3774 02f0 8DF82730 		strb	r3, [sp, #39]
 3775 02f4 BDF82430 		ldrh	r3, [sp, #36]	@ movhi
 3776 02f8 203B     		subs	r3, r3, #32
 3777 02fa ADF82430 		strh	r3, [sp, #36]	@ movhi
 3778              	.L271:
 3779              		.loc 1 1735 0
 3780 02fe 019B     		ldr	r3, [sp, #4]
 3781 0300 9A69     		ldr	r2, [r3, #24]
 3782 0302 089B     		ldr	r3, [sp, #32]
 3783 0304 591C     		adds	r1, r3, #1
 3784 0306 0891     		str	r1, [sp, #32]
 3785 0308 1344     		add	r3, r3, r2
 3786 030a BDF82420 		ldrh	r2, [sp, #36]	@ movhi
 3787 030e D2B2     		uxtb	r2, r2
 3788 0310 1A70     		strb	r2, [r3]
 3789              		.loc 1 1736 0
 3790 0312 48E7     		b	.L273
 3791              	.L261:
 3792 0314 47E7     		b	.L273
ARM GAS  /tmp/ccIWRJEN.s 			page 68


 3793              	.L258:
 3794              		.loc 1 1738 0
 3795 0316 019B     		ldr	r3, [sp, #4]
 3796 0318 9B69     		ldr	r3, [r3, #24]
 3797 031a 1B78     		ldrb	r3, [r3]	@ zero_extendqisi2
 3798 031c E52B     		cmp	r3, #229
 3799 031e 03D1     		bne	.L274
 3800              		.loc 1 1738 0 is_stmt 0 discriminator 1
 3801 0320 019B     		ldr	r3, [sp, #4]
 3802 0322 9B69     		ldr	r3, [r3, #24]
 3803 0324 0522     		movs	r2, #5
 3804 0326 1A70     		strb	r2, [r3]
 3805              	.L274:
 3806              		.loc 1 1740 0 is_stmt 1
 3807 0328 079B     		ldr	r3, [sp, #28]
 3808 032a 082B     		cmp	r3, #8
 3809 032c 04D1     		bne	.L275
 3810              		.loc 1 1740 0 is_stmt 0 discriminator 1
 3811 032e 9DF82730 		ldrb	r3, [sp, #39]
 3812 0332 9B00     		lsls	r3, r3, #2
 3813 0334 8DF82730 		strb	r3, [sp, #39]
 3814              	.L275:
 3815              		.loc 1 1741 0 is_stmt 1
 3816 0338 9DF82730 		ldrb	r3, [sp, #39]	@ zero_extendqisi2
 3817 033c 03F00C03 		and	r3, r3, #12
 3818 0340 0C2B     		cmp	r3, #12
 3819 0342 05D0     		beq	.L276
 3820              		.loc 1 1741 0 is_stmt 0 discriminator 1
 3821 0344 9DF82730 		ldrb	r3, [sp, #39]	@ zero_extendqisi2
 3822 0348 03F00303 		and	r3, r3, #3
 3823 034c 032B     		cmp	r3, #3
 3824 034e 05D1     		bne	.L277
 3825              	.L276:
 3826              		.loc 1 1742 0 is_stmt 1
 3827 0350 9DF82630 		ldrb	r3, [sp, #38]
 3828 0354 43F00203 		orr	r3, r3, #2
 3829 0358 8DF82630 		strb	r3, [sp, #38]
 3830              	.L277:
 3831              		.loc 1 1743 0
 3832 035c 9DF82630 		ldrb	r3, [sp, #38]	@ zero_extendqisi2
 3833 0360 03F00203 		and	r3, r3, #2
 3834 0364 002B     		cmp	r3, #0
 3835 0366 17D1     		bne	.L278
 3836              		.loc 1 1744 0
 3837 0368 9DF82730 		ldrb	r3, [sp, #39]	@ zero_extendqisi2
 3838 036c 03F00303 		and	r3, r3, #3
 3839 0370 012B     		cmp	r3, #1
 3840 0372 05D1     		bne	.L279
 3841              		.loc 1 1744 0 is_stmt 0 discriminator 1
 3842 0374 9DF82630 		ldrb	r3, [sp, #38]
 3843 0378 43F01003 		orr	r3, r3, #16
 3844 037c 8DF82630 		strb	r3, [sp, #38]
 3845              	.L279:
 3846              		.loc 1 1745 0 is_stmt 1
 3847 0380 9DF82730 		ldrb	r3, [sp, #39]	@ zero_extendqisi2
 3848 0384 03F00C03 		and	r3, r3, #12
 3849 0388 042B     		cmp	r3, #4
ARM GAS  /tmp/ccIWRJEN.s 			page 69


 3850 038a 05D1     		bne	.L278
 3851              		.loc 1 1745 0 is_stmt 0 discriminator 1
 3852 038c 9DF82630 		ldrb	r3, [sp, #38]
 3853 0390 43F00803 		orr	r3, r3, #8
 3854 0394 8DF82630 		strb	r3, [sp, #38]
 3855              	.L278:
 3856              		.loc 1 1748 0 is_stmt 1
 3857 0398 019B     		ldr	r3, [sp, #4]
 3858 039a 9B69     		ldr	r3, [r3, #24]
 3859 039c 0B33     		adds	r3, r3, #11
 3860 039e 9DF82620 		ldrb	r2, [sp, #38]
 3861 03a2 1A70     		strb	r2, [r3]
 3862              		.loc 1 1750 0
 3863 03a4 0023     		movs	r3, #0
 3864              	.L240:
 3865              		.loc 1 1827 0
 3866 03a6 1846     		mov	r0, r3
 3867 03a8 0BB0     		add	sp, sp, #44
 3868              		@ sp needed
 3869 03aa 5DF804FB 		ldr	pc, [sp], #4
 3870              		.cfi_endproc
 3871              	.LFE29:
 3872              		.size	create_name, .-create_name
 3873 03ae 00BF     		.section	.text.get_fileinfo,"ax",%progbits
 3874              		.align	2
 3875              		.p2align 4,,15
 3876              		.thumb
 3877              		.thumb_func
 3878              		.type	get_fileinfo, %function
 3879              	get_fileinfo:
 3880              	.LFB30:
 3881              		.loc 1 1841 0
 3882              		.cfi_startproc
 3883              		@ args = 0, pretend = 0, frame = 40
 3884              		@ frame_needed = 0, uses_anonymous_args = 0
 3885 0000 00B5     		push	{lr}
 3886              		.cfi_def_cfa_offset 4
 3887              		.cfi_offset 14, -4
 3888 0002 8BB0     		sub	sp, sp, #44
 3889              		.cfi_def_cfa_offset 48
 3890 0004 0190     		str	r0, [sp, #4]
 3891 0006 0091     		str	r1, [sp]
 3892              		.loc 1 1847 0
 3893 0008 009B     		ldr	r3, [sp]
 3894 000a 0933     		adds	r3, r3, #9
 3895 000c 0893     		str	r3, [sp, #32]
 3896              		.loc 1 1848 0
 3897 000e 019B     		ldr	r3, [sp, #4]
 3898 0010 1B69     		ldr	r3, [r3, #16]
 3899 0012 002B     		cmp	r3, #0
 3900 0014 00F08280 		beq	.L282
 3901              		.loc 1 1849 0
 3902 0018 019B     		ldr	r3, [sp, #4]
 3903 001a 5B69     		ldr	r3, [r3, #20]
 3904 001c 0593     		str	r3, [sp, #20]
 3905              		.loc 1 1850 0
 3906 001e 059B     		ldr	r3, [sp, #20]
ARM GAS  /tmp/ccIWRJEN.s 			page 70


 3907 0020 1B7B     		ldrb	r3, [r3, #12]
 3908 0022 8DF81330 		strb	r3, [sp, #19]
 3909              		.loc 1 1851 0
 3910 0026 0023     		movs	r3, #0
 3911 0028 0993     		str	r3, [sp, #36]
 3912 002a 2DE0     		b	.L283
 3913              	.L288:
 3914              		.loc 1 1852 0
 3915 002c 059A     		ldr	r2, [sp, #20]
 3916 002e 099B     		ldr	r3, [sp, #36]
 3917 0030 1344     		add	r3, r3, r2
 3918 0032 1B78     		ldrb	r3, [r3]
 3919 0034 8DF81F30 		strb	r3, [sp, #31]
 3920              		.loc 1 1853 0
 3921 0038 9DF81F30 		ldrb	r3, [sp, #31]	@ zero_extendqisi2
 3922 003c 202B     		cmp	r3, #32
 3923 003e 00D1     		bne	.L284
 3924              		.loc 1 1853 0 is_stmt 0 discriminator 1
 3925 0040 25E0     		b	.L285
 3926              	.L284:
 3927              		.loc 1 1854 0 is_stmt 1
 3928 0042 9DF81F30 		ldrb	r3, [sp, #31]	@ zero_extendqisi2
 3929 0046 052B     		cmp	r3, #5
 3930 0048 02D1     		bne	.L286
 3931              		.loc 1 1854 0 is_stmt 0 discriminator 1
 3932 004a E523     		movs	r3, #229
 3933 004c 8DF81F30 		strb	r3, [sp, #31]
 3934              	.L286:
 3935              		.loc 1 1855 0 is_stmt 1
 3936 0050 9DF81330 		ldrb	r3, [sp, #19]	@ zero_extendqisi2
 3937 0054 03F00803 		and	r3, r3, #8
 3938 0058 002B     		cmp	r3, #0
 3939 005a 0CD0     		beq	.L287
 3940              		.loc 1 1855 0 is_stmt 0 discriminator 1
 3941 005c 9DF81F30 		ldrb	r3, [sp, #31]	@ zero_extendqisi2
 3942 0060 402B     		cmp	r3, #64
 3943 0062 08D9     		bls	.L287
 3944 0064 9DF81F30 		ldrb	r3, [sp, #31]	@ zero_extendqisi2
 3945 0068 5A2B     		cmp	r3, #90
 3946 006a 04D8     		bhi	.L287
 3947 006c 9DF81F30 		ldrb	r3, [sp, #31]
 3948 0070 2033     		adds	r3, r3, #32
 3949 0072 8DF81F30 		strb	r3, [sp, #31]
 3950              	.L287:
 3951              		.loc 1 1862 0 is_stmt 1
 3952 0076 089B     		ldr	r3, [sp, #32]
 3953 0078 5A1C     		adds	r2, r3, #1
 3954 007a 0892     		str	r2, [sp, #32]
 3955 007c 9DF81F20 		ldrb	r2, [sp, #31]
 3956 0080 1A70     		strb	r2, [r3]
 3957              		.loc 1 1851 0
 3958 0082 099B     		ldr	r3, [sp, #36]
 3959 0084 0133     		adds	r3, r3, #1
 3960 0086 0993     		str	r3, [sp, #36]
 3961              	.L283:
 3962              		.loc 1 1851 0 is_stmt 0 discriminator 1
 3963 0088 099B     		ldr	r3, [sp, #36]
ARM GAS  /tmp/ccIWRJEN.s 			page 71


 3964 008a 072B     		cmp	r3, #7
 3965 008c CED9     		bls	.L288
 3966              	.L285:
 3967              		.loc 1 1864 0 is_stmt 1
 3968 008e 059B     		ldr	r3, [sp, #20]
 3969 0090 0833     		adds	r3, r3, #8
 3970 0092 1B78     		ldrb	r3, [r3]	@ zero_extendqisi2
 3971 0094 202B     		cmp	r3, #32
 3972 0096 31D0     		beq	.L289
 3973              		.loc 1 1865 0
 3974 0098 089B     		ldr	r3, [sp, #32]
 3975 009a 5A1C     		adds	r2, r3, #1
 3976 009c 0892     		str	r2, [sp, #32]
 3977 009e 2E22     		movs	r2, #46
 3978 00a0 1A70     		strb	r2, [r3]
 3979              		.loc 1 1866 0
 3980 00a2 0823     		movs	r3, #8
 3981 00a4 0993     		str	r3, [sp, #36]
 3982 00a6 26E0     		b	.L290
 3983              	.L293:
 3984              		.loc 1 1867 0
 3985 00a8 059A     		ldr	r2, [sp, #20]
 3986 00aa 099B     		ldr	r3, [sp, #36]
 3987 00ac 1344     		add	r3, r3, r2
 3988 00ae 1B78     		ldrb	r3, [r3]
 3989 00b0 8DF81F30 		strb	r3, [sp, #31]
 3990              		.loc 1 1868 0
 3991 00b4 9DF81F30 		ldrb	r3, [sp, #31]	@ zero_extendqisi2
 3992 00b8 202B     		cmp	r3, #32
 3993 00ba 00D1     		bne	.L291
 3994              		.loc 1 1868 0 is_stmt 0 discriminator 1
 3995 00bc 1EE0     		b	.L289
 3996              	.L291:
 3997              		.loc 1 1869 0 is_stmt 1
 3998 00be 9DF81330 		ldrb	r3, [sp, #19]	@ zero_extendqisi2
 3999 00c2 03F01003 		and	r3, r3, #16
 4000 00c6 002B     		cmp	r3, #0
 4001 00c8 0CD0     		beq	.L292
 4002              		.loc 1 1869 0 is_stmt 0 discriminator 1
 4003 00ca 9DF81F30 		ldrb	r3, [sp, #31]	@ zero_extendqisi2
 4004 00ce 402B     		cmp	r3, #64
 4005 00d0 08D9     		bls	.L292
 4006 00d2 9DF81F30 		ldrb	r3, [sp, #31]	@ zero_extendqisi2
 4007 00d6 5A2B     		cmp	r3, #90
 4008 00d8 04D8     		bhi	.L292
 4009 00da 9DF81F30 		ldrb	r3, [sp, #31]
 4010 00de 2033     		adds	r3, r3, #32
 4011 00e0 8DF81F30 		strb	r3, [sp, #31]
 4012              	.L292:
 4013              		.loc 1 1876 0 is_stmt 1
 4014 00e4 089B     		ldr	r3, [sp, #32]
 4015 00e6 5A1C     		adds	r2, r3, #1
 4016 00e8 0892     		str	r2, [sp, #32]
 4017 00ea 9DF81F20 		ldrb	r2, [sp, #31]
 4018 00ee 1A70     		strb	r2, [r3]
 4019              		.loc 1 1866 0
 4020 00f0 099B     		ldr	r3, [sp, #36]
ARM GAS  /tmp/ccIWRJEN.s 			page 72


 4021 00f2 0133     		adds	r3, r3, #1
 4022 00f4 0993     		str	r3, [sp, #36]
 4023              	.L290:
 4024              		.loc 1 1866 0 is_stmt 0 discriminator 1
 4025 00f6 099B     		ldr	r3, [sp, #36]
 4026 00f8 0A2B     		cmp	r3, #10
 4027 00fa D5D9     		bls	.L293
 4028              	.L289:
 4029              		.loc 1 1879 0 is_stmt 1
 4030 00fc 059B     		ldr	r3, [sp, #20]
 4031 00fe DA7A     		ldrb	r2, [r3, #11]	@ zero_extendqisi2
 4032 0100 009B     		ldr	r3, [sp]
 4033 0102 1A72     		strb	r2, [r3, #8]
 4034              		.loc 1 1880 0
 4035 0104 059B     		ldr	r3, [sp, #20]
 4036 0106 DA69     		ldr	r2, [r3, #28]
 4037 0108 009B     		ldr	r3, [sp]
 4038 010a 1A60     		str	r2, [r3]
 4039              		.loc 1 1881 0
 4040 010c 059B     		ldr	r3, [sp, #20]
 4041 010e 1A8B     		ldrh	r2, [r3, #24]
 4042 0110 009B     		ldr	r3, [sp]
 4043 0112 9A80     		strh	r2, [r3, #4]	@ movhi
 4044              		.loc 1 1882 0
 4045 0114 059B     		ldr	r3, [sp, #20]
 4046 0116 DA8A     		ldrh	r2, [r3, #22]
 4047 0118 009B     		ldr	r3, [sp]
 4048 011a DA80     		strh	r2, [r3, #6]	@ movhi
 4049              	.L282:
 4050              		.loc 1 1884 0
 4051 011c 089B     		ldr	r3, [sp, #32]
 4052 011e 0022     		movs	r2, #0
 4053 0120 1A70     		strb	r2, [r3]
 4054              		.loc 1 1887 0
 4055 0122 009B     		ldr	r3, [sp]
 4056 0124 9B69     		ldr	r3, [r3, #24]
 4057 0126 002B     		cmp	r3, #0
 4058 0128 47D0     		beq	.L281
 4059              		.loc 1 1887 0 is_stmt 0 discriminator 1
 4060 012a 009B     		ldr	r3, [sp]
 4061 012c DB69     		ldr	r3, [r3, #28]
 4062 012e 002B     		cmp	r3, #0
 4063 0130 43D0     		beq	.L281
 4064              	.LBB4:
 4065              		.loc 1 1888 0 is_stmt 1
 4066 0132 009B     		ldr	r3, [sp]
 4067 0134 9B69     		ldr	r3, [r3, #24]
 4068 0136 0393     		str	r3, [sp, #12]
 4069              		.loc 1 1891 0
 4070 0138 0023     		movs	r3, #0
 4071 013a 0993     		str	r3, [sp, #36]
 4072              		.loc 1 1892 0
 4073 013c 019B     		ldr	r3, [sp, #4]
 4074 013e 1B69     		ldr	r3, [r3, #16]
 4075 0140 002B     		cmp	r3, #0
 4076 0142 35D0     		beq	.L295
 4077              		.loc 1 1892 0 is_stmt 0 discriminator 1
ARM GAS  /tmp/ccIWRJEN.s 			page 73


 4078 0144 019B     		ldr	r3, [sp, #4]
 4079 0146 1A8C     		ldrh	r2, [r3, #32]
 4080 0148 4FF6FF73 		movw	r3, #65535
 4081 014c 9A42     		cmp	r2, r3
 4082 014e 2FD0     		beq	.L295
 4083              		.loc 1 1893 0 is_stmt 1
 4084 0150 019B     		ldr	r3, [sp, #4]
 4085 0152 DB69     		ldr	r3, [r3, #28]
 4086 0154 0693     		str	r3, [sp, #24]
 4087              		.loc 1 1894 0
 4088 0156 21E0     		b	.L296
 4089              	.L299:
 4090              		.loc 1 1896 0
 4091 0158 BDF80A30 		ldrh	r3, [sp, #10]
 4092 015c 1846     		mov	r0, r3
 4093 015e 0021     		movs	r1, #0
 4094 0160 FFF7FEFF 		bl	ff_convert
 4095 0164 0346     		mov	r3, r0
 4096 0166 ADF80A30 		strh	r3, [sp, #10]	@ movhi
 4097              		.loc 1 1897 0
 4098 016a BDF80A30 		ldrh	r3, [sp, #10]
 4099 016e 002B     		cmp	r3, #0
 4100 0170 02D1     		bne	.L297
 4101              		.loc 1 1897 0 is_stmt 0 discriminator 1
 4102 0172 0023     		movs	r3, #0
 4103 0174 0993     		str	r3, [sp, #36]
 4104 0176 1BE0     		b	.L295
 4105              	.L297:
 4106              		.loc 1 1901 0 is_stmt 1
 4107 0178 009B     		ldr	r3, [sp]
 4108 017a DB69     		ldr	r3, [r3, #28]
 4109 017c 5A1E     		subs	r2, r3, #1
 4110 017e 099B     		ldr	r3, [sp, #36]
 4111 0180 9A42     		cmp	r2, r3
 4112 0182 02D8     		bhi	.L298
 4113              		.loc 1 1901 0 is_stmt 0 discriminator 1
 4114 0184 0023     		movs	r3, #0
 4115 0186 0993     		str	r3, [sp, #36]
 4116 0188 12E0     		b	.L295
 4117              	.L298:
 4118              		.loc 1 1902 0 is_stmt 1
 4119 018a 099B     		ldr	r3, [sp, #36]
 4120 018c 5A1C     		adds	r2, r3, #1
 4121 018e 0992     		str	r2, [sp, #36]
 4122 0190 039A     		ldr	r2, [sp, #12]
 4123 0192 1344     		add	r3, r3, r2
 4124 0194 BDF80A20 		ldrh	r2, [sp, #10]	@ movhi
 4125 0198 D2B2     		uxtb	r2, r2
 4126 019a 1A70     		strb	r2, [r3]
 4127              	.L296:
 4128              		.loc 1 1894 0 discriminator 1
 4129 019c 069B     		ldr	r3, [sp, #24]
 4130 019e 9A1C     		adds	r2, r3, #2
 4131 01a0 0692     		str	r2, [sp, #24]
 4132 01a2 1B88     		ldrh	r3, [r3]	@ movhi
 4133 01a4 ADF80A30 		strh	r3, [sp, #10]	@ movhi
 4134 01a8 BDF80A30 		ldrh	r3, [sp, #10]
ARM GAS  /tmp/ccIWRJEN.s 			page 74


 4135 01ac 002B     		cmp	r3, #0
 4136 01ae D3D1     		bne	.L299
 4137              	.L295:
 4138              		.loc 1 1905 0
 4139 01b0 039A     		ldr	r2, [sp, #12]
 4140 01b2 099B     		ldr	r3, [sp, #36]
 4141 01b4 1344     		add	r3, r3, r2
 4142 01b6 0022     		movs	r2, #0
 4143 01b8 1A70     		strb	r2, [r3]
 4144              	.L281:
 4145              	.LBE4:
 4146              		.loc 1 1908 0
 4147 01ba 0BB0     		add	sp, sp, #44
 4148              		@ sp needed
 4149 01bc 5DF804FB 		ldr	pc, [sp], #4
 4150              		.cfi_endproc
 4151              	.LFE30:
 4152              		.size	get_fileinfo, .-get_fileinfo
 4153              		.section	.text.follow_path,"ax",%progbits
 4154              		.align	2
 4155              		.p2align 4,,15
 4156              		.thumb
 4157              		.thumb_func
 4158              		.type	follow_path, %function
 4159              	follow_path:
 4160              	.LFB31:
 4161              		.loc 1 1923 0
 4162              		.cfi_startproc
 4163              		@ args = 0, pretend = 0, frame = 16
 4164              		@ frame_needed = 0, uses_anonymous_args = 0
 4165 0000 00B5     		push	{lr}
 4166              		.cfi_def_cfa_offset 4
 4167              		.cfi_offset 14, -4
 4168 0002 85B0     		sub	sp, sp, #20
 4169              		.cfi_def_cfa_offset 24
 4170 0004 0190     		str	r0, [sp, #4]
 4171 0006 0091     		str	r1, [sp]
 4172              		.loc 1 1935 0
 4173 0008 009B     		ldr	r3, [sp]
 4174 000a 1B78     		ldrb	r3, [r3]	@ zero_extendqisi2
 4175 000c 2F2B     		cmp	r3, #47
 4176 000e 03D0     		beq	.L301
 4177              		.loc 1 1935 0 is_stmt 0 discriminator 1
 4178 0010 009B     		ldr	r3, [sp]
 4179 0012 1B78     		ldrb	r3, [r3]	@ zero_extendqisi2
 4180 0014 5C2B     		cmp	r3, #92
 4181 0016 02D1     		bne	.L302
 4182              	.L301:
 4183              		.loc 1 1936 0 is_stmt 1
 4184 0018 009B     		ldr	r3, [sp]
 4185 001a 0133     		adds	r3, r3, #1
 4186 001c 0093     		str	r3, [sp]
 4187              	.L302:
 4188              		.loc 1 1937 0
 4189 001e 019B     		ldr	r3, [sp, #4]
 4190 0020 0022     		movs	r2, #0
 4191 0022 9A60     		str	r2, [r3, #8]
ARM GAS  /tmp/ccIWRJEN.s 			page 75


 4192              		.loc 1 1940 0
 4193 0024 009B     		ldr	r3, [sp]
 4194 0026 1B78     		ldrb	r3, [r3]	@ zero_extendqisi2
 4195 0028 1F2B     		cmp	r3, #31
 4196 002a 0AD8     		bhi	.L303
 4197              		.loc 1 1941 0
 4198 002c 0198     		ldr	r0, [sp, #4]
 4199 002e 0021     		movs	r1, #0
 4200 0030 FFF7FEFF 		bl	dir_sdi
 4201 0034 0346     		mov	r3, r0
 4202 0036 8DF80F30 		strb	r3, [sp, #15]
 4203              		.loc 1 1942 0
 4204 003a 019B     		ldr	r3, [sp, #4]
 4205 003c 0022     		movs	r2, #0
 4206 003e 5A61     		str	r2, [r3, #20]
 4207 0040 4BE0     		b	.L304
 4208              	.L303:
 4209              		.loc 1 1946 0
 4210 0042 6B46     		mov	r3, sp
 4211 0044 0198     		ldr	r0, [sp, #4]
 4212 0046 1946     		mov	r1, r3
 4213 0048 FFF7FEFF 		bl	create_name
 4214 004c 0346     		mov	r3, r0
 4215 004e 8DF80F30 		strb	r3, [sp, #15]
 4216              		.loc 1 1947 0
 4217 0052 9DF80F30 		ldrb	r3, [sp, #15]	@ zero_extendqisi2
 4218 0056 002B     		cmp	r3, #0
 4219 0058 00D0     		beq	.L305
 4220              		.loc 1 1947 0 is_stmt 0 discriminator 1
 4221 005a 3EE0     		b	.L304
 4222              	.L305:
 4223              		.loc 1 1948 0 is_stmt 1
 4224 005c 0198     		ldr	r0, [sp, #4]
 4225 005e FFF7FEFF 		bl	dir_find
 4226 0062 0346     		mov	r3, r0
 4227 0064 8DF80F30 		strb	r3, [sp, #15]
 4228              		.loc 1 1949 0
 4229 0068 019B     		ldr	r3, [sp, #4]
 4230 006a 9B69     		ldr	r3, [r3, #24]
 4231 006c DB7A     		ldrb	r3, [r3, #11]
 4232 006e 8DF80E30 		strb	r3, [sp, #14]
 4233              		.loc 1 1950 0
 4234 0072 9DF80F30 		ldrb	r3, [sp, #15]	@ zero_extendqisi2
 4235 0076 002B     		cmp	r3, #0
 4236 0078 0FD0     		beq	.L306
 4237              		.loc 1 1951 0
 4238 007a 9DF80F30 		ldrb	r3, [sp, #15]	@ zero_extendqisi2
 4239 007e 042B     		cmp	r3, #4
 4240 0080 00D0     		beq	.L307
 4241              		.loc 1 1951 0 is_stmt 0 discriminator 1
 4242 0082 2AE0     		b	.L304
 4243              	.L307:
 4244              		.loc 1 1958 0 is_stmt 1
 4245 0084 9DF80E30 		ldrb	r3, [sp, #14]	@ zero_extendqisi2
 4246 0088 03F00403 		and	r3, r3, #4
 4247 008c 002B     		cmp	r3, #0
 4248 008e 03D1     		bne	.L308
ARM GAS  /tmp/ccIWRJEN.s 			page 76


 4249              		.loc 1 1958 0 is_stmt 0 discriminator 1
 4250 0090 0523     		movs	r3, #5
 4251 0092 8DF80F30 		strb	r3, [sp, #15]
 4252              		.loc 1 1960 0 is_stmt 1 discriminator 1
 4253 0096 20E0     		b	.L304
 4254              	.L308:
 4255              		.loc 1 1960 0 is_stmt 0
 4256 0098 1FE0     		b	.L304
 4257              	.L306:
 4258              		.loc 1 1962 0 is_stmt 1
 4259 009a 9DF80E30 		ldrb	r3, [sp, #14]	@ zero_extendqisi2
 4260 009e 03F00403 		and	r3, r3, #4
 4261 00a2 002B     		cmp	r3, #0
 4262 00a4 00D0     		beq	.L309
 4263              		.loc 1 1962 0 is_stmt 0 discriminator 1
 4264 00a6 18E0     		b	.L304
 4265              	.L309:
 4266              		.loc 1 1963 0 is_stmt 1
 4267 00a8 019B     		ldr	r3, [sp, #4]
 4268 00aa 5B69     		ldr	r3, [r3, #20]
 4269 00ac 0293     		str	r3, [sp, #8]
 4270              		.loc 1 1964 0
 4271 00ae 029B     		ldr	r3, [sp, #8]
 4272 00b0 0B33     		adds	r3, r3, #11
 4273 00b2 1B78     		ldrb	r3, [r3]	@ zero_extendqisi2
 4274 00b4 03F01003 		and	r3, r3, #16
 4275 00b8 002B     		cmp	r3, #0
 4276 00ba 03D1     		bne	.L310
 4277              		.loc 1 1965 0
 4278 00bc 0523     		movs	r3, #5
 4279 00be 8DF80F30 		strb	r3, [sp, #15]
 4280 00c2 0AE0     		b	.L304
 4281              	.L310:
 4282              		.loc 1 1967 0
 4283 00c4 029B     		ldr	r3, [sp, #8]
 4284 00c6 1433     		adds	r3, r3, #20
 4285 00c8 1B88     		ldrh	r3, [r3]
 4286 00ca 1A04     		lsls	r2, r3, #16
 4287 00cc 029B     		ldr	r3, [sp, #8]
 4288 00ce 1A33     		adds	r3, r3, #26
 4289 00d0 1B88     		ldrh	r3, [r3]
 4290 00d2 1A43     		orrs	r2, r2, r3
 4291 00d4 019B     		ldr	r3, [sp, #4]
 4292 00d6 9A60     		str	r2, [r3, #8]
 4293              		.loc 1 1968 0
 4294 00d8 B3E7     		b	.L303
 4295              	.L304:
 4296              		.loc 1 1971 0
 4297 00da 9DF80F30 		ldrb	r3, [sp, #15]	@ zero_extendqisi2
 4298              		.loc 1 1972 0
 4299 00de 1846     		mov	r0, r3
 4300 00e0 05B0     		add	sp, sp, #20
 4301              		@ sp needed
 4302 00e2 5DF804FB 		ldr	pc, [sp], #4
 4303              		.cfi_endproc
 4304              	.LFE31:
 4305              		.size	follow_path, .-follow_path
ARM GAS  /tmp/ccIWRJEN.s 			page 77


 4306 00e6 00BFAFF3 		.section	.text.check_fs,"ax",%progbits
 4306      0080AFF3 
 4306      0080
 4307              		.align	2
 4308              		.p2align 4,,15
 4309              		.thumb
 4310              		.thumb_func
 4311              		.type	check_fs, %function
 4312              	check_fs:
 4313              	.LFB32:
 4314              		.loc 1 1986 0
 4315              		.cfi_startproc
 4316              		@ args = 0, pretend = 0, frame = 8
 4317              		@ frame_needed = 0, uses_anonymous_args = 0
 4318 0000 00B5     		push	{lr}
 4319              		.cfi_def_cfa_offset 4
 4320              		.cfi_offset 14, -4
 4321 0002 83B0     		sub	sp, sp, #12
 4322              		.cfi_def_cfa_offset 16
 4323 0004 0190     		str	r0, [sp, #4]
 4324 0006 0091     		str	r1, [sp]
 4325              		.loc 1 1987 0
 4326 0008 019B     		ldr	r3, [sp, #4]
 4327 000a 5A78     		ldrb	r2, [r3, #1]	@ zero_extendqisi2
 4328 000c 019B     		ldr	r3, [sp, #4]
 4329 000e 3033     		adds	r3, r3, #48
 4330 0010 1046     		mov	r0, r2
 4331 0012 1946     		mov	r1, r3
 4332 0014 009A     		ldr	r2, [sp]
 4333 0016 0123     		movs	r3, #1
 4334 0018 FFF7FEFF 		bl	disk_read
 4335 001c 0346     		mov	r3, r0
 4336 001e 002B     		cmp	r3, #0
 4337 0020 01D0     		beq	.L313
 4338              		.loc 1 1988 0
 4339 0022 0323     		movs	r3, #3
 4340 0024 24E0     		b	.L314
 4341              	.L313:
 4342              		.loc 1 1989 0
 4343 0026 019B     		ldr	r3, [sp, #4]
 4344 0028 03F22E23 		addw	r3, r3, #558
 4345 002c 1A88     		ldrh	r2, [r3]
 4346 002e 4AF65523 		movw	r3, #43605
 4347 0032 9A42     		cmp	r2, r3
 4348 0034 01D0     		beq	.L315
 4349              		.loc 1 1990 0
 4350 0036 0223     		movs	r3, #2
 4351 0038 1AE0     		b	.L314
 4352              	.L315:
 4353              		.loc 1 1992 0
 4354 003a 019B     		ldr	r3, [sp, #4]
 4355 003c 6633     		adds	r3, r3, #102
 4356 003e 1B68     		ldr	r3, [r3]
 4357 0040 23F07F42 		bic	r2, r3, #-16777216
 4358 0044 44F24613 		movw	r3, #16710
 4359 0048 C0F25403 		movt	r3, 84
 4360 004c 9A42     		cmp	r2, r3
ARM GAS  /tmp/ccIWRJEN.s 			page 78


 4361 004e 01D1     		bne	.L316
 4362              		.loc 1 1993 0
 4363 0050 0023     		movs	r3, #0
 4364 0052 0DE0     		b	.L314
 4365              	.L316:
 4366              		.loc 1 1994 0
 4367 0054 019B     		ldr	r3, [sp, #4]
 4368 0056 8233     		adds	r3, r3, #130
 4369 0058 1B68     		ldr	r3, [r3]
 4370 005a 23F07F42 		bic	r2, r3, #-16777216
 4371 005e 44F24613 		movw	r3, #16710
 4372 0062 C0F25403 		movt	r3, 84
 4373 0066 9A42     		cmp	r2, r3
 4374 0068 01D1     		bne	.L317
 4375              		.loc 1 1995 0
 4376 006a 0023     		movs	r3, #0
 4377 006c 00E0     		b	.L314
 4378              	.L317:
 4379              		.loc 1 1997 0
 4380 006e 0123     		movs	r3, #1
 4381              	.L314:
 4382              		.loc 1 1998 0
 4383 0070 1846     		mov	r0, r3
 4384 0072 03B0     		add	sp, sp, #12
 4385              		@ sp needed
 4386 0074 5DF804FB 		ldr	pc, [sp], #4
 4387              		.cfi_endproc
 4388              	.LFE32:
 4389              		.size	check_fs, .-check_fs
 4390 0078 AFF30080 		.section	.text.chk_mounted,"ax",%progbits
 4390      AFF30080 
 4391              		.align	2
 4392              		.p2align 4,,15
 4393              		.thumb
 4394              		.thumb_func
 4395              		.type	chk_mounted, %function
 4396              	chk_mounted:
 4397              	.LFB33:
 4398              		.loc 1 2013 0
 4399              		.cfi_startproc
 4400              		@ args = 0, pretend = 0, frame = 72
 4401              		@ frame_needed = 0, uses_anonymous_args = 0
 4402 0000 00B5     		push	{lr}
 4403              		.cfi_def_cfa_offset 4
 4404              		.cfi_offset 14, -4
 4405 0002 93B0     		sub	sp, sp, #76
 4406              		.cfi_def_cfa_offset 80
 4407 0004 0390     		str	r0, [sp, #12]
 4408 0006 0291     		str	r1, [sp, #8]
 4409 0008 1346     		mov	r3, r2
 4410 000a 8DF80730 		strb	r3, [sp, #7]
 4411              		.loc 1 2019 0
 4412 000e 039B     		ldr	r3, [sp, #12]
 4413 0010 1B68     		ldr	r3, [r3]
 4414 0012 0B93     		str	r3, [sp, #44]
 4415              		.loc 1 2023 0
 4416 0014 0B9B     		ldr	r3, [sp, #44]
ARM GAS  /tmp/ccIWRJEN.s 			page 79


 4417 0016 1B78     		ldrb	r3, [r3]	@ zero_extendqisi2
 4418 0018 303B     		subs	r3, r3, #48
 4419 001a 1093     		str	r3, [sp, #64]
 4420              		.loc 1 2024 0
 4421 001c 109B     		ldr	r3, [sp, #64]
 4422 001e 092B     		cmp	r3, #9
 4423 0020 0BD8     		bhi	.L319
 4424              		.loc 1 2024 0 is_stmt 0 discriminator 1
 4425 0022 0B9B     		ldr	r3, [sp, #44]
 4426 0024 0133     		adds	r3, r3, #1
 4427 0026 1B78     		ldrb	r3, [r3]	@ zero_extendqisi2
 4428 0028 3A2B     		cmp	r3, #58
 4429 002a 06D1     		bne	.L319
 4430              		.loc 1 2025 0 is_stmt 1
 4431 002c 0B9B     		ldr	r3, [sp, #44]
 4432 002e 0233     		adds	r3, r3, #2
 4433 0030 0B93     		str	r3, [sp, #44]
 4434 0032 039B     		ldr	r3, [sp, #12]
 4435 0034 0B9A     		ldr	r2, [sp, #44]
 4436 0036 1A60     		str	r2, [r3]
 4437 0038 01E0     		b	.L320
 4438              	.L319:
 4439              		.loc 1 2030 0
 4440 003a 0023     		movs	r3, #0
 4441 003c 1093     		str	r3, [sp, #64]
 4442              	.L320:
 4443              		.loc 1 2035 0
 4444 003e 109B     		ldr	r3, [sp, #64]
 4445 0040 002B     		cmp	r3, #0
 4446 0042 01D0     		beq	.L321
 4447              		.loc 1 2036 0
 4448 0044 0B23     		movs	r3, #11
 4449 0046 E1E1     		b	.L322
 4450              	.L321:
 4451              		.loc 1 2037 0
 4452 0048 40F20003 		movw	r3, #:lower16:FatFs
 4453 004c C0F20003 		movt	r3, #:upper16:FatFs
 4454 0050 109A     		ldr	r2, [sp, #64]
 4455 0052 53F82230 		ldr	r3, [r3, r2, lsl #2]
 4456 0056 0A93     		str	r3, [sp, #40]
 4457 0058 029B     		ldr	r3, [sp, #8]
 4458 005a 0A9A     		ldr	r2, [sp, #40]
 4459 005c 1A60     		str	r2, [r3]
 4460              		.loc 1 2038 0
 4461 005e 0A9B     		ldr	r3, [sp, #40]
 4462 0060 002B     		cmp	r3, #0
 4463 0062 01D1     		bne	.L323
 4464              		.loc 1 2038 0 is_stmt 0 discriminator 1
 4465 0064 0C23     		movs	r3, #12
 4466 0066 D1E1     		b	.L322
 4467              	.L323:
 4468              		.loc 1 2042 0 is_stmt 1
 4469 0068 0A9B     		ldr	r3, [sp, #40]
 4470 006a 1B78     		ldrb	r3, [r3]	@ zero_extendqisi2
 4471 006c 002B     		cmp	r3, #0
 4472 006e 1BD0     		beq	.L324
 4473              		.loc 1 2043 0
ARM GAS  /tmp/ccIWRJEN.s 			page 80


 4474 0070 0A9B     		ldr	r3, [sp, #40]
 4475 0072 5B78     		ldrb	r3, [r3, #1]	@ zero_extendqisi2
 4476 0074 1846     		mov	r0, r3
 4477 0076 FFF7FEFF 		bl	disk_status
 4478 007a 0346     		mov	r3, r0
 4479 007c 8DF82730 		strb	r3, [sp, #39]
 4480              		.loc 1 2044 0
 4481 0080 9DF82730 		ldrb	r3, [sp, #39]	@ zero_extendqisi2
 4482 0084 03F00103 		and	r3, r3, #1
 4483 0088 002B     		cmp	r3, #0
 4484 008a 0DD1     		bne	.L324
 4485              		.loc 1 2045 0
 4486 008c 9DF80730 		ldrb	r3, [sp, #7]	@ zero_extendqisi2
 4487 0090 002B     		cmp	r3, #0
 4488 0092 07D0     		beq	.L325
 4489              		.loc 1 2045 0 is_stmt 0 discriminator 1
 4490 0094 9DF82730 		ldrb	r3, [sp, #39]	@ zero_extendqisi2
 4491 0098 03F00403 		and	r3, r3, #4
 4492 009c 002B     		cmp	r3, #0
 4493 009e 01D0     		beq	.L325
 4494              		.loc 1 2046 0 is_stmt 1
 4495 00a0 0A23     		movs	r3, #10
 4496 00a2 B3E1     		b	.L322
 4497              	.L325:
 4498              		.loc 1 2047 0
 4499 00a4 0023     		movs	r3, #0
 4500 00a6 B1E1     		b	.L322
 4501              	.L324:
 4502              		.loc 1 2054 0
 4503 00a8 0A9B     		ldr	r3, [sp, #40]
 4504 00aa 0022     		movs	r2, #0
 4505 00ac 1A70     		strb	r2, [r3]
 4506              		.loc 1 2055 0
 4507 00ae 109B     		ldr	r3, [sp, #64]
 4508 00b0 DAB2     		uxtb	r2, r3
 4509 00b2 0A9B     		ldr	r3, [sp, #40]
 4510 00b4 5A70     		strb	r2, [r3, #1]
 4511              		.loc 1 2056 0
 4512 00b6 0A9B     		ldr	r3, [sp, #40]
 4513 00b8 5B78     		ldrb	r3, [r3, #1]	@ zero_extendqisi2
 4514 00ba 1846     		mov	r0, r3
 4515 00bc FFF7FEFF 		bl	disk_initialize
 4516 00c0 0346     		mov	r3, r0
 4517 00c2 8DF82730 		strb	r3, [sp, #39]
 4518              		.loc 1 2057 0
 4519 00c6 9DF82730 		ldrb	r3, [sp, #39]	@ zero_extendqisi2
 4520 00ca 03F00103 		and	r3, r3, #1
 4521 00ce 002B     		cmp	r3, #0
 4522 00d0 01D0     		beq	.L326
 4523              		.loc 1 2058 0
 4524 00d2 0323     		movs	r3, #3
 4525 00d4 9AE1     		b	.L322
 4526              	.L326:
 4527              		.loc 1 2059 0
 4528 00d6 9DF80730 		ldrb	r3, [sp, #7]	@ zero_extendqisi2
 4529 00da 002B     		cmp	r3, #0
 4530 00dc 07D0     		beq	.L327
ARM GAS  /tmp/ccIWRJEN.s 			page 81


 4531              		.loc 1 2059 0 is_stmt 0 discriminator 1
 4532 00de 9DF82730 		ldrb	r3, [sp, #39]	@ zero_extendqisi2
 4533 00e2 03F00403 		and	r3, r3, #4
 4534 00e6 002B     		cmp	r3, #0
 4535 00e8 01D0     		beq	.L327
 4536              		.loc 1 2060 0 is_stmt 1
 4537 00ea 0A23     		movs	r3, #10
 4538 00ec 8EE1     		b	.L322
 4539              	.L327:
 4540              		.loc 1 2066 0
 4541 00ee 0023     		movs	r3, #0
 4542 00f0 0F93     		str	r3, [sp, #60]
 4543 00f2 0A98     		ldr	r0, [sp, #40]
 4544 00f4 0F99     		ldr	r1, [sp, #60]
 4545 00f6 FFF7FEFF 		bl	check_fs
 4546 00fa 0346     		mov	r3, r0
 4547 00fc 8DF84730 		strb	r3, [sp, #71]
 4548              		.loc 1 2068 0
 4549 0100 9DF84730 		ldrb	r3, [sp, #71]	@ zero_extendqisi2
 4550 0104 012B     		cmp	r3, #1
 4551 0106 23D1     		bne	.L328
 4552              		.loc 1 2070 0
 4553 0108 0023     		movs	r3, #0
 4554 010a 8DF84630 		strb	r3, [sp, #70]
 4555              		.loc 1 2071 0
 4556 010e 9DF84630 		ldrb	r3, [sp, #70]	@ zero_extendqisi2
 4557 0112 002B     		cmp	r3, #0
 4558 0114 04D0     		beq	.L329
 4559              		.loc 1 2071 0 is_stmt 0 discriminator 1
 4560 0116 9DF84630 		ldrb	r3, [sp, #70]	@ zero_extendqisi2
 4561 011a 013B     		subs	r3, r3, #1
 4562 011c 8DF84630 		strb	r3, [sp, #70]
 4563              	.L329:
 4564              		.loc 1 2072 0 is_stmt 1
 4565 0120 9DF84630 		ldrb	r3, [sp, #70]	@ zero_extendqisi2
 4566 0124 1B01     		lsls	r3, r3, #4
 4567 0126 03F5DF73 		add	r3, r3, #446
 4568 012a 3033     		adds	r3, r3, #48
 4569 012c 0A9A     		ldr	r2, [sp, #40]
 4570 012e 1344     		add	r3, r3, r2
 4571 0130 0893     		str	r3, [sp, #32]
 4572              		.loc 1 2073 0
 4573 0132 089B     		ldr	r3, [sp, #32]
 4574 0134 0433     		adds	r3, r3, #4
 4575 0136 1B78     		ldrb	r3, [r3]	@ zero_extendqisi2
 4576 0138 002B     		cmp	r3, #0
 4577 013a 09D0     		beq	.L328
 4578              		.loc 1 2074 0
 4579 013c 089B     		ldr	r3, [sp, #32]
 4580 013e 9B68     		ldr	r3, [r3, #8]
 4581 0140 0F93     		str	r3, [sp, #60]
 4582              		.loc 1 2075 0
 4583 0142 0A98     		ldr	r0, [sp, #40]
 4584 0144 0F99     		ldr	r1, [sp, #60]
 4585 0146 FFF7FEFF 		bl	check_fs
 4586 014a 0346     		mov	r3, r0
 4587 014c 8DF84730 		strb	r3, [sp, #71]
ARM GAS  /tmp/ccIWRJEN.s 			page 82


 4588              	.L328:
 4589              		.loc 1 2078 0
 4590 0150 9DF84730 		ldrb	r3, [sp, #71]	@ zero_extendqisi2
 4591 0154 032B     		cmp	r3, #3
 4592 0156 01D1     		bne	.L330
 4593              		.loc 1 2078 0 is_stmt 0 discriminator 1
 4594 0158 0123     		movs	r3, #1
 4595 015a 57E1     		b	.L322
 4596              	.L330:
 4597              		.loc 1 2079 0 is_stmt 1
 4598 015c 9DF84730 		ldrb	r3, [sp, #71]	@ zero_extendqisi2
 4599 0160 002B     		cmp	r3, #0
 4600 0162 01D0     		beq	.L331
 4601              		.loc 1 2079 0 is_stmt 0 discriminator 1
 4602 0164 0D23     		movs	r3, #13
 4603 0166 51E1     		b	.L322
 4604              	.L331:
 4605              		.loc 1 2083 0 is_stmt 1
 4606 0168 0A9B     		ldr	r3, [sp, #40]
 4607 016a 3B33     		adds	r3, r3, #59
 4608 016c 1B88     		ldrh	r3, [r3]
 4609 016e B3F5007F 		cmp	r3, #512
 4610 0172 01D0     		beq	.L332
 4611              		.loc 1 2084 0
 4612 0174 0D23     		movs	r3, #13
 4613 0176 49E1     		b	.L322
 4614              	.L332:
 4615              		.loc 1 2086 0
 4616 0178 0A9B     		ldr	r3, [sp, #40]
 4617 017a 4633     		adds	r3, r3, #70
 4618 017c 1B88     		ldrh	r3, [r3]
 4619 017e 0E93     		str	r3, [sp, #56]
 4620              		.loc 1 2087 0
 4621 0180 0E9B     		ldr	r3, [sp, #56]
 4622 0182 002B     		cmp	r3, #0
 4623 0184 03D1     		bne	.L333
 4624              		.loc 1 2087 0 is_stmt 0 discriminator 1
 4625 0186 0A9B     		ldr	r3, [sp, #40]
 4626 0188 5433     		adds	r3, r3, #84
 4627 018a 1B68     		ldr	r3, [r3]
 4628 018c 0E93     		str	r3, [sp, #56]
 4629              	.L333:
 4630              		.loc 1 2088 0 is_stmt 1
 4631 018e 0A9B     		ldr	r3, [sp, #40]
 4632 0190 0E9A     		ldr	r2, [sp, #56]
 4633 0192 DA61     		str	r2, [r3, #28]
 4634              		.loc 1 2090 0
 4635 0194 0A9B     		ldr	r3, [sp, #40]
 4636 0196 93F84030 		ldrb	r3, [r3, #64]
 4637 019a 8DF81F30 		strb	r3, [sp, #31]
 4638 019e 0A9B     		ldr	r3, [sp, #40]
 4639 01a0 9DF81F20 		ldrb	r2, [sp, #31]
 4640 01a4 DA70     		strb	r2, [r3, #3]
 4641              		.loc 1 2091 0
 4642 01a6 9DF81F30 		ldrb	r3, [sp, #31]	@ zero_extendqisi2
 4643 01aa 012B     		cmp	r3, #1
 4644 01ac 05D0     		beq	.L334
ARM GAS  /tmp/ccIWRJEN.s 			page 83


 4645              		.loc 1 2091 0 is_stmt 0 discriminator 1
 4646 01ae 9DF81F30 		ldrb	r3, [sp, #31]	@ zero_extendqisi2
 4647 01b2 022B     		cmp	r3, #2
 4648 01b4 01D0     		beq	.L334
 4649 01b6 0D23     		movs	r3, #13
 4650 01b8 28E1     		b	.L322
 4651              	.L334:
 4652              		.loc 1 2092 0 is_stmt 1
 4653 01ba 9DF81F20 		ldrb	r2, [sp, #31]	@ zero_extendqisi2
 4654 01be 0E9B     		ldr	r3, [sp, #56]
 4655 01c0 02FB03F3 		mul	r3, r2, r3
 4656 01c4 0E93     		str	r3, [sp, #56]
 4657              		.loc 1 2094 0
 4658 01c6 0A9B     		ldr	r3, [sp, #40]
 4659 01c8 93F83D30 		ldrb	r3, [r3, #61]
 4660 01cc 8DF81F30 		strb	r3, [sp, #31]
 4661 01d0 0A9B     		ldr	r3, [sp, #40]
 4662 01d2 9DF81F20 		ldrb	r2, [sp, #31]
 4663 01d6 9A70     		strb	r2, [r3, #2]
 4664              		.loc 1 2095 0
 4665 01d8 9DF81F30 		ldrb	r3, [sp, #31]	@ zero_extendqisi2
 4666 01dc 002B     		cmp	r3, #0
 4667 01de 07D0     		beq	.L335
 4668              		.loc 1 2095 0 is_stmt 0 discriminator 2
 4669 01e0 9DF81F20 		ldrb	r2, [sp, #31]	@ zero_extendqisi2
 4670 01e4 9DF81F30 		ldrb	r3, [sp, #31]	@ zero_extendqisi2
 4671 01e8 013B     		subs	r3, r3, #1
 4672 01ea 1340     		ands	r3, r3, r2
 4673 01ec 002B     		cmp	r3, #0
 4674 01ee 01D0     		beq	.L336
 4675              	.L335:
 4676              		.loc 1 2095 0 discriminator 1
 4677 01f0 0D23     		movs	r3, #13
 4678 01f2 0BE1     		b	.L322
 4679              	.L336:
 4680              		.loc 1 2097 0 is_stmt 1
 4681 01f4 0A9B     		ldr	r3, [sp, #40]
 4682 01f6 4133     		adds	r3, r3, #65
 4683 01f8 1A88     		ldrh	r2, [r3]
 4684 01fa 0A9B     		ldr	r3, [sp, #40]
 4685 01fc 1A81     		strh	r2, [r3, #8]	@ movhi
 4686              		.loc 1 2098 0
 4687 01fe 0A9B     		ldr	r3, [sp, #40]
 4688 0200 1B89     		ldrh	r3, [r3, #8]
 4689 0202 03F00F03 		and	r3, r3, #15
 4690 0206 9BB2     		uxth	r3, r3
 4691 0208 002B     		cmp	r3, #0
 4692 020a 01D0     		beq	.L337
 4693              		.loc 1 2098 0 is_stmt 0 discriminator 1
 4694 020c 0D23     		movs	r3, #13
 4695 020e FDE0     		b	.L322
 4696              	.L337:
 4697              		.loc 1 2100 0 is_stmt 1
 4698 0210 0A9B     		ldr	r3, [sp, #40]
 4699 0212 4333     		adds	r3, r3, #67
 4700 0214 1B88     		ldrh	r3, [r3]
 4701 0216 0D93     		str	r3, [sp, #52]
ARM GAS  /tmp/ccIWRJEN.s 			page 84


 4702              		.loc 1 2101 0
 4703 0218 0D9B     		ldr	r3, [sp, #52]
 4704 021a 002B     		cmp	r3, #0
 4705 021c 03D1     		bne	.L338
 4706              		.loc 1 2101 0 is_stmt 0 discriminator 1
 4707 021e 0A9B     		ldr	r3, [sp, #40]
 4708 0220 5033     		adds	r3, r3, #80
 4709 0222 1B68     		ldr	r3, [r3]
 4710 0224 0D93     		str	r3, [sp, #52]
 4711              	.L338:
 4712              		.loc 1 2103 0 is_stmt 1
 4713 0226 0A9B     		ldr	r3, [sp, #40]
 4714 0228 3E33     		adds	r3, r3, #62
 4715 022a 1B88     		ldrh	r3, [r3]	@ movhi
 4716 022c ADF81C30 		strh	r3, [sp, #28]	@ movhi
 4717              		.loc 1 2104 0
 4718 0230 BDF81C30 		ldrh	r3, [sp, #28]
 4719 0234 002B     		cmp	r3, #0
 4720 0236 01D1     		bne	.L339
 4721              		.loc 1 2104 0 is_stmt 0 discriminator 1
 4722 0238 0D23     		movs	r3, #13
 4723 023a E7E0     		b	.L322
 4724              	.L339:
 4725              		.loc 1 2107 0 is_stmt 1
 4726 023c BDF81C20 		ldrh	r2, [sp, #28]
 4727 0240 0E9B     		ldr	r3, [sp, #56]
 4728 0242 1A44     		add	r2, r2, r3
 4729 0244 0A9B     		ldr	r3, [sp, #40]
 4730 0246 1B89     		ldrh	r3, [r3, #8]
 4731 0248 1B09     		lsrs	r3, r3, #4
 4732 024a 9BB2     		uxth	r3, r3
 4733 024c 1344     		add	r3, r3, r2
 4734 024e 0693     		str	r3, [sp, #24]
 4735              		.loc 1 2108 0
 4736 0250 0D9A     		ldr	r2, [sp, #52]
 4737 0252 069B     		ldr	r3, [sp, #24]
 4738 0254 9A42     		cmp	r2, r3
 4739 0256 01D2     		bcs	.L340
 4740              		.loc 1 2108 0 is_stmt 0 discriminator 1
 4741 0258 0D23     		movs	r3, #13
 4742 025a D7E0     		b	.L322
 4743              	.L340:
 4744              		.loc 1 2109 0 is_stmt 1
 4745 025c 0D9A     		ldr	r2, [sp, #52]
 4746 025e 069B     		ldr	r3, [sp, #24]
 4747 0260 D21A     		subs	r2, r2, r3
 4748 0262 0A9B     		ldr	r3, [sp, #40]
 4749 0264 9B78     		ldrb	r3, [r3, #2]	@ zero_extendqisi2
 4750 0266 B2FBF3F3 		udiv	r3, r2, r3
 4751 026a 0593     		str	r3, [sp, #20]
 4752              		.loc 1 2110 0
 4753 026c 059B     		ldr	r3, [sp, #20]
 4754 026e 002B     		cmp	r3, #0
 4755 0270 01D1     		bne	.L341
 4756              		.loc 1 2110 0 is_stmt 0 discriminator 1
 4757 0272 0D23     		movs	r3, #13
 4758 0274 CAE0     		b	.L322
ARM GAS  /tmp/ccIWRJEN.s 			page 85


 4759              	.L341:
 4760              		.loc 1 2111 0 is_stmt 1
 4761 0276 0123     		movs	r3, #1
 4762 0278 8DF84730 		strb	r3, [sp, #71]
 4763              		.loc 1 2112 0
 4764 027c 059A     		ldr	r2, [sp, #20]
 4765 027e 40F6F573 		movw	r3, #4085
 4766 0282 9A42     		cmp	r2, r3
 4767 0284 02D9     		bls	.L342
 4768              		.loc 1 2112 0 is_stmt 0 discriminator 1
 4769 0286 0223     		movs	r3, #2
 4770 0288 8DF84730 		strb	r3, [sp, #71]
 4771              	.L342:
 4772              		.loc 1 2113 0 is_stmt 1
 4773 028c 059A     		ldr	r2, [sp, #20]
 4774 028e 4FF6F573 		movw	r3, #65525
 4775 0292 9A42     		cmp	r2, r3
 4776 0294 02D9     		bls	.L343
 4777              		.loc 1 2113 0 is_stmt 0 discriminator 1
 4778 0296 0323     		movs	r3, #3
 4779 0298 8DF84730 		strb	r3, [sp, #71]
 4780              	.L343:
 4781              		.loc 1 2116 0 is_stmt 1
 4782 029c 059B     		ldr	r3, [sp, #20]
 4783 029e 9A1C     		adds	r2, r3, #2
 4784 02a0 0A9B     		ldr	r3, [sp, #40]
 4785 02a2 9A61     		str	r2, [r3, #24]
 4786              		.loc 1 2117 0
 4787 02a4 0F9A     		ldr	r2, [sp, #60]
 4788 02a6 069B     		ldr	r3, [sp, #24]
 4789 02a8 1A44     		add	r2, r2, r3
 4790 02aa 0A9B     		ldr	r3, [sp, #40]
 4791 02ac 9A62     		str	r2, [r3, #40]
 4792              		.loc 1 2118 0
 4793 02ae BDF81C20 		ldrh	r2, [sp, #28]
 4794 02b2 0F9B     		ldr	r3, [sp, #60]
 4795 02b4 1A44     		add	r2, r2, r3
 4796 02b6 0A9B     		ldr	r3, [sp, #40]
 4797 02b8 1A62     		str	r2, [r3, #32]
 4798              		.loc 1 2119 0
 4799 02ba 9DF84730 		ldrb	r3, [sp, #71]	@ zero_extendqisi2
 4800 02be 032B     		cmp	r3, #3
 4801 02c0 0FD1     		bne	.L344
 4802              		.loc 1 2120 0
 4803 02c2 0A9B     		ldr	r3, [sp, #40]
 4804 02c4 1B89     		ldrh	r3, [r3, #8]
 4805 02c6 002B     		cmp	r3, #0
 4806 02c8 01D0     		beq	.L345
 4807              		.loc 1 2120 0 is_stmt 0 discriminator 1
 4808 02ca 0D23     		movs	r3, #13
 4809 02cc 9EE0     		b	.L322
 4810              	.L345:
 4811              		.loc 1 2121 0 is_stmt 1
 4812 02ce 0A9B     		ldr	r3, [sp, #40]
 4813 02d0 5C33     		adds	r3, r3, #92
 4814 02d2 1A68     		ldr	r2, [r3]
 4815 02d4 0A9B     		ldr	r3, [sp, #40]
ARM GAS  /tmp/ccIWRJEN.s 			page 86


 4816 02d6 5A62     		str	r2, [r3, #36]
 4817              		.loc 1 2122 0
 4818 02d8 0A9B     		ldr	r3, [sp, #40]
 4819 02da 9B69     		ldr	r3, [r3, #24]
 4820 02dc 9B00     		lsls	r3, r3, #2
 4821 02de 0C93     		str	r3, [sp, #48]
 4822 02e0 1FE0     		b	.L346
 4823              	.L344:
 4824              		.loc 1 2124 0
 4825 02e2 0A9B     		ldr	r3, [sp, #40]
 4826 02e4 1B89     		ldrh	r3, [r3, #8]
 4827 02e6 002B     		cmp	r3, #0
 4828 02e8 01D1     		bne	.L347
 4829              		.loc 1 2124 0 is_stmt 0 discriminator 1
 4830 02ea 0D23     		movs	r3, #13
 4831 02ec 8EE0     		b	.L322
 4832              	.L347:
 4833              		.loc 1 2125 0 is_stmt 1
 4834 02ee 0A9B     		ldr	r3, [sp, #40]
 4835 02f0 1A6A     		ldr	r2, [r3, #32]
 4836 02f2 0E9B     		ldr	r3, [sp, #56]
 4837 02f4 1A44     		add	r2, r2, r3
 4838 02f6 0A9B     		ldr	r3, [sp, #40]
 4839 02f8 5A62     		str	r2, [r3, #36]
 4840              		.loc 1 2127 0
 4841 02fa 9DF84730 		ldrb	r3, [sp, #71]	@ zero_extendqisi2
 4842 02fe 022B     		cmp	r3, #2
 4843 0300 03D1     		bne	.L348
 4844              		.loc 1 2127 0 is_stmt 0 discriminator 1
 4845 0302 0A9B     		ldr	r3, [sp, #40]
 4846 0304 9B69     		ldr	r3, [r3, #24]
 4847 0306 5B00     		lsls	r3, r3, #1
 4848 0308 0AE0     		b	.L349
 4849              	.L348:
 4850              		.loc 1 2127 0 discriminator 2
 4851 030a 0A9B     		ldr	r3, [sp, #40]
 4852 030c 9A69     		ldr	r2, [r3, #24]
 4853 030e 1346     		mov	r3, r2
 4854 0310 5B00     		lsls	r3, r3, #1
 4855 0312 1344     		add	r3, r3, r2
 4856 0314 5A08     		lsrs	r2, r3, #1
 4857 0316 0A9B     		ldr	r3, [sp, #40]
 4858 0318 9B69     		ldr	r3, [r3, #24]
 4859 031a 03F00103 		and	r3, r3, #1
 4860 031e 1344     		add	r3, r3, r2
 4861              	.L349:
 4862              		.loc 1 2126 0 is_stmt 1
 4863 0320 0C93     		str	r3, [sp, #48]
 4864              	.L346:
 4865              		.loc 1 2129 0
 4866 0322 0A9B     		ldr	r3, [sp, #40]
 4867 0324 DA69     		ldr	r2, [r3, #28]
 4868 0326 0C9B     		ldr	r3, [sp, #48]
 4869 0328 03F2FF13 		addw	r3, r3, #511
 4870 032c 5B0A     		lsrs	r3, r3, #9
 4871 032e 9A42     		cmp	r2, r3
 4872 0330 01D2     		bcs	.L350
ARM GAS  /tmp/ccIWRJEN.s 			page 87


 4873              		.loc 1 2130 0
 4874 0332 0D23     		movs	r3, #13
 4875 0334 6AE0     		b	.L322
 4876              	.L350:
 4877              		.loc 1 2134 0
 4878 0336 0A9B     		ldr	r3, [sp, #40]
 4879 0338 4FF0FF32 		mov	r2, #-1
 4880 033c 1A61     		str	r2, [r3, #16]
 4881              		.loc 1 2135 0
 4882 033e 0A9B     		ldr	r3, [sp, #40]
 4883 0340 0022     		movs	r2, #0
 4884 0342 DA60     		str	r2, [r3, #12]
 4885              		.loc 1 2138 0
 4886 0344 9DF84730 		ldrb	r3, [sp, #71]	@ zero_extendqisi2
 4887 0348 032B     		cmp	r3, #3
 4888 034a 41D1     		bne	.L351
 4889              		.loc 1 2139 0
 4890 034c 0A9B     		ldr	r3, [sp, #40]
 4891 034e 0022     		movs	r2, #0
 4892 0350 5A71     		strb	r2, [r3, #5]
 4893              		.loc 1 2140 0
 4894 0352 0A9B     		ldr	r3, [sp, #40]
 4895 0354 6033     		adds	r3, r3, #96
 4896 0356 1B88     		ldrh	r3, [r3]
 4897 0358 1A46     		mov	r2, r3
 4898 035a 0F9B     		ldr	r3, [sp, #60]
 4899 035c 1A44     		add	r2, r2, r3
 4900 035e 0A9B     		ldr	r3, [sp, #40]
 4901 0360 5A61     		str	r2, [r3, #20]
 4902              		.loc 1 2141 0
 4903 0362 0A9B     		ldr	r3, [sp, #40]
 4904 0364 5978     		ldrb	r1, [r3, #1]	@ zero_extendqisi2
 4905 0366 0A9B     		ldr	r3, [sp, #40]
 4906 0368 03F13002 		add	r2, r3, #48
 4907 036c 0A9B     		ldr	r3, [sp, #40]
 4908 036e 5B69     		ldr	r3, [r3, #20]
 4909 0370 0846     		mov	r0, r1
 4910 0372 1146     		mov	r1, r2
 4911 0374 1A46     		mov	r2, r3
 4912 0376 0123     		movs	r3, #1
 4913 0378 FFF7FEFF 		bl	disk_read
 4914 037c 0346     		mov	r3, r0
 4915 037e 002B     		cmp	r3, #0
 4916 0380 26D1     		bne	.L351
 4917              		.loc 1 2142 0 discriminator 1
 4918 0382 0A9B     		ldr	r3, [sp, #40]
 4919 0384 03F22E23 		addw	r3, r3, #558
 4920 0388 1A88     		ldrh	r2, [r3]
 4921              		.loc 1 2141 0 discriminator 1
 4922 038a 4AF65523 		movw	r3, #43605
 4923 038e 9A42     		cmp	r2, r3
 4924 0390 1ED1     		bne	.L351
 4925              		.loc 1 2143 0
 4926 0392 0A9B     		ldr	r3, [sp, #40]
 4927 0394 3033     		adds	r3, r3, #48
 4928 0396 1A68     		ldr	r2, [r3]
 4929              		.loc 1 2142 0
ARM GAS  /tmp/ccIWRJEN.s 			page 88


 4930 0398 45F25223 		movw	r3, #21074
 4931 039c C4F26113 		movt	r3, 16737
 4932 03a0 9A42     		cmp	r2, r3
 4933 03a2 15D1     		bne	.L351
 4934              		.loc 1 2144 0
 4935 03a4 0A9B     		ldr	r3, [sp, #40]
 4936 03a6 03F50573 		add	r3, r3, #532
 4937 03aa 1A68     		ldr	r2, [r3]
 4938              		.loc 1 2143 0
 4939 03ac 47F27223 		movw	r3, #29298
 4940 03b0 C6F24113 		movt	r3, 24897
 4941 03b4 9A42     		cmp	r2, r3
 4942 03b6 0BD1     		bne	.L351
 4943              		.loc 1 2145 0
 4944 03b8 0A9B     		ldr	r3, [sp, #40]
 4945 03ba 03F50773 		add	r3, r3, #540
 4946 03be 1A68     		ldr	r2, [r3]
 4947 03c0 0A9B     		ldr	r3, [sp, #40]
 4948 03c2 DA60     		str	r2, [r3, #12]
 4949              		.loc 1 2146 0
 4950 03c4 0A9B     		ldr	r3, [sp, #40]
 4951 03c6 03F50673 		add	r3, r3, #536
 4952 03ca 1A68     		ldr	r2, [r3]
 4953 03cc 0A9B     		ldr	r3, [sp, #40]
 4954 03ce 1A61     		str	r2, [r3, #16]
 4955              	.L351:
 4956              		.loc 1 2150 0
 4957 03d0 0A9B     		ldr	r3, [sp, #40]
 4958 03d2 9DF84720 		ldrb	r2, [sp, #71]
 4959 03d6 1A70     		strb	r2, [r3]
 4960              		.loc 1 2151 0
 4961 03d8 40F20003 		movw	r3, #:lower16:Fsid
 4962 03dc C0F20003 		movt	r3, #:upper16:Fsid
 4963 03e0 1B88     		ldrh	r3, [r3]
 4964 03e2 0133     		adds	r3, r3, #1
 4965 03e4 9AB2     		uxth	r2, r3
 4966 03e6 40F20003 		movw	r3, #:lower16:Fsid
 4967 03ea C0F20003 		movt	r3, #:upper16:Fsid
 4968 03ee 1A80     		strh	r2, [r3]	@ movhi
 4969 03f0 40F20003 		movw	r3, #:lower16:Fsid
 4970 03f4 C0F20003 		movt	r3, #:upper16:Fsid
 4971 03f8 1A88     		ldrh	r2, [r3]
 4972 03fa 0A9B     		ldr	r3, [sp, #40]
 4973 03fc DA80     		strh	r2, [r3, #6]	@ movhi
 4974              		.loc 1 2152 0
 4975 03fe 0A9B     		ldr	r3, [sp, #40]
 4976 0400 0022     		movs	r2, #0
 4977 0402 DA62     		str	r2, [r3, #44]
 4978              		.loc 1 2153 0
 4979 0404 0A9B     		ldr	r3, [sp, #40]
 4980 0406 0022     		movs	r2, #0
 4981 0408 1A71     		strb	r2, [r3, #4]
 4982              		.loc 1 2161 0
 4983 040a 0023     		movs	r3, #0
 4984              	.L322:
 4985              		.loc 1 2162 0
 4986 040c 1846     		mov	r0, r3
ARM GAS  /tmp/ccIWRJEN.s 			page 89


 4987 040e 13B0     		add	sp, sp, #76
 4988              		@ sp needed
 4989 0410 5DF804FB 		ldr	pc, [sp], #4
 4990              		.cfi_endproc
 4991              	.LFE33:
 4992              		.size	chk_mounted, .-chk_mounted
 4993 0414 AFF30080 		.section	.text.validate,"ax",%progbits
 4993      AFF30080 
 4993      AFF30080 
 4994              		.align	2
 4995              		.p2align 4,,15
 4996              		.thumb
 4997              		.thumb_func
 4998              		.type	validate, %function
 4999              	validate:
 5000              	.LFB34:
 5001              		.loc 1 2176 0
 5002              		.cfi_startproc
 5003              		@ args = 0, pretend = 0, frame = 8
 5004              		@ frame_needed = 0, uses_anonymous_args = 0
 5005 0000 00B5     		push	{lr}
 5006              		.cfi_def_cfa_offset 4
 5007              		.cfi_offset 14, -4
 5008 0002 83B0     		sub	sp, sp, #12
 5009              		.cfi_def_cfa_offset 16
 5010 0004 0190     		str	r0, [sp, #4]
 5011 0006 0B46     		mov	r3, r1
 5012 0008 ADF80230 		strh	r3, [sp, #2]	@ movhi
 5013              		.loc 1 2177 0
 5014 000c 019B     		ldr	r3, [sp, #4]
 5015 000e 002B     		cmp	r3, #0
 5016 0010 09D0     		beq	.L353
 5017              		.loc 1 2177 0 is_stmt 0 discriminator 1
 5018 0012 019B     		ldr	r3, [sp, #4]
 5019 0014 1B78     		ldrb	r3, [r3]	@ zero_extendqisi2
 5020 0016 002B     		cmp	r3, #0
 5021 0018 05D0     		beq	.L353
 5022 001a 019B     		ldr	r3, [sp, #4]
 5023 001c DB88     		ldrh	r3, [r3, #6]
 5024 001e BDF80220 		ldrh	r2, [sp, #2]
 5025 0022 9A42     		cmp	r2, r3
 5026 0024 01D0     		beq	.L354
 5027              	.L353:
 5028              		.loc 1 2178 0 is_stmt 1
 5029 0026 0923     		movs	r3, #9
 5030 0028 0CE0     		b	.L355
 5031              	.L354:
 5032              		.loc 1 2182 0
 5033 002a 019B     		ldr	r3, [sp, #4]
 5034 002c 5B78     		ldrb	r3, [r3, #1]	@ zero_extendqisi2
 5035 002e 1846     		mov	r0, r3
 5036 0030 FFF7FEFF 		bl	disk_status
 5037 0034 0346     		mov	r3, r0
 5038 0036 03F00103 		and	r3, r3, #1
 5039 003a 002B     		cmp	r3, #0
 5040 003c 01D0     		beq	.L356
 5041              		.loc 1 2183 0
ARM GAS  /tmp/ccIWRJEN.s 			page 90


 5042 003e 0323     		movs	r3, #3
 5043 0040 00E0     		b	.L355
 5044              	.L356:
 5045              		.loc 1 2185 0
 5046 0042 0023     		movs	r3, #0
 5047              	.L355:
 5048              		.loc 1 2186 0
 5049 0044 1846     		mov	r0, r3
 5050 0046 03B0     		add	sp, sp, #12
 5051              		@ sp needed
 5052 0048 5DF804FB 		ldr	pc, [sp], #4
 5053              		.cfi_endproc
 5054              	.LFE34:
 5055              		.size	validate, .-validate
 5056 004c AFF30080 		.section	.text.f_mount,"ax",%progbits
 5057              		.align	2
 5058              		.p2align 4,,15
 5059              		.global	f_mount
 5060              		.thumb
 5061              		.thumb_func
 5062              		.type	f_mount, %function
 5063              	f_mount:
 5064              	.LFB35:
 5065              		.loc 1 2207 0
 5066              		.cfi_startproc
 5067              		@ args = 0, pretend = 0, frame = 16
 5068              		@ frame_needed = 0, uses_anonymous_args = 0
 5069              		@ link register save eliminated.
 5070 0000 84B0     		sub	sp, sp, #16
 5071              		.cfi_def_cfa_offset 16
 5072 0002 0346     		mov	r3, r0
 5073 0004 0091     		str	r1, [sp]
 5074 0006 8DF80730 		strb	r3, [sp, #7]
 5075              		.loc 1 2211 0
 5076 000a 9DF80730 		ldrb	r3, [sp, #7]	@ zero_extendqisi2
 5077 000e 002B     		cmp	r3, #0
 5078 0010 01D0     		beq	.L358
 5079              		.loc 1 2212 0
 5080 0012 0B23     		movs	r3, #11
 5081 0014 1EE0     		b	.L359
 5082              	.L358:
 5083              		.loc 1 2213 0
 5084 0016 9DF80720 		ldrb	r2, [sp, #7]	@ zero_extendqisi2
 5085 001a 40F20003 		movw	r3, #:lower16:FatFs
 5086 001e C0F20003 		movt	r3, #:upper16:FatFs
 5087 0022 53F82230 		ldr	r3, [r3, r2, lsl #2]
 5088 0026 0393     		str	r3, [sp, #12]
 5089              		.loc 1 2215 0
 5090 0028 039B     		ldr	r3, [sp, #12]
 5091 002a 002B     		cmp	r3, #0
 5092 002c 02D0     		beq	.L360
 5093              		.loc 1 2222 0
 5094 002e 039B     		ldr	r3, [sp, #12]
 5095 0030 0022     		movs	r2, #0
 5096 0032 1A70     		strb	r2, [r3]
 5097              	.L360:
 5098              		.loc 1 2225 0
ARM GAS  /tmp/ccIWRJEN.s 			page 91


 5099 0034 009B     		ldr	r3, [sp]
 5100 0036 002B     		cmp	r3, #0
 5101 0038 02D0     		beq	.L361
 5102              		.loc 1 2226 0
 5103 003a 009B     		ldr	r3, [sp]
 5104 003c 0022     		movs	r2, #0
 5105 003e 1A70     		strb	r2, [r3]
 5106              	.L361:
 5107              		.loc 1 2231 0
 5108 0040 9DF80720 		ldrb	r2, [sp, #7]	@ zero_extendqisi2
 5109 0044 40F20003 		movw	r3, #:lower16:FatFs
 5110 0048 C0F20003 		movt	r3, #:upper16:FatFs
 5111 004c 0099     		ldr	r1, [sp]
 5112 004e 43F82210 		str	r1, [r3, r2, lsl #2]
 5113              		.loc 1 2233 0
 5114 0052 0023     		movs	r3, #0
 5115              	.L359:
 5116              		.loc 1 2234 0
 5117 0054 1846     		mov	r0, r3
 5118 0056 04B0     		add	sp, sp, #16
 5119              		@ sp needed
 5120 0058 7047     		bx	lr
 5121              		.cfi_endproc
 5122              	.LFE35:
 5123              		.size	f_mount, .-f_mount
 5124 005a 00BFAFF3 		.section	.text.f_open,"ax",%progbits
 5124      0080
 5125              		.align	2
 5126              		.p2align 4,,15
 5127              		.global	f_open
 5128              		.thumb
 5129              		.thumb_func
 5130              		.type	f_open, %function
 5131              	f_open:
 5132              	.LFB36:
 5133              		.loc 1 2248 0
 5134              		.cfi_startproc
 5135              		@ args = 0, pretend = 0, frame = 88
 5136              		@ frame_needed = 0, uses_anonymous_args = 0
 5137 0000 00B5     		push	{lr}
 5138              		.cfi_def_cfa_offset 4
 5139              		.cfi_offset 14, -4
 5140 0002 97B0     		sub	sp, sp, #92
 5141              		.cfi_def_cfa_offset 96
 5142 0004 0390     		str	r0, [sp, #12]
 5143 0006 0291     		str	r1, [sp, #8]
 5144 0008 1346     		mov	r3, r2
 5145 000a 8DF80730 		strb	r3, [sp, #7]
 5146              		.loc 1 2255 0
 5147 000e 039B     		ldr	r3, [sp, #12]
 5148 0010 0022     		movs	r2, #0
 5149 0012 1A60     		str	r2, [r3]
 5150              		.loc 1 2258 0
 5151 0014 9DF80730 		ldrb	r3, [sp, #7]
 5152 0018 03F01F03 		and	r3, r3, #31
 5153 001c 8DF80730 		strb	r3, [sp, #7]
 5154              		.loc 1 2259 0
ARM GAS  /tmp/ccIWRJEN.s 			page 92


 5155 0020 9DF80730 		ldrb	r3, [sp, #7]
 5156 0024 23F00103 		bic	r3, r3, #1
 5157 0028 DBB2     		uxtb	r3, r3
 5158 002a 02A9     		add	r1, sp, #8
 5159 002c 08AA     		add	r2, sp, #32
 5160 002e 0846     		mov	r0, r1
 5161 0030 1146     		mov	r1, r2
 5162 0032 1A46     		mov	r2, r3
 5163 0034 FFF7FEFF 		bl	chk_mounted
 5164 0038 0346     		mov	r3, r0
 5165 003a 8DF85730 		strb	r3, [sp, #87]
 5166              		.loc 1 2264 0
 5167 003e 4FF40070 		mov	r0, #512
 5168 0042 FFF7FEFF 		bl	ff_memalloc
 5169 0046 1390     		str	r0, [sp, #76]
 5170 0048 139B     		ldr	r3, [sp, #76]
 5171 004a 002B     		cmp	r3, #0
 5172 004c 01D1     		bne	.L363
 5173              		.loc 1 2264 0 is_stmt 0 discriminator 1
 5174 004e 1123     		movs	r3, #17
 5175 0050 F9E0     		b	.L378
 5176              	.L363:
 5177              		.loc 1 2264 0 discriminator 2
 5178 0052 139B     		ldr	r3, [sp, #76]
 5179 0054 0F93     		str	r3, [sp, #60]
 5180 0056 05AB     		add	r3, sp, #20
 5181 0058 0E93     		str	r3, [sp, #56]
 5182              		.loc 1 2265 0 is_stmt 1 discriminator 2
 5183 005a 9DF85730 		ldrb	r3, [sp, #87]	@ zero_extendqisi2
 5184 005e 002B     		cmp	r3, #0
 5185 0060 08D1     		bne	.L365
 5186              		.loc 1 2266 0
 5187 0062 029B     		ldr	r3, [sp, #8]
 5188 0064 08AA     		add	r2, sp, #32
 5189 0066 1046     		mov	r0, r2
 5190 0068 1946     		mov	r1, r3
 5191 006a FFF7FEFF 		bl	follow_path
 5192 006e 0346     		mov	r3, r0
 5193 0070 8DF85730 		strb	r3, [sp, #87]
 5194              	.L365:
 5195              		.loc 1 2267 0
 5196 0074 0D9B     		ldr	r3, [sp, #52]
 5197 0076 1493     		str	r3, [sp, #80]
 5198              		.loc 1 2270 0
 5199 0078 9DF85730 		ldrb	r3, [sp, #87]	@ zero_extendqisi2
 5200 007c 002B     		cmp	r3, #0
 5201 007e 05D1     		bne	.L366
 5202              		.loc 1 2271 0
 5203 0080 149B     		ldr	r3, [sp, #80]
 5204 0082 002B     		cmp	r3, #0
 5205 0084 02D1     		bne	.L366
 5206              		.loc 1 2272 0
 5207 0086 0623     		movs	r3, #6
 5208 0088 8DF85730 		strb	r3, [sp, #87]
 5209              	.L366:
 5210              		.loc 1 2279 0
 5211 008c 9DF80730 		ldrb	r3, [sp, #7]	@ zero_extendqisi2
ARM GAS  /tmp/ccIWRJEN.s 			page 93


 5212 0090 03F01C03 		and	r3, r3, #28
 5213 0094 002B     		cmp	r3, #0
 5214 0096 78D0     		beq	.L367
 5215              	.LBB5:
 5216              		.loc 1 2282 0
 5217 0098 9DF85730 		ldrb	r3, [sp, #87]	@ zero_extendqisi2
 5218 009c 002B     		cmp	r3, #0
 5219 009e 13D0     		beq	.L368
 5220              		.loc 1 2283 0
 5221 00a0 9DF85730 		ldrb	r3, [sp, #87]	@ zero_extendqisi2
 5222 00a4 042B     		cmp	r3, #4
 5223 00a6 06D1     		bne	.L369
 5224              		.loc 1 2287 0
 5225 00a8 08AB     		add	r3, sp, #32
 5226 00aa 1846     		mov	r0, r3
 5227 00ac FFF7FEFF 		bl	dir_register
 5228 00b0 0346     		mov	r3, r0
 5229 00b2 8DF85730 		strb	r3, [sp, #87]
 5230              	.L369:
 5231              		.loc 1 2289 0
 5232 00b6 9DF80730 		ldrb	r3, [sp, #7]
 5233 00ba 43F00803 		orr	r3, r3, #8
 5234 00be 8DF80730 		strb	r3, [sp, #7]
 5235              		.loc 1 2290 0
 5236 00c2 0D9B     		ldr	r3, [sp, #52]
 5237 00c4 1493     		str	r3, [sp, #80]
 5238 00c6 13E0     		b	.L370
 5239              	.L368:
 5240              		.loc 1 2293 0
 5241 00c8 149B     		ldr	r3, [sp, #80]
 5242 00ca 0B33     		adds	r3, r3, #11
 5243 00cc 1B78     		ldrb	r3, [r3]	@ zero_extendqisi2
 5244 00ce 03F01103 		and	r3, r3, #17
 5245 00d2 002B     		cmp	r3, #0
 5246 00d4 03D0     		beq	.L371
 5247              		.loc 1 2294 0
 5248 00d6 0723     		movs	r3, #7
 5249 00d8 8DF85730 		strb	r3, [sp, #87]
 5250 00dc 08E0     		b	.L370
 5251              	.L371:
 5252              		.loc 1 2296 0
 5253 00de 9DF80730 		ldrb	r3, [sp, #7]	@ zero_extendqisi2
 5254 00e2 03F00403 		and	r3, r3, #4
 5255 00e6 002B     		cmp	r3, #0
 5256 00e8 02D0     		beq	.L370
 5257              		.loc 1 2297 0
 5258 00ea 0823     		movs	r3, #8
 5259 00ec 8DF85730 		strb	r3, [sp, #87]
 5260              	.L370:
 5261              		.loc 1 2300 0
 5262 00f0 9DF85730 		ldrb	r3, [sp, #87]	@ zero_extendqisi2
 5263 00f4 002B     		cmp	r3, #0
 5264 00f6 47D1     		bne	.L372
 5265              		.loc 1 2300 0 is_stmt 0 discriminator 1
 5266 00f8 9DF80730 		ldrb	r3, [sp, #7]	@ zero_extendqisi2
 5267 00fc 03F00803 		and	r3, r3, #8
 5268 0100 002B     		cmp	r3, #0
ARM GAS  /tmp/ccIWRJEN.s 			page 94


 5269 0102 41D0     		beq	.L372
 5270              		.loc 1 2301 0 is_stmt 1
 5271 0104 FFF7FEFF 		bl	get_fattime
 5272 0108 1290     		str	r0, [sp, #72]
 5273              		.loc 1 2302 0
 5274 010a 149B     		ldr	r3, [sp, #80]
 5275 010c 0E33     		adds	r3, r3, #14
 5276 010e 129A     		ldr	r2, [sp, #72]
 5277 0110 1A60     		str	r2, [r3]
 5278              		.loc 1 2303 0
 5279 0112 149B     		ldr	r3, [sp, #80]
 5280 0114 0B33     		adds	r3, r3, #11
 5281 0116 0022     		movs	r2, #0
 5282 0118 1A70     		strb	r2, [r3]
 5283              		.loc 1 2304 0
 5284 011a 149B     		ldr	r3, [sp, #80]
 5285 011c 1C33     		adds	r3, r3, #28
 5286 011e 0022     		movs	r2, #0
 5287 0120 1A60     		str	r2, [r3]
 5288              		.loc 1 2305 0
 5289 0122 149B     		ldr	r3, [sp, #80]
 5290 0124 1433     		adds	r3, r3, #20
 5291 0126 1B88     		ldrh	r3, [r3]
 5292 0128 1A04     		lsls	r2, r3, #16
 5293 012a 149B     		ldr	r3, [sp, #80]
 5294 012c 1A33     		adds	r3, r3, #26
 5295 012e 1B88     		ldrh	r3, [r3]
 5296 0130 1343     		orrs	r3, r3, r2
 5297 0132 1193     		str	r3, [sp, #68]
 5298              		.loc 1 2306 0
 5299 0134 149B     		ldr	r3, [sp, #80]
 5300 0136 1A33     		adds	r3, r3, #26
 5301 0138 0022     		movs	r2, #0
 5302 013a 1A80     		strh	r2, [r3]	@ movhi
 5303 013c 149B     		ldr	r3, [sp, #80]
 5304 013e 1433     		adds	r3, r3, #20
 5305 0140 0022     		movs	r2, #0
 5306 0142 1A80     		strh	r2, [r3]	@ movhi
 5307              		.loc 1 2307 0
 5308 0144 089B     		ldr	r3, [sp, #32]
 5309 0146 0122     		movs	r2, #1
 5310 0148 1A71     		strb	r2, [r3, #4]
 5311              		.loc 1 2308 0
 5312 014a 119B     		ldr	r3, [sp, #68]
 5313 014c 002B     		cmp	r3, #0
 5314 014e 1BD0     		beq	.L372
 5315              		.loc 1 2309 0
 5316 0150 089B     		ldr	r3, [sp, #32]
 5317 0152 DB6A     		ldr	r3, [r3, #44]
 5318 0154 1293     		str	r3, [sp, #72]
 5319              		.loc 1 2310 0
 5320 0156 089B     		ldr	r3, [sp, #32]
 5321 0158 1846     		mov	r0, r3
 5322 015a 1199     		ldr	r1, [sp, #68]
 5323 015c FFF7FEFF 		bl	remove_chain
 5324 0160 0346     		mov	r3, r0
 5325 0162 8DF85730 		strb	r3, [sp, #87]
ARM GAS  /tmp/ccIWRJEN.s 			page 95


 5326              		.loc 1 2311 0
 5327 0166 9DF85730 		ldrb	r3, [sp, #87]	@ zero_extendqisi2
 5328 016a 002B     		cmp	r3, #0
 5329 016c 0CD1     		bne	.L372
 5330              		.loc 1 2312 0
 5331 016e 089B     		ldr	r3, [sp, #32]
 5332 0170 119A     		ldr	r2, [sp, #68]
 5333 0172 013A     		subs	r2, r2, #1
 5334 0174 DA60     		str	r2, [r3, #12]
 5335              		.loc 1 2313 0
 5336 0176 089B     		ldr	r3, [sp, #32]
 5337 0178 1846     		mov	r0, r3
 5338 017a 1299     		ldr	r1, [sp, #72]
 5339 017c FFF7FEFF 		bl	move_window
 5340 0180 0346     		mov	r3, r0
 5341 0182 8DF85730 		strb	r3, [sp, #87]
 5342              	.LBE5:
 5343 0186 1FE0     		b	.L373
 5344              	.L372:
 5345 0188 1EE0     		b	.L373
 5346              	.L367:
 5347              		.loc 1 2319 0
 5348 018a 9DF85730 		ldrb	r3, [sp, #87]	@ zero_extendqisi2
 5349 018e 002B     		cmp	r3, #0
 5350 0190 1AD1     		bne	.L373
 5351              		.loc 1 2320 0
 5352 0192 149B     		ldr	r3, [sp, #80]
 5353 0194 0B33     		adds	r3, r3, #11
 5354 0196 1B78     		ldrb	r3, [r3]	@ zero_extendqisi2
 5355 0198 03F01003 		and	r3, r3, #16
 5356 019c 002B     		cmp	r3, #0
 5357 019e 03D0     		beq	.L374
 5358              		.loc 1 2321 0
 5359 01a0 0423     		movs	r3, #4
 5360 01a2 8DF85730 		strb	r3, [sp, #87]
 5361 01a6 0FE0     		b	.L373
 5362              	.L374:
 5363              		.loc 1 2323 0
 5364 01a8 9DF80730 		ldrb	r3, [sp, #7]	@ zero_extendqisi2
 5365 01ac 03F00203 		and	r3, r3, #2
 5366 01b0 002B     		cmp	r3, #0
 5367 01b2 09D0     		beq	.L373
 5368              		.loc 1 2323 0 is_stmt 0 discriminator 1
 5369 01b4 149B     		ldr	r3, [sp, #80]
 5370 01b6 0B33     		adds	r3, r3, #11
 5371 01b8 1B78     		ldrb	r3, [r3]	@ zero_extendqisi2
 5372 01ba 03F00103 		and	r3, r3, #1
 5373 01be 002B     		cmp	r3, #0
 5374 01c0 02D0     		beq	.L373
 5375              		.loc 1 2324 0 is_stmt 1
 5376 01c2 0723     		movs	r3, #7
 5377 01c4 8DF85730 		strb	r3, [sp, #87]
 5378              	.L373:
 5379              		.loc 1 2328 0
 5380 01c8 9DF85730 		ldrb	r3, [sp, #87]	@ zero_extendqisi2
 5381 01cc 002B     		cmp	r3, #0
 5382 01ce 12D1     		bne	.L375
ARM GAS  /tmp/ccIWRJEN.s 			page 96


 5383              		.loc 1 2329 0
 5384 01d0 9DF80730 		ldrb	r3, [sp, #7]	@ zero_extendqisi2
 5385 01d4 03F00803 		and	r3, r3, #8
 5386 01d8 002B     		cmp	r3, #0
 5387 01da 05D0     		beq	.L376
 5388              		.loc 1 2330 0
 5389 01dc 9DF80730 		ldrb	r3, [sp, #7]
 5390 01e0 43F02003 		orr	r3, r3, #32
 5391 01e4 8DF80730 		strb	r3, [sp, #7]
 5392              	.L376:
 5393              		.loc 1 2331 0
 5394 01e8 089B     		ldr	r3, [sp, #32]
 5395 01ea DA6A     		ldr	r2, [r3, #44]
 5396 01ec 039B     		ldr	r3, [sp, #12]
 5397 01ee DA61     		str	r2, [r3, #28]
 5398              		.loc 1 2332 0
 5399 01f0 039B     		ldr	r3, [sp, #12]
 5400 01f2 149A     		ldr	r2, [sp, #80]
 5401 01f4 1A62     		str	r2, [r3, #32]
 5402              	.L375:
 5403              		.loc 1 2349 0
 5404 01f6 1398     		ldr	r0, [sp, #76]
 5405 01f8 FFF7FEFF 		bl	ff_memfree
 5406              		.loc 1 2351 0
 5407 01fc 9DF85730 		ldrb	r3, [sp, #87]	@ zero_extendqisi2
 5408 0200 002B     		cmp	r3, #0
 5409 0202 1ED1     		bne	.L377
 5410              		.loc 1 2352 0
 5411 0204 039B     		ldr	r3, [sp, #12]
 5412 0206 9DF80720 		ldrb	r2, [sp, #7]
 5413 020a 9A71     		strb	r2, [r3, #6]
 5414              		.loc 1 2353 0
 5415 020c 149B     		ldr	r3, [sp, #80]
 5416 020e 1433     		adds	r3, r3, #20
 5417 0210 1B88     		ldrh	r3, [r3]
 5418 0212 1A04     		lsls	r2, r3, #16
 5419 0214 149B     		ldr	r3, [sp, #80]
 5420 0216 1A33     		adds	r3, r3, #26
 5421 0218 1B88     		ldrh	r3, [r3]
 5422 021a 1A43     		orrs	r2, r2, r3
 5423 021c 039B     		ldr	r3, [sp, #12]
 5424 021e 1A61     		str	r2, [r3, #16]
 5425              		.loc 1 2354 0
 5426 0220 149B     		ldr	r3, [sp, #80]
 5427 0222 DA69     		ldr	r2, [r3, #28]
 5428 0224 039B     		ldr	r3, [sp, #12]
 5429 0226 DA60     		str	r2, [r3, #12]
 5430              		.loc 1 2355 0
 5431 0228 039B     		ldr	r3, [sp, #12]
 5432 022a 0022     		movs	r2, #0
 5433 022c 9A60     		str	r2, [r3, #8]
 5434              		.loc 1 2356 0
 5435 022e 039B     		ldr	r3, [sp, #12]
 5436 0230 0022     		movs	r2, #0
 5437 0232 9A61     		str	r2, [r3, #24]
 5438              		.loc 1 2360 0
 5439 0234 089A     		ldr	r2, [sp, #32]
ARM GAS  /tmp/ccIWRJEN.s 			page 97


 5440 0236 039B     		ldr	r3, [sp, #12]
 5441 0238 1A60     		str	r2, [r3]
 5442 023a 089B     		ldr	r3, [sp, #32]
 5443 023c DA88     		ldrh	r2, [r3, #6]
 5444 023e 039B     		ldr	r3, [sp, #12]
 5445 0240 9A80     		strh	r2, [r3, #4]	@ movhi
 5446              	.L377:
 5447              		.loc 1 2363 0
 5448 0242 9DF85730 		ldrb	r3, [sp, #87]	@ zero_extendqisi2
 5449              	.L378:
 5450              		.loc 1 2364 0
 5451 0246 1846     		mov	r0, r3
 5452 0248 17B0     		add	sp, sp, #92
 5453              		@ sp needed
 5454 024a 5DF804FB 		ldr	pc, [sp], #4
 5455              		.cfi_endproc
 5456              	.LFE36:
 5457              		.size	f_open, .-f_open
 5458 024e 00BF     		.section	.text.f_read,"ax",%progbits
 5459              		.align	2
 5460              		.p2align 4,,15
 5461              		.global	f_read
 5462              		.thumb
 5463              		.thumb_func
 5464              		.type	f_read, %function
 5465              	f_read:
 5466              	.LFB37:
 5467              		.loc 1 2379 0
 5468              		.cfi_startproc
 5469              		@ args = 0, pretend = 0, frame = 48
 5470              		@ frame_needed = 0, uses_anonymous_args = 0
 5471 0000 00B5     		push	{lr}
 5472              		.cfi_def_cfa_offset 4
 5473              		.cfi_offset 14, -4
 5474 0002 8DB0     		sub	sp, sp, #52
 5475              		.cfi_def_cfa_offset 56
 5476 0004 0390     		str	r0, [sp, #12]
 5477 0006 0291     		str	r1, [sp, #8]
 5478 0008 0192     		str	r2, [sp, #4]
 5479 000a 0093     		str	r3, [sp]
 5480              		.loc 1 2383 0
 5481 000c 029B     		ldr	r3, [sp, #8]
 5482 000e 0893     		str	r3, [sp, #32]
 5483              		.loc 1 2386 0
 5484 0010 009B     		ldr	r3, [sp]
 5485 0012 0022     		movs	r2, #0
 5486 0014 1A60     		str	r2, [r3]
 5487              		.loc 1 2388 0
 5488 0016 039B     		ldr	r3, [sp, #12]
 5489 0018 1A68     		ldr	r2, [r3]
 5490 001a 039B     		ldr	r3, [sp, #12]
 5491 001c 9B88     		ldrh	r3, [r3, #4]
 5492 001e 1046     		mov	r0, r2
 5493 0020 1946     		mov	r1, r3
 5494 0022 FFF7FEFF 		bl	validate
 5495 0026 0346     		mov	r3, r0
 5496 0028 8DF81F30 		strb	r3, [sp, #31]
ARM GAS  /tmp/ccIWRJEN.s 			page 98


 5497              		.loc 1 2389 0
 5498 002c 9DF81F30 		ldrb	r3, [sp, #31]	@ zero_extendqisi2
 5499 0030 002B     		cmp	r3, #0
 5500 0032 02D0     		beq	.L380
 5501              		.loc 1 2389 0 is_stmt 0 discriminator 1
 5502 0034 9DF81F30 		ldrb	r3, [sp, #31]	@ zero_extendqisi2
 5503 0038 41E1     		b	.L381
 5504              	.L380:
 5505              		.loc 1 2390 0 is_stmt 1
 5506 003a 039B     		ldr	r3, [sp, #12]
 5507 003c 9B79     		ldrb	r3, [r3, #6]	@ zero_extendqisi2
 5508 003e DBB2     		uxtb	r3, r3
 5509 0040 5BB2     		sxtb	r3, r3
 5510 0042 002B     		cmp	r3, #0
 5511 0044 01DA     		bge	.L382
 5512              		.loc 1 2391 0
 5513 0046 0223     		movs	r3, #2
 5514 0048 39E1     		b	.L381
 5515              	.L382:
 5516              		.loc 1 2392 0
 5517 004a 039B     		ldr	r3, [sp, #12]
 5518 004c 9B79     		ldrb	r3, [r3, #6]	@ zero_extendqisi2
 5519 004e 03F00103 		and	r3, r3, #1
 5520 0052 002B     		cmp	r3, #0
 5521 0054 01D1     		bne	.L383
 5522              		.loc 1 2393 0
 5523 0056 0723     		movs	r3, #7
 5524 0058 31E1     		b	.L381
 5525              	.L383:
 5526              		.loc 1 2394 0
 5527 005a 039B     		ldr	r3, [sp, #12]
 5528 005c DA68     		ldr	r2, [r3, #12]
 5529 005e 039B     		ldr	r3, [sp, #12]
 5530 0060 9B68     		ldr	r3, [r3, #8]
 5531 0062 D31A     		subs	r3, r2, r3
 5532 0064 0693     		str	r3, [sp, #24]
 5533              		.loc 1 2395 0
 5534 0066 019A     		ldr	r2, [sp, #4]
 5535 0068 069B     		ldr	r3, [sp, #24]
 5536 006a 9A42     		cmp	r2, r3
 5537 006c 02D9     		bls	.L384
 5538              		.loc 1 2395 0 is_stmt 0 discriminator 1
 5539 006e 069B     		ldr	r3, [sp, #24]
 5540 0070 0193     		str	r3, [sp, #4]
 5541              		.loc 1 2397 0 is_stmt 1 discriminator 1
 5542 0072 1FE1     		b	.L385
 5543              	.L384:
 5544              		.loc 1 2397 0 is_stmt 0
 5545 0074 1EE1     		b	.L385
 5546              	.L402:
 5547              		.loc 1 2399 0 is_stmt 1
 5548 0076 039B     		ldr	r3, [sp, #12]
 5549 0078 9B68     		ldr	r3, [r3, #8]
 5550 007a C3F30803 		ubfx	r3, r3, #0, #9
 5551 007e 002B     		cmp	r3, #0
 5552 0080 40F0EA80 		bne	.L386
 5553              		.loc 1 2400 0
ARM GAS  /tmp/ccIWRJEN.s 			page 99


 5554 0084 039B     		ldr	r3, [sp, #12]
 5555 0086 9B68     		ldr	r3, [r3, #8]
 5556 0088 5B0A     		lsrs	r3, r3, #9
 5557 008a DAB2     		uxtb	r2, r3
 5558 008c 039B     		ldr	r3, [sp, #12]
 5559 008e 1B68     		ldr	r3, [r3]
 5560 0090 9B78     		ldrb	r3, [r3, #2]	@ zero_extendqisi2
 5561 0092 013B     		subs	r3, r3, #1
 5562 0094 DBB2     		uxtb	r3, r3
 5563 0096 1340     		ands	r3, r3, r2
 5564 0098 8DF81730 		strb	r3, [sp, #23]
 5565              		.loc 1 2401 0
 5566 009c 9DF81730 		ldrb	r3, [sp, #23]	@ zero_extendqisi2
 5567 00a0 002B     		cmp	r3, #0
 5568 00a2 2CD1     		bne	.L387
 5569              		.loc 1 2402 0
 5570 00a4 039B     		ldr	r3, [sp, #12]
 5571 00a6 9B68     		ldr	r3, [r3, #8]
 5572 00a8 002B     		cmp	r3, #0
 5573 00aa 03D1     		bne	.L388
 5574              		.loc 1 2403 0
 5575 00ac 039B     		ldr	r3, [sp, #12]
 5576 00ae 1B69     		ldr	r3, [r3, #16]
 5577 00b0 0B93     		str	r3, [sp, #44]
 5578 00b2 08E0     		b	.L389
 5579              	.L388:
 5580              		.loc 1 2410 0
 5581 00b4 039B     		ldr	r3, [sp, #12]
 5582 00b6 1A68     		ldr	r2, [r3]
 5583 00b8 039B     		ldr	r3, [sp, #12]
 5584 00ba 5B69     		ldr	r3, [r3, #20]
 5585 00bc 1046     		mov	r0, r2
 5586 00be 1946     		mov	r1, r3
 5587 00c0 FFF7FEFF 		bl	get_fat
 5588 00c4 0B90     		str	r0, [sp, #44]
 5589              	.L389:
 5590              		.loc 1 2412 0
 5591 00c6 0B9B     		ldr	r3, [sp, #44]
 5592 00c8 012B     		cmp	r3, #1
 5593 00ca 08D8     		bhi	.L390
 5594              		.loc 1 2412 0 is_stmt 0 discriminator 1
 5595 00cc 039B     		ldr	r3, [sp, #12]
 5596 00ce 9B79     		ldrb	r3, [r3, #6]	@ zero_extendqisi2
 5597 00d0 63F07F03 		orn	r3, r3, #127
 5598 00d4 DAB2     		uxtb	r2, r3
 5599 00d6 039B     		ldr	r3, [sp, #12]
 5600 00d8 9A71     		strb	r2, [r3, #6]
 5601 00da 0223     		movs	r3, #2
 5602 00dc EFE0     		b	.L381
 5603              	.L390:
 5604              		.loc 1 2413 0 is_stmt 1
 5605 00de 0B9B     		ldr	r3, [sp, #44]
 5606 00e0 B3F1FF3F 		cmp	r3, #-1
 5607 00e4 08D1     		bne	.L391
 5608              		.loc 1 2413 0 is_stmt 0 discriminator 1
 5609 00e6 039B     		ldr	r3, [sp, #12]
 5610 00e8 9B79     		ldrb	r3, [r3, #6]	@ zero_extendqisi2
ARM GAS  /tmp/ccIWRJEN.s 			page 100


 5611 00ea 63F07F03 		orn	r3, r3, #127
 5612 00ee DAB2     		uxtb	r2, r3
 5613 00f0 039B     		ldr	r3, [sp, #12]
 5614 00f2 9A71     		strb	r2, [r3, #6]
 5615 00f4 0123     		movs	r3, #1
 5616 00f6 E2E0     		b	.L381
 5617              	.L391:
 5618              		.loc 1 2414 0 is_stmt 1
 5619 00f8 039B     		ldr	r3, [sp, #12]
 5620 00fa 0B9A     		ldr	r2, [sp, #44]
 5621 00fc 5A61     		str	r2, [r3, #20]
 5622              	.L387:
 5623              		.loc 1 2416 0
 5624 00fe 039B     		ldr	r3, [sp, #12]
 5625 0100 1A68     		ldr	r2, [r3]
 5626 0102 039B     		ldr	r3, [sp, #12]
 5627 0104 5B69     		ldr	r3, [r3, #20]
 5628 0106 1046     		mov	r0, r2
 5629 0108 1946     		mov	r1, r3
 5630 010a FFF7FEFF 		bl	clust2sect
 5631 010e 0490     		str	r0, [sp, #16]
 5632              		.loc 1 2417 0
 5633 0110 049B     		ldr	r3, [sp, #16]
 5634 0112 002B     		cmp	r3, #0
 5635 0114 08D1     		bne	.L392
 5636              		.loc 1 2417 0 is_stmt 0 discriminator 1
 5637 0116 039B     		ldr	r3, [sp, #12]
 5638 0118 9B79     		ldrb	r3, [r3, #6]	@ zero_extendqisi2
 5639 011a 63F07F03 		orn	r3, r3, #127
 5640 011e DAB2     		uxtb	r2, r3
 5641 0120 039B     		ldr	r3, [sp, #12]
 5642 0122 9A71     		strb	r2, [r3, #6]
 5643 0124 0223     		movs	r3, #2
 5644 0126 CAE0     		b	.L381
 5645              	.L392:
 5646              		.loc 1 2418 0 is_stmt 1
 5647 0128 9DF81730 		ldrb	r3, [sp, #23]	@ zero_extendqisi2
 5648 012c 049A     		ldr	r2, [sp, #16]
 5649 012e 1344     		add	r3, r3, r2
 5650 0130 0493     		str	r3, [sp, #16]
 5651              		.loc 1 2419 0
 5652 0132 019B     		ldr	r3, [sp, #4]
 5653 0134 5B0A     		lsrs	r3, r3, #9
 5654 0136 0993     		str	r3, [sp, #36]
 5655              		.loc 1 2420 0
 5656 0138 099B     		ldr	r3, [sp, #36]
 5657 013a 002B     		cmp	r3, #0
 5658 013c 46D0     		beq	.L393
 5659              		.loc 1 2421 0
 5660 013e 9DF81720 		ldrb	r2, [sp, #23]	@ zero_extendqisi2
 5661 0142 099B     		ldr	r3, [sp, #36]
 5662 0144 1A44     		add	r2, r2, r3
 5663 0146 039B     		ldr	r3, [sp, #12]
 5664 0148 1B68     		ldr	r3, [r3]
 5665 014a 9B78     		ldrb	r3, [r3, #2]	@ zero_extendqisi2
 5666 014c 9A42     		cmp	r2, r3
 5667 014e 07D9     		bls	.L394
ARM GAS  /tmp/ccIWRJEN.s 			page 101


 5668              		.loc 1 2422 0
 5669 0150 039B     		ldr	r3, [sp, #12]
 5670 0152 1B68     		ldr	r3, [r3]
 5671 0154 9B78     		ldrb	r3, [r3, #2]	@ zero_extendqisi2
 5672 0156 1A46     		mov	r2, r3
 5673 0158 9DF81730 		ldrb	r3, [sp, #23]	@ zero_extendqisi2
 5674 015c D31A     		subs	r3, r2, r3
 5675 015e 0993     		str	r3, [sp, #36]
 5676              	.L394:
 5677              		.loc 1 2423 0
 5678 0160 039B     		ldr	r3, [sp, #12]
 5679 0162 1B68     		ldr	r3, [r3]
 5680 0164 5A78     		ldrb	r2, [r3, #1]	@ zero_extendqisi2
 5681 0166 099B     		ldr	r3, [sp, #36]
 5682 0168 DBB2     		uxtb	r3, r3
 5683 016a 1046     		mov	r0, r2
 5684 016c 0899     		ldr	r1, [sp, #32]
 5685 016e 049A     		ldr	r2, [sp, #16]
 5686 0170 FFF7FEFF 		bl	disk_read
 5687 0174 0346     		mov	r3, r0
 5688 0176 002B     		cmp	r3, #0
 5689 0178 08D0     		beq	.L395
 5690              		.loc 1 2424 0
 5691 017a 039B     		ldr	r3, [sp, #12]
 5692 017c 9B79     		ldrb	r3, [r3, #6]	@ zero_extendqisi2
 5693 017e 63F07F03 		orn	r3, r3, #127
 5694 0182 DAB2     		uxtb	r2, r3
 5695 0184 039B     		ldr	r3, [sp, #12]
 5696 0186 9A71     		strb	r2, [r3, #6]
 5697 0188 0123     		movs	r3, #1
 5698 018a 98E0     		b	.L381
 5699              	.L395:
 5700              		.loc 1 2430 0
 5701 018c 039B     		ldr	r3, [sp, #12]
 5702 018e 9B79     		ldrb	r3, [r3, #6]	@ zero_extendqisi2
 5703 0190 03F04003 		and	r3, r3, #64
 5704 0194 002B     		cmp	r3, #0
 5705 0196 15D0     		beq	.L396
 5706              		.loc 1 2430 0 is_stmt 0 discriminator 1
 5707 0198 039B     		ldr	r3, [sp, #12]
 5708 019a 9A69     		ldr	r2, [r3, #24]
 5709 019c 049B     		ldr	r3, [sp, #16]
 5710 019e D21A     		subs	r2, r2, r3
 5711 01a0 099B     		ldr	r3, [sp, #36]
 5712 01a2 9A42     		cmp	r2, r3
 5713 01a4 0ED2     		bcs	.L396
 5714              		.loc 1 2431 0 is_stmt 1
 5715 01a6 039B     		ldr	r3, [sp, #12]
 5716 01a8 9A69     		ldr	r2, [r3, #24]
 5717 01aa 049B     		ldr	r3, [sp, #16]
 5718 01ac D31A     		subs	r3, r2, r3
 5719 01ae 5B02     		lsls	r3, r3, #9
 5720 01b0 089A     		ldr	r2, [sp, #32]
 5721 01b2 1A44     		add	r2, r2, r3
 5722 01b4 039B     		ldr	r3, [sp, #12]
 5723 01b6 2433     		adds	r3, r3, #36
 5724 01b8 1046     		mov	r0, r2
ARM GAS  /tmp/ccIWRJEN.s 			page 102


 5725 01ba 1946     		mov	r1, r3
 5726 01bc 4FF40072 		mov	r2, #512
 5727 01c0 FFF7FEFF 		bl	mem_cpy
 5728              	.L396:
 5729              		.loc 1 2434 0
 5730 01c4 099B     		ldr	r3, [sp, #36]
 5731 01c6 5B02     		lsls	r3, r3, #9
 5732 01c8 0A93     		str	r3, [sp, #40]
 5733              		.loc 1 2435 0
 5734 01ca 5FE0     		b	.L397
 5735              	.L393:
 5736              		.loc 1 2438 0
 5737 01cc 039B     		ldr	r3, [sp, #12]
 5738 01ce 9A69     		ldr	r2, [r3, #24]
 5739 01d0 049B     		ldr	r3, [sp, #16]
 5740 01d2 9A42     		cmp	r2, r3
 5741 01d4 3DD0     		beq	.L398
 5742              		.loc 1 2440 0
 5743 01d6 039B     		ldr	r3, [sp, #12]
 5744 01d8 9B79     		ldrb	r3, [r3, #6]	@ zero_extendqisi2
 5745 01da 03F04003 		and	r3, r3, #64
 5746 01de 002B     		cmp	r3, #0
 5747 01e0 20D0     		beq	.L399
 5748              		.loc 1 2441 0
 5749 01e2 039B     		ldr	r3, [sp, #12]
 5750 01e4 1B68     		ldr	r3, [r3]
 5751 01e6 5978     		ldrb	r1, [r3, #1]	@ zero_extendqisi2
 5752 01e8 039B     		ldr	r3, [sp, #12]
 5753 01ea 03F12402 		add	r2, r3, #36
 5754 01ee 039B     		ldr	r3, [sp, #12]
 5755 01f0 9B69     		ldr	r3, [r3, #24]
 5756 01f2 0846     		mov	r0, r1
 5757 01f4 1146     		mov	r1, r2
 5758 01f6 1A46     		mov	r2, r3
 5759 01f8 0123     		movs	r3, #1
 5760 01fa FFF7FEFF 		bl	disk_write
 5761 01fe 0346     		mov	r3, r0
 5762 0200 002B     		cmp	r3, #0
 5763 0202 08D0     		beq	.L400
 5764              		.loc 1 2442 0
 5765 0204 039B     		ldr	r3, [sp, #12]
 5766 0206 9B79     		ldrb	r3, [r3, #6]	@ zero_extendqisi2
 5767 0208 63F07F03 		orn	r3, r3, #127
 5768 020c DAB2     		uxtb	r2, r3
 5769 020e 039B     		ldr	r3, [sp, #12]
 5770 0210 9A71     		strb	r2, [r3, #6]
 5771 0212 0123     		movs	r3, #1
 5772 0214 53E0     		b	.L381
 5773              	.L400:
 5774              		.loc 1 2443 0
 5775 0216 039B     		ldr	r3, [sp, #12]
 5776 0218 9B79     		ldrb	r3, [r3, #6]	@ zero_extendqisi2
 5777 021a 23F04003 		bic	r3, r3, #64
 5778 021e DAB2     		uxtb	r2, r3
 5779 0220 039B     		ldr	r3, [sp, #12]
 5780 0222 9A71     		strb	r2, [r3, #6]
 5781              	.L399:
ARM GAS  /tmp/ccIWRJEN.s 			page 103


 5782              		.loc 1 2446 0
 5783 0224 039B     		ldr	r3, [sp, #12]
 5784 0226 1B68     		ldr	r3, [r3]
 5785 0228 5A78     		ldrb	r2, [r3, #1]	@ zero_extendqisi2
 5786 022a 039B     		ldr	r3, [sp, #12]
 5787 022c 2433     		adds	r3, r3, #36
 5788 022e 1046     		mov	r0, r2
 5789 0230 1946     		mov	r1, r3
 5790 0232 049A     		ldr	r2, [sp, #16]
 5791 0234 0123     		movs	r3, #1
 5792 0236 FFF7FEFF 		bl	disk_read
 5793 023a 0346     		mov	r3, r0
 5794 023c 002B     		cmp	r3, #0
 5795 023e 08D0     		beq	.L398
 5796              		.loc 1 2447 0
 5797 0240 039B     		ldr	r3, [sp, #12]
 5798 0242 9B79     		ldrb	r3, [r3, #6]	@ zero_extendqisi2
 5799 0244 63F07F03 		orn	r3, r3, #127
 5800 0248 DAB2     		uxtb	r2, r3
 5801 024a 039B     		ldr	r3, [sp, #12]
 5802 024c 9A71     		strb	r2, [r3, #6]
 5803 024e 0123     		movs	r3, #1
 5804 0250 35E0     		b	.L381
 5805              	.L398:
 5806              		.loc 1 2450 0
 5807 0252 039B     		ldr	r3, [sp, #12]
 5808 0254 049A     		ldr	r2, [sp, #16]
 5809 0256 9A61     		str	r2, [r3, #24]
 5810              	.L386:
 5811              		.loc 1 2452 0
 5812 0258 039B     		ldr	r3, [sp, #12]
 5813 025a 9B68     		ldr	r3, [r3, #8]
 5814 025c C3F30803 		ubfx	r3, r3, #0, #9
 5815 0260 C3F50073 		rsb	r3, r3, #512
 5816 0264 0A93     		str	r3, [sp, #40]
 5817              		.loc 1 2453 0
 5818 0266 0A9A     		ldr	r2, [sp, #40]
 5819 0268 019B     		ldr	r3, [sp, #4]
 5820 026a 9A42     		cmp	r2, r3
 5821 026c 01D9     		bls	.L401
 5822              		.loc 1 2453 0 is_stmt 0 discriminator 1
 5823 026e 019B     		ldr	r3, [sp, #4]
 5824 0270 0A93     		str	r3, [sp, #40]
 5825              	.L401:
 5826              		.loc 1 2459 0 is_stmt 1
 5827 0272 039B     		ldr	r3, [sp, #12]
 5828 0274 9B68     		ldr	r3, [r3, #8]
 5829 0276 C3F30803 		ubfx	r3, r3, #0, #9
 5830 027a 2033     		adds	r3, r3, #32
 5831 027c 039A     		ldr	r2, [sp, #12]
 5832 027e 1344     		add	r3, r3, r2
 5833 0280 0433     		adds	r3, r3, #4
 5834 0282 0898     		ldr	r0, [sp, #32]
 5835 0284 1946     		mov	r1, r3
 5836 0286 0A9A     		ldr	r2, [sp, #40]
 5837 0288 FFF7FEFF 		bl	mem_cpy
 5838              	.L397:
ARM GAS  /tmp/ccIWRJEN.s 			page 104


 5839              		.loc 1 2398 0
 5840 028c 089A     		ldr	r2, [sp, #32]
 5841 028e 0A9B     		ldr	r3, [sp, #40]
 5842 0290 1344     		add	r3, r3, r2
 5843 0292 0893     		str	r3, [sp, #32]
 5844 0294 039B     		ldr	r3, [sp, #12]
 5845 0296 9A68     		ldr	r2, [r3, #8]
 5846 0298 0A9B     		ldr	r3, [sp, #40]
 5847 029a 1A44     		add	r2, r2, r3
 5848 029c 039B     		ldr	r3, [sp, #12]
 5849 029e 9A60     		str	r2, [r3, #8]
 5850 02a0 009B     		ldr	r3, [sp]
 5851 02a2 1A68     		ldr	r2, [r3]
 5852 02a4 0A9B     		ldr	r3, [sp, #40]
 5853 02a6 1A44     		add	r2, r2, r3
 5854 02a8 009B     		ldr	r3, [sp]
 5855 02aa 1A60     		str	r2, [r3]
 5856 02ac 019A     		ldr	r2, [sp, #4]
 5857 02ae 0A9B     		ldr	r3, [sp, #40]
 5858 02b0 D31A     		subs	r3, r2, r3
 5859 02b2 0193     		str	r3, [sp, #4]
 5860              	.L385:
 5861              		.loc 1 2397 0 discriminator 1
 5862 02b4 019B     		ldr	r3, [sp, #4]
 5863 02b6 002B     		cmp	r3, #0
 5864 02b8 7FF4DDAE 		bne	.L402
 5865              		.loc 1 2463 0
 5866 02bc 0023     		movs	r3, #0
 5867              	.L381:
 5868              		.loc 1 2464 0
 5869 02be 1846     		mov	r0, r3
 5870 02c0 0DB0     		add	sp, sp, #52
 5871              		@ sp needed
 5872 02c2 5DF804FB 		ldr	pc, [sp], #4
 5873              		.cfi_endproc
 5874              	.LFE37:
 5875              		.size	f_read, .-f_read
 5876 02c6 00BFAFF3 		.section	.text.f_write,"ax",%progbits
 5876      0080AFF3 
 5876      0080
 5877              		.align	2
 5878              		.p2align 4,,15
 5879              		.global	f_write
 5880              		.thumb
 5881              		.thumb_func
 5882              		.type	f_write, %function
 5883              	f_write:
 5884              	.LFB38:
 5885              		.loc 1 2480 0
 5886              		.cfi_startproc
 5887              		@ args = 0, pretend = 0, frame = 40
 5888              		@ frame_needed = 0, uses_anonymous_args = 0
 5889 0000 00B5     		push	{lr}
 5890              		.cfi_def_cfa_offset 4
 5891              		.cfi_offset 14, -4
 5892 0002 8BB0     		sub	sp, sp, #44
 5893              		.cfi_def_cfa_offset 48
ARM GAS  /tmp/ccIWRJEN.s 			page 105


 5894 0004 0390     		str	r0, [sp, #12]
 5895 0006 0291     		str	r1, [sp, #8]
 5896 0008 0192     		str	r2, [sp, #4]
 5897 000a 0093     		str	r3, [sp]
 5898              		.loc 1 2484 0
 5899 000c 029B     		ldr	r3, [sp, #8]
 5900 000e 0693     		str	r3, [sp, #24]
 5901              		.loc 1 2488 0
 5902 0010 009B     		ldr	r3, [sp]
 5903 0012 0022     		movs	r2, #0
 5904 0014 1A60     		str	r2, [r3]
 5905              		.loc 1 2490 0
 5906 0016 039B     		ldr	r3, [sp, #12]
 5907 0018 1A68     		ldr	r2, [r3]
 5908 001a 039B     		ldr	r3, [sp, #12]
 5909 001c 9B88     		ldrh	r3, [r3, #4]
 5910 001e 1046     		mov	r0, r2
 5911 0020 1946     		mov	r1, r3
 5912 0022 FFF7FEFF 		bl	validate
 5913 0026 0346     		mov	r3, r0
 5914 0028 8DF81730 		strb	r3, [sp, #23]
 5915              		.loc 1 2491 0
 5916 002c 9DF81730 		ldrb	r3, [sp, #23]	@ zero_extendqisi2
 5917 0030 002B     		cmp	r3, #0
 5918 0032 02D0     		beq	.L404
 5919              		.loc 1 2491 0 is_stmt 0 discriminator 1
 5920 0034 9DF81730 		ldrb	r3, [sp, #23]	@ zero_extendqisi2
 5921 0038 70E1     		b	.L405
 5922              	.L404:
 5923              		.loc 1 2492 0 is_stmt 1
 5924 003a 039B     		ldr	r3, [sp, #12]
 5925 003c 9B79     		ldrb	r3, [r3, #6]	@ zero_extendqisi2
 5926 003e DBB2     		uxtb	r3, r3
 5927 0040 5BB2     		sxtb	r3, r3
 5928 0042 002B     		cmp	r3, #0
 5929 0044 01DA     		bge	.L406
 5930              		.loc 1 2493 0
 5931 0046 0223     		movs	r3, #2
 5932 0048 68E1     		b	.L405
 5933              	.L406:
 5934              		.loc 1 2494 0
 5935 004a 039B     		ldr	r3, [sp, #12]
 5936 004c 9B79     		ldrb	r3, [r3, #6]	@ zero_extendqisi2
 5937 004e 03F00203 		and	r3, r3, #2
 5938 0052 002B     		cmp	r3, #0
 5939 0054 01D1     		bne	.L407
 5940              		.loc 1 2495 0
 5941 0056 0723     		movs	r3, #7
 5942 0058 60E1     		b	.L405
 5943              	.L407:
 5944              		.loc 1 2496 0
 5945 005a 039B     		ldr	r3, [sp, #12]
 5946 005c DA68     		ldr	r2, [r3, #12]
 5947 005e 019B     		ldr	r3, [sp, #4]
 5948 0060 1A44     		add	r2, r2, r3
 5949 0062 039B     		ldr	r3, [sp, #12]
 5950 0064 DB68     		ldr	r3, [r3, #12]
ARM GAS  /tmp/ccIWRJEN.s 			page 106


 5951 0066 9A42     		cmp	r2, r3
 5952 0068 02D2     		bcs	.L408
 5953              		.loc 1 2496 0 is_stmt 0 discriminator 1
 5954 006a 0023     		movs	r3, #0
 5955 006c 0193     		str	r3, [sp, #4]
 5956              		.loc 1 2498 0 is_stmt 1 discriminator 1
 5957 006e 3FE1     		b	.L409
 5958              	.L408:
 5959              		.loc 1 2498 0 is_stmt 0
 5960 0070 3EE1     		b	.L409
 5961              	.L429:
 5962              		.loc 1 2500 0 is_stmt 1
 5963 0072 039B     		ldr	r3, [sp, #12]
 5964 0074 9B68     		ldr	r3, [r3, #8]
 5965 0076 C3F30803 		ubfx	r3, r3, #0, #9
 5966 007a 002B     		cmp	r3, #0
 5967 007c 40F00381 		bne	.L410
 5968              		.loc 1 2501 0
 5969 0080 039B     		ldr	r3, [sp, #12]
 5970 0082 9B68     		ldr	r3, [r3, #8]
 5971 0084 5B0A     		lsrs	r3, r3, #9
 5972 0086 DAB2     		uxtb	r2, r3
 5973 0088 039B     		ldr	r3, [sp, #12]
 5974 008a 1B68     		ldr	r3, [r3]
 5975 008c 9B78     		ldrb	r3, [r3, #2]	@ zero_extendqisi2
 5976 008e 013B     		subs	r3, r3, #1
 5977 0090 DBB2     		uxtb	r3, r3
 5978 0092 1340     		ands	r3, r3, r2
 5979 0094 8DF81630 		strb	r3, [sp, #22]
 5980              		.loc 1 2502 0
 5981 0098 9DF81630 		ldrb	r3, [sp, #22]	@ zero_extendqisi2
 5982 009c 002B     		cmp	r3, #0
 5983 009e 3DD1     		bne	.L411
 5984              		.loc 1 2503 0
 5985 00a0 039B     		ldr	r3, [sp, #12]
 5986 00a2 9B68     		ldr	r3, [r3, #8]
 5987 00a4 002B     		cmp	r3, #0
 5988 00a6 10D1     		bne	.L412
 5989              		.loc 1 2504 0
 5990 00a8 039B     		ldr	r3, [sp, #12]
 5991 00aa 1B69     		ldr	r3, [r3, #16]
 5992 00ac 0993     		str	r3, [sp, #36]
 5993              		.loc 1 2505 0
 5994 00ae 099B     		ldr	r3, [sp, #36]
 5995 00b0 002B     		cmp	r3, #0
 5996 00b2 13D1     		bne	.L414
 5997              		.loc 1 2506 0
 5998 00b4 039B     		ldr	r3, [sp, #12]
 5999 00b6 1B68     		ldr	r3, [r3]
 6000 00b8 1846     		mov	r0, r3
 6001 00ba 0021     		movs	r1, #0
 6002 00bc FFF7FEFF 		bl	create_chain
 6003 00c0 0990     		str	r0, [sp, #36]
 6004 00c2 039B     		ldr	r3, [sp, #12]
 6005 00c4 099A     		ldr	r2, [sp, #36]
 6006 00c6 1A61     		str	r2, [r3, #16]
 6007 00c8 08E0     		b	.L414
ARM GAS  /tmp/ccIWRJEN.s 			page 107


 6008              	.L412:
 6009              		.loc 1 2513 0
 6010 00ca 039B     		ldr	r3, [sp, #12]
 6011 00cc 1A68     		ldr	r2, [r3]
 6012 00ce 039B     		ldr	r3, [sp, #12]
 6013 00d0 5B69     		ldr	r3, [r3, #20]
 6014 00d2 1046     		mov	r0, r2
 6015 00d4 1946     		mov	r1, r3
 6016 00d6 FFF7FEFF 		bl	create_chain
 6017 00da 0990     		str	r0, [sp, #36]
 6018              	.L414:
 6019              		.loc 1 2515 0
 6020 00dc 099B     		ldr	r3, [sp, #36]
 6021 00de 002B     		cmp	r3, #0
 6022 00e0 00D1     		bne	.L415
 6023              		.loc 1 2515 0 is_stmt 0 discriminator 1
 6024 00e2 09E1     		b	.L416
 6025              	.L415:
 6026              		.loc 1 2516 0 is_stmt 1
 6027 00e4 099B     		ldr	r3, [sp, #36]
 6028 00e6 012B     		cmp	r3, #1
 6029 00e8 08D1     		bne	.L417
 6030              		.loc 1 2516 0 is_stmt 0 discriminator 1
 6031 00ea 039B     		ldr	r3, [sp, #12]
 6032 00ec 9B79     		ldrb	r3, [r3, #6]	@ zero_extendqisi2
 6033 00ee 63F07F03 		orn	r3, r3, #127
 6034 00f2 DAB2     		uxtb	r2, r3
 6035 00f4 039B     		ldr	r3, [sp, #12]
 6036 00f6 9A71     		strb	r2, [r3, #6]
 6037 00f8 0223     		movs	r3, #2
 6038 00fa 0FE1     		b	.L405
 6039              	.L417:
 6040              		.loc 1 2517 0 is_stmt 1
 6041 00fc 099B     		ldr	r3, [sp, #36]
 6042 00fe B3F1FF3F 		cmp	r3, #-1
 6043 0102 08D1     		bne	.L418
 6044              		.loc 1 2517 0 is_stmt 0 discriminator 1
 6045 0104 039B     		ldr	r3, [sp, #12]
 6046 0106 9B79     		ldrb	r3, [r3, #6]	@ zero_extendqisi2
 6047 0108 63F07F03 		orn	r3, r3, #127
 6048 010c DAB2     		uxtb	r2, r3
 6049 010e 039B     		ldr	r3, [sp, #12]
 6050 0110 9A71     		strb	r2, [r3, #6]
 6051 0112 0123     		movs	r3, #1
 6052 0114 02E1     		b	.L405
 6053              	.L418:
 6054              		.loc 1 2518 0 is_stmt 1
 6055 0116 039B     		ldr	r3, [sp, #12]
 6056 0118 099A     		ldr	r2, [sp, #36]
 6057 011a 5A61     		str	r2, [r3, #20]
 6058              	.L411:
 6059              		.loc 1 2524 0
 6060 011c 039B     		ldr	r3, [sp, #12]
 6061 011e 9B79     		ldrb	r3, [r3, #6]	@ zero_extendqisi2
 6062 0120 03F04003 		and	r3, r3, #64
 6063 0124 002B     		cmp	r3, #0
 6064 0126 20D0     		beq	.L419
ARM GAS  /tmp/ccIWRJEN.s 			page 108


 6065              		.loc 1 2525 0
 6066 0128 039B     		ldr	r3, [sp, #12]
 6067 012a 1B68     		ldr	r3, [r3]
 6068 012c 5978     		ldrb	r1, [r3, #1]	@ zero_extendqisi2
 6069 012e 039B     		ldr	r3, [sp, #12]
 6070 0130 03F12402 		add	r2, r3, #36
 6071 0134 039B     		ldr	r3, [sp, #12]
 6072 0136 9B69     		ldr	r3, [r3, #24]
 6073 0138 0846     		mov	r0, r1
 6074 013a 1146     		mov	r1, r2
 6075 013c 1A46     		mov	r2, r3
 6076 013e 0123     		movs	r3, #1
 6077 0140 FFF7FEFF 		bl	disk_write
 6078 0144 0346     		mov	r3, r0
 6079 0146 002B     		cmp	r3, #0
 6080 0148 08D0     		beq	.L420
 6081              		.loc 1 2526 0
 6082 014a 039B     		ldr	r3, [sp, #12]
 6083 014c 9B79     		ldrb	r3, [r3, #6]	@ zero_extendqisi2
 6084 014e 63F07F03 		orn	r3, r3, #127
 6085 0152 DAB2     		uxtb	r2, r3
 6086 0154 039B     		ldr	r3, [sp, #12]
 6087 0156 9A71     		strb	r2, [r3, #6]
 6088 0158 0123     		movs	r3, #1
 6089 015a DFE0     		b	.L405
 6090              	.L420:
 6091              		.loc 1 2527 0
 6092 015c 039B     		ldr	r3, [sp, #12]
 6093 015e 9B79     		ldrb	r3, [r3, #6]	@ zero_extendqisi2
 6094 0160 23F04003 		bic	r3, r3, #64
 6095 0164 DAB2     		uxtb	r2, r3
 6096 0166 039B     		ldr	r3, [sp, #12]
 6097 0168 9A71     		strb	r2, [r3, #6]
 6098              	.L419:
 6099              		.loc 1 2530 0
 6100 016a 039B     		ldr	r3, [sp, #12]
 6101 016c 1A68     		ldr	r2, [r3]
 6102 016e 039B     		ldr	r3, [sp, #12]
 6103 0170 5B69     		ldr	r3, [r3, #20]
 6104 0172 1046     		mov	r0, r2
 6105 0174 1946     		mov	r1, r3
 6106 0176 FFF7FEFF 		bl	clust2sect
 6107 017a 0490     		str	r0, [sp, #16]
 6108              		.loc 1 2531 0
 6109 017c 049B     		ldr	r3, [sp, #16]
 6110 017e 002B     		cmp	r3, #0
 6111 0180 08D1     		bne	.L421
 6112              		.loc 1 2531 0 is_stmt 0 discriminator 1
 6113 0182 039B     		ldr	r3, [sp, #12]
 6114 0184 9B79     		ldrb	r3, [r3, #6]	@ zero_extendqisi2
 6115 0186 63F07F03 		orn	r3, r3, #127
 6116 018a DAB2     		uxtb	r2, r3
 6117 018c 039B     		ldr	r3, [sp, #12]
 6118 018e 9A71     		strb	r2, [r3, #6]
 6119 0190 0223     		movs	r3, #2
 6120 0192 C3E0     		b	.L405
 6121              	.L421:
ARM GAS  /tmp/ccIWRJEN.s 			page 109


 6122              		.loc 1 2532 0 is_stmt 1
 6123 0194 9DF81630 		ldrb	r3, [sp, #22]	@ zero_extendqisi2
 6124 0198 049A     		ldr	r2, [sp, #16]
 6125 019a 1344     		add	r3, r3, r2
 6126 019c 0493     		str	r3, [sp, #16]
 6127              		.loc 1 2533 0
 6128 019e 019B     		ldr	r3, [sp, #4]
 6129 01a0 5B0A     		lsrs	r3, r3, #9
 6130 01a2 0793     		str	r3, [sp, #28]
 6131              		.loc 1 2534 0
 6132 01a4 079B     		ldr	r3, [sp, #28]
 6133 01a6 002B     		cmp	r3, #0
 6134 01a8 48D0     		beq	.L422
 6135              		.loc 1 2535 0
 6136 01aa 9DF81620 		ldrb	r2, [sp, #22]	@ zero_extendqisi2
 6137 01ae 079B     		ldr	r3, [sp, #28]
 6138 01b0 1A44     		add	r2, r2, r3
 6139 01b2 039B     		ldr	r3, [sp, #12]
 6140 01b4 1B68     		ldr	r3, [r3]
 6141 01b6 9B78     		ldrb	r3, [r3, #2]	@ zero_extendqisi2
 6142 01b8 9A42     		cmp	r2, r3
 6143 01ba 07D9     		bls	.L423
 6144              		.loc 1 2536 0
 6145 01bc 039B     		ldr	r3, [sp, #12]
 6146 01be 1B68     		ldr	r3, [r3]
 6147 01c0 9B78     		ldrb	r3, [r3, #2]	@ zero_extendqisi2
 6148 01c2 1A46     		mov	r2, r3
 6149 01c4 9DF81630 		ldrb	r3, [sp, #22]	@ zero_extendqisi2
 6150 01c8 D31A     		subs	r3, r2, r3
 6151 01ca 0793     		str	r3, [sp, #28]
 6152              	.L423:
 6153              		.loc 1 2537 0
 6154 01cc 039B     		ldr	r3, [sp, #12]
 6155 01ce 1B68     		ldr	r3, [r3]
 6156 01d0 5A78     		ldrb	r2, [r3, #1]	@ zero_extendqisi2
 6157 01d2 079B     		ldr	r3, [sp, #28]
 6158 01d4 DBB2     		uxtb	r3, r3
 6159 01d6 1046     		mov	r0, r2
 6160 01d8 0699     		ldr	r1, [sp, #24]
 6161 01da 049A     		ldr	r2, [sp, #16]
 6162 01dc FFF7FEFF 		bl	disk_write
 6163 01e0 0346     		mov	r3, r0
 6164 01e2 002B     		cmp	r3, #0
 6165 01e4 08D0     		beq	.L424
 6166              		.loc 1 2538 0
 6167 01e6 039B     		ldr	r3, [sp, #12]
 6168 01e8 9B79     		ldrb	r3, [r3, #6]	@ zero_extendqisi2
 6169 01ea 63F07F03 		orn	r3, r3, #127
 6170 01ee DAB2     		uxtb	r2, r3
 6171 01f0 039B     		ldr	r3, [sp, #12]
 6172 01f2 9A71     		strb	r2, [r3, #6]
 6173 01f4 0123     		movs	r3, #1
 6174 01f6 91E0     		b	.L405
 6175              	.L424:
 6176              		.loc 1 2545 0
 6177 01f8 039B     		ldr	r3, [sp, #12]
 6178 01fa 9A69     		ldr	r2, [r3, #24]
ARM GAS  /tmp/ccIWRJEN.s 			page 110


 6179 01fc 049B     		ldr	r3, [sp, #16]
 6180 01fe D21A     		subs	r2, r2, r3
 6181 0200 079B     		ldr	r3, [sp, #28]
 6182 0202 9A42     		cmp	r2, r3
 6183 0204 16D2     		bcs	.L425
 6184              		.loc 1 2546 0
 6185 0206 039B     		ldr	r3, [sp, #12]
 6186 0208 03F12402 		add	r2, r3, #36
 6187 020c 039B     		ldr	r3, [sp, #12]
 6188 020e 9969     		ldr	r1, [r3, #24]
 6189 0210 049B     		ldr	r3, [sp, #16]
 6190 0212 CB1A     		subs	r3, r1, r3
 6191 0214 5B02     		lsls	r3, r3, #9
 6192 0216 0699     		ldr	r1, [sp, #24]
 6193 0218 0B44     		add	r3, r3, r1
 6194 021a 1046     		mov	r0, r2
 6195 021c 1946     		mov	r1, r3
 6196 021e 4FF40072 		mov	r2, #512
 6197 0222 FFF7FEFF 		bl	mem_cpy
 6198              		.loc 1 2547 0
 6199 0226 039B     		ldr	r3, [sp, #12]
 6200 0228 9B79     		ldrb	r3, [r3, #6]	@ zero_extendqisi2
 6201 022a 23F04003 		bic	r3, r3, #64
 6202 022e DAB2     		uxtb	r2, r3
 6203 0230 039B     		ldr	r3, [sp, #12]
 6204 0232 9A71     		strb	r2, [r3, #6]
 6205              	.L425:
 6206              		.loc 1 2550 0
 6207 0234 079B     		ldr	r3, [sp, #28]
 6208 0236 5B02     		lsls	r3, r3, #9
 6209 0238 0893     		str	r3, [sp, #32]
 6210              		.loc 1 2551 0
 6211 023a 45E0     		b	.L426
 6212              	.L422:
 6213              		.loc 1 2559 0
 6214 023c 039B     		ldr	r3, [sp, #12]
 6215 023e 9A69     		ldr	r2, [r3, #24]
 6216 0240 049B     		ldr	r3, [sp, #16]
 6217 0242 9A42     		cmp	r2, r3
 6218 0244 1CD0     		beq	.L427
 6219              		.loc 1 2560 0
 6220 0246 039B     		ldr	r3, [sp, #12]
 6221 0248 9A68     		ldr	r2, [r3, #8]
 6222 024a 039B     		ldr	r3, [sp, #12]
 6223 024c DB68     		ldr	r3, [r3, #12]
 6224 024e 9A42     		cmp	r2, r3
 6225 0250 16D2     		bcs	.L427
 6226              		.loc 1 2561 0 discriminator 1
 6227 0252 039B     		ldr	r3, [sp, #12]
 6228 0254 1B68     		ldr	r3, [r3]
 6229 0256 5A78     		ldrb	r2, [r3, #1]	@ zero_extendqisi2
 6230 0258 039B     		ldr	r3, [sp, #12]
 6231 025a 2433     		adds	r3, r3, #36
 6232 025c 1046     		mov	r0, r2
 6233 025e 1946     		mov	r1, r3
 6234 0260 049A     		ldr	r2, [sp, #16]
 6235 0262 0123     		movs	r3, #1
ARM GAS  /tmp/ccIWRJEN.s 			page 111


 6236 0264 FFF7FEFF 		bl	disk_read
 6237 0268 0346     		mov	r3, r0
 6238              		.loc 1 2560 0 discriminator 1
 6239 026a 002B     		cmp	r3, #0
 6240 026c 08D0     		beq	.L427
 6241              		.loc 1 2562 0
 6242 026e 039B     		ldr	r3, [sp, #12]
 6243 0270 9B79     		ldrb	r3, [r3, #6]	@ zero_extendqisi2
 6244 0272 63F07F03 		orn	r3, r3, #127
 6245 0276 DAB2     		uxtb	r2, r3
 6246 0278 039B     		ldr	r3, [sp, #12]
 6247 027a 9A71     		strb	r2, [r3, #6]
 6248 027c 0123     		movs	r3, #1
 6249 027e 4DE0     		b	.L405
 6250              	.L427:
 6251              		.loc 1 2565 0
 6252 0280 039B     		ldr	r3, [sp, #12]
 6253 0282 049A     		ldr	r2, [sp, #16]
 6254 0284 9A61     		str	r2, [r3, #24]
 6255              	.L410:
 6256              		.loc 1 2567 0
 6257 0286 039B     		ldr	r3, [sp, #12]
 6258 0288 9B68     		ldr	r3, [r3, #8]
 6259 028a C3F30803 		ubfx	r3, r3, #0, #9
 6260 028e C3F50073 		rsb	r3, r3, #512
 6261 0292 0893     		str	r3, [sp, #32]
 6262              		.loc 1 2568 0
 6263 0294 089A     		ldr	r2, [sp, #32]
 6264 0296 019B     		ldr	r3, [sp, #4]
 6265 0298 9A42     		cmp	r2, r3
 6266 029a 01D9     		bls	.L428
 6267              		.loc 1 2568 0 is_stmt 0 discriminator 1
 6268 029c 019B     		ldr	r3, [sp, #4]
 6269 029e 0893     		str	r3, [sp, #32]
 6270              	.L428:
 6271              		.loc 1 2575 0 is_stmt 1
 6272 02a0 039B     		ldr	r3, [sp, #12]
 6273 02a2 9B68     		ldr	r3, [r3, #8]
 6274 02a4 C3F30803 		ubfx	r3, r3, #0, #9
 6275 02a8 2033     		adds	r3, r3, #32
 6276 02aa 039A     		ldr	r2, [sp, #12]
 6277 02ac 1344     		add	r3, r3, r2
 6278 02ae 0433     		adds	r3, r3, #4
 6279 02b0 1846     		mov	r0, r3
 6280 02b2 0699     		ldr	r1, [sp, #24]
 6281 02b4 089A     		ldr	r2, [sp, #32]
 6282 02b6 FFF7FEFF 		bl	mem_cpy
 6283              		.loc 1 2576 0
 6284 02ba 039B     		ldr	r3, [sp, #12]
 6285 02bc 9B79     		ldrb	r3, [r3, #6]	@ zero_extendqisi2
 6286 02be 43F04003 		orr	r3, r3, #64
 6287 02c2 DAB2     		uxtb	r2, r3
 6288 02c4 039B     		ldr	r3, [sp, #12]
 6289 02c6 9A71     		strb	r2, [r3, #6]
 6290              	.L426:
 6291              		.loc 1 2499 0
 6292 02c8 069A     		ldr	r2, [sp, #24]
ARM GAS  /tmp/ccIWRJEN.s 			page 112


 6293 02ca 089B     		ldr	r3, [sp, #32]
 6294 02cc 1344     		add	r3, r3, r2
 6295 02ce 0693     		str	r3, [sp, #24]
 6296 02d0 039B     		ldr	r3, [sp, #12]
 6297 02d2 9A68     		ldr	r2, [r3, #8]
 6298 02d4 089B     		ldr	r3, [sp, #32]
 6299 02d6 1A44     		add	r2, r2, r3
 6300 02d8 039B     		ldr	r3, [sp, #12]
 6301 02da 9A60     		str	r2, [r3, #8]
 6302 02dc 009B     		ldr	r3, [sp]
 6303 02de 1A68     		ldr	r2, [r3]
 6304 02e0 089B     		ldr	r3, [sp, #32]
 6305 02e2 1A44     		add	r2, r2, r3
 6306 02e4 009B     		ldr	r3, [sp]
 6307 02e6 1A60     		str	r2, [r3]
 6308 02e8 019A     		ldr	r2, [sp, #4]
 6309 02ea 089B     		ldr	r3, [sp, #32]
 6310 02ec D31A     		subs	r3, r2, r3
 6311 02ee 0193     		str	r3, [sp, #4]
 6312              	.L409:
 6313              		.loc 1 2498 0 discriminator 1
 6314 02f0 019B     		ldr	r3, [sp, #4]
 6315 02f2 002B     		cmp	r3, #0
 6316 02f4 7FF4BDAE 		bne	.L429
 6317              	.L416:
 6318              		.loc 1 2580 0
 6319 02f8 039B     		ldr	r3, [sp, #12]
 6320 02fa 9A68     		ldr	r2, [r3, #8]
 6321 02fc 039B     		ldr	r3, [sp, #12]
 6322 02fe DB68     		ldr	r3, [r3, #12]
 6323 0300 9A42     		cmp	r2, r3
 6324 0302 03D9     		bls	.L430
 6325              		.loc 1 2580 0 is_stmt 0 discriminator 1
 6326 0304 039B     		ldr	r3, [sp, #12]
 6327 0306 9A68     		ldr	r2, [r3, #8]
 6328 0308 039B     		ldr	r3, [sp, #12]
 6329 030a DA60     		str	r2, [r3, #12]
 6330              	.L430:
 6331              		.loc 1 2581 0 is_stmt 1
 6332 030c 039B     		ldr	r3, [sp, #12]
 6333 030e 9B79     		ldrb	r3, [r3, #6]	@ zero_extendqisi2
 6334 0310 43F02003 		orr	r3, r3, #32
 6335 0314 DAB2     		uxtb	r2, r3
 6336 0316 039B     		ldr	r3, [sp, #12]
 6337 0318 9A71     		strb	r2, [r3, #6]
 6338              		.loc 1 2583 0
 6339 031a 0023     		movs	r3, #0
 6340              	.L405:
 6341              		.loc 1 2584 0
 6342 031c 1846     		mov	r0, r3
 6343 031e 0BB0     		add	sp, sp, #44
 6344              		@ sp needed
 6345 0320 5DF804FB 		ldr	pc, [sp], #4
 6346              		.cfi_endproc
 6347              	.LFE38:
 6348              		.size	f_write, .-f_write
 6349 0324 AFF30080 		.section	.text.f_sync,"ax",%progbits
ARM GAS  /tmp/ccIWRJEN.s 			page 113


 6349      AFF30080 
 6349      AFF30080 
 6350              		.align	2
 6351              		.p2align 4,,15
 6352              		.global	f_sync
 6353              		.thumb
 6354              		.thumb_func
 6355              		.type	f_sync, %function
 6356              	f_sync:
 6357              	.LFB39:
 6358              		.loc 1 2596 0
 6359              		.cfi_startproc
 6360              		@ args = 0, pretend = 0, frame = 24
 6361              		@ frame_needed = 0, uses_anonymous_args = 0
 6362 0000 00B5     		push	{lr}
 6363              		.cfi_def_cfa_offset 4
 6364              		.cfi_offset 14, -4
 6365 0002 87B0     		sub	sp, sp, #28
 6366              		.cfi_def_cfa_offset 32
 6367 0004 0190     		str	r0, [sp, #4]
 6368              		.loc 1 2602 0
 6369 0006 019B     		ldr	r3, [sp, #4]
 6370 0008 1A68     		ldr	r2, [r3]
 6371 000a 019B     		ldr	r3, [sp, #4]
 6372 000c 9B88     		ldrh	r3, [r3, #4]
 6373 000e 1046     		mov	r0, r2
 6374 0010 1946     		mov	r1, r3
 6375 0012 FFF7FEFF 		bl	validate
 6376 0016 0346     		mov	r3, r0
 6377 0018 8DF81730 		strb	r3, [sp, #23]
 6378              		.loc 1 2603 0
 6379 001c 9DF81730 		ldrb	r3, [sp, #23]	@ zero_extendqisi2
 6380 0020 002B     		cmp	r3, #0
 6381 0022 6CD1     		bne	.L432
 6382              		.loc 1 2604 0
 6383 0024 019B     		ldr	r3, [sp, #4]
 6384 0026 9B79     		ldrb	r3, [r3, #6]	@ zero_extendqisi2
 6385 0028 03F02003 		and	r3, r3, #32
 6386 002c 002B     		cmp	r3, #0
 6387 002e 66D0     		beq	.L432
 6388              		.loc 1 2606 0
 6389 0030 019B     		ldr	r3, [sp, #4]
 6390 0032 9B79     		ldrb	r3, [r3, #6]	@ zero_extendqisi2
 6391 0034 03F04003 		and	r3, r3, #64
 6392 0038 002B     		cmp	r3, #0
 6393 003a 19D0     		beq	.L433
 6394              		.loc 1 2607 0
 6395 003c 019B     		ldr	r3, [sp, #4]
 6396 003e 1B68     		ldr	r3, [r3]
 6397 0040 5978     		ldrb	r1, [r3, #1]	@ zero_extendqisi2
 6398 0042 019B     		ldr	r3, [sp, #4]
 6399 0044 03F12402 		add	r2, r3, #36
 6400 0048 019B     		ldr	r3, [sp, #4]
 6401 004a 9B69     		ldr	r3, [r3, #24]
 6402 004c 0846     		mov	r0, r1
 6403 004e 1146     		mov	r1, r2
 6404 0050 1A46     		mov	r2, r3
ARM GAS  /tmp/ccIWRJEN.s 			page 114


 6405 0052 0123     		movs	r3, #1
 6406 0054 FFF7FEFF 		bl	disk_write
 6407 0058 0346     		mov	r3, r0
 6408 005a 002B     		cmp	r3, #0
 6409 005c 01D0     		beq	.L434
 6410              		.loc 1 2608 0
 6411 005e 0123     		movs	r3, #1
 6412 0060 4FE0     		b	.L435
 6413              	.L434:
 6414              		.loc 1 2609 0
 6415 0062 019B     		ldr	r3, [sp, #4]
 6416 0064 9B79     		ldrb	r3, [r3, #6]	@ zero_extendqisi2
 6417 0066 23F04003 		bic	r3, r3, #64
 6418 006a DAB2     		uxtb	r2, r3
 6419 006c 019B     		ldr	r3, [sp, #4]
 6420 006e 9A71     		strb	r2, [r3, #6]
 6421              	.L433:
 6422              		.loc 1 2613 0
 6423 0070 019B     		ldr	r3, [sp, #4]
 6424 0072 1A68     		ldr	r2, [r3]
 6425 0074 019B     		ldr	r3, [sp, #4]
 6426 0076 DB69     		ldr	r3, [r3, #28]
 6427 0078 1046     		mov	r0, r2
 6428 007a 1946     		mov	r1, r3
 6429 007c FFF7FEFF 		bl	move_window
 6430 0080 0346     		mov	r3, r0
 6431 0082 8DF81730 		strb	r3, [sp, #23]
 6432              		.loc 1 2614 0
 6433 0086 9DF81730 		ldrb	r3, [sp, #23]	@ zero_extendqisi2
 6434 008a 002B     		cmp	r3, #0
 6435 008c 37D1     		bne	.L432
 6436              		.loc 1 2615 0
 6437 008e 019B     		ldr	r3, [sp, #4]
 6438 0090 1B6A     		ldr	r3, [r3, #32]
 6439 0092 0493     		str	r3, [sp, #16]
 6440              		.loc 1 2616 0
 6441 0094 049B     		ldr	r3, [sp, #16]
 6442 0096 0B33     		adds	r3, r3, #11
 6443 0098 049A     		ldr	r2, [sp, #16]
 6444 009a 0B32     		adds	r2, r2, #11
 6445 009c 1278     		ldrb	r2, [r2]	@ zero_extendqisi2
 6446 009e 42F02002 		orr	r2, r2, #32
 6447 00a2 D2B2     		uxtb	r2, r2
 6448 00a4 1A70     		strb	r2, [r3]
 6449              		.loc 1 2617 0
 6450 00a6 049B     		ldr	r3, [sp, #16]
 6451 00a8 1C33     		adds	r3, r3, #28
 6452 00aa 019A     		ldr	r2, [sp, #4]
 6453 00ac D268     		ldr	r2, [r2, #12]
 6454 00ae 1A60     		str	r2, [r3]
 6455              		.loc 1 2618 0
 6456 00b0 049B     		ldr	r3, [sp, #16]
 6457 00b2 1A33     		adds	r3, r3, #26
 6458 00b4 019A     		ldr	r2, [sp, #4]
 6459 00b6 1269     		ldr	r2, [r2, #16]
 6460 00b8 92B2     		uxth	r2, r2
 6461 00ba 1A80     		strh	r2, [r3]	@ movhi
ARM GAS  /tmp/ccIWRJEN.s 			page 115


 6462 00bc 049B     		ldr	r3, [sp, #16]
 6463 00be 1433     		adds	r3, r3, #20
 6464 00c0 019A     		ldr	r2, [sp, #4]
 6465 00c2 1269     		ldr	r2, [r2, #16]
 6466 00c4 120C     		lsrs	r2, r2, #16
 6467 00c6 92B2     		uxth	r2, r2
 6468 00c8 1A80     		strh	r2, [r3]	@ movhi
 6469              		.loc 1 2619 0
 6470 00ca FFF7FEFF 		bl	get_fattime
 6471 00ce 0390     		str	r0, [sp, #12]
 6472              		.loc 1 2620 0
 6473 00d0 049B     		ldr	r3, [sp, #16]
 6474 00d2 1633     		adds	r3, r3, #22
 6475 00d4 039A     		ldr	r2, [sp, #12]
 6476 00d6 1A60     		str	r2, [r3]
 6477              		.loc 1 2621 0
 6478 00d8 019B     		ldr	r3, [sp, #4]
 6479 00da 9B79     		ldrb	r3, [r3, #6]	@ zero_extendqisi2
 6480 00dc 23F02003 		bic	r3, r3, #32
 6481 00e0 DAB2     		uxtb	r2, r3
 6482 00e2 019B     		ldr	r3, [sp, #4]
 6483 00e4 9A71     		strb	r2, [r3, #6]
 6484              		.loc 1 2622 0
 6485 00e6 019B     		ldr	r3, [sp, #4]
 6486 00e8 1B68     		ldr	r3, [r3]
 6487 00ea 0122     		movs	r2, #1
 6488 00ec 1A71     		strb	r2, [r3, #4]
 6489              		.loc 1 2623 0
 6490 00ee 019B     		ldr	r3, [sp, #4]
 6491 00f0 1B68     		ldr	r3, [r3]
 6492 00f2 1846     		mov	r0, r3
 6493 00f4 FFF7FEFF 		bl	sync
 6494 00f8 0346     		mov	r3, r0
 6495 00fa 8DF81730 		strb	r3, [sp, #23]
 6496              	.L432:
 6497              		.loc 1 2628 0
 6498 00fe 9DF81730 		ldrb	r3, [sp, #23]	@ zero_extendqisi2
 6499              	.L435:
 6500              		.loc 1 2629 0
 6501 0102 1846     		mov	r0, r3
 6502 0104 07B0     		add	sp, sp, #28
 6503              		@ sp needed
 6504 0106 5DF804FB 		ldr	pc, [sp], #4
 6505              		.cfi_endproc
 6506              	.LFE39:
 6507              		.size	f_sync, .-f_sync
 6508 010a 00BFAFF3 		.section	.text.f_close,"ax",%progbits
 6508      0080
 6509              		.align	2
 6510              		.p2align 4,,15
 6511              		.global	f_close
 6512              		.thumb
 6513              		.thumb_func
 6514              		.type	f_close, %function
 6515              	f_close:
 6516              	.LFB40:
 6517              		.loc 1 2643 0
ARM GAS  /tmp/ccIWRJEN.s 			page 116


 6518              		.cfi_startproc
 6519              		@ args = 0, pretend = 0, frame = 16
 6520              		@ frame_needed = 0, uses_anonymous_args = 0
 6521 0000 00B5     		push	{lr}
 6522              		.cfi_def_cfa_offset 4
 6523              		.cfi_offset 14, -4
 6524 0002 85B0     		sub	sp, sp, #20
 6525              		.cfi_def_cfa_offset 24
 6526 0004 0190     		str	r0, [sp, #4]
 6527              		.loc 1 2653 0
 6528 0006 0198     		ldr	r0, [sp, #4]
 6529 0008 FFF7FEFF 		bl	f_sync
 6530 000c 0346     		mov	r3, r0
 6531 000e 8DF80F30 		strb	r3, [sp, #15]
 6532              		.loc 1 2667 0
 6533 0012 9DF80F30 		ldrb	r3, [sp, #15]	@ zero_extendqisi2
 6534 0016 002B     		cmp	r3, #0
 6535 0018 02D1     		bne	.L437
 6536              		.loc 1 2667 0 is_stmt 0 discriminator 1
 6537 001a 019B     		ldr	r3, [sp, #4]
 6538 001c 0022     		movs	r2, #0
 6539 001e 1A60     		str	r2, [r3]
 6540              	.L437:
 6541              		.loc 1 2668 0 is_stmt 1
 6542 0020 9DF80F30 		ldrb	r3, [sp, #15]	@ zero_extendqisi2
 6543              		.loc 1 2670 0
 6544 0024 1846     		mov	r0, r3
 6545 0026 05B0     		add	sp, sp, #20
 6546              		@ sp needed
 6547 0028 5DF804FB 		ldr	pc, [sp], #4
 6548              		.cfi_endproc
 6549              	.LFE40:
 6550              		.size	f_close, .-f_close
 6551 002c AFF30080 		.section	.text.f_lseek,"ax",%progbits
 6552              		.align	2
 6553              		.p2align 4,,15
 6554              		.global	f_lseek
 6555              		.thumb
 6556              		.thumb_func
 6557              		.type	f_lseek, %function
 6558              	f_lseek:
 6559              	.LFB41:
 6560              		.loc 1 2808 0
 6561              		.cfi_startproc
 6562              		@ args = 0, pretend = 0, frame = 32
 6563              		@ frame_needed = 0, uses_anonymous_args = 0
 6564 0000 00B5     		push	{lr}
 6565              		.cfi_def_cfa_offset 4
 6566              		.cfi_offset 14, -4
 6567 0002 89B0     		sub	sp, sp, #36
 6568              		.cfi_def_cfa_offset 40
 6569 0004 0190     		str	r0, [sp, #4]
 6570 0006 0091     		str	r1, [sp]
 6571              		.loc 1 2812 0
 6572 0008 019B     		ldr	r3, [sp, #4]
 6573 000a 1A68     		ldr	r2, [r3]
 6574 000c 019B     		ldr	r3, [sp, #4]
ARM GAS  /tmp/ccIWRJEN.s 			page 117


 6575 000e 9B88     		ldrh	r3, [r3, #4]
 6576 0010 1046     		mov	r0, r2
 6577 0012 1946     		mov	r1, r3
 6578 0014 FFF7FEFF 		bl	validate
 6579 0018 0346     		mov	r3, r0
 6580 001a 8DF81730 		strb	r3, [sp, #23]
 6581              		.loc 1 2813 0
 6582 001e 9DF81730 		ldrb	r3, [sp, #23]	@ zero_extendqisi2
 6583 0022 002B     		cmp	r3, #0
 6584 0024 02D0     		beq	.L440
 6585              		.loc 1 2813 0 is_stmt 0 discriminator 1
 6586 0026 9DF81730 		ldrb	r3, [sp, #23]	@ zero_extendqisi2
 6587 002a 41E1     		b	.L441
 6588              	.L440:
 6589              		.loc 1 2814 0 is_stmt 1
 6590 002c 019B     		ldr	r3, [sp, #4]
 6591 002e 9B79     		ldrb	r3, [r3, #6]	@ zero_extendqisi2
 6592 0030 DBB2     		uxtb	r3, r3
 6593 0032 5BB2     		sxtb	r3, r3
 6594 0034 002B     		cmp	r3, #0
 6595 0036 01DA     		bge	.L442
 6596              		.loc 1 2815 0
 6597 0038 0223     		movs	r3, #2
 6598 003a 39E1     		b	.L441
 6599              	.L442:
 6600              	.LBB6:
 6601              		.loc 1 2878 0
 6602 003c 019B     		ldr	r3, [sp, #4]
 6603 003e DA68     		ldr	r2, [r3, #12]
 6604 0040 009B     		ldr	r3, [sp]
 6605 0042 9A42     		cmp	r2, r3
 6606 0044 08D2     		bcs	.L443
 6607              		.loc 1 2880 0
 6608 0046 019B     		ldr	r3, [sp, #4]
 6609 0048 9B79     		ldrb	r3, [r3, #6]	@ zero_extendqisi2
 6610 004a 03F00203 		and	r3, r3, #2
 6611 004e 002B     		cmp	r3, #0
 6612 0050 02D1     		bne	.L443
 6613              		.loc 1 2882 0
 6614 0052 019B     		ldr	r3, [sp, #4]
 6615 0054 DB68     		ldr	r3, [r3, #12]
 6616 0056 0093     		str	r3, [sp]
 6617              	.L443:
 6618              		.loc 1 2884 0
 6619 0058 019B     		ldr	r3, [sp, #4]
 6620 005a 9B68     		ldr	r3, [r3, #8]
 6621 005c 0493     		str	r3, [sp, #16]
 6622              		.loc 1 2885 0
 6623 005e 0023     		movs	r3, #0
 6624 0060 0693     		str	r3, [sp, #24]
 6625 0062 019B     		ldr	r3, [sp, #4]
 6626 0064 069A     		ldr	r2, [sp, #24]
 6627 0066 9A60     		str	r2, [r3, #8]
 6628              		.loc 1 2886 0
 6629 0068 009B     		ldr	r3, [sp]
 6630 006a 002B     		cmp	r3, #0
 6631 006c 00F0C180 		beq	.L444
ARM GAS  /tmp/ccIWRJEN.s 			page 118


 6632              		.loc 1 2887 0
 6633 0070 019B     		ldr	r3, [sp, #4]
 6634 0072 1B68     		ldr	r3, [r3]
 6635 0074 9B78     		ldrb	r3, [r3, #2]	@ zero_extendqisi2
 6636 0076 5B02     		lsls	r3, r3, #9
 6637 0078 0393     		str	r3, [sp, #12]
 6638              		.loc 1 2888 0
 6639 007a 049B     		ldr	r3, [sp, #16]
 6640 007c 002B     		cmp	r3, #0
 6641 007e 1BD0     		beq	.L445
 6642              		.loc 1 2889 0 discriminator 1
 6643 0080 009B     		ldr	r3, [sp]
 6644 0082 5A1E     		subs	r2, r3, #1
 6645 0084 039B     		ldr	r3, [sp, #12]
 6646 0086 B2FBF3F2 		udiv	r2, r2, r3
 6647 008a 049B     		ldr	r3, [sp, #16]
 6648 008c 591E     		subs	r1, r3, #1
 6649 008e 039B     		ldr	r3, [sp, #12]
 6650 0090 B1FBF3F3 		udiv	r3, r1, r3
 6651              		.loc 1 2888 0 discriminator 1
 6652 0094 9A42     		cmp	r2, r3
 6653 0096 0FD3     		bcc	.L445
 6654              		.loc 1 2890 0
 6655 0098 049B     		ldr	r3, [sp, #16]
 6656 009a 5A1E     		subs	r2, r3, #1
 6657 009c 039B     		ldr	r3, [sp, #12]
 6658 009e 5B42     		negs	r3, r3
 6659 00a0 1A40     		ands	r2, r2, r3
 6660 00a2 019B     		ldr	r3, [sp, #4]
 6661 00a4 9A60     		str	r2, [r3, #8]
 6662              		.loc 1 2891 0
 6663 00a6 019B     		ldr	r3, [sp, #4]
 6664 00a8 9B68     		ldr	r3, [r3, #8]
 6665 00aa 009A     		ldr	r2, [sp]
 6666 00ac D31A     		subs	r3, r2, r3
 6667 00ae 0093     		str	r3, [sp]
 6668              		.loc 1 2892 0
 6669 00b0 019B     		ldr	r3, [sp, #4]
 6670 00b2 5B69     		ldr	r3, [r3, #20]
 6671 00b4 0793     		str	r3, [sp, #28]
 6672 00b6 2BE0     		b	.L446
 6673              	.L445:
 6674              		.loc 1 2894 0
 6675 00b8 019B     		ldr	r3, [sp, #4]
 6676 00ba 1B69     		ldr	r3, [r3, #16]
 6677 00bc 0793     		str	r3, [sp, #28]
 6678              		.loc 1 2896 0
 6679 00be 079B     		ldr	r3, [sp, #28]
 6680 00c0 002B     		cmp	r3, #0
 6681 00c2 22D1     		bne	.L447
 6682              		.loc 1 2897 0
 6683 00c4 019B     		ldr	r3, [sp, #4]
 6684 00c6 1B68     		ldr	r3, [r3]
 6685 00c8 1846     		mov	r0, r3
 6686 00ca 0021     		movs	r1, #0
 6687 00cc FFF7FEFF 		bl	create_chain
 6688 00d0 0790     		str	r0, [sp, #28]
ARM GAS  /tmp/ccIWRJEN.s 			page 119


 6689              		.loc 1 2898 0
 6690 00d2 079B     		ldr	r3, [sp, #28]
 6691 00d4 012B     		cmp	r3, #1
 6692 00d6 08D1     		bne	.L448
 6693              		.loc 1 2898 0 is_stmt 0 discriminator 1
 6694 00d8 019B     		ldr	r3, [sp, #4]
 6695 00da 9B79     		ldrb	r3, [r3, #6]	@ zero_extendqisi2
 6696 00dc 63F07F03 		orn	r3, r3, #127
 6697 00e0 DAB2     		uxtb	r2, r3
 6698 00e2 019B     		ldr	r3, [sp, #4]
 6699 00e4 9A71     		strb	r2, [r3, #6]
 6700 00e6 0223     		movs	r3, #2
 6701 00e8 E2E0     		b	.L441
 6702              	.L448:
 6703              		.loc 1 2899 0 is_stmt 1
 6704 00ea 079B     		ldr	r3, [sp, #28]
 6705 00ec B3F1FF3F 		cmp	r3, #-1
 6706 00f0 08D1     		bne	.L449
 6707              		.loc 1 2899 0 is_stmt 0 discriminator 1
 6708 00f2 019B     		ldr	r3, [sp, #4]
 6709 00f4 9B79     		ldrb	r3, [r3, #6]	@ zero_extendqisi2
 6710 00f6 63F07F03 		orn	r3, r3, #127
 6711 00fa DAB2     		uxtb	r2, r3
 6712 00fc 019B     		ldr	r3, [sp, #4]
 6713 00fe 9A71     		strb	r2, [r3, #6]
 6714 0100 0123     		movs	r3, #1
 6715 0102 D5E0     		b	.L441
 6716              	.L449:
 6717              		.loc 1 2900 0 is_stmt 1
 6718 0104 019B     		ldr	r3, [sp, #4]
 6719 0106 079A     		ldr	r2, [sp, #28]
 6720 0108 1A61     		str	r2, [r3, #16]
 6721              	.L447:
 6722              		.loc 1 2903 0
 6723 010a 019B     		ldr	r3, [sp, #4]
 6724 010c 079A     		ldr	r2, [sp, #28]
 6725 010e 5A61     		str	r2, [r3, #20]
 6726              	.L446:
 6727              		.loc 1 2905 0
 6728 0110 079B     		ldr	r3, [sp, #28]
 6729 0112 002B     		cmp	r3, #0
 6730 0114 6DD0     		beq	.L444
 6731              		.loc 1 2906 0
 6732 0116 45E0     		b	.L450
 6733              	.L457:
 6734              		.loc 1 2908 0
 6735 0118 019B     		ldr	r3, [sp, #4]
 6736 011a 9B79     		ldrb	r3, [r3, #6]	@ zero_extendqisi2
 6737 011c 03F00203 		and	r3, r3, #2
 6738 0120 002B     		cmp	r3, #0
 6739 0122 0CD0     		beq	.L451
 6740              		.loc 1 2909 0
 6741 0124 019B     		ldr	r3, [sp, #4]
 6742 0126 1B68     		ldr	r3, [r3]
 6743 0128 1846     		mov	r0, r3
 6744 012a 0799     		ldr	r1, [sp, #28]
 6745 012c FFF7FEFF 		bl	create_chain
ARM GAS  /tmp/ccIWRJEN.s 			page 120


 6746 0130 0790     		str	r0, [sp, #28]
 6747              		.loc 1 2910 0
 6748 0132 079B     		ldr	r3, [sp, #28]
 6749 0134 002B     		cmp	r3, #0
 6750 0136 09D1     		bne	.L452
 6751              		.loc 1 2911 0
 6752 0138 039B     		ldr	r3, [sp, #12]
 6753 013a 0093     		str	r3, [sp]
 6754 013c 36E0     		b	.L453
 6755              	.L451:
 6756              		.loc 1 2915 0
 6757 013e 019B     		ldr	r3, [sp, #4]
 6758 0140 1B68     		ldr	r3, [r3]
 6759 0142 1846     		mov	r0, r3
 6760 0144 0799     		ldr	r1, [sp, #28]
 6761 0146 FFF7FEFF 		bl	get_fat
 6762 014a 0790     		str	r0, [sp, #28]
 6763              	.L452:
 6764              		.loc 1 2916 0
 6765 014c 079B     		ldr	r3, [sp, #28]
 6766 014e B3F1FF3F 		cmp	r3, #-1
 6767 0152 08D1     		bne	.L454
 6768              		.loc 1 2916 0 is_stmt 0 discriminator 1
 6769 0154 019B     		ldr	r3, [sp, #4]
 6770 0156 9B79     		ldrb	r3, [r3, #6]	@ zero_extendqisi2
 6771 0158 63F07F03 		orn	r3, r3, #127
 6772 015c DAB2     		uxtb	r2, r3
 6773 015e 019B     		ldr	r3, [sp, #4]
 6774 0160 9A71     		strb	r2, [r3, #6]
 6775 0162 0123     		movs	r3, #1
 6776 0164 A4E0     		b	.L441
 6777              	.L454:
 6778              		.loc 1 2917 0 is_stmt 1
 6779 0166 079B     		ldr	r3, [sp, #28]
 6780 0168 012B     		cmp	r3, #1
 6781 016a 05D9     		bls	.L455
 6782              		.loc 1 2917 0 is_stmt 0 discriminator 2
 6783 016c 019B     		ldr	r3, [sp, #4]
 6784 016e 1B68     		ldr	r3, [r3]
 6785 0170 9A69     		ldr	r2, [r3, #24]
 6786 0172 079B     		ldr	r3, [sp, #28]
 6787 0174 9A42     		cmp	r2, r3
 6788 0176 08D8     		bhi	.L456
 6789              	.L455:
 6790              		.loc 1 2917 0 discriminator 1
 6791 0178 019B     		ldr	r3, [sp, #4]
 6792 017a 9B79     		ldrb	r3, [r3, #6]	@ zero_extendqisi2
 6793 017c 63F07F03 		orn	r3, r3, #127
 6794 0180 DAB2     		uxtb	r2, r3
 6795 0182 019B     		ldr	r3, [sp, #4]
 6796 0184 9A71     		strb	r2, [r3, #6]
 6797 0186 0223     		movs	r3, #2
 6798 0188 92E0     		b	.L441
 6799              	.L456:
 6800              		.loc 1 2918 0 is_stmt 1
 6801 018a 019B     		ldr	r3, [sp, #4]
 6802 018c 079A     		ldr	r2, [sp, #28]
ARM GAS  /tmp/ccIWRJEN.s 			page 121


 6803 018e 5A61     		str	r2, [r3, #20]
 6804              		.loc 1 2919 0
 6805 0190 019B     		ldr	r3, [sp, #4]
 6806 0192 9A68     		ldr	r2, [r3, #8]
 6807 0194 039B     		ldr	r3, [sp, #12]
 6808 0196 1A44     		add	r2, r2, r3
 6809 0198 019B     		ldr	r3, [sp, #4]
 6810 019a 9A60     		str	r2, [r3, #8]
 6811              		.loc 1 2920 0
 6812 019c 009A     		ldr	r2, [sp]
 6813 019e 039B     		ldr	r3, [sp, #12]
 6814 01a0 D31A     		subs	r3, r2, r3
 6815 01a2 0093     		str	r3, [sp]
 6816              	.L450:
 6817              		.loc 1 2906 0 discriminator 1
 6818 01a4 009A     		ldr	r2, [sp]
 6819 01a6 039B     		ldr	r3, [sp, #12]
 6820 01a8 9A42     		cmp	r2, r3
 6821 01aa B5D8     		bhi	.L457
 6822              	.L453:
 6823              		.loc 1 2922 0
 6824 01ac 019B     		ldr	r3, [sp, #4]
 6825 01ae 9A68     		ldr	r2, [r3, #8]
 6826 01b0 009B     		ldr	r3, [sp]
 6827 01b2 1A44     		add	r2, r2, r3
 6828 01b4 019B     		ldr	r3, [sp, #4]
 6829 01b6 9A60     		str	r2, [r3, #8]
 6830              		.loc 1 2923 0
 6831 01b8 009B     		ldr	r3, [sp]
 6832 01ba C3F30803 		ubfx	r3, r3, #0, #9
 6833 01be 002B     		cmp	r3, #0
 6834 01c0 17D0     		beq	.L444
 6835              		.loc 1 2924 0
 6836 01c2 019B     		ldr	r3, [sp, #4]
 6837 01c4 1B68     		ldr	r3, [r3]
 6838 01c6 1846     		mov	r0, r3
 6839 01c8 0799     		ldr	r1, [sp, #28]
 6840 01ca FFF7FEFF 		bl	clust2sect
 6841 01ce 0690     		str	r0, [sp, #24]
 6842              		.loc 1 2925 0
 6843 01d0 069B     		ldr	r3, [sp, #24]
 6844 01d2 002B     		cmp	r3, #0
 6845 01d4 08D1     		bne	.L458
 6846              		.loc 1 2925 0 is_stmt 0 discriminator 1
 6847 01d6 019B     		ldr	r3, [sp, #4]
 6848 01d8 9B79     		ldrb	r3, [r3, #6]	@ zero_extendqisi2
 6849 01da 63F07F03 		orn	r3, r3, #127
 6850 01de DAB2     		uxtb	r2, r3
 6851 01e0 019B     		ldr	r3, [sp, #4]
 6852 01e2 9A71     		strb	r2, [r3, #6]
 6853 01e4 0223     		movs	r3, #2
 6854 01e6 63E0     		b	.L441
 6855              	.L458:
 6856              		.loc 1 2926 0 is_stmt 1
 6857 01e8 009B     		ldr	r3, [sp]
 6858 01ea 5B0A     		lsrs	r3, r3, #9
 6859 01ec 069A     		ldr	r2, [sp, #24]
ARM GAS  /tmp/ccIWRJEN.s 			page 122


 6860 01ee 1344     		add	r3, r3, r2
 6861 01f0 0693     		str	r3, [sp, #24]
 6862              	.L444:
 6863              		.loc 1 2930 0
 6864 01f2 019B     		ldr	r3, [sp, #4]
 6865 01f4 9B68     		ldr	r3, [r3, #8]
 6866 01f6 C3F30803 		ubfx	r3, r3, #0, #9
 6867 01fa 002B     		cmp	r3, #0
 6868 01fc 45D0     		beq	.L459
 6869              		.loc 1 2930 0 is_stmt 0 discriminator 1
 6870 01fe 019B     		ldr	r3, [sp, #4]
 6871 0200 9A69     		ldr	r2, [r3, #24]
 6872 0202 069B     		ldr	r3, [sp, #24]
 6873 0204 9A42     		cmp	r2, r3
 6874 0206 40D0     		beq	.L459
 6875              		.loc 1 2933 0 is_stmt 1
 6876 0208 019B     		ldr	r3, [sp, #4]
 6877 020a 9B79     		ldrb	r3, [r3, #6]	@ zero_extendqisi2
 6878 020c 03F04003 		and	r3, r3, #64
 6879 0210 002B     		cmp	r3, #0
 6880 0212 20D0     		beq	.L460
 6881              		.loc 1 2934 0
 6882 0214 019B     		ldr	r3, [sp, #4]
 6883 0216 1B68     		ldr	r3, [r3]
 6884 0218 5978     		ldrb	r1, [r3, #1]	@ zero_extendqisi2
 6885 021a 019B     		ldr	r3, [sp, #4]
 6886 021c 03F12402 		add	r2, r3, #36
 6887 0220 019B     		ldr	r3, [sp, #4]
 6888 0222 9B69     		ldr	r3, [r3, #24]
 6889 0224 0846     		mov	r0, r1
 6890 0226 1146     		mov	r1, r2
 6891 0228 1A46     		mov	r2, r3
 6892 022a 0123     		movs	r3, #1
 6893 022c FFF7FEFF 		bl	disk_write
 6894 0230 0346     		mov	r3, r0
 6895 0232 002B     		cmp	r3, #0
 6896 0234 08D0     		beq	.L461
 6897              		.loc 1 2935 0
 6898 0236 019B     		ldr	r3, [sp, #4]
 6899 0238 9B79     		ldrb	r3, [r3, #6]	@ zero_extendqisi2
 6900 023a 63F07F03 		orn	r3, r3, #127
 6901 023e DAB2     		uxtb	r2, r3
 6902 0240 019B     		ldr	r3, [sp, #4]
 6903 0242 9A71     		strb	r2, [r3, #6]
 6904 0244 0123     		movs	r3, #1
 6905 0246 33E0     		b	.L441
 6906              	.L461:
 6907              		.loc 1 2936 0
 6908 0248 019B     		ldr	r3, [sp, #4]
 6909 024a 9B79     		ldrb	r3, [r3, #6]	@ zero_extendqisi2
 6910 024c 23F04003 		bic	r3, r3, #64
 6911 0250 DAB2     		uxtb	r2, r3
 6912 0252 019B     		ldr	r3, [sp, #4]
 6913 0254 9A71     		strb	r2, [r3, #6]
 6914              	.L460:
 6915              		.loc 1 2939 0
 6916 0256 019B     		ldr	r3, [sp, #4]
ARM GAS  /tmp/ccIWRJEN.s 			page 123


 6917 0258 1B68     		ldr	r3, [r3]
 6918 025a 5A78     		ldrb	r2, [r3, #1]	@ zero_extendqisi2
 6919 025c 019B     		ldr	r3, [sp, #4]
 6920 025e 2433     		adds	r3, r3, #36
 6921 0260 1046     		mov	r0, r2
 6922 0262 1946     		mov	r1, r3
 6923 0264 069A     		ldr	r2, [sp, #24]
 6924 0266 0123     		movs	r3, #1
 6925 0268 FFF7FEFF 		bl	disk_read
 6926 026c 0346     		mov	r3, r0
 6927 026e 002B     		cmp	r3, #0
 6928 0270 08D0     		beq	.L462
 6929              		.loc 1 2940 0
 6930 0272 019B     		ldr	r3, [sp, #4]
 6931 0274 9B79     		ldrb	r3, [r3, #6]	@ zero_extendqisi2
 6932 0276 63F07F03 		orn	r3, r3, #127
 6933 027a DAB2     		uxtb	r2, r3
 6934 027c 019B     		ldr	r3, [sp, #4]
 6935 027e 9A71     		strb	r2, [r3, #6]
 6936 0280 0123     		movs	r3, #1
 6937 0282 15E0     		b	.L441
 6938              	.L462:
 6939              		.loc 1 2942 0
 6940 0284 019B     		ldr	r3, [sp, #4]
 6941 0286 069A     		ldr	r2, [sp, #24]
 6942 0288 9A61     		str	r2, [r3, #24]
 6943              	.L459:
 6944              		.loc 1 2945 0
 6945 028a 019B     		ldr	r3, [sp, #4]
 6946 028c 9A68     		ldr	r2, [r3, #8]
 6947 028e 019B     		ldr	r3, [sp, #4]
 6948 0290 DB68     		ldr	r3, [r3, #12]
 6949 0292 9A42     		cmp	r2, r3
 6950 0294 0AD9     		bls	.L463
 6951              		.loc 1 2946 0
 6952 0296 019B     		ldr	r3, [sp, #4]
 6953 0298 9A68     		ldr	r2, [r3, #8]
 6954 029a 019B     		ldr	r3, [sp, #4]
 6955 029c DA60     		str	r2, [r3, #12]
 6956              		.loc 1 2947 0
 6957 029e 019B     		ldr	r3, [sp, #4]
 6958 02a0 9B79     		ldrb	r3, [r3, #6]	@ zero_extendqisi2
 6959 02a2 43F02003 		orr	r3, r3, #32
 6960 02a6 DAB2     		uxtb	r2, r3
 6961 02a8 019B     		ldr	r3, [sp, #4]
 6962 02aa 9A71     		strb	r2, [r3, #6]
 6963              	.L463:
 6964              	.LBE6:
 6965              		.loc 1 2952 0
 6966 02ac 9DF81730 		ldrb	r3, [sp, #23]	@ zero_extendqisi2
 6967              	.L441:
 6968              		.loc 1 2953 0
 6969 02b0 1846     		mov	r0, r3
 6970 02b2 09B0     		add	sp, sp, #36
 6971              		@ sp needed
 6972 02b4 5DF804FB 		ldr	pc, [sp], #4
 6973              		.cfi_endproc
ARM GAS  /tmp/ccIWRJEN.s 			page 124


 6974              	.LFE41:
 6975              		.size	f_lseek, .-f_lseek
 6976 02b8 AFF30080 		.section	.text.f_opendir,"ax",%progbits
 6976      AFF30080 
 6977              		.align	2
 6978              		.p2align 4,,15
 6979              		.global	f_opendir
 6980              		.thumb
 6981              		.thumb_func
 6982              		.type	f_opendir, %function
 6983              	f_opendir:
 6984              	.LFB42:
 6985              		.loc 1 2966 0
 6986              		.cfi_startproc
 6987              		@ args = 0, pretend = 0, frame = 32
 6988              		@ frame_needed = 0, uses_anonymous_args = 0
 6989 0000 00B5     		push	{lr}
 6990              		.cfi_def_cfa_offset 4
 6991              		.cfi_offset 14, -4
 6992 0002 89B0     		sub	sp, sp, #36
 6993              		.cfi_def_cfa_offset 40
 6994 0004 0190     		str	r0, [sp, #4]
 6995 0006 0091     		str	r1, [sp]
 6996              		.loc 1 2971 0
 6997 0008 019B     		ldr	r3, [sp, #4]
 6998 000a 6A46     		mov	r2, sp
 6999 000c 1046     		mov	r0, r2
 7000 000e 1946     		mov	r1, r3
 7001 0010 0022     		movs	r2, #0
 7002 0012 FFF7FEFF 		bl	chk_mounted
 7003 0016 0346     		mov	r3, r0
 7004 0018 8DF81F30 		strb	r3, [sp, #31]
 7005              		.loc 1 2972 0
 7006 001c 9DF81F30 		ldrb	r3, [sp, #31]	@ zero_extendqisi2
 7007 0020 002B     		cmp	r3, #0
 7008 0022 51D1     		bne	.L465
 7009              		.loc 1 2973 0
 7010 0024 4FF40070 		mov	r0, #512
 7011 0028 FFF7FEFF 		bl	ff_memalloc
 7012 002c 0690     		str	r0, [sp, #24]
 7013 002e 069B     		ldr	r3, [sp, #24]
 7014 0030 002B     		cmp	r3, #0
 7015 0032 01D1     		bne	.L466
 7016              		.loc 1 2973 0 is_stmt 0 discriminator 1
 7017 0034 1123     		movs	r3, #17
 7018 0036 49E0     		b	.L471
 7019              	.L466:
 7020              		.loc 1 2973 0 discriminator 2
 7021 0038 019B     		ldr	r3, [sp, #4]
 7022 003a 069A     		ldr	r2, [sp, #24]
 7023 003c DA61     		str	r2, [r3, #28]
 7024 003e 019B     		ldr	r3, [sp, #4]
 7025 0040 03AA     		add	r2, sp, #12
 7026 0042 9A61     		str	r2, [r3, #24]
 7027              		.loc 1 2974 0 is_stmt 1 discriminator 2
 7028 0044 009B     		ldr	r3, [sp]
 7029 0046 0198     		ldr	r0, [sp, #4]
ARM GAS  /tmp/ccIWRJEN.s 			page 125


 7030 0048 1946     		mov	r1, r3
 7031 004a FFF7FEFF 		bl	follow_path
 7032 004e 0346     		mov	r3, r0
 7033 0050 8DF81F30 		strb	r3, [sp, #31]
 7034              		.loc 1 2975 0 discriminator 2
 7035 0054 0698     		ldr	r0, [sp, #24]
 7036 0056 FFF7FEFF 		bl	ff_memfree
 7037              		.loc 1 2976 0 discriminator 2
 7038 005a 9DF81F30 		ldrb	r3, [sp, #31]	@ zero_extendqisi2
 7039 005e 002B     		cmp	r3, #0
 7040 0060 2BD1     		bne	.L468
 7041              		.loc 1 2977 0
 7042 0062 019B     		ldr	r3, [sp, #4]
 7043 0064 5B69     		ldr	r3, [r3, #20]
 7044 0066 002B     		cmp	r3, #0
 7045 0068 17D0     		beq	.L469
 7046              		.loc 1 2978 0
 7047 006a 019B     		ldr	r3, [sp, #4]
 7048 006c 5B69     		ldr	r3, [r3, #20]
 7049 006e 0B33     		adds	r3, r3, #11
 7050 0070 1B78     		ldrb	r3, [r3]	@ zero_extendqisi2
 7051 0072 03F01003 		and	r3, r3, #16
 7052 0076 002B     		cmp	r3, #0
 7053 0078 0CD0     		beq	.L470
 7054              		.loc 1 2979 0
 7055 007a 019B     		ldr	r3, [sp, #4]
 7056 007c 5B69     		ldr	r3, [r3, #20]
 7057 007e 1433     		adds	r3, r3, #20
 7058 0080 1B88     		ldrh	r3, [r3]
 7059 0082 1A04     		lsls	r2, r3, #16
 7060 0084 019B     		ldr	r3, [sp, #4]
 7061 0086 5B69     		ldr	r3, [r3, #20]
 7062 0088 1A33     		adds	r3, r3, #26
 7063 008a 1B88     		ldrh	r3, [r3]
 7064 008c 1A43     		orrs	r2, r2, r3
 7065 008e 019B     		ldr	r3, [sp, #4]
 7066 0090 9A60     		str	r2, [r3, #8]
 7067 0092 02E0     		b	.L469
 7068              	.L470:
 7069              		.loc 1 2981 0
 7070 0094 0523     		movs	r3, #5
 7071 0096 8DF81F30 		strb	r3, [sp, #31]
 7072              	.L469:
 7073              		.loc 1 2984 0
 7074 009a 9DF81F30 		ldrb	r3, [sp, #31]	@ zero_extendqisi2
 7075 009e 002B     		cmp	r3, #0
 7076 00a0 0BD1     		bne	.L468
 7077              		.loc 1 2985 0
 7078 00a2 019B     		ldr	r3, [sp, #4]
 7079 00a4 1B68     		ldr	r3, [r3]
 7080 00a6 DA88     		ldrh	r2, [r3, #6]
 7081 00a8 019B     		ldr	r3, [sp, #4]
 7082 00aa 9A80     		strh	r2, [r3, #4]	@ movhi
 7083              		.loc 1 2986 0
 7084 00ac 0198     		ldr	r0, [sp, #4]
 7085 00ae 0021     		movs	r1, #0
 7086 00b0 FFF7FEFF 		bl	dir_sdi
ARM GAS  /tmp/ccIWRJEN.s 			page 126


 7087 00b4 0346     		mov	r3, r0
 7088 00b6 8DF81F30 		strb	r3, [sp, #31]
 7089              	.L468:
 7090              		.loc 1 2989 0
 7091 00ba 9DF81F30 		ldrb	r3, [sp, #31]	@ zero_extendqisi2
 7092 00be 042B     		cmp	r3, #4
 7093 00c0 02D1     		bne	.L465
 7094              		.loc 1 2989 0 is_stmt 0 discriminator 1
 7095 00c2 0523     		movs	r3, #5
 7096 00c4 8DF81F30 		strb	r3, [sp, #31]
 7097              	.L465:
 7098              		.loc 1 2992 0 is_stmt 1
 7099 00c8 9DF81F30 		ldrb	r3, [sp, #31]	@ zero_extendqisi2
 7100              	.L471:
 7101              		.loc 1 2993 0
 7102 00cc 1846     		mov	r0, r3
 7103 00ce 09B0     		add	sp, sp, #36
 7104              		@ sp needed
 7105 00d0 5DF804FB 		ldr	pc, [sp], #4
 7106              		.cfi_endproc
 7107              	.LFE42:
 7108              		.size	f_opendir, .-f_opendir
 7109 00d4 AFF30080 		.section	.text.f_readdir,"ax",%progbits
 7109      AFF30080 
 7109      AFF30080 
 7110              		.align	2
 7111              		.p2align 4,,15
 7112              		.global	f_readdir
 7113              		.thumb
 7114              		.thumb_func
 7115              		.type	f_readdir, %function
 7116              	f_readdir:
 7117              	.LFB43:
 7118              		.loc 1 3006 0
 7119              		.cfi_startproc
 7120              		@ args = 0, pretend = 0, frame = 32
 7121              		@ frame_needed = 0, uses_anonymous_args = 0
 7122 0000 00B5     		push	{lr}
 7123              		.cfi_def_cfa_offset 4
 7124              		.cfi_offset 14, -4
 7125 0002 89B0     		sub	sp, sp, #36
 7126              		.cfi_def_cfa_offset 40
 7127 0004 0190     		str	r0, [sp, #4]
 7128 0006 0091     		str	r1, [sp]
 7129              		.loc 1 3011 0
 7130 0008 019B     		ldr	r3, [sp, #4]
 7131 000a 1A68     		ldr	r2, [r3]
 7132 000c 019B     		ldr	r3, [sp, #4]
 7133 000e 9B88     		ldrh	r3, [r3, #4]
 7134 0010 1046     		mov	r0, r2
 7135 0012 1946     		mov	r1, r3
 7136 0014 FFF7FEFF 		bl	validate
 7137 0018 0346     		mov	r3, r0
 7138 001a 8DF81F30 		strb	r3, [sp, #31]
 7139              		.loc 1 3012 0
 7140 001e 9DF81F30 		ldrb	r3, [sp, #31]	@ zero_extendqisi2
 7141 0022 002B     		cmp	r3, #0
ARM GAS  /tmp/ccIWRJEN.s 			page 127


 7142 0024 46D1     		bne	.L473
 7143              		.loc 1 3013 0
 7144 0026 009B     		ldr	r3, [sp]
 7145 0028 002B     		cmp	r3, #0
 7146 002a 07D1     		bne	.L474
 7147              		.loc 1 3014 0
 7148 002c 0198     		ldr	r0, [sp, #4]
 7149 002e 0021     		movs	r1, #0
 7150 0030 FFF7FEFF 		bl	dir_sdi
 7151 0034 0346     		mov	r3, r0
 7152 0036 8DF81F30 		strb	r3, [sp, #31]
 7153 003a 3BE0     		b	.L473
 7154              	.L474:
 7155              		.loc 1 3016 0
 7156 003c 4FF40070 		mov	r0, #512
 7157 0040 FFF7FEFF 		bl	ff_memalloc
 7158 0044 0690     		str	r0, [sp, #24]
 7159 0046 069B     		ldr	r3, [sp, #24]
 7160 0048 002B     		cmp	r3, #0
 7161 004a 01D1     		bne	.L475
 7162              		.loc 1 3016 0 is_stmt 0 discriminator 1
 7163 004c 1123     		movs	r3, #17
 7164 004e 33E0     		b	.L479
 7165              	.L475:
 7166              		.loc 1 3016 0 discriminator 2
 7167 0050 019B     		ldr	r3, [sp, #4]
 7168 0052 069A     		ldr	r2, [sp, #24]
 7169 0054 DA61     		str	r2, [r3, #28]
 7170 0056 019B     		ldr	r3, [sp, #4]
 7171 0058 03AA     		add	r2, sp, #12
 7172 005a 9A61     		str	r2, [r3, #24]
 7173              		.loc 1 3017 0 is_stmt 1 discriminator 2
 7174 005c 0198     		ldr	r0, [sp, #4]
 7175 005e FFF7FEFF 		bl	dir_read
 7176 0062 0346     		mov	r3, r0
 7177 0064 8DF81F30 		strb	r3, [sp, #31]
 7178              		.loc 1 3018 0 discriminator 2
 7179 0068 9DF81F30 		ldrb	r3, [sp, #31]	@ zero_extendqisi2
 7180 006c 042B     		cmp	r3, #4
 7181 006e 05D1     		bne	.L477
 7182              		.loc 1 3019 0
 7183 0070 019B     		ldr	r3, [sp, #4]
 7184 0072 0022     		movs	r2, #0
 7185 0074 1A61     		str	r2, [r3, #16]
 7186              		.loc 1 3020 0
 7187 0076 0023     		movs	r3, #0
 7188 0078 8DF81F30 		strb	r3, [sp, #31]
 7189              	.L477:
 7190              		.loc 1 3022 0
 7191 007c 9DF81F30 		ldrb	r3, [sp, #31]	@ zero_extendqisi2
 7192 0080 002B     		cmp	r3, #0
 7193 0082 14D1     		bne	.L478
 7194              		.loc 1 3023 0
 7195 0084 0198     		ldr	r0, [sp, #4]
 7196 0086 0099     		ldr	r1, [sp]
 7197 0088 FFF7FEFF 		bl	get_fileinfo
 7198              		.loc 1 3024 0
ARM GAS  /tmp/ccIWRJEN.s 			page 128


 7199 008c 0198     		ldr	r0, [sp, #4]
 7200 008e 0021     		movs	r1, #0
 7201 0090 FFF7FEFF 		bl	dir_next
 7202 0094 0346     		mov	r3, r0
 7203 0096 8DF81F30 		strb	r3, [sp, #31]
 7204              		.loc 1 3025 0
 7205 009a 9DF81F30 		ldrb	r3, [sp, #31]	@ zero_extendqisi2
 7206 009e 042B     		cmp	r3, #4
 7207 00a0 05D1     		bne	.L478
 7208              		.loc 1 3026 0
 7209 00a2 019B     		ldr	r3, [sp, #4]
 7210 00a4 0022     		movs	r2, #0
 7211 00a6 1A61     		str	r2, [r3, #16]
 7212              		.loc 1 3027 0
 7213 00a8 0023     		movs	r3, #0
 7214 00aa 8DF81F30 		strb	r3, [sp, #31]
 7215              	.L478:
 7216              		.loc 1 3030 0
 7217 00ae 0698     		ldr	r0, [sp, #24]
 7218 00b0 FFF7FEFF 		bl	ff_memfree
 7219              	.L473:
 7220              		.loc 1 3034 0
 7221 00b4 9DF81F30 		ldrb	r3, [sp, #31]	@ zero_extendqisi2
 7222              	.L479:
 7223              		.loc 1 3035 0
 7224 00b8 1846     		mov	r0, r3
 7225 00ba 09B0     		add	sp, sp, #36
 7226              		@ sp needed
 7227 00bc 5DF804FB 		ldr	pc, [sp], #4
 7228              		.cfi_endproc
 7229              	.LFE43:
 7230              		.size	f_readdir, .-f_readdir
 7231              		.section	.text.f_stat,"ax",%progbits
 7232              		.align	2
 7233              		.p2align 4,,15
 7234              		.global	f_stat
 7235              		.thumb
 7236              		.thumb_func
 7237              		.type	f_stat, %function
 7238              	f_stat:
 7239              	.LFB44:
 7240              		.loc 1 3048 0
 7241              		.cfi_startproc
 7242              		@ args = 0, pretend = 0, frame = 64
 7243              		@ frame_needed = 0, uses_anonymous_args = 0
 7244 0000 00B5     		push	{lr}
 7245              		.cfi_def_cfa_offset 4
 7246              		.cfi_offset 14, -4
 7247 0002 91B0     		sub	sp, sp, #68
 7248              		.cfi_def_cfa_offset 72
 7249 0004 0190     		str	r0, [sp, #4]
 7250 0006 0091     		str	r1, [sp]
 7251              		.loc 1 3054 0
 7252 0008 01AA     		add	r2, sp, #4
 7253 000a 05AB     		add	r3, sp, #20
 7254 000c 1046     		mov	r0, r2
 7255 000e 1946     		mov	r1, r3
ARM GAS  /tmp/ccIWRJEN.s 			page 129


 7256 0010 0022     		movs	r2, #0
 7257 0012 FFF7FEFF 		bl	chk_mounted
 7258 0016 0346     		mov	r3, r0
 7259 0018 8DF83F30 		strb	r3, [sp, #63]
 7260              		.loc 1 3055 0
 7261 001c 9DF83F30 		ldrb	r3, [sp, #63]	@ zero_extendqisi2
 7262 0020 002B     		cmp	r3, #0
 7263 0022 29D1     		bne	.L481
 7264              		.loc 1 3056 0
 7265 0024 4FF40070 		mov	r0, #512
 7266 0028 FFF7FEFF 		bl	ff_memalloc
 7267 002c 0E90     		str	r0, [sp, #56]
 7268 002e 0E9B     		ldr	r3, [sp, #56]
 7269 0030 002B     		cmp	r3, #0
 7270 0032 01D1     		bne	.L482
 7271              		.loc 1 3056 0 is_stmt 0 discriminator 1
 7272 0034 1123     		movs	r3, #17
 7273 0036 21E0     		b	.L486
 7274              	.L482:
 7275              		.loc 1 3056 0 discriminator 2
 7276 0038 0E9B     		ldr	r3, [sp, #56]
 7277 003a 0C93     		str	r3, [sp, #48]
 7278 003c 02AB     		add	r3, sp, #8
 7279 003e 0B93     		str	r3, [sp, #44]
 7280              		.loc 1 3057 0 is_stmt 1 discriminator 2
 7281 0040 019B     		ldr	r3, [sp, #4]
 7282 0042 05AA     		add	r2, sp, #20
 7283 0044 1046     		mov	r0, r2
 7284 0046 1946     		mov	r1, r3
 7285 0048 FFF7FEFF 		bl	follow_path
 7286 004c 0346     		mov	r3, r0
 7287 004e 8DF83F30 		strb	r3, [sp, #63]
 7288              		.loc 1 3058 0 discriminator 2
 7289 0052 9DF83F30 		ldrb	r3, [sp, #63]	@ zero_extendqisi2
 7290 0056 002B     		cmp	r3, #0
 7291 0058 0BD1     		bne	.L484
 7292              		.loc 1 3059 0
 7293 005a 0A9B     		ldr	r3, [sp, #40]
 7294 005c 002B     		cmp	r3, #0
 7295 005e 05D0     		beq	.L485
 7296              		.loc 1 3060 0
 7297 0060 05AB     		add	r3, sp, #20
 7298 0062 1846     		mov	r0, r3
 7299 0064 0099     		ldr	r1, [sp]
 7300 0066 FFF7FEFF 		bl	get_fileinfo
 7301 006a 02E0     		b	.L484
 7302              	.L485:
 7303              		.loc 1 3062 0
 7304 006c 0623     		movs	r3, #6
 7305 006e 8DF83F30 		strb	r3, [sp, #63]
 7306              	.L484:
 7307              		.loc 1 3064 0
 7308 0072 0E98     		ldr	r0, [sp, #56]
 7309 0074 FFF7FEFF 		bl	ff_memfree
 7310              	.L481:
 7311              		.loc 1 3067 0
 7312 0078 9DF83F30 		ldrb	r3, [sp, #63]	@ zero_extendqisi2
ARM GAS  /tmp/ccIWRJEN.s 			page 130


 7313              	.L486:
 7314              		.loc 1 3068 0
 7315 007c 1846     		mov	r0, r3
 7316 007e 11B0     		add	sp, sp, #68
 7317              		@ sp needed
 7318 0080 5DF804FB 		ldr	pc, [sp], #4
 7319              		.cfi_endproc
 7320              	.LFE44:
 7321              		.size	f_stat, .-f_stat
 7322 0084 AFF30080 		.section	.text.f_getfree,"ax",%progbits
 7322      AFF30080 
 7322      AFF30080 
 7323              		.align	2
 7324              		.p2align 4,,15
 7325              		.global	f_getfree
 7326              		.thumb
 7327              		.thumb_func
 7328              		.type	f_getfree, %function
 7329              	f_getfree:
 7330              	.LFB45:
 7331              		.loc 1 3082 0
 7332              		.cfi_startproc
 7333              		@ args = 0, pretend = 0, frame = 48
 7334              		@ frame_needed = 0, uses_anonymous_args = 0
 7335 0000 00B5     		push	{lr}
 7336              		.cfi_def_cfa_offset 4
 7337              		.cfi_offset 14, -4
 7338 0002 8DB0     		sub	sp, sp, #52
 7339              		.cfi_def_cfa_offset 56
 7340 0004 0390     		str	r0, [sp, #12]
 7341 0006 0291     		str	r1, [sp, #8]
 7342 0008 0192     		str	r2, [sp, #4]
 7343              		.loc 1 3090 0
 7344 000a 03AB     		add	r3, sp, #12
 7345 000c 1846     		mov	r0, r3
 7346 000e 0199     		ldr	r1, [sp, #4]
 7347 0010 0022     		movs	r2, #0
 7348 0012 FFF7FEFF 		bl	chk_mounted
 7349 0016 0346     		mov	r3, r0
 7350 0018 8DF82F30 		strb	r3, [sp, #47]
 7351              		.loc 1 3091 0
 7352 001c 9DF82F30 		ldrb	r3, [sp, #47]	@ zero_extendqisi2
 7353 0020 002B     		cmp	r3, #0
 7354 0022 40F0A080 		bne	.L488
 7355              		.loc 1 3093 0
 7356 0026 019B     		ldr	r3, [sp, #4]
 7357 0028 1B68     		ldr	r3, [r3]
 7358 002a 1A69     		ldr	r2, [r3, #16]
 7359 002c 019B     		ldr	r3, [sp, #4]
 7360 002e 1B68     		ldr	r3, [r3]
 7361 0030 9B69     		ldr	r3, [r3, #24]
 7362 0032 023B     		subs	r3, r3, #2
 7363 0034 9A42     		cmp	r2, r3
 7364 0036 05D8     		bhi	.L489
 7365              		.loc 1 3094 0
 7366 0038 019B     		ldr	r3, [sp, #4]
 7367 003a 1B68     		ldr	r3, [r3]
ARM GAS  /tmp/ccIWRJEN.s 			page 131


 7368 003c 1A69     		ldr	r2, [r3, #16]
 7369 003e 029B     		ldr	r3, [sp, #8]
 7370 0040 1A60     		str	r2, [r3]
 7371 0042 90E0     		b	.L488
 7372              	.L489:
 7373              		.loc 1 3097 0
 7374 0044 019B     		ldr	r3, [sp, #4]
 7375 0046 1B68     		ldr	r3, [r3]
 7376 0048 1B78     		ldrb	r3, [r3]
 7377 004a 8DF81730 		strb	r3, [sp, #23]
 7378              		.loc 1 3098 0
 7379 004e 0023     		movs	r3, #0
 7380 0050 0A93     		str	r3, [sp, #40]
 7381              		.loc 1 3099 0
 7382 0052 9DF81730 		ldrb	r3, [sp, #23]	@ zero_extendqisi2
 7383 0056 012B     		cmp	r3, #1
 7384 0058 28D1     		bne	.L490
 7385              		.loc 1 3100 0
 7386 005a 0223     		movs	r3, #2
 7387 005c 0993     		str	r3, [sp, #36]
 7388              	.L495:
 7389              		.loc 1 3102 0
 7390 005e 019B     		ldr	r3, [sp, #4]
 7391 0060 1B68     		ldr	r3, [r3]
 7392 0062 1846     		mov	r0, r3
 7393 0064 0999     		ldr	r1, [sp, #36]
 7394 0066 FFF7FEFF 		bl	get_fat
 7395 006a 0490     		str	r0, [sp, #16]
 7396              		.loc 1 3103 0
 7397 006c 049B     		ldr	r3, [sp, #16]
 7398 006e B3F1FF3F 		cmp	r3, #-1
 7399 0072 03D1     		bne	.L491
 7400              		.loc 1 3103 0 is_stmt 0 discriminator 1
 7401 0074 0123     		movs	r3, #1
 7402 0076 8DF82F30 		strb	r3, [sp, #47]
 7403 007a 16E0     		b	.L492
 7404              	.L491:
 7405              		.loc 1 3104 0 is_stmt 1
 7406 007c 049B     		ldr	r3, [sp, #16]
 7407 007e 012B     		cmp	r3, #1
 7408 0080 03D1     		bne	.L493
 7409              		.loc 1 3104 0 is_stmt 0 discriminator 1
 7410 0082 0223     		movs	r3, #2
 7411 0084 8DF82F30 		strb	r3, [sp, #47]
 7412 0088 0FE0     		b	.L492
 7413              	.L493:
 7414              		.loc 1 3105 0 is_stmt 1
 7415 008a 049B     		ldr	r3, [sp, #16]
 7416 008c 002B     		cmp	r3, #0
 7417 008e 02D1     		bne	.L494
 7418              		.loc 1 3105 0 is_stmt 0 discriminator 1
 7419 0090 0A9B     		ldr	r3, [sp, #40]
 7420 0092 0133     		adds	r3, r3, #1
 7421 0094 0A93     		str	r3, [sp, #40]
 7422              	.L494:
 7423              		.loc 1 3106 0 is_stmt 1
 7424 0096 099B     		ldr	r3, [sp, #36]
ARM GAS  /tmp/ccIWRJEN.s 			page 132


 7425 0098 0133     		adds	r3, r3, #1
 7426 009a 0993     		str	r3, [sp, #36]
 7427 009c 019B     		ldr	r3, [sp, #4]
 7428 009e 1B68     		ldr	r3, [r3]
 7429 00a0 9B69     		ldr	r3, [r3, #24]
 7430 00a2 099A     		ldr	r2, [sp, #36]
 7431 00a4 9A42     		cmp	r2, r3
 7432 00a6 DAD3     		bcc	.L495
 7433 00a8 4EE0     		b	.L496
 7434              	.L492:
 7435 00aa 4DE0     		b	.L496
 7436              	.L490:
 7437              		.loc 1 3108 0
 7438 00ac 019B     		ldr	r3, [sp, #4]
 7439 00ae 1B68     		ldr	r3, [r3]
 7440 00b0 9B69     		ldr	r3, [r3, #24]
 7441 00b2 0993     		str	r3, [sp, #36]
 7442              		.loc 1 3109 0
 7443 00b4 019B     		ldr	r3, [sp, #4]
 7444 00b6 1B68     		ldr	r3, [r3]
 7445 00b8 1B6A     		ldr	r3, [r3, #32]
 7446 00ba 0893     		str	r3, [sp, #32]
 7447              		.loc 1 3110 0
 7448 00bc 0023     		movs	r3, #0
 7449 00be 0793     		str	r3, [sp, #28]
 7450 00c0 0023     		movs	r3, #0
 7451 00c2 0693     		str	r3, [sp, #24]
 7452              	.L503:
 7453              		.loc 1 3112 0
 7454 00c4 079B     		ldr	r3, [sp, #28]
 7455 00c6 002B     		cmp	r3, #0
 7456 00c8 17D1     		bne	.L497
 7457              		.loc 1 3113 0
 7458 00ca 019B     		ldr	r3, [sp, #4]
 7459 00cc 1A68     		ldr	r2, [r3]
 7460 00ce 089B     		ldr	r3, [sp, #32]
 7461 00d0 591C     		adds	r1, r3, #1
 7462 00d2 0891     		str	r1, [sp, #32]
 7463 00d4 1046     		mov	r0, r2
 7464 00d6 1946     		mov	r1, r3
 7465 00d8 FFF7FEFF 		bl	move_window
 7466 00dc 0346     		mov	r3, r0
 7467 00de 8DF82F30 		strb	r3, [sp, #47]
 7468              		.loc 1 3114 0
 7469 00e2 9DF82F30 		ldrb	r3, [sp, #47]	@ zero_extendqisi2
 7470 00e6 002B     		cmp	r3, #0
 7471 00e8 00D0     		beq	.L498
 7472              		.loc 1 3114 0 is_stmt 0 discriminator 1
 7473 00ea 2DE0     		b	.L496
 7474              	.L498:
 7475              		.loc 1 3115 0 is_stmt 1
 7476 00ec 019B     		ldr	r3, [sp, #4]
 7477 00ee 1B68     		ldr	r3, [r3]
 7478 00f0 3033     		adds	r3, r3, #48
 7479 00f2 0693     		str	r3, [sp, #24]
 7480              		.loc 1 3116 0
 7481 00f4 4FF40073 		mov	r3, #512
ARM GAS  /tmp/ccIWRJEN.s 			page 133


 7482 00f8 0793     		str	r3, [sp, #28]
 7483              	.L497:
 7484              		.loc 1 3118 0
 7485 00fa 9DF81730 		ldrb	r3, [sp, #23]	@ zero_extendqisi2
 7486 00fe 022B     		cmp	r3, #2
 7487 0100 0DD1     		bne	.L499
 7488              		.loc 1 3119 0
 7489 0102 069B     		ldr	r3, [sp, #24]
 7490 0104 1B88     		ldrh	r3, [r3]
 7491 0106 002B     		cmp	r3, #0
 7492 0108 02D1     		bne	.L500
 7493              		.loc 1 3119 0 is_stmt 0 discriminator 1
 7494 010a 0A9B     		ldr	r3, [sp, #40]
 7495 010c 0133     		adds	r3, r3, #1
 7496 010e 0A93     		str	r3, [sp, #40]
 7497              	.L500:
 7498              		.loc 1 3120 0 is_stmt 1
 7499 0110 069B     		ldr	r3, [sp, #24]
 7500 0112 0233     		adds	r3, r3, #2
 7501 0114 0693     		str	r3, [sp, #24]
 7502 0116 079B     		ldr	r3, [sp, #28]
 7503 0118 023B     		subs	r3, r3, #2
 7504 011a 0793     		str	r3, [sp, #28]
 7505 011c 0EE0     		b	.L501
 7506              	.L499:
 7507              		.loc 1 3122 0
 7508 011e 069B     		ldr	r3, [sp, #24]
 7509 0120 1B68     		ldr	r3, [r3]
 7510 0122 23F07043 		bic	r3, r3, #-268435456
 7511 0126 002B     		cmp	r3, #0
 7512 0128 02D1     		bne	.L502
 7513              		.loc 1 3122 0 is_stmt 0 discriminator 1
 7514 012a 0A9B     		ldr	r3, [sp, #40]
 7515 012c 0133     		adds	r3, r3, #1
 7516 012e 0A93     		str	r3, [sp, #40]
 7517              	.L502:
 7518              		.loc 1 3123 0 is_stmt 1
 7519 0130 069B     		ldr	r3, [sp, #24]
 7520 0132 0433     		adds	r3, r3, #4
 7521 0134 0693     		str	r3, [sp, #24]
 7522 0136 079B     		ldr	r3, [sp, #28]
 7523 0138 043B     		subs	r3, r3, #4
 7524 013a 0793     		str	r3, [sp, #28]
 7525              	.L501:
 7526              		.loc 1 3125 0
 7527 013c 099B     		ldr	r3, [sp, #36]
 7528 013e 013B     		subs	r3, r3, #1
 7529 0140 0993     		str	r3, [sp, #36]
 7530 0142 099B     		ldr	r3, [sp, #36]
 7531 0144 002B     		cmp	r3, #0
 7532 0146 BDD1     		bne	.L503
 7533              	.L496:
 7534              		.loc 1 3127 0
 7535 0148 019B     		ldr	r3, [sp, #4]
 7536 014a 1B68     		ldr	r3, [r3]
 7537 014c 0A9A     		ldr	r2, [sp, #40]
 7538 014e 1A61     		str	r2, [r3, #16]
ARM GAS  /tmp/ccIWRJEN.s 			page 134


 7539              		.loc 1 3128 0
 7540 0150 9DF81730 		ldrb	r3, [sp, #23]	@ zero_extendqisi2
 7541 0154 032B     		cmp	r3, #3
 7542 0156 03D1     		bne	.L504
 7543              		.loc 1 3128 0 is_stmt 0 discriminator 1
 7544 0158 019B     		ldr	r3, [sp, #4]
 7545 015a 1B68     		ldr	r3, [r3]
 7546 015c 0122     		movs	r2, #1
 7547 015e 5A71     		strb	r2, [r3, #5]
 7548              	.L504:
 7549              		.loc 1 3129 0 is_stmt 1
 7550 0160 029B     		ldr	r3, [sp, #8]
 7551 0162 0A9A     		ldr	r2, [sp, #40]
 7552 0164 1A60     		str	r2, [r3]
 7553              	.L488:
 7554              		.loc 1 3132 0
 7555 0166 9DF82F30 		ldrb	r3, [sp, #47]	@ zero_extendqisi2
 7556              		.loc 1 3133 0
 7557 016a 1846     		mov	r0, r3
 7558 016c 0DB0     		add	sp, sp, #52
 7559              		@ sp needed
 7560 016e 5DF804FB 		ldr	pc, [sp], #4
 7561              		.cfi_endproc
 7562              	.LFE45:
 7563              		.size	f_getfree, .-f_getfree
 7564 0172 00BFAFF3 		.section	.text.f_truncate,"ax",%progbits
 7564      0080AFF3 
 7564      0080AFF3 
 7564      0080
 7565              		.align	2
 7566              		.p2align 4,,15
 7567              		.global	f_truncate
 7568              		.thumb
 7569              		.thumb_func
 7570              		.type	f_truncate, %function
 7571              	f_truncate:
 7572              	.LFB46:
 7573              		.loc 1 3145 0
 7574              		.cfi_startproc
 7575              		@ args = 0, pretend = 0, frame = 16
 7576              		@ frame_needed = 0, uses_anonymous_args = 0
 7577 0000 00B5     		push	{lr}
 7578              		.cfi_def_cfa_offset 4
 7579              		.cfi_offset 14, -4
 7580 0002 85B0     		sub	sp, sp, #20
 7581              		.cfi_def_cfa_offset 24
 7582 0004 0190     		str	r0, [sp, #4]
 7583              		.loc 1 3150 0
 7584 0006 019B     		ldr	r3, [sp, #4]
 7585 0008 1A68     		ldr	r2, [r3]
 7586 000a 019B     		ldr	r3, [sp, #4]
 7587 000c 9B88     		ldrh	r3, [r3, #4]
 7588 000e 1046     		mov	r0, r2
 7589 0010 1946     		mov	r1, r3
 7590 0012 FFF7FEFF 		bl	validate
 7591 0016 0346     		mov	r3, r0
 7592 0018 8DF80F30 		strb	r3, [sp, #15]
ARM GAS  /tmp/ccIWRJEN.s 			page 135


 7593              		.loc 1 3151 0
 7594 001c 9DF80F30 		ldrb	r3, [sp, #15]	@ zero_extendqisi2
 7595 0020 002B     		cmp	r3, #0
 7596 0022 12D1     		bne	.L507
 7597              		.loc 1 3152 0
 7598 0024 019B     		ldr	r3, [sp, #4]
 7599 0026 9B79     		ldrb	r3, [r3, #6]	@ zero_extendqisi2
 7600 0028 DBB2     		uxtb	r3, r3
 7601 002a 5BB2     		sxtb	r3, r3
 7602 002c 002B     		cmp	r3, #0
 7603 002e 03DA     		bge	.L508
 7604              		.loc 1 3153 0
 7605 0030 0223     		movs	r3, #2
 7606 0032 8DF80F30 		strb	r3, [sp, #15]
 7607 0036 08E0     		b	.L507
 7608              	.L508:
 7609              		.loc 1 3155 0
 7610 0038 019B     		ldr	r3, [sp, #4]
 7611 003a 9B79     		ldrb	r3, [r3, #6]	@ zero_extendqisi2
 7612 003c 03F00203 		and	r3, r3, #2
 7613 0040 002B     		cmp	r3, #0
 7614 0042 02D1     		bne	.L507
 7615              		.loc 1 3156 0
 7616 0044 0723     		movs	r3, #7
 7617 0046 8DF80F30 		strb	r3, [sp, #15]
 7618              	.L507:
 7619              		.loc 1 3159 0
 7620 004a 9DF80F30 		ldrb	r3, [sp, #15]	@ zero_extendqisi2
 7621 004e 002B     		cmp	r3, #0
 7622 0050 6BD1     		bne	.L509
 7623              		.loc 1 3160 0
 7624 0052 019B     		ldr	r3, [sp, #4]
 7625 0054 DA68     		ldr	r2, [r3, #12]
 7626 0056 019B     		ldr	r3, [sp, #4]
 7627 0058 9B68     		ldr	r3, [r3, #8]
 7628 005a 9A42     		cmp	r2, r3
 7629 005c 5AD9     		bls	.L510
 7630              		.loc 1 3161 0
 7631 005e 019B     		ldr	r3, [sp, #4]
 7632 0060 9A68     		ldr	r2, [r3, #8]
 7633 0062 019B     		ldr	r3, [sp, #4]
 7634 0064 DA60     		str	r2, [r3, #12]
 7635              		.loc 1 3162 0
 7636 0066 019B     		ldr	r3, [sp, #4]
 7637 0068 9B79     		ldrb	r3, [r3, #6]	@ zero_extendqisi2
 7638 006a 43F02003 		orr	r3, r3, #32
 7639 006e DAB2     		uxtb	r2, r3
 7640 0070 019B     		ldr	r3, [sp, #4]
 7641 0072 9A71     		strb	r2, [r3, #6]
 7642              		.loc 1 3163 0
 7643 0074 019B     		ldr	r3, [sp, #4]
 7644 0076 9B68     		ldr	r3, [r3, #8]
 7645 0078 002B     		cmp	r3, #0
 7646 007a 0ED1     		bne	.L511
 7647              		.loc 1 3164 0
 7648 007c 019B     		ldr	r3, [sp, #4]
 7649 007e 1A68     		ldr	r2, [r3]
ARM GAS  /tmp/ccIWRJEN.s 			page 136


 7650 0080 019B     		ldr	r3, [sp, #4]
 7651 0082 1B69     		ldr	r3, [r3, #16]
 7652 0084 1046     		mov	r0, r2
 7653 0086 1946     		mov	r1, r3
 7654 0088 FFF7FEFF 		bl	remove_chain
 7655 008c 0346     		mov	r3, r0
 7656 008e 8DF80F30 		strb	r3, [sp, #15]
 7657              		.loc 1 3165 0
 7658 0092 019B     		ldr	r3, [sp, #4]
 7659 0094 0022     		movs	r2, #0
 7660 0096 1A61     		str	r2, [r3, #16]
 7661 0098 3CE0     		b	.L510
 7662              	.L511:
 7663              		.loc 1 3167 0
 7664 009a 019B     		ldr	r3, [sp, #4]
 7665 009c 1A68     		ldr	r2, [r3]
 7666 009e 019B     		ldr	r3, [sp, #4]
 7667 00a0 5B69     		ldr	r3, [r3, #20]
 7668 00a2 1046     		mov	r0, r2
 7669 00a4 1946     		mov	r1, r3
 7670 00a6 FFF7FEFF 		bl	get_fat
 7671 00aa 0290     		str	r0, [sp, #8]
 7672              		.loc 1 3168 0
 7673 00ac 0023     		movs	r3, #0
 7674 00ae 8DF80F30 		strb	r3, [sp, #15]
 7675              		.loc 1 3169 0
 7676 00b2 029B     		ldr	r3, [sp, #8]
 7677 00b4 B3F1FF3F 		cmp	r3, #-1
 7678 00b8 02D1     		bne	.L512
 7679              		.loc 1 3169 0 is_stmt 0 discriminator 1
 7680 00ba 0123     		movs	r3, #1
 7681 00bc 8DF80F30 		strb	r3, [sp, #15]
 7682              	.L512:
 7683              		.loc 1 3170 0 is_stmt 1
 7684 00c0 029B     		ldr	r3, [sp, #8]
 7685 00c2 012B     		cmp	r3, #1
 7686 00c4 02D1     		bne	.L513
 7687              		.loc 1 3170 0 is_stmt 0 discriminator 1
 7688 00c6 0223     		movs	r3, #2
 7689 00c8 8DF80F30 		strb	r3, [sp, #15]
 7690              	.L513:
 7691              		.loc 1 3171 0 is_stmt 1
 7692 00cc 9DF80F30 		ldrb	r3, [sp, #15]	@ zero_extendqisi2
 7693 00d0 002B     		cmp	r3, #0
 7694 00d2 1FD1     		bne	.L510
 7695              		.loc 1 3171 0 is_stmt 0 discriminator 1
 7696 00d4 019B     		ldr	r3, [sp, #4]
 7697 00d6 1B68     		ldr	r3, [r3]
 7698 00d8 9A69     		ldr	r2, [r3, #24]
 7699 00da 029B     		ldr	r3, [sp, #8]
 7700 00dc 9A42     		cmp	r2, r3
 7701 00de 19D9     		bls	.L510
 7702              		.loc 1 3172 0 is_stmt 1
 7703 00e0 019B     		ldr	r3, [sp, #4]
 7704 00e2 1A68     		ldr	r2, [r3]
 7705 00e4 019B     		ldr	r3, [sp, #4]
 7706 00e6 5B69     		ldr	r3, [r3, #20]
ARM GAS  /tmp/ccIWRJEN.s 			page 137


 7707 00e8 1046     		mov	r0, r2
 7708 00ea 1946     		mov	r1, r3
 7709 00ec 6FF07042 		mvn	r2, #-268435456
 7710 00f0 FFF7FEFF 		bl	put_fat
 7711 00f4 0346     		mov	r3, r0
 7712 00f6 8DF80F30 		strb	r3, [sp, #15]
 7713              		.loc 1 3173 0
 7714 00fa 9DF80F30 		ldrb	r3, [sp, #15]	@ zero_extendqisi2
 7715 00fe 002B     		cmp	r3, #0
 7716 0100 08D1     		bne	.L510
 7717              		.loc 1 3173 0 is_stmt 0 discriminator 1
 7718 0102 019B     		ldr	r3, [sp, #4]
 7719 0104 1B68     		ldr	r3, [r3]
 7720 0106 1846     		mov	r0, r3
 7721 0108 0299     		ldr	r1, [sp, #8]
 7722 010a FFF7FEFF 		bl	remove_chain
 7723 010e 0346     		mov	r3, r0
 7724 0110 8DF80F30 		strb	r3, [sp, #15]
 7725              	.L510:
 7726              		.loc 1 3177 0 is_stmt 1
 7727 0114 9DF80F30 		ldrb	r3, [sp, #15]	@ zero_extendqisi2
 7728 0118 002B     		cmp	r3, #0
 7729 011a 06D0     		beq	.L509
 7730              		.loc 1 3177 0 is_stmt 0 discriminator 1
 7731 011c 019B     		ldr	r3, [sp, #4]
 7732 011e 9B79     		ldrb	r3, [r3, #6]	@ zero_extendqisi2
 7733 0120 63F07F03 		orn	r3, r3, #127
 7734 0124 DAB2     		uxtb	r2, r3
 7735 0126 019B     		ldr	r3, [sp, #4]
 7736 0128 9A71     		strb	r2, [r3, #6]
 7737              	.L509:
 7738              		.loc 1 3180 0 is_stmt 1
 7739 012a 9DF80F30 		ldrb	r3, [sp, #15]	@ zero_extendqisi2
 7740              		.loc 1 3181 0
 7741 012e 1846     		mov	r0, r3
 7742 0130 05B0     		add	sp, sp, #20
 7743              		@ sp needed
 7744 0132 5DF804FB 		ldr	pc, [sp], #4
 7745              		.cfi_endproc
 7746              	.LFE46:
 7747              		.size	f_truncate, .-f_truncate
 7748 0136 00BFAFF3 		.section	.text.f_unlink,"ax",%progbits
 7748      0080AFF3 
 7748      0080
 7749              		.align	2
 7750              		.p2align 4,,15
 7751              		.global	f_unlink
 7752              		.thumb
 7753              		.thumb_func
 7754              		.type	f_unlink, %function
 7755              	f_unlink:
 7756              	.LFB47:
 7757              		.loc 1 3193 0
 7758              		.cfi_startproc
 7759              		@ args = 0, pretend = 0, frame = 112
 7760              		@ frame_needed = 0, uses_anonymous_args = 0
 7761 0000 00B5     		push	{lr}
ARM GAS  /tmp/ccIWRJEN.s 			page 138


 7762              		.cfi_def_cfa_offset 4
 7763              		.cfi_offset 14, -4
 7764 0002 9DB0     		sub	sp, sp, #116
 7765              		.cfi_def_cfa_offset 120
 7766 0004 0190     		str	r0, [sp, #4]
 7767              		.loc 1 3201 0
 7768 0006 01AA     		add	r2, sp, #4
 7769 0008 0FAB     		add	r3, sp, #60
 7770 000a 1046     		mov	r0, r2
 7771 000c 1946     		mov	r1, r3
 7772 000e 0122     		movs	r2, #1
 7773 0010 FFF7FEFF 		bl	chk_mounted
 7774 0014 0346     		mov	r3, r0
 7775 0016 8DF86F30 		strb	r3, [sp, #111]
 7776              		.loc 1 3202 0
 7777 001a 9DF86F30 		ldrb	r3, [sp, #111]	@ zero_extendqisi2
 7778 001e 002B     		cmp	r3, #0
 7779 0020 40F09B80 		bne	.L516
 7780              		.loc 1 3203 0
 7781 0024 4FF40070 		mov	r0, #512
 7782 0028 FFF7FEFF 		bl	ff_memalloc
 7783 002c 1A90     		str	r0, [sp, #104]
 7784 002e 1A9B     		ldr	r3, [sp, #104]
 7785 0030 002B     		cmp	r3, #0
 7786 0032 01D1     		bne	.L517
 7787              		.loc 1 3203 0 is_stmt 0 discriminator 1
 7788 0034 1123     		movs	r3, #17
 7789 0036 92E0     		b	.L526
 7790              	.L517:
 7791              		.loc 1 3203 0 discriminator 2
 7792 0038 1A9B     		ldr	r3, [sp, #104]
 7793 003a 1693     		str	r3, [sp, #88]
 7794 003c 03AB     		add	r3, sp, #12
 7795 003e 1593     		str	r3, [sp, #84]
 7796              		.loc 1 3204 0 is_stmt 1 discriminator 2
 7797 0040 019B     		ldr	r3, [sp, #4]
 7798 0042 0FAA     		add	r2, sp, #60
 7799 0044 1046     		mov	r0, r2
 7800 0046 1946     		mov	r1, r3
 7801 0048 FFF7FEFF 		bl	follow_path
 7802 004c 0346     		mov	r3, r0
 7803 004e 8DF86F30 		strb	r3, [sp, #111]
 7804              		.loc 1 3210 0 discriminator 2
 7805 0052 9DF86F30 		ldrb	r3, [sp, #111]	@ zero_extendqisi2
 7806 0056 002B     		cmp	r3, #0
 7807 0058 7CD1     		bne	.L519
 7808              		.loc 1 3211 0
 7809 005a 149B     		ldr	r3, [sp, #80]
 7810 005c 1993     		str	r3, [sp, #100]
 7811              		.loc 1 3212 0
 7812 005e 199B     		ldr	r3, [sp, #100]
 7813 0060 002B     		cmp	r3, #0
 7814 0062 03D1     		bne	.L520
 7815              		.loc 1 3213 0
 7816 0064 0623     		movs	r3, #6
 7817 0066 8DF86F30 		strb	r3, [sp, #111]
 7818 006a 09E0     		b	.L521
ARM GAS  /tmp/ccIWRJEN.s 			page 139


 7819              	.L520:
 7820              		.loc 1 3215 0
 7821 006c 199B     		ldr	r3, [sp, #100]
 7822 006e 0B33     		adds	r3, r3, #11
 7823 0070 1B78     		ldrb	r3, [r3]	@ zero_extendqisi2
 7824 0072 03F00103 		and	r3, r3, #1
 7825 0076 002B     		cmp	r3, #0
 7826 0078 02D0     		beq	.L521
 7827              		.loc 1 3216 0
 7828 007a 0723     		movs	r3, #7
 7829 007c 8DF86F30 		strb	r3, [sp, #111]
 7830              	.L521:
 7831              		.loc 1 3218 0
 7832 0080 199B     		ldr	r3, [sp, #100]
 7833 0082 1433     		adds	r3, r3, #20
 7834 0084 1B88     		ldrh	r3, [r3]
 7835 0086 1A04     		lsls	r2, r3, #16
 7836 0088 199B     		ldr	r3, [sp, #100]
 7837 008a 1A33     		adds	r3, r3, #26
 7838 008c 1B88     		ldrh	r3, [r3]
 7839 008e 1343     		orrs	r3, r3, r2
 7840 0090 1893     		str	r3, [sp, #96]
 7841              		.loc 1 3219 0
 7842 0092 9DF86F30 		ldrb	r3, [sp, #111]	@ zero_extendqisi2
 7843 0096 002B     		cmp	r3, #0
 7844 0098 37D1     		bne	.L522
 7845              		.loc 1 3219 0 is_stmt 0 discriminator 1
 7846 009a 199B     		ldr	r3, [sp, #100]
 7847 009c 0B33     		adds	r3, r3, #11
 7848 009e 1B78     		ldrb	r3, [r3]	@ zero_extendqisi2
 7849 00a0 03F01003 		and	r3, r3, #16
 7850 00a4 002B     		cmp	r3, #0
 7851 00a6 30D0     		beq	.L522
 7852              		.loc 1 3220 0 is_stmt 1
 7853 00a8 189B     		ldr	r3, [sp, #96]
 7854 00aa 012B     		cmp	r3, #1
 7855 00ac 03D8     		bhi	.L523
 7856              		.loc 1 3221 0
 7857 00ae 0223     		movs	r3, #2
 7858 00b0 8DF86F30 		strb	r3, [sp, #111]
 7859 00b4 29E0     		b	.L522
 7860              	.L523:
 7861              		.loc 1 3223 0
 7862 00b6 06AA     		add	r2, sp, #24
 7863 00b8 0FAB     		add	r3, sp, #60
 7864 00ba 1046     		mov	r0, r2
 7865 00bc 1946     		mov	r1, r3
 7866 00be 2422     		movs	r2, #36
 7867 00c0 FFF7FEFF 		bl	mem_cpy
 7868              		.loc 1 3224 0
 7869 00c4 189B     		ldr	r3, [sp, #96]
 7870 00c6 0893     		str	r3, [sp, #32]
 7871              		.loc 1 3225 0
 7872 00c8 06AB     		add	r3, sp, #24
 7873 00ca 1846     		mov	r0, r3
 7874 00cc 0221     		movs	r1, #2
 7875 00ce FFF7FEFF 		bl	dir_sdi
ARM GAS  /tmp/ccIWRJEN.s 			page 140


 7876 00d2 0346     		mov	r3, r0
 7877 00d4 8DF86F30 		strb	r3, [sp, #111]
 7878              		.loc 1 3226 0
 7879 00d8 9DF86F30 		ldrb	r3, [sp, #111]	@ zero_extendqisi2
 7880 00dc 002B     		cmp	r3, #0
 7881 00de 14D1     		bne	.L522
 7882              		.loc 1 3227 0
 7883 00e0 06AB     		add	r3, sp, #24
 7884 00e2 1846     		mov	r0, r3
 7885 00e4 FFF7FEFF 		bl	dir_read
 7886 00e8 0346     		mov	r3, r0
 7887 00ea 8DF86F30 		strb	r3, [sp, #111]
 7888              		.loc 1 3228 0
 7889 00ee 9DF86F30 		ldrb	r3, [sp, #111]	@ zero_extendqisi2
 7890 00f2 002B     		cmp	r3, #0
 7891 00f4 02D1     		bne	.L524
 7892              		.loc 1 3232 0
 7893 00f6 0723     		movs	r3, #7
 7894 00f8 8DF86F30 		strb	r3, [sp, #111]
 7895              	.L524:
 7896              		.loc 1 3233 0
 7897 00fc 9DF86F30 		ldrb	r3, [sp, #111]	@ zero_extendqisi2
 7898 0100 042B     		cmp	r3, #4
 7899 0102 02D1     		bne	.L522
 7900              		.loc 1 3233 0 is_stmt 0 discriminator 1
 7901 0104 0023     		movs	r3, #0
 7902 0106 8DF86F30 		strb	r3, [sp, #111]
 7903              	.L522:
 7904              		.loc 1 3237 0 is_stmt 1
 7905 010a 9DF86F30 		ldrb	r3, [sp, #111]	@ zero_extendqisi2
 7906 010e 002B     		cmp	r3, #0
 7907 0110 20D1     		bne	.L519
 7908              		.loc 1 3238 0
 7909 0112 0FAB     		add	r3, sp, #60
 7910 0114 1846     		mov	r0, r3
 7911 0116 FFF7FEFF 		bl	dir_remove
 7912 011a 0346     		mov	r3, r0
 7913 011c 8DF86F30 		strb	r3, [sp, #111]
 7914              		.loc 1 3239 0
 7915 0120 9DF86F30 		ldrb	r3, [sp, #111]	@ zero_extendqisi2
 7916 0124 002B     		cmp	r3, #0
 7917 0126 15D1     		bne	.L519
 7918              		.loc 1 3240 0
 7919 0128 189B     		ldr	r3, [sp, #96]
 7920 012a 002B     		cmp	r3, #0
 7921 012c 07D0     		beq	.L525
 7922              		.loc 1 3241 0
 7923 012e 0F9B     		ldr	r3, [sp, #60]
 7924 0130 1846     		mov	r0, r3
 7925 0132 1899     		ldr	r1, [sp, #96]
 7926 0134 FFF7FEFF 		bl	remove_chain
 7927 0138 0346     		mov	r3, r0
 7928 013a 8DF86F30 		strb	r3, [sp, #111]
 7929              	.L525:
 7930              		.loc 1 3242 0
 7931 013e 9DF86F30 		ldrb	r3, [sp, #111]	@ zero_extendqisi2
 7932 0142 002B     		cmp	r3, #0
ARM GAS  /tmp/ccIWRJEN.s 			page 141


 7933 0144 06D1     		bne	.L519
 7934              		.loc 1 3242 0 is_stmt 0 discriminator 1
 7935 0146 0F9B     		ldr	r3, [sp, #60]
 7936 0148 1846     		mov	r0, r3
 7937 014a FFF7FEFF 		bl	sync
 7938 014e 0346     		mov	r3, r0
 7939 0150 8DF86F30 		strb	r3, [sp, #111]
 7940              	.L519:
 7941              		.loc 1 3246 0 is_stmt 1
 7942 0154 1A98     		ldr	r0, [sp, #104]
 7943 0156 FFF7FEFF 		bl	ff_memfree
 7944              	.L516:
 7945              		.loc 1 3248 0
 7946 015a 9DF86F30 		ldrb	r3, [sp, #111]	@ zero_extendqisi2
 7947              	.L526:
 7948              		.loc 1 3249 0
 7949 015e 1846     		mov	r0, r3
 7950 0160 1DB0     		add	sp, sp, #116
 7951              		@ sp needed
 7952 0162 5DF804FB 		ldr	pc, [sp], #4
 7953              		.cfi_endproc
 7954              	.LFE47:
 7955              		.size	f_unlink, .-f_unlink
 7956 0166 00BFAFF3 		.section	.text.f_mkdir,"ax",%progbits
 7956      0080AFF3 
 7956      0080
 7957              		.align	2
 7958              		.p2align 4,,15
 7959              		.global	f_mkdir
 7960              		.thumb
 7961              		.thumb_func
 7962              		.type	f_mkdir, %function
 7963              	f_mkdir:
 7964              	.LFB48:
 7965              		.loc 1 3261 0
 7966              		.cfi_startproc
 7967              		@ args = 0, pretend = 0, frame = 88
 7968              		@ frame_needed = 0, uses_anonymous_args = 0
 7969 0000 00B5     		push	{lr}
 7970              		.cfi_def_cfa_offset 4
 7971              		.cfi_offset 14, -4
 7972 0002 97B0     		sub	sp, sp, #92
 7973              		.cfi_def_cfa_offset 96
 7974 0004 0190     		str	r0, [sp, #4]
 7975              		.loc 1 3265 0
 7976 0006 FFF7FEFF 		bl	get_fattime
 7977 000a 1290     		str	r0, [sp, #72]
 7978              		.loc 1 3269 0
 7979 000c 01AA     		add	r2, sp, #4
 7980 000e 06AB     		add	r3, sp, #24
 7981 0010 1046     		mov	r0, r2
 7982 0012 1946     		mov	r1, r3
 7983 0014 0122     		movs	r2, #1
 7984 0016 FFF7FEFF 		bl	chk_mounted
 7985 001a 0346     		mov	r3, r0
 7986 001c 8DF85730 		strb	r3, [sp, #87]
 7987              		.loc 1 3270 0
ARM GAS  /tmp/ccIWRJEN.s 			page 142


 7988 0020 9DF85730 		ldrb	r3, [sp, #87]	@ zero_extendqisi2
 7989 0024 002B     		cmp	r3, #0
 7990 0026 40F0FC80 		bne	.L528
 7991              		.loc 1 3271 0
 7992 002a 4FF40070 		mov	r0, #512
 7993 002e FFF7FEFF 		bl	ff_memalloc
 7994 0032 1190     		str	r0, [sp, #68]
 7995 0034 119B     		ldr	r3, [sp, #68]
 7996 0036 002B     		cmp	r3, #0
 7997 0038 01D1     		bne	.L529
 7998              		.loc 1 3271 0 is_stmt 0 discriminator 1
 7999 003a 1123     		movs	r3, #17
 8000 003c F3E0     		b	.L544
 8001              	.L529:
 8002              		.loc 1 3271 0 discriminator 2
 8003 003e 119B     		ldr	r3, [sp, #68]
 8004 0040 0D93     		str	r3, [sp, #52]
 8005 0042 03AB     		add	r3, sp, #12
 8006 0044 0C93     		str	r3, [sp, #48]
 8007              		.loc 1 3272 0 is_stmt 1 discriminator 2
 8008 0046 019B     		ldr	r3, [sp, #4]
 8009 0048 06AA     		add	r2, sp, #24
 8010 004a 1046     		mov	r0, r2
 8011 004c 1946     		mov	r1, r3
 8012 004e FFF7FEFF 		bl	follow_path
 8013 0052 0346     		mov	r3, r0
 8014 0054 8DF85730 		strb	r3, [sp, #87]
 8015              		.loc 1 3273 0 discriminator 2
 8016 0058 9DF85730 		ldrb	r3, [sp, #87]	@ zero_extendqisi2
 8017 005c 002B     		cmp	r3, #0
 8018 005e 02D1     		bne	.L545
 8019              		.loc 1 3273 0 is_stmt 0 discriminator 1
 8020 0060 0823     		movs	r3, #8
 8021 0062 8DF85730 		strb	r3, [sp, #87]
 8022              	.L545:
 8023              		.loc 1 3276 0 is_stmt 1
 8024 0066 9DF85730 		ldrb	r3, [sp, #87]	@ zero_extendqisi2
 8025 006a 042B     		cmp	r3, #4
 8026 006c 40F0D680 		bne	.L532
 8027              		.loc 1 3277 0
 8028 0070 069B     		ldr	r3, [sp, #24]
 8029 0072 1846     		mov	r0, r3
 8030 0074 0021     		movs	r1, #0
 8031 0076 FFF7FEFF 		bl	create_chain
 8032 007a 1090     		str	r0, [sp, #64]
 8033              		.loc 1 3278 0
 8034 007c 0023     		movs	r3, #0
 8035 007e 8DF85730 		strb	r3, [sp, #87]
 8036              		.loc 1 3279 0
 8037 0082 109B     		ldr	r3, [sp, #64]
 8038 0084 002B     		cmp	r3, #0
 8039 0086 02D1     		bne	.L533
 8040              		.loc 1 3279 0 is_stmt 0 discriminator 1
 8041 0088 0723     		movs	r3, #7
 8042 008a 8DF85730 		strb	r3, [sp, #87]
 8043              	.L533:
 8044              		.loc 1 3280 0 is_stmt 1
ARM GAS  /tmp/ccIWRJEN.s 			page 143


 8045 008e 109B     		ldr	r3, [sp, #64]
 8046 0090 012B     		cmp	r3, #1
 8047 0092 02D1     		bne	.L534
 8048              		.loc 1 3280 0 is_stmt 0 discriminator 1
 8049 0094 0223     		movs	r3, #2
 8050 0096 8DF85730 		strb	r3, [sp, #87]
 8051              	.L534:
 8052              		.loc 1 3281 0 is_stmt 1
 8053 009a 109B     		ldr	r3, [sp, #64]
 8054 009c B3F1FF3F 		cmp	r3, #-1
 8055 00a0 02D1     		bne	.L535
 8056              		.loc 1 3281 0 is_stmt 0 discriminator 1
 8057 00a2 0123     		movs	r3, #1
 8058 00a4 8DF85730 		strb	r3, [sp, #87]
 8059              	.L535:
 8060              		.loc 1 3282 0 is_stmt 1
 8061 00a8 9DF85730 		ldrb	r3, [sp, #87]	@ zero_extendqisi2
 8062 00ac 002B     		cmp	r3, #0
 8063 00ae 07D1     		bne	.L536
 8064              		.loc 1 3283 0
 8065 00b0 069B     		ldr	r3, [sp, #24]
 8066 00b2 1846     		mov	r0, r3
 8067 00b4 0021     		movs	r1, #0
 8068 00b6 FFF7FEFF 		bl	move_window
 8069 00ba 0346     		mov	r3, r0
 8070 00bc 8DF85730 		strb	r3, [sp, #87]
 8071              	.L536:
 8072              		.loc 1 3284 0
 8073 00c0 9DF85730 		ldrb	r3, [sp, #87]	@ zero_extendqisi2
 8074 00c4 002B     		cmp	r3, #0
 8075 00c6 75D1     		bne	.L537
 8076              		.loc 1 3285 0
 8077 00c8 069B     		ldr	r3, [sp, #24]
 8078 00ca 1846     		mov	r0, r3
 8079 00cc 1099     		ldr	r1, [sp, #64]
 8080 00ce FFF7FEFF 		bl	clust2sect
 8081 00d2 1490     		str	r0, [sp, #80]
 8082              		.loc 1 3286 0
 8083 00d4 069B     		ldr	r3, [sp, #24]
 8084 00d6 3033     		adds	r3, r3, #48
 8085 00d8 0F93     		str	r3, [sp, #60]
 8086              		.loc 1 3287 0
 8087 00da 0F98     		ldr	r0, [sp, #60]
 8088 00dc 0021     		movs	r1, #0
 8089 00de 4FF40072 		mov	r2, #512
 8090 00e2 FFF7FEFF 		bl	mem_set
 8091              		.loc 1 3288 0
 8092 00e6 0F98     		ldr	r0, [sp, #60]
 8093 00e8 2021     		movs	r1, #32
 8094 00ea 0B22     		movs	r2, #11
 8095 00ec FFF7FEFF 		bl	mem_set
 8096              		.loc 1 3289 0
 8097 00f0 0F9B     		ldr	r3, [sp, #60]
 8098 00f2 2E22     		movs	r2, #46
 8099 00f4 1A70     		strb	r2, [r3]
 8100              		.loc 1 3290 0
 8101 00f6 0F9B     		ldr	r3, [sp, #60]
ARM GAS  /tmp/ccIWRJEN.s 			page 144


 8102 00f8 0B33     		adds	r3, r3, #11
 8103 00fa 1022     		movs	r2, #16
 8104 00fc 1A70     		strb	r2, [r3]
 8105              		.loc 1 3291 0
 8106 00fe 0F9B     		ldr	r3, [sp, #60]
 8107 0100 1633     		adds	r3, r3, #22
 8108 0102 129A     		ldr	r2, [sp, #72]
 8109 0104 1A60     		str	r2, [r3]
 8110              		.loc 1 3292 0
 8111 0106 0F9B     		ldr	r3, [sp, #60]
 8112 0108 1A33     		adds	r3, r3, #26
 8113 010a 109A     		ldr	r2, [sp, #64]
 8114 010c 92B2     		uxth	r2, r2
 8115 010e 1A80     		strh	r2, [r3]	@ movhi
 8116 0110 0F9B     		ldr	r3, [sp, #60]
 8117 0112 1433     		adds	r3, r3, #20
 8118 0114 109A     		ldr	r2, [sp, #64]
 8119 0116 120C     		lsrs	r2, r2, #16
 8120 0118 92B2     		uxth	r2, r2
 8121 011a 1A80     		strh	r2, [r3]	@ movhi
 8122              		.loc 1 3293 0
 8123 011c 0F9B     		ldr	r3, [sp, #60]
 8124 011e 2033     		adds	r3, r3, #32
 8125 0120 1846     		mov	r0, r3
 8126 0122 0F99     		ldr	r1, [sp, #60]
 8127 0124 2022     		movs	r2, #32
 8128 0126 FFF7FEFF 		bl	mem_cpy
 8129              		.loc 1 3294 0
 8130 012a 0F9B     		ldr	r3, [sp, #60]
 8131 012c 2133     		adds	r3, r3, #33
 8132 012e 2E22     		movs	r2, #46
 8133 0130 1A70     		strb	r2, [r3]
 8134 0132 089B     		ldr	r3, [sp, #32]
 8135 0134 1393     		str	r3, [sp, #76]
 8136              		.loc 1 3295 0
 8137 0136 069B     		ldr	r3, [sp, #24]
 8138 0138 1B78     		ldrb	r3, [r3]	@ zero_extendqisi2
 8139 013a 032B     		cmp	r3, #3
 8140 013c 06D1     		bne	.L538
 8141              		.loc 1 3295 0 is_stmt 0 discriminator 1
 8142 013e 069B     		ldr	r3, [sp, #24]
 8143 0140 5A6A     		ldr	r2, [r3, #36]
 8144 0142 139B     		ldr	r3, [sp, #76]
 8145 0144 9A42     		cmp	r2, r3
 8146 0146 01D1     		bne	.L538
 8147              		.loc 1 3296 0 is_stmt 1
 8148 0148 0023     		movs	r3, #0
 8149 014a 1393     		str	r3, [sp, #76]
 8150              	.L538:
 8151              		.loc 1 3297 0
 8152 014c 0F9B     		ldr	r3, [sp, #60]
 8153 014e 3A33     		adds	r3, r3, #58
 8154 0150 139A     		ldr	r2, [sp, #76]
 8155 0152 92B2     		uxth	r2, r2
 8156 0154 1A80     		strh	r2, [r3]	@ movhi
 8157 0156 0F9B     		ldr	r3, [sp, #60]
 8158 0158 3433     		adds	r3, r3, #52
ARM GAS  /tmp/ccIWRJEN.s 			page 145


 8159 015a 139A     		ldr	r2, [sp, #76]
 8160 015c 120C     		lsrs	r2, r2, #16
 8161 015e 92B2     		uxth	r2, r2
 8162 0160 1A80     		strh	r2, [r3]	@ movhi
 8163              		.loc 1 3298 0
 8164 0162 069B     		ldr	r3, [sp, #24]
 8165 0164 9B78     		ldrb	r3, [r3, #2]
 8166 0166 8DF85630 		strb	r3, [sp, #86]
 8167 016a 1FE0     		b	.L539
 8168              	.L541:
 8169              		.loc 1 3299 0
 8170 016c 069A     		ldr	r2, [sp, #24]
 8171 016e 149B     		ldr	r3, [sp, #80]
 8172 0170 591C     		adds	r1, r3, #1
 8173 0172 1491     		str	r1, [sp, #80]
 8174 0174 D362     		str	r3, [r2, #44]
 8175              		.loc 1 3300 0
 8176 0176 069B     		ldr	r3, [sp, #24]
 8177 0178 0122     		movs	r2, #1
 8178 017a 1A71     		strb	r2, [r3, #4]
 8179              		.loc 1 3301 0
 8180 017c 069B     		ldr	r3, [sp, #24]
 8181 017e 1846     		mov	r0, r3
 8182 0180 0021     		movs	r1, #0
 8183 0182 FFF7FEFF 		bl	move_window
 8184 0186 0346     		mov	r3, r0
 8185 0188 8DF85730 		strb	r3, [sp, #87]
 8186              		.loc 1 3302 0
 8187 018c 9DF85730 		ldrb	r3, [sp, #87]	@ zero_extendqisi2
 8188 0190 002B     		cmp	r3, #0
 8189 0192 00D0     		beq	.L540
 8190              		.loc 1 3302 0 is_stmt 0 discriminator 1
 8191 0194 0EE0     		b	.L537
 8192              	.L540:
 8193              		.loc 1 3303 0 is_stmt 1
 8194 0196 0F98     		ldr	r0, [sp, #60]
 8195 0198 0021     		movs	r1, #0
 8196 019a 4FF40072 		mov	r2, #512
 8197 019e FFF7FEFF 		bl	mem_set
 8198              		.loc 1 3298 0
 8199 01a2 9DF85630 		ldrb	r3, [sp, #86]	@ zero_extendqisi2
 8200 01a6 013B     		subs	r3, r3, #1
 8201 01a8 8DF85630 		strb	r3, [sp, #86]
 8202              	.L539:
 8203              		.loc 1 3298 0 is_stmt 0 discriminator 1
 8204 01ac 9DF85630 		ldrb	r3, [sp, #86]	@ zero_extendqisi2
 8205 01b0 002B     		cmp	r3, #0
 8206 01b2 DBD1     		bne	.L541
 8207              	.L537:
 8208              		.loc 1 3306 0 is_stmt 1
 8209 01b4 9DF85730 		ldrb	r3, [sp, #87]	@ zero_extendqisi2
 8210 01b8 002B     		cmp	r3, #0
 8211 01ba 06D1     		bne	.L542
 8212              		.loc 1 3306 0 is_stmt 0 discriminator 1
 8213 01bc 06AB     		add	r3, sp, #24
 8214 01be 1846     		mov	r0, r3
 8215 01c0 FFF7FEFF 		bl	dir_register
ARM GAS  /tmp/ccIWRJEN.s 			page 146


 8216 01c4 0346     		mov	r3, r0
 8217 01c6 8DF85730 		strb	r3, [sp, #87]
 8218              	.L542:
 8219              		.loc 1 3307 0 is_stmt 1
 8220 01ca 9DF85730 		ldrb	r3, [sp, #87]	@ zero_extendqisi2
 8221 01ce 002B     		cmp	r3, #0
 8222 01d0 05D0     		beq	.L543
 8223              		.loc 1 3308 0
 8224 01d2 069B     		ldr	r3, [sp, #24]
 8225 01d4 1846     		mov	r0, r3
 8226 01d6 1099     		ldr	r1, [sp, #64]
 8227 01d8 FFF7FEFF 		bl	remove_chain
 8228 01dc 1EE0     		b	.L532
 8229              	.L543:
 8230              		.loc 1 3310 0
 8231 01de 0B9B     		ldr	r3, [sp, #44]
 8232 01e0 0F93     		str	r3, [sp, #60]
 8233              		.loc 1 3311 0
 8234 01e2 0F9B     		ldr	r3, [sp, #60]
 8235 01e4 0B33     		adds	r3, r3, #11
 8236 01e6 1022     		movs	r2, #16
 8237 01e8 1A70     		strb	r2, [r3]
 8238              		.loc 1 3312 0
 8239 01ea 0F9B     		ldr	r3, [sp, #60]
 8240 01ec 1633     		adds	r3, r3, #22
 8241 01ee 129A     		ldr	r2, [sp, #72]
 8242 01f0 1A60     		str	r2, [r3]
 8243              		.loc 1 3313 0
 8244 01f2 0F9B     		ldr	r3, [sp, #60]
 8245 01f4 1A33     		adds	r3, r3, #26
 8246 01f6 109A     		ldr	r2, [sp, #64]
 8247 01f8 92B2     		uxth	r2, r2
 8248 01fa 1A80     		strh	r2, [r3]	@ movhi
 8249 01fc 0F9B     		ldr	r3, [sp, #60]
 8250 01fe 1433     		adds	r3, r3, #20
 8251 0200 109A     		ldr	r2, [sp, #64]
 8252 0202 120C     		lsrs	r2, r2, #16
 8253 0204 92B2     		uxth	r2, r2
 8254 0206 1A80     		strh	r2, [r3]	@ movhi
 8255              		.loc 1 3314 0
 8256 0208 069B     		ldr	r3, [sp, #24]
 8257 020a 0122     		movs	r2, #1
 8258 020c 1A71     		strb	r2, [r3, #4]
 8259              		.loc 1 3315 0
 8260 020e 069B     		ldr	r3, [sp, #24]
 8261 0210 1846     		mov	r0, r3
 8262 0212 FFF7FEFF 		bl	sync
 8263 0216 0346     		mov	r3, r0
 8264 0218 8DF85730 		strb	r3, [sp, #87]
 8265              	.L532:
 8266              		.loc 1 3318 0
 8267 021c 1198     		ldr	r0, [sp, #68]
 8268 021e FFF7FEFF 		bl	ff_memfree
 8269              	.L528:
 8270              		.loc 1 3321 0
 8271 0222 9DF85730 		ldrb	r3, [sp, #87]	@ zero_extendqisi2
 8272              	.L544:
ARM GAS  /tmp/ccIWRJEN.s 			page 147


 8273              		.loc 1 3322 0
 8274 0226 1846     		mov	r0, r3
 8275 0228 17B0     		add	sp, sp, #92
 8276              		@ sp needed
 8277 022a 5DF804FB 		ldr	pc, [sp], #4
 8278              		.cfi_endproc
 8279              	.LFE48:
 8280              		.size	f_mkdir, .-f_mkdir
 8281 022e 00BF     		.section	.text.f_chmod,"ax",%progbits
 8282              		.align	2
 8283              		.p2align 4,,15
 8284              		.global	f_chmod
 8285              		.thumb
 8286              		.thumb_func
 8287              		.type	f_chmod, %function
 8288              	f_chmod:
 8289              	.LFB49:
 8290              		.loc 1 3336 0
 8291              		.cfi_startproc
 8292              		@ args = 0, pretend = 0, frame = 72
 8293              		@ frame_needed = 0, uses_anonymous_args = 0
 8294 0000 00B5     		push	{lr}
 8295              		.cfi_def_cfa_offset 4
 8296              		.cfi_offset 14, -4
 8297 0002 93B0     		sub	sp, sp, #76
 8298              		.cfi_def_cfa_offset 80
 8299 0004 0190     		str	r0, [sp, #4]
 8300 0006 1346     		mov	r3, r2
 8301 0008 0A46     		mov	r2, r1
 8302 000a 8DF80320 		strb	r2, [sp, #3]
 8303 000e 8DF80230 		strb	r3, [sp, #2]
 8304              		.loc 1 3343 0
 8305 0012 01AA     		add	r2, sp, #4
 8306 0014 06AB     		add	r3, sp, #24
 8307 0016 1046     		mov	r0, r2
 8308 0018 1946     		mov	r1, r3
 8309 001a 0122     		movs	r2, #1
 8310 001c FFF7FEFF 		bl	chk_mounted
 8311 0020 0346     		mov	r3, r0
 8312 0022 8DF84730 		strb	r3, [sp, #71]
 8313              		.loc 1 3344 0
 8314 0026 9DF84730 		ldrb	r3, [sp, #71]	@ zero_extendqisi2
 8315 002a 002B     		cmp	r3, #0
 8316 002c 4AD1     		bne	.L547
 8317              		.loc 1 3345 0
 8318 002e 4FF40070 		mov	r0, #512
 8319 0032 FFF7FEFF 		bl	ff_memalloc
 8320 0036 1090     		str	r0, [sp, #64]
 8321 0038 109B     		ldr	r3, [sp, #64]
 8322 003a 002B     		cmp	r3, #0
 8323 003c 01D1     		bne	.L548
 8324              		.loc 1 3345 0 is_stmt 0 discriminator 1
 8325 003e 1123     		movs	r3, #17
 8326 0040 42E0     		b	.L551
 8327              	.L548:
 8328              		.loc 1 3345 0 discriminator 2
 8329 0042 109B     		ldr	r3, [sp, #64]
ARM GAS  /tmp/ccIWRJEN.s 			page 148


 8330 0044 0D93     		str	r3, [sp, #52]
 8331 0046 03AB     		add	r3, sp, #12
 8332 0048 0C93     		str	r3, [sp, #48]
 8333              		.loc 1 3346 0 is_stmt 1 discriminator 2
 8334 004a 019B     		ldr	r3, [sp, #4]
 8335 004c 06AA     		add	r2, sp, #24
 8336 004e 1046     		mov	r0, r2
 8337 0050 1946     		mov	r1, r3
 8338 0052 FFF7FEFF 		bl	follow_path
 8339 0056 0346     		mov	r3, r0
 8340 0058 8DF84730 		strb	r3, [sp, #71]
 8341              		.loc 1 3347 0 discriminator 2
 8342 005c 1098     		ldr	r0, [sp, #64]
 8343 005e FFF7FEFF 		bl	ff_memfree
 8344              		.loc 1 3350 0 discriminator 2
 8345 0062 9DF84730 		ldrb	r3, [sp, #71]	@ zero_extendqisi2
 8346 0066 002B     		cmp	r3, #0
 8347 0068 2CD1     		bne	.L547
 8348              		.loc 1 3351 0
 8349 006a 0B9B     		ldr	r3, [sp, #44]
 8350 006c 0F93     		str	r3, [sp, #60]
 8351              		.loc 1 3352 0
 8352 006e 0F9B     		ldr	r3, [sp, #60]
 8353 0070 002B     		cmp	r3, #0
 8354 0072 03D1     		bne	.L550
 8355              		.loc 1 3353 0
 8356 0074 0623     		movs	r3, #6
 8357 0076 8DF84730 		strb	r3, [sp, #71]
 8358 007a 23E0     		b	.L547
 8359              	.L550:
 8360              		.loc 1 3355 0
 8361 007c 9DF80230 		ldrb	r3, [sp, #2]
 8362 0080 03F02703 		and	r3, r3, #39
 8363 0084 8DF80230 		strb	r3, [sp, #2]
 8364              		.loc 1 3356 0
 8365 0088 0F9B     		ldr	r3, [sp, #60]
 8366 008a 0B33     		adds	r3, r3, #11
 8367 008c 9DF80310 		ldrb	r1, [sp, #3]
 8368 0090 9DF80220 		ldrb	r2, [sp, #2]
 8369 0094 0A40     		ands	r2, r2, r1
 8370 0096 D1B2     		uxtb	r1, r2
 8371 0098 0F9A     		ldr	r2, [sp, #60]
 8372 009a 0B32     		adds	r2, r2, #11
 8373 009c 1078     		ldrb	r0, [r2]	@ zero_extendqisi2
 8374 009e 9DF80220 		ldrb	r2, [sp, #2]
 8375 00a2 D243     		mvns	r2, r2
 8376 00a4 D2B2     		uxtb	r2, r2
 8377 00a6 0240     		ands	r2, r2, r0
 8378 00a8 D2B2     		uxtb	r2, r2
 8379 00aa 0A43     		orrs	r2, r2, r1
 8380 00ac D2B2     		uxtb	r2, r2
 8381 00ae 1A70     		strb	r2, [r3]
 8382              		.loc 1 3357 0
 8383 00b0 069B     		ldr	r3, [sp, #24]
 8384 00b2 0122     		movs	r2, #1
 8385 00b4 1A71     		strb	r2, [r3, #4]
 8386              		.loc 1 3358 0
ARM GAS  /tmp/ccIWRJEN.s 			page 149


 8387 00b6 069B     		ldr	r3, [sp, #24]
 8388 00b8 1846     		mov	r0, r3
 8389 00ba FFF7FEFF 		bl	sync
 8390 00be 0346     		mov	r3, r0
 8391 00c0 8DF84730 		strb	r3, [sp, #71]
 8392              	.L547:
 8393              		.loc 1 3363 0
 8394 00c4 9DF84730 		ldrb	r3, [sp, #71]	@ zero_extendqisi2
 8395              	.L551:
 8396              		.loc 1 3364 0
 8397 00c8 1846     		mov	r0, r3
 8398 00ca 13B0     		add	sp, sp, #76
 8399              		@ sp needed
 8400 00cc 5DF804FB 		ldr	pc, [sp], #4
 8401              		.cfi_endproc
 8402              	.LFE49:
 8403              		.size	f_chmod, .-f_chmod
 8404              		.section	.text.f_utime,"ax",%progbits
 8405              		.align	2
 8406              		.p2align 4,,15
 8407              		.global	f_utime
 8408              		.thumb
 8409              		.thumb_func
 8410              		.type	f_utime, %function
 8411              	f_utime:
 8412              	.LFB50:
 8413              		.loc 1 3377 0
 8414              		.cfi_startproc
 8415              		@ args = 0, pretend = 0, frame = 72
 8416              		@ frame_needed = 0, uses_anonymous_args = 0
 8417 0000 00B5     		push	{lr}
 8418              		.cfi_def_cfa_offset 4
 8419              		.cfi_offset 14, -4
 8420 0002 93B0     		sub	sp, sp, #76
 8421              		.cfi_def_cfa_offset 80
 8422 0004 0190     		str	r0, [sp, #4]
 8423 0006 0091     		str	r1, [sp]
 8424              		.loc 1 3384 0
 8425 0008 01AA     		add	r2, sp, #4
 8426 000a 06AB     		add	r3, sp, #24
 8427 000c 1046     		mov	r0, r2
 8428 000e 1946     		mov	r1, r3
 8429 0010 0122     		movs	r2, #1
 8430 0012 FFF7FEFF 		bl	chk_mounted
 8431 0016 0346     		mov	r3, r0
 8432 0018 8DF84730 		strb	r3, [sp, #71]
 8433              		.loc 1 3385 0
 8434 001c 9DF84730 		ldrb	r3, [sp, #71]	@ zero_extendqisi2
 8435 0020 002B     		cmp	r3, #0
 8436 0022 3AD1     		bne	.L553
 8437              		.loc 1 3386 0
 8438 0024 4FF40070 		mov	r0, #512
 8439 0028 FFF7FEFF 		bl	ff_memalloc
 8440 002c 1090     		str	r0, [sp, #64]
 8441 002e 109B     		ldr	r3, [sp, #64]
 8442 0030 002B     		cmp	r3, #0
 8443 0032 01D1     		bne	.L554
ARM GAS  /tmp/ccIWRJEN.s 			page 150


 8444              		.loc 1 3386 0 is_stmt 0 discriminator 1
 8445 0034 1123     		movs	r3, #17
 8446 0036 32E0     		b	.L557
 8447              	.L554:
 8448              		.loc 1 3386 0 discriminator 2
 8449 0038 109B     		ldr	r3, [sp, #64]
 8450 003a 0D93     		str	r3, [sp, #52]
 8451 003c 03AB     		add	r3, sp, #12
 8452 003e 0C93     		str	r3, [sp, #48]
 8453              		.loc 1 3387 0 is_stmt 1 discriminator 2
 8454 0040 019B     		ldr	r3, [sp, #4]
 8455 0042 06AA     		add	r2, sp, #24
 8456 0044 1046     		mov	r0, r2
 8457 0046 1946     		mov	r1, r3
 8458 0048 FFF7FEFF 		bl	follow_path
 8459 004c 0346     		mov	r3, r0
 8460 004e 8DF84730 		strb	r3, [sp, #71]
 8461              		.loc 1 3388 0 discriminator 2
 8462 0052 1098     		ldr	r0, [sp, #64]
 8463 0054 FFF7FEFF 		bl	ff_memfree
 8464              		.loc 1 3391 0 discriminator 2
 8465 0058 9DF84730 		ldrb	r3, [sp, #71]	@ zero_extendqisi2
 8466 005c 002B     		cmp	r3, #0
 8467 005e 1CD1     		bne	.L553
 8468              		.loc 1 3392 0
 8469 0060 0B9B     		ldr	r3, [sp, #44]
 8470 0062 0F93     		str	r3, [sp, #60]
 8471              		.loc 1 3393 0
 8472 0064 0F9B     		ldr	r3, [sp, #60]
 8473 0066 002B     		cmp	r3, #0
 8474 0068 03D1     		bne	.L556
 8475              		.loc 1 3394 0
 8476 006a 0623     		movs	r3, #6
 8477 006c 8DF84730 		strb	r3, [sp, #71]
 8478 0070 13E0     		b	.L553
 8479              	.L556:
 8480              		.loc 1 3396 0
 8481 0072 0F9B     		ldr	r3, [sp, #60]
 8482 0074 1633     		adds	r3, r3, #22
 8483 0076 009A     		ldr	r2, [sp]
 8484 0078 D288     		ldrh	r2, [r2, #6]
 8485 007a 1A80     		strh	r2, [r3]	@ movhi
 8486              		.loc 1 3397 0
 8487 007c 0F9B     		ldr	r3, [sp, #60]
 8488 007e 1833     		adds	r3, r3, #24
 8489 0080 009A     		ldr	r2, [sp]
 8490 0082 9288     		ldrh	r2, [r2, #4]
 8491 0084 1A80     		strh	r2, [r3]	@ movhi
 8492              		.loc 1 3398 0
 8493 0086 069B     		ldr	r3, [sp, #24]
 8494 0088 0122     		movs	r2, #1
 8495 008a 1A71     		strb	r2, [r3, #4]
 8496              		.loc 1 3399 0
 8497 008c 069B     		ldr	r3, [sp, #24]
 8498 008e 1846     		mov	r0, r3
 8499 0090 FFF7FEFF 		bl	sync
 8500 0094 0346     		mov	r3, r0
ARM GAS  /tmp/ccIWRJEN.s 			page 151


 8501 0096 8DF84730 		strb	r3, [sp, #71]
 8502              	.L553:
 8503              		.loc 1 3404 0
 8504 009a 9DF84730 		ldrb	r3, [sp, #71]	@ zero_extendqisi2
 8505              	.L557:
 8506              		.loc 1 3405 0
 8507 009e 1846     		mov	r0, r3
 8508 00a0 13B0     		add	sp, sp, #76
 8509              		@ sp needed
 8510 00a2 5DF804FB 		ldr	pc, [sp], #4
 8511              		.cfi_endproc
 8512              	.LFE50:
 8513              		.size	f_utime, .-f_utime
 8514 00a6 00BFAFF3 		.section	.text.f_rename,"ax",%progbits
 8514      0080AFF3 
 8514      0080
 8515              		.align	2
 8516              		.p2align 4,,15
 8517              		.global	f_rename
 8518              		.thumb
 8519              		.thumb_func
 8520              		.type	f_rename, %function
 8521              	f_rename:
 8522              	.LFB51:
 8523              		.loc 1 3418 0
 8524              		.cfi_startproc
 8525              		@ args = 0, pretend = 0, frame = 136
 8526              		@ frame_needed = 0, uses_anonymous_args = 0
 8527 0000 00B5     		push	{lr}
 8528              		.cfi_def_cfa_offset 4
 8529              		.cfi_offset 14, -4
 8530 0002 A3B0     		sub	sp, sp, #140
 8531              		.cfi_def_cfa_offset 144
 8532 0004 0190     		str	r0, [sp, #4]
 8533 0006 0091     		str	r1, [sp]
 8534              		.loc 1 3426 0
 8535 0008 01AA     		add	r2, sp, #4
 8536 000a 15AB     		add	r3, sp, #84
 8537 000c 1046     		mov	r0, r2
 8538 000e 1946     		mov	r1, r3
 8539 0010 0122     		movs	r2, #1
 8540 0012 FFF7FEFF 		bl	chk_mounted
 8541 0016 0346     		mov	r3, r0
 8542 0018 8DF88730 		strb	r3, [sp, #135]
 8543              		.loc 1 3427 0
 8544 001c 9DF88730 		ldrb	r3, [sp, #135]	@ zero_extendqisi2
 8545 0020 002B     		cmp	r3, #0
 8546 0022 40F0D280 		bne	.L559
 8547              		.loc 1 3428 0
 8548 0026 159B     		ldr	r3, [sp, #84]
 8549 0028 0C93     		str	r3, [sp, #48]
 8550              		.loc 1 3429 0
 8551 002a 4FF40070 		mov	r0, #512
 8552 002e FFF7FEFF 		bl	ff_memalloc
 8553 0032 2090     		str	r0, [sp, #128]
 8554 0034 209B     		ldr	r3, [sp, #128]
 8555 0036 002B     		cmp	r3, #0
ARM GAS  /tmp/ccIWRJEN.s 			page 152


 8556 0038 01D1     		bne	.L560
 8557              		.loc 1 3429 0 is_stmt 0 discriminator 1
 8558 003a 1123     		movs	r3, #17
 8559 003c C7E0     		b	.L570
 8560              	.L560:
 8561              		.loc 1 3429 0 discriminator 2
 8562 003e 209B     		ldr	r3, [sp, #128]
 8563 0040 1C93     		str	r3, [sp, #112]
 8564 0042 03AB     		add	r3, sp, #12
 8565 0044 1B93     		str	r3, [sp, #108]
 8566              		.loc 1 3430 0 is_stmt 1 discriminator 2
 8567 0046 019B     		ldr	r3, [sp, #4]
 8568 0048 15AA     		add	r2, sp, #84
 8569 004a 1046     		mov	r0, r2
 8570 004c 1946     		mov	r1, r3
 8571 004e FFF7FEFF 		bl	follow_path
 8572 0052 0346     		mov	r3, r0
 8573 0054 8DF88730 		strb	r3, [sp, #135]
 8574              		.loc 1 3436 0 discriminator 2
 8575 0058 9DF88730 		ldrb	r3, [sp, #135]	@ zero_extendqisi2
 8576 005c 002B     		cmp	r3, #0
 8577 005e 40F0B180 		bne	.L562
 8578              		.loc 1 3437 0
 8579 0062 1A9B     		ldr	r3, [sp, #104]
 8580 0064 002B     		cmp	r3, #0
 8581 0066 03D1     		bne	.L563
 8582              		.loc 1 3438 0
 8583 0068 0423     		movs	r3, #4
 8584 006a 8DF88730 		strb	r3, [sp, #135]
 8585 006e A9E0     		b	.L562
 8586              	.L563:
 8587              		.loc 1 3440 0
 8588 0070 1A9B     		ldr	r3, [sp, #104]
 8589 0072 0B33     		adds	r3, r3, #11
 8590 0074 06AA     		add	r2, sp, #24
 8591 0076 1046     		mov	r0, r2
 8592 0078 1946     		mov	r1, r3
 8593 007a 1522     		movs	r2, #21
 8594 007c FFF7FEFF 		bl	mem_cpy
 8595              		.loc 1 3441 0
 8596 0080 0CAA     		add	r2, sp, #48
 8597 0082 15AB     		add	r3, sp, #84
 8598 0084 1046     		mov	r0, r2
 8599 0086 1946     		mov	r1, r3
 8600 0088 2422     		movs	r2, #36
 8601 008a FFF7FEFF 		bl	mem_cpy
 8602              		.loc 1 3442 0
 8603 008e 0CAB     		add	r3, sp, #48
 8604 0090 1846     		mov	r0, r3
 8605 0092 0099     		ldr	r1, [sp]
 8606 0094 FFF7FEFF 		bl	follow_path
 8607 0098 0346     		mov	r3, r0
 8608 009a 8DF88730 		strb	r3, [sp, #135]
 8609              		.loc 1 3443 0
 8610 009e 9DF88730 		ldrb	r3, [sp, #135]	@ zero_extendqisi2
 8611 00a2 002B     		cmp	r3, #0
 8612 00a4 02D1     		bne	.L564
ARM GAS  /tmp/ccIWRJEN.s 			page 153


 8613              		.loc 1 3443 0 is_stmt 0 discriminator 1
 8614 00a6 0823     		movs	r3, #8
 8615 00a8 8DF88730 		strb	r3, [sp, #135]
 8616              	.L564:
 8617              		.loc 1 3444 0 is_stmt 1
 8618 00ac 9DF88730 		ldrb	r3, [sp, #135]	@ zero_extendqisi2
 8619 00b0 042B     		cmp	r3, #4
 8620 00b2 40F08780 		bne	.L562
 8621              		.loc 1 3446 0
 8622 00b6 0CAB     		add	r3, sp, #48
 8623 00b8 1846     		mov	r0, r3
 8624 00ba FFF7FEFF 		bl	dir_register
 8625 00be 0346     		mov	r3, r0
 8626 00c0 8DF88730 		strb	r3, [sp, #135]
 8627              		.loc 1 3447 0
 8628 00c4 9DF88730 		ldrb	r3, [sp, #135]	@ zero_extendqisi2
 8629 00c8 002B     		cmp	r3, #0
 8630 00ca 7BD1     		bne	.L562
 8631              		.loc 1 3448 0
 8632 00cc 119B     		ldr	r3, [sp, #68]
 8633 00ce 1F93     		str	r3, [sp, #124]
 8634              		.loc 1 3449 0
 8635 00d0 1F9B     		ldr	r3, [sp, #124]
 8636 00d2 03F10D02 		add	r2, r3, #13
 8637 00d6 06AB     		add	r3, sp, #24
 8638 00d8 0233     		adds	r3, r3, #2
 8639 00da 1046     		mov	r0, r2
 8640 00dc 1946     		mov	r1, r3
 8641 00de 1322     		movs	r2, #19
 8642 00e0 FFF7FEFF 		bl	mem_cpy
 8643              		.loc 1 3450 0
 8644 00e4 1F9B     		ldr	r3, [sp, #124]
 8645 00e6 0B33     		adds	r3, r3, #11
 8646 00e8 9DF81820 		ldrb	r2, [sp, #24]	@ zero_extendqisi2
 8647 00ec 42F02002 		orr	r2, r2, #32
 8648 00f0 D2B2     		uxtb	r2, r2
 8649 00f2 1A70     		strb	r2, [r3]
 8650              		.loc 1 3451 0
 8651 00f4 159B     		ldr	r3, [sp, #84]
 8652 00f6 0122     		movs	r2, #1
 8653 00f8 1A71     		strb	r2, [r3, #4]
 8654              		.loc 1 3452 0
 8655 00fa 179A     		ldr	r2, [sp, #92]
 8656 00fc 0E9B     		ldr	r3, [sp, #56]
 8657 00fe 9A42     		cmp	r2, r3
 8658 0100 4AD0     		beq	.L565
 8659              		.loc 1 3452 0 is_stmt 0 discriminator 1
 8660 0102 1F9B     		ldr	r3, [sp, #124]
 8661 0104 0B33     		adds	r3, r3, #11
 8662 0106 1B78     		ldrb	r3, [r3]	@ zero_extendqisi2
 8663 0108 03F01003 		and	r3, r3, #16
 8664 010c 002B     		cmp	r3, #0
 8665 010e 43D0     		beq	.L565
 8666              		.loc 1 3453 0 is_stmt 1
 8667 0110 0C9A     		ldr	r2, [sp, #48]
 8668 0112 1F9B     		ldr	r3, [sp, #124]
 8669 0114 1433     		adds	r3, r3, #20
ARM GAS  /tmp/ccIWRJEN.s 			page 154


 8670 0116 1B88     		ldrh	r3, [r3]
 8671 0118 1904     		lsls	r1, r3, #16
 8672 011a 1F9B     		ldr	r3, [sp, #124]
 8673 011c 1A33     		adds	r3, r3, #26
 8674 011e 1B88     		ldrh	r3, [r3]
 8675 0120 0B43     		orrs	r3, r3, r1
 8676 0122 1046     		mov	r0, r2
 8677 0124 1946     		mov	r1, r3
 8678 0126 FFF7FEFF 		bl	clust2sect
 8679 012a 1E90     		str	r0, [sp, #120]
 8680              		.loc 1 3454 0
 8681 012c 1E9B     		ldr	r3, [sp, #120]
 8682 012e 002B     		cmp	r3, #0
 8683 0130 03D1     		bne	.L566
 8684              		.loc 1 3455 0
 8685 0132 0223     		movs	r3, #2
 8686 0134 8DF88730 		strb	r3, [sp, #135]
 8687 0138 2EE0     		b	.L565
 8688              	.L566:
 8689              		.loc 1 3457 0
 8690 013a 0C9B     		ldr	r3, [sp, #48]
 8691 013c 1846     		mov	r0, r3
 8692 013e 1E99     		ldr	r1, [sp, #120]
 8693 0140 FFF7FEFF 		bl	move_window
 8694 0144 0346     		mov	r3, r0
 8695 0146 8DF88730 		strb	r3, [sp, #135]
 8696              		.loc 1 3458 0
 8697 014a 0C9B     		ldr	r3, [sp, #48]
 8698 014c 5033     		adds	r3, r3, #80
 8699 014e 1F93     		str	r3, [sp, #124]
 8700              		.loc 1 3459 0
 8701 0150 9DF88730 		ldrb	r3, [sp, #135]	@ zero_extendqisi2
 8702 0154 002B     		cmp	r3, #0
 8703 0156 1FD1     		bne	.L565
 8704              		.loc 1 3459 0 is_stmt 0 discriminator 1
 8705 0158 1F9B     		ldr	r3, [sp, #124]
 8706 015a 0133     		adds	r3, r3, #1
 8707 015c 1B78     		ldrb	r3, [r3]	@ zero_extendqisi2
 8708 015e 2E2B     		cmp	r3, #46
 8709 0160 1AD1     		bne	.L565
 8710              		.loc 1 3460 0 is_stmt 1
 8711 0162 0C9B     		ldr	r3, [sp, #48]
 8712 0164 1B78     		ldrb	r3, [r3]	@ zero_extendqisi2
 8713 0166 032B     		cmp	r3, #3
 8714 0168 04D1     		bne	.L567
 8715              		.loc 1 3460 0 is_stmt 0 discriminator 2
 8716 016a 0E9A     		ldr	r2, [sp, #56]
 8717 016c 0C9B     		ldr	r3, [sp, #48]
 8718 016e 5B6A     		ldr	r3, [r3, #36]
 8719 0170 9A42     		cmp	r2, r3
 8720 0172 01D0     		beq	.L568
 8721              	.L567:
 8722              		.loc 1 3460 0 discriminator 1
 8723 0174 0E9B     		ldr	r3, [sp, #56]
 8724 0176 00E0     		b	.L569
 8725              	.L568:
 8726 0178 0023     		movs	r3, #0
ARM GAS  /tmp/ccIWRJEN.s 			page 155


 8727              	.L569:
 8728              		.loc 1 3460 0 discriminator 3
 8729 017a 1E93     		str	r3, [sp, #120]
 8730              		.loc 1 3461 0 is_stmt 1 discriminator 3
 8731 017c 1F9B     		ldr	r3, [sp, #124]
 8732 017e 1A33     		adds	r3, r3, #26
 8733 0180 1E9A     		ldr	r2, [sp, #120]
 8734 0182 92B2     		uxth	r2, r2
 8735 0184 1A80     		strh	r2, [r3]	@ movhi
 8736 0186 1F9B     		ldr	r3, [sp, #124]
 8737 0188 1433     		adds	r3, r3, #20
 8738 018a 1E9A     		ldr	r2, [sp, #120]
 8739 018c 120C     		lsrs	r2, r2, #16
 8740 018e 92B2     		uxth	r2, r2
 8741 0190 1A80     		strh	r2, [r3]	@ movhi
 8742              		.loc 1 3462 0 discriminator 3
 8743 0192 0C9B     		ldr	r3, [sp, #48]
 8744 0194 0122     		movs	r2, #1
 8745 0196 1A71     		strb	r2, [r3, #4]
 8746              	.L565:
 8747              		.loc 1 3466 0
 8748 0198 9DF88730 		ldrb	r3, [sp, #135]	@ zero_extendqisi2
 8749 019c 002B     		cmp	r3, #0
 8750 019e 11D1     		bne	.L562
 8751              		.loc 1 3467 0
 8752 01a0 15AB     		add	r3, sp, #84
 8753 01a2 1846     		mov	r0, r3
 8754 01a4 FFF7FEFF 		bl	dir_remove
 8755 01a8 0346     		mov	r3, r0
 8756 01aa 8DF88730 		strb	r3, [sp, #135]
 8757              		.loc 1 3468 0
 8758 01ae 9DF88730 		ldrb	r3, [sp, #135]	@ zero_extendqisi2
 8759 01b2 002B     		cmp	r3, #0
 8760 01b4 06D1     		bne	.L562
 8761              		.loc 1 3469 0
 8762 01b6 159B     		ldr	r3, [sp, #84]
 8763 01b8 1846     		mov	r0, r3
 8764 01ba FFF7FEFF 		bl	sync
 8765 01be 0346     		mov	r3, r0
 8766 01c0 8DF88730 		strb	r3, [sp, #135]
 8767              	.L562:
 8768              		.loc 1 3476 0
 8769 01c4 2098     		ldr	r0, [sp, #128]
 8770 01c6 FFF7FEFF 		bl	ff_memfree
 8771              	.L559:
 8772              		.loc 1 3478 0
 8773 01ca 9DF88730 		ldrb	r3, [sp, #135]	@ zero_extendqisi2
 8774              	.L570:
 8775              		.loc 1 3479 0
 8776 01ce 1846     		mov	r0, r3
 8777 01d0 23B0     		add	sp, sp, #140
 8778              		@ sp needed
 8779 01d2 5DF804FB 		ldr	pc, [sp], #4
 8780              		.cfi_endproc
 8781              	.LFE51:
 8782              		.size	f_rename, .-f_rename
 8783 01d6 00BFAFF3 		.section	.rodata
ARM GAS  /tmp/ccIWRJEN.s 			page 156


 8783      0080AFF3 
 8783      0080
 8784 0013 00       		.align	2
 8785              	.LC2:
 8786 0014 EBFE904D 		.ascii	"\353\376\220MSDOS5.0\000"
 8786      53444F53 
 8786      352E3000 
 8787              		.align	2
 8788              	.LC3:
 8789 0020 4E4F204E 		.ascii	"NO NAME    FAT32   \000"
 8789      414D4520 
 8789      20202046 
 8789      41543332 
 8789      20202000 
 8790              		.align	2
 8791              	.LC4:
 8792 0034 4E4F204E 		.ascii	"NO NAME    FAT     \000"
 8792      414D4520 
 8792      20202046 
 8792      41542020 
 8792      20202000 
 8793              		.section	.text.f_mkfs,"ax",%progbits
 8794              		.align	2
 8795              		.p2align 4,,15
 8796              		.global	f_mkfs
 8797              		.thumb
 8798              		.thumb_func
 8799              		.type	f_mkfs, %function
 8800              	f_mkfs:
 8801              	.LFB52:
 8802              		.loc 1 3561 0
 8803              		.cfi_startproc
 8804              		@ args = 0, pretend = 0, frame = 88
 8805              		@ frame_needed = 0, uses_anonymous_args = 0
 8806 0000 00B5     		push	{lr}
 8807              		.cfi_def_cfa_offset 4
 8808              		.cfi_offset 14, -4
 8809 0002 97B0     		sub	sp, sp, #92
 8810              		.cfi_def_cfa_offset 96
 8811 0004 0B46     		mov	r3, r1
 8812 0006 0092     		str	r2, [sp]
 8813 0008 0246     		mov	r2, r0
 8814 000a 8DF80720 		strb	r2, [sp, #7]
 8815 000e 8DF80630 		strb	r3, [sp, #6]
 8816              		.loc 1 3574 0
 8817 0012 9DF80730 		ldrb	r3, [sp, #7]	@ zero_extendqisi2
 8818 0016 002B     		cmp	r3, #0
 8819 0018 01D0     		beq	.L572
 8820              		.loc 1 3574 0 is_stmt 0 discriminator 1
 8821 001a 0B23     		movs	r3, #11
 8822 001c 54E3     		b	.L636
 8823              	.L572:
 8824              		.loc 1 3575 0 is_stmt 1
 8825 001e 9DF80630 		ldrb	r3, [sp, #6]	@ zero_extendqisi2
 8826 0022 012B     		cmp	r3, #1
 8827 0024 01D9     		bls	.L574
 8828              		.loc 1 3575 0 is_stmt 0 discriminator 1
ARM GAS  /tmp/ccIWRJEN.s 			page 157


 8829 0026 1323     		movs	r3, #19
 8830 0028 4EE3     		b	.L636
 8831              	.L574:
 8832              		.loc 1 3576 0 is_stmt 1
 8833 002a 009B     		ldr	r3, [sp]
 8834 002c 5A1E     		subs	r2, r3, #1
 8835 002e 009B     		ldr	r3, [sp]
 8836 0030 1340     		ands	r3, r3, r2
 8837 0032 002B     		cmp	r3, #0
 8838 0034 01D0     		beq	.L575
 8839              		.loc 1 3576 0 is_stmt 0 discriminator 1
 8840 0036 1323     		movs	r3, #19
 8841 0038 46E3     		b	.L636
 8842              	.L575:
 8843              		.loc 1 3577 0 is_stmt 1
 8844 003a 9DF80720 		ldrb	r2, [sp, #7]	@ zero_extendqisi2
 8845 003e 40F20003 		movw	r3, #:lower16:FatFs
 8846 0042 C0F20003 		movt	r3, #:upper16:FatFs
 8847 0046 53F82230 		ldr	r3, [r3, r2, lsl #2]
 8848 004a 0E93     		str	r3, [sp, #56]
 8849              		.loc 1 3578 0
 8850 004c 0E9B     		ldr	r3, [sp, #56]
 8851 004e 002B     		cmp	r3, #0
 8852 0050 01D1     		bne	.L576
 8853              		.loc 1 3578 0 is_stmt 0 discriminator 1
 8854 0052 0C23     		movs	r3, #12
 8855 0054 38E3     		b	.L636
 8856              	.L576:
 8857              		.loc 1 3579 0 is_stmt 1
 8858 0056 0E9B     		ldr	r3, [sp, #56]
 8859 0058 0022     		movs	r2, #0
 8860 005a 1A70     		strb	r2, [r3]
 8861              		.loc 1 3580 0
 8862 005c 9DF80730 		ldrb	r3, [sp, #7]
 8863 0060 8DF83730 		strb	r3, [sp, #55]
 8864              		.loc 1 3581 0
 8865 0064 0023     		movs	r3, #0
 8866 0066 8DF83630 		strb	r3, [sp, #54]
 8867              		.loc 1 3584 0
 8868 006a 9DF83730 		ldrb	r3, [sp, #55]	@ zero_extendqisi2
 8869 006e 1846     		mov	r0, r3
 8870 0070 FFF7FEFF 		bl	disk_initialize
 8871 0074 0346     		mov	r3, r0
 8872 0076 8DF83530 		strb	r3, [sp, #53]
 8873              		.loc 1 3585 0
 8874 007a 9DF83530 		ldrb	r3, [sp, #53]	@ zero_extendqisi2
 8875 007e 03F00103 		and	r3, r3, #1
 8876 0082 002B     		cmp	r3, #0
 8877 0084 01D0     		beq	.L577
 8878              		.loc 1 3585 0 is_stmt 0 discriminator 1
 8879 0086 0323     		movs	r3, #3
 8880 0088 1EE3     		b	.L636
 8881              	.L577:
 8882              		.loc 1 3586 0 is_stmt 1
 8883 008a 9DF83530 		ldrb	r3, [sp, #53]	@ zero_extendqisi2
 8884 008e 03F00403 		and	r3, r3, #4
 8885 0092 002B     		cmp	r3, #0
ARM GAS  /tmp/ccIWRJEN.s 			page 158


 8886 0094 01D0     		beq	.L578
 8887              		.loc 1 3586 0 is_stmt 0 discriminator 1
 8888 0096 0A23     		movs	r3, #10
 8889 0098 16E3     		b	.L636
 8890              	.L578:
 8891              		.loc 1 3601 0 is_stmt 1
 8892 009a 9DF83720 		ldrb	r2, [sp, #55]	@ zero_extendqisi2
 8893 009e 05AB     		add	r3, sp, #20
 8894 00a0 1046     		mov	r0, r2
 8895 00a2 0121     		movs	r1, #1
 8896 00a4 1A46     		mov	r2, r3
 8897 00a6 FFF7FEFF 		bl	disk_ioctl
 8898 00aa 0346     		mov	r3, r0
 8899 00ac 002B     		cmp	r3, #0
 8900 00ae 02D1     		bne	.L579
 8901              		.loc 1 3601 0 is_stmt 0 discriminator 1
 8902 00b0 059B     		ldr	r3, [sp, #20]
 8903 00b2 7F2B     		cmp	r3, #127
 8904 00b4 01D8     		bhi	.L580
 8905              	.L579:
 8906              		.loc 1 3602 0 is_stmt 1
 8907 00b6 0123     		movs	r3, #1
 8908 00b8 06E3     		b	.L636
 8909              	.L580:
 8910              		.loc 1 3603 0
 8911 00ba 9DF80630 		ldrb	r3, [sp, #6]	@ zero_extendqisi2
 8912 00be 002B     		cmp	r3, #0
 8913 00c0 01D0     		beq	.L581
 8914              		.loc 1 3603 0 is_stmt 0 discriminator 1
 8915 00c2 0023     		movs	r3, #0
 8916 00c4 00E0     		b	.L582
 8917              	.L581:
 8918              		.loc 1 3603 0 discriminator 2
 8919 00c6 3F23     		movs	r3, #63
 8920              	.L582:
 8921              		.loc 1 3603 0 discriminator 3
 8922 00c8 0C93     		str	r3, [sp, #48]
 8923              		.loc 1 3604 0 is_stmt 1 discriminator 3
 8924 00ca 059A     		ldr	r2, [sp, #20]
 8925 00cc 0C9B     		ldr	r3, [sp, #48]
 8926 00ce D31A     		subs	r3, r2, r3
 8927 00d0 0593     		str	r3, [sp, #20]
 8928              		.loc 1 3607 0 discriminator 3
 8929 00d2 009B     		ldr	r3, [sp]
 8930 00d4 002B     		cmp	r3, #0
 8931 00d6 21D1     		bne	.L583
 8932              		.loc 1 3608 0
 8933 00d8 059A     		ldr	r2, [sp, #20]
 8934 00da 44F6D353 		movw	r3, #19923
 8935 00de C1F26203 		movt	r3, 4194
 8936 00e2 A3FB0213 		umull	r1, r3, r3, r2
 8937 00e6 DB09     		lsrs	r3, r3, #7
 8938 00e8 0B93     		str	r3, [sp, #44]
 8939              		.loc 1 3609 0
 8940 00ea 0023     		movs	r3, #0
 8941 00ec 1393     		str	r3, [sp, #76]
 8942 00ee 02E0     		b	.L584
ARM GAS  /tmp/ccIWRJEN.s 			page 159


 8943              	.L585:
 8944              		.loc 1 3609 0 is_stmt 0 discriminator 2
 8945 00f0 139B     		ldr	r3, [sp, #76]
 8946 00f2 0133     		adds	r3, r3, #1
 8947 00f4 1393     		str	r3, [sp, #76]
 8948              	.L584:
 8949              		.loc 1 3609 0 discriminator 1
 8950 00f6 40F20003 		movw	r3, #:lower16:vst.5555
 8951 00fa C0F20003 		movt	r3, #:upper16:vst.5555
 8952 00fe 139A     		ldr	r2, [sp, #76]
 8953 0100 33F81230 		ldrh	r3, [r3, r2, lsl #1]
 8954 0104 1A46     		mov	r2, r3
 8955 0106 0B9B     		ldr	r3, [sp, #44]
 8956 0108 9A42     		cmp	r2, r3
 8957 010a F1D8     		bhi	.L585
 8958              		.loc 1 3610 0 is_stmt 1
 8959 010c 40F20003 		movw	r3, #:lower16:cst.5556
 8960 0110 C0F20003 		movt	r3, #:upper16:cst.5556
 8961 0114 139A     		ldr	r2, [sp, #76]
 8962 0116 33F81230 		ldrh	r3, [r3, r2, lsl #1]
 8963 011a 0093     		str	r3, [sp]
 8964              	.L583:
 8965              		.loc 1 3612 0
 8966 011c 009B     		ldr	r3, [sp]
 8967 011e 5B0A     		lsrs	r3, r3, #9
 8968 0120 0093     		str	r3, [sp]
 8969              		.loc 1 3613 0
 8970 0122 009B     		ldr	r3, [sp]
 8971 0124 002B     		cmp	r3, #0
 8972 0126 01D1     		bne	.L586
 8973              		.loc 1 3613 0 is_stmt 0 discriminator 1
 8974 0128 0123     		movs	r3, #1
 8975 012a 0093     		str	r3, [sp]
 8976              	.L586:
 8977              		.loc 1 3614 0 is_stmt 1
 8978 012c 009B     		ldr	r3, [sp]
 8979 012e 802B     		cmp	r3, #128
 8980 0130 01D9     		bls	.L587
 8981              		.loc 1 3614 0 is_stmt 0 discriminator 1
 8982 0132 8023     		movs	r3, #128
 8983 0134 0093     		str	r3, [sp]
 8984              	.L587:
 8985              		.loc 1 3617 0 is_stmt 1
 8986 0136 059A     		ldr	r2, [sp, #20]
 8987 0138 009B     		ldr	r3, [sp]
 8988 013a B2FBF3F3 		udiv	r3, r2, r3
 8989 013e 0A93     		str	r3, [sp, #40]
 8990              		.loc 1 3618 0
 8991 0140 0123     		movs	r3, #1
 8992 0142 8DF85730 		strb	r3, [sp, #87]
 8993              		.loc 1 3619 0
 8994 0146 0A9A     		ldr	r2, [sp, #40]
 8995 0148 40F6F573 		movw	r3, #4085
 8996 014c 9A42     		cmp	r2, r3
 8997 014e 02D9     		bls	.L588
 8998              		.loc 1 3619 0 is_stmt 0 discriminator 1
 8999 0150 0223     		movs	r3, #2
ARM GAS  /tmp/ccIWRJEN.s 			page 160


 9000 0152 8DF85730 		strb	r3, [sp, #87]
 9001              	.L588:
 9002              		.loc 1 3620 0 is_stmt 1
 9003 0156 0A9A     		ldr	r2, [sp, #40]
 9004 0158 4FF6F573 		movw	r3, #65525
 9005 015c 9A42     		cmp	r2, r3
 9006 015e 02D9     		bls	.L589
 9007              		.loc 1 3620 0 is_stmt 0 discriminator 1
 9008 0160 0323     		movs	r3, #3
 9009 0162 8DF85730 		strb	r3, [sp, #87]
 9010              	.L589:
 9011              		.loc 1 3623 0 is_stmt 1
 9012 0166 9DF85730 		ldrb	r3, [sp, #87]	@ zero_extendqisi2
 9013 016a 032B     		cmp	r3, #3
 9014 016c 0AD1     		bne	.L590
 9015              		.loc 1 3624 0
 9016 016e 0A9B     		ldr	r3, [sp, #40]
 9017 0170 8233     		adds	r3, r3, #130
 9018 0172 9B00     		lsls	r3, r3, #2
 9019 0174 013B     		subs	r3, r3, #1
 9020 0176 5B0A     		lsrs	r3, r3, #9
 9021 0178 1093     		str	r3, [sp, #64]
 9022              		.loc 1 3625 0
 9023 017a 2023     		movs	r3, #32
 9024 017c 1193     		str	r3, [sp, #68]
 9025              		.loc 1 3626 0
 9026 017e 0023     		movs	r3, #0
 9027 0180 0F93     		str	r3, [sp, #60]
 9028 0182 18E0     		b	.L591
 9029              	.L590:
 9030              		.loc 1 3628 0
 9031 0184 9DF85730 		ldrb	r3, [sp, #87]	@ zero_extendqisi2
 9032 0188 012B     		cmp	r3, #1
 9033 018a 07D1     		bne	.L592
 9034              		.loc 1 3628 0 is_stmt 0 discriminator 1
 9035 018c 0A9A     		ldr	r2, [sp, #40]
 9036 018e 1346     		mov	r3, r2
 9037 0190 5B00     		lsls	r3, r3, #1
 9038 0192 1344     		add	r3, r3, r2
 9039 0194 0133     		adds	r3, r3, #1
 9040 0196 5B08     		lsrs	r3, r3, #1
 9041 0198 0333     		adds	r3, r3, #3
 9042 019a 02E0     		b	.L593
 9043              	.L592:
 9044              		.loc 1 3628 0 discriminator 2
 9045 019c 0A9B     		ldr	r3, [sp, #40]
 9046 019e 0233     		adds	r3, r3, #2
 9047 01a0 5B00     		lsls	r3, r3, #1
 9048              	.L593:
 9049              		.loc 1 3628 0 discriminator 3
 9050 01a2 1093     		str	r3, [sp, #64]
 9051              		.loc 1 3629 0 is_stmt 1 discriminator 3
 9052 01a4 109B     		ldr	r3, [sp, #64]
 9053 01a6 03F2FF13 		addw	r3, r3, #511
 9054 01aa 5B0A     		lsrs	r3, r3, #9
 9055 01ac 1093     		str	r3, [sp, #64]
 9056              		.loc 1 3630 0 discriminator 3
ARM GAS  /tmp/ccIWRJEN.s 			page 161


 9057 01ae 0123     		movs	r3, #1
 9058 01b0 1193     		str	r3, [sp, #68]
 9059              		.loc 1 3631 0 discriminator 3
 9060 01b2 2023     		movs	r3, #32
 9061 01b4 0F93     		str	r3, [sp, #60]
 9062              	.L591:
 9063              		.loc 1 3633 0
 9064 01b6 0C9A     		ldr	r2, [sp, #48]
 9065 01b8 119B     		ldr	r3, [sp, #68]
 9066 01ba 1344     		add	r3, r3, r2
 9067 01bc 1293     		str	r3, [sp, #72]
 9068              		.loc 1 3634 0
 9069 01be 129A     		ldr	r2, [sp, #72]
 9070 01c0 109B     		ldr	r3, [sp, #64]
 9071 01c2 1344     		add	r3, r3, r2
 9072 01c4 0993     		str	r3, [sp, #36]
 9073              		.loc 1 3635 0
 9074 01c6 099A     		ldr	r2, [sp, #36]
 9075 01c8 0F9B     		ldr	r3, [sp, #60]
 9076 01ca 1344     		add	r3, r3, r2
 9077 01cc 0893     		str	r3, [sp, #32]
 9078              		.loc 1 3636 0
 9079 01ce 089A     		ldr	r2, [sp, #32]
 9080 01d0 009B     		ldr	r3, [sp]
 9081 01d2 1A44     		add	r2, r2, r3
 9082 01d4 0C9B     		ldr	r3, [sp, #48]
 9083 01d6 D21A     		subs	r2, r2, r3
 9084 01d8 059B     		ldr	r3, [sp, #20]
 9085 01da 9A42     		cmp	r2, r3
 9086 01dc 01D9     		bls	.L594
 9087              		.loc 1 3636 0 is_stmt 0 discriminator 1
 9088 01de 0E23     		movs	r3, #14
 9089 01e0 72E2     		b	.L636
 9090              	.L594:
 9091              		.loc 1 3639 0 is_stmt 1
 9092 01e2 9DF83720 		ldrb	r2, [sp, #55]	@ zero_extendqisi2
 9093 01e6 06AB     		add	r3, sp, #24
 9094 01e8 1046     		mov	r0, r2
 9095 01ea 0321     		movs	r1, #3
 9096 01ec 1A46     		mov	r2, r3
 9097 01ee FFF7FEFF 		bl	disk_ioctl
 9098 01f2 0346     		mov	r3, r0
 9099 01f4 002B     		cmp	r3, #0
 9100 01f6 06D1     		bne	.L595
 9101              		.loc 1 3639 0 is_stmt 0 discriminator 2
 9102 01f8 069B     		ldr	r3, [sp, #24]
 9103 01fa 002B     		cmp	r3, #0
 9104 01fc 03D0     		beq	.L595
 9105              		.loc 1 3639 0 discriminator 1
 9106 01fe 069B     		ldr	r3, [sp, #24]
 9107 0200 B3F5004F 		cmp	r3, #32768
 9108 0204 01D9     		bls	.L596
 9109              	.L595:
 9110 0206 0123     		movs	r3, #1
 9111 0208 0693     		str	r3, [sp, #24]
 9112              	.L596:
 9113              		.loc 1 3640 0 is_stmt 1
ARM GAS  /tmp/ccIWRJEN.s 			page 162


 9114 020a 069A     		ldr	r2, [sp, #24]
 9115 020c 089B     		ldr	r3, [sp, #32]
 9116 020e 1344     		add	r3, r3, r2
 9117 0210 5A1E     		subs	r2, r3, #1
 9118 0212 069B     		ldr	r3, [sp, #24]
 9119 0214 5B42     		negs	r3, r3
 9120 0216 1340     		ands	r3, r3, r2
 9121 0218 0693     		str	r3, [sp, #24]
 9122              		.loc 1 3641 0
 9123 021a 069A     		ldr	r2, [sp, #24]
 9124 021c 089B     		ldr	r3, [sp, #32]
 9125 021e D31A     		subs	r3, r2, r3
 9126 0220 0693     		str	r3, [sp, #24]
 9127              		.loc 1 3642 0
 9128 0222 9DF85730 		ldrb	r3, [sp, #87]	@ zero_extendqisi2
 9129 0226 032B     		cmp	r3, #3
 9130 0228 08D1     		bne	.L597
 9131              		.loc 1 3643 0
 9132 022a 069B     		ldr	r3, [sp, #24]
 9133 022c 119A     		ldr	r2, [sp, #68]
 9134 022e 1344     		add	r3, r3, r2
 9135 0230 1193     		str	r3, [sp, #68]
 9136              		.loc 1 3644 0
 9137 0232 069B     		ldr	r3, [sp, #24]
 9138 0234 129A     		ldr	r2, [sp, #72]
 9139 0236 1344     		add	r3, r3, r2
 9140 0238 1293     		str	r3, [sp, #72]
 9141 023a 03E0     		b	.L598
 9142              	.L597:
 9143              		.loc 1 3646 0
 9144 023c 069B     		ldr	r3, [sp, #24]
 9145 023e 109A     		ldr	r2, [sp, #64]
 9146 0240 1344     		add	r3, r3, r2
 9147 0242 1093     		str	r3, [sp, #64]
 9148              	.L598:
 9149              		.loc 1 3650 0
 9150 0244 059A     		ldr	r2, [sp, #20]
 9151 0246 119B     		ldr	r3, [sp, #68]
 9152 0248 D21A     		subs	r2, r2, r3
 9153 024a 109B     		ldr	r3, [sp, #64]
 9154 024c D21A     		subs	r2, r2, r3
 9155 024e 0F9B     		ldr	r3, [sp, #60]
 9156 0250 D21A     		subs	r2, r2, r3
 9157 0252 009B     		ldr	r3, [sp]
 9158 0254 B2FBF3F3 		udiv	r3, r2, r3
 9159 0258 0A93     		str	r3, [sp, #40]
 9160              		.loc 1 3651 0
 9161 025a 9DF85730 		ldrb	r3, [sp, #87]	@ zero_extendqisi2
 9162 025e 022B     		cmp	r3, #2
 9163 0260 04D1     		bne	.L599
 9164              		.loc 1 3651 0 is_stmt 0 discriminator 1
 9165 0262 0A9A     		ldr	r2, [sp, #40]
 9166 0264 40F6F573 		movw	r3, #4085
 9167 0268 9A42     		cmp	r2, r3
 9168 026a 08D9     		bls	.L600
 9169              	.L599:
 9170              		.loc 1 3652 0 is_stmt 1
ARM GAS  /tmp/ccIWRJEN.s 			page 163


 9171 026c 9DF85730 		ldrb	r3, [sp, #87]	@ zero_extendqisi2
 9172 0270 032B     		cmp	r3, #3
 9173 0272 06D1     		bne	.L601
 9174              		.loc 1 3652 0 is_stmt 0 discriminator 1
 9175 0274 0A9A     		ldr	r2, [sp, #40]
 9176 0276 4FF6F573 		movw	r3, #65525
 9177 027a 9A42     		cmp	r2, r3
 9178 027c 01D8     		bhi	.L601
 9179              	.L600:
 9180              		.loc 1 3653 0 is_stmt 1
 9181 027e 0E23     		movs	r3, #14
 9182 0280 22E2     		b	.L636
 9183              	.L601:
 9184              		.loc 1 3655 0
 9185 0282 9DF85730 		ldrb	r3, [sp, #87]	@ zero_extendqisi2
 9186 0286 012B     		cmp	r3, #1
 9187 0288 02D0     		beq	.L603
 9188 028a 022B     		cmp	r3, #2
 9189 028c 04D0     		beq	.L604
 9190 028e 0DE0     		b	.L637
 9191              	.L603:
 9192              		.loc 1 3656 0
 9193 0290 0123     		movs	r3, #1
 9194 0292 8DF85530 		strb	r3, [sp, #85]
 9195 0296 0CE0     		b	.L605
 9196              	.L604:
 9197              		.loc 1 3657 0
 9198 0298 059B     		ldr	r3, [sp, #20]
 9199 029a B3F5803F 		cmp	r3, #65536
 9200 029e 01D2     		bcs	.L606
 9201              		.loc 1 3657 0 is_stmt 0 discriminator 1
 9202 02a0 0423     		movs	r3, #4
 9203 02a2 00E0     		b	.L607
 9204              	.L606:
 9205              		.loc 1 3657 0 discriminator 2
 9206 02a4 0623     		movs	r3, #6
 9207              	.L607:
 9208              		.loc 1 3657 0 discriminator 3
 9209 02a6 8DF85530 		strb	r3, [sp, #85]
 9210 02aa 02E0     		b	.L605
 9211              	.L637:
 9212              		.loc 1 3658 0 is_stmt 1
 9213 02ac 0C23     		movs	r3, #12
 9214 02ae 8DF85530 		strb	r3, [sp, #85]
 9215              	.L605:
 9216              		.loc 1 3668 0
 9217 02b2 9DF80630 		ldrb	r3, [sp, #6]	@ zero_extendqisi2
 9218 02b6 002B     		cmp	r3, #0
 9219 02b8 03D0     		beq	.L608
 9220              		.loc 1 3669 0
 9221 02ba F023     		movs	r3, #240
 9222 02bc 8DF85630 		strb	r3, [sp, #86]
 9223 02c0 5CE0     		b	.L609
 9224              	.L608:
 9225              		.loc 1 3671 0
 9226 02c2 0E9B     		ldr	r3, [sp, #56]
 9227 02c4 3033     		adds	r3, r3, #48
ARM GAS  /tmp/ccIWRJEN.s 			page 164


 9228 02c6 1846     		mov	r0, r3
 9229 02c8 0021     		movs	r1, #0
 9230 02ca 4FF40072 		mov	r2, #512
 9231 02ce FFF7FEFF 		bl	mem_set
 9232              		.loc 1 3672 0
 9233 02d2 0E9B     		ldr	r3, [sp, #56]
 9234 02d4 03F5F773 		add	r3, r3, #494
 9235 02d8 0793     		str	r3, [sp, #28]
 9236              		.loc 1 3673 0
 9237 02da 079B     		ldr	r3, [sp, #28]
 9238 02dc 0133     		adds	r3, r3, #1
 9239 02de 0122     		movs	r2, #1
 9240 02e0 1A70     		strb	r2, [r3]
 9241              		.loc 1 3674 0
 9242 02e2 079B     		ldr	r3, [sp, #28]
 9243 02e4 0233     		adds	r3, r3, #2
 9244 02e6 0122     		movs	r2, #1
 9245 02e8 1A70     		strb	r2, [r3]
 9246              		.loc 1 3675 0
 9247 02ea 079B     		ldr	r3, [sp, #28]
 9248 02ec 0333     		adds	r3, r3, #3
 9249 02ee 0022     		movs	r2, #0
 9250 02f0 1A70     		strb	r2, [r3]
 9251              		.loc 1 3676 0
 9252 02f2 079B     		ldr	r3, [sp, #28]
 9253 02f4 0433     		adds	r3, r3, #4
 9254 02f6 9DF85520 		ldrb	r2, [sp, #85]
 9255 02fa 1A70     		strb	r2, [r3]
 9256              		.loc 1 3677 0
 9257 02fc 079B     		ldr	r3, [sp, #28]
 9258 02fe 0533     		adds	r3, r3, #5
 9259 0300 FE22     		movs	r2, #254
 9260 0302 1A70     		strb	r2, [r3]
 9261              		.loc 1 3678 0
 9262 0304 059A     		ldr	r2, [sp, #20]
 9263 0306 0C9B     		ldr	r3, [sp, #48]
 9264 0308 1A44     		add	r2, r2, r3
 9265 030a 45F25B63 		movw	r3, #22107
 9266 030e C0F21553 		movt	r3, 1301
 9267 0312 A3FB0213 		umull	r1, r3, r3, r2
 9268 0316 D21A     		subs	r2, r2, r3
 9269 0318 5208     		lsrs	r2, r2, #1
 9270 031a 1344     		add	r3, r3, r2
 9271 031c 5B0B     		lsrs	r3, r3, #13
 9272 031e 0693     		str	r3, [sp, #24]
 9273              		.loc 1 3679 0
 9274 0320 079B     		ldr	r3, [sp, #28]
 9275 0322 0633     		adds	r3, r3, #6
 9276 0324 069A     		ldr	r2, [sp, #24]
 9277 0326 9208     		lsrs	r2, r2, #2
 9278 0328 D2B2     		uxtb	r2, r2
 9279 032a 42F03F02 		orr	r2, r2, #63
 9280 032e D2B2     		uxtb	r2, r2
 9281 0330 1A70     		strb	r2, [r3]
 9282              		.loc 1 3680 0
 9283 0332 079B     		ldr	r3, [sp, #28]
 9284 0334 0733     		adds	r3, r3, #7
ARM GAS  /tmp/ccIWRJEN.s 			page 165


 9285 0336 069A     		ldr	r2, [sp, #24]
 9286 0338 D2B2     		uxtb	r2, r2
 9287 033a 1A70     		strb	r2, [r3]
 9288              		.loc 1 3681 0
 9289 033c 079B     		ldr	r3, [sp, #28]
 9290 033e 0833     		adds	r3, r3, #8
 9291 0340 3F22     		movs	r2, #63
 9292 0342 1A60     		str	r2, [r3]
 9293              		.loc 1 3682 0
 9294 0344 079B     		ldr	r3, [sp, #28]
 9295 0346 0C33     		adds	r3, r3, #12
 9296 0348 059A     		ldr	r2, [sp, #20]
 9297 034a 1A60     		str	r2, [r3]
 9298              		.loc 1 3683 0
 9299 034c 0E9B     		ldr	r3, [sp, #56]
 9300 034e 03F22E23 		addw	r3, r3, #558
 9301 0352 4AF65522 		movw	r2, #43605
 9302 0356 1A80     		strh	r2, [r3]	@ movhi
 9303              		.loc 1 3684 0
 9304 0358 0E9B     		ldr	r3, [sp, #56]
 9305 035a 3033     		adds	r3, r3, #48
 9306 035c 9DF83720 		ldrb	r2, [sp, #55]	@ zero_extendqisi2
 9307 0360 1046     		mov	r0, r2
 9308 0362 1946     		mov	r1, r3
 9309 0364 0022     		movs	r2, #0
 9310 0366 0123     		movs	r3, #1
 9311 0368 FFF7FEFF 		bl	disk_write
 9312 036c 0346     		mov	r3, r0
 9313 036e 002B     		cmp	r3, #0
 9314 0370 01D0     		beq	.L610
 9315              		.loc 1 3685 0
 9316 0372 0123     		movs	r3, #1
 9317 0374 A8E1     		b	.L636
 9318              	.L610:
 9319              		.loc 1 3686 0
 9320 0376 F823     		movs	r3, #248
 9321 0378 8DF85630 		strb	r3, [sp, #86]
 9322              	.L609:
 9323              		.loc 1 3691 0
 9324 037c 0E9B     		ldr	r3, [sp, #56]
 9325 037e 3033     		adds	r3, r3, #48
 9326 0380 0793     		str	r3, [sp, #28]
 9327              		.loc 1 3692 0
 9328 0382 0798     		ldr	r0, [sp, #28]
 9329 0384 0021     		movs	r1, #0
 9330 0386 4FF40072 		mov	r2, #512
 9331 038a FFF7FEFF 		bl	mem_set
 9332              		.loc 1 3693 0
 9333 038e 0798     		ldr	r0, [sp, #28]
 9334 0390 40F20001 		movw	r1, #:lower16:.LC2
 9335 0394 C0F20001 		movt	r1, #:upper16:.LC2
 9336 0398 0B22     		movs	r2, #11
 9337 039a FFF7FEFF 		bl	mem_cpy
 9338              		.loc 1 3694 0
 9339 039e 4FF40073 		mov	r3, #512
 9340 03a2 1393     		str	r3, [sp, #76]
 9341              		.loc 1 3695 0
ARM GAS  /tmp/ccIWRJEN.s 			page 166


 9342 03a4 079B     		ldr	r3, [sp, #28]
 9343 03a6 0B33     		adds	r3, r3, #11
 9344 03a8 139A     		ldr	r2, [sp, #76]
 9345 03aa 92B2     		uxth	r2, r2
 9346 03ac 1A80     		strh	r2, [r3]	@ movhi
 9347              		.loc 1 3696 0
 9348 03ae 079B     		ldr	r3, [sp, #28]
 9349 03b0 0D33     		adds	r3, r3, #13
 9350 03b2 009A     		ldr	r2, [sp]
 9351 03b4 D2B2     		uxtb	r2, r2
 9352 03b6 1A70     		strb	r2, [r3]
 9353              		.loc 1 3697 0
 9354 03b8 079B     		ldr	r3, [sp, #28]
 9355 03ba 0E33     		adds	r3, r3, #14
 9356 03bc 119A     		ldr	r2, [sp, #68]
 9357 03be 92B2     		uxth	r2, r2
 9358 03c0 1A80     		strh	r2, [r3]	@ movhi
 9359              		.loc 1 3698 0
 9360 03c2 079B     		ldr	r3, [sp, #28]
 9361 03c4 1033     		adds	r3, r3, #16
 9362 03c6 0122     		movs	r2, #1
 9363 03c8 1A70     		strb	r2, [r3]
 9364              		.loc 1 3699 0
 9365 03ca 9DF85730 		ldrb	r3, [sp, #87]	@ zero_extendqisi2
 9366 03ce 032B     		cmp	r3, #3
 9367 03d0 01D1     		bne	.L611
 9368              		.loc 1 3699 0 is_stmt 0 discriminator 1
 9369 03d2 0023     		movs	r3, #0
 9370 03d4 01E0     		b	.L612
 9371              	.L611:
 9372              		.loc 1 3699 0 discriminator 2
 9373 03d6 4FF40073 		mov	r3, #512
 9374              	.L612:
 9375              		.loc 1 3699 0 discriminator 3
 9376 03da 1393     		str	r3, [sp, #76]
 9377              		.loc 1 3700 0 is_stmt 1 discriminator 3
 9378 03dc 079B     		ldr	r3, [sp, #28]
 9379 03de 1133     		adds	r3, r3, #17
 9380 03e0 139A     		ldr	r2, [sp, #76]
 9381 03e2 92B2     		uxth	r2, r2
 9382 03e4 1A80     		strh	r2, [r3]	@ movhi
 9383              		.loc 1 3701 0 discriminator 3
 9384 03e6 059B     		ldr	r3, [sp, #20]
 9385 03e8 B3F5803F 		cmp	r3, #65536
 9386 03ec 05D2     		bcs	.L613
 9387              		.loc 1 3702 0
 9388 03ee 079B     		ldr	r3, [sp, #28]
 9389 03f0 1333     		adds	r3, r3, #19
 9390 03f2 059A     		ldr	r2, [sp, #20]
 9391 03f4 92B2     		uxth	r2, r2
 9392 03f6 1A80     		strh	r2, [r3]	@ movhi
 9393 03f8 03E0     		b	.L614
 9394              	.L613:
 9395              		.loc 1 3704 0
 9396 03fa 079B     		ldr	r3, [sp, #28]
 9397 03fc 2033     		adds	r3, r3, #32
 9398 03fe 059A     		ldr	r2, [sp, #20]
ARM GAS  /tmp/ccIWRJEN.s 			page 167


 9399 0400 1A60     		str	r2, [r3]
 9400              	.L614:
 9401              		.loc 1 3706 0
 9402 0402 079B     		ldr	r3, [sp, #28]
 9403 0404 1533     		adds	r3, r3, #21
 9404 0406 9DF85620 		ldrb	r2, [sp, #86]
 9405 040a 1A70     		strb	r2, [r3]
 9406              		.loc 1 3707 0
 9407 040c 079B     		ldr	r3, [sp, #28]
 9408 040e 1833     		adds	r3, r3, #24
 9409 0410 3F22     		movs	r2, #63
 9410 0412 1A80     		strh	r2, [r3]	@ movhi
 9411              		.loc 1 3708 0
 9412 0414 079B     		ldr	r3, [sp, #28]
 9413 0416 1A33     		adds	r3, r3, #26
 9414 0418 FF22     		movs	r2, #255
 9415 041a 1A80     		strh	r2, [r3]	@ movhi
 9416              		.loc 1 3709 0
 9417 041c 079B     		ldr	r3, [sp, #28]
 9418 041e 1C33     		adds	r3, r3, #28
 9419 0420 0C9A     		ldr	r2, [sp, #48]
 9420 0422 1A60     		str	r2, [r3]
 9421              		.loc 1 3710 0
 9422 0424 FFF7FEFF 		bl	get_fattime
 9423 0428 0346     		mov	r3, r0
 9424 042a 0693     		str	r3, [sp, #24]
 9425              		.loc 1 3711 0
 9426 042c 9DF85730 		ldrb	r3, [sp, #87]	@ zero_extendqisi2
 9427 0430 032B     		cmp	r3, #3
 9428 0432 26D1     		bne	.L615
 9429              		.loc 1 3712 0
 9430 0434 079B     		ldr	r3, [sp, #28]
 9431 0436 4333     		adds	r3, r3, #67
 9432 0438 069A     		ldr	r2, [sp, #24]
 9433 043a 1A60     		str	r2, [r3]
 9434              		.loc 1 3713 0
 9435 043c 079B     		ldr	r3, [sp, #28]
 9436 043e 2433     		adds	r3, r3, #36
 9437 0440 109A     		ldr	r2, [sp, #64]
 9438 0442 1A60     		str	r2, [r3]
 9439              		.loc 1 3714 0
 9440 0444 079B     		ldr	r3, [sp, #28]
 9441 0446 2C33     		adds	r3, r3, #44
 9442 0448 0222     		movs	r2, #2
 9443 044a 1A60     		str	r2, [r3]
 9444              		.loc 1 3715 0
 9445 044c 079B     		ldr	r3, [sp, #28]
 9446 044e 3033     		adds	r3, r3, #48
 9447 0450 0122     		movs	r2, #1
 9448 0452 1A80     		strh	r2, [r3]	@ movhi
 9449              		.loc 1 3716 0
 9450 0454 079B     		ldr	r3, [sp, #28]
 9451 0456 3233     		adds	r3, r3, #50
 9452 0458 0622     		movs	r2, #6
 9453 045a 1A80     		strh	r2, [r3]	@ movhi
 9454              		.loc 1 3717 0
 9455 045c 079B     		ldr	r3, [sp, #28]
ARM GAS  /tmp/ccIWRJEN.s 			page 168


 9456 045e 4033     		adds	r3, r3, #64
 9457 0460 8022     		movs	r2, #128
 9458 0462 1A70     		strb	r2, [r3]
 9459              		.loc 1 3718 0
 9460 0464 079B     		ldr	r3, [sp, #28]
 9461 0466 4233     		adds	r3, r3, #66
 9462 0468 2922     		movs	r2, #41
 9463 046a 1A70     		strb	r2, [r3]
 9464              		.loc 1 3719 0
 9465 046c 079B     		ldr	r3, [sp, #28]
 9466 046e 4733     		adds	r3, r3, #71
 9467 0470 1846     		mov	r0, r3
 9468 0472 40F20001 		movw	r1, #:lower16:.LC3
 9469 0476 C0F20001 		movt	r1, #:upper16:.LC3
 9470 047a 1322     		movs	r2, #19
 9471 047c FFF7FEFF 		bl	mem_cpy
 9472 0480 1AE0     		b	.L616
 9473              	.L615:
 9474              		.loc 1 3721 0
 9475 0482 079B     		ldr	r3, [sp, #28]
 9476 0484 2733     		adds	r3, r3, #39
 9477 0486 069A     		ldr	r2, [sp, #24]
 9478 0488 1A60     		str	r2, [r3]
 9479              		.loc 1 3722 0
 9480 048a 079B     		ldr	r3, [sp, #28]
 9481 048c 1633     		adds	r3, r3, #22
 9482 048e 109A     		ldr	r2, [sp, #64]
 9483 0490 92B2     		uxth	r2, r2
 9484 0492 1A80     		strh	r2, [r3]	@ movhi
 9485              		.loc 1 3723 0
 9486 0494 079B     		ldr	r3, [sp, #28]
 9487 0496 2433     		adds	r3, r3, #36
 9488 0498 8022     		movs	r2, #128
 9489 049a 1A70     		strb	r2, [r3]
 9490              		.loc 1 3724 0
 9491 049c 079B     		ldr	r3, [sp, #28]
 9492 049e 2633     		adds	r3, r3, #38
 9493 04a0 2922     		movs	r2, #41
 9494 04a2 1A70     		strb	r2, [r3]
 9495              		.loc 1 3725 0
 9496 04a4 079B     		ldr	r3, [sp, #28]
 9497 04a6 2B33     		adds	r3, r3, #43
 9498 04a8 1846     		mov	r0, r3
 9499 04aa 40F20001 		movw	r1, #:lower16:.LC4
 9500 04ae C0F20001 		movt	r1, #:upper16:.LC4
 9501 04b2 1322     		movs	r2, #19
 9502 04b4 FFF7FEFF 		bl	mem_cpy
 9503              	.L616:
 9504              		.loc 1 3727 0
 9505 04b8 079B     		ldr	r3, [sp, #28]
 9506 04ba 03F5FF73 		add	r3, r3, #510
 9507 04be 4AF65522 		movw	r2, #43605
 9508 04c2 1A80     		strh	r2, [r3]	@ movhi
 9509              		.loc 1 3728 0
 9510 04c4 9DF83730 		ldrb	r3, [sp, #55]	@ zero_extendqisi2
 9511 04c8 1846     		mov	r0, r3
 9512 04ca 0799     		ldr	r1, [sp, #28]
ARM GAS  /tmp/ccIWRJEN.s 			page 169


 9513 04cc 0C9A     		ldr	r2, [sp, #48]
 9514 04ce 0123     		movs	r3, #1
 9515 04d0 FFF7FEFF 		bl	disk_write
 9516 04d4 0346     		mov	r3, r0
 9517 04d6 002B     		cmp	r3, #0
 9518 04d8 01D0     		beq	.L617
 9519              		.loc 1 3729 0
 9520 04da 0123     		movs	r3, #1
 9521 04dc F4E0     		b	.L636
 9522              	.L617:
 9523              		.loc 1 3730 0
 9524 04de 9DF85730 		ldrb	r3, [sp, #87]	@ zero_extendqisi2
 9525 04e2 032B     		cmp	r3, #3
 9526 04e4 09D1     		bne	.L618
 9527              		.loc 1 3731 0
 9528 04e6 0C9B     		ldr	r3, [sp, #48]
 9529 04e8 0633     		adds	r3, r3, #6
 9530 04ea 9DF83720 		ldrb	r2, [sp, #55]	@ zero_extendqisi2
 9531 04ee 1046     		mov	r0, r2
 9532 04f0 0799     		ldr	r1, [sp, #28]
 9533 04f2 1A46     		mov	r2, r3
 9534 04f4 0123     		movs	r3, #1
 9535 04f6 FFF7FEFF 		bl	disk_write
 9536              	.L618:
 9537              		.loc 1 3734 0
 9538 04fa 129B     		ldr	r3, [sp, #72]
 9539 04fc 1493     		str	r3, [sp, #80]
 9540              		.loc 1 3735 0
 9541 04fe 0023     		movs	r3, #0
 9542 0500 1393     		str	r3, [sp, #76]
 9543 0502 62E0     		b	.L619
 9544              	.L628:
 9545              		.loc 1 3736 0
 9546 0504 0798     		ldr	r0, [sp, #28]
 9547 0506 0021     		movs	r1, #0
 9548 0508 4FF40072 		mov	r2, #512
 9549 050c FFF7FEFF 		bl	mem_set
 9550              		.loc 1 3737 0
 9551 0510 9DF85630 		ldrb	r3, [sp, #86]	@ zero_extendqisi2
 9552 0514 0693     		str	r3, [sp, #24]
 9553              		.loc 1 3738 0
 9554 0516 9DF85730 		ldrb	r3, [sp, #87]	@ zero_extendqisi2
 9555 051a 032B     		cmp	r3, #3
 9556 051c 11D0     		beq	.L620
 9557              		.loc 1 3739 0
 9558 051e 9DF85730 		ldrb	r3, [sp, #87]	@ zero_extendqisi2
 9559 0522 012B     		cmp	r3, #1
 9560 0524 04D1     		bne	.L621
 9561              		.loc 1 3739 0 is_stmt 0 discriminator 1
 9562 0526 4FF47F43 		mov	r3, #65280
 9563 052a C0F2FF03 		movt	r3, 255
 9564 052e 01E0     		b	.L622
 9565              	.L621:
 9566              		.loc 1 3739 0 discriminator 2
 9567 0530 6FF0FF03 		mvn	r3, #255
 9568              	.L622:
 9569              		.loc 1 3739 0 discriminator 1
ARM GAS  /tmp/ccIWRJEN.s 			page 170


 9570 0534 069A     		ldr	r2, [sp, #24]
 9571 0536 1343     		orrs	r3, r3, r2
 9572 0538 0693     		str	r3, [sp, #24]
 9573              		.loc 1 3740 0 is_stmt 1 discriminator 1
 9574 053a 069A     		ldr	r2, [sp, #24]
 9575 053c 079B     		ldr	r3, [sp, #28]
 9576 053e 1A60     		str	r2, [r3]
 9577 0540 10E0     		b	.L623
 9578              	.L620:
 9579              		.loc 1 3742 0
 9580 0542 069B     		ldr	r3, [sp, #24]
 9581 0544 63F0FF03 		orn	r3, r3, #255
 9582 0548 0693     		str	r3, [sp, #24]
 9583              		.loc 1 3743 0
 9584 054a 069A     		ldr	r2, [sp, #24]
 9585 054c 079B     		ldr	r3, [sp, #28]
 9586 054e 1A60     		str	r2, [r3]
 9587              		.loc 1 3744 0
 9588 0550 079B     		ldr	r3, [sp, #28]
 9589 0552 0433     		adds	r3, r3, #4
 9590 0554 4FF0FF32 		mov	r2, #-1
 9591 0558 1A60     		str	r2, [r3]
 9592              		.loc 1 3745 0
 9593 055a 079B     		ldr	r3, [sp, #28]
 9594 055c 0833     		adds	r3, r3, #8
 9595 055e 6FF07042 		mvn	r2, #-268435456
 9596 0562 1A60     		str	r2, [r3]
 9597              	.L623:
 9598              		.loc 1 3747 0
 9599 0564 149B     		ldr	r3, [sp, #80]
 9600 0566 5A1C     		adds	r2, r3, #1
 9601 0568 1492     		str	r2, [sp, #80]
 9602 056a 9DF83720 		ldrb	r2, [sp, #55]	@ zero_extendqisi2
 9603 056e 1046     		mov	r0, r2
 9604 0570 0799     		ldr	r1, [sp, #28]
 9605 0572 1A46     		mov	r2, r3
 9606 0574 0123     		movs	r3, #1
 9607 0576 FFF7FEFF 		bl	disk_write
 9608 057a 0346     		mov	r3, r0
 9609 057c 002B     		cmp	r3, #0
 9610 057e 01D0     		beq	.L624
 9611              		.loc 1 3748 0
 9612 0580 0123     		movs	r3, #1
 9613 0582 A1E0     		b	.L636
 9614              	.L624:
 9615              		.loc 1 3749 0
 9616 0584 0798     		ldr	r0, [sp, #28]
 9617 0586 0021     		movs	r1, #0
 9618 0588 4FF40072 		mov	r2, #512
 9619 058c FFF7FEFF 		bl	mem_set
 9620              		.loc 1 3750 0
 9621 0590 0123     		movs	r3, #1
 9622 0592 0693     		str	r3, [sp, #24]
 9623 0594 12E0     		b	.L625
 9624              	.L627:
 9625              		.loc 1 3751 0
 9626 0596 149B     		ldr	r3, [sp, #80]
ARM GAS  /tmp/ccIWRJEN.s 			page 171


 9627 0598 5A1C     		adds	r2, r3, #1
 9628 059a 1492     		str	r2, [sp, #80]
 9629 059c 9DF83720 		ldrb	r2, [sp, #55]	@ zero_extendqisi2
 9630 05a0 1046     		mov	r0, r2
 9631 05a2 0799     		ldr	r1, [sp, #28]
 9632 05a4 1A46     		mov	r2, r3
 9633 05a6 0123     		movs	r3, #1
 9634 05a8 FFF7FEFF 		bl	disk_write
 9635 05ac 0346     		mov	r3, r0
 9636 05ae 002B     		cmp	r3, #0
 9637 05b0 01D0     		beq	.L626
 9638              		.loc 1 3752 0
 9639 05b2 0123     		movs	r3, #1
 9640 05b4 88E0     		b	.L636
 9641              	.L626:
 9642              		.loc 1 3750 0
 9643 05b6 069B     		ldr	r3, [sp, #24]
 9644 05b8 0133     		adds	r3, r3, #1
 9645 05ba 0693     		str	r3, [sp, #24]
 9646              	.L625:
 9647              		.loc 1 3750 0 is_stmt 0 discriminator 1
 9648 05bc 069A     		ldr	r2, [sp, #24]
 9649 05be 109B     		ldr	r3, [sp, #64]
 9650 05c0 9A42     		cmp	r2, r3
 9651 05c2 E8D3     		bcc	.L627
 9652              		.loc 1 3735 0 is_stmt 1
 9653 05c4 139B     		ldr	r3, [sp, #76]
 9654 05c6 0133     		adds	r3, r3, #1
 9655 05c8 1393     		str	r3, [sp, #76]
 9656              	.L619:
 9657              		.loc 1 3735 0 is_stmt 0 discriminator 1
 9658 05ca 139B     		ldr	r3, [sp, #76]
 9659 05cc 002B     		cmp	r3, #0
 9660 05ce 99D0     		beq	.L628
 9661              		.loc 1 3757 0 is_stmt 1
 9662 05d0 9DF85730 		ldrb	r3, [sp, #87]	@ zero_extendqisi2
 9663 05d4 032B     		cmp	r3, #3
 9664 05d6 01D1     		bne	.L629
 9665              		.loc 1 3757 0 is_stmt 0 discriminator 1
 9666 05d8 009B     		ldr	r3, [sp]
 9667 05da 00E0     		b	.L630
 9668              	.L629:
 9669              		.loc 1 3757 0 discriminator 2
 9670 05dc 0F9B     		ldr	r3, [sp, #60]
 9671              	.L630:
 9672              		.loc 1 3757 0 discriminator 3
 9673 05de 1393     		str	r3, [sp, #76]
 9674              	.L632:
 9675              		.loc 1 3759 0 is_stmt 1
 9676 05e0 149B     		ldr	r3, [sp, #80]
 9677 05e2 5A1C     		adds	r2, r3, #1
 9678 05e4 1492     		str	r2, [sp, #80]
 9679 05e6 9DF83720 		ldrb	r2, [sp, #55]	@ zero_extendqisi2
 9680 05ea 1046     		mov	r0, r2
 9681 05ec 0799     		ldr	r1, [sp, #28]
 9682 05ee 1A46     		mov	r2, r3
 9683 05f0 0123     		movs	r3, #1
ARM GAS  /tmp/ccIWRJEN.s 			page 172


 9684 05f2 FFF7FEFF 		bl	disk_write
 9685 05f6 0346     		mov	r3, r0
 9686 05f8 002B     		cmp	r3, #0
 9687 05fa 01D0     		beq	.L631
 9688              		.loc 1 3760 0
 9689 05fc 0123     		movs	r3, #1
 9690 05fe 63E0     		b	.L636
 9691              	.L631:
 9692              		.loc 1 3761 0
 9693 0600 139B     		ldr	r3, [sp, #76]
 9694 0602 013B     		subs	r3, r3, #1
 9695 0604 1393     		str	r3, [sp, #76]
 9696 0606 139B     		ldr	r3, [sp, #76]
 9697 0608 002B     		cmp	r3, #0
 9698 060a E9D1     		bne	.L632
 9699              	.LBB7:
 9700              		.loc 1 3767 0
 9701 060c 149B     		ldr	r3, [sp, #80]
 9702 060e 0393     		str	r3, [sp, #12]
 9703 0610 9DF85730 		ldrb	r3, [sp, #87]	@ zero_extendqisi2
 9704 0614 032B     		cmp	r3, #3
 9705 0616 01D1     		bne	.L633
 9706              		.loc 1 3767 0 is_stmt 0 discriminator 1
 9707 0618 0123     		movs	r3, #1
 9708 061a 00E0     		b	.L634
 9709              	.L633:
 9710              		.loc 1 3767 0 discriminator 2
 9711 061c 0023     		movs	r3, #0
 9712              	.L634:
 9713              		.loc 1 3767 0 discriminator 3
 9714 061e 0A9A     		ldr	r2, [sp, #40]
 9715 0620 D31A     		subs	r3, r2, r3
 9716 0622 009A     		ldr	r2, [sp]
 9717 0624 02FB03F2 		mul	r2, r2, r3
 9718 0628 149B     		ldr	r3, [sp, #80]
 9719 062a 1344     		add	r3, r3, r2
 9720 062c 013B     		subs	r3, r3, #1
 9721 062e 0493     		str	r3, [sp, #16]
 9722              		.loc 1 3768 0 is_stmt 1 discriminator 3
 9723 0630 9DF83720 		ldrb	r2, [sp, #55]	@ zero_extendqisi2
 9724 0634 03AB     		add	r3, sp, #12
 9725 0636 1046     		mov	r0, r2
 9726 0638 0421     		movs	r1, #4
 9727 063a 1A46     		mov	r2, r3
 9728 063c FFF7FEFF 		bl	disk_ioctl
 9729              	.LBE7:
 9730              		.loc 1 3773 0 discriminator 3
 9731 0640 9DF85730 		ldrb	r3, [sp, #87]	@ zero_extendqisi2
 9732 0644 032B     		cmp	r3, #3
 9733 0646 32D1     		bne	.L635
 9734              		.loc 1 3774 0
 9735 0648 079A     		ldr	r2, [sp, #28]
 9736 064a 45F25223 		movw	r3, #21074
 9737 064e C4F26113 		movt	r3, 16737
 9738 0652 1360     		str	r3, [r2]
 9739              		.loc 1 3775 0
 9740 0654 079B     		ldr	r3, [sp, #28]
ARM GAS  /tmp/ccIWRJEN.s 			page 173


 9741 0656 03F5F272 		add	r2, r3, #484
 9742 065a 47F27223 		movw	r3, #29298
 9743 065e C6F24113 		movt	r3, 24897
 9744 0662 1360     		str	r3, [r2]
 9745              		.loc 1 3776 0
 9746 0664 079B     		ldr	r3, [sp, #28]
 9747 0666 03F5F473 		add	r3, r3, #488
 9748 066a 0A9A     		ldr	r2, [sp, #40]
 9749 066c 013A     		subs	r2, r2, #1
 9750 066e 1A60     		str	r2, [r3]
 9751              		.loc 1 3777 0
 9752 0670 079B     		ldr	r3, [sp, #28]
 9753 0672 03F5F673 		add	r3, r3, #492
 9754 0676 0222     		movs	r2, #2
 9755 0678 1A60     		str	r2, [r3]
 9756              		.loc 1 3778 0
 9757 067a 079B     		ldr	r3, [sp, #28]
 9758 067c 03F5FF73 		add	r3, r3, #510
 9759 0680 4AF65522 		movw	r2, #43605
 9760 0684 1A80     		strh	r2, [r3]	@ movhi
 9761              		.loc 1 3779 0
 9762 0686 0C9B     		ldr	r3, [sp, #48]
 9763 0688 0133     		adds	r3, r3, #1
 9764 068a 9DF83720 		ldrb	r2, [sp, #55]	@ zero_extendqisi2
 9765 068e 1046     		mov	r0, r2
 9766 0690 0799     		ldr	r1, [sp, #28]
 9767 0692 1A46     		mov	r2, r3
 9768 0694 0123     		movs	r3, #1
 9769 0696 FFF7FEFF 		bl	disk_write
 9770              		.loc 1 3780 0
 9771 069a 0C9B     		ldr	r3, [sp, #48]
 9772 069c 0733     		adds	r3, r3, #7
 9773 069e 9DF83720 		ldrb	r2, [sp, #55]	@ zero_extendqisi2
 9774 06a2 1046     		mov	r0, r2
 9775 06a4 0799     		ldr	r1, [sp, #28]
 9776 06a6 1A46     		mov	r2, r3
 9777 06a8 0123     		movs	r3, #1
 9778 06aa FFF7FEFF 		bl	disk_write
 9779              	.L635:
 9780              		.loc 1 3783 0
 9781 06ae 9DF83730 		ldrb	r3, [sp, #55]	@ zero_extendqisi2
 9782 06b2 1846     		mov	r0, r3
 9783 06b4 0021     		movs	r1, #0
 9784 06b6 0022     		movs	r2, #0
 9785 06b8 FFF7FEFF 		bl	disk_ioctl
 9786 06bc 0346     		mov	r3, r0
 9787 06be 002B     		cmp	r3, #0
 9788 06c0 0CBF     		ite	eq
 9789 06c2 0023     		moveq	r3, #0
 9790 06c4 0123     		movne	r3, #1
 9791 06c6 DBB2     		uxtb	r3, r3
 9792              	.L636:
 9793              		.loc 1 3784 0
 9794 06c8 1846     		mov	r0, r3
 9795 06ca 17B0     		add	sp, sp, #92
 9796              		@ sp needed
 9797 06cc 5DF804FB 		ldr	pc, [sp], #4
ARM GAS  /tmp/ccIWRJEN.s 			page 174


 9798              		.cfi_endproc
 9799              	.LFE52:
 9800              		.size	f_mkfs, .-f_mkfs
 9801              		.section	.text.f_gets,"ax",%progbits
 9802              		.align	2
 9803              		.p2align 4,,15
 9804              		.global	f_gets
 9805              		.thumb
 9806              		.thumb_func
 9807              		.type	f_gets, %function
 9808              	f_gets:
 9809              	.LFB53:
 9810              		.loc 1 3869 0
 9811              		.cfi_startproc
 9812              		@ args = 0, pretend = 0, frame = 32
 9813              		@ frame_needed = 0, uses_anonymous_args = 0
 9814 0000 00B5     		push	{lr}
 9815              		.cfi_def_cfa_offset 4
 9816              		.cfi_offset 14, -4
 9817 0002 89B0     		sub	sp, sp, #36
 9818              		.cfi_def_cfa_offset 40
 9819 0004 0390     		str	r0, [sp, #12]
 9820 0006 0291     		str	r1, [sp, #8]
 9821 0008 0192     		str	r2, [sp, #4]
 9822              		.loc 1 3870 0
 9823 000a 0023     		movs	r3, #0
 9824 000c 0793     		str	r3, [sp, #28]
 9825              		.loc 1 3871 0
 9826 000e 039B     		ldr	r3, [sp, #12]
 9827 0010 0693     		str	r3, [sp, #24]
 9828              		.loc 1 3876 0
 9829 0012 1CE0     		b	.L639
 9830              	.L642:
 9831              		.loc 1 3877 0
 9832 0014 05AA     		add	r2, sp, #20
 9833 0016 04AB     		add	r3, sp, #16
 9834 0018 0198     		ldr	r0, [sp, #4]
 9835 001a 1146     		mov	r1, r2
 9836 001c 0122     		movs	r2, #1
 9837 001e FFF7FEFF 		bl	f_read
 9838              		.loc 1 3878 0
 9839 0022 049B     		ldr	r3, [sp, #16]
 9840 0024 012B     		cmp	r3, #1
 9841 0026 00D0     		beq	.L640
 9842              		.loc 1 3878 0 is_stmt 0 discriminator 1
 9843 0028 16E0     		b	.L641
 9844              	.L640:
 9845              		.loc 1 3879 0 is_stmt 1
 9846 002a 9DF81430 		ldrb	r3, [sp, #20]
 9847 002e 8DF81730 		strb	r3, [sp, #23]
 9848              		.loc 1 3903 0
 9849 0032 069B     		ldr	r3, [sp, #24]
 9850 0034 5A1C     		adds	r2, r3, #1
 9851 0036 0692     		str	r2, [sp, #24]
 9852 0038 9DF81720 		ldrb	r2, [sp, #23]
 9853 003c 1A70     		strb	r2, [r3]
 9854              		.loc 1 3904 0
ARM GAS  /tmp/ccIWRJEN.s 			page 175


 9855 003e 079B     		ldr	r3, [sp, #28]
 9856 0040 0133     		adds	r3, r3, #1
 9857 0042 0793     		str	r3, [sp, #28]
 9858              		.loc 1 3905 0
 9859 0044 9DF81730 		ldrb	r3, [sp, #23]	@ zero_extendqisi2
 9860 0048 0A2B     		cmp	r3, #10
 9861 004a 00D1     		bne	.L639
 9862              		.loc 1 3905 0 is_stmt 0 discriminator 1
 9863 004c 04E0     		b	.L641
 9864              	.L639:
 9865              		.loc 1 3876 0 is_stmt 1 discriminator 1
 9866 004e 029B     		ldr	r3, [sp, #8]
 9867 0050 5A1E     		subs	r2, r3, #1
 9868 0052 079B     		ldr	r3, [sp, #28]
 9869 0054 9A42     		cmp	r2, r3
 9870 0056 DDDC     		bgt	.L642
 9871              	.L641:
 9872              		.loc 1 3907 0
 9873 0058 069B     		ldr	r3, [sp, #24]
 9874 005a 0022     		movs	r2, #0
 9875 005c 1A70     		strb	r2, [r3]
 9876              		.loc 1 3908 0
 9877 005e 079B     		ldr	r3, [sp, #28]
 9878 0060 002B     		cmp	r3, #0
 9879 0062 01D0     		beq	.L643
 9880              		.loc 1 3908 0 is_stmt 0 discriminator 1
 9881 0064 039B     		ldr	r3, [sp, #12]
 9882 0066 00E0     		b	.L644
 9883              	.L643:
 9884              		.loc 1 3908 0 discriminator 2
 9885 0068 0023     		movs	r3, #0
 9886              	.L644:
 9887              		.loc 1 3909 0 is_stmt 1 discriminator 3
 9888 006a 1846     		mov	r0, r3
 9889 006c 09B0     		add	sp, sp, #36
 9890              		@ sp needed
 9891 006e 5DF804FB 		ldr	pc, [sp], #4
 9892              		.cfi_endproc
 9893              	.LFE53:
 9894              		.size	f_gets, .-f_gets
 9895 0072 00BFAFF3 		.section	.text.f_putc,"ax",%progbits
 9895      0080AFF3 
 9895      0080AFF3 
 9895      0080
 9896              		.align	2
 9897              		.p2align 4,,15
 9898              		.global	f_putc
 9899              		.thumb
 9900              		.thumb_func
 9901              		.type	f_putc, %function
 9902              	f_putc:
 9903              	.LFB54:
 9904              		.loc 1 3922 0
 9905              		.cfi_startproc
 9906              		@ args = 0, pretend = 0, frame = 24
 9907              		@ frame_needed = 0, uses_anonymous_args = 0
 9908 0000 00B5     		push	{lr}
ARM GAS  /tmp/ccIWRJEN.s 			page 176


 9909              		.cfi_def_cfa_offset 4
 9910              		.cfi_offset 14, -4
 9911 0002 87B0     		sub	sp, sp, #28
 9912              		.cfi_def_cfa_offset 32
 9913 0004 0346     		mov	r3, r0
 9914 0006 0091     		str	r1, [sp]
 9915 0008 8DF80730 		strb	r3, [sp, #7]
 9916              		.loc 1 3948 0
 9917 000c 9DF80730 		ldrb	r3, [sp, #7]
 9918 0010 8DF80C30 		strb	r3, [sp, #12]
 9919              		.loc 1 3949 0
 9920 0014 0123     		movs	r3, #1
 9921 0016 0593     		str	r3, [sp, #20]
 9922              		.loc 1 3951 0
 9923 0018 03AA     		add	r2, sp, #12
 9924 001a 04AB     		add	r3, sp, #16
 9925 001c 0098     		ldr	r0, [sp]
 9926 001e 1146     		mov	r1, r2
 9927 0020 059A     		ldr	r2, [sp, #20]
 9928 0022 FFF7FEFF 		bl	f_write
 9929              		.loc 1 3952 0
 9930 0026 049A     		ldr	r2, [sp, #16]
 9931 0028 059B     		ldr	r3, [sp, #20]
 9932 002a 9A42     		cmp	r2, r3
 9933 002c 01D1     		bne	.L647
 9934              		.loc 1 3952 0 is_stmt 0 discriminator 1
 9935 002e 0123     		movs	r3, #1
 9936 0030 01E0     		b	.L648
 9937              	.L647:
 9938              		.loc 1 3952 0 discriminator 2
 9939 0032 4FF0FF33 		mov	r3, #-1
 9940              	.L648:
 9941              		.loc 1 3953 0 is_stmt 1 discriminator 3
 9942 0036 1846     		mov	r0, r3
 9943 0038 07B0     		add	sp, sp, #28
 9944              		@ sp needed
 9945 003a 5DF804FB 		ldr	pc, [sp], #4
 9946              		.cfi_endproc
 9947              	.LFE54:
 9948              		.size	f_putc, .-f_putc
 9949 003e 00BF     		.section	.text.f_puts,"ax",%progbits
 9950              		.align	2
 9951              		.p2align 4,,15
 9952              		.global	f_puts
 9953              		.thumb
 9954              		.thumb_func
 9955              		.type	f_puts, %function
 9956              	f_puts:
 9957              	.LFB55:
 9958              		.loc 1 3965 0
 9959              		.cfi_startproc
 9960              		@ args = 0, pretend = 0, frame = 16
 9961              		@ frame_needed = 0, uses_anonymous_args = 0
 9962 0000 00B5     		push	{lr}
 9963              		.cfi_def_cfa_offset 4
 9964              		.cfi_offset 14, -4
 9965 0002 85B0     		sub	sp, sp, #20
ARM GAS  /tmp/ccIWRJEN.s 			page 177


 9966              		.cfi_def_cfa_offset 24
 9967 0004 0190     		str	r0, [sp, #4]
 9968 0006 0091     		str	r1, [sp]
 9969              		.loc 1 3969 0
 9970 0008 0023     		movs	r3, #0
 9971 000a 0393     		str	r3, [sp, #12]
 9972 000c 12E0     		b	.L651
 9973              	.L654:
 9974              		.loc 1 3970 0
 9975 000e 019B     		ldr	r3, [sp, #4]
 9976 0010 1B78     		ldrb	r3, [r3]	@ zero_extendqisi2
 9977 0012 1846     		mov	r0, r3
 9978 0014 0099     		ldr	r1, [sp]
 9979 0016 FFF7FEFF 		bl	f_putc
 9980 001a 0346     		mov	r3, r0
 9981 001c B3F1FF3F 		cmp	r3, #-1
 9982 0020 02D1     		bne	.L652
 9983              		.loc 1 3970 0 is_stmt 0 discriminator 1
 9984 0022 4FF0FF33 		mov	r3, #-1
 9985 0026 0AE0     		b	.L653
 9986              	.L652:
 9987              		.loc 1 3969 0 is_stmt 1
 9988 0028 019B     		ldr	r3, [sp, #4]
 9989 002a 0133     		adds	r3, r3, #1
 9990 002c 0193     		str	r3, [sp, #4]
 9991 002e 039B     		ldr	r3, [sp, #12]
 9992 0030 0133     		adds	r3, r3, #1
 9993 0032 0393     		str	r3, [sp, #12]
 9994              	.L651:
 9995              		.loc 1 3969 0 is_stmt 0 discriminator 1
 9996 0034 019B     		ldr	r3, [sp, #4]
 9997 0036 1B78     		ldrb	r3, [r3]	@ zero_extendqisi2
 9998 0038 002B     		cmp	r3, #0
 9999 003a E8D1     		bne	.L654
 10000              		.loc 1 3972 0 is_stmt 1
 10001 003c 039B     		ldr	r3, [sp, #12]
 10002              	.L653:
 10003              		.loc 1 3973 0
 10004 003e 1846     		mov	r0, r3
 10005 0040 05B0     		add	sp, sp, #20
 10006              		@ sp needed
 10007 0042 5DF804FB 		ldr	pc, [sp], #4
 10008              		.cfi_endproc
 10009              	.LFE55:
 10010              		.size	f_puts, .-f_puts
 10011 0046 00BFAFF3 		.section	.text.f_printf,"ax",%progbits
 10011      0080AFF3 
 10011      0080
 10012              		.align	2
 10013              		.p2align 4,,15
 10014              		.global	f_printf
 10015              		.thumb
 10016              		.thumb_func
 10017              		.type	f_printf, %function
 10018              	f_printf:
 10019              	.LFB56:
 10020              		.loc 1 3986 0
ARM GAS  /tmp/ccIWRJEN.s 			page 178


 10021              		.cfi_startproc
 10022              		@ args = 4, pretend = 12, frame = 72
 10023              		@ frame_needed = 0, uses_anonymous_args = 1
 10024 0000 0EB4     		push	{r1, r2, r3}
 10025              		.cfi_def_cfa_offset 12
 10026              		.cfi_offset 1, -12
 10027              		.cfi_offset 2, -8
 10028              		.cfi_offset 3, -4
 10029 0002 00B5     		push	{lr}
 10030              		.cfi_def_cfa_offset 16
 10031              		.cfi_offset 14, -16
 10032 0004 92B0     		sub	sp, sp, #72
 10033              		.cfi_def_cfa_offset 88
 10034 0006 0190     		str	r0, [sp, #4]
 10035              		.loc 1 3995 0
 10036 0008 14AB     		add	r3, sp, #80
 10037 000a 0793     		str	r3, [sp, #28]
 10038              		.loc 1 3997 0
 10039 000c 0023     		movs	r3, #0
 10040 000e 0B93     		str	r3, [sp, #44]
 10041 0010 0B9B     		ldr	r3, [sp, #44]
 10042 0012 0993     		str	r3, [sp, #36]
 10043 0014 EBE1     		b	.L656
 10044              	.L706:
 10045              		.loc 1 3998 0
 10046 0016 139B     		ldr	r3, [sp, #76]
 10047 0018 5A1C     		adds	r2, r3, #1
 10048 001a 1392     		str	r2, [sp, #76]
 10049 001c 1B78     		ldrb	r3, [r3]
 10050 001e 8DF83330 		strb	r3, [sp, #51]
 10051              		.loc 1 3999 0
 10052 0022 9DF83330 		ldrb	r3, [sp, #51]	@ zero_extendqisi2
 10053 0026 002B     		cmp	r3, #0
 10054 0028 00D1     		bne	.L657
 10055              		.loc 1 3999 0 is_stmt 0 discriminator 1
 10056 002a E5E1     		b	.L658
 10057              	.L657:
 10058              		.loc 1 4000 0 is_stmt 1
 10059 002c 9DF83330 		ldrb	r3, [sp, #51]	@ zero_extendqisi2
 10060 0030 252B     		cmp	r3, #37
 10061 0032 0ED0     		beq	.L659
 10062              		.loc 1 4001 0
 10063 0034 9DF83330 		ldrb	r3, [sp, #51]	@ zero_extendqisi2
 10064 0038 1846     		mov	r0, r3
 10065 003a 0199     		ldr	r1, [sp, #4]
 10066 003c FFF7FEFF 		bl	f_putc
 10067 0040 0990     		str	r0, [sp, #36]
 10068              		.loc 1 4002 0
 10069 0042 099B     		ldr	r3, [sp, #36]
 10070 0044 B3F1FF3F 		cmp	r3, #-1
 10071 0048 02D0     		beq	.L660
 10072              		.loc 1 4002 0 is_stmt 0 discriminator 1
 10073 004a 0123     		movs	r3, #1
 10074 004c 0993     		str	r3, [sp, #36]
 10075              		.loc 1 4003 0 is_stmt 1 discriminator 1
 10076 004e CAE1     		b	.L661
 10077              	.L660:
ARM GAS  /tmp/ccIWRJEN.s 			page 179


 10078              		.loc 1 4003 0 is_stmt 0
 10079 0050 C9E1     		b	.L661
 10080              	.L659:
 10081              		.loc 1 4005 0 is_stmt 1
 10082 0052 0023     		movs	r3, #0
 10083 0054 8DF84730 		strb	r3, [sp, #71]
 10084 0058 0023     		movs	r3, #0
 10085 005a 0E93     		str	r3, [sp, #56]
 10086              		.loc 1 4006 0
 10087 005c 139B     		ldr	r3, [sp, #76]
 10088 005e 5A1C     		adds	r2, r3, #1
 10089 0060 1392     		str	r2, [sp, #76]
 10090 0062 1B78     		ldrb	r3, [r3]
 10091 0064 8DF83330 		strb	r3, [sp, #51]
 10092              		.loc 1 4007 0
 10093 0068 9DF83330 		ldrb	r3, [sp, #51]	@ zero_extendqisi2
 10094 006c 302B     		cmp	r3, #48
 10095 006e 09D1     		bne	.L662
 10096              		.loc 1 4008 0
 10097 0070 0123     		movs	r3, #1
 10098 0072 8DF84730 		strb	r3, [sp, #71]
 10099 0076 139B     		ldr	r3, [sp, #76]
 10100 0078 5A1C     		adds	r2, r3, #1
 10101 007a 1392     		str	r2, [sp, #76]
 10102 007c 1B78     		ldrb	r3, [r3]
 10103 007e 8DF83330 		strb	r3, [sp, #51]
 10104 0082 0DE0     		b	.L663
 10105              	.L662:
 10106              		.loc 1 4010 0
 10107 0084 9DF83330 		ldrb	r3, [sp, #51]	@ zero_extendqisi2
 10108 0088 2D2B     		cmp	r3, #45
 10109 008a 09D1     		bne	.L663
 10110              		.loc 1 4011 0
 10111 008c 0223     		movs	r3, #2
 10112 008e 8DF84730 		strb	r3, [sp, #71]
 10113 0092 139B     		ldr	r3, [sp, #76]
 10114 0094 5A1C     		adds	r2, r3, #1
 10115 0096 1392     		str	r2, [sp, #76]
 10116 0098 1B78     		ldrb	r3, [r3]
 10117 009a 8DF83330 		strb	r3, [sp, #51]
 10118              		.loc 1 4014 0
 10119 009e 11E0     		b	.L664
 10120              	.L663:
 10121 00a0 10E0     		b	.L664
 10122              	.L666:
 10123              		.loc 1 4015 0
 10124 00a2 0E9A     		ldr	r2, [sp, #56]
 10125 00a4 1346     		mov	r3, r2
 10126 00a6 9B00     		lsls	r3, r3, #2
 10127 00a8 1344     		add	r3, r3, r2
 10128 00aa 5B00     		lsls	r3, r3, #1
 10129 00ac 1A46     		mov	r2, r3
 10130 00ae 9DF83330 		ldrb	r3, [sp, #51]	@ zero_extendqisi2
 10131 00b2 1344     		add	r3, r3, r2
 10132 00b4 303B     		subs	r3, r3, #48
 10133 00b6 0E93     		str	r3, [sp, #56]
 10134              		.loc 1 4016 0
ARM GAS  /tmp/ccIWRJEN.s 			page 180


 10135 00b8 139B     		ldr	r3, [sp, #76]
 10136 00ba 5A1C     		adds	r2, r3, #1
 10137 00bc 1392     		str	r2, [sp, #76]
 10138 00be 1B78     		ldrb	r3, [r3]
 10139 00c0 8DF83330 		strb	r3, [sp, #51]
 10140              	.L664:
 10141              		.loc 1 4014 0 discriminator 1
 10142 00c4 9DF83330 		ldrb	r3, [sp, #51]	@ zero_extendqisi2
 10143 00c8 2F2B     		cmp	r3, #47
 10144 00ca 03D9     		bls	.L665
 10145              		.loc 1 4014 0 is_stmt 0 discriminator 2
 10146 00cc 9DF83330 		ldrb	r3, [sp, #51]	@ zero_extendqisi2
 10147 00d0 392B     		cmp	r3, #57
 10148 00d2 E6D9     		bls	.L666
 10149              	.L665:
 10150              		.loc 1 4018 0 is_stmt 1
 10151 00d4 9DF83330 		ldrb	r3, [sp, #51]	@ zero_extendqisi2
 10152 00d8 6C2B     		cmp	r3, #108
 10153 00da 03D0     		beq	.L667
 10154              		.loc 1 4018 0 is_stmt 0 discriminator 1
 10155 00dc 9DF83330 		ldrb	r3, [sp, #51]	@ zero_extendqisi2
 10156 00e0 4C2B     		cmp	r3, #76
 10157 00e2 0BD1     		bne	.L668
 10158              	.L667:
 10159              		.loc 1 4019 0 is_stmt 1
 10160 00e4 9DF84730 		ldrb	r3, [sp, #71]
 10161 00e8 43F00403 		orr	r3, r3, #4
 10162 00ec 8DF84730 		strb	r3, [sp, #71]
 10163 00f0 139B     		ldr	r3, [sp, #76]
 10164 00f2 5A1C     		adds	r2, r3, #1
 10165 00f4 1392     		str	r2, [sp, #76]
 10166 00f6 1B78     		ldrb	r3, [r3]
 10167 00f8 8DF83330 		strb	r3, [sp, #51]
 10168              	.L668:
 10169              		.loc 1 4021 0
 10170 00fc 9DF83330 		ldrb	r3, [sp, #51]	@ zero_extendqisi2
 10171 0100 002B     		cmp	r3, #0
 10172 0102 00D1     		bne	.L669
 10173              		.loc 1 4021 0 is_stmt 0 discriminator 1
 10174 0104 78E1     		b	.L658
 10175              	.L669:
 10176              		.loc 1 4022 0 is_stmt 1
 10177 0106 9DF83330 		ldrb	r3, [sp, #51]
 10178 010a 8DF83230 		strb	r3, [sp, #50]
 10179              		.loc 1 4023 0
 10180 010e 9DF83230 		ldrb	r3, [sp, #50]	@ zero_extendqisi2
 10181 0112 602B     		cmp	r3, #96
 10182 0114 08D9     		bls	.L670
 10183              		.loc 1 4023 0 is_stmt 0 discriminator 1
 10184 0116 9DF83230 		ldrb	r3, [sp, #50]	@ zero_extendqisi2
 10185 011a 7A2B     		cmp	r3, #122
 10186 011c 04D8     		bhi	.L670
 10187 011e 9DF83230 		ldrb	r3, [sp, #50]
 10188 0122 203B     		subs	r3, r3, #32
 10189 0124 8DF83230 		strb	r3, [sp, #50]
 10190              	.L670:
 10191              		.loc 1 4024 0 is_stmt 1
ARM GAS  /tmp/ccIWRJEN.s 			page 181


 10192 0128 9DF83230 		ldrb	r3, [sp, #50]	@ zero_extendqisi2
 10193 012c 423B     		subs	r3, r3, #66
 10194 012e 162B     		cmp	r3, #22
 10195 0130 00F29780 		bhi	.L671
 10196 0134 01A1     		adr	r1, .L673
 10197 0136 51F823F0 		ldr	pc, [r1, r3, lsl #2]
 10198 013a 00BF     		.p2align 2
 10199              	.L673:
 10200 013c 43020000 		.word	.L672+1
 10201 0140 2D020000 		.word	.L674+1
 10202 0144 53020000 		.word	.L675+1
 10203 0148 63020000 		.word	.L671+1
 10204 014c 63020000 		.word	.L671+1
 10205 0150 63020000 		.word	.L671+1
 10206 0154 63020000 		.word	.L671+1
 10207 0158 63020000 		.word	.L671+1
 10208 015c 63020000 		.word	.L671+1
 10209 0160 63020000 		.word	.L671+1
 10210 0164 63020000 		.word	.L671+1
 10211 0168 63020000 		.word	.L671+1
 10212 016c 63020000 		.word	.L671+1
 10213 0170 4B020000 		.word	.L676+1
 10214 0174 63020000 		.word	.L671+1
 10215 0178 63020000 		.word	.L671+1
 10216 017c 63020000 		.word	.L671+1
 10217 0180 99010000 		.word	.L677+1
 10218 0184 63020000 		.word	.L671+1
 10219 0188 53020000 		.word	.L675+1
 10220 018c 63020000 		.word	.L671+1
 10221 0190 63020000 		.word	.L671+1
 10222 0194 5B020000 		.word	.L678+1
 10223              	.L677:
 10224              		.loc 1 4026 0
 10225 0198 079B     		ldr	r3, [sp, #28]
 10226 019a 1A1D     		adds	r2, r3, #4
 10227 019c 0792     		str	r2, [sp, #28]
 10228 019e 1B68     		ldr	r3, [r3]
 10229 01a0 0893     		str	r3, [sp, #32]
 10230              		.loc 1 4027 0
 10231 01a2 0023     		movs	r3, #0
 10232 01a4 0F93     		str	r3, [sp, #60]
 10233 01a6 02E0     		b	.L679
 10234              	.L680:
 10235              		.loc 1 4027 0 is_stmt 0 discriminator 2
 10236 01a8 0F9B     		ldr	r3, [sp, #60]
 10237 01aa 0133     		adds	r3, r3, #1
 10238 01ac 0F93     		str	r3, [sp, #60]
 10239              	.L679:
 10240              		.loc 1 4027 0 discriminator 1
 10241 01ae 089A     		ldr	r2, [sp, #32]
 10242 01b0 0F9B     		ldr	r3, [sp, #60]
 10243 01b2 1344     		add	r3, r3, r2
 10244 01b4 1B78     		ldrb	r3, [r3]	@ zero_extendqisi2
 10245 01b6 002B     		cmp	r3, #0
 10246 01b8 F6D1     		bne	.L680
 10247              		.loc 1 4028 0 is_stmt 1
 10248 01ba 0023     		movs	r3, #0
ARM GAS  /tmp/ccIWRJEN.s 			page 182


 10249 01bc 0A93     		str	r3, [sp, #40]
 10250              		.loc 1 4029 0
 10251 01be 9DF84730 		ldrb	r3, [sp, #71]	@ zero_extendqisi2
 10252 01c2 03F00203 		and	r3, r3, #2
 10253 01c6 002B     		cmp	r3, #0
 10254 01c8 0FD1     		bne	.L681
 10255              		.loc 1 4030 0
 10256 01ca 08E0     		b	.L682
 10257              	.L683:
 10258              		.loc 1 4030 0 is_stmt 0 discriminator 2
 10259 01cc 2020     		movs	r0, #32
 10260 01ce 0199     		ldr	r1, [sp, #4]
 10261 01d0 FFF7FEFF 		bl	f_putc
 10262 01d4 0990     		str	r0, [sp, #36]
 10263 01d6 0A9A     		ldr	r2, [sp, #40]
 10264 01d8 099B     		ldr	r3, [sp, #36]
 10265 01da 1344     		add	r3, r3, r2
 10266 01dc 0A93     		str	r3, [sp, #40]
 10267              	.L682:
 10268              		.loc 1 4030 0 discriminator 1
 10269 01de 0F9B     		ldr	r3, [sp, #60]
 10270 01e0 5A1C     		adds	r2, r3, #1
 10271 01e2 0F92     		str	r2, [sp, #60]
 10272 01e4 0E9A     		ldr	r2, [sp, #56]
 10273 01e6 9342     		cmp	r3, r2
 10274 01e8 F0D3     		bcc	.L683
 10275              	.L681:
 10276              		.loc 1 4032 0 is_stmt 1
 10277 01ea 0898     		ldr	r0, [sp, #32]
 10278 01ec 0199     		ldr	r1, [sp, #4]
 10279 01ee FFF7FEFF 		bl	f_puts
 10280 01f2 0990     		str	r0, [sp, #36]
 10281 01f4 0A9A     		ldr	r2, [sp, #40]
 10282 01f6 099B     		ldr	r3, [sp, #36]
 10283 01f8 1344     		add	r3, r3, r2
 10284 01fa 0A93     		str	r3, [sp, #40]
 10285              		.loc 1 4033 0
 10286 01fc 08E0     		b	.L684
 10287              	.L685:
 10288              		.loc 1 4033 0 is_stmt 0 discriminator 2
 10289 01fe 2020     		movs	r0, #32
 10290 0200 0199     		ldr	r1, [sp, #4]
 10291 0202 FFF7FEFF 		bl	f_putc
 10292 0206 0990     		str	r0, [sp, #36]
 10293 0208 0A9A     		ldr	r2, [sp, #40]
 10294 020a 099B     		ldr	r3, [sp, #36]
 10295 020c 1344     		add	r3, r3, r2
 10296 020e 0A93     		str	r3, [sp, #40]
 10297              	.L684:
 10298              		.loc 1 4033 0 discriminator 1
 10299 0210 0F9B     		ldr	r3, [sp, #60]
 10300 0212 5A1C     		adds	r2, r3, #1
 10301 0214 0F92     		str	r2, [sp, #60]
 10302 0216 0E9A     		ldr	r2, [sp, #56]
 10303 0218 9342     		cmp	r3, r2
 10304 021a F0D3     		bcc	.L685
 10305              		.loc 1 4034 0 is_stmt 1
ARM GAS  /tmp/ccIWRJEN.s 			page 183


 10306 021c 099B     		ldr	r3, [sp, #36]
 10307 021e B3F1FF3F 		cmp	r3, #-1
 10308 0222 02D0     		beq	.L686
 10309              		.loc 1 4034 0 is_stmt 0 discriminator 1
 10310 0224 0A9B     		ldr	r3, [sp, #40]
 10311 0226 0993     		str	r3, [sp, #36]
 10312              		.loc 1 4035 0 is_stmt 1 discriminator 1
 10313 0228 DDE0     		b	.L661
 10314              	.L686:
 10315              		.loc 1 4035 0 is_stmt 0
 10316 022a DCE0     		b	.L661
 10317              	.L674:
 10318              		.loc 1 4037 0 is_stmt 1
 10319 022c 079B     		ldr	r3, [sp, #28]
 10320 022e 1A1D     		adds	r2, r3, #4
 10321 0230 0792     		str	r2, [sp, #28]
 10322 0232 1B68     		ldr	r3, [r3]
 10323 0234 DBB2     		uxtb	r3, r3
 10324 0236 1846     		mov	r0, r3
 10325 0238 0199     		ldr	r1, [sp, #4]
 10326 023a FFF7FEFF 		bl	f_putc
 10327 023e 0990     		str	r0, [sp, #36]
 10328 0240 D1E0     		b	.L661
 10329              	.L672:
 10330              		.loc 1 4039 0
 10331 0242 0223     		movs	r3, #2
 10332 0244 8DF84630 		strb	r3, [sp, #70]
 10333 0248 13E0     		b	.L687
 10334              	.L676:
 10335              		.loc 1 4041 0
 10336 024a 0823     		movs	r3, #8
 10337 024c 8DF84630 		strb	r3, [sp, #70]
 10338 0250 0FE0     		b	.L687
 10339              	.L675:
 10340              		.loc 1 4044 0
 10341 0252 0A23     		movs	r3, #10
 10342 0254 8DF84630 		strb	r3, [sp, #70]
 10343 0258 0BE0     		b	.L687
 10344              	.L678:
 10345              		.loc 1 4046 0
 10346 025a 1023     		movs	r3, #16
 10347 025c 8DF84630 		strb	r3, [sp, #70]
 10348 0260 07E0     		b	.L687
 10349              	.L671:
 10350              		.loc 1 4048 0
 10351 0262 9DF83330 		ldrb	r3, [sp, #51]	@ zero_extendqisi2
 10352 0266 1846     		mov	r0, r3
 10353 0268 0199     		ldr	r1, [sp, #4]
 10354 026a FFF7FEFF 		bl	f_putc
 10355 026e 0990     		str	r0, [sp, #36]
 10356 0270 B9E0     		b	.L661
 10357              	.L687:
 10358              		.loc 1 4052 0
 10359 0272 9DF84730 		ldrb	r3, [sp, #71]	@ zero_extendqisi2
 10360 0276 03F00403 		and	r3, r3, #4
 10361 027a 002B     		cmp	r3, #0
 10362 027c 04D0     		beq	.L688
ARM GAS  /tmp/ccIWRJEN.s 			page 184


 10363              		.loc 1 4052 0 is_stmt 0 discriminator 1
 10364 027e 079B     		ldr	r3, [sp, #28]
 10365 0280 1A1D     		adds	r2, r3, #4
 10366 0282 0792     		str	r2, [sp, #28]
 10367 0284 1B68     		ldr	r3, [r3]
 10368 0286 0CE0     		b	.L689
 10369              	.L688:
 10370              		.loc 1 4052 0 discriminator 2
 10371 0288 9DF83230 		ldrb	r3, [sp, #50]	@ zero_extendqisi2
 10372 028c 442B     		cmp	r3, #68
 10373 028e 04D1     		bne	.L690
 10374              		.loc 1 4052 0 discriminator 1
 10375 0290 079B     		ldr	r3, [sp, #28]
 10376 0292 1A1D     		adds	r2, r3, #4
 10377 0294 0792     		str	r2, [sp, #28]
 10378 0296 1B68     		ldr	r3, [r3]
 10379 0298 03E0     		b	.L689
 10380              	.L690:
 10381              		.loc 1 4052 0 discriminator 2
 10382 029a 079B     		ldr	r3, [sp, #28]
 10383 029c 1A1D     		adds	r2, r3, #4
 10384 029e 0792     		str	r2, [sp, #28]
 10385 02a0 1B68     		ldr	r3, [r3]
 10386              	.L689:
 10387              		.loc 1 4052 0 discriminator 3
 10388 02a2 0D93     		str	r3, [sp, #52]
 10389              		.loc 1 4053 0 is_stmt 1 discriminator 3
 10390 02a4 9DF83230 		ldrb	r3, [sp, #50]	@ zero_extendqisi2
 10391 02a8 442B     		cmp	r3, #68
 10392 02aa 0BD1     		bne	.L692
 10393              		.loc 1 4053 0 is_stmt 0 discriminator 1
 10394 02ac 0D9B     		ldr	r3, [sp, #52]
 10395 02ae 002B     		cmp	r3, #0
 10396 02b0 08DA     		bge	.L692
 10397              		.loc 1 4054 0 is_stmt 1
 10398 02b2 0D9B     		ldr	r3, [sp, #52]
 10399 02b4 5B42     		negs	r3, r3
 10400 02b6 0D93     		str	r3, [sp, #52]
 10401              		.loc 1 4055 0
 10402 02b8 9DF84730 		ldrb	r3, [sp, #71]
 10403 02bc 43F00803 		orr	r3, r3, #8
 10404 02c0 8DF84730 		strb	r3, [sp, #71]
 10405              	.L692:
 10406              		.loc 1 4057 0
 10407 02c4 0023     		movs	r3, #0
 10408 02c6 1093     		str	r3, [sp, #64]
 10409              	.L697:
 10410              		.loc 1 4059 0
 10411 02c8 9DF84620 		ldrb	r2, [sp, #70]	@ zero_extendqisi2
 10412 02cc 0D9B     		ldr	r3, [sp, #52]
 10413 02ce B3FBF2F1 		udiv	r1, r3, r2
 10414 02d2 02FB01F2 		mul	r2, r2, r1
 10415 02d6 9B1A     		subs	r3, r3, r2
 10416 02d8 8DF83230 		strb	r3, [sp, #50]
 10417 02dc 9DF84630 		ldrb	r3, [sp, #70]	@ zero_extendqisi2
 10418 02e0 0D9A     		ldr	r2, [sp, #52]
 10419 02e2 B2FBF3F3 		udiv	r3, r2, r3
ARM GAS  /tmp/ccIWRJEN.s 			page 185


 10420 02e6 0D93     		str	r3, [sp, #52]
 10421              		.loc 1 4060 0
 10422 02e8 9DF83230 		ldrb	r3, [sp, #50]	@ zero_extendqisi2
 10423 02ec 092B     		cmp	r3, #9
 10424 02ee 0BD9     		bls	.L693
 10425              		.loc 1 4060 0 is_stmt 0 discriminator 1
 10426 02f0 9DF83330 		ldrb	r3, [sp, #51]	@ zero_extendqisi2
 10427 02f4 782B     		cmp	r3, #120
 10428 02f6 01D1     		bne	.L694
 10429 02f8 2723     		movs	r3, #39
 10430 02fa 00E0     		b	.L695
 10431              	.L694:
 10432              		.loc 1 4060 0 discriminator 2
 10433 02fc 0723     		movs	r3, #7
 10434              	.L695:
 10435              		.loc 1 4060 0 discriminator 3
 10436 02fe 9DF83220 		ldrb	r2, [sp, #50]
 10437 0302 1344     		add	r3, r3, r2
 10438 0304 8DF83230 		strb	r3, [sp, #50]
 10439              	.L693:
 10440              		.loc 1 4061 0 is_stmt 1
 10441 0308 109B     		ldr	r3, [sp, #64]
 10442 030a 5A1C     		adds	r2, r3, #1
 10443 030c 1092     		str	r2, [sp, #64]
 10444 030e 9DF83220 		ldrb	r2, [sp, #50]
 10445 0312 3032     		adds	r2, r2, #48
 10446 0314 D2B2     		uxtb	r2, r2
 10447 0316 12A9     		add	r1, sp, #72
 10448 0318 0B44     		add	r3, r3, r1
 10449 031a 03F83C2C 		strb	r2, [r3, #-60]
 10450              		.loc 1 4062 0
 10451 031e 0D9B     		ldr	r3, [sp, #52]
 10452 0320 002B     		cmp	r3, #0
 10453 0322 02D0     		beq	.L696
 10454              		.loc 1 4062 0 is_stmt 0 discriminator 1
 10455 0324 109B     		ldr	r3, [sp, #64]
 10456 0326 0F2B     		cmp	r3, #15
 10457 0328 CED9     		bls	.L697
 10458              	.L696:
 10459              		.loc 1 4063 0 is_stmt 1
 10460 032a 9DF84730 		ldrb	r3, [sp, #71]	@ zero_extendqisi2
 10461 032e 03F00803 		and	r3, r3, #8
 10462 0332 002B     		cmp	r3, #0
 10463 0334 07D0     		beq	.L698
 10464              		.loc 1 4063 0 is_stmt 0 discriminator 1
 10465 0336 109B     		ldr	r3, [sp, #64]
 10466 0338 5A1C     		adds	r2, r3, #1
 10467 033a 1092     		str	r2, [sp, #64]
 10468 033c 12AA     		add	r2, sp, #72
 10469 033e 1344     		add	r3, r3, r2
 10470 0340 2D22     		movs	r2, #45
 10471 0342 03F83C2C 		strb	r2, [r3, #-60]
 10472              	.L698:
 10473              		.loc 1 4064 0 is_stmt 1
 10474 0346 109B     		ldr	r3, [sp, #64]
 10475 0348 0F93     		str	r3, [sp, #60]
 10476 034a 9DF84730 		ldrb	r3, [sp, #71]	@ zero_extendqisi2
ARM GAS  /tmp/ccIWRJEN.s 			page 186


 10477 034e 03F00103 		and	r3, r3, #1
 10478 0352 002B     		cmp	r3, #0
 10479 0354 01D0     		beq	.L699
 10480              		.loc 1 4064 0 is_stmt 0 discriminator 1
 10481 0356 3023     		movs	r3, #48
 10482 0358 00E0     		b	.L700
 10483              	.L699:
 10484              		.loc 1 4064 0 discriminator 2
 10485 035a 2023     		movs	r3, #32
 10486              	.L700:
 10487              		.loc 1 4064 0 discriminator 3
 10488 035c 8DF83230 		strb	r3, [sp, #50]
 10489              		.loc 1 4065 0 is_stmt 1 discriminator 3
 10490 0360 0023     		movs	r3, #0
 10491 0362 0B93     		str	r3, [sp, #44]
 10492              		.loc 1 4066 0 discriminator 3
 10493 0364 0AE0     		b	.L701
 10494              	.L703:
 10495              		.loc 1 4066 0 is_stmt 0 discriminator 1
 10496 0366 9DF83230 		ldrb	r3, [sp, #50]	@ zero_extendqisi2
 10497 036a 1846     		mov	r0, r3
 10498 036c 0199     		ldr	r1, [sp, #4]
 10499 036e FFF7FEFF 		bl	f_putc
 10500 0372 0990     		str	r0, [sp, #36]
 10501 0374 0B9A     		ldr	r2, [sp, #44]
 10502 0376 099B     		ldr	r3, [sp, #36]
 10503 0378 1344     		add	r3, r3, r2
 10504 037a 0B93     		str	r3, [sp, #44]
 10505              	.L701:
 10506 037c 9DF84730 		ldrb	r3, [sp, #71]	@ zero_extendqisi2
 10507 0380 03F00203 		and	r3, r3, #2
 10508 0384 002B     		cmp	r3, #0
 10509 0386 05D1     		bne	.L702
 10510              		.loc 1 4066 0 discriminator 2
 10511 0388 0F9B     		ldr	r3, [sp, #60]
 10512 038a 5A1C     		adds	r2, r3, #1
 10513 038c 0F92     		str	r2, [sp, #60]
 10514 038e 0E9A     		ldr	r2, [sp, #56]
 10515 0390 9342     		cmp	r3, r2
 10516 0392 E8D3     		bcc	.L703
 10517              	.L702:
 10518              		.loc 1 4067 0 is_stmt 1 discriminator 1
 10519 0394 109B     		ldr	r3, [sp, #64]
 10520 0396 013B     		subs	r3, r3, #1
 10521 0398 1093     		str	r3, [sp, #64]
 10522 039a 03AA     		add	r2, sp, #12
 10523 039c 109B     		ldr	r3, [sp, #64]
 10524 039e 1344     		add	r3, r3, r2
 10525 03a0 1B78     		ldrb	r3, [r3]	@ zero_extendqisi2
 10526 03a2 1846     		mov	r0, r3
 10527 03a4 0199     		ldr	r1, [sp, #4]
 10528 03a6 FFF7FEFF 		bl	f_putc
 10529 03aa 0990     		str	r0, [sp, #36]
 10530 03ac 0B9A     		ldr	r2, [sp, #44]
 10531 03ae 099B     		ldr	r3, [sp, #36]
 10532 03b0 1344     		add	r3, r3, r2
 10533 03b2 0B93     		str	r3, [sp, #44]
ARM GAS  /tmp/ccIWRJEN.s 			page 187


 10534 03b4 109B     		ldr	r3, [sp, #64]
 10535 03b6 002B     		cmp	r3, #0
 10536 03b8 ECD1     		bne	.L702
 10537              		.loc 1 4068 0
 10538 03ba 08E0     		b	.L704
 10539              	.L705:
 10540              		.loc 1 4068 0 is_stmt 0 discriminator 2
 10541 03bc 2020     		movs	r0, #32
 10542 03be 0199     		ldr	r1, [sp, #4]
 10543 03c0 FFF7FEFF 		bl	f_putc
 10544 03c4 0990     		str	r0, [sp, #36]
 10545 03c6 0B9A     		ldr	r2, [sp, #44]
 10546 03c8 099B     		ldr	r3, [sp, #36]
 10547 03ca 1344     		add	r3, r3, r2
 10548 03cc 0B93     		str	r3, [sp, #44]
 10549              	.L704:
 10550              		.loc 1 4068 0 discriminator 1
 10551 03ce 0F9B     		ldr	r3, [sp, #60]
 10552 03d0 5A1C     		adds	r2, r3, #1
 10553 03d2 0F92     		str	r2, [sp, #60]
 10554 03d4 0E9A     		ldr	r2, [sp, #56]
 10555 03d6 9342     		cmp	r3, r2
 10556 03d8 F0D3     		bcc	.L705
 10557              		.loc 1 4069 0 is_stmt 1
 10558 03da 099B     		ldr	r3, [sp, #36]
 10559 03dc B3F1FF3F 		cmp	r3, #-1
 10560 03e0 01D0     		beq	.L661
 10561              		.loc 1 4069 0 is_stmt 0 discriminator 1
 10562 03e2 0B9B     		ldr	r3, [sp, #44]
 10563 03e4 0993     		str	r3, [sp, #36]
 10564              	.L661:
 10565              		.loc 1 3997 0 is_stmt 1
 10566 03e6 0B9A     		ldr	r2, [sp, #44]
 10567 03e8 099B     		ldr	r3, [sp, #36]
 10568 03ea 1344     		add	r3, r3, r2
 10569 03ec 0B93     		str	r3, [sp, #44]
 10570              	.L656:
 10571              		.loc 1 3997 0 is_stmt 0 discriminator 1
 10572 03ee 099B     		ldr	r3, [sp, #36]
 10573 03f0 B3F1FF3F 		cmp	r3, #-1
 10574 03f4 7FF40FAE 		bne	.L706
 10575              	.L658:
 10576              		.loc 1 4073 0 is_stmt 1
 10577 03f8 099B     		ldr	r3, [sp, #36]
 10578 03fa B3F1FF3F 		cmp	r3, #-1
 10579 03fe 01D1     		bne	.L707
 10580              		.loc 1 4073 0 is_stmt 0 discriminator 1
 10581 0400 099B     		ldr	r3, [sp, #36]
 10582 0402 00E0     		b	.L708
 10583              	.L707:
 10584              		.loc 1 4073 0 discriminator 2
 10585 0404 0B9B     		ldr	r3, [sp, #44]
 10586              	.L708:
 10587              		.loc 1 4074 0 is_stmt 1 discriminator 3
 10588 0406 1846     		mov	r0, r3
 10589 0408 12B0     		add	sp, sp, #72
 10590              		@ sp needed
ARM GAS  /tmp/ccIWRJEN.s 			page 188


 10591 040a 5DF804EB 		ldr	lr, [sp], #4
 10592 040e 03B0     		add	sp, sp, #12
 10593 0410 7047     		bx	lr
 10594              		.cfi_endproc
 10595              	.LFE56:
 10596              		.size	f_printf, .-f_printf
 10597 0412 00BFAFF3 		.section	.rodata.excvt.5289,"a",%progbits
 10597      0080AFF3 
 10597      0080AFF3 
 10597      0080
 10598              		.align	2
 10599              		.type	excvt.5289, %object
 10600              		.size	excvt.5289, 128
 10601              	excvt.5289:
 10602 0000 80       		.byte	-128
 10603 0001 81       		.byte	-127
 10604 0002 82       		.byte	-126
 10605 0003 82       		.byte	-126
 10606 0004 84       		.byte	-124
 10607 0005 85       		.byte	-123
 10608 0006 86       		.byte	-122
 10609 0007 87       		.byte	-121
 10610 0008 88       		.byte	-120
 10611 0009 89       		.byte	-119
 10612 000a 8A       		.byte	-118
 10613 000b 8B       		.byte	-117
 10614 000c 8C       		.byte	-116
 10615 000d 8D       		.byte	-115
 10616 000e 8E       		.byte	-114
 10617 000f 8F       		.byte	-113
 10618 0010 80       		.byte	-128
 10619 0011 91       		.byte	-111
 10620 0012 92       		.byte	-110
 10621 0013 93       		.byte	-109
 10622 0014 94       		.byte	-108
 10623 0015 95       		.byte	-107
 10624 0016 96       		.byte	-106
 10625 0017 97       		.byte	-105
 10626 0018 98       		.byte	-104
 10627 0019 99       		.byte	-103
 10628 001a 8A       		.byte	-118
 10629 001b 9B       		.byte	-101
 10630 001c 8C       		.byte	-116
 10631 001d 8D       		.byte	-115
 10632 001e 8E       		.byte	-114
 10633 001f 8F       		.byte	-113
 10634 0020 A0       		.byte	-96
 10635 0021 A2       		.byte	-94
 10636 0022 A2       		.byte	-94
 10637 0023 A3       		.byte	-93
 10638 0024 A4       		.byte	-92
 10639 0025 A5       		.byte	-91
 10640 0026 A6       		.byte	-90
 10641 0027 A7       		.byte	-89
 10642 0028 A8       		.byte	-88
 10643 0029 A9       		.byte	-87
 10644 002a AA       		.byte	-86
ARM GAS  /tmp/ccIWRJEN.s 			page 189


 10645 002b AB       		.byte	-85
 10646 002c AC       		.byte	-84
 10647 002d AD       		.byte	-83
 10648 002e AE       		.byte	-82
 10649 002f AF       		.byte	-81
 10650 0030 B0       		.byte	-80
 10651 0031 B1       		.byte	-79
 10652 0032 B2       		.byte	-78
 10653 0033 B2       		.byte	-78
 10654 0034 A5       		.byte	-91
 10655 0035 B5       		.byte	-75
 10656 0036 B6       		.byte	-74
 10657 0037 B7       		.byte	-73
 10658 0038 A8       		.byte	-88
 10659 0039 B9       		.byte	-71
 10660 003a AA       		.byte	-86
 10661 003b BB       		.byte	-69
 10662 003c A3       		.byte	-93
 10663 003d BD       		.byte	-67
 10664 003e BD       		.byte	-67
 10665 003f AF       		.byte	-81
 10666 0040 C0       		.byte	-64
 10667 0041 C1       		.byte	-63
 10668 0042 C2       		.byte	-62
 10669 0043 C3       		.byte	-61
 10670 0044 C4       		.byte	-60
 10671 0045 C5       		.byte	-59
 10672 0046 C6       		.byte	-58
 10673 0047 C7       		.byte	-57
 10674 0048 C8       		.byte	-56
 10675 0049 C9       		.byte	-55
 10676 004a CA       		.byte	-54
 10677 004b CB       		.byte	-53
 10678 004c CC       		.byte	-52
 10679 004d CD       		.byte	-51
 10680 004e CE       		.byte	-50
 10681 004f CF       		.byte	-49
 10682 0050 D0       		.byte	-48
 10683 0051 D1       		.byte	-47
 10684 0052 D2       		.byte	-46
 10685 0053 D3       		.byte	-45
 10686 0054 D4       		.byte	-44
 10687 0055 D5       		.byte	-43
 10688 0056 D6       		.byte	-42
 10689 0057 D7       		.byte	-41
 10690 0058 D8       		.byte	-40
 10691 0059 D9       		.byte	-39
 10692 005a DA       		.byte	-38
 10693 005b DB       		.byte	-37
 10694 005c DC       		.byte	-36
 10695 005d DD       		.byte	-35
 10696 005e DE       		.byte	-34
 10697 005f DF       		.byte	-33
 10698 0060 C0       		.byte	-64
 10699 0061 C1       		.byte	-63
 10700 0062 C2       		.byte	-62
 10701 0063 C3       		.byte	-61
ARM GAS  /tmp/ccIWRJEN.s 			page 190


 10702 0064 C4       		.byte	-60
 10703 0065 C5       		.byte	-59
 10704 0066 C6       		.byte	-58
 10705 0067 C7       		.byte	-57
 10706 0068 C8       		.byte	-56
 10707 0069 C9       		.byte	-55
 10708 006a CA       		.byte	-54
 10709 006b CB       		.byte	-53
 10710 006c CC       		.byte	-52
 10711 006d CD       		.byte	-51
 10712 006e CE       		.byte	-50
 10713 006f CF       		.byte	-49
 10714 0070 D0       		.byte	-48
 10715 0071 D1       		.byte	-47
 10716 0072 D2       		.byte	-46
 10717 0073 D3       		.byte	-45
 10718 0074 D4       		.byte	-44
 10719 0075 D5       		.byte	-43
 10720 0076 D6       		.byte	-42
 10721 0077 D7       		.byte	-41
 10722 0078 D8       		.byte	-40
 10723 0079 D9       		.byte	-39
 10724 007a DA       		.byte	-38
 10725 007b DB       		.byte	-37
 10726 007c DC       		.byte	-36
 10727 007d DD       		.byte	-35
 10728 007e DE       		.byte	-34
 10729 007f DF       		.byte	-33
 10730              		.section	.rodata.vst.5555,"a",%progbits
 10731              		.align	2
 10732              		.type	vst.5555, %object
 10733              		.size	vst.5555, 22
 10734              	vst.5555:
 10735 0000 0004     		.short	1024
 10736 0002 0002     		.short	512
 10737 0004 0001     		.short	256
 10738 0006 8000     		.short	128
 10739 0008 4000     		.short	64
 10740 000a 2000     		.short	32
 10741 000c 1000     		.short	16
 10742 000e 0800     		.short	8
 10743 0010 0400     		.short	4
 10744 0012 0200     		.short	2
 10745 0014 0000     		.short	0
 10746 0016 0000     		.section	.rodata.cst.5556,"a",%progbits
 10747              		.align	2
 10748              		.type	cst.5556, %object
 10749              		.size	cst.5556, 22
 10750              	cst.5556:
 10751 0000 0080     		.short	-32768
 10752 0002 0040     		.short	16384
 10753 0004 0020     		.short	8192
 10754 0006 0010     		.short	4096
 10755 0008 0008     		.short	2048
 10756 000a 0040     		.short	16384
 10757 000c 0020     		.short	8192
 10758 000e 0010     		.short	4096
ARM GAS  /tmp/ccIWRJEN.s 			page 191


 10759 0010 0008     		.short	2048
 10760 0012 0004     		.short	1024
 10761 0014 0002     		.short	512
 10762 0016 0000     		.text
 10763              	.Letext0:
 10764              		.file 2 "../..//ext/fatfs/src/integer.h"
 10765              		.file 3 "../..//ext/fatfs/src/ff.h"
 10766              		.file 4 "../..//ext/fatfs/src/diskio.h"
 10767              		.file 5 "/usr/lib/gcc/arm-none-eabi/4.8.2/include/stdarg.h"
 10768              		.file 6 "<built-in>"
 10769              		.section	.debug_info,"",%progbits
 10770              	.Ldebug_info0:
 10771 0000 001F0000 		.4byte	0x1f00
 10772 0004 0400     		.2byte	0x4
 10773 0006 00000000 		.4byte	.Ldebug_abbrev0
 10774 000a 04       		.byte	0x4
 10775 000b 01       		.uleb128 0x1
 10776 000c F1040000 		.4byte	.LASF178
 10777 0010 01       		.byte	0x1
 10778 0011 83000000 		.4byte	.LASF179
 10779 0015 C1000000 		.4byte	.LASF180
 10780 0019 00000000 		.4byte	.Ldebug_ranges0+0
 10781 001d 00000000 		.4byte	0
 10782 0021 00000000 		.4byte	.Ldebug_line0
 10783 0025 02       		.uleb128 0x2
 10784 0026 04       		.byte	0x4
 10785 0027 05       		.byte	0x5
 10786 0028 696E7400 		.ascii	"int\000"
 10787 002c 03       		.uleb128 0x3
 10788 002d AA050000 		.4byte	.LASF3
 10789 0031 02       		.byte	0x2
 10790 0032 11       		.byte	0x11
 10791 0033 37000000 		.4byte	0x37
 10792 0037 04       		.uleb128 0x4
 10793 0038 04       		.byte	0x4
 10794 0039 07       		.byte	0x7
 10795 003a 58000000 		.4byte	.LASF0
 10796 003e 04       		.uleb128 0x4
 10797 003f 01       		.byte	0x1
 10798 0040 08       		.byte	0x8
 10799 0041 C8020000 		.4byte	.LASF1
 10800 0045 04       		.uleb128 0x4
 10801 0046 01       		.byte	0x1
 10802 0047 08       		.byte	0x8
 10803 0048 30060000 		.4byte	.LASF2
 10804 004c 03       		.uleb128 0x3
 10805 004d B0030000 		.4byte	.LASF4
 10806 0051 02       		.byte	0x2
 10807 0052 16       		.byte	0x16
 10808 0053 45000000 		.4byte	0x45
 10809 0057 04       		.uleb128 0x4
 10810 0058 02       		.byte	0x2
 10811 0059 05       		.byte	0x5
 10812 005a 8B040000 		.4byte	.LASF5
 10813 005e 04       		.uleb128 0x4
 10814 005f 02       		.byte	0x2
 10815 0060 07       		.byte	0x7
ARM GAS  /tmp/ccIWRJEN.s 			page 192


 10816 0061 9D060000 		.4byte	.LASF6
 10817 0065 03       		.uleb128 0x3
 10818 0066 C8030000 		.4byte	.LASF7
 10819 006a 02       		.byte	0x2
 10820 006b 1B       		.byte	0x1b
 10821 006c 5E000000 		.4byte	0x5e
 10822 0070 03       		.uleb128 0x3
 10823 0071 5B010000 		.4byte	.LASF8
 10824 0075 02       		.byte	0x2
 10825 0076 1C       		.byte	0x1c
 10826 0077 5E000000 		.4byte	0x5e
 10827 007b 04       		.uleb128 0x4
 10828 007c 04       		.byte	0x4
 10829 007d 05       		.byte	0x5
 10830 007e B6040000 		.4byte	.LASF9
 10831 0082 03       		.uleb128 0x3
 10832 0083 BF040000 		.4byte	.LASF10
 10833 0087 02       		.byte	0x2
 10834 0088 20       		.byte	0x20
 10835 0089 8D000000 		.4byte	0x8d
 10836 008d 04       		.uleb128 0x4
 10837 008e 04       		.byte	0x4
 10838 008f 07       		.byte	0x7
 10839 0090 CE050000 		.4byte	.LASF11
 10840 0094 03       		.uleb128 0x3
 10841 0095 8D010000 		.4byte	.LASF12
 10842 0099 02       		.byte	0x2
 10843 009a 21       		.byte	0x21
 10844 009b 8D000000 		.4byte	0x8d
 10845 009f 04       		.uleb128 0x4
 10846 00a0 01       		.byte	0x1
 10847 00a1 06       		.byte	0x6
 10848 00a2 91060000 		.4byte	.LASF13
 10849 00a6 04       		.uleb128 0x4
 10850 00a7 08       		.byte	0x8
 10851 00a8 05       		.byte	0x5
 10852 00a9 66030000 		.4byte	.LASF14
 10853 00ad 04       		.uleb128 0x4
 10854 00ae 08       		.byte	0x8
 10855 00af 07       		.byte	0x7
 10856 00b0 A2010000 		.4byte	.LASF15
 10857 00b4 04       		.uleb128 0x4
 10858 00b5 01       		.byte	0x1
 10859 00b6 02       		.byte	0x2
 10860 00b7 52020000 		.4byte	.LASF16
 10861 00bb 05       		.uleb128 0x5
 10862 00bc 04       		.byte	0x4
 10863 00bd 04       		.uleb128 0x4
 10864 00be 04       		.byte	0x4
 10865 00bf 07       		.byte	0x7
 10866 00c0 C5050000 		.4byte	.LASF17
 10867 00c4 06       		.uleb128 0x6
 10868 00c5 04       		.byte	0x4
 10869 00c6 CA000000 		.4byte	0xca
 10870 00ca 07       		.uleb128 0x7
 10871 00cb 3E000000 		.4byte	0x3e
 10872 00cf 03       		.uleb128 0x3
ARM GAS  /tmp/ccIWRJEN.s 			page 193


 10873 00d0 93010000 		.4byte	.LASF18
 10874 00d4 03       		.byte	0x3
 10875 00d5 42       		.byte	0x42
 10876 00d6 3E000000 		.4byte	0x3e
 10877 00da 08       		.uleb128 0x8
 10878 00db 3002     		.2byte	0x230
 10879 00dd 03       		.byte	0x3
 10880 00de 4D       		.byte	0x4d
 10881 00df BB010000 		.4byte	0x1bb
 10882 00e3 09       		.uleb128 0x9
 10883 00e4 EA010000 		.4byte	.LASF19
 10884 00e8 03       		.byte	0x3
 10885 00e9 4E       		.byte	0x4e
 10886 00ea 4C000000 		.4byte	0x4c
 10887 00ee 00       		.byte	0
 10888 00ef 0A       		.uleb128 0xa
 10889 00f0 64727600 		.ascii	"drv\000"
 10890 00f4 03       		.byte	0x3
 10891 00f5 4F       		.byte	0x4f
 10892 00f6 4C000000 		.4byte	0x4c
 10893 00fa 01       		.byte	0x1
 10894 00fb 09       		.uleb128 0x9
 10895 00fc CD030000 		.4byte	.LASF20
 10896 0100 03       		.byte	0x3
 10897 0101 50       		.byte	0x50
 10898 0102 4C000000 		.4byte	0x4c
 10899 0106 02       		.byte	0x2
 10900 0107 09       		.uleb128 0x9
 10901 0108 76000000 		.4byte	.LASF21
 10902 010c 03       		.byte	0x3
 10903 010d 51       		.byte	0x51
 10904 010e 4C000000 		.4byte	0x4c
 10905 0112 03       		.byte	0x3
 10906 0113 09       		.uleb128 0x9
 10907 0114 9F030000 		.4byte	.LASF22
 10908 0118 03       		.byte	0x3
 10909 0119 52       		.byte	0x52
 10910 011a 4C000000 		.4byte	0x4c
 10911 011e 04       		.byte	0x4
 10912 011f 09       		.uleb128 0x9
 10913 0120 61010000 		.4byte	.LASF23
 10914 0124 03       		.byte	0x3
 10915 0125 53       		.byte	0x53
 10916 0126 4C000000 		.4byte	0x4c
 10917 012a 05       		.byte	0x5
 10918 012b 0A       		.uleb128 0xa
 10919 012c 696400   		.ascii	"id\000"
 10920 012f 03       		.byte	0x3
 10921 0130 54       		.byte	0x54
 10922 0131 65000000 		.4byte	0x65
 10923 0135 06       		.byte	0x6
 10924 0136 09       		.uleb128 0x9
 10925 0137 98050000 		.4byte	.LASF24
 10926 013b 03       		.byte	0x3
 10927 013c 55       		.byte	0x55
 10928 013d 65000000 		.4byte	0x65
 10929 0141 08       		.byte	0x8
ARM GAS  /tmp/ccIWRJEN.s 			page 194


 10930 0142 09       		.uleb128 0x9
 10931 0143 1E030000 		.4byte	.LASF25
 10932 0147 03       		.byte	0x3
 10933 0148 5D       		.byte	0x5d
 10934 0149 94000000 		.4byte	0x94
 10935 014d 0C       		.byte	0xc
 10936 014e 09       		.uleb128 0x9
 10937 014f 39030000 		.4byte	.LASF26
 10938 0153 03       		.byte	0x3
 10939 0154 5E       		.byte	0x5e
 10940 0155 94000000 		.4byte	0x94
 10941 0159 10       		.byte	0x10
 10942 015a 09       		.uleb128 0x9
 10943 015b 29030000 		.4byte	.LASF27
 10944 015f 03       		.byte	0x3
 10945 0160 5F       		.byte	0x5f
 10946 0161 94000000 		.4byte	0x94
 10947 0165 14       		.byte	0x14
 10948 0166 09       		.uleb128 0x9
 10949 0167 F4030000 		.4byte	.LASF28
 10950 016b 03       		.byte	0x3
 10951 016c 64       		.byte	0x64
 10952 016d 94000000 		.4byte	0x94
 10953 0171 18       		.byte	0x18
 10954 0172 09       		.uleb128 0x9
 10955 0173 74030000 		.4byte	.LASF29
 10956 0177 03       		.byte	0x3
 10957 0178 65       		.byte	0x65
 10958 0179 94000000 		.4byte	0x94
 10959 017d 1C       		.byte	0x1c
 10960 017e 09       		.uleb128 0x9
 10961 017f F2010000 		.4byte	.LASF30
 10962 0183 03       		.byte	0x3
 10963 0184 66       		.byte	0x66
 10964 0185 94000000 		.4byte	0x94
 10965 0189 20       		.byte	0x20
 10966 018a 09       		.uleb128 0x9
 10967 018b 07040000 		.4byte	.LASF31
 10968 018f 03       		.byte	0x3
 10969 0190 67       		.byte	0x67
 10970 0191 94000000 		.4byte	0x94
 10971 0195 24       		.byte	0x24
 10972 0196 09       		.uleb128 0x9
 10973 0197 B0060000 		.4byte	.LASF32
 10974 019b 03       		.byte	0x3
 10975 019c 68       		.byte	0x68
 10976 019d 94000000 		.4byte	0x94
 10977 01a1 28       		.byte	0x28
 10978 01a2 09       		.uleb128 0x9
 10979 01a3 B9000000 		.4byte	.LASF33
 10980 01a7 03       		.byte	0x3
 10981 01a8 69       		.byte	0x69
 10982 01a9 94000000 		.4byte	0x94
 10983 01ad 2C       		.byte	0x2c
 10984 01ae 0A       		.uleb128 0xa
 10985 01af 77696E00 		.ascii	"win\000"
 10986 01b3 03       		.byte	0x3
ARM GAS  /tmp/ccIWRJEN.s 			page 195


 10987 01b4 6A       		.byte	0x6a
 10988 01b5 BB010000 		.4byte	0x1bb
 10989 01b9 30       		.byte	0x30
 10990 01ba 00       		.byte	0
 10991 01bb 0B       		.uleb128 0xb
 10992 01bc 4C000000 		.4byte	0x4c
 10993 01c0 CC010000 		.4byte	0x1cc
 10994 01c4 0C       		.uleb128 0xc
 10995 01c5 BD000000 		.4byte	0xbd
 10996 01c9 FF01     		.2byte	0x1ff
 10997 01cb 00       		.byte	0
 10998 01cc 03       		.uleb128 0x3
 10999 01cd 4A000000 		.4byte	.LASF34
 11000 01d1 03       		.byte	0x3
 11001 01d2 6B       		.byte	0x6b
 11002 01d3 DA000000 		.4byte	0xda
 11003 01d7 08       		.uleb128 0x8
 11004 01d8 2402     		.2byte	0x224
 11005 01da 03       		.byte	0x3
 11006 01db 71       		.byte	0x71
 11007 01dc 6F020000 		.4byte	0x26f
 11008 01e0 0A       		.uleb128 0xa
 11009 01e1 667300   		.ascii	"fs\000"
 11010 01e4 03       		.byte	0x3
 11011 01e5 72       		.byte	0x72
 11012 01e6 6F020000 		.4byte	0x26f
 11013 01ea 00       		.byte	0
 11014 01eb 0A       		.uleb128 0xa
 11015 01ec 696400   		.ascii	"id\000"
 11016 01ef 03       		.byte	0x3
 11017 01f0 73       		.byte	0x73
 11018 01f1 65000000 		.4byte	0x65
 11019 01f5 04       		.byte	0x4
 11020 01f6 09       		.uleb128 0x9
 11021 01f7 EC040000 		.4byte	.LASF35
 11022 01fb 03       		.byte	0x3
 11023 01fc 74       		.byte	0x74
 11024 01fd 4C000000 		.4byte	0x4c
 11025 0201 06       		.byte	0x6
 11026 0202 09       		.uleb128 0x9
 11027 0203 CF010000 		.4byte	.LASF36
 11028 0207 03       		.byte	0x3
 11029 0208 75       		.byte	0x75
 11030 0209 4C000000 		.4byte	0x4c
 11031 020d 07       		.byte	0x7
 11032 020e 09       		.uleb128 0x9
 11033 020f EA030000 		.4byte	.LASF37
 11034 0213 03       		.byte	0x3
 11035 0214 76       		.byte	0x76
 11036 0215 94000000 		.4byte	0x94
 11037 0219 08       		.byte	0x8
 11038 021a 09       		.uleb128 0x9
 11039 021b 74030000 		.4byte	.LASF29
 11040 021f 03       		.byte	0x3
 11041 0220 77       		.byte	0x77
 11042 0221 94000000 		.4byte	0x94
 11043 0225 0C       		.byte	0xc
ARM GAS  /tmp/ccIWRJEN.s 			page 196


 11044 0226 09       		.uleb128 0x9
 11045 0227 09070000 		.4byte	.LASF38
 11046 022b 03       		.byte	0x3
 11047 022c 78       		.byte	0x78
 11048 022d 94000000 		.4byte	0x94
 11049 0231 10       		.byte	0x10
 11050 0232 09       		.uleb128 0x9
 11051 0233 25060000 		.4byte	.LASF39
 11052 0237 03       		.byte	0x3
 11053 0238 79       		.byte	0x79
 11054 0239 94000000 		.4byte	0x94
 11055 023d 14       		.byte	0x14
 11056 023e 09       		.uleb128 0x9
 11057 023f B3000000 		.4byte	.LASF40
 11058 0243 03       		.byte	0x3
 11059 0244 7A       		.byte	0x7a
 11060 0245 94000000 		.4byte	0x94
 11061 0249 18       		.byte	0x18
 11062 024a 09       		.uleb128 0x9
 11063 024b 6A010000 		.4byte	.LASF41
 11064 024f 03       		.byte	0x3
 11065 0250 7C       		.byte	0x7c
 11066 0251 94000000 		.4byte	0x94
 11067 0255 1C       		.byte	0x1c
 11068 0256 09       		.uleb128 0x9
 11069 0257 35000000 		.4byte	.LASF42
 11070 025b 03       		.byte	0x3
 11071 025c 7D       		.byte	0x7d
 11072 025d 75020000 		.4byte	0x275
 11073 0261 20       		.byte	0x20
 11074 0262 0A       		.uleb128 0xa
 11075 0263 62756600 		.ascii	"buf\000"
 11076 0267 03       		.byte	0x3
 11077 0268 86       		.byte	0x86
 11078 0269 BB010000 		.4byte	0x1bb
 11079 026d 24       		.byte	0x24
 11080 026e 00       		.byte	0
 11081 026f 06       		.uleb128 0x6
 11082 0270 04       		.byte	0x4
 11083 0271 CC010000 		.4byte	0x1cc
 11084 0275 06       		.uleb128 0x6
 11085 0276 04       		.byte	0x4
 11086 0277 4C000000 		.4byte	0x4c
 11087 027b 0D       		.uleb128 0xd
 11088 027c 46494C00 		.ascii	"FIL\000"
 11089 0280 03       		.byte	0x3
 11090 0281 88       		.byte	0x88
 11091 0282 D7010000 		.4byte	0x1d7
 11092 0286 0E       		.uleb128 0xe
 11093 0287 24       		.byte	0x24
 11094 0288 03       		.byte	0x3
 11095 0289 8E       		.byte	0x8e
 11096 028a 04030000 		.4byte	0x304
 11097 028e 0A       		.uleb128 0xa
 11098 028f 667300   		.ascii	"fs\000"
 11099 0292 03       		.byte	0x3
 11100 0293 8F       		.byte	0x8f
ARM GAS  /tmp/ccIWRJEN.s 			page 197


 11101 0294 6F020000 		.4byte	0x26f
 11102 0298 00       		.byte	0
 11103 0299 0A       		.uleb128 0xa
 11104 029a 696400   		.ascii	"id\000"
 11105 029d 03       		.byte	0x3
 11106 029e 90       		.byte	0x90
 11107 029f 65000000 		.4byte	0x65
 11108 02a3 04       		.byte	0x4
 11109 02a4 09       		.uleb128 0x9
 11110 02a5 87010000 		.4byte	.LASF43
 11111 02a9 03       		.byte	0x3
 11112 02aa 91       		.byte	0x91
 11113 02ab 65000000 		.4byte	0x65
 11114 02af 06       		.byte	0x6
 11115 02b0 09       		.uleb128 0x9
 11116 02b1 09070000 		.4byte	.LASF38
 11117 02b5 03       		.byte	0x3
 11118 02b6 92       		.byte	0x92
 11119 02b7 94000000 		.4byte	0x94
 11120 02bb 08       		.byte	0x8
 11121 02bc 09       		.uleb128 0x9
 11122 02bd 25060000 		.4byte	.LASF39
 11123 02c1 03       		.byte	0x3
 11124 02c2 93       		.byte	0x93
 11125 02c3 94000000 		.4byte	0x94
 11126 02c7 0C       		.byte	0xc
 11127 02c8 09       		.uleb128 0x9
 11128 02c9 34030000 		.4byte	.LASF44
 11129 02cd 03       		.byte	0x3
 11130 02ce 94       		.byte	0x94
 11131 02cf 94000000 		.4byte	0x94
 11132 02d3 10       		.byte	0x10
 11133 02d4 0A       		.uleb128 0xa
 11134 02d5 64697200 		.ascii	"dir\000"
 11135 02d9 03       		.byte	0x3
 11136 02da 95       		.byte	0x95
 11137 02db 75020000 		.4byte	0x275
 11138 02df 14       		.byte	0x14
 11139 02e0 0A       		.uleb128 0xa
 11140 02e1 666E00   		.ascii	"fn\000"
 11141 02e4 03       		.byte	0x3
 11142 02e5 96       		.byte	0x96
 11143 02e6 75020000 		.4byte	0x275
 11144 02ea 18       		.byte	0x18
 11145 02eb 0A       		.uleb128 0xa
 11146 02ec 6C666E00 		.ascii	"lfn\000"
 11147 02f0 03       		.byte	0x3
 11148 02f1 98       		.byte	0x98
 11149 02f2 04030000 		.4byte	0x304
 11150 02f6 1C       		.byte	0x1c
 11151 02f7 09       		.uleb128 0x9
 11152 02f8 73010000 		.4byte	.LASF45
 11153 02fc 03       		.byte	0x3
 11154 02fd 99       		.byte	0x99
 11155 02fe 65000000 		.4byte	0x65
 11156 0302 20       		.byte	0x20
 11157 0303 00       		.byte	0
ARM GAS  /tmp/ccIWRJEN.s 			page 198


 11158 0304 06       		.uleb128 0x6
 11159 0305 04       		.byte	0x4
 11160 0306 70000000 		.4byte	0x70
 11161 030a 0D       		.uleb128 0xd
 11162 030b 44495200 		.ascii	"DIR\000"
 11163 030f 03       		.byte	0x3
 11164 0310 9B       		.byte	0x9b
 11165 0311 86020000 		.4byte	0x286
 11166 0315 0E       		.uleb128 0xe
 11167 0316 20       		.byte	0x20
 11168 0317 03       		.byte	0x3
 11169 0318 A1       		.byte	0xa1
 11170 0319 72030000 		.4byte	0x372
 11171 031d 09       		.uleb128 0x9
 11172 031e 74030000 		.4byte	.LASF29
 11173 0322 03       		.byte	0x3
 11174 0323 A2       		.byte	0xa2
 11175 0324 94000000 		.4byte	0x94
 11176 0328 00       		.byte	0
 11177 0329 09       		.uleb128 0x9
 11178 032a 4F010000 		.4byte	.LASF46
 11179 032e 03       		.byte	0x3
 11180 032f A3       		.byte	0xa3
 11181 0330 65000000 		.4byte	0x65
 11182 0334 04       		.byte	0x4
 11183 0335 09       		.uleb128 0x9
 11184 0336 7B010000 		.4byte	.LASF47
 11185 033a 03       		.byte	0x3
 11186 033b A4       		.byte	0xa4
 11187 033c 65000000 		.4byte	0x65
 11188 0340 06       		.byte	0x6
 11189 0341 09       		.uleb128 0x9
 11190 0342 A2050000 		.4byte	.LASF48
 11191 0346 03       		.byte	0x3
 11192 0347 A5       		.byte	0xa5
 11193 0348 4C000000 		.4byte	0x4c
 11194 034c 08       		.byte	0x8
 11195 034d 09       		.uleb128 0x9
 11196 034e 0F040000 		.4byte	.LASF49
 11197 0352 03       		.byte	0x3
 11198 0353 A6       		.byte	0xa6
 11199 0354 72030000 		.4byte	0x372
 11200 0358 09       		.byte	0x9
 11201 0359 09       		.uleb128 0x9
 11202 035a 7A030000 		.4byte	.LASF50
 11203 035e 03       		.byte	0x3
 11204 035f A8       		.byte	0xa8
 11205 0360 82030000 		.4byte	0x382
 11206 0364 18       		.byte	0x18
 11207 0365 09       		.uleb128 0x9
 11208 0366 CD020000 		.4byte	.LASF51
 11209 036a 03       		.byte	0x3
 11210 036b A9       		.byte	0xa9
 11211 036c 2C000000 		.4byte	0x2c
 11212 0370 1C       		.byte	0x1c
 11213 0371 00       		.byte	0
 11214 0372 0B       		.uleb128 0xb
ARM GAS  /tmp/ccIWRJEN.s 			page 199


 11215 0373 CF000000 		.4byte	0xcf
 11216 0377 82030000 		.4byte	0x382
 11217 037b 0F       		.uleb128 0xf
 11218 037c BD000000 		.4byte	0xbd
 11219 0380 0C       		.byte	0xc
 11220 0381 00       		.byte	0
 11221 0382 06       		.uleb128 0x6
 11222 0383 04       		.byte	0x4
 11223 0384 CF000000 		.4byte	0xcf
 11224 0388 03       		.uleb128 0x3
 11225 0389 01070000 		.4byte	.LASF52
 11226 038d 03       		.byte	0x3
 11227 038e AB       		.byte	0xab
 11228 038f 15030000 		.4byte	0x315
 11229 0393 10       		.uleb128 0x10
 11230 0394 01       		.byte	0x1
 11231 0395 03       		.byte	0x3
 11232 0396 B1       		.byte	0xb1
 11233 0397 14040000 		.4byte	0x414
 11234 039b 11       		.uleb128 0x11
 11235 039c 0C060000 		.4byte	.LASF53
 11236 03a0 00       		.sleb128 0
 11237 03a1 11       		.uleb128 0x11
 11238 03a2 78040000 		.4byte	.LASF54
 11239 03a6 01       		.sleb128 1
 11240 03a7 11       		.uleb128 0x11
 11241 03a8 BF010000 		.4byte	.LASF55
 11242 03ac 02       		.sleb128 2
 11243 03ad 11       		.uleb128 0x11
 11244 03ae 3D000000 		.4byte	.LASF56
 11245 03b2 03       		.sleb128 3
 11246 03b3 11       		.uleb128 0x11
 11247 03b4 A5030000 		.4byte	.LASF57
 11248 03b8 04       		.sleb128 4
 11249 03b9 11       		.uleb128 0x11
 11250 03ba 4F040000 		.4byte	.LASF58
 11251 03be 05       		.sleb128 5
 11252 03bf 11       		.uleb128 0x11
 11253 03c0 DC040000 		.4byte	.LASF59
 11254 03c4 06       		.sleb128 6
 11255 03c5 11       		.uleb128 0x11
 11256 03c6 1D040000 		.4byte	.LASF60
 11257 03ca 07       		.sleb128 7
 11258 03cb 11       		.uleb128 0x11
 11259 03cc 30020000 		.4byte	.LASF61
 11260 03d0 08       		.sleb128 8
 11261 03d1 11       		.uleb128 0x11
 11262 03d2 40020000 		.4byte	.LASF62
 11263 03d6 09       		.sleb128 9
 11264 03d7 11       		.uleb128 0x11
 11265 03d8 EE060000 		.4byte	.LASF63
 11266 03dc 0A       		.sleb128 10
 11267 03dd 11       		.uleb128 0x11
 11268 03de 65000000 		.4byte	.LASF64
 11269 03e2 0B       		.sleb128 11
 11270 03e3 11       		.uleb128 0x11
 11271 03e4 69040000 		.4byte	.LASF65
ARM GAS  /tmp/ccIWRJEN.s 			page 200


 11272 03e8 0C       		.sleb128 12
 11273 03e9 11       		.uleb128 0x11
 11274 03ea 55030000 		.4byte	.LASF66
 11275 03ee 0D       		.sleb128 13
 11276 03ef 11       		.uleb128 0x11
 11277 03f0 A3000000 		.4byte	.LASF67
 11278 03f4 0E       		.sleb128 14
 11279 03f5 11       		.uleb128 0x11
 11280 03f6 4D060000 		.4byte	.LASF68
 11281 03fa 0F       		.sleb128 15
 11282 03fb 11       		.uleb128 0x11
 11283 03fc 7F020000 		.4byte	.LASF69
 11284 0400 10       		.sleb128 16
 11285 0401 11       		.uleb128 0x11
 11286 0402 A3040000 		.4byte	.LASF70
 11287 0406 11       		.sleb128 17
 11288 0407 11       		.uleb128 0x11
 11289 0408 2D010000 		.4byte	.LASF71
 11290 040c 12       		.sleb128 18
 11291 040d 11       		.uleb128 0x11
 11292 040e 8A030000 		.4byte	.LASF72
 11293 0412 13       		.sleb128 19
 11294 0413 00       		.byte	0
 11295 0414 03       		.uleb128 0x3
 11296 0415 E7050000 		.4byte	.LASF73
 11297 0419 03       		.byte	0x3
 11298 041a C6       		.byte	0xc6
 11299 041b 93030000 		.4byte	0x393
 11300 041f 03       		.uleb128 0x3
 11301 0420 58060000 		.4byte	.LASF74
 11302 0424 04       		.byte	0x4
 11303 0425 0E       		.byte	0xe
 11304 0426 4C000000 		.4byte	0x4c
 11305 042a 10       		.uleb128 0x10
 11306 042b 01       		.byte	0x1
 11307 042c 04       		.byte	0x4
 11308 042d 11       		.byte	0x11
 11309 042e 51040000 		.4byte	0x451
 11310 0432 11       		.uleb128 0x11
 11311 0433 67060000 		.4byte	.LASF75
 11312 0437 00       		.sleb128 0
 11313 0438 11       		.uleb128 0x11
 11314 0439 00030000 		.4byte	.LASF76
 11315 043d 01       		.sleb128 1
 11316 043e 11       		.uleb128 0x11
 11317 043f FD030000 		.4byte	.LASF77
 11318 0443 02       		.sleb128 2
 11319 0444 11       		.uleb128 0x11
 11320 0445 7B060000 		.4byte	.LASF78
 11321 0449 03       		.sleb128 3
 11322 044a 11       		.uleb128 0x11
 11323 044b DF030000 		.4byte	.LASF79
 11324 044f 04       		.sleb128 4
 11325 0450 00       		.byte	0
 11326 0451 03       		.uleb128 0x3
 11327 0452 21020000 		.4byte	.LASF80
 11328 0456 05       		.byte	0x5
ARM GAS  /tmp/ccIWRJEN.s 			page 201


 11329 0457 28       		.byte	0x28
 11330 0458 5C040000 		.4byte	0x45c
 11331 045c 12       		.uleb128 0x12
 11332 045d BB050000 		.4byte	.LASF181
 11333 0461 04       		.byte	0x4
 11334 0462 06       		.byte	0x6
 11335 0463 00       		.byte	0
 11336 0464 73040000 		.4byte	0x473
 11337 0468 13       		.uleb128 0x13
 11338 0469 B5030000 		.4byte	.LASF182
 11339 046d BB000000 		.4byte	0xbb
 11340 0471 00       		.byte	0
 11341 0472 00       		.byte	0
 11342 0473 03       		.uleb128 0x3
 11343 0474 44030000 		.4byte	.LASF81
 11344 0478 05       		.byte	0x5
 11345 0479 62       		.byte	0x62
 11346 047a 51040000 		.4byte	0x451
 11347 047e 14       		.uleb128 0x14
 11348 047f 09000000 		.4byte	.LASF82
 11349 0483 01       		.byte	0x1
 11350 0484 1102     		.2byte	0x211
 11351 0486 00000000 		.4byte	.LFB7
 11352 048a 52000000 		.4byte	.LFE7-.LFB7
 11353 048e 01       		.uleb128 0x1
 11354 048f 9C       		.byte	0x9c
 11355 0490 DC040000 		.4byte	0x4dc
 11356 0494 15       		.uleb128 0x15
 11357 0495 64737400 		.ascii	"dst\000"
 11358 0499 01       		.byte	0x1
 11359 049a 1102     		.2byte	0x211
 11360 049c BB000000 		.4byte	0xbb
 11361 04a0 02       		.uleb128 0x2
 11362 04a1 91       		.byte	0x91
 11363 04a2 74       		.sleb128 -12
 11364 04a3 15       		.uleb128 0x15
 11365 04a4 73726300 		.ascii	"src\000"
 11366 04a8 01       		.byte	0x1
 11367 04a9 1102     		.2byte	0x211
 11368 04ab DC040000 		.4byte	0x4dc
 11369 04af 02       		.uleb128 0x2
 11370 04b0 91       		.byte	0x91
 11371 04b1 70       		.sleb128 -16
 11372 04b2 15       		.uleb128 0x15
 11373 04b3 636E7400 		.ascii	"cnt\000"
 11374 04b7 01       		.byte	0x1
 11375 04b8 1102     		.2byte	0x211
 11376 04ba 2C000000 		.4byte	0x2c
 11377 04be 02       		.uleb128 0x2
 11378 04bf 91       		.byte	0x91
 11379 04c0 6C       		.sleb128 -20
 11380 04c1 16       		.uleb128 0x16
 11381 04c2 6400     		.ascii	"d\000"
 11382 04c4 01       		.byte	0x1
 11383 04c5 1202     		.2byte	0x212
 11384 04c7 75020000 		.4byte	0x275
 11385 04cb 02       		.uleb128 0x2
ARM GAS  /tmp/ccIWRJEN.s 			page 202


 11386 04cc 91       		.byte	0x91
 11387 04cd 7C       		.sleb128 -4
 11388 04ce 16       		.uleb128 0x16
 11389 04cf 7300     		.ascii	"s\000"
 11390 04d1 01       		.byte	0x1
 11391 04d2 1302     		.2byte	0x213
 11392 04d4 E3040000 		.4byte	0x4e3
 11393 04d8 02       		.uleb128 0x2
 11394 04d9 91       		.byte	0x91
 11395 04da 78       		.sleb128 -8
 11396 04db 00       		.byte	0
 11397 04dc 06       		.uleb128 0x6
 11398 04dd 04       		.byte	0x4
 11399 04de E2040000 		.4byte	0x4e2
 11400 04e2 17       		.uleb128 0x17
 11401 04e3 06       		.uleb128 0x6
 11402 04e4 04       		.byte	0x4
 11403 04e5 E9040000 		.4byte	0x4e9
 11404 04e9 07       		.uleb128 0x7
 11405 04ea 4C000000 		.4byte	0x4c
 11406 04ee 14       		.uleb128 0x14
 11407 04ef 33040000 		.4byte	.LASF83
 11408 04f3 01       		.byte	0x1
 11409 04f4 2202     		.2byte	0x222
 11410 04f6 00000000 		.4byte	.LFB8
 11411 04fa 28000000 		.4byte	.LFE8-.LFB8
 11412 04fe 01       		.uleb128 0x1
 11413 04ff 9C       		.byte	0x9c
 11414 0500 3F050000 		.4byte	0x53f
 11415 0504 15       		.uleb128 0x15
 11416 0505 64737400 		.ascii	"dst\000"
 11417 0509 01       		.byte	0x1
 11418 050a 2202     		.2byte	0x222
 11419 050c BB000000 		.4byte	0xbb
 11420 0510 02       		.uleb128 0x2
 11421 0511 91       		.byte	0x91
 11422 0512 74       		.sleb128 -12
 11423 0513 15       		.uleb128 0x15
 11424 0514 76616C00 		.ascii	"val\000"
 11425 0518 01       		.byte	0x1
 11426 0519 2202     		.2byte	0x222
 11427 051b 25000000 		.4byte	0x25
 11428 051f 02       		.uleb128 0x2
 11429 0520 91       		.byte	0x91
 11430 0521 70       		.sleb128 -16
 11431 0522 15       		.uleb128 0x15
 11432 0523 636E7400 		.ascii	"cnt\000"
 11433 0527 01       		.byte	0x1
 11434 0528 2202     		.2byte	0x222
 11435 052a 2C000000 		.4byte	0x2c
 11436 052e 02       		.uleb128 0x2
 11437 052f 91       		.byte	0x91
 11438 0530 6C       		.sleb128 -20
 11439 0531 16       		.uleb128 0x16
 11440 0532 6400     		.ascii	"d\000"
 11441 0534 01       		.byte	0x1
 11442 0535 2302     		.2byte	0x223
ARM GAS  /tmp/ccIWRJEN.s 			page 203


 11443 0537 75020000 		.4byte	0x275
 11444 053b 02       		.uleb128 0x2
 11445 053c 91       		.byte	0x91
 11446 053d 7C       		.sleb128 -4
 11447 053e 00       		.byte	0
 11448 053f 18       		.uleb128 0x18
 11449 0540 FB050000 		.4byte	.LASF84
 11450 0544 01       		.byte	0x1
 11451 0545 2B02     		.2byte	0x22b
 11452 0547 25000000 		.4byte	0x25
 11453 054b 00000000 		.4byte	.LFB9
 11454 054f 44000000 		.4byte	.LFE9-.LFB9
 11455 0553 01       		.uleb128 0x1
 11456 0554 9C       		.byte	0x9c
 11457 0555 AE050000 		.4byte	0x5ae
 11458 0559 15       		.uleb128 0x15
 11459 055a 64737400 		.ascii	"dst\000"
 11460 055e 01       		.byte	0x1
 11461 055f 2B02     		.2byte	0x22b
 11462 0561 DC040000 		.4byte	0x4dc
 11463 0565 02       		.uleb128 0x2
 11464 0566 91       		.byte	0x91
 11465 0567 6C       		.sleb128 -20
 11466 0568 15       		.uleb128 0x15
 11467 0569 73726300 		.ascii	"src\000"
 11468 056d 01       		.byte	0x1
 11469 056e 2B02     		.2byte	0x22b
 11470 0570 DC040000 		.4byte	0x4dc
 11471 0574 02       		.uleb128 0x2
 11472 0575 91       		.byte	0x91
 11473 0576 68       		.sleb128 -24
 11474 0577 15       		.uleb128 0x15
 11475 0578 636E7400 		.ascii	"cnt\000"
 11476 057c 01       		.byte	0x1
 11477 057d 2B02     		.2byte	0x22b
 11478 057f 2C000000 		.4byte	0x2c
 11479 0583 02       		.uleb128 0x2
 11480 0584 91       		.byte	0x91
 11481 0585 64       		.sleb128 -28
 11482 0586 16       		.uleb128 0x16
 11483 0587 6400     		.ascii	"d\000"
 11484 0589 01       		.byte	0x1
 11485 058a 2C02     		.2byte	0x22c
 11486 058c E3040000 		.4byte	0x4e3
 11487 0590 02       		.uleb128 0x2
 11488 0591 91       		.byte	0x91
 11489 0592 7C       		.sleb128 -4
 11490 0593 16       		.uleb128 0x16
 11491 0594 7300     		.ascii	"s\000"
 11492 0596 01       		.byte	0x1
 11493 0597 2C02     		.2byte	0x22c
 11494 0599 E3040000 		.4byte	0x4e3
 11495 059d 02       		.uleb128 0x2
 11496 059e 91       		.byte	0x91
 11497 059f 78       		.sleb128 -8
 11498 05a0 16       		.uleb128 0x16
 11499 05a1 7200     		.ascii	"r\000"
ARM GAS  /tmp/ccIWRJEN.s 			page 204


 11500 05a3 01       		.byte	0x1
 11501 05a4 2D02     		.2byte	0x22d
 11502 05a6 25000000 		.4byte	0x25
 11503 05aa 02       		.uleb128 0x2
 11504 05ab 91       		.byte	0x91
 11505 05ac 74       		.sleb128 -12
 11506 05ad 00       		.byte	0
 11507 05ae 18       		.uleb128 0x18
 11508 05af 58020000 		.4byte	.LASF85
 11509 05b3 01       		.byte	0x1
 11510 05b4 3502     		.2byte	0x235
 11511 05b6 25000000 		.4byte	0x25
 11512 05ba 00000000 		.4byte	.LFB10
 11513 05be 2C000000 		.4byte	.LFE10-.LFB10
 11514 05c2 01       		.uleb128 0x1
 11515 05c3 9C       		.byte	0x9c
 11516 05c4 E7050000 		.4byte	0x5e7
 11517 05c8 15       		.uleb128 0x15
 11518 05c9 73747200 		.ascii	"str\000"
 11519 05cd 01       		.byte	0x1
 11520 05ce 3502     		.2byte	0x235
 11521 05d0 C4000000 		.4byte	0xc4
 11522 05d4 02       		.uleb128 0x2
 11523 05d5 91       		.byte	0x91
 11524 05d6 7C       		.sleb128 -4
 11525 05d7 15       		.uleb128 0x15
 11526 05d8 63687200 		.ascii	"chr\000"
 11527 05dc 01       		.byte	0x1
 11528 05dd 3502     		.2byte	0x235
 11529 05df 25000000 		.4byte	0x25
 11530 05e3 02       		.uleb128 0x2
 11531 05e4 91       		.byte	0x91
 11532 05e5 78       		.sleb128 -8
 11533 05e6 00       		.byte	0
 11534 05e7 19       		.uleb128 0x19
 11535 05e8 C5040000 		.4byte	.LASF86
 11536 05ec 01       		.byte	0x1
 11537 05ed CF02     		.2byte	0x2cf
 11538 05ef 14040000 		.4byte	0x414
 11539 05f3 00000000 		.4byte	.LFB11
 11540 05f7 C0000000 		.4byte	.LFE11-.LFB11
 11541 05fb 01       		.uleb128 0x1
 11542 05fc 9C       		.byte	0x9c
 11543 05fd 46060000 		.4byte	0x646
 11544 0601 15       		.uleb128 0x15
 11545 0602 667300   		.ascii	"fs\000"
 11546 0605 01       		.byte	0x1
 11547 0606 D002     		.2byte	0x2d0
 11548 0608 6F020000 		.4byte	0x26f
 11549 060c 02       		.uleb128 0x2
 11550 060d 91       		.byte	0x91
 11551 060e 6C       		.sleb128 -20
 11552 060f 1A       		.uleb128 0x1a
 11553 0610 F9020000 		.4byte	.LASF87
 11554 0614 01       		.byte	0x1
 11555 0615 D102     		.2byte	0x2d1
 11556 0617 94000000 		.4byte	0x94
ARM GAS  /tmp/ccIWRJEN.s 			page 205


 11557 061b 02       		.uleb128 0x2
 11558 061c 91       		.byte	0x91
 11559 061d 68       		.sleb128 -24
 11560 061e 1B       		.uleb128 0x1b
 11561 061f B9010000 		.4byte	.LASF88
 11562 0623 01       		.byte	0x1
 11563 0624 D402     		.2byte	0x2d4
 11564 0626 94000000 		.4byte	0x94
 11565 062a 02       		.uleb128 0x2
 11566 062b 91       		.byte	0x91
 11567 062c 74       		.sleb128 -12
 11568 062d 1C       		.uleb128 0x1c
 11569 062e 52000000 		.4byte	.LBB2
 11570 0632 3A000000 		.4byte	.LBE2-.LBB2
 11571 0636 16       		.uleb128 0x16
 11572 0637 6E6600   		.ascii	"nf\000"
 11573 063a 01       		.byte	0x1
 11574 063b DF02     		.2byte	0x2df
 11575 063d 4C000000 		.4byte	0x4c
 11576 0641 02       		.uleb128 0x2
 11577 0642 91       		.byte	0x91
 11578 0643 73       		.sleb128 -13
 11579 0644 00       		.byte	0
 11580 0645 00       		.byte	0
 11581 0646 19       		.uleb128 0x19
 11582 0647 0A030000 		.4byte	.LASF89
 11583 064b 01       		.byte	0x1
 11584 064c F902     		.2byte	0x2f9
 11585 064e 14040000 		.4byte	0x414
 11586 0652 00000000 		.4byte	.LFB12
 11587 0656 CC000000 		.4byte	.LFE12-.LFB12
 11588 065a 01       		.uleb128 0x1
 11589 065b 9C       		.byte	0x9c
 11590 065c 7E060000 		.4byte	0x67e
 11591 0660 15       		.uleb128 0x15
 11592 0661 667300   		.ascii	"fs\000"
 11593 0664 01       		.byte	0x1
 11594 0665 FA02     		.2byte	0x2fa
 11595 0667 6F020000 		.4byte	0x26f
 11596 066b 02       		.uleb128 0x2
 11597 066c 91       		.byte	0x91
 11598 066d 6C       		.sleb128 -20
 11599 066e 16       		.uleb128 0x16
 11600 066f 72657300 		.ascii	"res\000"
 11601 0673 01       		.byte	0x1
 11602 0674 FD02     		.2byte	0x2fd
 11603 0676 14040000 		.4byte	0x414
 11604 067a 02       		.uleb128 0x2
 11605 067b 91       		.byte	0x91
 11606 067c 77       		.sleb128 -9
 11607 067d 00       		.byte	0
 11608 067e 1D       		.uleb128 0x1d
 11609 067f 22010000 		.4byte	.LASF91
 11610 0683 01       		.byte	0x1
 11611 0684 2103     		.2byte	0x321
 11612 0686 94000000 		.4byte	0x94
 11613 068a 00000000 		.4byte	.LFB13
ARM GAS  /tmp/ccIWRJEN.s 			page 206


 11614 068e 32000000 		.4byte	.LFE13-.LFB13
 11615 0692 01       		.uleb128 0x1
 11616 0693 9C       		.byte	0x9c
 11617 0694 B6060000 		.4byte	0x6b6
 11618 0698 15       		.uleb128 0x15
 11619 0699 667300   		.ascii	"fs\000"
 11620 069c 01       		.byte	0x1
 11621 069d 2203     		.2byte	0x322
 11622 069f 6F020000 		.4byte	0x26f
 11623 06a3 02       		.uleb128 0x2
 11624 06a4 91       		.byte	0x91
 11625 06a5 7C       		.sleb128 -4
 11626 06a6 1A       		.uleb128 0x1a
 11627 06a7 28000000 		.4byte	.LASF90
 11628 06ab 01       		.byte	0x1
 11629 06ac 2303     		.2byte	0x323
 11630 06ae 94000000 		.4byte	0x94
 11631 06b2 02       		.uleb128 0x2
 11632 06b3 91       		.byte	0x91
 11633 06b4 78       		.sleb128 -8
 11634 06b5 00       		.byte	0
 11635 06b6 1E       		.uleb128 0x1e
 11636 06b7 A3020000 		.4byte	.LASF92
 11637 06bb 01       		.byte	0x1
 11638 06bc 3303     		.2byte	0x333
 11639 06be 94000000 		.4byte	0x94
 11640 06c2 00000000 		.4byte	.LFB14
 11641 06c6 22010000 		.4byte	.LFE14-.LFB14
 11642 06ca 01       		.uleb128 0x1
 11643 06cb 9C       		.byte	0x9c
 11644 06cc 17070000 		.4byte	0x717
 11645 06d0 15       		.uleb128 0x15
 11646 06d1 667300   		.ascii	"fs\000"
 11647 06d4 01       		.byte	0x1
 11648 06d5 3403     		.2byte	0x334
 11649 06d7 6F020000 		.4byte	0x26f
 11650 06db 02       		.uleb128 0x2
 11651 06dc 91       		.byte	0x91
 11652 06dd 64       		.sleb128 -28
 11653 06de 1A       		.uleb128 0x1a
 11654 06df 28000000 		.4byte	.LASF90
 11655 06e3 01       		.byte	0x1
 11656 06e4 3503     		.2byte	0x335
 11657 06e6 94000000 		.4byte	0x94
 11658 06ea 02       		.uleb128 0x2
 11659 06eb 91       		.byte	0x91
 11660 06ec 60       		.sleb128 -32
 11661 06ed 16       		.uleb128 0x16
 11662 06ee 776300   		.ascii	"wc\000"
 11663 06f1 01       		.byte	0x1
 11664 06f2 3803     		.2byte	0x338
 11665 06f4 2C000000 		.4byte	0x2c
 11666 06f8 02       		.uleb128 0x2
 11667 06f9 91       		.byte	0x91
 11668 06fa 70       		.sleb128 -16
 11669 06fb 16       		.uleb128 0x16
 11670 06fc 626300   		.ascii	"bc\000"
ARM GAS  /tmp/ccIWRJEN.s 			page 207


 11671 06ff 01       		.byte	0x1
 11672 0700 3803     		.2byte	0x338
 11673 0702 2C000000 		.4byte	0x2c
 11674 0706 02       		.uleb128 0x2
 11675 0707 91       		.byte	0x91
 11676 0708 74       		.sleb128 -12
 11677 0709 16       		.uleb128 0x16
 11678 070a 7000     		.ascii	"p\000"
 11679 070c 01       		.byte	0x1
 11680 070d 3903     		.2byte	0x339
 11681 070f 75020000 		.4byte	0x275
 11682 0713 02       		.uleb128 0x2
 11683 0714 91       		.byte	0x91
 11684 0715 6C       		.sleb128 -20
 11685 0716 00       		.byte	0
 11686 0717 1E       		.uleb128 0x1e
 11687 0718 2D000000 		.4byte	.LASF93
 11688 071c 01       		.byte	0x1
 11689 071d 5E03     		.2byte	0x35e
 11690 071f 14040000 		.4byte	0x414
 11691 0723 00000000 		.4byte	.LFB15
 11692 0727 B0010000 		.4byte	.LFE15-.LFB15
 11693 072b 01       		.uleb128 0x1
 11694 072c 9C       		.byte	0x9c
 11695 072d 88070000 		.4byte	0x788
 11696 0731 15       		.uleb128 0x15
 11697 0732 667300   		.ascii	"fs\000"
 11698 0735 01       		.byte	0x1
 11699 0736 5F03     		.2byte	0x35f
 11700 0738 6F020000 		.4byte	0x26f
 11701 073c 02       		.uleb128 0x2
 11702 073d 91       		.byte	0x91
 11703 073e 64       		.sleb128 -28
 11704 073f 1A       		.uleb128 0x1a
 11705 0740 28000000 		.4byte	.LASF90
 11706 0744 01       		.byte	0x1
 11707 0745 6003     		.2byte	0x360
 11708 0747 94000000 		.4byte	0x94
 11709 074b 02       		.uleb128 0x2
 11710 074c 91       		.byte	0x91
 11711 074d 60       		.sleb128 -32
 11712 074e 15       		.uleb128 0x15
 11713 074f 76616C00 		.ascii	"val\000"
 11714 0753 01       		.byte	0x1
 11715 0754 6103     		.2byte	0x361
 11716 0756 94000000 		.4byte	0x94
 11717 075a 02       		.uleb128 0x2
 11718 075b 91       		.byte	0x91
 11719 075c 5C       		.sleb128 -36
 11720 075d 16       		.uleb128 0x16
 11721 075e 626300   		.ascii	"bc\000"
 11722 0761 01       		.byte	0x1
 11723 0762 6403     		.2byte	0x364
 11724 0764 2C000000 		.4byte	0x2c
 11725 0768 02       		.uleb128 0x2
 11726 0769 91       		.byte	0x91
 11727 076a 70       		.sleb128 -16
ARM GAS  /tmp/ccIWRJEN.s 			page 208


 11728 076b 16       		.uleb128 0x16
 11729 076c 7000     		.ascii	"p\000"
 11730 076e 01       		.byte	0x1
 11731 076f 6503     		.2byte	0x365
 11732 0771 75020000 		.4byte	0x275
 11733 0775 02       		.uleb128 0x2
 11734 0776 91       		.byte	0x91
 11735 0777 6C       		.sleb128 -20
 11736 0778 16       		.uleb128 0x16
 11737 0779 72657300 		.ascii	"res\000"
 11738 077d 01       		.byte	0x1
 11739 077e 6603     		.2byte	0x366
 11740 0780 14040000 		.4byte	0x414
 11741 0784 02       		.uleb128 0x2
 11742 0785 91       		.byte	0x91
 11743 0786 77       		.sleb128 -9
 11744 0787 00       		.byte	0
 11745 0788 19       		.uleb128 0x19
 11746 0789 11000000 		.4byte	.LASF94
 11747 078d 01       		.byte	0x1
 11748 078e 9D03     		.2byte	0x39d
 11749 0790 14040000 		.4byte	0x414
 11750 0794 00000000 		.4byte	.LFB16
 11751 0798 F6000000 		.4byte	.LFE16-.LFB16
 11752 079c 01       		.uleb128 0x1
 11753 079d 9C       		.byte	0x9c
 11754 079e 0B080000 		.4byte	0x80b
 11755 07a2 15       		.uleb128 0x15
 11756 07a3 667300   		.ascii	"fs\000"
 11757 07a6 01       		.byte	0x1
 11758 07a7 9E03     		.2byte	0x39e
 11759 07a9 6F020000 		.4byte	0x26f
 11760 07ad 02       		.uleb128 0x2
 11761 07ae 91       		.byte	0x91
 11762 07af 5C       		.sleb128 -36
 11763 07b0 1A       		.uleb128 0x1a
 11764 07b1 28000000 		.4byte	.LASF90
 11765 07b5 01       		.byte	0x1
 11766 07b6 9F03     		.2byte	0x39f
 11767 07b8 94000000 		.4byte	0x94
 11768 07bc 02       		.uleb128 0x2
 11769 07bd 91       		.byte	0x91
 11770 07be 58       		.sleb128 -40
 11771 07bf 16       		.uleb128 0x16
 11772 07c0 72657300 		.ascii	"res\000"
 11773 07c4 01       		.byte	0x1
 11774 07c5 A203     		.2byte	0x3a2
 11775 07c7 14040000 		.4byte	0x414
 11776 07cb 02       		.uleb128 0x2
 11777 07cc 91       		.byte	0x91
 11778 07cd 77       		.sleb128 -9
 11779 07ce 16       		.uleb128 0x16
 11780 07cf 6E787400 		.ascii	"nxt\000"
 11781 07d3 01       		.byte	0x1
 11782 07d4 A303     		.2byte	0x3a3
 11783 07d6 94000000 		.4byte	0x94
 11784 07da 02       		.uleb128 0x2
ARM GAS  /tmp/ccIWRJEN.s 			page 209


 11785 07db 91       		.byte	0x91
 11786 07dc 68       		.sleb128 -24
 11787 07dd 16       		.uleb128 0x16
 11788 07de 73636C00 		.ascii	"scl\000"
 11789 07e2 01       		.byte	0x1
 11790 07e3 A503     		.2byte	0x3a5
 11791 07e5 94000000 		.4byte	0x94
 11792 07e9 02       		.uleb128 0x2
 11793 07ea 91       		.byte	0x91
 11794 07eb 70       		.sleb128 -16
 11795 07ec 16       		.uleb128 0x16
 11796 07ed 65636C00 		.ascii	"ecl\000"
 11797 07f1 01       		.byte	0x1
 11798 07f2 A503     		.2byte	0x3a5
 11799 07f4 94000000 		.4byte	0x94
 11800 07f8 02       		.uleb128 0x2
 11801 07f9 91       		.byte	0x91
 11802 07fa 6C       		.sleb128 -20
 11803 07fb 1B       		.uleb128 0x1b
 11804 07fc 84040000 		.4byte	.LASF95
 11805 0800 01       		.byte	0x1
 11806 0801 A503     		.2byte	0x3a5
 11807 0803 0B080000 		.4byte	0x80b
 11808 0807 02       		.uleb128 0x2
 11809 0808 91       		.byte	0x91
 11810 0809 60       		.sleb128 -32
 11811 080a 00       		.byte	0
 11812 080b 0B       		.uleb128 0xb
 11813 080c 94000000 		.4byte	0x94
 11814 0810 1B080000 		.4byte	0x81b
 11815 0814 0F       		.uleb128 0xf
 11816 0815 BD000000 		.4byte	0xbd
 11817 0819 01       		.byte	0x1
 11818 081a 00       		.byte	0
 11819 081b 19       		.uleb128 0x19
 11820 081c 18060000 		.4byte	.LASF96
 11821 0820 01       		.byte	0x1
 11822 0821 D203     		.2byte	0x3d2
 11823 0823 94000000 		.4byte	0x94
 11824 0827 00000000 		.4byte	.LFB17
 11825 082b 1E010000 		.4byte	.LFE17-.LFB17
 11826 082f 01       		.uleb128 0x1
 11827 0830 9C       		.byte	0x9c
 11828 0831 8E080000 		.4byte	0x88e
 11829 0835 15       		.uleb128 0x15
 11830 0836 667300   		.ascii	"fs\000"
 11831 0839 01       		.byte	0x1
 11832 083a D303     		.2byte	0x3d3
 11833 083c 6F020000 		.4byte	0x26f
 11834 0840 02       		.uleb128 0x2
 11835 0841 91       		.byte	0x91
 11836 0842 64       		.sleb128 -28
 11837 0843 1A       		.uleb128 0x1a
 11838 0844 28000000 		.4byte	.LASF90
 11839 0848 01       		.byte	0x1
 11840 0849 D403     		.2byte	0x3d4
 11841 084b 94000000 		.4byte	0x94
ARM GAS  /tmp/ccIWRJEN.s 			page 210


 11842 084f 02       		.uleb128 0x2
 11843 0850 91       		.byte	0x91
 11844 0851 60       		.sleb128 -32
 11845 0852 16       		.uleb128 0x16
 11846 0853 637300   		.ascii	"cs\000"
 11847 0856 01       		.byte	0x1
 11848 0857 D703     		.2byte	0x3d7
 11849 0859 94000000 		.4byte	0x94
 11850 085d 02       		.uleb128 0x2
 11851 085e 91       		.byte	0x91
 11852 085f 68       		.sleb128 -24
 11853 0860 16       		.uleb128 0x16
 11854 0861 6E636C00 		.ascii	"ncl\000"
 11855 0865 01       		.byte	0x1
 11856 0866 D703     		.2byte	0x3d7
 11857 0868 94000000 		.4byte	0x94
 11858 086c 02       		.uleb128 0x2
 11859 086d 91       		.byte	0x91
 11860 086e 74       		.sleb128 -12
 11861 086f 16       		.uleb128 0x16
 11862 0870 73636C00 		.ascii	"scl\000"
 11863 0874 01       		.byte	0x1
 11864 0875 D703     		.2byte	0x3d7
 11865 0877 94000000 		.4byte	0x94
 11866 087b 02       		.uleb128 0x2
 11867 087c 91       		.byte	0x91
 11868 087d 70       		.sleb128 -16
 11869 087e 16       		.uleb128 0x16
 11870 087f 72657300 		.ascii	"res\000"
 11871 0883 01       		.byte	0x1
 11872 0884 D803     		.2byte	0x3d8
 11873 0886 14040000 		.4byte	0x414
 11874 088a 02       		.uleb128 0x2
 11875 088b 91       		.byte	0x91
 11876 088c 6F       		.sleb128 -17
 11877 088d 00       		.byte	0
 11878 088e 19       		.uleb128 0x19
 11879 088f 3E060000 		.4byte	.LASF97
 11880 0893 01       		.byte	0x1
 11881 0894 2904     		.2byte	0x429
 11882 0896 14040000 		.4byte	0x414
 11883 089a 00000000 		.4byte	.LFB18
 11884 089e 16010000 		.4byte	.LFE18-.LFB18
 11885 08a2 01       		.uleb128 0x1
 11886 08a3 9C       		.byte	0x9c
 11887 08a4 E3080000 		.4byte	0x8e3
 11888 08a8 15       		.uleb128 0x15
 11889 08a9 646A00   		.ascii	"dj\000"
 11890 08ac 01       		.byte	0x1
 11891 08ad 2A04     		.2byte	0x42a
 11892 08af E3080000 		.4byte	0x8e3
 11893 08b3 02       		.uleb128 0x2
 11894 08b4 91       		.byte	0x91
 11895 08b5 6C       		.sleb128 -20
 11896 08b6 15       		.uleb128 0x15
 11897 08b7 69647800 		.ascii	"idx\000"
 11898 08bb 01       		.byte	0x1
ARM GAS  /tmp/ccIWRJEN.s 			page 211


 11899 08bc 2B04     		.2byte	0x42b
 11900 08be 65000000 		.4byte	0x65
 11901 08c2 02       		.uleb128 0x2
 11902 08c3 91       		.byte	0x91
 11903 08c4 6A       		.sleb128 -22
 11904 08c5 1B       		.uleb128 0x1b
 11905 08c6 28000000 		.4byte	.LASF90
 11906 08ca 01       		.byte	0x1
 11907 08cb 2E04     		.2byte	0x42e
 11908 08cd 94000000 		.4byte	0x94
 11909 08d1 02       		.uleb128 0x2
 11910 08d2 91       		.byte	0x91
 11911 08d3 74       		.sleb128 -12
 11912 08d4 16       		.uleb128 0x16
 11913 08d5 696300   		.ascii	"ic\000"
 11914 08d8 01       		.byte	0x1
 11915 08d9 2F04     		.2byte	0x42f
 11916 08db 65000000 		.4byte	0x65
 11917 08df 02       		.uleb128 0x2
 11918 08e0 91       		.byte	0x91
 11919 08e1 72       		.sleb128 -14
 11920 08e2 00       		.byte	0
 11921 08e3 06       		.uleb128 0x6
 11922 08e4 04       		.byte	0x4
 11923 08e5 0A030000 		.4byte	0x30a
 11924 08e9 19       		.uleb128 0x19
 11925 08ea 0F030000 		.4byte	.LASF98
 11926 08ee 01       		.byte	0x1
 11927 08ef 5904     		.2byte	0x459
 11928 08f1 14040000 		.4byte	0x414
 11929 08f5 00000000 		.4byte	.LFB19
 11930 08f9 BA010000 		.4byte	.LFE19-.LFB19
 11931 08fd 01       		.uleb128 0x1
 11932 08fe 9C       		.byte	0x9c
 11933 08ff 54090000 		.4byte	0x954
 11934 0903 15       		.uleb128 0x15
 11935 0904 646A00   		.ascii	"dj\000"
 11936 0907 01       		.byte	0x1
 11937 0908 5A04     		.2byte	0x45a
 11938 090a E3080000 		.4byte	0x8e3
 11939 090e 02       		.uleb128 0x2
 11940 090f 91       		.byte	0x91
 11941 0910 6C       		.sleb128 -20
 11942 0911 1A       		.uleb128 0x1a
 11943 0912 C5060000 		.4byte	.LASF99
 11944 0916 01       		.byte	0x1
 11945 0917 5B04     		.2byte	0x45b
 11946 0919 25000000 		.4byte	0x25
 11947 091d 02       		.uleb128 0x2
 11948 091e 91       		.byte	0x91
 11949 091f 68       		.sleb128 -24
 11950 0920 1B       		.uleb128 0x1b
 11951 0921 28000000 		.4byte	.LASF90
 11952 0925 01       		.byte	0x1
 11953 0926 5E04     		.2byte	0x45e
 11954 0928 94000000 		.4byte	0x94
 11955 092c 02       		.uleb128 0x2
ARM GAS  /tmp/ccIWRJEN.s 			page 212


 11956 092d 91       		.byte	0x91
 11957 092e 74       		.sleb128 -12
 11958 092f 16       		.uleb128 0x16
 11959 0930 6900     		.ascii	"i\000"
 11960 0932 01       		.byte	0x1
 11961 0933 5F04     		.2byte	0x45f
 11962 0935 65000000 		.4byte	0x65
 11963 0939 02       		.uleb128 0x2
 11964 093a 91       		.byte	0x91
 11965 093b 70       		.sleb128 -16
 11966 093c 1C       		.uleb128 0x1c
 11967 093d AA000000 		.4byte	.LBB3
 11968 0941 D2000000 		.4byte	.LBE3-.LBB3
 11969 0945 16       		.uleb128 0x16
 11970 0946 6300     		.ascii	"c\000"
 11971 0948 01       		.byte	0x1
 11972 0949 7504     		.2byte	0x475
 11973 094b 4C000000 		.4byte	0x4c
 11974 094f 02       		.uleb128 0x2
 11975 0950 91       		.byte	0x91
 11976 0951 73       		.sleb128 -13
 11977 0952 00       		.byte	0
 11978 0953 00       		.byte	0
 11979 0954 19       		.uleb128 0x19
 11980 0955 0E010000 		.4byte	.LASF100
 11981 0959 01       		.byte	0x1
 11982 095a A104     		.2byte	0x4a1
 11983 095c 25000000 		.4byte	0x25
 11984 0960 00000000 		.4byte	.LFB20
 11985 0964 CC000000 		.4byte	.LFE20-.LFB20
 11986 0968 01       		.uleb128 0x1
 11987 0969 9C       		.byte	0x9c
 11988 096a C3090000 		.4byte	0x9c3
 11989 096e 1A       		.uleb128 0x1a
 11990 096f 5A040000 		.4byte	.LASF101
 11991 0973 01       		.byte	0x1
 11992 0974 A204     		.2byte	0x4a2
 11993 0976 04030000 		.4byte	0x304
 11994 097a 02       		.uleb128 0x2
 11995 097b 91       		.byte	0x91
 11996 097c 64       		.sleb128 -28
 11997 097d 15       		.uleb128 0x15
 11998 097e 64697200 		.ascii	"dir\000"
 11999 0982 01       		.byte	0x1
 12000 0983 A304     		.2byte	0x4a3
 12001 0985 75020000 		.4byte	0x275
 12002 0989 02       		.uleb128 0x2
 12003 098a 91       		.byte	0x91
 12004 098b 60       		.sleb128 -32
 12005 098c 16       		.uleb128 0x16
 12006 098d 6900     		.ascii	"i\000"
 12007 098f 01       		.byte	0x1
 12008 0990 A604     		.2byte	0x4a6
 12009 0992 2C000000 		.4byte	0x2c
 12010 0996 02       		.uleb128 0x2
 12011 0997 91       		.byte	0x91
 12012 0998 74       		.sleb128 -12
ARM GAS  /tmp/ccIWRJEN.s 			page 213


 12013 0999 16       		.uleb128 0x16
 12014 099a 7300     		.ascii	"s\000"
 12015 099c 01       		.byte	0x1
 12016 099d A604     		.2byte	0x4a6
 12017 099f 2C000000 		.4byte	0x2c
 12018 09a3 02       		.uleb128 0x2
 12019 09a4 91       		.byte	0x91
 12020 09a5 70       		.sleb128 -16
 12021 09a6 16       		.uleb128 0x16
 12022 09a7 776300   		.ascii	"wc\000"
 12023 09aa 01       		.byte	0x1
 12024 09ab A704     		.2byte	0x4a7
 12025 09ad 70000000 		.4byte	0x70
 12026 09b1 02       		.uleb128 0x2
 12027 09b2 91       		.byte	0x91
 12028 09b3 6E       		.sleb128 -18
 12029 09b4 16       		.uleb128 0x16
 12030 09b5 756300   		.ascii	"uc\000"
 12031 09b8 01       		.byte	0x1
 12032 09b9 A704     		.2byte	0x4a7
 12033 09bb 70000000 		.4byte	0x70
 12034 09bf 02       		.uleb128 0x2
 12035 09c0 91       		.byte	0x91
 12036 09c1 6C       		.sleb128 -20
 12037 09c2 00       		.byte	0
 12038 09c3 18       		.uleb128 0x18
 12039 09c4 03060000 		.4byte	.LASF102
 12040 09c8 01       		.byte	0x1
 12041 09c9 C004     		.2byte	0x4c0
 12042 09cb 25000000 		.4byte	0x25
 12043 09cf 00000000 		.4byte	.LFB21
 12044 09d3 B2000000 		.4byte	.LFE21-.LFB21
 12045 09d7 01       		.uleb128 0x1
 12046 09d8 9C       		.byte	0x9c
 12047 09d9 320A0000 		.4byte	0xa32
 12048 09dd 1A       		.uleb128 0x1a
 12049 09de 5A040000 		.4byte	.LASF101
 12050 09e2 01       		.byte	0x1
 12051 09e3 C104     		.2byte	0x4c1
 12052 09e5 04030000 		.4byte	0x304
 12053 09e9 02       		.uleb128 0x2
 12054 09ea 91       		.byte	0x91
 12055 09eb 6C       		.sleb128 -20
 12056 09ec 15       		.uleb128 0x15
 12057 09ed 64697200 		.ascii	"dir\000"
 12058 09f1 01       		.byte	0x1
 12059 09f2 C204     		.2byte	0x4c2
 12060 09f4 75020000 		.4byte	0x275
 12061 09f8 02       		.uleb128 0x2
 12062 09f9 91       		.byte	0x91
 12063 09fa 68       		.sleb128 -24
 12064 09fb 16       		.uleb128 0x16
 12065 09fc 6900     		.ascii	"i\000"
 12066 09fe 01       		.byte	0x1
 12067 09ff C504     		.2byte	0x4c5
 12068 0a01 2C000000 		.4byte	0x2c
 12069 0a05 02       		.uleb128 0x2
ARM GAS  /tmp/ccIWRJEN.s 			page 214


 12070 0a06 91       		.byte	0x91
 12071 0a07 7C       		.sleb128 -4
 12072 0a08 16       		.uleb128 0x16
 12073 0a09 7300     		.ascii	"s\000"
 12074 0a0b 01       		.byte	0x1
 12075 0a0c C504     		.2byte	0x4c5
 12076 0a0e 2C000000 		.4byte	0x2c
 12077 0a12 02       		.uleb128 0x2
 12078 0a13 91       		.byte	0x91
 12079 0a14 78       		.sleb128 -8
 12080 0a15 16       		.uleb128 0x16
 12081 0a16 776300   		.ascii	"wc\000"
 12082 0a19 01       		.byte	0x1
 12083 0a1a C604     		.2byte	0x4c6
 12084 0a1c 70000000 		.4byte	0x70
 12085 0a20 02       		.uleb128 0x2
 12086 0a21 91       		.byte	0x91
 12087 0a22 76       		.sleb128 -10
 12088 0a23 16       		.uleb128 0x16
 12089 0a24 756300   		.ascii	"uc\000"
 12090 0a27 01       		.byte	0x1
 12091 0a28 C604     		.2byte	0x4c6
 12092 0a2a 70000000 		.4byte	0x70
 12093 0a2e 02       		.uleb128 0x2
 12094 0a2f 91       		.byte	0x91
 12095 0a30 74       		.sleb128 -12
 12096 0a31 00       		.byte	0
 12097 0a32 14       		.uleb128 0x14
 12098 0a33 DF060000 		.4byte	.LASF103
 12099 0a37 01       		.byte	0x1
 12100 0a38 E104     		.2byte	0x4e1
 12101 0a3a 00000000 		.4byte	.LFB22
 12102 0a3e D0000000 		.4byte	.LFE22-.LFB22
 12103 0a42 01       		.uleb128 0x1
 12104 0a43 9C       		.byte	0x9c
 12105 0a44 AD0A0000 		.4byte	0xaad
 12106 0a48 1A       		.uleb128 0x1a
 12107 0a49 5A040000 		.4byte	.LASF101
 12108 0a4d 01       		.byte	0x1
 12109 0a4e E204     		.2byte	0x4e2
 12110 0a50 AD0A0000 		.4byte	0xaad
 12111 0a54 02       		.uleb128 0x2
 12112 0a55 91       		.byte	0x91
 12113 0a56 6C       		.sleb128 -20
 12114 0a57 15       		.uleb128 0x15
 12115 0a58 64697200 		.ascii	"dir\000"
 12116 0a5c 01       		.byte	0x1
 12117 0a5d E304     		.2byte	0x4e3
 12118 0a5f 75020000 		.4byte	0x275
 12119 0a63 02       		.uleb128 0x2
 12120 0a64 91       		.byte	0x91
 12121 0a65 68       		.sleb128 -24
 12122 0a66 15       		.uleb128 0x15
 12123 0a67 6F726400 		.ascii	"ord\000"
 12124 0a6b 01       		.byte	0x1
 12125 0a6c E404     		.2byte	0x4e4
 12126 0a6e 4C000000 		.4byte	0x4c
ARM GAS  /tmp/ccIWRJEN.s 			page 215


 12127 0a72 02       		.uleb128 0x2
 12128 0a73 91       		.byte	0x91
 12129 0a74 67       		.sleb128 -25
 12130 0a75 15       		.uleb128 0x15
 12131 0a76 73756D00 		.ascii	"sum\000"
 12132 0a7a 01       		.byte	0x1
 12133 0a7b E504     		.2byte	0x4e5
 12134 0a7d 4C000000 		.4byte	0x4c
 12135 0a81 02       		.uleb128 0x2
 12136 0a82 91       		.byte	0x91
 12137 0a83 66       		.sleb128 -26
 12138 0a84 16       		.uleb128 0x16
 12139 0a85 6900     		.ascii	"i\000"
 12140 0a87 01       		.byte	0x1
 12141 0a88 E804     		.2byte	0x4e8
 12142 0a8a 2C000000 		.4byte	0x2c
 12143 0a8e 02       		.uleb128 0x2
 12144 0a8f 91       		.byte	0x91
 12145 0a90 7C       		.sleb128 -4
 12146 0a91 16       		.uleb128 0x16
 12147 0a92 7300     		.ascii	"s\000"
 12148 0a94 01       		.byte	0x1
 12149 0a95 E804     		.2byte	0x4e8
 12150 0a97 2C000000 		.4byte	0x2c
 12151 0a9b 02       		.uleb128 0x2
 12152 0a9c 91       		.byte	0x91
 12153 0a9d 78       		.sleb128 -8
 12154 0a9e 16       		.uleb128 0x16
 12155 0a9f 776300   		.ascii	"wc\000"
 12156 0aa2 01       		.byte	0x1
 12157 0aa3 E904     		.2byte	0x4e9
 12158 0aa5 70000000 		.4byte	0x70
 12159 0aa9 02       		.uleb128 0x2
 12160 0aaa 91       		.byte	0x91
 12161 0aab 76       		.sleb128 -10
 12162 0aac 00       		.byte	0
 12163 0aad 06       		.uleb128 0x6
 12164 0aae 04       		.byte	0x4
 12165 0aaf B30A0000 		.4byte	0xab3
 12166 0ab3 07       		.uleb128 0x7
 12167 0ab4 70000000 		.4byte	0x70
 12168 0ab8 1F       		.uleb128 0x1f
 12169 0ab9 B3020000 		.4byte	.LASF183
 12170 0abd 01       		.byte	0x1
 12171 0abe 0505     		.2byte	0x505
 12172 0ac0 00000000 		.4byte	.LFB23
 12173 0ac4 EA000000 		.4byte	.LFE23-.LFB23
 12174 0ac8 01       		.uleb128 0x1
 12175 0ac9 9C       		.byte	0x9c
 12176 0aca 400B0000 		.4byte	0xb40
 12177 0ace 15       		.uleb128 0x15
 12178 0acf 64737400 		.ascii	"dst\000"
 12179 0ad3 01       		.byte	0x1
 12180 0ad4 0605     		.2byte	0x506
 12181 0ad6 75020000 		.4byte	0x275
 12182 0ada 02       		.uleb128 0x2
 12183 0adb 91       		.byte	0x91
ARM GAS  /tmp/ccIWRJEN.s 			page 216


 12184 0adc 5C       		.sleb128 -36
 12185 0add 15       		.uleb128 0x15
 12186 0ade 73726300 		.ascii	"src\000"
 12187 0ae2 01       		.byte	0x1
 12188 0ae3 0705     		.2byte	0x507
 12189 0ae5 E3040000 		.4byte	0x4e3
 12190 0ae9 02       		.uleb128 0x2
 12191 0aea 91       		.byte	0x91
 12192 0aeb 58       		.sleb128 -40
 12193 0aec 15       		.uleb128 0x15
 12194 0aed 6C666E00 		.ascii	"lfn\000"
 12195 0af1 01       		.byte	0x1
 12196 0af2 0805     		.2byte	0x508
 12197 0af4 AD0A0000 		.4byte	0xaad
 12198 0af8 02       		.uleb128 0x2
 12199 0af9 91       		.byte	0x91
 12200 0afa 54       		.sleb128 -44
 12201 0afb 15       		.uleb128 0x15
 12202 0afc 73657100 		.ascii	"seq\000"
 12203 0b00 01       		.byte	0x1
 12204 0b01 0905     		.2byte	0x509
 12205 0b03 65000000 		.4byte	0x65
 12206 0b07 02       		.uleb128 0x2
 12207 0b08 91       		.byte	0x91
 12208 0b09 52       		.sleb128 -46
 12209 0b0a 16       		.uleb128 0x16
 12210 0b0b 6E7300   		.ascii	"ns\000"
 12211 0b0e 01       		.byte	0x1
 12212 0b0f 0C05     		.2byte	0x50c
 12213 0b11 400B0000 		.4byte	0xb40
 12214 0b15 02       		.uleb128 0x2
 12215 0b16 91       		.byte	0x91
 12216 0b17 64       		.sleb128 -28
 12217 0b18 16       		.uleb128 0x16
 12218 0b19 6300     		.ascii	"c\000"
 12219 0b1b 01       		.byte	0x1
 12220 0b1c 0C05     		.2byte	0x50c
 12221 0b1e 4C000000 		.4byte	0x4c
 12222 0b22 02       		.uleb128 0x2
 12223 0b23 91       		.byte	0x91
 12224 0b24 77       		.sleb128 -9
 12225 0b25 16       		.uleb128 0x16
 12226 0b26 6900     		.ascii	"i\000"
 12227 0b28 01       		.byte	0x1
 12228 0b29 0D05     		.2byte	0x50d
 12229 0b2b 2C000000 		.4byte	0x2c
 12230 0b2f 02       		.uleb128 0x2
 12231 0b30 91       		.byte	0x91
 12232 0b31 70       		.sleb128 -16
 12233 0b32 16       		.uleb128 0x16
 12234 0b33 6A00     		.ascii	"j\000"
 12235 0b35 01       		.byte	0x1
 12236 0b36 0D05     		.2byte	0x50d
 12237 0b38 2C000000 		.4byte	0x2c
 12238 0b3c 02       		.uleb128 0x2
 12239 0b3d 91       		.byte	0x91
 12240 0b3e 6C       		.sleb128 -20
ARM GAS  /tmp/ccIWRJEN.s 			page 217


 12241 0b3f 00       		.byte	0
 12242 0b40 0B       		.uleb128 0xb
 12243 0b41 4C000000 		.4byte	0x4c
 12244 0b45 500B0000 		.4byte	0xb50
 12245 0b49 0F       		.uleb128 0xf
 12246 0b4a BD000000 		.4byte	0xbd
 12247 0b4e 07       		.byte	0x7
 12248 0b4f 00       		.byte	0
 12249 0b50 18       		.uleb128 0x18
 12250 0b51 61040000 		.4byte	.LASF104
 12251 0b55 01       		.byte	0x1
 12252 0b56 3505     		.2byte	0x535
 12253 0b58 4C000000 		.4byte	0x4c
 12254 0b5c 00000000 		.4byte	.LFB24
 12255 0b60 40000000 		.4byte	.LFE24-.LFB24
 12256 0b64 01       		.uleb128 0x1
 12257 0b65 9C       		.byte	0x9c
 12258 0b66 960B0000 		.4byte	0xb96
 12259 0b6a 15       		.uleb128 0x15
 12260 0b6b 64697200 		.ascii	"dir\000"
 12261 0b6f 01       		.byte	0x1
 12262 0b70 3605     		.2byte	0x536
 12263 0b72 E3040000 		.4byte	0x4e3
 12264 0b76 02       		.uleb128 0x2
 12265 0b77 91       		.byte	0x91
 12266 0b78 74       		.sleb128 -12
 12267 0b79 16       		.uleb128 0x16
 12268 0b7a 73756D00 		.ascii	"sum\000"
 12269 0b7e 01       		.byte	0x1
 12270 0b7f 3905     		.2byte	0x539
 12271 0b81 4C000000 		.4byte	0x4c
 12272 0b85 02       		.uleb128 0x2
 12273 0b86 91       		.byte	0x91
 12274 0b87 7F       		.sleb128 -1
 12275 0b88 16       		.uleb128 0x16
 12276 0b89 6E00     		.ascii	"n\000"
 12277 0b8b 01       		.byte	0x1
 12278 0b8c 3A05     		.2byte	0x53a
 12279 0b8e 2C000000 		.4byte	0x2c
 12280 0b92 02       		.uleb128 0x2
 12281 0b93 91       		.byte	0x91
 12282 0b94 78       		.sleb128 -8
 12283 0b95 00       		.byte	0
 12284 0b96 19       		.uleb128 0x19
 12285 0b97 00000000 		.4byte	.LASF105
 12286 0b9b 01       		.byte	0x1
 12287 0b9c 4905     		.2byte	0x549
 12288 0b9e 14040000 		.4byte	0x414
 12289 0ba2 00000000 		.4byte	.LFB25
 12290 0ba6 90010000 		.4byte	.LFE25-.LFB25
 12291 0baa 01       		.uleb128 0x1
 12292 0bab 9C       		.byte	0x9c
 12293 0bac 150C0000 		.4byte	0xc15
 12294 0bb0 15       		.uleb128 0x15
 12295 0bb1 646A00   		.ascii	"dj\000"
 12296 0bb4 01       		.byte	0x1
 12297 0bb5 4A05     		.2byte	0x54a
ARM GAS  /tmp/ccIWRJEN.s 			page 218


 12298 0bb7 E3080000 		.4byte	0x8e3
 12299 0bbb 02       		.uleb128 0x2
 12300 0bbc 91       		.byte	0x91
 12301 0bbd 64       		.sleb128 -28
 12302 0bbe 16       		.uleb128 0x16
 12303 0bbf 72657300 		.ascii	"res\000"
 12304 0bc3 01       		.byte	0x1
 12305 0bc4 4D05     		.2byte	0x54d
 12306 0bc6 14040000 		.4byte	0x414
 12307 0bca 02       		.uleb128 0x2
 12308 0bcb 91       		.byte	0x91
 12309 0bcc 77       		.sleb128 -9
 12310 0bcd 16       		.uleb128 0x16
 12311 0bce 6300     		.ascii	"c\000"
 12312 0bd0 01       		.byte	0x1
 12313 0bd1 4E05     		.2byte	0x54e
 12314 0bd3 4C000000 		.4byte	0x4c
 12315 0bd7 02       		.uleb128 0x2
 12316 0bd8 91       		.byte	0x91
 12317 0bd9 76       		.sleb128 -10
 12318 0bda 16       		.uleb128 0x16
 12319 0bdb 64697200 		.ascii	"dir\000"
 12320 0bdf 01       		.byte	0x1
 12321 0be0 4E05     		.2byte	0x54e
 12322 0be2 75020000 		.4byte	0x275
 12323 0be6 02       		.uleb128 0x2
 12324 0be7 91       		.byte	0x91
 12325 0be8 70       		.sleb128 -16
 12326 0be9 16       		.uleb128 0x16
 12327 0bea 6100     		.ascii	"a\000"
 12328 0bec 01       		.byte	0x1
 12329 0bed 5005     		.2byte	0x550
 12330 0bef 4C000000 		.4byte	0x4c
 12331 0bf3 02       		.uleb128 0x2
 12332 0bf4 91       		.byte	0x91
 12333 0bf5 6F       		.sleb128 -17
 12334 0bf6 16       		.uleb128 0x16
 12335 0bf7 6F726400 		.ascii	"ord\000"
 12336 0bfb 01       		.byte	0x1
 12337 0bfc 5005     		.2byte	0x550
 12338 0bfe 4C000000 		.4byte	0x4c
 12339 0c02 02       		.uleb128 0x2
 12340 0c03 91       		.byte	0x91
 12341 0c04 75       		.sleb128 -11
 12342 0c05 16       		.uleb128 0x16
 12343 0c06 73756D00 		.ascii	"sum\000"
 12344 0c0a 01       		.byte	0x1
 12345 0c0b 5005     		.2byte	0x550
 12346 0c0d 4C000000 		.4byte	0x4c
 12347 0c11 02       		.uleb128 0x2
 12348 0c12 91       		.byte	0x91
 12349 0c13 74       		.sleb128 -12
 12350 0c14 00       		.byte	0
 12351 0c15 19       		.uleb128 0x19
 12352 0c16 4C030000 		.4byte	.LASF106
 12353 0c1a 01       		.byte	0x1
 12354 0c1b 8605     		.2byte	0x586
ARM GAS  /tmp/ccIWRJEN.s 			page 219


 12355 0c1d 14040000 		.4byte	0x414
 12356 0c21 00000000 		.4byte	.LFB26
 12357 0c25 68010000 		.4byte	.LFE26-.LFB26
 12358 0c29 01       		.uleb128 0x1
 12359 0c2a 9C       		.byte	0x9c
 12360 0c2b 940C0000 		.4byte	0xc94
 12361 0c2f 15       		.uleb128 0x15
 12362 0c30 646A00   		.ascii	"dj\000"
 12363 0c33 01       		.byte	0x1
 12364 0c34 8705     		.2byte	0x587
 12365 0c36 E3080000 		.4byte	0x8e3
 12366 0c3a 02       		.uleb128 0x2
 12367 0c3b 91       		.byte	0x91
 12368 0c3c 64       		.sleb128 -28
 12369 0c3d 16       		.uleb128 0x16
 12370 0c3e 72657300 		.ascii	"res\000"
 12371 0c42 01       		.byte	0x1
 12372 0c43 8A05     		.2byte	0x58a
 12373 0c45 14040000 		.4byte	0x414
 12374 0c49 02       		.uleb128 0x2
 12375 0c4a 91       		.byte	0x91
 12376 0c4b 77       		.sleb128 -9
 12377 0c4c 16       		.uleb128 0x16
 12378 0c4d 6300     		.ascii	"c\000"
 12379 0c4f 01       		.byte	0x1
 12380 0c50 8B05     		.2byte	0x58b
 12381 0c52 4C000000 		.4byte	0x4c
 12382 0c56 02       		.uleb128 0x2
 12383 0c57 91       		.byte	0x91
 12384 0c58 76       		.sleb128 -10
 12385 0c59 16       		.uleb128 0x16
 12386 0c5a 64697200 		.ascii	"dir\000"
 12387 0c5e 01       		.byte	0x1
 12388 0c5f 8B05     		.2byte	0x58b
 12389 0c61 75020000 		.4byte	0x275
 12390 0c65 02       		.uleb128 0x2
 12391 0c66 91       		.byte	0x91
 12392 0c67 70       		.sleb128 -16
 12393 0c68 16       		.uleb128 0x16
 12394 0c69 6100     		.ascii	"a\000"
 12395 0c6b 01       		.byte	0x1
 12396 0c6c 8D05     		.2byte	0x58d
 12397 0c6e 4C000000 		.4byte	0x4c
 12398 0c72 02       		.uleb128 0x2
 12399 0c73 91       		.byte	0x91
 12400 0c74 6F       		.sleb128 -17
 12401 0c75 16       		.uleb128 0x16
 12402 0c76 6F726400 		.ascii	"ord\000"
 12403 0c7a 01       		.byte	0x1
 12404 0c7b 8D05     		.2byte	0x58d
 12405 0c7d 4C000000 		.4byte	0x4c
 12406 0c81 02       		.uleb128 0x2
 12407 0c82 91       		.byte	0x91
 12408 0c83 75       		.sleb128 -11
 12409 0c84 16       		.uleb128 0x16
 12410 0c85 73756D00 		.ascii	"sum\000"
 12411 0c89 01       		.byte	0x1
ARM GAS  /tmp/ccIWRJEN.s 			page 220


 12412 0c8a 8D05     		.2byte	0x58d
 12413 0c8c 4C000000 		.4byte	0x4c
 12414 0c90 02       		.uleb128 0x2
 12415 0c91 91       		.byte	0x91
 12416 0c92 74       		.sleb128 -12
 12417 0c93 00       		.byte	0
 12418 0c94 19       		.uleb128 0x19
 12419 0c95 6E060000 		.4byte	.LASF107
 12420 0c99 01       		.byte	0x1
 12421 0c9a BF05     		.2byte	0x5bf
 12422 0c9c 14040000 		.4byte	0x414
 12423 0ca0 00000000 		.4byte	.LFB27
 12424 0ca4 B6020000 		.4byte	.LFE27-.LFB27
 12425 0ca8 01       		.uleb128 0x1
 12426 0ca9 9C       		.byte	0x9c
 12427 0caa 4B0D0000 		.4byte	0xd4b
 12428 0cae 15       		.uleb128 0x15
 12429 0caf 646A00   		.ascii	"dj\000"
 12430 0cb2 01       		.byte	0x1
 12431 0cb3 C005     		.2byte	0x5c0
 12432 0cb5 E3080000 		.4byte	0x8e3
 12433 0cb9 02       		.uleb128 0x2
 12434 0cba 91       		.byte	0x91
 12435 0cbb 4C       		.sleb128 -52
 12436 0cbc 16       		.uleb128 0x16
 12437 0cbd 72657300 		.ascii	"res\000"
 12438 0cc1 01       		.byte	0x1
 12439 0cc2 C305     		.2byte	0x5c3
 12440 0cc4 14040000 		.4byte	0x414
 12441 0cc8 02       		.uleb128 0x2
 12442 0cc9 91       		.byte	0x91
 12443 0cca 77       		.sleb128 -9
 12444 0ccb 16       		.uleb128 0x16
 12445 0ccc 6300     		.ascii	"c\000"
 12446 0cce 01       		.byte	0x1
 12447 0ccf C405     		.2byte	0x5c4
 12448 0cd1 4C000000 		.4byte	0x4c
 12449 0cd5 02       		.uleb128 0x2
 12450 0cd6 91       		.byte	0x91
 12451 0cd7 67       		.sleb128 -25
 12452 0cd8 16       		.uleb128 0x16
 12453 0cd9 64697200 		.ascii	"dir\000"
 12454 0cdd 01       		.byte	0x1
 12455 0cde C405     		.2byte	0x5c4
 12456 0ce0 75020000 		.4byte	0x275
 12457 0ce4 02       		.uleb128 0x2
 12458 0ce5 91       		.byte	0x91
 12459 0ce6 60       		.sleb128 -32
 12460 0ce7 16       		.uleb128 0x16
 12461 0ce8 6E00     		.ascii	"n\000"
 12462 0cea 01       		.byte	0x1
 12463 0ceb C605     		.2byte	0x5c6
 12464 0ced 65000000 		.4byte	0x65
 12465 0cf1 02       		.uleb128 0x2
 12466 0cf2 91       		.byte	0x91
 12467 0cf3 74       		.sleb128 -12
 12468 0cf4 16       		.uleb128 0x16
ARM GAS  /tmp/ccIWRJEN.s 			page 221


 12469 0cf5 6E6500   		.ascii	"ne\000"
 12470 0cf8 01       		.byte	0x1
 12471 0cf9 C605     		.2byte	0x5c6
 12472 0cfb 65000000 		.4byte	0x65
 12473 0cff 02       		.uleb128 0x2
 12474 0d00 91       		.byte	0x91
 12475 0d01 72       		.sleb128 -14
 12476 0d02 16       		.uleb128 0x16
 12477 0d03 697300   		.ascii	"is\000"
 12478 0d06 01       		.byte	0x1
 12479 0d07 C605     		.2byte	0x5c6
 12480 0d09 65000000 		.4byte	0x65
 12481 0d0d 02       		.uleb128 0x2
 12482 0d0e 91       		.byte	0x91
 12483 0d0f 70       		.sleb128 -16
 12484 0d10 16       		.uleb128 0x16
 12485 0d11 736E00   		.ascii	"sn\000"
 12486 0d14 01       		.byte	0x1
 12487 0d15 C705     		.2byte	0x5c7
 12488 0d17 4B0D0000 		.4byte	0xd4b
 12489 0d1b 02       		.uleb128 0x2
 12490 0d1c 91       		.byte	0x91
 12491 0d1d 54       		.sleb128 -44
 12492 0d1e 16       		.uleb128 0x16
 12493 0d1f 666E00   		.ascii	"fn\000"
 12494 0d22 01       		.byte	0x1
 12495 0d23 C705     		.2byte	0x5c7
 12496 0d25 75020000 		.4byte	0x275
 12497 0d29 02       		.uleb128 0x2
 12498 0d2a 91       		.byte	0x91
 12499 0d2b 6C       		.sleb128 -20
 12500 0d2c 16       		.uleb128 0x16
 12501 0d2d 73756D00 		.ascii	"sum\000"
 12502 0d31 01       		.byte	0x1
 12503 0d32 C705     		.2byte	0x5c7
 12504 0d34 4C000000 		.4byte	0x4c
 12505 0d38 02       		.uleb128 0x2
 12506 0d39 91       		.byte	0x91
 12507 0d3a 66       		.sleb128 -26
 12508 0d3b 16       		.uleb128 0x16
 12509 0d3c 6C666E00 		.ascii	"lfn\000"
 12510 0d40 01       		.byte	0x1
 12511 0d41 C805     		.2byte	0x5c8
 12512 0d43 04030000 		.4byte	0x304
 12513 0d47 02       		.uleb128 0x2
 12514 0d48 91       		.byte	0x91
 12515 0d49 68       		.sleb128 -24
 12516 0d4a 00       		.byte	0
 12517 0d4b 0B       		.uleb128 0xb
 12518 0d4c 4C000000 		.4byte	0x4c
 12519 0d50 5B0D0000 		.4byte	0xd5b
 12520 0d54 0F       		.uleb128 0xf
 12521 0d55 BD000000 		.4byte	0xbd
 12522 0d59 0B       		.byte	0xb
 12523 0d5a 00       		.byte	0
 12524 0d5b 19       		.uleb128 0x19
 12525 0d5c CD060000 		.4byte	.LASF108
ARM GAS  /tmp/ccIWRJEN.s 			page 222


 12526 0d60 01       		.byte	0x1
 12527 0d61 2A06     		.2byte	0x62a
 12528 0d63 14040000 		.4byte	0x414
 12529 0d67 00000000 		.4byte	.LFB28
 12530 0d6b A8000000 		.4byte	.LFE28-.LFB28
 12531 0d6f 01       		.uleb128 0x1
 12532 0d70 9C       		.byte	0x9c
 12533 0d71 A00D0000 		.4byte	0xda0
 12534 0d75 15       		.uleb128 0x15
 12535 0d76 646A00   		.ascii	"dj\000"
 12536 0d79 01       		.byte	0x1
 12537 0d7a 2B06     		.2byte	0x62b
 12538 0d7c E3080000 		.4byte	0x8e3
 12539 0d80 02       		.uleb128 0x2
 12540 0d81 91       		.byte	0x91
 12541 0d82 6C       		.sleb128 -20
 12542 0d83 16       		.uleb128 0x16
 12543 0d84 72657300 		.ascii	"res\000"
 12544 0d88 01       		.byte	0x1
 12545 0d89 2E06     		.2byte	0x62e
 12546 0d8b 14040000 		.4byte	0x414
 12547 0d8f 02       		.uleb128 0x2
 12548 0d90 91       		.byte	0x91
 12549 0d91 77       		.sleb128 -9
 12550 0d92 16       		.uleb128 0x16
 12551 0d93 6900     		.ascii	"i\000"
 12552 0d95 01       		.byte	0x1
 12553 0d96 3006     		.2byte	0x630
 12554 0d98 65000000 		.4byte	0x65
 12555 0d9c 02       		.uleb128 0x2
 12556 0d9d 91       		.byte	0x91
 12557 0d9e 74       		.sleb128 -12
 12558 0d9f 00       		.byte	0
 12559 0da0 19       		.uleb128 0x19
 12560 0da1 AF050000 		.4byte	.LASF109
 12561 0da5 01       		.byte	0x1
 12562 0da6 5706     		.2byte	0x657
 12563 0da8 14040000 		.4byte	0x414
 12564 0dac 00000000 		.4byte	.LFB29
 12565 0db0 AE030000 		.4byte	.LFE29-.LFB29
 12566 0db4 01       		.uleb128 0x1
 12567 0db5 9C       		.byte	0x9c
 12568 0db6 650E0000 		.4byte	0xe65
 12569 0dba 15       		.uleb128 0x15
 12570 0dbb 646A00   		.ascii	"dj\000"
 12571 0dbe 01       		.byte	0x1
 12572 0dbf 5806     		.2byte	0x658
 12573 0dc1 E3080000 		.4byte	0x8e3
 12574 0dc5 02       		.uleb128 0x2
 12575 0dc6 91       		.byte	0x91
 12576 0dc7 54       		.sleb128 -44
 12577 0dc8 1A       		.uleb128 0x1a
 12578 0dc9 91020000 		.4byte	.LASF110
 12579 0dcd 01       		.byte	0x1
 12580 0dce 5906     		.2byte	0x659
 12581 0dd0 650E0000 		.4byte	0xe65
 12582 0dd4 02       		.uleb128 0x2
ARM GAS  /tmp/ccIWRJEN.s 			page 223


 12583 0dd5 91       		.byte	0x91
 12584 0dd6 50       		.sleb128 -48
 12585 0dd7 1B       		.uleb128 0x1b
 12586 0dd8 9D040000 		.4byte	.LASF111
 12587 0ddc 01       		.byte	0x1
 12588 0ddd 5D06     		.2byte	0x65d
 12589 0ddf 860E0000 		.4byte	0xe86
 12590 0de3 05       		.uleb128 0x5
 12591 0de4 03       		.byte	0x3
 12592 0de5 00000000 		.4byte	excvt.5289
 12593 0de9 16       		.uleb128 0x16
 12594 0dea 6200     		.ascii	"b\000"
 12595 0dec 01       		.byte	0x1
 12596 0ded 6106     		.2byte	0x661
 12597 0def 4C000000 		.4byte	0x4c
 12598 0df3 02       		.uleb128 0x2
 12599 0df4 91       		.byte	0x91
 12600 0df5 77       		.sleb128 -9
 12601 0df6 16       		.uleb128 0x16
 12602 0df7 636600   		.ascii	"cf\000"
 12603 0dfa 01       		.byte	0x1
 12604 0dfb 6106     		.2byte	0x661
 12605 0dfd 4C000000 		.4byte	0x4c
 12606 0e01 02       		.uleb128 0x2
 12607 0e02 91       		.byte	0x91
 12608 0e03 76       		.sleb128 -10
 12609 0e04 16       		.uleb128 0x16
 12610 0e05 7700     		.ascii	"w\000"
 12611 0e07 01       		.byte	0x1
 12612 0e08 6206     		.2byte	0x662
 12613 0e0a 70000000 		.4byte	0x70
 12614 0e0e 02       		.uleb128 0x2
 12615 0e0f 91       		.byte	0x91
 12616 0e10 74       		.sleb128 -12
 12617 0e11 16       		.uleb128 0x16
 12618 0e12 6C666E00 		.ascii	"lfn\000"
 12619 0e16 01       		.byte	0x1
 12620 0e17 6206     		.2byte	0x662
 12621 0e19 04030000 		.4byte	0x304
 12622 0e1d 02       		.uleb128 0x2
 12623 0e1e 91       		.byte	0x91
 12624 0e1f 5C       		.sleb128 -36
 12625 0e20 16       		.uleb128 0x16
 12626 0e21 6900     		.ascii	"i\000"
 12627 0e23 01       		.byte	0x1
 12628 0e24 6306     		.2byte	0x663
 12629 0e26 2C000000 		.4byte	0x2c
 12630 0e2a 02       		.uleb128 0x2
 12631 0e2b 91       		.byte	0x91
 12632 0e2c 70       		.sleb128 -16
 12633 0e2d 16       		.uleb128 0x16
 12634 0e2e 6E6900   		.ascii	"ni\000"
 12635 0e31 01       		.byte	0x1
 12636 0e32 6306     		.2byte	0x663
 12637 0e34 2C000000 		.4byte	0x2c
 12638 0e38 02       		.uleb128 0x2
 12639 0e39 91       		.byte	0x91
ARM GAS  /tmp/ccIWRJEN.s 			page 224


 12640 0e3a 6C       		.sleb128 -20
 12641 0e3b 16       		.uleb128 0x16
 12642 0e3c 736900   		.ascii	"si\000"
 12643 0e3f 01       		.byte	0x1
 12644 0e40 6306     		.2byte	0x663
 12645 0e42 2C000000 		.4byte	0x2c
 12646 0e46 02       		.uleb128 0x2
 12647 0e47 91       		.byte	0x91
 12648 0e48 68       		.sleb128 -24
 12649 0e49 16       		.uleb128 0x16
 12650 0e4a 646900   		.ascii	"di\000"
 12651 0e4d 01       		.byte	0x1
 12652 0e4e 6306     		.2byte	0x663
 12653 0e50 2C000000 		.4byte	0x2c
 12654 0e54 02       		.uleb128 0x2
 12655 0e55 91       		.byte	0x91
 12656 0e56 64       		.sleb128 -28
 12657 0e57 16       		.uleb128 0x16
 12658 0e58 7000     		.ascii	"p\000"
 12659 0e5a 01       		.byte	0x1
 12660 0e5b 6406     		.2byte	0x664
 12661 0e5d 6B0E0000 		.4byte	0xe6b
 12662 0e61 02       		.uleb128 0x2
 12663 0e62 91       		.byte	0x91
 12664 0e63 60       		.sleb128 -32
 12665 0e64 00       		.byte	0
 12666 0e65 06       		.uleb128 0x6
 12667 0e66 04       		.byte	0x4
 12668 0e67 6B0E0000 		.4byte	0xe6b
 12669 0e6b 06       		.uleb128 0x6
 12670 0e6c 04       		.byte	0x4
 12671 0e6d 710E0000 		.4byte	0xe71
 12672 0e71 07       		.uleb128 0x7
 12673 0e72 CF000000 		.4byte	0xcf
 12674 0e76 0B       		.uleb128 0xb
 12675 0e77 4C000000 		.4byte	0x4c
 12676 0e7b 860E0000 		.4byte	0xe86
 12677 0e7f 0F       		.uleb128 0xf
 12678 0e80 BD000000 		.4byte	0xbd
 12679 0e84 7F       		.byte	0x7f
 12680 0e85 00       		.byte	0
 12681 0e86 07       		.uleb128 0x7
 12682 0e87 760E0000 		.4byte	0xe76
 12683 0e8b 20       		.uleb128 0x20
 12684 0e8c 96020000 		.4byte	.LASF112
 12685 0e90 01       		.byte	0x1
 12686 0e91 2D07     		.2byte	0x72d
 12687 0e93 00000000 		.4byte	.LFB30
 12688 0e97 C0010000 		.4byte	.LFE30-.LFB30
 12689 0e9b 01       		.uleb128 0x1
 12690 0e9c 9C       		.byte	0x9c
 12691 0e9d 370F0000 		.4byte	0xf37
 12692 0ea1 15       		.uleb128 0x15
 12693 0ea2 646A00   		.ascii	"dj\000"
 12694 0ea5 01       		.byte	0x1
 12695 0ea6 2E07     		.2byte	0x72e
 12696 0ea8 E3080000 		.4byte	0x8e3
ARM GAS  /tmp/ccIWRJEN.s 			page 225


 12697 0eac 02       		.uleb128 0x2
 12698 0ead 91       		.byte	0x91
 12699 0eae 54       		.sleb128 -44
 12700 0eaf 15       		.uleb128 0x15
 12701 0eb0 666E6F00 		.ascii	"fno\000"
 12702 0eb4 01       		.byte	0x1
 12703 0eb5 2F07     		.2byte	0x72f
 12704 0eb7 370F0000 		.4byte	0xf37
 12705 0ebb 02       		.uleb128 0x2
 12706 0ebc 91       		.byte	0x91
 12707 0ebd 50       		.sleb128 -48
 12708 0ebe 16       		.uleb128 0x16
 12709 0ebf 6900     		.ascii	"i\000"
 12710 0ec1 01       		.byte	0x1
 12711 0ec2 3207     		.2byte	0x732
 12712 0ec4 2C000000 		.4byte	0x2c
 12713 0ec8 02       		.uleb128 0x2
 12714 0ec9 91       		.byte	0x91
 12715 0eca 74       		.sleb128 -12
 12716 0ecb 16       		.uleb128 0x16
 12717 0ecc 6E7400   		.ascii	"nt\000"
 12718 0ecf 01       		.byte	0x1
 12719 0ed0 3307     		.2byte	0x733
 12720 0ed2 4C000000 		.4byte	0x4c
 12721 0ed6 02       		.uleb128 0x2
 12722 0ed7 91       		.byte	0x91
 12723 0ed8 63       		.sleb128 -29
 12724 0ed9 16       		.uleb128 0x16
 12725 0eda 64697200 		.ascii	"dir\000"
 12726 0ede 01       		.byte	0x1
 12727 0edf 3307     		.2byte	0x733
 12728 0ee1 75020000 		.4byte	0x275
 12729 0ee5 02       		.uleb128 0x2
 12730 0ee6 91       		.byte	0x91
 12731 0ee7 64       		.sleb128 -28
 12732 0ee8 16       		.uleb128 0x16
 12733 0ee9 7000     		.ascii	"p\000"
 12734 0eeb 01       		.byte	0x1
 12735 0eec 3407     		.2byte	0x734
 12736 0eee 82030000 		.4byte	0x382
 12737 0ef2 02       		.uleb128 0x2
 12738 0ef3 91       		.byte	0x91
 12739 0ef4 70       		.sleb128 -16
 12740 0ef5 16       		.uleb128 0x16
 12741 0ef6 6300     		.ascii	"c\000"
 12742 0ef8 01       		.byte	0x1
 12743 0ef9 3407     		.2byte	0x734
 12744 0efb CF000000 		.4byte	0xcf
 12745 0eff 02       		.uleb128 0x2
 12746 0f00 91       		.byte	0x91
 12747 0f01 6F       		.sleb128 -17
 12748 0f02 1C       		.uleb128 0x1c
 12749 0f03 32010000 		.4byte	.LBB4
 12750 0f07 88000000 		.4byte	.LBE4-.LBB4
 12751 0f0b 16       		.uleb128 0x16
 12752 0f0c 747000   		.ascii	"tp\000"
 12753 0f0f 01       		.byte	0x1
ARM GAS  /tmp/ccIWRJEN.s 			page 226


 12754 0f10 6007     		.2byte	0x760
 12755 0f12 82030000 		.4byte	0x382
 12756 0f16 02       		.uleb128 0x2
 12757 0f17 91       		.byte	0x91
 12758 0f18 5C       		.sleb128 -36
 12759 0f19 16       		.uleb128 0x16
 12760 0f1a 7700     		.ascii	"w\000"
 12761 0f1c 01       		.byte	0x1
 12762 0f1d 6107     		.2byte	0x761
 12763 0f1f 70000000 		.4byte	0x70
 12764 0f23 02       		.uleb128 0x2
 12765 0f24 91       		.byte	0x91
 12766 0f25 5A       		.sleb128 -38
 12767 0f26 16       		.uleb128 0x16
 12768 0f27 6C666E00 		.ascii	"lfn\000"
 12769 0f2b 01       		.byte	0x1
 12770 0f2c 6107     		.2byte	0x761
 12771 0f2e 04030000 		.4byte	0x304
 12772 0f32 02       		.uleb128 0x2
 12773 0f33 91       		.byte	0x91
 12774 0f34 68       		.sleb128 -24
 12775 0f35 00       		.byte	0
 12776 0f36 00       		.byte	0
 12777 0f37 06       		.uleb128 0x6
 12778 0f38 04       		.byte	0x4
 12779 0f39 88030000 		.4byte	0x388
 12780 0f3d 19       		.uleb128 0x19
 12781 0f3e 67020000 		.4byte	.LASF113
 12782 0f42 01       		.byte	0x1
 12783 0f43 7F07     		.2byte	0x77f
 12784 0f45 14040000 		.4byte	0x414
 12785 0f49 00000000 		.4byte	.LFB31
 12786 0f4d E6000000 		.4byte	.LFE31-.LFB31
 12787 0f51 01       		.uleb128 0x1
 12788 0f52 9C       		.byte	0x9c
 12789 0f53 A10F0000 		.4byte	0xfa1
 12790 0f57 15       		.uleb128 0x15
 12791 0f58 646A00   		.ascii	"dj\000"
 12792 0f5b 01       		.byte	0x1
 12793 0f5c 8007     		.2byte	0x780
 12794 0f5e E3080000 		.4byte	0x8e3
 12795 0f62 02       		.uleb128 0x2
 12796 0f63 91       		.byte	0x91
 12797 0f64 6C       		.sleb128 -20
 12798 0f65 1A       		.uleb128 0x1a
 12799 0f66 91020000 		.4byte	.LASF110
 12800 0f6a 01       		.byte	0x1
 12801 0f6b 8107     		.2byte	0x781
 12802 0f6d 6B0E0000 		.4byte	0xe6b
 12803 0f71 02       		.uleb128 0x2
 12804 0f72 91       		.byte	0x91
 12805 0f73 68       		.sleb128 -24
 12806 0f74 16       		.uleb128 0x16
 12807 0f75 72657300 		.ascii	"res\000"
 12808 0f79 01       		.byte	0x1
 12809 0f7a 8407     		.2byte	0x784
 12810 0f7c 14040000 		.4byte	0x414
ARM GAS  /tmp/ccIWRJEN.s 			page 227


 12811 0f80 02       		.uleb128 0x2
 12812 0f81 91       		.byte	0x91
 12813 0f82 77       		.sleb128 -9
 12814 0f83 16       		.uleb128 0x16
 12815 0f84 64697200 		.ascii	"dir\000"
 12816 0f88 01       		.byte	0x1
 12817 0f89 8507     		.2byte	0x785
 12818 0f8b 75020000 		.4byte	0x275
 12819 0f8f 02       		.uleb128 0x2
 12820 0f90 91       		.byte	0x91
 12821 0f91 70       		.sleb128 -16
 12822 0f92 16       		.uleb128 0x16
 12823 0f93 6E7300   		.ascii	"ns\000"
 12824 0f96 01       		.byte	0x1
 12825 0f97 8507     		.2byte	0x785
 12826 0f99 4C000000 		.4byte	0x4c
 12827 0f9d 02       		.uleb128 0x2
 12828 0f9e 91       		.byte	0x91
 12829 0f9f 76       		.sleb128 -10
 12830 0fa0 00       		.byte	0
 12831 0fa1 19       		.uleb128 0x19
 12832 0fa2 18020000 		.4byte	.LASF114
 12833 0fa6 01       		.byte	0x1
 12834 0fa7 BE07     		.2byte	0x7be
 12835 0fa9 4C000000 		.4byte	0x4c
 12836 0fad 00000000 		.4byte	.LFB32
 12837 0fb1 78000000 		.4byte	.LFE32-.LFB32
 12838 0fb5 01       		.uleb128 0x1
 12839 0fb6 9C       		.byte	0x9c
 12840 0fb7 D90F0000 		.4byte	0xfd9
 12841 0fbb 15       		.uleb128 0x15
 12842 0fbc 667300   		.ascii	"fs\000"
 12843 0fbf 01       		.byte	0x1
 12844 0fc0 BF07     		.2byte	0x7bf
 12845 0fc2 6F020000 		.4byte	0x26f
 12846 0fc6 02       		.uleb128 0x2
 12847 0fc7 91       		.byte	0x91
 12848 0fc8 74       		.sleb128 -12
 12849 0fc9 1A       		.uleb128 0x1a
 12850 0fca 34030000 		.4byte	.LASF44
 12851 0fce 01       		.byte	0x1
 12852 0fcf C007     		.2byte	0x7c0
 12853 0fd1 94000000 		.4byte	0x94
 12854 0fd5 02       		.uleb128 0x2
 12855 0fd6 91       		.byte	0x91
 12856 0fd7 70       		.sleb128 -16
 12857 0fd8 00       		.byte	0
 12858 0fd9 19       		.uleb128 0x19
 12859 0fda B9060000 		.4byte	.LASF115
 12860 0fde 01       		.byte	0x1
 12861 0fdf D807     		.2byte	0x7d8
 12862 0fe1 14040000 		.4byte	0x414
 12863 0fe5 00000000 		.4byte	.LFB33
 12864 0fe9 14040000 		.4byte	.LFE33-.LFB33
 12865 0fed 01       		.uleb128 0x1
 12866 0fee 9C       		.byte	0x9c
 12867 0fef FF100000 		.4byte	0x10ff
ARM GAS  /tmp/ccIWRJEN.s 			page 228


 12868 0ff3 1A       		.uleb128 0x1a
 12869 0ff4 91020000 		.4byte	.LASF110
 12870 0ff8 01       		.byte	0x1
 12871 0ff9 D907     		.2byte	0x7d9
 12872 0ffb 650E0000 		.4byte	0xe65
 12873 0fff 03       		.uleb128 0x3
 12874 1000 91       		.byte	0x91
 12875 1001 BC7F     		.sleb128 -68
 12876 1003 15       		.uleb128 0x15
 12877 1004 72667300 		.ascii	"rfs\000"
 12878 1008 01       		.byte	0x1
 12879 1009 DA07     		.2byte	0x7da
 12880 100b FF100000 		.4byte	0x10ff
 12881 100f 03       		.uleb128 0x3
 12882 1010 91       		.byte	0x91
 12883 1011 B87F     		.sleb128 -72
 12884 1013 1A       		.uleb128 0x1a
 12885 1014 07010000 		.4byte	.LASF116
 12886 1018 01       		.byte	0x1
 12887 1019 DB07     		.2byte	0x7db
 12888 101b 4C000000 		.4byte	0x4c
 12889 101f 03       		.uleb128 0x3
 12890 1020 91       		.byte	0x91
 12891 1021 B77F     		.sleb128 -73
 12892 1023 16       		.uleb128 0x16
 12893 1024 666D7400 		.ascii	"fmt\000"
 12894 1028 01       		.byte	0x1
 12895 1029 DE07     		.2byte	0x7de
 12896 102b 4C000000 		.4byte	0x4c
 12897 102f 02       		.uleb128 0x2
 12898 1030 91       		.byte	0x91
 12899 1031 77       		.sleb128 -9
 12900 1032 16       		.uleb128 0x16
 12901 1033 6200     		.ascii	"b\000"
 12902 1035 01       		.byte	0x1
 12903 1036 DE07     		.2byte	0x7de
 12904 1038 4C000000 		.4byte	0x4c
 12905 103c 02       		.uleb128 0x2
 12906 103d 91       		.byte	0x91
 12907 103e 4F       		.sleb128 -49
 12908 103f 16       		.uleb128 0x16
 12909 1040 706900   		.ascii	"pi\000"
 12910 1043 01       		.byte	0x1
 12911 1044 DE07     		.2byte	0x7de
 12912 1046 4C000000 		.4byte	0x4c
 12913 104a 02       		.uleb128 0x2
 12914 104b 91       		.byte	0x91
 12915 104c 76       		.sleb128 -10
 12916 104d 16       		.uleb128 0x16
 12917 104e 74626C00 		.ascii	"tbl\000"
 12918 1052 01       		.byte	0x1
 12919 1053 DE07     		.2byte	0x7de
 12920 1055 75020000 		.4byte	0x275
 12921 1059 02       		.uleb128 0x2
 12922 105a 91       		.byte	0x91
 12923 105b 50       		.sleb128 -48
 12924 105c 16       		.uleb128 0x16
ARM GAS  /tmp/ccIWRJEN.s 			page 229


 12925 105d 766F6C00 		.ascii	"vol\000"
 12926 1061 01       		.byte	0x1
 12927 1062 DF07     		.2byte	0x7df
 12928 1064 2C000000 		.4byte	0x2c
 12929 1068 02       		.uleb128 0x2
 12930 1069 91       		.byte	0x91
 12931 106a 70       		.sleb128 -16
 12932 106b 1B       		.uleb128 0x1b
 12933 106c 08020000 		.4byte	.LASF117
 12934 1070 01       		.byte	0x1
 12935 1071 E007     		.2byte	0x7e0
 12936 1073 1F040000 		.4byte	0x41f
 12937 1077 02       		.uleb128 0x2
 12938 1078 91       		.byte	0x91
 12939 1079 57       		.sleb128 -41
 12940 107a 1B       		.uleb128 0x1b
 12941 107b 12060000 		.4byte	.LASF118
 12942 107f 01       		.byte	0x1
 12943 1080 E107     		.2byte	0x7e1
 12944 1082 94000000 		.4byte	0x94
 12945 1086 02       		.uleb128 0x2
 12946 1087 91       		.byte	0x91
 12947 1088 6C       		.sleb128 -20
 12948 1089 1B       		.uleb128 0x1b
 12949 108a BA030000 		.4byte	.LASF119
 12950 108e 01       		.byte	0x1
 12951 108f E107     		.2byte	0x7e1
 12952 1091 94000000 		.4byte	0x94
 12953 1095 02       		.uleb128 0x2
 12954 1096 91       		.byte	0x91
 12955 1097 68       		.sleb128 -24
 12956 1098 1B       		.uleb128 0x1b
 12957 1099 EE020000 		.4byte	.LASF120
 12958 109d 01       		.byte	0x1
 12959 109e E107     		.2byte	0x7e1
 12960 10a0 94000000 		.4byte	0x94
 12961 10a4 02       		.uleb128 0x2
 12962 10a5 91       		.byte	0x91
 12963 10a6 64       		.sleb128 -28
 12964 10a7 1B       		.uleb128 0x1b
 12965 10a8 D8060000 		.4byte	.LASF121
 12966 10ac 01       		.byte	0x1
 12967 10ad E107     		.2byte	0x7e1
 12968 10af 94000000 		.4byte	0x94
 12969 10b3 02       		.uleb128 0x2
 12970 10b4 91       		.byte	0x91
 12971 10b5 48       		.sleb128 -56
 12972 10b6 1B       		.uleb128 0x1b
 12973 10b7 81010000 		.4byte	.LASF122
 12974 10bb 01       		.byte	0x1
 12975 10bc E107     		.2byte	0x7e1
 12976 10be 94000000 		.4byte	0x94
 12977 10c2 02       		.uleb128 0x2
 12978 10c3 91       		.byte	0x91
 12979 10c4 44       		.sleb128 -60
 12980 10c5 1B       		.uleb128 0x1b
 12981 10c6 D3030000 		.4byte	.LASF123
ARM GAS  /tmp/ccIWRJEN.s 			page 230


 12982 10ca 01       		.byte	0x1
 12983 10cb E107     		.2byte	0x7e1
 12984 10cd 94000000 		.4byte	0x94
 12985 10d1 02       		.uleb128 0x2
 12986 10d2 91       		.byte	0x91
 12987 10d3 60       		.sleb128 -32
 12988 10d4 1B       		.uleb128 0x1b
 12989 10d5 8C060000 		.4byte	.LASF124
 12990 10d9 01       		.byte	0x1
 12991 10da E207     		.2byte	0x7e2
 12992 10dc 65000000 		.4byte	0x65
 12993 10e0 02       		.uleb128 0x2
 12994 10e1 91       		.byte	0x91
 12995 10e2 4C       		.sleb128 -52
 12996 10e3 16       		.uleb128 0x16
 12997 10e4 7000     		.ascii	"p\000"
 12998 10e6 01       		.byte	0x1
 12999 10e7 E307     		.2byte	0x7e3
 13000 10e9 6B0E0000 		.4byte	0xe6b
 13001 10ed 02       		.uleb128 0x2
 13002 10ee 91       		.byte	0x91
 13003 10ef 5C       		.sleb128 -36
 13004 10f0 16       		.uleb128 0x16
 13005 10f1 667300   		.ascii	"fs\000"
 13006 10f4 01       		.byte	0x1
 13007 10f5 E407     		.2byte	0x7e4
 13008 10f7 6F020000 		.4byte	0x26f
 13009 10fb 02       		.uleb128 0x2
 13010 10fc 91       		.byte	0x91
 13011 10fd 58       		.sleb128 -40
 13012 10fe 00       		.byte	0
 13013 10ff 06       		.uleb128 0x6
 13014 1100 04       		.byte	0x4
 13015 1101 6F020000 		.4byte	0x26f
 13016 1105 19       		.uleb128 0x19
 13017 1106 10070000 		.4byte	.LASF125
 13018 110a 01       		.byte	0x1
 13019 110b 7C08     		.2byte	0x87c
 13020 110d 14040000 		.4byte	0x414
 13021 1111 00000000 		.4byte	.LFB34
 13022 1115 4C000000 		.4byte	.LFE34-.LFB34
 13023 1119 01       		.uleb128 0x1
 13024 111a 9C       		.byte	0x9c
 13025 111b 3C110000 		.4byte	0x113c
 13026 111f 15       		.uleb128 0x15
 13027 1120 667300   		.ascii	"fs\000"
 13028 1123 01       		.byte	0x1
 13029 1124 7D08     		.2byte	0x87d
 13030 1126 6F020000 		.4byte	0x26f
 13031 112a 02       		.uleb128 0x2
 13032 112b 91       		.byte	0x91
 13033 112c 74       		.sleb128 -12
 13034 112d 15       		.uleb128 0x15
 13035 112e 696400   		.ascii	"id\000"
 13036 1131 01       		.byte	0x1
 13037 1132 7E08     		.2byte	0x87e
 13038 1134 65000000 		.4byte	0x65
ARM GAS  /tmp/ccIWRJEN.s 			page 231


 13039 1138 02       		.uleb128 0x2
 13040 1139 91       		.byte	0x91
 13041 113a 72       		.sleb128 -14
 13042 113b 00       		.byte	0
 13043 113c 1D       		.uleb128 0x1d
 13044 113d 95040000 		.4byte	.LASF126
 13045 1141 01       		.byte	0x1
 13046 1142 9B08     		.2byte	0x89b
 13047 1144 14040000 		.4byte	0x414
 13048 1148 00000000 		.4byte	.LFB35
 13049 114c 5A000000 		.4byte	.LFE35-.LFB35
 13050 1150 01       		.uleb128 0x1
 13051 1151 9C       		.byte	0x9c
 13052 1152 83110000 		.4byte	0x1183
 13053 1156 15       		.uleb128 0x15
 13054 1157 766F6C00 		.ascii	"vol\000"
 13055 115b 01       		.byte	0x1
 13056 115c 9C08     		.2byte	0x89c
 13057 115e 4C000000 		.4byte	0x4c
 13058 1162 02       		.uleb128 0x2
 13059 1163 91       		.byte	0x91
 13060 1164 77       		.sleb128 -9
 13061 1165 15       		.uleb128 0x15
 13062 1166 667300   		.ascii	"fs\000"
 13063 1169 01       		.byte	0x1
 13064 116a 9D08     		.2byte	0x89d
 13065 116c 6F020000 		.4byte	0x26f
 13066 1170 02       		.uleb128 0x2
 13067 1171 91       		.byte	0x91
 13068 1172 70       		.sleb128 -16
 13069 1173 16       		.uleb128 0x16
 13070 1174 72667300 		.ascii	"rfs\000"
 13071 1178 01       		.byte	0x1
 13072 1179 A008     		.2byte	0x8a0
 13073 117b 6F020000 		.4byte	0x26f
 13074 117f 02       		.uleb128 0x2
 13075 1180 91       		.byte	0x91
 13076 1181 7C       		.sleb128 -4
 13077 1182 00       		.byte	0
 13078 1183 1E       		.uleb128 0x1e
 13079 1184 39020000 		.4byte	.LASF127
 13080 1188 01       		.byte	0x1
 13081 1189 C308     		.2byte	0x8c3
 13082 118b 14040000 		.4byte	0x414
 13083 118f 00000000 		.4byte	.LFB36
 13084 1193 4E020000 		.4byte	.LFE36-.LFB36
 13085 1197 01       		.uleb128 0x1
 13086 1198 9C       		.byte	0x9c
 13087 1199 3E120000 		.4byte	0x123e
 13088 119d 15       		.uleb128 0x15
 13089 119e 667000   		.ascii	"fp\000"
 13090 11a1 01       		.byte	0x1
 13091 11a2 C408     		.2byte	0x8c4
 13092 11a4 3E120000 		.4byte	0x123e
 13093 11a8 03       		.uleb128 0x3
 13094 11a9 91       		.byte	0x91
 13095 11aa AC7F     		.sleb128 -84
ARM GAS  /tmp/ccIWRJEN.s 			page 232


 13096 11ac 1A       		.uleb128 0x1a
 13097 11ad 91020000 		.4byte	.LASF110
 13098 11b1 01       		.byte	0x1
 13099 11b2 C508     		.2byte	0x8c5
 13100 11b4 6B0E0000 		.4byte	0xe6b
 13101 11b8 03       		.uleb128 0x3
 13102 11b9 91       		.byte	0x91
 13103 11ba A87F     		.sleb128 -88
 13104 11bc 1A       		.uleb128 0x1a
 13105 11bd 16010000 		.4byte	.LASF128
 13106 11c1 01       		.byte	0x1
 13107 11c2 C608     		.2byte	0x8c6
 13108 11c4 4C000000 		.4byte	0x4c
 13109 11c8 03       		.uleb128 0x3
 13110 11c9 91       		.byte	0x91
 13111 11ca A77F     		.sleb128 -89
 13112 11cc 16       		.uleb128 0x16
 13113 11cd 72657300 		.ascii	"res\000"
 13114 11d1 01       		.byte	0x1
 13115 11d2 C908     		.2byte	0x8c9
 13116 11d4 14040000 		.4byte	0x414
 13117 11d8 02       		.uleb128 0x2
 13118 11d9 91       		.byte	0x91
 13119 11da 77       		.sleb128 -9
 13120 11db 16       		.uleb128 0x16
 13121 11dc 646A00   		.ascii	"dj\000"
 13122 11df 01       		.byte	0x1
 13123 11e0 CA08     		.2byte	0x8ca
 13124 11e2 0A030000 		.4byte	0x30a
 13125 11e6 02       		.uleb128 0x2
 13126 11e7 91       		.byte	0x91
 13127 11e8 40       		.sleb128 -64
 13128 11e9 16       		.uleb128 0x16
 13129 11ea 64697200 		.ascii	"dir\000"
 13130 11ee 01       		.byte	0x1
 13131 11ef CB08     		.2byte	0x8cb
 13132 11f1 75020000 		.4byte	0x275
 13133 11f5 02       		.uleb128 0x2
 13134 11f6 91       		.byte	0x91
 13135 11f7 70       		.sleb128 -16
 13136 11f8 16       		.uleb128 0x16
 13137 11f9 73666E00 		.ascii	"sfn\000"
 13138 11fd 01       		.byte	0x1
 13139 11fe CC08     		.2byte	0x8cc
 13140 1200 4B0D0000 		.4byte	0xd4b
 13141 1204 03       		.uleb128 0x3
 13142 1205 91       		.byte	0x91
 13143 1206 B47F     		.sleb128 -76
 13144 1208 16       		.uleb128 0x16
 13145 1209 6C666E00 		.ascii	"lfn\000"
 13146 120d 01       		.byte	0x1
 13147 120e CC08     		.2byte	0x8cc
 13148 1210 04030000 		.4byte	0x304
 13149 1214 02       		.uleb128 0x2
 13150 1215 91       		.byte	0x91
 13151 1216 6C       		.sleb128 -20
 13152 1217 1C       		.uleb128 0x1c
ARM GAS  /tmp/ccIWRJEN.s 			page 233


 13153 1218 98000000 		.4byte	.LBB5
 13154 121c EE000000 		.4byte	.LBE5-.LBB5
 13155 1220 16       		.uleb128 0x16
 13156 1221 647700   		.ascii	"dw\000"
 13157 1224 01       		.byte	0x1
 13158 1225 E808     		.2byte	0x8e8
 13159 1227 94000000 		.4byte	0x94
 13160 122b 02       		.uleb128 0x2
 13161 122c 91       		.byte	0x91
 13162 122d 68       		.sleb128 -24
 13163 122e 16       		.uleb128 0x16
 13164 122f 636C00   		.ascii	"cl\000"
 13165 1232 01       		.byte	0x1
 13166 1233 E808     		.2byte	0x8e8
 13167 1235 94000000 		.4byte	0x94
 13168 1239 02       		.uleb128 0x2
 13169 123a 91       		.byte	0x91
 13170 123b 64       		.sleb128 -28
 13171 123c 00       		.byte	0
 13172 123d 00       		.byte	0
 13173 123e 06       		.uleb128 0x6
 13174 123f 04       		.byte	0x4
 13175 1240 7B020000 		.4byte	0x27b
 13176 1244 1E       		.uleb128 0x1e
 13177 1245 DE020000 		.4byte	.LASF129
 13178 1249 01       		.byte	0x1
 13179 124a 4509     		.2byte	0x945
 13180 124c 14040000 		.4byte	0x414
 13181 1250 00000000 		.4byte	.LFB37
 13182 1254 C6020000 		.4byte	.LFE37-.LFB37
 13183 1258 01       		.uleb128 0x1
 13184 1259 9C       		.byte	0x9c
 13185 125a 10130000 		.4byte	0x1310
 13186 125e 15       		.uleb128 0x15
 13187 125f 667000   		.ascii	"fp\000"
 13188 1262 01       		.byte	0x1
 13189 1263 4609     		.2byte	0x946
 13190 1265 3E120000 		.4byte	0x123e
 13191 1269 02       		.uleb128 0x2
 13192 126a 91       		.byte	0x91
 13193 126b 54       		.sleb128 -44
 13194 126c 1A       		.uleb128 0x1a
 13195 126d 13020000 		.4byte	.LASF130
 13196 1271 01       		.byte	0x1
 13197 1272 4709     		.2byte	0x947
 13198 1274 BB000000 		.4byte	0xbb
 13199 1278 02       		.uleb128 0x2
 13200 1279 91       		.byte	0x91
 13201 127a 50       		.sleb128 -48
 13202 127b 15       		.uleb128 0x15
 13203 127c 62747200 		.ascii	"btr\000"
 13204 1280 01       		.byte	0x1
 13205 1281 4809     		.2byte	0x948
 13206 1283 2C000000 		.4byte	0x2c
 13207 1287 02       		.uleb128 0x2
 13208 1288 91       		.byte	0x91
 13209 1289 4C       		.sleb128 -52
ARM GAS  /tmp/ccIWRJEN.s 			page 234


 13210 128a 15       		.uleb128 0x15
 13211 128b 627200   		.ascii	"br\000"
 13212 128e 01       		.byte	0x1
 13213 128f 4909     		.2byte	0x949
 13214 1291 10130000 		.4byte	0x1310
 13215 1295 02       		.uleb128 0x2
 13216 1296 91       		.byte	0x91
 13217 1297 48       		.sleb128 -56
 13218 1298 16       		.uleb128 0x16
 13219 1299 72657300 		.ascii	"res\000"
 13220 129d 01       		.byte	0x1
 13221 129e 4C09     		.2byte	0x94c
 13222 12a0 14040000 		.4byte	0x414
 13223 12a4 02       		.uleb128 0x2
 13224 12a5 91       		.byte	0x91
 13225 12a6 67       		.sleb128 -25
 13226 12a7 1B       		.uleb128 0x1b
 13227 12a8 28000000 		.4byte	.LASF90
 13228 12ac 01       		.byte	0x1
 13229 12ad 4D09     		.2byte	0x94d
 13230 12af 94000000 		.4byte	0x94
 13231 12b3 02       		.uleb128 0x2
 13232 12b4 91       		.byte	0x91
 13233 12b5 74       		.sleb128 -12
 13234 12b6 1B       		.uleb128 0x1b
 13235 12b7 34030000 		.4byte	.LASF44
 13236 12bb 01       		.byte	0x1
 13237 12bc 4D09     		.2byte	0x94d
 13238 12be 94000000 		.4byte	0x94
 13239 12c2 02       		.uleb128 0x2
 13240 12c3 91       		.byte	0x91
 13241 12c4 58       		.sleb128 -40
 13242 12c5 1B       		.uleb128 0x1b
 13243 12c6 41040000 		.4byte	.LASF131
 13244 12ca 01       		.byte	0x1
 13245 12cb 4D09     		.2byte	0x94d
 13246 12cd 94000000 		.4byte	0x94
 13247 12d1 02       		.uleb128 0x2
 13248 12d2 91       		.byte	0x91
 13249 12d3 60       		.sleb128 -32
 13250 12d4 1B       		.uleb128 0x1b
 13251 12d5 2B060000 		.4byte	.LASF132
 13252 12d9 01       		.byte	0x1
 13253 12da 4E09     		.2byte	0x94e
 13254 12dc 2C000000 		.4byte	0x2c
 13255 12e0 02       		.uleb128 0x2
 13256 12e1 91       		.byte	0x91
 13257 12e2 70       		.sleb128 -16
 13258 12e3 16       		.uleb128 0x16
 13259 12e4 636300   		.ascii	"cc\000"
 13260 12e7 01       		.byte	0x1
 13261 12e8 4E09     		.2byte	0x94e
 13262 12ea 2C000000 		.4byte	0x2c
 13263 12ee 02       		.uleb128 0x2
 13264 12ef 91       		.byte	0x91
 13265 12f0 6C       		.sleb128 -20
 13266 12f1 1B       		.uleb128 0x1b
ARM GAS  /tmp/ccIWRJEN.s 			page 235


 13267 12f2 18030000 		.4byte	.LASF133
 13268 12f6 01       		.byte	0x1
 13269 12f7 4F09     		.2byte	0x94f
 13270 12f9 4C000000 		.4byte	0x4c
 13271 12fd 02       		.uleb128 0x2
 13272 12fe 91       		.byte	0x91
 13273 12ff 5F       		.sleb128 -33
 13274 1300 1B       		.uleb128 0x1b
 13275 1301 F5050000 		.4byte	.LASF134
 13276 1305 01       		.byte	0x1
 13277 1306 4F09     		.2byte	0x94f
 13278 1308 75020000 		.4byte	0x275
 13279 130c 02       		.uleb128 0x2
 13280 130d 91       		.byte	0x91
 13281 130e 68       		.sleb128 -24
 13282 130f 00       		.byte	0
 13283 1310 06       		.uleb128 0x6
 13284 1311 04       		.byte	0x4
 13285 1312 2C000000 		.4byte	0x2c
 13286 1316 1E       		.uleb128 0x1e
 13287 1317 15040000 		.4byte	.LASF135
 13288 131b 01       		.byte	0x1
 13289 131c AA09     		.2byte	0x9aa
 13290 131e 14040000 		.4byte	0x414
 13291 1322 00000000 		.4byte	.LFB38
 13292 1326 24030000 		.4byte	.LFE38-.LFB38
 13293 132a 01       		.uleb128 0x1
 13294 132b 9C       		.byte	0x9c
 13295 132c D3130000 		.4byte	0x13d3
 13296 1330 15       		.uleb128 0x15
 13297 1331 667000   		.ascii	"fp\000"
 13298 1334 01       		.byte	0x1
 13299 1335 AB09     		.2byte	0x9ab
 13300 1337 3E120000 		.4byte	0x123e
 13301 133b 02       		.uleb128 0x2
 13302 133c 91       		.byte	0x91
 13303 133d 5C       		.sleb128 -36
 13304 133e 1A       		.uleb128 0x1a
 13305 133f 13020000 		.4byte	.LASF130
 13306 1343 01       		.byte	0x1
 13307 1344 AC09     		.2byte	0x9ac
 13308 1346 DC040000 		.4byte	0x4dc
 13309 134a 02       		.uleb128 0x2
 13310 134b 91       		.byte	0x91
 13311 134c 58       		.sleb128 -40
 13312 134d 15       		.uleb128 0x15
 13313 134e 62747700 		.ascii	"btw\000"
 13314 1352 01       		.byte	0x1
 13315 1353 AD09     		.2byte	0x9ad
 13316 1355 2C000000 		.4byte	0x2c
 13317 1359 02       		.uleb128 0x2
 13318 135a 91       		.byte	0x91
 13319 135b 54       		.sleb128 -44
 13320 135c 15       		.uleb128 0x15
 13321 135d 627700   		.ascii	"bw\000"
 13322 1360 01       		.byte	0x1
 13323 1361 AE09     		.2byte	0x9ae
ARM GAS  /tmp/ccIWRJEN.s 			page 236


 13324 1363 10130000 		.4byte	0x1310
 13325 1367 02       		.uleb128 0x2
 13326 1368 91       		.byte	0x91
 13327 1369 50       		.sleb128 -48
 13328 136a 16       		.uleb128 0x16
 13329 136b 72657300 		.ascii	"res\000"
 13330 136f 01       		.byte	0x1
 13331 1370 B109     		.2byte	0x9b1
 13332 1372 14040000 		.4byte	0x414
 13333 1376 02       		.uleb128 0x2
 13334 1377 91       		.byte	0x91
 13335 1378 67       		.sleb128 -25
 13336 1379 1B       		.uleb128 0x1b
 13337 137a 28000000 		.4byte	.LASF90
 13338 137e 01       		.byte	0x1
 13339 137f B209     		.2byte	0x9b2
 13340 1381 94000000 		.4byte	0x94
 13341 1385 02       		.uleb128 0x2
 13342 1386 91       		.byte	0x91
 13343 1387 74       		.sleb128 -12
 13344 1388 1B       		.uleb128 0x1b
 13345 1389 34030000 		.4byte	.LASF44
 13346 138d 01       		.byte	0x1
 13347 138e B209     		.2byte	0x9b2
 13348 1390 94000000 		.4byte	0x94
 13349 1394 02       		.uleb128 0x2
 13350 1395 91       		.byte	0x91
 13351 1396 60       		.sleb128 -32
 13352 1397 1B       		.uleb128 0x1b
 13353 1398 D7040000 		.4byte	.LASF136
 13354 139c 01       		.byte	0x1
 13355 139d B309     		.2byte	0x9b3
 13356 139f 2C000000 		.4byte	0x2c
 13357 13a3 02       		.uleb128 0x2
 13358 13a4 91       		.byte	0x91
 13359 13a5 70       		.sleb128 -16
 13360 13a6 16       		.uleb128 0x16
 13361 13a7 636300   		.ascii	"cc\000"
 13362 13aa 01       		.byte	0x1
 13363 13ab B309     		.2byte	0x9b3
 13364 13ad 2C000000 		.4byte	0x2c
 13365 13b1 02       		.uleb128 0x2
 13366 13b2 91       		.byte	0x91
 13367 13b3 6C       		.sleb128 -20
 13368 13b4 1B       		.uleb128 0x1b
 13369 13b5 9D000000 		.4byte	.LASF137
 13370 13b9 01       		.byte	0x1
 13371 13ba B409     		.2byte	0x9b4
 13372 13bc E3040000 		.4byte	0x4e3
 13373 13c0 02       		.uleb128 0x2
 13374 13c1 91       		.byte	0x91
 13375 13c2 68       		.sleb128 -24
 13376 13c3 1B       		.uleb128 0x1b
 13377 13c4 18030000 		.4byte	.LASF133
 13378 13c8 01       		.byte	0x1
 13379 13c9 B509     		.2byte	0x9b5
 13380 13cb 4C000000 		.4byte	0x4c
ARM GAS  /tmp/ccIWRJEN.s 			page 237


 13381 13cf 02       		.uleb128 0x2
 13382 13d0 91       		.byte	0x91
 13383 13d1 66       		.sleb128 -26
 13384 13d2 00       		.byte	0
 13385 13d3 1E       		.uleb128 0x1e
 13386 13d4 E0050000 		.4byte	.LASF138
 13387 13d8 01       		.byte	0x1
 13388 13d9 210A     		.2byte	0xa21
 13389 13db 14040000 		.4byte	0x414
 13390 13df 00000000 		.4byte	.LFB39
 13391 13e3 0A010000 		.4byte	.LFE39-.LFB39
 13392 13e7 01       		.uleb128 0x1
 13393 13e8 9C       		.byte	0x9c
 13394 13e9 29140000 		.4byte	0x1429
 13395 13ed 15       		.uleb128 0x15
 13396 13ee 667000   		.ascii	"fp\000"
 13397 13f1 01       		.byte	0x1
 13398 13f2 220A     		.2byte	0xa22
 13399 13f4 3E120000 		.4byte	0x123e
 13400 13f8 02       		.uleb128 0x2
 13401 13f9 91       		.byte	0x91
 13402 13fa 64       		.sleb128 -28
 13403 13fb 16       		.uleb128 0x16
 13404 13fc 72657300 		.ascii	"res\000"
 13405 1400 01       		.byte	0x1
 13406 1401 250A     		.2byte	0xa25
 13407 1403 14040000 		.4byte	0x414
 13408 1407 02       		.uleb128 0x2
 13409 1408 91       		.byte	0x91
 13410 1409 77       		.sleb128 -9
 13411 140a 16       		.uleb128 0x16
 13412 140b 74696D00 		.ascii	"tim\000"
 13413 140f 01       		.byte	0x1
 13414 1410 260A     		.2byte	0xa26
 13415 1412 94000000 		.4byte	0x94
 13416 1416 02       		.uleb128 0x2
 13417 1417 91       		.byte	0x91
 13418 1418 6C       		.sleb128 -20
 13419 1419 16       		.uleb128 0x16
 13420 141a 64697200 		.ascii	"dir\000"
 13421 141e 01       		.byte	0x1
 13422 141f 270A     		.2byte	0xa27
 13423 1421 75020000 		.4byte	0x275
 13424 1425 02       		.uleb128 0x2
 13425 1426 91       		.byte	0x91
 13426 1427 70       		.sleb128 -16
 13427 1428 00       		.byte	0
 13428 1429 1E       		.uleb128 0x1e
 13429 142a 89020000 		.4byte	.LASF139
 13430 142e 01       		.byte	0x1
 13431 142f 500A     		.2byte	0xa50
 13432 1431 14040000 		.4byte	0x414
 13433 1435 00000000 		.4byte	.LFB40
 13434 1439 2C000000 		.4byte	.LFE40-.LFB40
 13435 143d 01       		.uleb128 0x1
 13436 143e 9C       		.byte	0x9c
 13437 143f 61140000 		.4byte	0x1461
ARM GAS  /tmp/ccIWRJEN.s 			page 238


 13438 1443 15       		.uleb128 0x15
 13439 1444 667000   		.ascii	"fp\000"
 13440 1447 01       		.byte	0x1
 13441 1448 510A     		.2byte	0xa51
 13442 144a 3E120000 		.4byte	0x123e
 13443 144e 02       		.uleb128 0x2
 13444 144f 91       		.byte	0x91
 13445 1450 6C       		.sleb128 -20
 13446 1451 16       		.uleb128 0x16
 13447 1452 72657300 		.ascii	"res\000"
 13448 1456 01       		.byte	0x1
 13449 1457 540A     		.2byte	0xa54
 13450 1459 14040000 		.4byte	0x414
 13451 145d 02       		.uleb128 0x2
 13452 145e 91       		.byte	0x91
 13453 145f 77       		.sleb128 -9
 13454 1460 00       		.byte	0
 13455 1461 1E       		.uleb128 0x1e
 13456 1462 AB020000 		.4byte	.LASF140
 13457 1466 01       		.byte	0x1
 13458 1467 F40A     		.2byte	0xaf4
 13459 1469 14040000 		.4byte	0x414
 13460 146d 00000000 		.4byte	.LFB41
 13461 1471 B8020000 		.4byte	.LFE41-.LFB41
 13462 1475 01       		.uleb128 0x1
 13463 1476 9C       		.byte	0x9c
 13464 1477 EE140000 		.4byte	0x14ee
 13465 147b 15       		.uleb128 0x15
 13466 147c 667000   		.ascii	"fp\000"
 13467 147f 01       		.byte	0x1
 13468 1480 F50A     		.2byte	0xaf5
 13469 1482 3E120000 		.4byte	0x123e
 13470 1486 02       		.uleb128 0x2
 13471 1487 91       		.byte	0x91
 13472 1488 5C       		.sleb128 -36
 13473 1489 15       		.uleb128 0x15
 13474 148a 6F667300 		.ascii	"ofs\000"
 13475 148e 01       		.byte	0x1
 13476 148f F60A     		.2byte	0xaf6
 13477 1491 94000000 		.4byte	0x94
 13478 1495 02       		.uleb128 0x2
 13479 1496 91       		.byte	0x91
 13480 1497 58       		.sleb128 -40
 13481 1498 16       		.uleb128 0x16
 13482 1499 72657300 		.ascii	"res\000"
 13483 149d 01       		.byte	0x1
 13484 149e F90A     		.2byte	0xaf9
 13485 14a0 14040000 		.4byte	0x414
 13486 14a4 02       		.uleb128 0x2
 13487 14a5 91       		.byte	0x91
 13488 14a6 6F       		.sleb128 -17
 13489 14a7 1C       		.uleb128 0x1c
 13490 14a8 3C000000 		.4byte	.LBB6
 13491 14ac 70020000 		.4byte	.LBE6-.LBB6
 13492 14b0 1B       		.uleb128 0x1b
 13493 14b1 28000000 		.4byte	.LASF90
 13494 14b5 01       		.byte	0x1
ARM GAS  /tmp/ccIWRJEN.s 			page 239


 13495 14b6 3C0B     		.2byte	0xb3c
 13496 14b8 94000000 		.4byte	0x94
 13497 14bc 02       		.uleb128 0x2
 13498 14bd 91       		.byte	0x91
 13499 14be 74       		.sleb128 -12
 13500 14bf 16       		.uleb128 0x16
 13501 14c0 62637300 		.ascii	"bcs\000"
 13502 14c4 01       		.byte	0x1
 13503 14c5 3C0B     		.2byte	0xb3c
 13504 14c7 94000000 		.4byte	0x94
 13505 14cb 02       		.uleb128 0x2
 13506 14cc 91       		.byte	0x91
 13507 14cd 64       		.sleb128 -28
 13508 14ce 1B       		.uleb128 0x1b
 13509 14cf 3B040000 		.4byte	.LASF141
 13510 14d3 01       		.byte	0x1
 13511 14d4 3C0B     		.2byte	0xb3c
 13512 14d6 94000000 		.4byte	0x94
 13513 14da 02       		.uleb128 0x2
 13514 14db 91       		.byte	0x91
 13515 14dc 70       		.sleb128 -16
 13516 14dd 1B       		.uleb128 0x1b
 13517 14de 73020000 		.4byte	.LASF142
 13518 14e2 01       		.byte	0x1
 13519 14e3 3C0B     		.2byte	0xb3c
 13520 14e5 94000000 		.4byte	0x94
 13521 14e9 02       		.uleb128 0x2
 13522 14ea 91       		.byte	0x91
 13523 14eb 68       		.sleb128 -24
 13524 14ec 00       		.byte	0
 13525 14ed 00       		.byte	0
 13526 14ee 1E       		.uleb128 0x1e
 13527 14ef D4020000 		.4byte	.LASF143
 13528 14f3 01       		.byte	0x1
 13529 14f4 920B     		.2byte	0xb92
 13530 14f6 14040000 		.4byte	0x414
 13531 14fa 00000000 		.4byte	.LFB42
 13532 14fe D4000000 		.4byte	.LFE42-.LFB42
 13533 1502 01       		.uleb128 0x1
 13534 1503 9C       		.byte	0x9c
 13535 1504 53150000 		.4byte	0x1553
 13536 1508 15       		.uleb128 0x15
 13537 1509 646A00   		.ascii	"dj\000"
 13538 150c 01       		.byte	0x1
 13539 150d 930B     		.2byte	0xb93
 13540 150f E3080000 		.4byte	0x8e3
 13541 1513 02       		.uleb128 0x2
 13542 1514 91       		.byte	0x91
 13543 1515 5C       		.sleb128 -36
 13544 1516 1A       		.uleb128 0x1a
 13545 1517 91020000 		.4byte	.LASF110
 13546 151b 01       		.byte	0x1
 13547 151c 940B     		.2byte	0xb94
 13548 151e 6B0E0000 		.4byte	0xe6b
 13549 1522 02       		.uleb128 0x2
 13550 1523 91       		.byte	0x91
 13551 1524 58       		.sleb128 -40
ARM GAS  /tmp/ccIWRJEN.s 			page 240


 13552 1525 16       		.uleb128 0x16
 13553 1526 72657300 		.ascii	"res\000"
 13554 152a 01       		.byte	0x1
 13555 152b 970B     		.2byte	0xb97
 13556 152d 14040000 		.4byte	0x414
 13557 1531 02       		.uleb128 0x2
 13558 1532 91       		.byte	0x91
 13559 1533 77       		.sleb128 -9
 13560 1534 16       		.uleb128 0x16
 13561 1535 73666E00 		.ascii	"sfn\000"
 13562 1539 01       		.byte	0x1
 13563 153a 980B     		.2byte	0xb98
 13564 153c 4B0D0000 		.4byte	0xd4b
 13565 1540 02       		.uleb128 0x2
 13566 1541 91       		.byte	0x91
 13567 1542 64       		.sleb128 -28
 13568 1543 16       		.uleb128 0x16
 13569 1544 6C666E00 		.ascii	"lfn\000"
 13570 1548 01       		.byte	0x1
 13571 1549 980B     		.2byte	0xb98
 13572 154b 04030000 		.4byte	0x304
 13573 154f 02       		.uleb128 0x2
 13574 1550 91       		.byte	0x91
 13575 1551 70       		.sleb128 -16
 13576 1552 00       		.byte	0
 13577 1553 1E       		.uleb128 0x1e
 13578 1554 1E000000 		.4byte	.LASF144
 13579 1558 01       		.byte	0x1
 13580 1559 BA0B     		.2byte	0xbba
 13581 155b 14040000 		.4byte	0x414
 13582 155f 00000000 		.4byte	.LFB43
 13583 1563 C0000000 		.4byte	.LFE43-.LFB43
 13584 1567 01       		.uleb128 0x1
 13585 1568 9C       		.byte	0x9c
 13586 1569 B8150000 		.4byte	0x15b8
 13587 156d 15       		.uleb128 0x15
 13588 156e 646A00   		.ascii	"dj\000"
 13589 1571 01       		.byte	0x1
 13590 1572 BB0B     		.2byte	0xbbb
 13591 1574 E3080000 		.4byte	0x8e3
 13592 1578 02       		.uleb128 0x2
 13593 1579 91       		.byte	0x91
 13594 157a 5C       		.sleb128 -36
 13595 157b 15       		.uleb128 0x15
 13596 157c 666E6F00 		.ascii	"fno\000"
 13597 1580 01       		.byte	0x1
 13598 1581 BC0B     		.2byte	0xbbc
 13599 1583 370F0000 		.4byte	0xf37
 13600 1587 02       		.uleb128 0x2
 13601 1588 91       		.byte	0x91
 13602 1589 58       		.sleb128 -40
 13603 158a 16       		.uleb128 0x16
 13604 158b 72657300 		.ascii	"res\000"
 13605 158f 01       		.byte	0x1
 13606 1590 BF0B     		.2byte	0xbbf
 13607 1592 14040000 		.4byte	0x414
 13608 1596 02       		.uleb128 0x2
ARM GAS  /tmp/ccIWRJEN.s 			page 241


 13609 1597 91       		.byte	0x91
 13610 1598 77       		.sleb128 -9
 13611 1599 16       		.uleb128 0x16
 13612 159a 73666E00 		.ascii	"sfn\000"
 13613 159e 01       		.byte	0x1
 13614 159f C00B     		.2byte	0xbc0
 13615 15a1 4B0D0000 		.4byte	0xd4b
 13616 15a5 02       		.uleb128 0x2
 13617 15a6 91       		.byte	0x91
 13618 15a7 64       		.sleb128 -28
 13619 15a8 16       		.uleb128 0x16
 13620 15a9 6C666E00 		.ascii	"lfn\000"
 13621 15ad 01       		.byte	0x1
 13622 15ae C00B     		.2byte	0xbc0
 13623 15b0 04030000 		.4byte	0x304
 13624 15b4 02       		.uleb128 0x2
 13625 15b5 91       		.byte	0x91
 13626 15b6 70       		.sleb128 -16
 13627 15b7 00       		.byte	0
 13628 15b8 1E       		.uleb128 0x1e
 13629 15b9 E7060000 		.4byte	.LASF145
 13630 15bd 01       		.byte	0x1
 13631 15be E40B     		.2byte	0xbe4
 13632 15c0 14040000 		.4byte	0x414
 13633 15c4 00000000 		.4byte	.LFB44
 13634 15c8 84000000 		.4byte	.LFE44-.LFB44
 13635 15cc 01       		.uleb128 0x1
 13636 15cd 9C       		.byte	0x9c
 13637 15ce 2E160000 		.4byte	0x162e
 13638 15d2 1A       		.uleb128 0x1a
 13639 15d3 91020000 		.4byte	.LASF110
 13640 15d7 01       		.byte	0x1
 13641 15d8 E50B     		.2byte	0xbe5
 13642 15da 6B0E0000 		.4byte	0xe6b
 13643 15de 03       		.uleb128 0x3
 13644 15df 91       		.byte	0x91
 13645 15e0 BC7F     		.sleb128 -68
 13646 15e2 15       		.uleb128 0x15
 13647 15e3 666E6F00 		.ascii	"fno\000"
 13648 15e7 01       		.byte	0x1
 13649 15e8 E60B     		.2byte	0xbe6
 13650 15ea 370F0000 		.4byte	0xf37
 13651 15ee 03       		.uleb128 0x3
 13652 15ef 91       		.byte	0x91
 13653 15f0 B87F     		.sleb128 -72
 13654 15f2 16       		.uleb128 0x16
 13655 15f3 72657300 		.ascii	"res\000"
 13656 15f7 01       		.byte	0x1
 13657 15f8 E90B     		.2byte	0xbe9
 13658 15fa 14040000 		.4byte	0x414
 13659 15fe 02       		.uleb128 0x2
 13660 15ff 91       		.byte	0x91
 13661 1600 77       		.sleb128 -9
 13662 1601 16       		.uleb128 0x16
 13663 1602 646A00   		.ascii	"dj\000"
 13664 1605 01       		.byte	0x1
 13665 1606 EA0B     		.2byte	0xbea
ARM GAS  /tmp/ccIWRJEN.s 			page 242


 13666 1608 0A030000 		.4byte	0x30a
 13667 160c 02       		.uleb128 0x2
 13668 160d 91       		.byte	0x91
 13669 160e 4C       		.sleb128 -52
 13670 160f 16       		.uleb128 0x16
 13671 1610 73666E00 		.ascii	"sfn\000"
 13672 1614 01       		.byte	0x1
 13673 1615 EB0B     		.2byte	0xbeb
 13674 1617 4B0D0000 		.4byte	0xd4b
 13675 161b 02       		.uleb128 0x2
 13676 161c 91       		.byte	0x91
 13677 161d 40       		.sleb128 -64
 13678 161e 16       		.uleb128 0x16
 13679 161f 6C666E00 		.ascii	"lfn\000"
 13680 1623 01       		.byte	0x1
 13681 1624 EB0B     		.2byte	0xbeb
 13682 1626 04030000 		.4byte	0x304
 13683 162a 02       		.uleb128 0x2
 13684 162b 91       		.byte	0x91
 13685 162c 70       		.sleb128 -16
 13686 162d 00       		.byte	0
 13687 162e 1E       		.uleb128 0x1e
 13688 162f 8E050000 		.4byte	.LASF146
 13689 1633 01       		.byte	0x1
 13690 1634 050C     		.2byte	0xc05
 13691 1636 14040000 		.4byte	0x414
 13692 163a 00000000 		.4byte	.LFB45
 13693 163e 72010000 		.4byte	.LFE45-.LFB45
 13694 1642 01       		.uleb128 0x1
 13695 1643 9C       		.byte	0x9c
 13696 1644 E8160000 		.4byte	0x16e8
 13697 1648 1A       		.uleb128 0x1a
 13698 1649 91020000 		.4byte	.LASF110
 13699 164d 01       		.byte	0x1
 13700 164e 060C     		.2byte	0xc06
 13701 1650 6B0E0000 		.4byte	0xe6b
 13702 1654 02       		.uleb128 0x2
 13703 1655 91       		.byte	0x91
 13704 1656 54       		.sleb128 -44
 13705 1657 1A       		.uleb128 0x1a
 13706 1658 81010000 		.4byte	.LASF122
 13707 165c 01       		.byte	0x1
 13708 165d 070C     		.2byte	0xc07
 13709 165f E8160000 		.4byte	0x16e8
 13710 1663 02       		.uleb128 0x2
 13711 1664 91       		.byte	0x91
 13712 1665 50       		.sleb128 -48
 13713 1666 1A       		.uleb128 0x1a
 13714 1667 55010000 		.4byte	.LASF147
 13715 166b 01       		.byte	0x1
 13716 166c 080C     		.2byte	0xc08
 13717 166e FF100000 		.4byte	0x10ff
 13718 1672 02       		.uleb128 0x2
 13719 1673 91       		.byte	0x91
 13720 1674 4C       		.sleb128 -52
 13721 1675 16       		.uleb128 0x16
 13722 1676 72657300 		.ascii	"res\000"
ARM GAS  /tmp/ccIWRJEN.s 			page 243


 13723 167a 01       		.byte	0x1
 13724 167b 0B0C     		.2byte	0xc0b
 13725 167d 14040000 		.4byte	0x414
 13726 1681 02       		.uleb128 0x2
 13727 1682 91       		.byte	0x91
 13728 1683 77       		.sleb128 -9
 13729 1684 16       		.uleb128 0x16
 13730 1685 6E00     		.ascii	"n\000"
 13731 1687 01       		.byte	0x1
 13732 1688 0C0C     		.2byte	0xc0c
 13733 168a 94000000 		.4byte	0x94
 13734 168e 02       		.uleb128 0x2
 13735 168f 91       		.byte	0x91
 13736 1690 70       		.sleb128 -16
 13737 1691 1B       		.uleb128 0x1b
 13738 1692 28000000 		.4byte	.LASF90
 13739 1696 01       		.byte	0x1
 13740 1697 0C0C     		.2byte	0xc0c
 13741 1699 94000000 		.4byte	0x94
 13742 169d 02       		.uleb128 0x2
 13743 169e 91       		.byte	0x91
 13744 169f 6C       		.sleb128 -20
 13745 16a0 1B       		.uleb128 0x1b
 13746 16a1 34030000 		.4byte	.LASF44
 13747 16a5 01       		.byte	0x1
 13748 16a6 0C0C     		.2byte	0xc0c
 13749 16a8 94000000 		.4byte	0x94
 13750 16ac 02       		.uleb128 0x2
 13751 16ad 91       		.byte	0x91
 13752 16ae 68       		.sleb128 -24
 13753 16af 1B       		.uleb128 0x1b
 13754 16b0 08020000 		.4byte	.LASF117
 13755 16b4 01       		.byte	0x1
 13756 16b5 0C0C     		.2byte	0xc0c
 13757 16b7 94000000 		.4byte	0x94
 13758 16bb 02       		.uleb128 0x2
 13759 16bc 91       		.byte	0x91
 13760 16bd 58       		.sleb128 -40
 13761 16be 16       		.uleb128 0x16
 13762 16bf 6900     		.ascii	"i\000"
 13763 16c1 01       		.byte	0x1
 13764 16c2 0D0C     		.2byte	0xc0d
 13765 16c4 2C000000 		.4byte	0x2c
 13766 16c8 02       		.uleb128 0x2
 13767 16c9 91       		.byte	0x91
 13768 16ca 64       		.sleb128 -28
 13769 16cb 16       		.uleb128 0x16
 13770 16cc 66617400 		.ascii	"fat\000"
 13771 16d0 01       		.byte	0x1
 13772 16d1 0E0C     		.2byte	0xc0e
 13773 16d3 4C000000 		.4byte	0x4c
 13774 16d7 02       		.uleb128 0x2
 13775 16d8 91       		.byte	0x91
 13776 16d9 5F       		.sleb128 -33
 13777 16da 16       		.uleb128 0x16
 13778 16db 7000     		.ascii	"p\000"
 13779 16dd 01       		.byte	0x1
ARM GAS  /tmp/ccIWRJEN.s 			page 244


 13780 16de 0E0C     		.2byte	0xc0e
 13781 16e0 75020000 		.4byte	0x275
 13782 16e4 02       		.uleb128 0x2
 13783 16e5 91       		.byte	0x91
 13784 16e6 60       		.sleb128 -32
 13785 16e7 00       		.byte	0
 13786 16e8 06       		.uleb128 0x6
 13787 16e9 04       		.byte	0x4
 13788 16ea 94000000 		.4byte	0x94
 13789 16ee 1E       		.uleb128 0x1e
 13790 16ef 44010000 		.4byte	.LASF148
 13791 16f3 01       		.byte	0x1
 13792 16f4 460C     		.2byte	0xc46
 13793 16f6 14040000 		.4byte	0x414
 13794 16fa 00000000 		.4byte	.LFB46
 13795 16fe 36010000 		.4byte	.LFE46-.LFB46
 13796 1702 01       		.uleb128 0x1
 13797 1703 9C       		.byte	0x9c
 13798 1704 35170000 		.4byte	0x1735
 13799 1708 15       		.uleb128 0x15
 13800 1709 667000   		.ascii	"fp\000"
 13801 170c 01       		.byte	0x1
 13802 170d 470C     		.2byte	0xc47
 13803 170f 3E120000 		.4byte	0x123e
 13804 1713 02       		.uleb128 0x2
 13805 1714 91       		.byte	0x91
 13806 1715 6C       		.sleb128 -20
 13807 1716 16       		.uleb128 0x16
 13808 1717 72657300 		.ascii	"res\000"
 13809 171b 01       		.byte	0x1
 13810 171c 4A0C     		.2byte	0xc4a
 13811 171e 14040000 		.4byte	0x414
 13812 1722 02       		.uleb128 0x2
 13813 1723 91       		.byte	0x91
 13814 1724 77       		.sleb128 -9
 13815 1725 16       		.uleb128 0x16
 13816 1726 6E636C00 		.ascii	"ncl\000"
 13817 172a 01       		.byte	0x1
 13818 172b 4B0C     		.2byte	0xc4b
 13819 172d 94000000 		.4byte	0x94
 13820 1731 02       		.uleb128 0x2
 13821 1732 91       		.byte	0x91
 13822 1733 70       		.sleb128 -16
 13823 1734 00       		.byte	0
 13824 1735 1E       		.uleb128 0x1e
 13825 1736 DB010000 		.4byte	.LASF149
 13826 173a 01       		.byte	0x1
 13827 173b 760C     		.2byte	0xc76
 13828 173d 14040000 		.4byte	0x414
 13829 1741 00000000 		.4byte	.LFB47
 13830 1745 66010000 		.4byte	.LFE47-.LFB47
 13831 1749 01       		.uleb128 0x1
 13832 174a 9C       		.byte	0x9c
 13833 174b CA170000 		.4byte	0x17ca
 13834 174f 1A       		.uleb128 0x1a
 13835 1750 91020000 		.4byte	.LASF110
 13836 1754 01       		.byte	0x1
ARM GAS  /tmp/ccIWRJEN.s 			page 245


 13837 1755 770C     		.2byte	0xc77
 13838 1757 6B0E0000 		.4byte	0xe6b
 13839 175b 03       		.uleb128 0x3
 13840 175c 91       		.byte	0x91
 13841 175d 8C7F     		.sleb128 -116
 13842 175f 16       		.uleb128 0x16
 13843 1760 72657300 		.ascii	"res\000"
 13844 1764 01       		.byte	0x1
 13845 1765 7A0C     		.2byte	0xc7a
 13846 1767 14040000 		.4byte	0x414
 13847 176b 02       		.uleb128 0x2
 13848 176c 91       		.byte	0x91
 13849 176d 77       		.sleb128 -9
 13850 176e 16       		.uleb128 0x16
 13851 176f 646A00   		.ascii	"dj\000"
 13852 1772 01       		.byte	0x1
 13853 1773 7B0C     		.2byte	0xc7b
 13854 1775 0A030000 		.4byte	0x30a
 13855 1779 02       		.uleb128 0x2
 13856 177a 91       		.byte	0x91
 13857 177b 44       		.sleb128 -60
 13858 177c 16       		.uleb128 0x16
 13859 177d 73646A00 		.ascii	"sdj\000"
 13860 1781 01       		.byte	0x1
 13861 1782 7B0C     		.2byte	0xc7b
 13862 1784 0A030000 		.4byte	0x30a
 13863 1788 03       		.uleb128 0x3
 13864 1789 91       		.byte	0x91
 13865 178a A07F     		.sleb128 -96
 13866 178c 16       		.uleb128 0x16
 13867 178d 64697200 		.ascii	"dir\000"
 13868 1791 01       		.byte	0x1
 13869 1792 7C0C     		.2byte	0xc7c
 13870 1794 75020000 		.4byte	0x275
 13871 1798 02       		.uleb128 0x2
 13872 1799 91       		.byte	0x91
 13873 179a 6C       		.sleb128 -20
 13874 179b 1B       		.uleb128 0x1b
 13875 179c D1040000 		.4byte	.LASF150
 13876 17a0 01       		.byte	0x1
 13877 17a1 7D0C     		.2byte	0xc7d
 13878 17a3 94000000 		.4byte	0x94
 13879 17a7 02       		.uleb128 0x2
 13880 17a8 91       		.byte	0x91
 13881 17a9 68       		.sleb128 -24
 13882 17aa 16       		.uleb128 0x16
 13883 17ab 73666E00 		.ascii	"sfn\000"
 13884 17af 01       		.byte	0x1
 13885 17b0 7E0C     		.2byte	0xc7e
 13886 17b2 4B0D0000 		.4byte	0xd4b
 13887 17b6 03       		.uleb128 0x3
 13888 17b7 91       		.byte	0x91
 13889 17b8 947F     		.sleb128 -108
 13890 17ba 16       		.uleb128 0x16
 13891 17bb 6C666E00 		.ascii	"lfn\000"
 13892 17bf 01       		.byte	0x1
 13893 17c0 7E0C     		.2byte	0xc7e
ARM GAS  /tmp/ccIWRJEN.s 			page 246


 13894 17c2 04030000 		.4byte	0x304
 13895 17c6 02       		.uleb128 0x2
 13896 17c7 91       		.byte	0x91
 13897 17c8 70       		.sleb128 -16
 13898 17c9 00       		.byte	0
 13899 17ca 1E       		.uleb128 0x1e
 13900 17cb FA010000 		.4byte	.LASF151
 13901 17cf 01       		.byte	0x1
 13902 17d0 BA0C     		.2byte	0xcba
 13903 17d2 14040000 		.4byte	0x414
 13904 17d6 00000000 		.4byte	.LFB48
 13905 17da 2E020000 		.4byte	.LFE48-.LFB48
 13906 17de 01       		.uleb128 0x1
 13907 17df 9C       		.byte	0x9c
 13908 17e0 8A180000 		.4byte	0x188a
 13909 17e4 1A       		.uleb128 0x1a
 13910 17e5 91020000 		.4byte	.LASF110
 13911 17e9 01       		.byte	0x1
 13912 17ea BB0C     		.2byte	0xcbb
 13913 17ec 6B0E0000 		.4byte	0xe6b
 13914 17f0 03       		.uleb128 0x3
 13915 17f1 91       		.byte	0x91
 13916 17f2 A47F     		.sleb128 -92
 13917 17f4 16       		.uleb128 0x16
 13918 17f5 72657300 		.ascii	"res\000"
 13919 17f9 01       		.byte	0x1
 13920 17fa BE0C     		.2byte	0xcbe
 13921 17fc 14040000 		.4byte	0x414
 13922 1800 02       		.uleb128 0x2
 13923 1801 91       		.byte	0x91
 13924 1802 77       		.sleb128 -9
 13925 1803 16       		.uleb128 0x16
 13926 1804 646A00   		.ascii	"dj\000"
 13927 1807 01       		.byte	0x1
 13928 1808 BF0C     		.2byte	0xcbf
 13929 180a 0A030000 		.4byte	0x30a
 13930 180e 03       		.uleb128 0x3
 13931 180f 91       		.byte	0x91
 13932 1810 B87F     		.sleb128 -72
 13933 1812 16       		.uleb128 0x16
 13934 1813 64697200 		.ascii	"dir\000"
 13935 1817 01       		.byte	0x1
 13936 1818 C00C     		.2byte	0xcc0
 13937 181a 75020000 		.4byte	0x275
 13938 181e 02       		.uleb128 0x2
 13939 181f 91       		.byte	0x91
 13940 1820 5C       		.sleb128 -36
 13941 1821 16       		.uleb128 0x16
 13942 1822 6E00     		.ascii	"n\000"
 13943 1824 01       		.byte	0x1
 13944 1825 C00C     		.2byte	0xcc0
 13945 1827 4C000000 		.4byte	0x4c
 13946 182b 02       		.uleb128 0x2
 13947 182c 91       		.byte	0x91
 13948 182d 76       		.sleb128 -10
 13949 182e 16       		.uleb128 0x16
 13950 182f 64736300 		.ascii	"dsc\000"
ARM GAS  /tmp/ccIWRJEN.s 			page 247


 13951 1833 01       		.byte	0x1
 13952 1834 C10C     		.2byte	0xcc1
 13953 1836 94000000 		.4byte	0x94
 13954 183a 02       		.uleb128 0x2
 13955 183b 91       		.byte	0x91
 13956 183c 70       		.sleb128 -16
 13957 183d 16       		.uleb128 0x16
 13958 183e 64636C00 		.ascii	"dcl\000"
 13959 1842 01       		.byte	0x1
 13960 1843 C10C     		.2byte	0xcc1
 13961 1845 94000000 		.4byte	0x94
 13962 1849 02       		.uleb128 0x2
 13963 184a 91       		.byte	0x91
 13964 184b 60       		.sleb128 -32
 13965 184c 16       		.uleb128 0x16
 13966 184d 70636C00 		.ascii	"pcl\000"
 13967 1851 01       		.byte	0x1
 13968 1852 C10C     		.2byte	0xcc1
 13969 1854 94000000 		.4byte	0x94
 13970 1858 02       		.uleb128 0x2
 13971 1859 91       		.byte	0x91
 13972 185a 6C       		.sleb128 -20
 13973 185b 16       		.uleb128 0x16
 13974 185c 74696D00 		.ascii	"tim\000"
 13975 1860 01       		.byte	0x1
 13976 1861 C10C     		.2byte	0xcc1
 13977 1863 94000000 		.4byte	0x94
 13978 1867 02       		.uleb128 0x2
 13979 1868 91       		.byte	0x91
 13980 1869 68       		.sleb128 -24
 13981 186a 16       		.uleb128 0x16
 13982 186b 73666E00 		.ascii	"sfn\000"
 13983 186f 01       		.byte	0x1
 13984 1870 C20C     		.2byte	0xcc2
 13985 1872 4B0D0000 		.4byte	0xd4b
 13986 1876 03       		.uleb128 0x3
 13987 1877 91       		.byte	0x91
 13988 1878 AC7F     		.sleb128 -84
 13989 187a 16       		.uleb128 0x16
 13990 187b 6C666E00 		.ascii	"lfn\000"
 13991 187f 01       		.byte	0x1
 13992 1880 C20C     		.2byte	0xcc2
 13993 1882 04030000 		.4byte	0x304
 13994 1886 02       		.uleb128 0x2
 13995 1887 91       		.byte	0x91
 13996 1888 64       		.sleb128 -28
 13997 1889 00       		.byte	0
 13998 188a 1E       		.uleb128 0x1e
 13999 188b 19070000 		.4byte	.LASF152
 14000 188f 01       		.byte	0x1
 14001 1890 030D     		.2byte	0xd03
 14002 1892 14040000 		.4byte	0x414
 14003 1896 00000000 		.4byte	.LFB49
 14004 189a D0000000 		.4byte	.LFE49-.LFB49
 14005 189e 01       		.uleb128 0x1
 14006 189f 9C       		.byte	0x9c
 14007 18a0 20190000 		.4byte	0x1920
ARM GAS  /tmp/ccIWRJEN.s 			page 248


 14008 18a4 1A       		.uleb128 0x1a
 14009 18a5 91020000 		.4byte	.LASF110
 14010 18a9 01       		.byte	0x1
 14011 18aa 040D     		.2byte	0xd04
 14012 18ac 6B0E0000 		.4byte	0xe6b
 14013 18b0 03       		.uleb128 0x3
 14014 18b1 91       		.byte	0x91
 14015 18b2 B47F     		.sleb128 -76
 14016 18b4 1A       		.uleb128 0x1a
 14017 18b5 02020000 		.4byte	.LASF153
 14018 18b9 01       		.byte	0x1
 14019 18ba 050D     		.2byte	0xd05
 14020 18bc 4C000000 		.4byte	0x4c
 14021 18c0 03       		.uleb128 0x3
 14022 18c1 91       		.byte	0x91
 14023 18c2 B37F     		.sleb128 -77
 14024 18c4 1A       		.uleb128 0x1a
 14025 18c5 EF030000 		.4byte	.LASF154
 14026 18c9 01       		.byte	0x1
 14027 18ca 060D     		.2byte	0xd06
 14028 18cc 4C000000 		.4byte	0x4c
 14029 18d0 03       		.uleb128 0x3
 14030 18d1 91       		.byte	0x91
 14031 18d2 B27F     		.sleb128 -78
 14032 18d4 16       		.uleb128 0x16
 14033 18d5 72657300 		.ascii	"res\000"
 14034 18d9 01       		.byte	0x1
 14035 18da 090D     		.2byte	0xd09
 14036 18dc 14040000 		.4byte	0x414
 14037 18e0 02       		.uleb128 0x2
 14038 18e1 91       		.byte	0x91
 14039 18e2 77       		.sleb128 -9
 14040 18e3 16       		.uleb128 0x16
 14041 18e4 646A00   		.ascii	"dj\000"
 14042 18e7 01       		.byte	0x1
 14043 18e8 0A0D     		.2byte	0xd0a
 14044 18ea 0A030000 		.4byte	0x30a
 14045 18ee 02       		.uleb128 0x2
 14046 18ef 91       		.byte	0x91
 14047 18f0 48       		.sleb128 -56
 14048 18f1 16       		.uleb128 0x16
 14049 18f2 64697200 		.ascii	"dir\000"
 14050 18f6 01       		.byte	0x1
 14051 18f7 0B0D     		.2byte	0xd0b
 14052 18f9 75020000 		.4byte	0x275
 14053 18fd 02       		.uleb128 0x2
 14054 18fe 91       		.byte	0x91
 14055 18ff 6C       		.sleb128 -20
 14056 1900 16       		.uleb128 0x16
 14057 1901 73666E00 		.ascii	"sfn\000"
 14058 1905 01       		.byte	0x1
 14059 1906 0C0D     		.2byte	0xd0c
 14060 1908 4B0D0000 		.4byte	0xd4b
 14061 190c 03       		.uleb128 0x3
 14062 190d 91       		.byte	0x91
 14063 190e BC7F     		.sleb128 -68
 14064 1910 16       		.uleb128 0x16
ARM GAS  /tmp/ccIWRJEN.s 			page 249


 14065 1911 6C666E00 		.ascii	"lfn\000"
 14066 1915 01       		.byte	0x1
 14067 1916 0C0D     		.2byte	0xd0c
 14068 1918 04030000 		.4byte	0x304
 14069 191c 02       		.uleb128 0x2
 14070 191d 91       		.byte	0x91
 14071 191e 70       		.sleb128 -16
 14072 191f 00       		.byte	0
 14073 1920 1E       		.uleb128 0x1e
 14074 1921 50000000 		.4byte	.LASF155
 14075 1925 01       		.byte	0x1
 14076 1926 2D0D     		.2byte	0xd2d
 14077 1928 14040000 		.4byte	0x414
 14078 192c 00000000 		.4byte	.LFB50
 14079 1930 A6000000 		.4byte	.LFE50-.LFB50
 14080 1934 01       		.uleb128 0x1
 14081 1935 9C       		.byte	0x9c
 14082 1936 A6190000 		.4byte	0x19a6
 14083 193a 1A       		.uleb128 0x1a
 14084 193b 91020000 		.4byte	.LASF110
 14085 193f 01       		.byte	0x1
 14086 1940 2E0D     		.2byte	0xd2e
 14087 1942 6B0E0000 		.4byte	0xe6b
 14088 1946 03       		.uleb128 0x3
 14089 1947 91       		.byte	0x91
 14090 1948 B47F     		.sleb128 -76
 14091 194a 15       		.uleb128 0x15
 14092 194b 666E6F00 		.ascii	"fno\000"
 14093 194f 01       		.byte	0x1
 14094 1950 2F0D     		.2byte	0xd2f
 14095 1952 A6190000 		.4byte	0x19a6
 14096 1956 03       		.uleb128 0x3
 14097 1957 91       		.byte	0x91
 14098 1958 B07F     		.sleb128 -80
 14099 195a 16       		.uleb128 0x16
 14100 195b 72657300 		.ascii	"res\000"
 14101 195f 01       		.byte	0x1
 14102 1960 320D     		.2byte	0xd32
 14103 1962 14040000 		.4byte	0x414
 14104 1966 02       		.uleb128 0x2
 14105 1967 91       		.byte	0x91
 14106 1968 77       		.sleb128 -9
 14107 1969 16       		.uleb128 0x16
 14108 196a 646A00   		.ascii	"dj\000"
 14109 196d 01       		.byte	0x1
 14110 196e 330D     		.2byte	0xd33
 14111 1970 0A030000 		.4byte	0x30a
 14112 1974 02       		.uleb128 0x2
 14113 1975 91       		.byte	0x91
 14114 1976 48       		.sleb128 -56
 14115 1977 16       		.uleb128 0x16
 14116 1978 64697200 		.ascii	"dir\000"
 14117 197c 01       		.byte	0x1
 14118 197d 340D     		.2byte	0xd34
 14119 197f 75020000 		.4byte	0x275
 14120 1983 02       		.uleb128 0x2
 14121 1984 91       		.byte	0x91
ARM GAS  /tmp/ccIWRJEN.s 			page 250


 14122 1985 6C       		.sleb128 -20
 14123 1986 16       		.uleb128 0x16
 14124 1987 73666E00 		.ascii	"sfn\000"
 14125 198b 01       		.byte	0x1
 14126 198c 350D     		.2byte	0xd35
 14127 198e 4B0D0000 		.4byte	0xd4b
 14128 1992 03       		.uleb128 0x3
 14129 1993 91       		.byte	0x91
 14130 1994 BC7F     		.sleb128 -68
 14131 1996 16       		.uleb128 0x16
 14132 1997 6C666E00 		.ascii	"lfn\000"
 14133 199b 01       		.byte	0x1
 14134 199c 350D     		.2byte	0xd35
 14135 199e 04030000 		.4byte	0x304
 14136 19a2 02       		.uleb128 0x2
 14137 19a3 91       		.byte	0x91
 14138 19a4 70       		.sleb128 -16
 14139 19a5 00       		.byte	0
 14140 19a6 06       		.uleb128 0x6
 14141 19a7 04       		.byte	0x4
 14142 19a8 AC190000 		.4byte	0x19ac
 14143 19ac 07       		.uleb128 0x7
 14144 19ad 88030000 		.4byte	0x388
 14145 19b1 1E       		.uleb128 0x1e
 14146 19b2 81030000 		.4byte	.LASF156
 14147 19b6 01       		.byte	0x1
 14148 19b7 560D     		.2byte	0xd56
 14149 19b9 14040000 		.4byte	0x414
 14150 19bd 00000000 		.4byte	.LFB51
 14151 19c1 D6010000 		.4byte	.LFE51-.LFB51
 14152 19c5 01       		.uleb128 0x1
 14153 19c6 9C       		.byte	0x9c
 14154 19c7 661A0000 		.4byte	0x1a66
 14155 19cb 1A       		.uleb128 0x1a
 14156 19cc 99010000 		.4byte	.LASF157
 14157 19d0 01       		.byte	0x1
 14158 19d1 570D     		.2byte	0xd57
 14159 19d3 6B0E0000 		.4byte	0xe6b
 14160 19d7 03       		.uleb128 0x3
 14161 19d8 91       		.byte	0x91
 14162 19d9 F47E     		.sleb128 -140
 14163 19db 1A       		.uleb128 0x1a
 14164 19dc BF020000 		.4byte	.LASF158
 14165 19e0 01       		.byte	0x1
 14166 19e1 580D     		.2byte	0xd58
 14167 19e3 6B0E0000 		.4byte	0xe6b
 14168 19e7 03       		.uleb128 0x3
 14169 19e8 91       		.byte	0x91
 14170 19e9 F07E     		.sleb128 -144
 14171 19eb 16       		.uleb128 0x16
 14172 19ec 72657300 		.ascii	"res\000"
 14173 19f0 01       		.byte	0x1
 14174 19f1 5B0D     		.2byte	0xd5b
 14175 19f3 14040000 		.4byte	0x414
 14176 19f7 02       		.uleb128 0x2
 14177 19f8 91       		.byte	0x91
 14178 19f9 77       		.sleb128 -9
ARM GAS  /tmp/ccIWRJEN.s 			page 251


 14179 19fa 16       		.uleb128 0x16
 14180 19fb 646A6F00 		.ascii	"djo\000"
 14181 19ff 01       		.byte	0x1
 14182 1a00 5C0D     		.2byte	0xd5c
 14183 1a02 0A030000 		.4byte	0x30a
 14184 1a06 02       		.uleb128 0x2
 14185 1a07 91       		.byte	0x91
 14186 1a08 44       		.sleb128 -60
 14187 1a09 16       		.uleb128 0x16
 14188 1a0a 646A6E00 		.ascii	"djn\000"
 14189 1a0e 01       		.byte	0x1
 14190 1a0f 5C0D     		.2byte	0xd5c
 14191 1a11 0A030000 		.4byte	0x30a
 14192 1a15 03       		.uleb128 0x3
 14193 1a16 91       		.byte	0x91
 14194 1a17 A07F     		.sleb128 -96
 14195 1a19 16       		.uleb128 0x16
 14196 1a1a 62756600 		.ascii	"buf\000"
 14197 1a1e 01       		.byte	0x1
 14198 1a1f 5D0D     		.2byte	0xd5d
 14199 1a21 661A0000 		.4byte	0x1a66
 14200 1a25 03       		.uleb128 0x3
 14201 1a26 91       		.byte	0x91
 14202 1a27 887F     		.sleb128 -120
 14203 1a29 16       		.uleb128 0x16
 14204 1a2a 64697200 		.ascii	"dir\000"
 14205 1a2e 01       		.byte	0x1
 14206 1a2f 5D0D     		.2byte	0xd5d
 14207 1a31 75020000 		.4byte	0x275
 14208 1a35 02       		.uleb128 0x2
 14209 1a36 91       		.byte	0x91
 14210 1a37 6C       		.sleb128 -20
 14211 1a38 16       		.uleb128 0x16
 14212 1a39 647700   		.ascii	"dw\000"
 14213 1a3c 01       		.byte	0x1
 14214 1a3d 5E0D     		.2byte	0xd5e
 14215 1a3f 94000000 		.4byte	0x94
 14216 1a43 02       		.uleb128 0x2
 14217 1a44 91       		.byte	0x91
 14218 1a45 68       		.sleb128 -24
 14219 1a46 16       		.uleb128 0x16
 14220 1a47 73666E00 		.ascii	"sfn\000"
 14221 1a4b 01       		.byte	0x1
 14222 1a4c 5F0D     		.2byte	0xd5f
 14223 1a4e 4B0D0000 		.4byte	0xd4b
 14224 1a52 03       		.uleb128 0x3
 14225 1a53 91       		.byte	0x91
 14226 1a54 FC7E     		.sleb128 -132
 14227 1a56 16       		.uleb128 0x16
 14228 1a57 6C666E00 		.ascii	"lfn\000"
 14229 1a5b 01       		.byte	0x1
 14230 1a5c 5F0D     		.2byte	0xd5f
 14231 1a5e 04030000 		.4byte	0x304
 14232 1a62 02       		.uleb128 0x2
 14233 1a63 91       		.byte	0x91
 14234 1a64 70       		.sleb128 -16
 14235 1a65 00       		.byte	0
ARM GAS  /tmp/ccIWRJEN.s 			page 252


 14236 1a66 0B       		.uleb128 0xb
 14237 1a67 4C000000 		.4byte	0x4c
 14238 1a6b 761A0000 		.4byte	0x1a76
 14239 1a6f 0F       		.uleb128 0xf
 14240 1a70 BD000000 		.4byte	0xbd
 14241 1a74 14       		.byte	0x14
 14242 1a75 00       		.byte	0
 14243 1a76 1E       		.uleb128 0x1e
 14244 1a77 D4010000 		.4byte	.LASF159
 14245 1a7b 01       		.byte	0x1
 14246 1a7c E40D     		.2byte	0xde4
 14247 1a7e 14040000 		.4byte	0x414
 14248 1a82 00000000 		.4byte	.LFB52
 14249 1a86 D0060000 		.4byte	.LFE52-.LFB52
 14250 1a8a 01       		.uleb128 0x1
 14251 1a8b 9C       		.byte	0x9c
 14252 1a8c 341C0000 		.4byte	0x1c34
 14253 1a90 15       		.uleb128 0x15
 14254 1a91 64727600 		.ascii	"drv\000"
 14255 1a95 01       		.byte	0x1
 14256 1a96 E50D     		.2byte	0xde5
 14257 1a98 4C000000 		.4byte	0x4c
 14258 1a9c 03       		.uleb128 0x3
 14259 1a9d 91       		.byte	0x91
 14260 1a9e A77F     		.sleb128 -89
 14261 1aa0 15       		.uleb128 0x15
 14262 1aa1 73666400 		.ascii	"sfd\000"
 14263 1aa5 01       		.byte	0x1
 14264 1aa6 E60D     		.2byte	0xde6
 14265 1aa8 4C000000 		.4byte	0x4c
 14266 1aac 03       		.uleb128 0x3
 14267 1aad 91       		.byte	0x91
 14268 1aae A67F     		.sleb128 -90
 14269 1ab0 15       		.uleb128 0x15
 14270 1ab1 617500   		.ascii	"au\000"
 14271 1ab4 01       		.byte	0x1
 14272 1ab5 E70D     		.2byte	0xde7
 14273 1ab7 2C000000 		.4byte	0x2c
 14274 1abb 03       		.uleb128 0x3
 14275 1abc 91       		.byte	0x91
 14276 1abd A07F     		.sleb128 -96
 14277 1abf 16       		.uleb128 0x16
 14278 1ac0 76737400 		.ascii	"vst\000"
 14279 1ac4 01       		.byte	0x1
 14280 1ac5 EA0D     		.2byte	0xdea
 14281 1ac7 441C0000 		.4byte	0x1c44
 14282 1acb 05       		.uleb128 0x5
 14283 1acc 03       		.byte	0x3
 14284 1acd 00000000 		.4byte	vst.5555
 14285 1ad1 16       		.uleb128 0x16
 14286 1ad2 63737400 		.ascii	"cst\000"
 14287 1ad6 01       		.byte	0x1
 14288 1ad7 EB0D     		.2byte	0xdeb
 14289 1ad9 491C0000 		.4byte	0x1c49
 14290 1add 05       		.uleb128 0x5
 14291 1ade 03       		.byte	0x3
 14292 1adf 00000000 		.4byte	cst.5556
ARM GAS  /tmp/ccIWRJEN.s 			page 253


 14293 1ae3 16       		.uleb128 0x16
 14294 1ae4 666D7400 		.ascii	"fmt\000"
 14295 1ae8 01       		.byte	0x1
 14296 1ae9 EC0D     		.2byte	0xdec
 14297 1aeb 4C000000 		.4byte	0x4c
 14298 1aef 02       		.uleb128 0x2
 14299 1af0 91       		.byte	0x91
 14300 1af1 77       		.sleb128 -9
 14301 1af2 16       		.uleb128 0x16
 14302 1af3 6D6400   		.ascii	"md\000"
 14303 1af6 01       		.byte	0x1
 14304 1af7 EC0D     		.2byte	0xdec
 14305 1af9 4C000000 		.4byte	0x4c
 14306 1afd 02       		.uleb128 0x2
 14307 1afe 91       		.byte	0x91
 14308 1aff 76       		.sleb128 -10
 14309 1b00 16       		.uleb128 0x16
 14310 1b01 73797300 		.ascii	"sys\000"
 14311 1b05 01       		.byte	0x1
 14312 1b06 EC0D     		.2byte	0xdec
 14313 1b08 4C000000 		.4byte	0x4c
 14314 1b0c 02       		.uleb128 0x2
 14315 1b0d 91       		.byte	0x91
 14316 1b0e 75       		.sleb128 -11
 14317 1b0f 16       		.uleb128 0x16
 14318 1b10 74626C00 		.ascii	"tbl\000"
 14319 1b14 01       		.byte	0x1
 14320 1b15 EC0D     		.2byte	0xdec
 14321 1b17 75020000 		.4byte	0x275
 14322 1b1b 03       		.uleb128 0x3
 14323 1b1c 91       		.byte	0x91
 14324 1b1d BC7F     		.sleb128 -68
 14325 1b1f 1B       		.uleb128 0x1b
 14326 1b20 F4020000 		.4byte	.LASF160
 14327 1b24 01       		.byte	0x1
 14328 1b25 EC0D     		.2byte	0xdec
 14329 1b27 4C000000 		.4byte	0x4c
 14330 1b2b 02       		.uleb128 0x2
 14331 1b2c 91       		.byte	0x91
 14332 1b2d 57       		.sleb128 -41
 14333 1b2e 1B       		.uleb128 0x1b
 14334 1b2f CA010000 		.4byte	.LASF161
 14335 1b33 01       		.byte	0x1
 14336 1b34 EC0D     		.2byte	0xdec
 14337 1b36 4C000000 		.4byte	0x4c
 14338 1b3a 02       		.uleb128 0x2
 14339 1b3b 91       		.byte	0x91
 14340 1b3c 56       		.sleb128 -42
 14341 1b3d 1B       		.uleb128 0x1b
 14342 1b3e 48040000 		.4byte	.LASF162
 14343 1b42 01       		.byte	0x1
 14344 1b43 ED0D     		.2byte	0xded
 14345 1b45 94000000 		.4byte	0x94
 14346 1b49 02       		.uleb128 0x2
 14347 1b4a 91       		.byte	0x91
 14348 1b4b 48       		.sleb128 -56
 14349 1b4c 16       		.uleb128 0x16
ARM GAS  /tmp/ccIWRJEN.s 			page 254


 14350 1b4d 767300   		.ascii	"vs\000"
 14351 1b50 01       		.byte	0x1
 14352 1b51 ED0D     		.2byte	0xded
 14353 1b53 94000000 		.4byte	0x94
 14354 1b57 02       		.uleb128 0x2
 14355 1b58 91       		.byte	0x91
 14356 1b59 4C       		.sleb128 -52
 14357 1b5a 16       		.uleb128 0x16
 14358 1b5b 6E00     		.ascii	"n\000"
 14359 1b5d 01       		.byte	0x1
 14360 1b5e ED0D     		.2byte	0xded
 14361 1b60 94000000 		.4byte	0x94
 14362 1b64 03       		.uleb128 0x3
 14363 1b65 91       		.byte	0x91
 14364 1b66 B87F     		.sleb128 -72
 14365 1b68 1B       		.uleb128 0x1b
 14366 1b69 B9010000 		.4byte	.LASF88
 14367 1b6d 01       		.byte	0x1
 14368 1b6e ED0D     		.2byte	0xded
 14369 1b70 94000000 		.4byte	0x94
 14370 1b74 02       		.uleb128 0x2
 14371 1b75 91       		.byte	0x91
 14372 1b76 70       		.sleb128 -16
 14373 1b77 16       		.uleb128 0x16
 14374 1b78 6900     		.ascii	"i\000"
 14375 1b7a 01       		.byte	0x1
 14376 1b7b EE0D     		.2byte	0xdee
 14377 1b7d 2C000000 		.4byte	0x2c
 14378 1b81 02       		.uleb128 0x2
 14379 1b82 91       		.byte	0x91
 14380 1b83 6C       		.sleb128 -20
 14381 1b84 1B       		.uleb128 0x1b
 14382 1b85 EF050000 		.4byte	.LASF163
 14383 1b89 01       		.byte	0x1
 14384 1b8a EF0D     		.2byte	0xdef
 14385 1b8c 94000000 		.4byte	0x94
 14386 1b90 02       		.uleb128 0x2
 14387 1b91 91       		.byte	0x91
 14388 1b92 50       		.sleb128 -48
 14389 1b93 1B       		.uleb128 0x1b
 14390 1b94 86060000 		.4byte	.LASF164
 14391 1b98 01       		.byte	0x1
 14392 1b99 EF0D     		.2byte	0xdef
 14393 1b9b 94000000 		.4byte	0x94
 14394 1b9f 02       		.uleb128 0x2
 14395 1ba0 91       		.byte	0x91
 14396 1ba1 68       		.sleb128 -24
 14397 1ba2 1B       		.uleb128 0x1b
 14398 1ba3 E4010000 		.4byte	.LASF165
 14399 1ba7 01       		.byte	0x1
 14400 1ba8 EF0D     		.2byte	0xdef
 14401 1baa 94000000 		.4byte	0x94
 14402 1bae 02       		.uleb128 0x2
 14403 1baf 91       		.byte	0x91
 14404 1bb0 44       		.sleb128 -60
 14405 1bb1 1B       		.uleb128 0x1b
 14406 1bb2 1B010000 		.4byte	.LASF166
ARM GAS  /tmp/ccIWRJEN.s 			page 255


 14407 1bb6 01       		.byte	0x1
 14408 1bb7 EF0D     		.2byte	0xdef
 14409 1bb9 94000000 		.4byte	0x94
 14410 1bbd 02       		.uleb128 0x2
 14411 1bbe 91       		.byte	0x91
 14412 1bbf 40       		.sleb128 -64
 14413 1bc0 1B       		.uleb128 0x1b
 14414 1bc1 27040000 		.4byte	.LASF167
 14415 1bc5 01       		.byte	0x1
 14416 1bc6 F00D     		.2byte	0xdf0
 14417 1bc8 94000000 		.4byte	0x94
 14418 1bcc 03       		.uleb128 0x3
 14419 1bcd 91       		.byte	0x91
 14420 1bce B47F     		.sleb128 -76
 14421 1bd0 1B       		.uleb128 0x1b
 14422 1bd1 0D020000 		.4byte	.LASF168
 14423 1bd5 01       		.byte	0x1
 14424 1bd6 F00D     		.2byte	0xdf0
 14425 1bd8 94000000 		.4byte	0x94
 14426 1bdc 02       		.uleb128 0x2
 14427 1bdd 91       		.byte	0x91
 14428 1bde 64       		.sleb128 -28
 14429 1bdf 1B       		.uleb128 0x1b
 14430 1be0 79020000 		.4byte	.LASF169
 14431 1be4 01       		.byte	0x1
 14432 1be5 F00D     		.2byte	0xdf0
 14433 1be7 94000000 		.4byte	0x94
 14434 1beb 02       		.uleb128 0x2
 14435 1bec 91       		.byte	0x91
 14436 1bed 60       		.sleb128 -32
 14437 1bee 1B       		.uleb128 0x1b
 14438 1bef 7D000000 		.4byte	.LASF170
 14439 1bf3 01       		.byte	0x1
 14440 1bf4 F00D     		.2byte	0xdf0
 14441 1bf6 94000000 		.4byte	0x94
 14442 1bfa 02       		.uleb128 0x2
 14443 1bfb 91       		.byte	0x91
 14444 1bfc 5C       		.sleb128 -36
 14445 1bfd 16       		.uleb128 0x16
 14446 1bfe 667300   		.ascii	"fs\000"
 14447 1c01 01       		.byte	0x1
 14448 1c02 F10D     		.2byte	0xdf1
 14449 1c04 6F020000 		.4byte	0x26f
 14450 1c08 02       		.uleb128 0x2
 14451 1c09 91       		.byte	0x91
 14452 1c0a 58       		.sleb128 -40
 14453 1c0b 1B       		.uleb128 0x1b
 14454 1c0c 08020000 		.4byte	.LASF117
 14455 1c10 01       		.byte	0x1
 14456 1c11 F20D     		.2byte	0xdf2
 14457 1c13 1F040000 		.4byte	0x41f
 14458 1c17 02       		.uleb128 0x2
 14459 1c18 91       		.byte	0x91
 14460 1c19 55       		.sleb128 -43
 14461 1c1a 1C       		.uleb128 0x1c
 14462 1c1b 0C060000 		.4byte	.LBB7
 14463 1c1f 34000000 		.4byte	.LBE7-.LBB7
ARM GAS  /tmp/ccIWRJEN.s 			page 256


 14464 1c23 16       		.uleb128 0x16
 14465 1c24 656200   		.ascii	"eb\000"
 14466 1c27 01       		.byte	0x1
 14467 1c28 B50E     		.2byte	0xeb5
 14468 1c2a 0B080000 		.4byte	0x80b
 14469 1c2e 03       		.uleb128 0x3
 14470 1c2f 91       		.byte	0x91
 14471 1c30 AC7F     		.sleb128 -84
 14472 1c32 00       		.byte	0
 14473 1c33 00       		.byte	0
 14474 1c34 0B       		.uleb128 0xb
 14475 1c35 65000000 		.4byte	0x65
 14476 1c39 441C0000 		.4byte	0x1c44
 14477 1c3d 0F       		.uleb128 0xf
 14478 1c3e BD000000 		.4byte	0xbd
 14479 1c42 0A       		.byte	0xa
 14480 1c43 00       		.byte	0
 14481 1c44 07       		.uleb128 0x7
 14482 1c45 341C0000 		.4byte	0x1c34
 14483 1c49 07       		.uleb128 0x7
 14484 1c4a 341C0000 		.4byte	0x1c34
 14485 1c4e 1E       		.uleb128 0x1e
 14486 1c4f 60020000 		.4byte	.LASF171
 14487 1c53 01       		.byte	0x1
 14488 1c54 180F     		.2byte	0xf18
 14489 1c56 82030000 		.4byte	0x382
 14490 1c5a 00000000 		.4byte	.LFB53
 14491 1c5e 72000000 		.4byte	.LFE53-.LFB53
 14492 1c62 01       		.uleb128 0x1
 14493 1c63 9C       		.byte	0x9c
 14494 1c64 D81C0000 		.4byte	0x1cd8
 14495 1c68 1A       		.uleb128 0x1a
 14496 1c69 13020000 		.4byte	.LASF130
 14497 1c6d 01       		.byte	0x1
 14498 1c6e 190F     		.2byte	0xf19
 14499 1c70 82030000 		.4byte	0x382
 14500 1c74 02       		.uleb128 0x2
 14501 1c75 91       		.byte	0x91
 14502 1c76 64       		.sleb128 -28
 14503 1c77 15       		.uleb128 0x15
 14504 1c78 6C656E00 		.ascii	"len\000"
 14505 1c7c 01       		.byte	0x1
 14506 1c7d 1A0F     		.2byte	0xf1a
 14507 1c7f 25000000 		.4byte	0x25
 14508 1c83 02       		.uleb128 0x2
 14509 1c84 91       		.byte	0x91
 14510 1c85 60       		.sleb128 -32
 14511 1c86 15       		.uleb128 0x15
 14512 1c87 66696C00 		.ascii	"fil\000"
 14513 1c8b 01       		.byte	0x1
 14514 1c8c 1B0F     		.2byte	0xf1b
 14515 1c8e 3E120000 		.4byte	0x123e
 14516 1c92 02       		.uleb128 0x2
 14517 1c93 91       		.byte	0x91
 14518 1c94 5C       		.sleb128 -36
 14519 1c95 16       		.uleb128 0x16
 14520 1c96 6E00     		.ascii	"n\000"
ARM GAS  /tmp/ccIWRJEN.s 			page 257


 14521 1c98 01       		.byte	0x1
 14522 1c99 1E0F     		.2byte	0xf1e
 14523 1c9b 25000000 		.4byte	0x25
 14524 1c9f 02       		.uleb128 0x2
 14525 1ca0 91       		.byte	0x91
 14526 1ca1 74       		.sleb128 -12
 14527 1ca2 16       		.uleb128 0x16
 14528 1ca3 6300     		.ascii	"c\000"
 14529 1ca5 01       		.byte	0x1
 14530 1ca6 1F0F     		.2byte	0xf1f
 14531 1ca8 CF000000 		.4byte	0xcf
 14532 1cac 02       		.uleb128 0x2
 14533 1cad 91       		.byte	0x91
 14534 1cae 6F       		.sleb128 -17
 14535 1caf 16       		.uleb128 0x16
 14536 1cb0 7000     		.ascii	"p\000"
 14537 1cb2 01       		.byte	0x1
 14538 1cb3 1F0F     		.2byte	0xf1f
 14539 1cb5 82030000 		.4byte	0x382
 14540 1cb9 02       		.uleb128 0x2
 14541 1cba 91       		.byte	0x91
 14542 1cbb 70       		.sleb128 -16
 14543 1cbc 16       		.uleb128 0x16
 14544 1cbd 7300     		.ascii	"s\000"
 14545 1cbf 01       		.byte	0x1
 14546 1cc0 200F     		.2byte	0xf20
 14547 1cc2 D81C0000 		.4byte	0x1cd8
 14548 1cc6 02       		.uleb128 0x2
 14549 1cc7 91       		.byte	0x91
 14550 1cc8 6C       		.sleb128 -20
 14551 1cc9 16       		.uleb128 0x16
 14552 1cca 726300   		.ascii	"rc\000"
 14553 1ccd 01       		.byte	0x1
 14554 1cce 210F     		.2byte	0xf21
 14555 1cd0 2C000000 		.4byte	0x2c
 14556 1cd4 02       		.uleb128 0x2
 14557 1cd5 91       		.byte	0x91
 14558 1cd6 68       		.sleb128 -24
 14559 1cd7 00       		.byte	0
 14560 1cd8 0B       		.uleb128 0xb
 14561 1cd9 4C000000 		.4byte	0x4c
 14562 1cdd E81C0000 		.4byte	0x1ce8
 14563 1ce1 0F       		.uleb128 0xf
 14564 1ce2 BD000000 		.4byte	0xbd
 14565 1ce6 01       		.byte	0x1
 14566 1ce7 00       		.byte	0
 14567 1ce8 1E       		.uleb128 0x1e
 14568 1ce9 46060000 		.4byte	.LASF172
 14569 1ced 01       		.byte	0x1
 14570 1cee 4E0F     		.2byte	0xf4e
 14571 1cf0 25000000 		.4byte	0x25
 14572 1cf4 00000000 		.4byte	.LFB54
 14573 1cf8 3E000000 		.4byte	.LFE54-.LFB54
 14574 1cfc 01       		.uleb128 0x1
 14575 1cfd 9C       		.byte	0x9c
 14576 1cfe 491D0000 		.4byte	0x1d49
 14577 1d02 15       		.uleb128 0x15
ARM GAS  /tmp/ccIWRJEN.s 			page 258


 14578 1d03 6300     		.ascii	"c\000"
 14579 1d05 01       		.byte	0x1
 14580 1d06 4F0F     		.2byte	0xf4f
 14581 1d08 CF000000 		.4byte	0xcf
 14582 1d0c 02       		.uleb128 0x2
 14583 1d0d 91       		.byte	0x91
 14584 1d0e 67       		.sleb128 -25
 14585 1d0f 15       		.uleb128 0x15
 14586 1d10 66696C00 		.ascii	"fil\000"
 14587 1d14 01       		.byte	0x1
 14588 1d15 500F     		.2byte	0xf50
 14589 1d17 3E120000 		.4byte	0x123e
 14590 1d1b 02       		.uleb128 0x2
 14591 1d1c 91       		.byte	0x91
 14592 1d1d 60       		.sleb128 -32
 14593 1d1e 16       		.uleb128 0x16
 14594 1d1f 627700   		.ascii	"bw\000"
 14595 1d22 01       		.byte	0x1
 14596 1d23 530F     		.2byte	0xf53
 14597 1d25 2C000000 		.4byte	0x2c
 14598 1d29 02       		.uleb128 0x2
 14599 1d2a 91       		.byte	0x91
 14600 1d2b 70       		.sleb128 -16
 14601 1d2c 16       		.uleb128 0x16
 14602 1d2d 62747700 		.ascii	"btw\000"
 14603 1d31 01       		.byte	0x1
 14604 1d32 530F     		.2byte	0xf53
 14605 1d34 2C000000 		.4byte	0x2c
 14606 1d38 02       		.uleb128 0x2
 14607 1d39 91       		.byte	0x91
 14608 1d3a 74       		.sleb128 -12
 14609 1d3b 16       		.uleb128 0x16
 14610 1d3c 7300     		.ascii	"s\000"
 14611 1d3e 01       		.byte	0x1
 14612 1d3f 540F     		.2byte	0xf54
 14613 1d41 491D0000 		.4byte	0x1d49
 14614 1d45 02       		.uleb128 0x2
 14615 1d46 91       		.byte	0x91
 14616 1d47 6C       		.sleb128 -20
 14617 1d48 00       		.byte	0
 14618 1d49 0B       		.uleb128 0xb
 14619 1d4a 4C000000 		.4byte	0x4c
 14620 1d4e 591D0000 		.4byte	0x1d59
 14621 1d52 0F       		.uleb128 0xf
 14622 1d53 BD000000 		.4byte	0xbd
 14623 1d57 02       		.byte	0x2
 14624 1d58 00       		.byte	0
 14625 1d59 1E       		.uleb128 0x1e
 14626 1d5a 60060000 		.4byte	.LASF173
 14627 1d5e 01       		.byte	0x1
 14628 1d5f 790F     		.2byte	0xf79
 14629 1d61 25000000 		.4byte	0x25
 14630 1d65 00000000 		.4byte	.LFB55
 14631 1d69 46000000 		.4byte	.LFE55-.LFB55
 14632 1d6d 01       		.uleb128 0x1
 14633 1d6e 9C       		.byte	0x9c
 14634 1d6f 9F1D0000 		.4byte	0x1d9f
ARM GAS  /tmp/ccIWRJEN.s 			page 259


 14635 1d73 15       		.uleb128 0x15
 14636 1d74 73747200 		.ascii	"str\000"
 14637 1d78 01       		.byte	0x1
 14638 1d79 7A0F     		.2byte	0xf7a
 14639 1d7b 6B0E0000 		.4byte	0xe6b
 14640 1d7f 02       		.uleb128 0x2
 14641 1d80 91       		.byte	0x91
 14642 1d81 6C       		.sleb128 -20
 14643 1d82 15       		.uleb128 0x15
 14644 1d83 66696C00 		.ascii	"fil\000"
 14645 1d87 01       		.byte	0x1
 14646 1d88 7B0F     		.2byte	0xf7b
 14647 1d8a 3E120000 		.4byte	0x123e
 14648 1d8e 02       		.uleb128 0x2
 14649 1d8f 91       		.byte	0x91
 14650 1d90 68       		.sleb128 -24
 14651 1d91 16       		.uleb128 0x16
 14652 1d92 6E00     		.ascii	"n\000"
 14653 1d94 01       		.byte	0x1
 14654 1d95 7E0F     		.2byte	0xf7e
 14655 1d97 25000000 		.4byte	0x25
 14656 1d9b 02       		.uleb128 0x2
 14657 1d9c 91       		.byte	0x91
 14658 1d9d 74       		.sleb128 -12
 14659 1d9e 00       		.byte	0
 14660 1d9f 1E       		.uleb128 0x1e
 14661 1da0 E5020000 		.4byte	.LASF174
 14662 1da4 01       		.byte	0x1
 14663 1da5 8D0F     		.2byte	0xf8d
 14664 1da7 25000000 		.4byte	0x25
 14665 1dab 00000000 		.4byte	.LFB56
 14666 1daf 12040000 		.4byte	.LFE56-.LFB56
 14667 1db3 01       		.uleb128 0x1
 14668 1db4 9C       		.byte	0x9c
 14669 1db5 981E0000 		.4byte	0x1e98
 14670 1db9 15       		.uleb128 0x15
 14671 1dba 66696C00 		.ascii	"fil\000"
 14672 1dbe 01       		.byte	0x1
 14673 1dbf 8E0F     		.2byte	0xf8e
 14674 1dc1 3E120000 		.4byte	0x123e
 14675 1dc5 03       		.uleb128 0x3
 14676 1dc6 91       		.byte	0x91
 14677 1dc7 AC7F     		.sleb128 -84
 14678 1dc9 15       		.uleb128 0x15
 14679 1dca 73747200 		.ascii	"str\000"
 14680 1dce 01       		.byte	0x1
 14681 1dcf 8F0F     		.2byte	0xf8f
 14682 1dd1 6B0E0000 		.4byte	0xe6b
 14683 1dd5 02       		.uleb128 0x2
 14684 1dd6 91       		.byte	0x91
 14685 1dd7 74       		.sleb128 -12
 14686 1dd8 21       		.uleb128 0x21
 14687 1dd9 16       		.uleb128 0x16
 14688 1dda 61727000 		.ascii	"arp\000"
 14689 1dde 01       		.byte	0x1
 14690 1ddf 930F     		.2byte	0xf93
 14691 1de1 73040000 		.4byte	0x473
ARM GAS  /tmp/ccIWRJEN.s 			page 260


 14692 1de5 02       		.uleb128 0x2
 14693 1de6 91       		.byte	0x91
 14694 1de7 44       		.sleb128 -60
 14695 1de8 16       		.uleb128 0x16
 14696 1de9 6600     		.ascii	"f\000"
 14697 1deb 01       		.byte	0x1
 14698 1dec 940F     		.2byte	0xf94
 14699 1dee 4C000000 		.4byte	0x4c
 14700 1df2 02       		.uleb128 0x2
 14701 1df3 91       		.byte	0x91
 14702 1df4 6F       		.sleb128 -17
 14703 1df5 16       		.uleb128 0x16
 14704 1df6 7200     		.ascii	"r\000"
 14705 1df8 01       		.byte	0x1
 14706 1df9 940F     		.2byte	0xf94
 14707 1dfb 4C000000 		.4byte	0x4c
 14708 1dff 02       		.uleb128 0x2
 14709 1e00 91       		.byte	0x91
 14710 1e01 6E       		.sleb128 -18
 14711 1e02 16       		.uleb128 0x16
 14712 1e03 6900     		.ascii	"i\000"
 14713 1e05 01       		.byte	0x1
 14714 1e06 950F     		.2byte	0xf95
 14715 1e08 2C000000 		.4byte	0x2c
 14716 1e0c 02       		.uleb128 0x2
 14717 1e0d 91       		.byte	0x91
 14718 1e0e 68       		.sleb128 -24
 14719 1e0f 16       		.uleb128 0x16
 14720 1e10 6A00     		.ascii	"j\000"
 14721 1e12 01       		.byte	0x1
 14722 1e13 950F     		.2byte	0xf95
 14723 1e15 2C000000 		.4byte	0x2c
 14724 1e19 02       		.uleb128 0x2
 14725 1e1a 91       		.byte	0x91
 14726 1e1b 64       		.sleb128 -28
 14727 1e1c 16       		.uleb128 0x16
 14728 1e1d 7700     		.ascii	"w\000"
 14729 1e1f 01       		.byte	0x1
 14730 1e20 950F     		.2byte	0xf95
 14731 1e22 2C000000 		.4byte	0x2c
 14732 1e26 02       		.uleb128 0x2
 14733 1e27 91       		.byte	0x91
 14734 1e28 60       		.sleb128 -32
 14735 1e29 16       		.uleb128 0x16
 14736 1e2a 7600     		.ascii	"v\000"
 14737 1e2c 01       		.byte	0x1
 14738 1e2d 960F     		.2byte	0xf96
 14739 1e2f 82000000 		.4byte	0x82
 14740 1e33 02       		.uleb128 0x2
 14741 1e34 91       		.byte	0x91
 14742 1e35 5C       		.sleb128 -36
 14743 1e36 16       		.uleb128 0x16
 14744 1e37 6300     		.ascii	"c\000"
 14745 1e39 01       		.byte	0x1
 14746 1e3a 970F     		.2byte	0xf97
 14747 1e3c CF000000 		.4byte	0xcf
 14748 1e40 02       		.uleb128 0x2
ARM GAS  /tmp/ccIWRJEN.s 			page 261


 14749 1e41 91       		.byte	0x91
 14750 1e42 5B       		.sleb128 -37
 14751 1e43 16       		.uleb128 0x16
 14752 1e44 6400     		.ascii	"d\000"
 14753 1e46 01       		.byte	0x1
 14754 1e47 970F     		.2byte	0xf97
 14755 1e49 CF000000 		.4byte	0xcf
 14756 1e4d 02       		.uleb128 0x2
 14757 1e4e 91       		.byte	0x91
 14758 1e4f 5A       		.sleb128 -38
 14759 1e50 16       		.uleb128 0x16
 14760 1e51 7300     		.ascii	"s\000"
 14761 1e53 01       		.byte	0x1
 14762 1e54 970F     		.2byte	0xf97
 14763 1e56 981E0000 		.4byte	0x1e98
 14764 1e5a 03       		.uleb128 0x3
 14765 1e5b 91       		.byte	0x91
 14766 1e5c B47F     		.sleb128 -76
 14767 1e5e 16       		.uleb128 0x16
 14768 1e5f 7000     		.ascii	"p\000"
 14769 1e61 01       		.byte	0x1
 14770 1e62 970F     		.2byte	0xf97
 14771 1e64 82030000 		.4byte	0x382
 14772 1e68 02       		.uleb128 0x2
 14773 1e69 91       		.byte	0x91
 14774 1e6a 48       		.sleb128 -56
 14775 1e6b 16       		.uleb128 0x16
 14776 1e6c 72657300 		.ascii	"res\000"
 14777 1e70 01       		.byte	0x1
 14778 1e71 980F     		.2byte	0xf98
 14779 1e73 25000000 		.4byte	0x25
 14780 1e77 02       		.uleb128 0x2
 14781 1e78 91       		.byte	0x91
 14782 1e79 54       		.sleb128 -44
 14783 1e7a 16       		.uleb128 0x16
 14784 1e7b 63686300 		.ascii	"chc\000"
 14785 1e7f 01       		.byte	0x1
 14786 1e80 980F     		.2byte	0xf98
 14787 1e82 25000000 		.4byte	0x25
 14788 1e86 02       		.uleb128 0x2
 14789 1e87 91       		.byte	0x91
 14790 1e88 50       		.sleb128 -48
 14791 1e89 16       		.uleb128 0x16
 14792 1e8a 636300   		.ascii	"cc\000"
 14793 1e8d 01       		.byte	0x1
 14794 1e8e 980F     		.2byte	0xf98
 14795 1e90 25000000 		.4byte	0x25
 14796 1e94 02       		.uleb128 0x2
 14797 1e95 91       		.byte	0x91
 14798 1e96 4C       		.sleb128 -52
 14799 1e97 00       		.byte	0
 14800 1e98 0B       		.uleb128 0xb
 14801 1e99 CF000000 		.4byte	0xcf
 14802 1e9d A81E0000 		.4byte	0x1ea8
 14803 1ea1 0F       		.uleb128 0xf
 14804 1ea2 BD000000 		.4byte	0xbd
 14805 1ea6 0F       		.byte	0xf
ARM GAS  /tmp/ccIWRJEN.s 			page 262


 14806 1ea7 00       		.byte	0
 14807 1ea8 0B       		.uleb128 0xb
 14808 1ea9 6F020000 		.4byte	0x26f
 14809 1ead B81E0000 		.4byte	0x1eb8
 14810 1eb1 0F       		.uleb128 0xf
 14811 1eb2 BD000000 		.4byte	0xbd
 14812 1eb6 00       		.byte	0
 14813 1eb7 00       		.byte	0
 14814 1eb8 1B       		.uleb128 0x1b
 14815 1eb9 2D040000 		.4byte	.LASF175
 14816 1ebd 01       		.byte	0x1
 14817 1ebe D401     		.2byte	0x1d4
 14818 1ec0 A81E0000 		.4byte	0x1ea8
 14819 1ec4 05       		.uleb128 0x5
 14820 1ec5 03       		.byte	0x3
 14821 1ec6 00000000 		.4byte	FatFs
 14822 1eca 1B       		.uleb128 0x1b
 14823 1ecb DA030000 		.4byte	.LASF176
 14824 1ecf 01       		.byte	0x1
 14825 1ed0 DA01     		.2byte	0x1da
 14826 1ed2 65000000 		.4byte	0x65
 14827 1ed6 05       		.uleb128 0x5
 14828 1ed7 03       		.byte	0x3
 14829 1ed8 00000000 		.4byte	Fsid
 14830 1edc 0B       		.uleb128 0xb
 14831 1edd 4C000000 		.4byte	0x4c
 14832 1ee1 EC1E0000 		.4byte	0x1eec
 14833 1ee5 0F       		.uleb128 0xf
 14834 1ee6 BD000000 		.4byte	0xbd
 14835 1eea 0C       		.byte	0xc
 14836 1eeb 00       		.byte	0
 14837 1eec 1B       		.uleb128 0x1b
 14838 1eed C1030000 		.4byte	.LASF177
 14839 1ef1 01       		.byte	0x1
 14840 1ef2 9D04     		.2byte	0x49d
 14841 1ef4 FE1E0000 		.4byte	0x1efe
 14842 1ef8 05       		.uleb128 0x5
 14843 1ef9 03       		.byte	0x3
 14844 1efa 00000000 		.4byte	LfnOfs
 14845 1efe 07       		.uleb128 0x7
 14846 1eff DC1E0000 		.4byte	0x1edc
 14847 1f03 00       		.byte	0
 14848              		.section	.debug_abbrev,"",%progbits
 14849              	.Ldebug_abbrev0:
 14850 0000 01       		.uleb128 0x1
 14851 0001 11       		.uleb128 0x11
 14852 0002 01       		.byte	0x1
 14853 0003 25       		.uleb128 0x25
 14854 0004 0E       		.uleb128 0xe
 14855 0005 13       		.uleb128 0x13
 14856 0006 0B       		.uleb128 0xb
 14857 0007 03       		.uleb128 0x3
 14858 0008 0E       		.uleb128 0xe
 14859 0009 1B       		.uleb128 0x1b
 14860 000a 0E       		.uleb128 0xe
 14861 000b 55       		.uleb128 0x55
 14862 000c 17       		.uleb128 0x17
ARM GAS  /tmp/ccIWRJEN.s 			page 263


 14863 000d 11       		.uleb128 0x11
 14864 000e 01       		.uleb128 0x1
 14865 000f 10       		.uleb128 0x10
 14866 0010 17       		.uleb128 0x17
 14867 0011 00       		.byte	0
 14868 0012 00       		.byte	0
 14869 0013 02       		.uleb128 0x2
 14870 0014 24       		.uleb128 0x24
 14871 0015 00       		.byte	0
 14872 0016 0B       		.uleb128 0xb
 14873 0017 0B       		.uleb128 0xb
 14874 0018 3E       		.uleb128 0x3e
 14875 0019 0B       		.uleb128 0xb
 14876 001a 03       		.uleb128 0x3
 14877 001b 08       		.uleb128 0x8
 14878 001c 00       		.byte	0
 14879 001d 00       		.byte	0
 14880 001e 03       		.uleb128 0x3
 14881 001f 16       		.uleb128 0x16
 14882 0020 00       		.byte	0
 14883 0021 03       		.uleb128 0x3
 14884 0022 0E       		.uleb128 0xe
 14885 0023 3A       		.uleb128 0x3a
 14886 0024 0B       		.uleb128 0xb
 14887 0025 3B       		.uleb128 0x3b
 14888 0026 0B       		.uleb128 0xb
 14889 0027 49       		.uleb128 0x49
 14890 0028 13       		.uleb128 0x13
 14891 0029 00       		.byte	0
 14892 002a 00       		.byte	0
 14893 002b 04       		.uleb128 0x4
 14894 002c 24       		.uleb128 0x24
 14895 002d 00       		.byte	0
 14896 002e 0B       		.uleb128 0xb
 14897 002f 0B       		.uleb128 0xb
 14898 0030 3E       		.uleb128 0x3e
 14899 0031 0B       		.uleb128 0xb
 14900 0032 03       		.uleb128 0x3
 14901 0033 0E       		.uleb128 0xe
 14902 0034 00       		.byte	0
 14903 0035 00       		.byte	0
 14904 0036 05       		.uleb128 0x5
 14905 0037 0F       		.uleb128 0xf
 14906 0038 00       		.byte	0
 14907 0039 0B       		.uleb128 0xb
 14908 003a 0B       		.uleb128 0xb
 14909 003b 00       		.byte	0
 14910 003c 00       		.byte	0
 14911 003d 06       		.uleb128 0x6
 14912 003e 0F       		.uleb128 0xf
 14913 003f 00       		.byte	0
 14914 0040 0B       		.uleb128 0xb
 14915 0041 0B       		.uleb128 0xb
 14916 0042 49       		.uleb128 0x49
 14917 0043 13       		.uleb128 0x13
 14918 0044 00       		.byte	0
 14919 0045 00       		.byte	0
ARM GAS  /tmp/ccIWRJEN.s 			page 264


 14920 0046 07       		.uleb128 0x7
 14921 0047 26       		.uleb128 0x26
 14922 0048 00       		.byte	0
 14923 0049 49       		.uleb128 0x49
 14924 004a 13       		.uleb128 0x13
 14925 004b 00       		.byte	0
 14926 004c 00       		.byte	0
 14927 004d 08       		.uleb128 0x8
 14928 004e 13       		.uleb128 0x13
 14929 004f 01       		.byte	0x1
 14930 0050 0B       		.uleb128 0xb
 14931 0051 05       		.uleb128 0x5
 14932 0052 3A       		.uleb128 0x3a
 14933 0053 0B       		.uleb128 0xb
 14934 0054 3B       		.uleb128 0x3b
 14935 0055 0B       		.uleb128 0xb
 14936 0056 01       		.uleb128 0x1
 14937 0057 13       		.uleb128 0x13
 14938 0058 00       		.byte	0
 14939 0059 00       		.byte	0
 14940 005a 09       		.uleb128 0x9
 14941 005b 0D       		.uleb128 0xd
 14942 005c 00       		.byte	0
 14943 005d 03       		.uleb128 0x3
 14944 005e 0E       		.uleb128 0xe
 14945 005f 3A       		.uleb128 0x3a
 14946 0060 0B       		.uleb128 0xb
 14947 0061 3B       		.uleb128 0x3b
 14948 0062 0B       		.uleb128 0xb
 14949 0063 49       		.uleb128 0x49
 14950 0064 13       		.uleb128 0x13
 14951 0065 38       		.uleb128 0x38
 14952 0066 0B       		.uleb128 0xb
 14953 0067 00       		.byte	0
 14954 0068 00       		.byte	0
 14955 0069 0A       		.uleb128 0xa
 14956 006a 0D       		.uleb128 0xd
 14957 006b 00       		.byte	0
 14958 006c 03       		.uleb128 0x3
 14959 006d 08       		.uleb128 0x8
 14960 006e 3A       		.uleb128 0x3a
 14961 006f 0B       		.uleb128 0xb
 14962 0070 3B       		.uleb128 0x3b
 14963 0071 0B       		.uleb128 0xb
 14964 0072 49       		.uleb128 0x49
 14965 0073 13       		.uleb128 0x13
 14966 0074 38       		.uleb128 0x38
 14967 0075 0B       		.uleb128 0xb
 14968 0076 00       		.byte	0
 14969 0077 00       		.byte	0
 14970 0078 0B       		.uleb128 0xb
 14971 0079 01       		.uleb128 0x1
 14972 007a 01       		.byte	0x1
 14973 007b 49       		.uleb128 0x49
 14974 007c 13       		.uleb128 0x13
 14975 007d 01       		.uleb128 0x1
 14976 007e 13       		.uleb128 0x13
ARM GAS  /tmp/ccIWRJEN.s 			page 265


 14977 007f 00       		.byte	0
 14978 0080 00       		.byte	0
 14979 0081 0C       		.uleb128 0xc
 14980 0082 21       		.uleb128 0x21
 14981 0083 00       		.byte	0
 14982 0084 49       		.uleb128 0x49
 14983 0085 13       		.uleb128 0x13
 14984 0086 2F       		.uleb128 0x2f
 14985 0087 05       		.uleb128 0x5
 14986 0088 00       		.byte	0
 14987 0089 00       		.byte	0
 14988 008a 0D       		.uleb128 0xd
 14989 008b 16       		.uleb128 0x16
 14990 008c 00       		.byte	0
 14991 008d 03       		.uleb128 0x3
 14992 008e 08       		.uleb128 0x8
 14993 008f 3A       		.uleb128 0x3a
 14994 0090 0B       		.uleb128 0xb
 14995 0091 3B       		.uleb128 0x3b
 14996 0092 0B       		.uleb128 0xb
 14997 0093 49       		.uleb128 0x49
 14998 0094 13       		.uleb128 0x13
 14999 0095 00       		.byte	0
 15000 0096 00       		.byte	0
 15001 0097 0E       		.uleb128 0xe
 15002 0098 13       		.uleb128 0x13
 15003 0099 01       		.byte	0x1
 15004 009a 0B       		.uleb128 0xb
 15005 009b 0B       		.uleb128 0xb
 15006 009c 3A       		.uleb128 0x3a
 15007 009d 0B       		.uleb128 0xb
 15008 009e 3B       		.uleb128 0x3b
 15009 009f 0B       		.uleb128 0xb
 15010 00a0 01       		.uleb128 0x1
 15011 00a1 13       		.uleb128 0x13
 15012 00a2 00       		.byte	0
 15013 00a3 00       		.byte	0
 15014 00a4 0F       		.uleb128 0xf
 15015 00a5 21       		.uleb128 0x21
 15016 00a6 00       		.byte	0
 15017 00a7 49       		.uleb128 0x49
 15018 00a8 13       		.uleb128 0x13
 15019 00a9 2F       		.uleb128 0x2f
 15020 00aa 0B       		.uleb128 0xb
 15021 00ab 00       		.byte	0
 15022 00ac 00       		.byte	0
 15023 00ad 10       		.uleb128 0x10
 15024 00ae 04       		.uleb128 0x4
 15025 00af 01       		.byte	0x1
 15026 00b0 0B       		.uleb128 0xb
 15027 00b1 0B       		.uleb128 0xb
 15028 00b2 3A       		.uleb128 0x3a
 15029 00b3 0B       		.uleb128 0xb
 15030 00b4 3B       		.uleb128 0x3b
 15031 00b5 0B       		.uleb128 0xb
 15032 00b6 01       		.uleb128 0x1
 15033 00b7 13       		.uleb128 0x13
ARM GAS  /tmp/ccIWRJEN.s 			page 266


 15034 00b8 00       		.byte	0
 15035 00b9 00       		.byte	0
 15036 00ba 11       		.uleb128 0x11
 15037 00bb 28       		.uleb128 0x28
 15038 00bc 00       		.byte	0
 15039 00bd 03       		.uleb128 0x3
 15040 00be 0E       		.uleb128 0xe
 15041 00bf 1C       		.uleb128 0x1c
 15042 00c0 0D       		.uleb128 0xd
 15043 00c1 00       		.byte	0
 15044 00c2 00       		.byte	0
 15045 00c3 12       		.uleb128 0x12
 15046 00c4 13       		.uleb128 0x13
 15047 00c5 01       		.byte	0x1
 15048 00c6 03       		.uleb128 0x3
 15049 00c7 0E       		.uleb128 0xe
 15050 00c8 0B       		.uleb128 0xb
 15051 00c9 0B       		.uleb128 0xb
 15052 00ca 3A       		.uleb128 0x3a
 15053 00cb 0B       		.uleb128 0xb
 15054 00cc 3B       		.uleb128 0x3b
 15055 00cd 0B       		.uleb128 0xb
 15056 00ce 01       		.uleb128 0x1
 15057 00cf 13       		.uleb128 0x13
 15058 00d0 00       		.byte	0
 15059 00d1 00       		.byte	0
 15060 00d2 13       		.uleb128 0x13
 15061 00d3 0D       		.uleb128 0xd
 15062 00d4 00       		.byte	0
 15063 00d5 03       		.uleb128 0x3
 15064 00d6 0E       		.uleb128 0xe
 15065 00d7 49       		.uleb128 0x49
 15066 00d8 13       		.uleb128 0x13
 15067 00d9 38       		.uleb128 0x38
 15068 00da 0B       		.uleb128 0xb
 15069 00db 34       		.uleb128 0x34
 15070 00dc 19       		.uleb128 0x19
 15071 00dd 00       		.byte	0
 15072 00de 00       		.byte	0
 15073 00df 14       		.uleb128 0x14
 15074 00e0 2E       		.uleb128 0x2e
 15075 00e1 01       		.byte	0x1
 15076 00e2 03       		.uleb128 0x3
 15077 00e3 0E       		.uleb128 0xe
 15078 00e4 3A       		.uleb128 0x3a
 15079 00e5 0B       		.uleb128 0xb
 15080 00e6 3B       		.uleb128 0x3b
 15081 00e7 05       		.uleb128 0x5
 15082 00e8 27       		.uleb128 0x27
 15083 00e9 19       		.uleb128 0x19
 15084 00ea 11       		.uleb128 0x11
 15085 00eb 01       		.uleb128 0x1
 15086 00ec 12       		.uleb128 0x12
 15087 00ed 06       		.uleb128 0x6
 15088 00ee 40       		.uleb128 0x40
 15089 00ef 18       		.uleb128 0x18
 15090 00f0 9742     		.uleb128 0x2117
ARM GAS  /tmp/ccIWRJEN.s 			page 267


 15091 00f2 19       		.uleb128 0x19
 15092 00f3 01       		.uleb128 0x1
 15093 00f4 13       		.uleb128 0x13
 15094 00f5 00       		.byte	0
 15095 00f6 00       		.byte	0
 15096 00f7 15       		.uleb128 0x15
 15097 00f8 05       		.uleb128 0x5
 15098 00f9 00       		.byte	0
 15099 00fa 03       		.uleb128 0x3
 15100 00fb 08       		.uleb128 0x8
 15101 00fc 3A       		.uleb128 0x3a
 15102 00fd 0B       		.uleb128 0xb
 15103 00fe 3B       		.uleb128 0x3b
 15104 00ff 05       		.uleb128 0x5
 15105 0100 49       		.uleb128 0x49
 15106 0101 13       		.uleb128 0x13
 15107 0102 02       		.uleb128 0x2
 15108 0103 18       		.uleb128 0x18
 15109 0104 00       		.byte	0
 15110 0105 00       		.byte	0
 15111 0106 16       		.uleb128 0x16
 15112 0107 34       		.uleb128 0x34
 15113 0108 00       		.byte	0
 15114 0109 03       		.uleb128 0x3
 15115 010a 08       		.uleb128 0x8
 15116 010b 3A       		.uleb128 0x3a
 15117 010c 0B       		.uleb128 0xb
 15118 010d 3B       		.uleb128 0x3b
 15119 010e 05       		.uleb128 0x5
 15120 010f 49       		.uleb128 0x49
 15121 0110 13       		.uleb128 0x13
 15122 0111 02       		.uleb128 0x2
 15123 0112 18       		.uleb128 0x18
 15124 0113 00       		.byte	0
 15125 0114 00       		.byte	0
 15126 0115 17       		.uleb128 0x17
 15127 0116 26       		.uleb128 0x26
 15128 0117 00       		.byte	0
 15129 0118 00       		.byte	0
 15130 0119 00       		.byte	0
 15131 011a 18       		.uleb128 0x18
 15132 011b 2E       		.uleb128 0x2e
 15133 011c 01       		.byte	0x1
 15134 011d 03       		.uleb128 0x3
 15135 011e 0E       		.uleb128 0xe
 15136 011f 3A       		.uleb128 0x3a
 15137 0120 0B       		.uleb128 0xb
 15138 0121 3B       		.uleb128 0x3b
 15139 0122 05       		.uleb128 0x5
 15140 0123 27       		.uleb128 0x27
 15141 0124 19       		.uleb128 0x19
 15142 0125 49       		.uleb128 0x49
 15143 0126 13       		.uleb128 0x13
 15144 0127 11       		.uleb128 0x11
 15145 0128 01       		.uleb128 0x1
 15146 0129 12       		.uleb128 0x12
 15147 012a 06       		.uleb128 0x6
ARM GAS  /tmp/ccIWRJEN.s 			page 268


 15148 012b 40       		.uleb128 0x40
 15149 012c 18       		.uleb128 0x18
 15150 012d 9742     		.uleb128 0x2117
 15151 012f 19       		.uleb128 0x19
 15152 0130 01       		.uleb128 0x1
 15153 0131 13       		.uleb128 0x13
 15154 0132 00       		.byte	0
 15155 0133 00       		.byte	0
 15156 0134 19       		.uleb128 0x19
 15157 0135 2E       		.uleb128 0x2e
 15158 0136 01       		.byte	0x1
 15159 0137 03       		.uleb128 0x3
 15160 0138 0E       		.uleb128 0xe
 15161 0139 3A       		.uleb128 0x3a
 15162 013a 0B       		.uleb128 0xb
 15163 013b 3B       		.uleb128 0x3b
 15164 013c 05       		.uleb128 0x5
 15165 013d 27       		.uleb128 0x27
 15166 013e 19       		.uleb128 0x19
 15167 013f 49       		.uleb128 0x49
 15168 0140 13       		.uleb128 0x13
 15169 0141 11       		.uleb128 0x11
 15170 0142 01       		.uleb128 0x1
 15171 0143 12       		.uleb128 0x12
 15172 0144 06       		.uleb128 0x6
 15173 0145 40       		.uleb128 0x40
 15174 0146 18       		.uleb128 0x18
 15175 0147 9642     		.uleb128 0x2116
 15176 0149 19       		.uleb128 0x19
 15177 014a 01       		.uleb128 0x1
 15178 014b 13       		.uleb128 0x13
 15179 014c 00       		.byte	0
 15180 014d 00       		.byte	0
 15181 014e 1A       		.uleb128 0x1a
 15182 014f 05       		.uleb128 0x5
 15183 0150 00       		.byte	0
 15184 0151 03       		.uleb128 0x3
 15185 0152 0E       		.uleb128 0xe
 15186 0153 3A       		.uleb128 0x3a
 15187 0154 0B       		.uleb128 0xb
 15188 0155 3B       		.uleb128 0x3b
 15189 0156 05       		.uleb128 0x5
 15190 0157 49       		.uleb128 0x49
 15191 0158 13       		.uleb128 0x13
 15192 0159 02       		.uleb128 0x2
 15193 015a 18       		.uleb128 0x18
 15194 015b 00       		.byte	0
 15195 015c 00       		.byte	0
 15196 015d 1B       		.uleb128 0x1b
 15197 015e 34       		.uleb128 0x34
 15198 015f 00       		.byte	0
 15199 0160 03       		.uleb128 0x3
 15200 0161 0E       		.uleb128 0xe
 15201 0162 3A       		.uleb128 0x3a
 15202 0163 0B       		.uleb128 0xb
 15203 0164 3B       		.uleb128 0x3b
 15204 0165 05       		.uleb128 0x5
ARM GAS  /tmp/ccIWRJEN.s 			page 269


 15205 0166 49       		.uleb128 0x49
 15206 0167 13       		.uleb128 0x13
 15207 0168 02       		.uleb128 0x2
 15208 0169 18       		.uleb128 0x18
 15209 016a 00       		.byte	0
 15210 016b 00       		.byte	0
 15211 016c 1C       		.uleb128 0x1c
 15212 016d 0B       		.uleb128 0xb
 15213 016e 01       		.byte	0x1
 15214 016f 11       		.uleb128 0x11
 15215 0170 01       		.uleb128 0x1
 15216 0171 12       		.uleb128 0x12
 15217 0172 06       		.uleb128 0x6
 15218 0173 00       		.byte	0
 15219 0174 00       		.byte	0
 15220 0175 1D       		.uleb128 0x1d
 15221 0176 2E       		.uleb128 0x2e
 15222 0177 01       		.byte	0x1
 15223 0178 3F       		.uleb128 0x3f
 15224 0179 19       		.uleb128 0x19
 15225 017a 03       		.uleb128 0x3
 15226 017b 0E       		.uleb128 0xe
 15227 017c 3A       		.uleb128 0x3a
 15228 017d 0B       		.uleb128 0xb
 15229 017e 3B       		.uleb128 0x3b
 15230 017f 05       		.uleb128 0x5
 15231 0180 27       		.uleb128 0x27
 15232 0181 19       		.uleb128 0x19
 15233 0182 49       		.uleb128 0x49
 15234 0183 13       		.uleb128 0x13
 15235 0184 11       		.uleb128 0x11
 15236 0185 01       		.uleb128 0x1
 15237 0186 12       		.uleb128 0x12
 15238 0187 06       		.uleb128 0x6
 15239 0188 40       		.uleb128 0x40
 15240 0189 18       		.uleb128 0x18
 15241 018a 9742     		.uleb128 0x2117
 15242 018c 19       		.uleb128 0x19
 15243 018d 01       		.uleb128 0x1
 15244 018e 13       		.uleb128 0x13
 15245 018f 00       		.byte	0
 15246 0190 00       		.byte	0
 15247 0191 1E       		.uleb128 0x1e
 15248 0192 2E       		.uleb128 0x2e
 15249 0193 01       		.byte	0x1
 15250 0194 3F       		.uleb128 0x3f
 15251 0195 19       		.uleb128 0x19
 15252 0196 03       		.uleb128 0x3
 15253 0197 0E       		.uleb128 0xe
 15254 0198 3A       		.uleb128 0x3a
 15255 0199 0B       		.uleb128 0xb
 15256 019a 3B       		.uleb128 0x3b
 15257 019b 05       		.uleb128 0x5
 15258 019c 27       		.uleb128 0x27
 15259 019d 19       		.uleb128 0x19
 15260 019e 49       		.uleb128 0x49
 15261 019f 13       		.uleb128 0x13
ARM GAS  /tmp/ccIWRJEN.s 			page 270


 15262 01a0 11       		.uleb128 0x11
 15263 01a1 01       		.uleb128 0x1
 15264 01a2 12       		.uleb128 0x12
 15265 01a3 06       		.uleb128 0x6
 15266 01a4 40       		.uleb128 0x40
 15267 01a5 18       		.uleb128 0x18
 15268 01a6 9642     		.uleb128 0x2116
 15269 01a8 19       		.uleb128 0x19
 15270 01a9 01       		.uleb128 0x1
 15271 01aa 13       		.uleb128 0x13
 15272 01ab 00       		.byte	0
 15273 01ac 00       		.byte	0
 15274 01ad 1F       		.uleb128 0x1f
 15275 01ae 2E       		.uleb128 0x2e
 15276 01af 01       		.byte	0x1
 15277 01b0 3F       		.uleb128 0x3f
 15278 01b1 19       		.uleb128 0x19
 15279 01b2 03       		.uleb128 0x3
 15280 01b3 0E       		.uleb128 0xe
 15281 01b4 3A       		.uleb128 0x3a
 15282 01b5 0B       		.uleb128 0xb
 15283 01b6 3B       		.uleb128 0x3b
 15284 01b7 05       		.uleb128 0x5
 15285 01b8 27       		.uleb128 0x27
 15286 01b9 19       		.uleb128 0x19
 15287 01ba 11       		.uleb128 0x11
 15288 01bb 01       		.uleb128 0x1
 15289 01bc 12       		.uleb128 0x12
 15290 01bd 06       		.uleb128 0x6
 15291 01be 40       		.uleb128 0x40
 15292 01bf 18       		.uleb128 0x18
 15293 01c0 9642     		.uleb128 0x2116
 15294 01c2 19       		.uleb128 0x19
 15295 01c3 01       		.uleb128 0x1
 15296 01c4 13       		.uleb128 0x13
 15297 01c5 00       		.byte	0
 15298 01c6 00       		.byte	0
 15299 01c7 20       		.uleb128 0x20
 15300 01c8 2E       		.uleb128 0x2e
 15301 01c9 01       		.byte	0x1
 15302 01ca 03       		.uleb128 0x3
 15303 01cb 0E       		.uleb128 0xe
 15304 01cc 3A       		.uleb128 0x3a
 15305 01cd 0B       		.uleb128 0xb
 15306 01ce 3B       		.uleb128 0x3b
 15307 01cf 05       		.uleb128 0x5
 15308 01d0 27       		.uleb128 0x27
 15309 01d1 19       		.uleb128 0x19
 15310 01d2 11       		.uleb128 0x11
 15311 01d3 01       		.uleb128 0x1
 15312 01d4 12       		.uleb128 0x12
 15313 01d5 06       		.uleb128 0x6
 15314 01d6 40       		.uleb128 0x40
 15315 01d7 18       		.uleb128 0x18
 15316 01d8 9642     		.uleb128 0x2116
 15317 01da 19       		.uleb128 0x19
 15318 01db 01       		.uleb128 0x1
ARM GAS  /tmp/ccIWRJEN.s 			page 271


 15319 01dc 13       		.uleb128 0x13
 15320 01dd 00       		.byte	0
 15321 01de 00       		.byte	0
 15322 01df 21       		.uleb128 0x21
 15323 01e0 18       		.uleb128 0x18
 15324 01e1 00       		.byte	0
 15325 01e2 00       		.byte	0
 15326 01e3 00       		.byte	0
 15327 01e4 00       		.byte	0
 15328              		.section	.debug_aranges,"",%progbits
 15329 0000 A4010000 		.4byte	0x1a4
 15330 0004 0200     		.2byte	0x2
 15331 0006 00000000 		.4byte	.Ldebug_info0
 15332 000a 04       		.byte	0x4
 15333 000b 00       		.byte	0
 15334 000c 0000     		.2byte	0
 15335 000e 0000     		.2byte	0
 15336 0010 00000000 		.4byte	.LFB7
 15337 0014 52000000 		.4byte	.LFE7-.LFB7
 15338 0018 00000000 		.4byte	.LFB8
 15339 001c 28000000 		.4byte	.LFE8-.LFB8
 15340 0020 00000000 		.4byte	.LFB9
 15341 0024 44000000 		.4byte	.LFE9-.LFB9
 15342 0028 00000000 		.4byte	.LFB10
 15343 002c 2C000000 		.4byte	.LFE10-.LFB10
 15344 0030 00000000 		.4byte	.LFB11
 15345 0034 C0000000 		.4byte	.LFE11-.LFB11
 15346 0038 00000000 		.4byte	.LFB12
 15347 003c CC000000 		.4byte	.LFE12-.LFB12
 15348 0040 00000000 		.4byte	.LFB13
 15349 0044 32000000 		.4byte	.LFE13-.LFB13
 15350 0048 00000000 		.4byte	.LFB14
 15351 004c 22010000 		.4byte	.LFE14-.LFB14
 15352 0050 00000000 		.4byte	.LFB15
 15353 0054 B0010000 		.4byte	.LFE15-.LFB15
 15354 0058 00000000 		.4byte	.LFB16
 15355 005c F6000000 		.4byte	.LFE16-.LFB16
 15356 0060 00000000 		.4byte	.LFB17
 15357 0064 1E010000 		.4byte	.LFE17-.LFB17
 15358 0068 00000000 		.4byte	.LFB18
 15359 006c 16010000 		.4byte	.LFE18-.LFB18
 15360 0070 00000000 		.4byte	.LFB19
 15361 0074 BA010000 		.4byte	.LFE19-.LFB19
 15362 0078 00000000 		.4byte	.LFB20
 15363 007c CC000000 		.4byte	.LFE20-.LFB20
 15364 0080 00000000 		.4byte	.LFB21
 15365 0084 B2000000 		.4byte	.LFE21-.LFB21
 15366 0088 00000000 		.4byte	.LFB22
 15367 008c D0000000 		.4byte	.LFE22-.LFB22
 15368 0090 00000000 		.4byte	.LFB23
 15369 0094 EA000000 		.4byte	.LFE23-.LFB23
 15370 0098 00000000 		.4byte	.LFB24
 15371 009c 40000000 		.4byte	.LFE24-.LFB24
 15372 00a0 00000000 		.4byte	.LFB25
 15373 00a4 90010000 		.4byte	.LFE25-.LFB25
 15374 00a8 00000000 		.4byte	.LFB26
 15375 00ac 68010000 		.4byte	.LFE26-.LFB26
ARM GAS  /tmp/ccIWRJEN.s 			page 272


 15376 00b0 00000000 		.4byte	.LFB27
 15377 00b4 B6020000 		.4byte	.LFE27-.LFB27
 15378 00b8 00000000 		.4byte	.LFB28
 15379 00bc A8000000 		.4byte	.LFE28-.LFB28
 15380 00c0 00000000 		.4byte	.LFB29
 15381 00c4 AE030000 		.4byte	.LFE29-.LFB29
 15382 00c8 00000000 		.4byte	.LFB30
 15383 00cc C0010000 		.4byte	.LFE30-.LFB30
 15384 00d0 00000000 		.4byte	.LFB31
 15385 00d4 E6000000 		.4byte	.LFE31-.LFB31
 15386 00d8 00000000 		.4byte	.LFB32
 15387 00dc 78000000 		.4byte	.LFE32-.LFB32
 15388 00e0 00000000 		.4byte	.LFB33
 15389 00e4 14040000 		.4byte	.LFE33-.LFB33
 15390 00e8 00000000 		.4byte	.LFB34
 15391 00ec 4C000000 		.4byte	.LFE34-.LFB34
 15392 00f0 00000000 		.4byte	.LFB35
 15393 00f4 5A000000 		.4byte	.LFE35-.LFB35
 15394 00f8 00000000 		.4byte	.LFB36
 15395 00fc 4E020000 		.4byte	.LFE36-.LFB36
 15396 0100 00000000 		.4byte	.LFB37
 15397 0104 C6020000 		.4byte	.LFE37-.LFB37
 15398 0108 00000000 		.4byte	.LFB38
 15399 010c 24030000 		.4byte	.LFE38-.LFB38
 15400 0110 00000000 		.4byte	.LFB39
 15401 0114 0A010000 		.4byte	.LFE39-.LFB39
 15402 0118 00000000 		.4byte	.LFB40
 15403 011c 2C000000 		.4byte	.LFE40-.LFB40
 15404 0120 00000000 		.4byte	.LFB41
 15405 0124 B8020000 		.4byte	.LFE41-.LFB41
 15406 0128 00000000 		.4byte	.LFB42
 15407 012c D4000000 		.4byte	.LFE42-.LFB42
 15408 0130 00000000 		.4byte	.LFB43
 15409 0134 C0000000 		.4byte	.LFE43-.LFB43
 15410 0138 00000000 		.4byte	.LFB44
 15411 013c 84000000 		.4byte	.LFE44-.LFB44
 15412 0140 00000000 		.4byte	.LFB45
 15413 0144 72010000 		.4byte	.LFE45-.LFB45
 15414 0148 00000000 		.4byte	.LFB46
 15415 014c 36010000 		.4byte	.LFE46-.LFB46
 15416 0150 00000000 		.4byte	.LFB47
 15417 0154 66010000 		.4byte	.LFE47-.LFB47
 15418 0158 00000000 		.4byte	.LFB48
 15419 015c 2E020000 		.4byte	.LFE48-.LFB48
 15420 0160 00000000 		.4byte	.LFB49
 15421 0164 D0000000 		.4byte	.LFE49-.LFB49
 15422 0168 00000000 		.4byte	.LFB50
 15423 016c A6000000 		.4byte	.LFE50-.LFB50
 15424 0170 00000000 		.4byte	.LFB51
 15425 0174 D6010000 		.4byte	.LFE51-.LFB51
 15426 0178 00000000 		.4byte	.LFB52
 15427 017c D0060000 		.4byte	.LFE52-.LFB52
 15428 0180 00000000 		.4byte	.LFB53
 15429 0184 72000000 		.4byte	.LFE53-.LFB53
 15430 0188 00000000 		.4byte	.LFB54
 15431 018c 3E000000 		.4byte	.LFE54-.LFB54
 15432 0190 00000000 		.4byte	.LFB55
ARM GAS  /tmp/ccIWRJEN.s 			page 273


 15433 0194 46000000 		.4byte	.LFE55-.LFB55
 15434 0198 00000000 		.4byte	.LFB56
 15435 019c 12040000 		.4byte	.LFE56-.LFB56
 15436 01a0 00000000 		.4byte	0
 15437 01a4 00000000 		.4byte	0
 15438              		.section	.debug_ranges,"",%progbits
 15439              	.Ldebug_ranges0:
 15440 0000 00000000 		.4byte	.LFB7
 15441 0004 52000000 		.4byte	.LFE7
 15442 0008 00000000 		.4byte	.LFB8
 15443 000c 28000000 		.4byte	.LFE8
 15444 0010 00000000 		.4byte	.LFB9
 15445 0014 44000000 		.4byte	.LFE9
 15446 0018 00000000 		.4byte	.LFB10
 15447 001c 2C000000 		.4byte	.LFE10
 15448 0020 00000000 		.4byte	.LFB11
 15449 0024 C0000000 		.4byte	.LFE11
 15450 0028 00000000 		.4byte	.LFB12
 15451 002c CC000000 		.4byte	.LFE12
 15452 0030 00000000 		.4byte	.LFB13
 15453 0034 32000000 		.4byte	.LFE13
 15454 0038 00000000 		.4byte	.LFB14
 15455 003c 22010000 		.4byte	.LFE14
 15456 0040 00000000 		.4byte	.LFB15
 15457 0044 B0010000 		.4byte	.LFE15
 15458 0048 00000000 		.4byte	.LFB16
 15459 004c F6000000 		.4byte	.LFE16
 15460 0050 00000000 		.4byte	.LFB17
 15461 0054 1E010000 		.4byte	.LFE17
 15462 0058 00000000 		.4byte	.LFB18
 15463 005c 16010000 		.4byte	.LFE18
 15464 0060 00000000 		.4byte	.LFB19
 15465 0064 BA010000 		.4byte	.LFE19
 15466 0068 00000000 		.4byte	.LFB20
 15467 006c CC000000 		.4byte	.LFE20
 15468 0070 00000000 		.4byte	.LFB21
 15469 0074 B2000000 		.4byte	.LFE21
 15470 0078 00000000 		.4byte	.LFB22
 15471 007c D0000000 		.4byte	.LFE22
 15472 0080 00000000 		.4byte	.LFB23
 15473 0084 EA000000 		.4byte	.LFE23
 15474 0088 00000000 		.4byte	.LFB24
 15475 008c 40000000 		.4byte	.LFE24
 15476 0090 00000000 		.4byte	.LFB25
 15477 0094 90010000 		.4byte	.LFE25
 15478 0098 00000000 		.4byte	.LFB26
 15479 009c 68010000 		.4byte	.LFE26
 15480 00a0 00000000 		.4byte	.LFB27
 15481 00a4 B6020000 		.4byte	.LFE27
 15482 00a8 00000000 		.4byte	.LFB28
 15483 00ac A8000000 		.4byte	.LFE28
 15484 00b0 00000000 		.4byte	.LFB29
 15485 00b4 AE030000 		.4byte	.LFE29
 15486 00b8 00000000 		.4byte	.LFB30
 15487 00bc C0010000 		.4byte	.LFE30
 15488 00c0 00000000 		.4byte	.LFB31
 15489 00c4 E6000000 		.4byte	.LFE31
ARM GAS  /tmp/ccIWRJEN.s 			page 274


 15490 00c8 00000000 		.4byte	.LFB32
 15491 00cc 78000000 		.4byte	.LFE32
 15492 00d0 00000000 		.4byte	.LFB33
 15493 00d4 14040000 		.4byte	.LFE33
 15494 00d8 00000000 		.4byte	.LFB34
 15495 00dc 4C000000 		.4byte	.LFE34
 15496 00e0 00000000 		.4byte	.LFB35
 15497 00e4 5A000000 		.4byte	.LFE35
 15498 00e8 00000000 		.4byte	.LFB36
 15499 00ec 4E020000 		.4byte	.LFE36
 15500 00f0 00000000 		.4byte	.LFB37
 15501 00f4 C6020000 		.4byte	.LFE37
 15502 00f8 00000000 		.4byte	.LFB38
 15503 00fc 24030000 		.4byte	.LFE38
 15504 0100 00000000 		.4byte	.LFB39
 15505 0104 0A010000 		.4byte	.LFE39
 15506 0108 00000000 		.4byte	.LFB40
 15507 010c 2C000000 		.4byte	.LFE40
 15508 0110 00000000 		.4byte	.LFB41
 15509 0114 B8020000 		.4byte	.LFE41
 15510 0118 00000000 		.4byte	.LFB42
 15511 011c D4000000 		.4byte	.LFE42
 15512 0120 00000000 		.4byte	.LFB43
 15513 0124 C0000000 		.4byte	.LFE43
 15514 0128 00000000 		.4byte	.LFB44
 15515 012c 84000000 		.4byte	.LFE44
 15516 0130 00000000 		.4byte	.LFB45
 15517 0134 72010000 		.4byte	.LFE45
 15518 0138 00000000 		.4byte	.LFB46
 15519 013c 36010000 		.4byte	.LFE46
 15520 0140 00000000 		.4byte	.LFB47
 15521 0144 66010000 		.4byte	.LFE47
 15522 0148 00000000 		.4byte	.LFB48
 15523 014c 2E020000 		.4byte	.LFE48
 15524 0150 00000000 		.4byte	.LFB49
 15525 0154 D0000000 		.4byte	.LFE49
 15526 0158 00000000 		.4byte	.LFB50
 15527 015c A6000000 		.4byte	.LFE50
 15528 0160 00000000 		.4byte	.LFB51
 15529 0164 D6010000 		.4byte	.LFE51
 15530 0168 00000000 		.4byte	.LFB52
 15531 016c D0060000 		.4byte	.LFE52
 15532 0170 00000000 		.4byte	.LFB53
 15533 0174 72000000 		.4byte	.LFE53
 15534 0178 00000000 		.4byte	.LFB54
 15535 017c 3E000000 		.4byte	.LFE54
 15536 0180 00000000 		.4byte	.LFB55
 15537 0184 46000000 		.4byte	.LFE55
 15538 0188 00000000 		.4byte	.LFB56
 15539 018c 12040000 		.4byte	.LFE56
 15540 0190 00000000 		.4byte	0
 15541 0194 00000000 		.4byte	0
 15542              		.section	.debug_line,"",%progbits
 15543              	.Ldebug_line0:
 15544 0000 50130000 		.section	.debug_str,"MS",%progbits,1
 15544      02009400 
 15544      00000201 
ARM GAS  /tmp/ccIWRJEN.s 			page 275


 15544      FB0E0D00 
 15544      01010101 
 15545              	.LASF105:
 15546 0000 6469725F 		.ascii	"dir_find\000"
 15546      66696E64 
 15546      00
 15547              	.LASF82:
 15548 0009 6D656D5F 		.ascii	"mem_cpy\000"
 15548      63707900 
 15549              	.LASF94:
 15550 0011 72656D6F 		.ascii	"remove_chain\000"
 15550      76655F63 
 15550      6861696E 
 15550      00
 15551              	.LASF144:
 15552 001e 665F7265 		.ascii	"f_readdir\000"
 15552      61646469 
 15552      7200
 15553              	.LASF90:
 15554 0028 636C7374 		.ascii	"clst\000"
 15554      00
 15555              	.LASF93:
 15556 002d 7075745F 		.ascii	"put_fat\000"
 15556      66617400 
 15557              	.LASF42:
 15558 0035 6469725F 		.ascii	"dir_ptr\000"
 15558      70747200 
 15559              	.LASF56:
 15560 003d 46525F4E 		.ascii	"FR_NOT_READY\000"
 15560      4F545F52 
 15560      45414459 
 15560      00
 15561              	.LASF34:
 15562 004a 46415446 		.ascii	"FATFS\000"
 15562      5300
 15563              	.LASF155:
 15564 0050 665F7574 		.ascii	"f_utime\000"
 15564      696D6500 
 15565              	.LASF0:
 15566 0058 756E7369 		.ascii	"unsigned int\000"
 15566      676E6564 
 15566      20696E74 
 15566      00
 15567              	.LASF64:
 15568 0065 46525F49 		.ascii	"FR_INVALID_DRIVE\000"
 15568      4E56414C 
 15568      49445F44 
 15568      52495645 
 15568      00
 15569              	.LASF21:
 15570 0076 6E5F6661 		.ascii	"n_fats\000"
 15570      747300
 15571              	.LASF170:
 15572 007d 6E5F6469 		.ascii	"n_dir\000"
 15572      7200
 15573              	.LASF179:
 15574 0083 2E2E2F2E 		.ascii	"../..//ext/fatfs/src/ff.c\000"
ARM GAS  /tmp/ccIWRJEN.s 			page 276


 15574      2E2F2F65 
 15574      78742F66 
 15574      61746673 
 15574      2F737263 
 15575              	.LASF137:
 15576 009d 77627566 		.ascii	"wbuff\000"
 15576      6600
 15577              	.LASF67:
 15578 00a3 46525F4D 		.ascii	"FR_MKFS_ABORTED\000"
 15578      4B46535F 
 15578      41424F52 
 15578      54454400 
 15579              	.LASF40:
 15580 00b3 64736563 		.ascii	"dsect\000"
 15580      7400
 15581              	.LASF33:
 15582 00b9 77696E73 		.ascii	"winsect\000"
 15582      65637400 
 15583              	.LASF180:
 15584 00c1 2F686F6D 		.ascii	"/home/ece497/vbox-shared/mplayer/ChibiOS-RT-stable_"
 15584      652F6563 
 15584      65343937 
 15584      2F76626F 
 15584      782D7368 
 15585 00f4 322E362E 		.ascii	"2.6.x/demos/SDCARD\000"
 15585      782F6465 
 15585      6D6F732F 
 15585      53444341 
 15585      524400
 15586              	.LASF116:
 15587 0107 63686B5F 		.ascii	"chk_wp\000"
 15587      777000
 15588              	.LASF100:
 15589 010e 636D705F 		.ascii	"cmp_lfn\000"
 15589      6C666E00 
 15590              	.LASF128:
 15591 0116 6D6F6465 		.ascii	"mode\000"
 15591      00
 15592              	.LASF166:
 15593 011b 625F6461 		.ascii	"b_data\000"
 15593      746100
 15594              	.LASF91:
 15595 0122 636C7573 		.ascii	"clust2sect\000"
 15595      74327365 
 15595      637400
 15596              	.LASF71:
 15597 012d 46525F54 		.ascii	"FR_TOO_MANY_OPEN_FILES\000"
 15597      4F4F5F4D 
 15597      414E595F 
 15597      4F50454E 
 15597      5F46494C 
 15598              	.LASF148:
 15599 0144 665F7472 		.ascii	"f_truncate\000"
 15599      756E6361 
 15599      746500
 15600              	.LASF46:
 15601 014f 66646174 		.ascii	"fdate\000"
ARM GAS  /tmp/ccIWRJEN.s 			page 277


 15601      6500
 15602              	.LASF147:
 15603 0155 66617466 		.ascii	"fatfs\000"
 15603      7300
 15604              	.LASF8:
 15605 015b 57434841 		.ascii	"WCHAR\000"
 15605      5200
 15606              	.LASF23:
 15607 0161 6673695F 		.ascii	"fsi_flag\000"
 15607      666C6167 
 15607      00
 15608              	.LASF41:
 15609 016a 6469725F 		.ascii	"dir_sect\000"
 15609      73656374 
 15609      00
 15610              	.LASF45:
 15611 0173 6C666E5F 		.ascii	"lfn_idx\000"
 15611      69647800 
 15612              	.LASF47:
 15613 017b 6674696D 		.ascii	"ftime\000"
 15613      6500
 15614              	.LASF122:
 15615 0181 6E636C73 		.ascii	"nclst\000"
 15615      7400
 15616              	.LASF43:
 15617 0187 696E6465 		.ascii	"index\000"
 15617      7800
 15618              	.LASF12:
 15619 018d 44574F52 		.ascii	"DWORD\000"
 15619      4400
 15620              	.LASF18:
 15621 0193 54434841 		.ascii	"TCHAR\000"
 15621      5200
 15622              	.LASF157:
 15623 0199 70617468 		.ascii	"path_old\000"
 15623      5F6F6C64 
 15623      00
 15624              	.LASF15:
 15625 01a2 6C6F6E67 		.ascii	"long long unsigned int\000"
 15625      206C6F6E 
 15625      6720756E 
 15625      7369676E 
 15625      65642069 
 15626              	.LASF88:
 15627 01b9 77736563 		.ascii	"wsect\000"
 15627      7400
 15628              	.LASF55:
 15629 01bf 46525F49 		.ascii	"FR_INT_ERR\000"
 15629      4E545F45 
 15629      525200
 15630              	.LASF161:
 15631 01ca 70617274 		.ascii	"part\000"
 15631      00
 15632              	.LASF36:
 15633 01cf 70616431 		.ascii	"pad1\000"
 15633      00
 15634              	.LASF159:
ARM GAS  /tmp/ccIWRJEN.s 			page 278


 15635 01d4 665F6D6B 		.ascii	"f_mkfs\000"
 15635      667300
 15636              	.LASF149:
 15637 01db 665F756E 		.ascii	"f_unlink\000"
 15637      6C696E6B 
 15637      00
 15638              	.LASF165:
 15639 01e4 625F6469 		.ascii	"b_dir\000"
 15639      7200
 15640              	.LASF19:
 15641 01ea 66735F74 		.ascii	"fs_type\000"
 15641      79706500 
 15642              	.LASF30:
 15643 01f2 66617462 		.ascii	"fatbase\000"
 15643      61736500 
 15644              	.LASF151:
 15645 01fa 665F6D6B 		.ascii	"f_mkdir\000"
 15645      64697200 
 15646              	.LASF153:
 15647 0202 76616C75 		.ascii	"value\000"
 15647      6500
 15648              	.LASF117:
 15649 0208 73746174 		.ascii	"stat\000"
 15649      00
 15650              	.LASF168:
 15651 020d 6E5F7273 		.ascii	"n_rsv\000"
 15651      7600
 15652              	.LASF130:
 15653 0213 62756666 		.ascii	"buff\000"
 15653      00
 15654              	.LASF114:
 15655 0218 63686563 		.ascii	"check_fs\000"
 15655      6B5F6673 
 15655      00
 15656              	.LASF80:
 15657 0221 5F5F676E 		.ascii	"__gnuc_va_list\000"
 15657      75635F76 
 15657      615F6C69 
 15657      737400
 15658              	.LASF61:
 15659 0230 46525F45 		.ascii	"FR_EXIST\000"
 15659      58495354 
 15659      00
 15660              	.LASF127:
 15661 0239 665F6F70 		.ascii	"f_open\000"
 15661      656E00
 15662              	.LASF62:
 15663 0240 46525F49 		.ascii	"FR_INVALID_OBJECT\000"
 15663      4E56414C 
 15663      49445F4F 
 15663      424A4543 
 15663      5400
 15664              	.LASF16:
 15665 0252 5F426F6F 		.ascii	"_Bool\000"
 15665      6C00
 15666              	.LASF85:
 15667 0258 63686B5F 		.ascii	"chk_chr\000"
ARM GAS  /tmp/ccIWRJEN.s 			page 279


 15667      63687200 
 15668              	.LASF171:
 15669 0260 665F6765 		.ascii	"f_gets\000"
 15669      747300
 15670              	.LASF113:
 15671 0267 666F6C6C 		.ascii	"follow_path\000"
 15671      6F775F70 
 15671      61746800 
 15672              	.LASF142:
 15673 0273 69667074 		.ascii	"ifptr\000"
 15673      7200
 15674              	.LASF169:
 15675 0279 6E5F6661 		.ascii	"n_fat\000"
 15675      7400
 15676              	.LASF69:
 15677 027f 46525F4C 		.ascii	"FR_LOCKED\000"
 15677      4F434B45 
 15677      4400
 15678              	.LASF139:
 15679 0289 665F636C 		.ascii	"f_close\000"
 15679      6F736500 
 15680              	.LASF110:
 15681 0291 70617468 		.ascii	"path\000"
 15681      00
 15682              	.LASF112:
 15683 0296 6765745F 		.ascii	"get_fileinfo\000"
 15683      66696C65 
 15683      696E666F 
 15683      00
 15684              	.LASF92:
 15685 02a3 6765745F 		.ascii	"get_fat\000"
 15685      66617400 
 15686              	.LASF140:
 15687 02ab 665F6C73 		.ascii	"f_lseek\000"
 15687      65656B00 
 15688              	.LASF183:
 15689 02b3 67656E5F 		.ascii	"gen_numname\000"
 15689      6E756D6E 
 15689      616D6500 
 15690              	.LASF158:
 15691 02bf 70617468 		.ascii	"path_new\000"
 15691      5F6E6577 
 15691      00
 15692              	.LASF1:
 15693 02c8 63686172 		.ascii	"char\000"
 15693      00
 15694              	.LASF51:
 15695 02cd 6C667369 		.ascii	"lfsize\000"
 15695      7A6500
 15696              	.LASF143:
 15697 02d4 665F6F70 		.ascii	"f_opendir\000"
 15697      656E6469 
 15697      7200
 15698              	.LASF129:
 15699 02de 665F7265 		.ascii	"f_read\000"
 15699      616400
 15700              	.LASF174:
ARM GAS  /tmp/ccIWRJEN.s 			page 280


 15701 02e5 665F7072 		.ascii	"f_printf\000"
 15701      696E7466 
 15701      00
 15702              	.LASF120:
 15703 02ee 74736563 		.ascii	"tsect\000"
 15703      7400
 15704              	.LASF160:
 15705 02f4 70647276 		.ascii	"pdrv\000"
 15705      00
 15706              	.LASF87:
 15707 02f9 73656374 		.ascii	"sector\000"
 15707      6F7200
 15708              	.LASF76:
 15709 0300 5245535F 		.ascii	"RES_ERROR\000"
 15709      4552524F 
 15709      5200
 15710              	.LASF89:
 15711 030a 73796E63 		.ascii	"sync\000"
 15711      00
 15712              	.LASF98:
 15713 030f 6469725F 		.ascii	"dir_next\000"
 15713      6E657874 
 15713      00
 15714              	.LASF133:
 15715 0318 63736563 		.ascii	"csect\000"
 15715      7400
 15716              	.LASF25:
 15717 031e 6C617374 		.ascii	"last_clust\000"
 15717      5F636C75 
 15717      737400
 15718              	.LASF27:
 15719 0329 6673695F 		.ascii	"fsi_sector\000"
 15719      73656374 
 15719      6F7200
 15720              	.LASF44:
 15721 0334 73656374 		.ascii	"sect\000"
 15721      00
 15722              	.LASF26:
 15723 0339 66726565 		.ascii	"free_clust\000"
 15723      5F636C75 
 15723      737400
 15724              	.LASF81:
 15725 0344 76615F6C 		.ascii	"va_list\000"
 15725      69737400 
 15726              	.LASF106:
 15727 034c 6469725F 		.ascii	"dir_read\000"
 15727      72656164 
 15727      00
 15728              	.LASF66:
 15729 0355 46525F4E 		.ascii	"FR_NO_FILESYSTEM\000"
 15729      4F5F4649 
 15729      4C455359 
 15729      5354454D 
 15729      00
 15730              	.LASF14:
 15731 0366 6C6F6E67 		.ascii	"long long int\000"
 15731      206C6F6E 
ARM GAS  /tmp/ccIWRJEN.s 			page 281


 15731      6720696E 
 15731      7400
 15732              	.LASF29:
 15733 0374 6673697A 		.ascii	"fsize\000"
 15733      6500
 15734              	.LASF50:
 15735 037a 6C666E61 		.ascii	"lfname\000"
 15735      6D6500
 15736              	.LASF156:
 15737 0381 665F7265 		.ascii	"f_rename\000"
 15737      6E616D65 
 15737      00
 15738              	.LASF72:
 15739 038a 46525F49 		.ascii	"FR_INVALID_PARAMETER\000"
 15739      4E56414C 
 15739      49445F50 
 15739      4152414D 
 15739      45544552 
 15740              	.LASF22:
 15741 039f 77666C61 		.ascii	"wflag\000"
 15741      6700
 15742              	.LASF57:
 15743 03a5 46525F4E 		.ascii	"FR_NO_FILE\000"
 15743      4F5F4649 
 15743      4C4500
 15744              	.LASF4:
 15745 03b0 42595445 		.ascii	"BYTE\000"
 15745      00
 15746              	.LASF182:
 15747 03b5 5F5F6170 		.ascii	"__ap\000"
 15747      00
 15748              	.LASF119:
 15749 03ba 66617369 		.ascii	"fasize\000"
 15749      7A6500
 15750              	.LASF177:
 15751 03c1 4C666E4F 		.ascii	"LfnOfs\000"
 15751      667300
 15752              	.LASF7:
 15753 03c8 574F5244 		.ascii	"WORD\000"
 15753      00
 15754              	.LASF20:
 15755 03cd 6373697A 		.ascii	"csize\000"
 15755      6500
 15756              	.LASF123:
 15757 03d3 737A6266 		.ascii	"szbfat\000"
 15757      617400
 15758              	.LASF176:
 15759 03da 46736964 		.ascii	"Fsid\000"
 15759      00
 15760              	.LASF79:
 15761 03df 5245535F 		.ascii	"RES_PARERR\000"
 15761      50415245 
 15761      525200
 15762              	.LASF37:
 15763 03ea 66707472 		.ascii	"fptr\000"
 15763      00
 15764              	.LASF154:
ARM GAS  /tmp/ccIWRJEN.s 			page 282


 15765 03ef 6D61736B 		.ascii	"mask\000"
 15765      00
 15766              	.LASF28:
 15767 03f4 6E5F6661 		.ascii	"n_fatent\000"
 15767      74656E74 
 15767      00
 15768              	.LASF77:
 15769 03fd 5245535F 		.ascii	"RES_WRPRT\000"
 15769      57525052 
 15769      5400
 15770              	.LASF31:
 15771 0407 64697262 		.ascii	"dirbase\000"
 15771      61736500 
 15772              	.LASF49:
 15773 040f 666E616D 		.ascii	"fname\000"
 15773      6500
 15774              	.LASF135:
 15775 0415 665F7772 		.ascii	"f_write\000"
 15775      69746500 
 15776              	.LASF60:
 15777 041d 46525F44 		.ascii	"FR_DENIED\000"
 15777      454E4945 
 15777      4400
 15778              	.LASF167:
 15779 0427 6E5F766F 		.ascii	"n_vol\000"
 15779      6C00
 15780              	.LASF175:
 15781 042d 46617446 		.ascii	"FatFs\000"
 15781      7300
 15782              	.LASF83:
 15783 0433 6D656D5F 		.ascii	"mem_set\000"
 15783      73657400 
 15784              	.LASF141:
 15785 043b 6E736563 		.ascii	"nsect\000"
 15785      7400
 15786              	.LASF131:
 15787 0441 72656D61 		.ascii	"remain\000"
 15787      696E00
 15788              	.LASF162:
 15789 0448 6E5F636C 		.ascii	"n_clst\000"
 15789      737400
 15790              	.LASF58:
 15791 044f 46525F4E 		.ascii	"FR_NO_PATH\000"
 15791      4F5F5041 
 15791      544800
 15792              	.LASF101:
 15793 045a 6C666E62 		.ascii	"lfnbuf\000"
 15793      756600
 15794              	.LASF104:
 15795 0461 73756D5F 		.ascii	"sum_sfn\000"
 15795      73666E00 
 15796              	.LASF65:
 15797 0469 46525F4E 		.ascii	"FR_NOT_ENABLED\000"
 15797      4F545F45 
 15797      4E41424C 
 15797      454400
 15798              	.LASF54:
ARM GAS  /tmp/ccIWRJEN.s 			page 283


 15799 0478 46525F44 		.ascii	"FR_DISK_ERR\000"
 15799      49534B5F 
 15799      45525200 
 15800              	.LASF95:
 15801 0484 72657369 		.ascii	"resion\000"
 15801      6F6E00
 15802              	.LASF5:
 15803 048b 73686F72 		.ascii	"short int\000"
 15803      7420696E 
 15803      7400
 15804              	.LASF126:
 15805 0495 665F6D6F 		.ascii	"f_mount\000"
 15805      756E7400 
 15806              	.LASF111:
 15807 049d 65786376 		.ascii	"excvt\000"
 15807      7400
 15808              	.LASF70:
 15809 04a3 46525F4E 		.ascii	"FR_NOT_ENOUGH_CORE\000"
 15809      4F545F45 
 15809      4E4F5547 
 15809      485F434F 
 15809      524500
 15810              	.LASF9:
 15811 04b6 6C6F6E67 		.ascii	"long int\000"
 15811      20696E74 
 15811      00
 15812              	.LASF10:
 15813 04bf 554C4F4E 		.ascii	"ULONG\000"
 15813      4700
 15814              	.LASF86:
 15815 04c5 6D6F7665 		.ascii	"move_window\000"
 15815      5F77696E 
 15815      646F7700 
 15816              	.LASF150:
 15817 04d1 64636C73 		.ascii	"dclst\000"
 15817      7400
 15818              	.LASF136:
 15819 04d7 77636E74 		.ascii	"wcnt\000"
 15819      00
 15820              	.LASF59:
 15821 04dc 46525F49 		.ascii	"FR_INVALID_NAME\000"
 15821      4E56414C 
 15821      49445F4E 
 15821      414D4500 
 15822              	.LASF35:
 15823 04ec 666C6167 		.ascii	"flag\000"
 15823      00
 15824              	.LASF178:
 15825 04f1 474E5520 		.ascii	"GNU C 4.8.2 -mcpu=cortex-m4 -mno-thumb-interwork -m"
 15825      4320342E 
 15825      382E3220 
 15825      2D6D6370 
 15825      753D636F 
 15826 0524 7468756D 		.ascii	"thumb -ggdb -O0 -fomit-frame-pointer -falign-functi"
 15826      62202D67 
 15826      67646220 
 15826      2D4F3020 
ARM GAS  /tmp/ccIWRJEN.s 			page 284


 15826      2D666F6D 
 15827 0557 6F6E733D 		.ascii	"ons=16 -ffunction-sections -fdata-sections -fno-com"
 15827      3136202D 
 15827      6666756E 
 15827      6374696F 
 15827      6E2D7365 
 15828 058a 6D6F6E00 		.ascii	"mon\000"
 15829              	.LASF146:
 15830 058e 665F6765 		.ascii	"f_getfree\000"
 15830      74667265 
 15830      6500
 15831              	.LASF24:
 15832 0598 6E5F726F 		.ascii	"n_rootdir\000"
 15832      6F746469 
 15832      7200
 15833              	.LASF48:
 15834 05a2 66617474 		.ascii	"fattrib\000"
 15834      72696200 
 15835              	.LASF3:
 15836 05aa 55494E54 		.ascii	"UINT\000"
 15836      00
 15837              	.LASF109:
 15838 05af 63726561 		.ascii	"create_name\000"
 15838      74655F6E 
 15838      616D6500 
 15839              	.LASF181:
 15840 05bb 5F5F7661 		.ascii	"__va_list\000"
 15840      5F6C6973 
 15840      7400
 15841              	.LASF17:
 15842 05c5 73697A65 		.ascii	"sizetype\000"
 15842      74797065 
 15842      00
 15843              	.LASF11:
 15844 05ce 6C6F6E67 		.ascii	"long unsigned int\000"
 15844      20756E73 
 15844      69676E65 
 15844      6420696E 
 15844      7400
 15845              	.LASF138:
 15846 05e0 665F7379 		.ascii	"f_sync\000"
 15846      6E6300
 15847              	.LASF73:
 15848 05e7 46524553 		.ascii	"FRESULT\000"
 15848      554C5400 
 15849              	.LASF163:
 15850 05ef 625F766F 		.ascii	"b_vol\000"
 15850      6C00
 15851              	.LASF134:
 15852 05f5 72627566 		.ascii	"rbuff\000"
 15852      6600
 15853              	.LASF84:
 15854 05fb 6D656D5F 		.ascii	"mem_cmp\000"
 15854      636D7000 
 15855              	.LASF102:
 15856 0603 7069636B 		.ascii	"pick_lfn\000"
 15856      5F6C666E 
ARM GAS  /tmp/ccIWRJEN.s 			page 285


 15856      00
 15857              	.LASF53:
 15858 060c 46525F4F 		.ascii	"FR_OK\000"
 15858      4B00
 15859              	.LASF118:
 15860 0612 62736563 		.ascii	"bsect\000"
 15860      7400
 15861              	.LASF96:
 15862 0618 63726561 		.ascii	"create_chain\000"
 15862      74655F63 
 15862      6861696E 
 15862      00
 15863              	.LASF39:
 15864 0625 636C7573 		.ascii	"clust\000"
 15864      7400
 15865              	.LASF132:
 15866 062b 72636E74 		.ascii	"rcnt\000"
 15866      00
 15867              	.LASF2:
 15868 0630 756E7369 		.ascii	"unsigned char\000"
 15868      676E6564 
 15868      20636861 
 15868      7200
 15869              	.LASF97:
 15870 063e 6469725F 		.ascii	"dir_sdi\000"
 15870      73646900 
 15871              	.LASF172:
 15872 0646 665F7075 		.ascii	"f_putc\000"
 15872      746300
 15873              	.LASF68:
 15874 064d 46525F54 		.ascii	"FR_TIMEOUT\000"
 15874      494D454F 
 15874      555400
 15875              	.LASF74:
 15876 0658 44535441 		.ascii	"DSTATUS\000"
 15876      54555300 
 15877              	.LASF173:
 15878 0660 665F7075 		.ascii	"f_puts\000"
 15878      747300
 15879              	.LASF75:
 15880 0667 5245535F 		.ascii	"RES_OK\000"
 15880      4F4B00
 15881              	.LASF107:
 15882 066e 6469725F 		.ascii	"dir_register\000"
 15882      72656769 
 15882      73746572 
 15882      00
 15883              	.LASF78:
 15884 067b 5245535F 		.ascii	"RES_NOTRDY\000"
 15884      4E4F5452 
 15884      445900
 15885              	.LASF164:
 15886 0686 625F6661 		.ascii	"b_fat\000"
 15886      7400
 15887              	.LASF124:
 15888 068c 6E727376 		.ascii	"nrsv\000"
 15888      00
ARM GAS  /tmp/ccIWRJEN.s 			page 286


 15889              	.LASF13:
 15890 0691 7369676E 		.ascii	"signed char\000"
 15890      65642063 
 15890      68617200 
 15891              	.LASF6:
 15892 069d 73686F72 		.ascii	"short unsigned int\000"
 15892      7420756E 
 15892      7369676E 
 15892      65642069 
 15892      6E7400
 15893              	.LASF32:
 15894 06b0 64617461 		.ascii	"database\000"
 15894      62617365 
 15894      00
 15895              	.LASF115:
 15896 06b9 63686B5F 		.ascii	"chk_mounted\000"
 15896      6D6F756E 
 15896      74656400 
 15897              	.LASF99:
 15898 06c5 73747265 		.ascii	"stretch\000"
 15898      74636800 
 15899              	.LASF108:
 15900 06cd 6469725F 		.ascii	"dir_remove\000"
 15900      72656D6F 
 15900      766500
 15901              	.LASF121:
 15902 06d8 73797365 		.ascii	"sysect\000"
 15902      637400
 15903              	.LASF103:
 15904 06df 6669745F 		.ascii	"fit_lfn\000"
 15904      6C666E00 
 15905              	.LASF145:
 15906 06e7 665F7374 		.ascii	"f_stat\000"
 15906      617400
 15907              	.LASF63:
 15908 06ee 46525F57 		.ascii	"FR_WRITE_PROTECTED\000"
 15908      52495445 
 15908      5F50524F 
 15908      54454354 
 15908      454400
 15909              	.LASF52:
 15910 0701 46494C49 		.ascii	"FILINFO\000"
 15910      4E464F00 
 15911              	.LASF38:
 15912 0709 73636C75 		.ascii	"sclust\000"
 15912      737400
 15913              	.LASF125:
 15914 0710 76616C69 		.ascii	"validate\000"
 15914      64617465 
 15914      00
 15915              	.LASF152:
 15916 0719 665F6368 		.ascii	"f_chmod\000"
 15916      6D6F6400 
 15917              		.ident	"GCC: (Arch Repository) 4.8.2"
ARM GAS  /tmp/ccIWRJEN.s 			page 287


DEFINED SYMBOLS
                            *ABS*:0000000000000000 ff.c
     /tmp/ccIWRJEN.s:19     .bss.FatFs:0000000000000000 $d
     /tmp/ccIWRJEN.s:22     .bss.FatFs:0000000000000000 FatFs
     /tmp/ccIWRJEN.s:25     .bss.Fsid:0000000000000000 $d
     /tmp/ccIWRJEN.s:28     .bss.Fsid:0000000000000000 Fsid
     /tmp/ccIWRJEN.s:31     .text.mem_cpy:0000000000000000 $t
     /tmp/ccIWRJEN.s:36     .text.mem_cpy:0000000000000000 mem_cpy
     /tmp/ccIWRJEN.s:106    .text.mem_set:0000000000000000 $t
     /tmp/ccIWRJEN.s:111    .text.mem_set:0000000000000000 mem_set
     /tmp/ccIWRJEN.s:151    .text.mem_cmp:0000000000000000 $t
     /tmp/ccIWRJEN.s:156    .text.mem_cmp:0000000000000000 mem_cmp
     /tmp/ccIWRJEN.s:212    .text.chk_chr:0000000000000000 $t
     /tmp/ccIWRJEN.s:217    .text.chk_chr:0000000000000000 chk_chr
     /tmp/ccIWRJEN.s:260    .text.move_window:0000000000000000 $t
     /tmp/ccIWRJEN.s:265    .text.move_window:0000000000000000 move_window
     /tmp/ccIWRJEN.s:394    .text.sync:0000000000000000 $t
     /tmp/ccIWRJEN.s:399    .text.sync:0000000000000000 sync
     /tmp/ccIWRJEN.s:513    .text.clust2sect:0000000000000000 $t
     /tmp/ccIWRJEN.s:519    .text.clust2sect:0000000000000000 clust2sect
     /tmp/ccIWRJEN.s:563    .text.get_fat:0000000000000000 $t
     /tmp/ccIWRJEN.s:569    .text.get_fat:0000000000000000 get_fat
     /tmp/ccIWRJEN.s:750    .text.put_fat:0000000000000000 $t
     /tmp/ccIWRJEN.s:756    .text.put_fat:0000000000000000 put_fat
     /tmp/ccIWRJEN.s:1014   .text.remove_chain:0000000000000000 $t
     /tmp/ccIWRJEN.s:1019   .text.remove_chain:0000000000000000 remove_chain
     /tmp/ccIWRJEN.s:1182   .text.create_chain:0000000000000000 $t
     /tmp/ccIWRJEN.s:1187   .text.create_chain:0000000000000000 create_chain
     /tmp/ccIWRJEN.s:1389   .text.dir_sdi:0000000000000000 $t
     /tmp/ccIWRJEN.s:1394   .text.dir_sdi:0000000000000000 dir_sdi
     /tmp/ccIWRJEN.s:1570   .text.dir_next:0000000000000000 $t
     /tmp/ccIWRJEN.s:1575   .text.dir_next:0000000000000000 dir_next
     /tmp/ccIWRJEN.s:1845   .rodata.LfnOfs:0000000000000000 $d
     /tmp/ccIWRJEN.s:1848   .rodata.LfnOfs:0000000000000000 LfnOfs
     /tmp/ccIWRJEN.s:1863   .text.cmp_lfn:0000000000000000 $t
     /tmp/ccIWRJEN.s:1868   .text.cmp_lfn:0000000000000000 cmp_lfn
     /tmp/ccIWRJEN.s:1990   .text.pick_lfn:0000000000000000 $t
     /tmp/ccIWRJEN.s:1995   .text.pick_lfn:0000000000000000 pick_lfn
     /tmp/ccIWRJEN.s:2108   .text.fit_lfn:0000000000000000 $t
     /tmp/ccIWRJEN.s:2113   .text.fit_lfn:0000000000000000 fit_lfn
     /tmp/ccIWRJEN.s:2232   .text.gen_numname:0000000000000000 $t
     /tmp/ccIWRJEN.s:2238   .text.gen_numname:0000000000000000 gen_numname
     /tmp/ccIWRJEN.s:2380   .text.sum_sfn:0000000000000000 $t
     /tmp/ccIWRJEN.s:2385   .text.sum_sfn:0000000000000000 sum_sfn
     /tmp/ccIWRJEN.s:2432   .text.dir_find:0000000000000000 $t
     /tmp/ccIWRJEN.s:2437   .text.dir_find:0000000000000000 dir_find
     /tmp/ccIWRJEN.s:2651   .text.dir_read:0000000000000000 $t
     /tmp/ccIWRJEN.s:2656   .text.dir_read:0000000000000000 dir_read
     /tmp/ccIWRJEN.s:2857   .text.dir_register:0000000000000000 $t
     /tmp/ccIWRJEN.s:2862   .text.dir_register:0000000000000000 dir_register
     /tmp/ccIWRJEN.s:3229   .text.dir_remove:0000000000000000 $t
     /tmp/ccIWRJEN.s:3234   .text.dir_remove:0000000000000000 dir_remove
     /tmp/ccIWRJEN.s:3341   .rodata:0000000000000000 $d
     /tmp/ccIWRJEN.s:3342   .rodata:0000000000000000 .LC0
     /tmp/ccIWRJEN.s:3345   .rodata:000000000000000c .LC1
     /tmp/ccIWRJEN.s:3348   .text.create_name:0000000000000000 $t
     /tmp/ccIWRJEN.s:3353   .text.create_name:0000000000000000 create_name
ARM GAS  /tmp/ccIWRJEN.s 			page 288


     /tmp/ccIWRJEN.s:10601  .rodata.excvt.5289:0000000000000000 excvt.5289
     /tmp/ccIWRJEN.s:3874   .text.get_fileinfo:0000000000000000 $t
     /tmp/ccIWRJEN.s:3879   .text.get_fileinfo:0000000000000000 get_fileinfo
     /tmp/ccIWRJEN.s:4154   .text.follow_path:0000000000000000 $t
     /tmp/ccIWRJEN.s:4159   .text.follow_path:0000000000000000 follow_path
     /tmp/ccIWRJEN.s:4307   .text.check_fs:0000000000000000 $t
     /tmp/ccIWRJEN.s:4312   .text.check_fs:0000000000000000 check_fs
     /tmp/ccIWRJEN.s:4391   .text.chk_mounted:0000000000000000 $t
     /tmp/ccIWRJEN.s:4396   .text.chk_mounted:0000000000000000 chk_mounted
     /tmp/ccIWRJEN.s:4994   .text.validate:0000000000000000 $t
     /tmp/ccIWRJEN.s:4999   .text.validate:0000000000000000 validate
     /tmp/ccIWRJEN.s:5057   .text.f_mount:0000000000000000 $t
     /tmp/ccIWRJEN.s:5063   .text.f_mount:0000000000000000 f_mount
     /tmp/ccIWRJEN.s:5125   .text.f_open:0000000000000000 $t
     /tmp/ccIWRJEN.s:5131   .text.f_open:0000000000000000 f_open
     /tmp/ccIWRJEN.s:5459   .text.f_read:0000000000000000 $t
     /tmp/ccIWRJEN.s:5465   .text.f_read:0000000000000000 f_read
     /tmp/ccIWRJEN.s:5877   .text.f_write:0000000000000000 $t
     /tmp/ccIWRJEN.s:5883   .text.f_write:0000000000000000 f_write
     /tmp/ccIWRJEN.s:6350   .text.f_sync:0000000000000000 $t
     /tmp/ccIWRJEN.s:6356   .text.f_sync:0000000000000000 f_sync
     /tmp/ccIWRJEN.s:6509   .text.f_close:0000000000000000 $t
     /tmp/ccIWRJEN.s:6515   .text.f_close:0000000000000000 f_close
     /tmp/ccIWRJEN.s:6552   .text.f_lseek:0000000000000000 $t
     /tmp/ccIWRJEN.s:6558   .text.f_lseek:0000000000000000 f_lseek
     /tmp/ccIWRJEN.s:6977   .text.f_opendir:0000000000000000 $t
     /tmp/ccIWRJEN.s:6983   .text.f_opendir:0000000000000000 f_opendir
     /tmp/ccIWRJEN.s:7110   .text.f_readdir:0000000000000000 $t
     /tmp/ccIWRJEN.s:7116   .text.f_readdir:0000000000000000 f_readdir
     /tmp/ccIWRJEN.s:7232   .text.f_stat:0000000000000000 $t
     /tmp/ccIWRJEN.s:7238   .text.f_stat:0000000000000000 f_stat
     /tmp/ccIWRJEN.s:7323   .text.f_getfree:0000000000000000 $t
     /tmp/ccIWRJEN.s:7329   .text.f_getfree:0000000000000000 f_getfree
     /tmp/ccIWRJEN.s:7565   .text.f_truncate:0000000000000000 $t
     /tmp/ccIWRJEN.s:7571   .text.f_truncate:0000000000000000 f_truncate
     /tmp/ccIWRJEN.s:7749   .text.f_unlink:0000000000000000 $t
     /tmp/ccIWRJEN.s:7755   .text.f_unlink:0000000000000000 f_unlink
     /tmp/ccIWRJEN.s:7957   .text.f_mkdir:0000000000000000 $t
     /tmp/ccIWRJEN.s:7963   .text.f_mkdir:0000000000000000 f_mkdir
     /tmp/ccIWRJEN.s:8282   .text.f_chmod:0000000000000000 $t
     /tmp/ccIWRJEN.s:8288   .text.f_chmod:0000000000000000 f_chmod
     /tmp/ccIWRJEN.s:8405   .text.f_utime:0000000000000000 $t
     /tmp/ccIWRJEN.s:8411   .text.f_utime:0000000000000000 f_utime
     /tmp/ccIWRJEN.s:8515   .text.f_rename:0000000000000000 $t
     /tmp/ccIWRJEN.s:8521   .text.f_rename:0000000000000000 f_rename
     /tmp/ccIWRJEN.s:8785   .rodata:0000000000000014 .LC2
     /tmp/ccIWRJEN.s:8788   .rodata:0000000000000020 .LC3
     /tmp/ccIWRJEN.s:8791   .rodata:0000000000000034 .LC4
     /tmp/ccIWRJEN.s:8794   .text.f_mkfs:0000000000000000 $t
     /tmp/ccIWRJEN.s:8800   .text.f_mkfs:0000000000000000 f_mkfs
     /tmp/ccIWRJEN.s:10734  .rodata.vst.5555:0000000000000000 vst.5555
     /tmp/ccIWRJEN.s:10750  .rodata.cst.5556:0000000000000000 cst.5556
     /tmp/ccIWRJEN.s:9802   .text.f_gets:0000000000000000 $t
     /tmp/ccIWRJEN.s:9808   .text.f_gets:0000000000000000 f_gets
     /tmp/ccIWRJEN.s:9896   .text.f_putc:0000000000000000 $t
     /tmp/ccIWRJEN.s:9902   .text.f_putc:0000000000000000 f_putc
     /tmp/ccIWRJEN.s:9950   .text.f_puts:0000000000000000 $t
ARM GAS  /tmp/ccIWRJEN.s 			page 289


     /tmp/ccIWRJEN.s:9956   .text.f_puts:0000000000000000 f_puts
     /tmp/ccIWRJEN.s:10012  .text.f_printf:0000000000000000 $t
     /tmp/ccIWRJEN.s:10018  .text.f_printf:0000000000000000 f_printf
     /tmp/ccIWRJEN.s:10200  .text.f_printf:000000000000013c $d
     /tmp/ccIWRJEN.s:10225  .text.f_printf:0000000000000198 $t
     /tmp/ccIWRJEN.s:10598  .rodata.excvt.5289:0000000000000000 $d
     /tmp/ccIWRJEN.s:10731  .rodata.vst.5555:0000000000000000 $d
     /tmp/ccIWRJEN.s:10747  .rodata.cst.5556:0000000000000000 $d
                     .debug_frame:0000000000000010 $d

UNDEFINED SYMBOLS
disk_write
disk_read
disk_ioctl
ff_wtoupper
ff_convert
disk_status
disk_initialize
ff_memalloc
get_fattime
ff_memfree
