ARM GAS  /tmp/ccNZEzlj.s 			page 1


   1              		.syntax unified
   2              		.cpu cortex-m4
   3              		.fpu softvfp
   4              		.eabi_attribute 20, 1
   5              		.eabi_attribute 21, 1
   6              		.eabi_attribute 23, 3
   7              		.eabi_attribute 24, 1
   8              		.eabi_attribute 25, 1
   9              		.eabi_attribute 26, 1
  10              		.eabi_attribute 30, 6
  11              		.eabi_attribute 34, 1
  12              		.eabi_attribute 18, 4
  13              		.thumb
  14              		.file	"hal_lld.c"
  15              		.text
  16              	.Ltext0:
  17              		.cfi_sections	.debug_frame
  18              		.section	.text.hal_lld_backup_domain_init,"ax",%progbits
  19              		.align	2
  20              		.p2align 4,,15
  21              		.thumb
  22              		.thumb_func
  23              		.type	hal_lld_backup_domain_init, %function
  24              	hal_lld_backup_domain_init:
  25              	.LFB118:
  26              		.file 1 "../..//os/hal/platforms/STM32F4xx/hal_lld.c"
  27              		.loc 1 51 0
  28              		.cfi_startproc
  29              		@ args = 0, pretend = 0, frame = 0
  30              		@ frame_needed = 0, uses_anonymous_args = 0
  31              		@ link register save eliminated.
  32              		.loc 1 54 0
  33 0000 4FF4E043 		mov	r3, #28672
  34 0004 C4F20003 		movt	r3, 16384
  35 0008 4FF4E042 		mov	r2, #28672
  36 000c C4F20002 		movt	r2, 16384
  37 0010 1268     		ldr	r2, [r2]
  38 0012 42F48072 		orr	r2, r2, #256
  39 0016 1A60     		str	r2, [r3]
  40              		.loc 1 57 0
  41 0018 4FF46053 		mov	r3, #14336
  42 001c C4F20203 		movt	r3, 16386
  43 0020 1B6F     		ldr	r3, [r3, #112]
  44 0022 03F44073 		and	r3, r3, #768
  45 0026 B3F5007F 		cmp	r3, #512
  46 002a 0CD0     		beq	.L2
  47              		.loc 1 59 0
  48 002c 4FF46053 		mov	r3, #14336
  49 0030 C4F20203 		movt	r3, 16386
  50 0034 4FF48032 		mov	r2, #65536
  51 0038 1A67     		str	r2, [r3, #112]
  52              		.loc 1 60 0
  53 003a 4FF46053 		mov	r3, #14336
  54 003e C4F20203 		movt	r3, 16386
  55 0042 0022     		movs	r2, #0
  56 0044 1A67     		str	r2, [r3, #112]
  57              	.L2:
ARM GAS  /tmp/ccNZEzlj.s 			page 2


  58              		.loc 1 94 0
  59 0046 4FF4E043 		mov	r3, #28672
  60 004a C4F20003 		movt	r3, 16384
  61 004e 4FF4E042 		mov	r2, #28672
  62 0052 C4F20002 		movt	r2, 16384
  63 0056 5268     		ldr	r2, [r2, #4]
  64 0058 22F40072 		bic	r2, r2, #512
  65 005c 5A60     		str	r2, [r3, #4]
  66              		.loc 1 96 0
  67 005e 7047     		bx	lr
  68              		.cfi_endproc
  69              	.LFE118:
  70              		.size	hal_lld_backup_domain_init, .-hal_lld_backup_domain_init
  71              		.section	.text.hal_lld_init,"ax",%progbits
  72              		.align	2
  73              		.p2align 4,,15
  74              		.global	hal_lld_init
  75              		.thumb
  76              		.thumb_func
  77              		.type	hal_lld_init, %function
  78              	hal_lld_init:
  79              	.LFB119:
  80              		.loc 1 111 0
  81              		.cfi_startproc
  82              		@ args = 0, pretend = 0, frame = 0
  83              		@ frame_needed = 0, uses_anonymous_args = 0
  84 0000 08B5     		push	{r3, lr}
  85              		.cfi_def_cfa_offset 8
  86              		.cfi_offset 3, -8
  87              		.cfi_offset 14, -4
  88              		.loc 1 115 0
  89 0002 4FF46053 		mov	r3, #14336
  90 0006 C4F20203 		movt	r3, 16386
  91 000a 1B69     		ldr	r3, [r3, #16]
  92 000c 4FF46053 		mov	r3, #14336
  93 0010 C4F20203 		movt	r3, 16386
  94 0014 4FF0FF32 		mov	r2, #-1
  95 0018 1A61     		str	r2, [r3, #16]
  96 001a 4FF46053 		mov	r3, #14336
  97 001e C4F20203 		movt	r3, 16386
  98 0022 0022     		movs	r2, #0
  99 0024 1A61     		str	r2, [r3, #16]
 100              		.loc 1 116 0
 101 0026 4FF46053 		mov	r3, #14336
 102 002a C4F20203 		movt	r3, 16386
 103 002e 5B69     		ldr	r3, [r3, #20]
 104 0030 4FF46053 		mov	r3, #14336
 105 0034 C4F20203 		movt	r3, 16386
 106 0038 4FF0FF32 		mov	r2, #-1
 107 003c 5A61     		str	r2, [r3, #20]
 108 003e 4FF46053 		mov	r3, #14336
 109 0042 C4F20203 		movt	r3, 16386
 110 0046 0022     		movs	r2, #0
 111 0048 5A61     		str	r2, [r3, #20]
 112              		.loc 1 117 0
 113 004a 4FF46053 		mov	r3, #14336
 114 004e C4F20203 		movt	r3, 16386
ARM GAS  /tmp/ccNZEzlj.s 			page 3


 115 0052 4FF46052 		mov	r2, #14336
 116 0056 C4F20202 		movt	r2, 16386
 117 005a 126A     		ldr	r2, [r2, #32]
 118 005c 62F08052 		orn	r2, r2, #268435456
 119 0060 1A62     		str	r2, [r3, #32]
 120 0062 4FF46053 		mov	r3, #14336
 121 0066 C4F20203 		movt	r3, 16386
 122 006a 0022     		movs	r2, #0
 123 006c 1A62     		str	r2, [r3, #32]
 124              		.loc 1 118 0
 125 006e 4FF46053 		mov	r3, #14336
 126 0072 C4F20203 		movt	r3, 16386
 127 0076 5B6A     		ldr	r3, [r3, #36]
 128 0078 4FF46053 		mov	r3, #14336
 129 007c C4F20203 		movt	r3, 16386
 130 0080 4FF0FF32 		mov	r2, #-1
 131 0084 5A62     		str	r2, [r3, #36]
 132 0086 4FF46053 		mov	r3, #14336
 133 008a C4F20203 		movt	r3, 16386
 134 008e 0022     		movs	r2, #0
 135 0090 5A62     		str	r2, [r3, #36]
 136              		.loc 1 121 0
 137 0092 4EF21003 		movw	r3, #57360
 138 0096 CEF20003 		movt	r3, 57344
 139 009a 49F23F02 		movw	r2, #36927
 140 009e C0F20202 		movt	r2, 2
 141 00a2 5A60     		str	r2, [r3, #4]
 142              		.loc 1 122 0
 143 00a4 4EF21003 		movw	r3, #57360
 144 00a8 CEF20003 		movt	r3, 57344
 145 00ac 0022     		movs	r2, #0
 146 00ae 9A60     		str	r2, [r3, #8]
 147              		.loc 1 123 0
 148 00b0 4EF21003 		movw	r3, #57360
 149 00b4 CEF20003 		movt	r3, 57344
 150 00b8 0722     		movs	r2, #7
 151 00ba 1A60     		str	r2, [r3]
 152              		.loc 1 128 0
 153 00bc 4EF6F053 		movw	r3, #60912
 154 00c0 CEF20003 		movt	r3, 57344
 155 00c4 4EF6F052 		movw	r2, #60912
 156 00c8 CEF20002 		movt	r2, 57344
 157 00cc D268     		ldr	r2, [r2, #12]
 158 00ce 42F08072 		orr	r2, r2, #16777216
 159 00d2 DA60     		str	r2, [r3, #12]
 160              		.loc 1 129 0
 161 00d4 4FF48053 		mov	r3, #4096
 162 00d8 CEF20003 		movt	r3, 57344
 163 00dc 4FF48052 		mov	r2, #4096
 164 00e0 CEF20002 		movt	r2, 57344
 165 00e4 1268     		ldr	r2, [r2]
 166 00e6 42F00102 		orr	r2, r2, #1
 167 00ea 1A60     		str	r2, [r3]
 168              		.loc 1 132 0
 169 00ec 4FF46053 		mov	r3, #14336
 170 00f0 C4F20203 		movt	r3, 16386
 171 00f4 4FF46052 		mov	r2, #14336
ARM GAS  /tmp/ccNZEzlj.s 			page 4


 172 00f8 C4F20202 		movt	r2, 16386
 173 00fc 126C     		ldr	r2, [r2, #64]
 174 00fe 42F08052 		orr	r2, r2, #268435456
 175 0102 1A64     		str	r2, [r3, #64]
 176              		.loc 1 135 0
 177 0104 FFF7FEFF 		bl	hal_lld_backup_domain_init
 178              		.loc 1 138 0
 179 0108 FFF7FEFF 		bl	dmaInit
 180              		.loc 1 145 0
 181 010c 08BD     		pop	{r3, pc}
 182              		.cfi_endproc
 183              	.LFE119:
 184              		.size	hal_lld_init, .-hal_lld_init
 185 010e 00BF     		.section	.text.stm32_clock_init,"ax",%progbits
 186              		.align	2
 187              		.p2align 4,,15
 188              		.global	stm32_clock_init
 189              		.thumb
 190              		.thumb_func
 191              		.type	stm32_clock_init, %function
 192              	stm32_clock_init:
 193              	.LFB120:
 194              		.loc 1 154 0
 195              		.cfi_startproc
 196              		@ args = 0, pretend = 0, frame = 0
 197              		@ frame_needed = 0, uses_anonymous_args = 0
 198              		@ link register save eliminated.
 199              		.loc 1 158 0
 200 0000 4FF46053 		mov	r3, #14336
 201 0004 C4F20203 		movt	r3, 16386
 202 0008 4FF08052 		mov	r2, #268435456
 203 000c 1A64     		str	r2, [r3, #64]
 204              		.loc 1 162 0
 205 000e 4FF4E043 		mov	r3, #28672
 206 0012 C4F20003 		movt	r3, 16384
 207 0016 4FF44042 		mov	r2, #49152
 208 001a 1A60     		str	r2, [r3]
 209              		.loc 1 169 0
 210 001c 4FF46053 		mov	r3, #14336
 211 0020 C4F20203 		movt	r3, 16386
 212 0024 4FF46052 		mov	r2, #14336
 213 0028 C4F20202 		movt	r2, 16386
 214 002c 1268     		ldr	r2, [r2]
 215 002e 42F00102 		orr	r2, r2, #1
 216 0032 1A60     		str	r2, [r3]
 217              		.loc 1 170 0
 218 0034 00BF     		nop
 219              	.L5:
 220              		.loc 1 170 0 is_stmt 0 discriminator 1
 221 0036 4FF46053 		mov	r3, #14336
 222 003a C4F20203 		movt	r3, 16386
 223 003e 1B68     		ldr	r3, [r3]
 224 0040 03F00203 		and	r3, r3, #2
 225 0044 002B     		cmp	r3, #0
 226 0046 F6D0     		beq	.L5
 227              		.loc 1 172 0 is_stmt 1
 228 0048 4FF46053 		mov	r3, #14336
ARM GAS  /tmp/ccNZEzlj.s 			page 5


 229 004c C4F20203 		movt	r3, 16386
 230 0050 4FF46052 		mov	r2, #14336
 231 0054 C4F20202 		movt	r2, 16386
 232 0058 1268     		ldr	r2, [r2]
 233 005a 02F0F902 		and	r2, r2, #249
 234 005e 1A60     		str	r2, [r3]
 235              		.loc 1 173 0
 236 0060 4FF46053 		mov	r3, #14336
 237 0064 C4F20203 		movt	r3, 16386
 238 0068 0022     		movs	r2, #0
 239 006a 9A60     		str	r2, [r3, #8]
 240              		.loc 1 174 0
 241 006c 00BF     		nop
 242              	.L6:
 243              		.loc 1 174 0 is_stmt 0 discriminator 1
 244 006e 4FF46053 		mov	r3, #14336
 245 0072 C4F20203 		movt	r3, 16386
 246 0076 9B68     		ldr	r3, [r3, #8]
 247 0078 03F00C03 		and	r3, r3, #12
 248 007c 002B     		cmp	r3, #0
 249 007e F6D1     		bne	.L6
 250              		.loc 1 184 0 is_stmt 1
 251 0080 4FF46053 		mov	r3, #14336
 252 0084 C4F20203 		movt	r3, 16386
 253 0088 4FF46052 		mov	r2, #14336
 254 008c C4F20202 		movt	r2, 16386
 255 0090 1268     		ldr	r2, [r2]
 256 0092 42F48032 		orr	r2, r2, #65536
 257 0096 1A60     		str	r2, [r3]
 258              		.loc 1 186 0
 259 0098 00BF     		nop
 260              	.L7:
 261              		.loc 1 186 0 is_stmt 0 discriminator 1
 262 009a 4FF46053 		mov	r3, #14336
 263 009e C4F20203 		movt	r3, 16386
 264 00a2 1B68     		ldr	r3, [r3]
 265 00a4 03F40033 		and	r3, r3, #131072
 266 00a8 002B     		cmp	r3, #0
 267 00aa F6D0     		beq	.L7
 268              		.loc 1 192 0 is_stmt 1
 269 00ac 4FF46053 		mov	r3, #14336
 270 00b0 C4F20203 		movt	r3, 16386
 271 00b4 4FF46052 		mov	r2, #14336
 272 00b8 C4F20202 		movt	r2, 16386
 273 00bc 526F     		ldr	r2, [r2, #116]
 274 00be 42F00102 		orr	r2, r2, #1
 275 00c2 5A67     		str	r2, [r3, #116]
 276              		.loc 1 193 0
 277 00c4 00BF     		nop
 278              	.L8:
 279              		.loc 1 193 0 is_stmt 0 discriminator 1
 280 00c6 4FF46053 		mov	r3, #14336
 281 00ca C4F20203 		movt	r3, 16386
 282 00ce 5B6F     		ldr	r3, [r3, #116]
 283 00d0 03F00203 		and	r3, r3, #2
 284 00d4 002B     		cmp	r3, #0
 285 00d6 F6D0     		beq	.L8
ARM GAS  /tmp/ccNZEzlj.s 			page 6


 286              		.loc 1 199 0 is_stmt 1
 287 00d8 4FF46053 		mov	r3, #14336
 288 00dc C4F20203 		movt	r3, 16386
 289 00e0 45F20842 		movw	r2, #21512
 290 00e4 C0F24072 		movt	r2, 1856
 291 00e8 5A60     		str	r2, [r3, #4]
 292              		.loc 1 201 0
 293 00ea 4FF46053 		mov	r3, #14336
 294 00ee C4F20203 		movt	r3, 16386
 295 00f2 4FF46052 		mov	r2, #14336
 296 00f6 C4F20202 		movt	r2, 16386
 297 00fa 1268     		ldr	r2, [r2]
 298 00fc 42F08072 		orr	r2, r2, #16777216
 299 0100 1A60     		str	r2, [r3]
 300              		.loc 1 205 0
 301 0102 00BF     		nop
 302              	.L9:
 303              		.loc 1 205 0 is_stmt 0 discriminator 1
 304 0104 4FF4E043 		mov	r3, #28672
 305 0108 C4F20003 		movt	r3, 16384
 306 010c 5B68     		ldr	r3, [r3, #4]
 307 010e 03F48043 		and	r3, r3, #16384
 308 0112 002B     		cmp	r3, #0
 309 0114 F6D0     		beq	.L9
 310              		.loc 1 221 0 is_stmt 1
 311 0116 00BF     		nop
 312              	.L10:
 313              		.loc 1 221 0 is_stmt 0 discriminator 1
 314 0118 4FF46053 		mov	r3, #14336
 315 011c C4F20203 		movt	r3, 16386
 316 0120 1B68     		ldr	r3, [r3]
 317 0122 03F00073 		and	r3, r3, #33554432
 318 0126 002B     		cmp	r3, #0
 319 0128 F6D0     		beq	.L10
 320              		.loc 1 236 0 is_stmt 1
 321 012a 4FF46053 		mov	r3, #14336
 322 012e C4F20203 		movt	r3, 16386
 323 0132 4FF41442 		mov	r2, #37888
 324 0136 C3F60802 		movt	r2, 14344
 325 013a 9A60     		str	r2, [r3, #8]
 326              		.loc 1 249 0
 327 013c 4FF47053 		mov	r3, #15360
 328 0140 C4F20203 		movt	r3, 16386
 329 0144 40F20572 		movw	r2, #1797
 330 0148 1A60     		str	r2, [r3]
 331              		.loc 1 255 0
 332 014a 4FF46053 		mov	r3, #14336
 333 014e C4F20203 		movt	r3, 16386
 334 0152 4FF46052 		mov	r2, #14336
 335 0156 C4F20202 		movt	r2, 16386
 336 015a 9268     		ldr	r2, [r2, #8]
 337 015c 42F00202 		orr	r2, r2, #2
 338 0160 9A60     		str	r2, [r3, #8]
 339              		.loc 1 256 0
 340 0162 00BF     		nop
 341              	.L11:
 342              		.loc 1 256 0 is_stmt 0 discriminator 1
ARM GAS  /tmp/ccNZEzlj.s 			page 7


 343 0164 4FF46053 		mov	r3, #14336
 344 0168 C4F20203 		movt	r3, 16386
 345 016c 9B68     		ldr	r3, [r3, #8]
 346 016e 03F00C03 		and	r3, r3, #12
 347 0172 082B     		cmp	r3, #8
 348 0174 F6D1     		bne	.L11
 349              		.loc 1 263 0 is_stmt 1
 350 0176 4FF46053 		mov	r3, #14336
 351 017a C4F20203 		movt	r3, 16386
 352 017e 4FF46052 		mov	r2, #14336
 353 0182 C4F20202 		movt	r2, 16386
 354 0186 526C     		ldr	r2, [r2, #68]
 355 0188 42F48042 		orr	r2, r2, #16384
 356 018c 5A64     		str	r2, [r3, #68]
 357 018e 4FF46053 		mov	r3, #14336
 358 0192 C4F20203 		movt	r3, 16386
 359 0196 4FF46052 		mov	r2, #14336
 360 019a C4F20202 		movt	r2, 16386
 361 019e 526E     		ldr	r2, [r2, #100]
 362 01a0 42F48042 		orr	r2, r2, #16384
 363 01a4 5A66     		str	r2, [r3, #100]
 364              		.loc 1 264 0
 365 01a6 7047     		bx	lr
 366              		.cfi_endproc
 367              	.LFE120:
 368              		.size	stm32_clock_init, .-stm32_clock_init
 369 01a8 AFF30080 		.text
 369      AFF30080 
 370              	.Letext0:
 371              		.file 2 "/usr/arm-none-eabi/include/machine/_default_types.h"
 372              		.file 3 "/usr/arm-none-eabi/include/stdint.h"
 373              		.file 4 "../..//os/ports/common/ARMCMx/nvic.h"
 374              		.file 5 "../..//os/ports/common/ARMCMx/CMSIS/include/core_cm4.h"
 375              		.file 6 "../..//os/hal/platforms/STM32F4xx/stm32f4xx.h"