ARM GAS  /tmp/ccDKSY7j.s 			page 1


   1              		.syntax unified
   2              		.cpu cortex-m4
   3              		.fpu softvfp
   4              		.eabi_attribute 20, 1
   5              		.eabi_attribute 21, 1
   6              		.eabi_attribute 23, 3
   7              		.eabi_attribute 24, 1
   8              		.eabi_attribute 25, 1
   9              		.eabi_attribute 26, 1
  10              		.eabi_attribute 30, 6
  11              		.eabi_attribute 34, 1
  12              		.eabi_attribute 18, 4
  13              		.thumb
  14              		.file	"main.c"
  15              		.text
  16              	.Ltext0:
  17              		.cfi_sections	.debug_frame
  18              		.section	.text.chprintf,"ax",%progbits
  19              		.align	2
  20              		.p2align 4,,15
  21              		.thumb
  22              		.thumb_func
  23              		.type	chprintf, %function
  24              	chprintf:
  25              	.LFB118:
  26              		.file 1 "../..//os/various/chprintf.h"
  27              		.loc 1 69 0
  28              		.cfi_startproc
  29              		@ args = 4, pretend = 12, frame = 16
  30              		@ frame_needed = 0, uses_anonymous_args = 1
  31 0000 0EB4     		push	{r1, r2, r3}
  32              		.cfi_def_cfa_offset 12
  33              		.cfi_offset 1, -12
  34              		.cfi_offset 2, -8
  35              		.cfi_offset 3, -4
  36 0002 00B5     		push	{lr}
  37              		.cfi_def_cfa_offset 16
  38              		.cfi_offset 14, -16
  39 0004 84B0     		sub	sp, sp, #16
  40              		.cfi_def_cfa_offset 32
  41 0006 0190     		str	r0, [sp, #4]
  42              		.loc 1 72 0
  43 0008 06AB     		add	r3, sp, #24
  44 000a 0393     		str	r3, [sp, #12]
  45              		.loc 1 73 0
  46 000c 0198     		ldr	r0, [sp, #4]
  47 000e 0599     		ldr	r1, [sp, #20]
  48 0010 039A     		ldr	r2, [sp, #12]
  49 0012 FFF7FEFF 		bl	chvprintf
  50              		.loc 1 75 0
  51 0016 04B0     		add	sp, sp, #16
  52              		@ sp needed
  53 0018 5DF804EB 		ldr	lr, [sp], #4
  54 001c 03B0     		add	sp, sp, #12
  55 001e 7047     		bx	lr
  56              		.cfi_endproc
  57              	.LFE118:
ARM GAS  /tmp/ccDKSY7j.s 			page 2


  58              		.size	chprintf, .-chprintf
  59              		.section	.bss.inbuf,"aw",%nobits
  60              		.align	2
  61              		.type	inbuf, %object
  62              		.size	inbuf, 23
  63              	inbuf:
  64 0000 00000000 		.space	23
  64      00000000 
  64      00000000 
  64      00000000 
  64      00000000 
  65 0017 00       		.section	.bss.SDC_FS,"aw",%nobits
  66              		.align	2
  67              		.type	SDC_FS, %object
  68              		.size	SDC_FS, 560
  69              	SDC_FS:
  70 0000 00000000 		.space	560
  70      00000000 
  70      00000000 
  70      00000000 
  70      00000000 
  71              		.section	.bss.fs_ready,"aw",%nobits
  72              		.type	fs_ready, %object
  73              		.size	fs_ready, 1
  74              	fs_ready:
  75 0000 00       		.space	1
  76              		.section	.rodata
  77              		.align	2
  78              	.LC0:
  79 0000 4F4B0D0A 		.ascii	"OK\015\012\000"
  79      00
  80 0005 000000   		.align	2
  81              	.LC1:
  82 0008 53444341 		.ascii	"SDCARD CONTENT \000"
  82      52442043 
  82      4F4E5445 
  82      4E542000 
  83              		.align	2
  84              	.LC2:
  85 0018 25582025 		.ascii	"%X %X %X %X\015\012\000"
  85      58202558 
  85      2025580D 
  85      0A00
  86 0026 0000     		.align	2
  87              	.LC3:
  88 0028 4572726F 		.ascii	"Error: Could not mount sdcard\015\012\000"
  88      723A2043 
  88      6F756C64 
  88      206E6F74 
  88      206D6F75 
  89              		.align	2
  90              	.LC4:
  91 0048 53756363 		.ascii	"Success: Mounted sdcard\015\012\000"
  91      6573733A 
  91      204D6F75 
  91      6E746564 
  91      20736463 
ARM GAS  /tmp/ccDKSY7j.s 			page 3


  92 0062 0000     		.align	2
  93              	.LC5:
  94 0064 6D796669 		.ascii	"myfile.txt\000"
  94      6C652E74 
  94      787400
  95 006f 00       		.align	2
  96              	.LC6:
  97 0070 4572726F 		.ascii	"Error: Could not openfile\015\012\000"
  97      723A2043 
  97      6F756C64 
  97      206E6F74 
  97      206F7065 
  98              		.align	2
  99              	.LC7:
 100 008c 53756363 		.ascii	"Success: Opened file\015\012\000"
 100      6573733A 
 100      204F7065 
 100      6E656420 
 100      66696C65 
 101 00a3 00       		.align	2
 102              	.LC8:
 103 00a4 257300   		.ascii	"%s\000"
 104 00a7 00       		.section	.text.read_sdcard,"ax",%progbits
 105              		.align	2
 106              		.p2align 4,,15
 107              		.global	read_sdcard
 108              		.thumb
 109              		.thumb_func
 110              		.type	read_sdcard, %function
 111              	read_sdcard:
 112              	.LFB119:
 113              		.file 2 "main.c"
 114              		.loc 2 15 0
 115              		.cfi_startproc
 116              		@ args = 0, pretend = 0, frame = 568
 117              		@ frame_needed = 0, uses_anonymous_args = 0
 118 0000 10B5     		push	{r4, lr}
 119              		.cfi_def_cfa_offset 8
 120              		.cfi_offset 4, -8
 121              		.cfi_offset 14, -4
 122 0002 ADF5107D 		sub	sp, sp, #576
 123              		.cfi_def_cfa_offset 584
 124              		.loc 2 16 0
 125 0006 40F20000 		movw	r0, #:lower16:SDCD1
 126 000a C0F20000 		movt	r0, #:upper16:SDCD1
 127 000e FFF7FEFF 		bl	sdcConnect
 128 0012 0346     		mov	r3, r0
 129 0014 83F00103 		eor	r3, r3, #1
 130 0018 DBB2     		uxtb	r3, r3
 131 001a 002B     		cmp	r3, #0
 132 001c 34D0     		beq	.L3
 133              		.loc 2 17 0
 134 001e 40F20000 		movw	r0, #:lower16:SD2
 135 0022 C0F20000 		movt	r0, #:upper16:SD2
 136 0026 40F20001 		movw	r1, #:lower16:.LC0
 137 002a C0F20001 		movt	r1, #:upper16:.LC0
 138 002e FFF7FEFF 		bl	chprintf
ARM GAS  /tmp/ccDKSY7j.s 			page 4


 139              		.loc 2 18 0
 140 0032 40F20000 		movw	r0, #:lower16:SD2
 141 0036 C0F20000 		movt	r0, #:upper16:SD2
 142 003a 40F20001 		movw	r1, #:lower16:.LC1
 143 003e C0F20001 		movt	r1, #:upper16:.LC1
 144 0042 FFF7FEFF 		bl	chprintf
 145              		.loc 2 19 0
 146 0046 40F20003 		movw	r3, #:lower16:SDCD1
 147 004a C0F20003 		movt	r3, #:upper16:SDCD1
 148 004e 5A6A     		ldr	r2, [r3, #36]
 149 0050 40F20003 		movw	r3, #:lower16:SDCD1
 150 0054 C0F20003 		movt	r3, #:upper16:SDCD1
 151 0058 1C6A     		ldr	r4, [r3, #32]
 152 005a 40F20003 		movw	r3, #:lower16:SDCD1
 153 005e C0F20003 		movt	r3, #:upper16:SDCD1
 154 0062 D969     		ldr	r1, [r3, #28]
 155 0064 40F20003 		movw	r3, #:lower16:SDCD1
 156 0068 C0F20003 		movt	r3, #:upper16:SDCD1
 157 006c 9B69     		ldr	r3, [r3, #24]
 158 006e 0091     		str	r1, [sp]
 159 0070 0193     		str	r3, [sp, #4]
 160 0072 40F20000 		movw	r0, #:lower16:SD2
 161 0076 C0F20000 		movt	r0, #:upper16:SD2
 162 007a 40F20001 		movw	r1, #:lower16:.LC2
 163 007e C0F20001 		movt	r1, #:upper16:.LC2
 164 0082 2346     		mov	r3, r4
 165 0084 FFF7FEFF 		bl	chprintf
 166              	.L3:
 167              		.loc 2 25 0
 168 0088 0020     		movs	r0, #0
 169 008a 40F20001 		movw	r1, #:lower16:SDC_FS
 170 008e C0F20001 		movt	r1, #:upper16:SDC_FS
 171 0092 FFF7FEFF 		bl	f_mount
 172 0096 0346     		mov	r3, r0
 173 0098 8DF83F32 		strb	r3, [sp, #575]
 174              		.loc 2 26 0
 175 009c 9DF83F32 		ldrb	r3, [sp, #575]	@ zero_extendqisi2
 176 00a0 002B     		cmp	r3, #0
 177 00a2 0AD0     		beq	.L4
 178              		.loc 2 27 0
 179 00a4 40F20000 		movw	r0, #:lower16:SD2
 180 00a8 C0F20000 		movt	r0, #:upper16:SD2
 181 00ac 40F20001 		movw	r1, #:lower16:.LC3
 182 00b0 C0F20001 		movt	r1, #:upper16:.LC3
 183 00b4 FFF7FEFF 		bl	chprintf
 184 00b8 0FE0     		b	.L5
 185              	.L4:
 186              		.loc 2 29 0
 187 00ba 40F20000 		movw	r0, #:lower16:SD2
 188 00be C0F20000 		movt	r0, #:upper16:SD2
 189 00c2 40F20001 		movw	r1, #:lower16:.LC4
 190 00c6 C0F20001 		movt	r1, #:upper16:.LC4
 191 00ca FFF7FEFF 		bl	chprintf
 192              		.loc 2 30 0
 193 00ce 40F20003 		movw	r3, #:lower16:fs_ready
 194 00d2 C0F20003 		movt	r3, #:upper16:fs_ready
 195 00d6 0122     		movs	r2, #1
ARM GAS  /tmp/ccDKSY7j.s 			page 5


 196 00d8 1A70     		strb	r2, [r3]
 197              	.L5:
 198              		.loc 2 35 0
 199 00da 06AB     		add	r3, sp, #24
 200 00dc 1846     		mov	r0, r3
 201 00de 40F20001 		movw	r1, #:lower16:.LC5
 202 00e2 C0F20001 		movt	r1, #:upper16:.LC5
 203 00e6 0122     		movs	r2, #1
 204 00e8 FFF7FEFF 		bl	f_open
 205 00ec 0346     		mov	r3, r0
 206 00ee 8DF83F32 		strb	r3, [sp, #575]
 207              		.loc 2 36 0
 208 00f2 9DF83F32 		ldrb	r3, [sp, #575]	@ zero_extendqisi2
 209 00f6 002B     		cmp	r3, #0
 210 00f8 0AD0     		beq	.L6
 211              		.loc 2 37 0
 212 00fa 40F20000 		movw	r0, #:lower16:SD2
 213 00fe C0F20000 		movt	r0, #:upper16:SD2
 214 0102 40F20001 		movw	r1, #:lower16:.LC6
 215 0106 C0F20001 		movt	r1, #:upper16:.LC6
 216 010a FFF7FEFF 		bl	chprintf
 217 010e 09E0     		b	.L7
 218              	.L6:
 219              		.loc 2 39 0
 220 0110 40F20000 		movw	r0, #:lower16:SD2
 221 0114 C0F20000 		movt	r0, #:upper16:SD2
 222 0118 40F20001 		movw	r1, #:lower16:.LC7
 223 011c C0F20001 		movt	r1, #:upper16:.LC7
 224 0120 FFF7FEFF 		bl	chprintf
 225              	.L7:
 226              		.loc 2 44 0
 227 0124 04AB     		add	r3, sp, #16
 228 0126 0022     		movs	r2, #0
 229 0128 DA71     		strb	r2, [r3, #7]
 230              		.loc 2 45 0
 231 012a 03AB     		add	r3, sp, #12
 232 012c 0122     		movs	r2, #1
 233 012e 1A60     		str	r2, [r3]
 234              		.loc 2 46 0
 235 0130 0BE0     		b	.L8
 236              	.L10:
 237              		.loc 2 47 0
 238 0132 04AB     		add	r3, sp, #16
 239 0134 40F20000 		movw	r0, #:lower16:SD2
 240 0138 C0F20000 		movt	r0, #:upper16:SD2
 241 013c 40F20001 		movw	r1, #:lower16:.LC8
 242 0140 C0F20001 		movt	r1, #:upper16:.LC8
 243 0144 1A46     		mov	r2, r3
 244 0146 FFF7FEFF 		bl	chprintf
 245              	.L8:
 246              		.loc 2 46 0 discriminator 1
 247 014a 06A9     		add	r1, sp, #24
 248 014c 04AA     		add	r2, sp, #16
 249 014e 03AB     		add	r3, sp, #12
 250 0150 0846     		mov	r0, r1
 251 0152 1146     		mov	r1, r2
 252 0154 0722     		movs	r2, #7
ARM GAS  /tmp/ccDKSY7j.s 			page 6


 253 0156 FFF7FEFF 		bl	f_read
 254 015a 0346     		mov	r3, r0
 255 015c 002B     		cmp	r3, #0
 256 015e 03D1     		bne	.L9
 257              		.loc 2 46 0 is_stmt 0 discriminator 2
 258 0160 03AB     		add	r3, sp, #12
 259 0162 1B68     		ldr	r3, [r3]
 260 0164 002B     		cmp	r3, #0
 261 0166 E4D1     		bne	.L10
 262              	.L9:
 263              		.loc 2 49 0 is_stmt 1
 264 0168 06AB     		add	r3, sp, #24
 265 016a 1846     		mov	r0, r3
 266 016c FFF7FEFF 		bl	f_close
 267              		.loc 2 50 0
 268 0170 40F20000 		movw	r0, #:lower16:SDCD1
 269 0174 C0F20000 		movt	r0, #:upper16:SDCD1
 270 0178 FFF7FEFF 		bl	sdcDisconnect
 271              		.loc 2 51 0
 272 017c 4FF44063 		mov	r3, #3072
 273 0180 C4F20203 		movt	r3, 16386
 274 0184 4FF48052 		mov	r2, #4096
 275 0188 1A83     		strh	r2, [r3, #24]	@ movhi
 276              		.loc 2 52 0
 277 018a 0DF5107D 		add	sp, sp, #576
 278              		@ sp needed
 279 018e 10BD     		pop	{r4, pc}
 280              		.cfi_endproc
 281              	.LFE119:
 282              		.size	read_sdcard, .-read_sdcard
 283              		.section	.rodata.sddcfg,"a",%progbits
 284              		.align	2
 285              		.type	sddcfg, %object
 286              		.size	sddcfg, 4
 287              	sddcfg:
 288 0000 00000000 		.space	4
 289              		.section	.text.main,"ax",%progbits
 290              		.align	2
 291              		.p2align 4,,15
 292              		.global	main
 293              		.thumb
 294              		.thumb_func
 295              		.type	main, %function
 296              	main:
 297              	.LFB120:
 298              		.loc 2 60 0
 299              		.cfi_startproc
 300              		@ args = 0, pretend = 0, frame = 0
 301              		@ frame_needed = 0, uses_anonymous_args = 0
 302 0000 08B5     		push	{r3, lr}
 303              		.cfi_def_cfa_offset 8
 304              		.cfi_offset 3, -8
 305              		.cfi_offset 14, -4
 306              		.loc 2 61 0
 307 0002 FFF7FEFF 		bl	halInit
 308              		.loc 2 62 0
 309 0006 FFF7FEFF 		bl	chSysInit
ARM GAS  /tmp/ccDKSY7j.s 			page 7


 310              		.loc 2 64 0
 311 000a 4FF44063 		mov	r3, #3072
 312 000e C4F20203 		movt	r3, 16386
 313 0012 4FF40052 		mov	r2, #8192
 314 0016 1A83     		strh	r2, [r3, #24]	@ movhi
 315              		.loc 2 66 0
 316 0018 40F20000 		movw	r0, #:lower16:SD2
 317 001c C0F20000 		movt	r0, #:upper16:SD2
 318 0020 0021     		movs	r1, #0
 319 0022 FFF7FEFF 		bl	sdStart
 320              		.loc 2 68 0
 321 0026 0020     		movs	r0, #0
 322 0028 C4F20200 		movt	r0, 16386
 323 002c 0421     		movs	r1, #4
 324 002e 40F28232 		movw	r2, #898
 325 0032 FFF7FEFF 		bl	_pal_lld_setgroupmode
 326              		.loc 2 69 0
 327 0036 0020     		movs	r0, #0
 328 0038 C4F20200 		movt	r0, 16386
 329 003c 0821     		movs	r1, #8
 330 003e 40F28232 		movw	r2, #898
 331 0042 FFF7FEFF 		bl	_pal_lld_setgroupmode
 332              		.loc 2 71 0
 333 0046 40F20000 		movw	r0, #:lower16:SDCD1
 334 004a C0F20000 		movt	r0, #:upper16:SDCD1
 335 004e 0021     		movs	r1, #0
 336 0050 FFF7FEFF 		bl	sdcStart
 337              		.loc 2 72 0
 338 0054 FFF7FEFF 		bl	read_sdcard
 339              	.L12:
 340              		.loc 2 74 0 discriminator 1
 341 0058 FEE7     		b	.L12
 342              		.cfi_endproc
 343              	.LFE120:
 344              		.size	main, .-main
 345 005a 00BFAFF3 		.text
 345      0080
 346              	.Letext0:
 347              		.file 3 "/usr/lib/gcc/arm-none-eabi/4.8.2/include/stddef.h"
 348              		.file 4 "/usr/arm-none-eabi/include/machine/_default_types.h"
 349              		.file 5 "/usr/arm-none-eabi/include/stdint.h"
 350              		.file 6 "../..//os/ports/GCC/ARMCMx/chtypes.h"
 351              		.file 7 "../..//os/kernel/include/chlists.h"
 352              		.file 8 "../..//os/kernel/include/chthreads.h"
 353              		.file 9 "../..//os/ports/GCC/ARMCMx/chcore_v7m.h"
 354              		.file 10 "../..//os/kernel/include/chmtx.h"
 355              		.file 11 "../..//os/kernel/include/chevents.h"
 356              		.file 12 "../..//os/kernel/include/chqueues.h"
 357              		.file 13 "../..//os/kernel/include/chstreams.h"
 358              		.file 14 "../..//os/hal/platforms/STM32F4xx/stm32f4xx.h"
 359              		.file 15 "../..//os/hal/platforms/STM32F4xx/stm32_dma.h"
 360              		.file 16 "../..//os/hal/include/io_block.h"
 361              		.file 17 "../..//os/hal/platforms/STM32/GPIOv2/pal_lld.h"
 362              		.file 18 "../..//os/hal/include/serial.h"
 363              		.file 19 "../..//os/hal/platforms/STM32/sdc_lld.h"
 364              		.file 20 "../..//ext/fatfs/src/integer.h"
 365              		.file 21 "../..//ext/fatfs/src/ff.h"
ARM GAS  /tmp/ccDKSY7j.s 			page 8


 366              		.file 22 "/usr/lib/gcc/arm-none-eabi/4.8.2/include/stdarg.h"
 367              		.file 23 "<built-in>"
 368              		.file 24 "../..//os/ports/common/ARMCMx/CMSIS/include/core_cm4.h"
 369              		.file 25 "../..//os/hal/platforms/STM32/USARTv1/serial_lld.h"