ARM GAS  /tmp/cc80iXCu.s 			page 1


   1              		.syntax unified
   2              		.cpu cortex-m4
   3              		.fpu softvfp
   4              		.eabi_attribute 20, 1
   5              		.eabi_attribute 21, 1
   6              		.eabi_attribute 23, 3
   7              		.eabi_attribute 24, 1
   8              		.eabi_attribute 25, 1
   9              		.eabi_attribute 26, 1
  10              		.eabi_attribute 30, 6
  11              		.eabi_attribute 34, 1
  12              		.eabi_attribute 18, 4
  13              		.thumb
  14              		.file	"nvic.c"
  15              		.text
  16              	.Ltext0:
  17              		.cfi_sections	.debug_frame
  18              		.section	.text.nvicEnableVector,"ax",%progbits
  19              		.align	2
  20              		.p2align 4,,15
  21              		.global	nvicEnableVector
  22              		.thumb
  23              		.thumb_func
  24              		.type	nvicEnableVector, %function
  25              	nvicEnableVector:
  26              	.LFB7:
  27              		.file 1 "../..//os/ports/common/ARMCMx/nvic.c"
  28              		.loc 1 46 0
  29              		.cfi_startproc
  30              		@ args = 0, pretend = 0, frame = 16
  31              		@ frame_needed = 0, uses_anonymous_args = 0
  32              		@ link register save eliminated.
  33 0000 10B4     		push	{r4}
  34              		.cfi_def_cfa_offset 4
  35              		.cfi_offset 4, -4
  36 0002 85B0     		sub	sp, sp, #20
  37              		.cfi_def_cfa_offset 24
  38 0004 0190     		str	r0, [sp, #4]
  39 0006 0091     		str	r1, [sp]
  40              		.loc 1 47 0
  41 0008 019B     		ldr	r3, [sp, #4]
  42 000a 03F00303 		and	r3, r3, #3
  43 000e DB00     		lsls	r3, r3, #3
  44 0010 0393     		str	r3, [sp, #12]
  45              		.loc 1 49 0
  46 0012 4FF46143 		mov	r3, #57600
  47 0016 CEF20003 		movt	r3, 57344
  48 001a 019A     		ldr	r2, [sp, #4]
  49 001c 9008     		lsrs	r0, r2, #2
  50 001e 4FF46142 		mov	r2, #57600
  51 0022 CEF20002 		movt	r2, 57344
  52 0026 0199     		ldr	r1, [sp, #4]
  53 0028 8908     		lsrs	r1, r1, #2
  54 002a C031     		adds	r1, r1, #192
  55 002c 52F82110 		ldr	r1, [r2, r1, lsl #2]
  56 0030 039A     		ldr	r2, [sp, #12]
  57 0032 FF24     		movs	r4, #255
ARM GAS  /tmp/cc80iXCu.s 			page 2


  58 0034 04FA02F2 		lsl	r2, r4, r2
  59 0038 D243     		mvns	r2, r2
  60 003a 1140     		ands	r1, r1, r2
  61 003c 039A     		ldr	r2, [sp, #12]
  62 003e 009C     		ldr	r4, [sp]
  63 0040 04FA02F2 		lsl	r2, r4, r2
  64 0044 1143     		orrs	r1, r1, r2
  65 0046 00F1C002 		add	r2, r0, #192
  66 004a 43F82210 		str	r1, [r3, r2, lsl #2]
  67              		.loc 1 50 0
  68 004e 4FF46143 		mov	r3, #57600
  69 0052 CEF20003 		movt	r3, 57344
  70 0056 019A     		ldr	r2, [sp, #4]
  71 0058 5209     		lsrs	r2, r2, #5
  72 005a 0199     		ldr	r1, [sp, #4]
  73 005c 01F01F01 		and	r1, r1, #31
  74 0060 0120     		movs	r0, #1
  75 0062 00FA01F1 		lsl	r1, r0, r1
  76 0066 6032     		adds	r2, r2, #96
  77 0068 43F82210 		str	r1, [r3, r2, lsl #2]
  78              		.loc 1 51 0
  79 006c 4FF46143 		mov	r3, #57600
  80 0070 CEF20003 		movt	r3, 57344
  81 0074 019A     		ldr	r2, [sp, #4]
  82 0076 5209     		lsrs	r2, r2, #5
  83 0078 0199     		ldr	r1, [sp, #4]
  84 007a 01F01F01 		and	r1, r1, #31
  85 007e 0120     		movs	r0, #1
  86 0080 00FA01F1 		lsl	r1, r0, r1
  87 0084 43F82210 		str	r1, [r3, r2, lsl #2]
  88              		.loc 1 52 0
  89 0088 05B0     		add	sp, sp, #20
  90              		@ sp needed
  91 008a 5DF8044B 		ldr	r4, [sp], #4
  92 008e 7047     		bx	lr
  93              		.cfi_endproc
  94              	.LFE7:
  95              		.size	nvicEnableVector, .-nvicEnableVector
  96              		.section	.text.nvicDisableVector,"ax",%progbits
  97              		.align	2
  98              		.p2align 4,,15
  99              		.global	nvicDisableVector
 100              		.thumb
 101              		.thumb_func
 102              		.type	nvicDisableVector, %function
 103              	nvicDisableVector:
 104              	.LFB8:
 105              		.loc 1 60 0
 106              		.cfi_startproc
 107              		@ args = 0, pretend = 0, frame = 16
 108              		@ frame_needed = 0, uses_anonymous_args = 0
 109              		@ link register save eliminated.
 110 0000 10B4     		push	{r4}
 111              		.cfi_def_cfa_offset 4
 112              		.cfi_offset 4, -4
 113 0002 85B0     		sub	sp, sp, #20
 114              		.cfi_def_cfa_offset 24
ARM GAS  /tmp/cc80iXCu.s 			page 3


 115 0004 0190     		str	r0, [sp, #4]
 116              		.loc 1 61 0
 117 0006 019B     		ldr	r3, [sp, #4]
 118 0008 03F00303 		and	r3, r3, #3
 119 000c DB00     		lsls	r3, r3, #3
 120 000e 0393     		str	r3, [sp, #12]
 121              		.loc 1 63 0
 122 0010 4FF46143 		mov	r3, #57600
 123 0014 CEF20003 		movt	r3, 57344
 124 0018 019A     		ldr	r2, [sp, #4]
 125 001a 5209     		lsrs	r2, r2, #5
 126 001c 0199     		ldr	r1, [sp, #4]
 127 001e 01F01F01 		and	r1, r1, #31
 128 0022 0120     		movs	r0, #1
 129 0024 00FA01F1 		lsl	r1, r0, r1
 130 0028 2032     		adds	r2, r2, #32
 131 002a 43F82210 		str	r1, [r3, r2, lsl #2]
 132              		.loc 1 64 0
 133 002e 4FF46143 		mov	r3, #57600
 134 0032 CEF20003 		movt	r3, 57344
 135 0036 019A     		ldr	r2, [sp, #4]
 136 0038 9008     		lsrs	r0, r2, #2
 137 003a 4FF46142 		mov	r2, #57600
 138 003e CEF20002 		movt	r2, 57344
 139 0042 0199     		ldr	r1, [sp, #4]
 140 0044 8908     		lsrs	r1, r1, #2
 141 0046 C031     		adds	r1, r1, #192
 142 0048 52F82110 		ldr	r1, [r2, r1, lsl #2]
 143 004c 039A     		ldr	r2, [sp, #12]
 144 004e FF24     		movs	r4, #255
 145 0050 04FA02F2 		lsl	r2, r4, r2
 146 0054 D243     		mvns	r2, r2
 147 0056 1140     		ands	r1, r1, r2
 148 0058 00F1C002 		add	r2, r0, #192
 149 005c 43F82210 		str	r1, [r3, r2, lsl #2]
 150              		.loc 1 65 0
 151 0060 05B0     		add	sp, sp, #20
 152              		@ sp needed
 153 0062 5DF8044B 		ldr	r4, [sp], #4
 154 0066 7047     		bx	lr
 155              		.cfi_endproc
 156              	.LFE8:
 157              		.size	nvicDisableVector, .-nvicDisableVector
 158 0068 AFF30080 		.section	.text.nvicSetSystemHandlerPriority,"ax",%progbits
 158      AFF30080 
 159              		.align	2
 160              		.p2align 4,,15
 161              		.global	nvicSetSystemHandlerPriority
 162              		.thumb
 163              		.thumb_func
 164              		.type	nvicSetSystemHandlerPriority, %function
 165              	nvicSetSystemHandlerPriority:
 166              	.LFB9:
 167              		.loc 1 74 0
 168              		.cfi_startproc
 169              		@ args = 0, pretend = 0, frame = 16
 170              		@ frame_needed = 0, uses_anonymous_args = 0
ARM GAS  /tmp/cc80iXCu.s 			page 4


 171              		@ link register save eliminated.
 172 0000 10B4     		push	{r4}
 173              		.cfi_def_cfa_offset 4
 174              		.cfi_offset 4, -4
 175 0002 85B0     		sub	sp, sp, #20
 176              		.cfi_def_cfa_offset 24
 177 0004 0190     		str	r0, [sp, #4]
 178 0006 0091     		str	r1, [sp]
 179              		.loc 1 75 0
 180 0008 019B     		ldr	r3, [sp, #4]
 181 000a 03F00303 		and	r3, r3, #3
 182 000e DB00     		lsls	r3, r3, #3
 183 0010 0393     		str	r3, [sp, #12]
 184              		.loc 1 77 0
 185 0012 4FF46D43 		mov	r3, #60672
 186 0016 CEF20003 		movt	r3, 57344
 187 001a 019A     		ldr	r2, [sp, #4]
 188 001c 9008     		lsrs	r0, r2, #2
 189 001e 4FF46D42 		mov	r2, #60672
 190 0022 CEF20002 		movt	r2, 57344
 191 0026 0199     		ldr	r1, [sp, #4]
 192 0028 8908     		lsrs	r1, r1, #2
 193 002a 0631     		adds	r1, r1, #6
 194 002c 52F82110 		ldr	r1, [r2, r1, lsl #2]
 195              		.loc 1 78 0
 196 0030 039A     		ldr	r2, [sp, #12]
 197 0032 FF24     		movs	r4, #255
 198 0034 04FA02F2 		lsl	r2, r4, r2
 199 0038 D243     		mvns	r2, r2
 200              		.loc 1 77 0
 201 003a 1140     		ands	r1, r1, r2
 202              		.loc 1 78 0
 203 003c 039A     		ldr	r2, [sp, #12]
 204 003e 009C     		ldr	r4, [sp]
 205 0040 04FA02F2 		lsl	r2, r4, r2
 206 0044 1143     		orrs	r1, r1, r2
 207              		.loc 1 77 0
 208 0046 821D     		adds	r2, r0, #6
 209 0048 43F82210 		str	r1, [r3, r2, lsl #2]
 210              		.loc 1 79 0
 211 004c 05B0     		add	sp, sp, #20
 212              		@ sp needed
 213 004e 5DF8044B 		ldr	r4, [sp], #4
 214 0052 7047     		bx	lr
 215              		.cfi_endproc
 216              	.LFE9:
 217              		.size	nvicSetSystemHandlerPriority, .-nvicSetSystemHandlerPriority
 218 0054 AFF30080 		.text
 218      AFF30080 
 218      AFF30080 
 219              	.Letext0:
 220              		.file 2 "/usr/arm-none-eabi/include/machine/_default_types.h"
 221              		.file 3 "/usr/arm-none-eabi/include/stdint.h"
 222              		.file 4 "../..//os/ports/common/ARMCMx/nvic.h"
 223              		.section	.debug_info,"",%progbits
 224              	.Ldebug_info0:
 225 0000 FA030000 		.4byte	0x3fa
ARM GAS  /tmp/cc80iXCu.s 			page 5


 226 0004 0400     		.2byte	0x4
 227 0006 00000000 		.4byte	.Ldebug_abbrev0
 228 000a 04       		.byte	0x4
 229 000b 01       		.uleb128 0x1
 230 000c 6E010000 		.4byte	.LASF47
 231 0010 01       		.byte	0x1
 232 0011 0A000000 		.4byte	.LASF48
 233 0015 11020000 		.4byte	.LASF49
 234 0019 00000000 		.4byte	.Ldebug_ranges0+0
 235 001d 00000000 		.4byte	0
 236 0021 00000000 		.4byte	.Ldebug_line0
 237 0025 02       		.uleb128 0x2
 238 0026 04       		.byte	0x4
 239 0027 05       		.byte	0x5
 240 0028 696E7400 		.ascii	"int\000"
 241 002c 03       		.uleb128 0x3
 242 002d 04       		.byte	0x4
 243 002e 07       		.byte	0x7
 244 002f F4000000 		.4byte	.LASF0
 245 0033 03       		.uleb128 0x3
 246 0034 01       		.byte	0x1
 247 0035 06       		.byte	0x6
 248 0036 74020000 		.4byte	.LASF1
 249 003a 03       		.uleb128 0x3
 250 003b 01       		.byte	0x1
 251 003c 08       		.byte	0x8
 252 003d 71000000 		.4byte	.LASF2
 253 0041 03       		.uleb128 0x3
 254 0042 02       		.byte	0x2
 255 0043 05       		.byte	0x5
 256 0044 5A000000 		.4byte	.LASF3
 257 0048 03       		.uleb128 0x3
 258 0049 02       		.byte	0x2
 259 004a 07       		.byte	0x7
 260 004b AF000000 		.4byte	.LASF4
 261 004f 03       		.uleb128 0x3
 262 0050 04       		.byte	0x4
 263 0051 05       		.byte	0x5
 264 0052 66020000 		.4byte	.LASF5
 265 0056 04       		.uleb128 0x4
 266 0057 E9000000 		.4byte	.LASF9
 267 005b 02       		.byte	0x2
 268 005c 38       		.byte	0x38
 269 005d 61000000 		.4byte	0x61
 270 0061 03       		.uleb128 0x3
 271 0062 04       		.byte	0x4
 272 0063 07       		.byte	0x7
 273 0064 CC000000 		.4byte	.LASF6
 274 0068 03       		.uleb128 0x3
 275 0069 08       		.byte	0x8
 276 006a 05       		.byte	0x5
 277 006b 4B010000 		.4byte	.LASF7
 278 006f 03       		.uleb128 0x3
 279 0070 08       		.byte	0x8
 280 0071 07       		.byte	0x7
 281 0072 0B010000 		.4byte	.LASF8
 282 0076 04       		.uleb128 0x4
ARM GAS  /tmp/cc80iXCu.s 			page 6


 283 0077 5D020000 		.4byte	.LASF10
 284 007b 03       		.byte	0x3
 285 007c 42       		.byte	0x42
 286 007d 56000000 		.4byte	0x56
 287 0081 03       		.uleb128 0x3
 288 0082 01       		.byte	0x1
 289 0083 02       		.byte	0x2
 290 0084 34000000 		.4byte	.LASF11
 291 0088 04       		.uleb128 0x4
 292 0089 69000000 		.4byte	.LASF12
 293 008d 04       		.byte	0x4
 294 008e 3A       		.byte	0x3a
 295 008f 93000000 		.4byte	0x93
 296 0093 05       		.uleb128 0x5
 297 0094 76000000 		.4byte	0x76
 298 0098 06       		.uleb128 0x6
 299 0099 040E     		.2byte	0xe04
 300 009b 04       		.byte	0x4
 301 009c 6A       		.byte	0x6a
 302 009d 47010000 		.4byte	0x147
 303 00a1 07       		.uleb128 0x7
 304 00a2 64010000 		.4byte	.LASF13
 305 00a6 04       		.byte	0x4
 306 00a7 6B       		.byte	0x6b
 307 00a8 5E010000 		.4byte	0x15e
 308 00ac 00       		.byte	0
 309 00ad 07       		.uleb128 0x7
 310 00ae 7F000000 		.4byte	.LASF14
 311 00b2 04       		.byte	0x4
 312 00b3 6C       		.byte	0x6c
 313 00b4 73010000 		.4byte	0x173
 314 00b8 20       		.byte	0x20
 315 00b9 07       		.uleb128 0x7
 316 00ba 64000000 		.4byte	.LASF15
 317 00be 04       		.byte	0x4
 318 00bf 6D       		.byte	0x6d
 319 00c0 78010000 		.4byte	0x178
 320 00c4 80       		.byte	0x80
 321 00c5 07       		.uleb128 0x7
 322 00c6 87000000 		.4byte	.LASF16
 323 00ca 04       		.byte	0x4
 324 00cb 6E       		.byte	0x6e
 325 00cc 7D010000 		.4byte	0x17d
 326 00d0 A0       		.byte	0xa0
 327 00d1 08       		.uleb128 0x8
 328 00d2 01010000 		.4byte	.LASF17
 329 00d6 04       		.byte	0x4
 330 00d7 6F       		.byte	0x6f
 331 00d8 82010000 		.4byte	0x182
 332 00dc 0001     		.2byte	0x100
 333 00de 08       		.uleb128 0x8
 334 00df 8F000000 		.4byte	.LASF18
 335 00e3 04       		.byte	0x4
 336 00e4 70       		.byte	0x70
 337 00e5 87010000 		.4byte	0x187
 338 00e9 2001     		.2byte	0x120
 339 00eb 08       		.uleb128 0x8
ARM GAS  /tmp/cc80iXCu.s 			page 7


 340 00ec 05000000 		.4byte	.LASF19
 341 00f0 04       		.byte	0x4
 342 00f1 71       		.byte	0x71
 343 00f2 8C010000 		.4byte	0x18c
 344 00f6 8001     		.2byte	0x180
 345 00f8 08       		.uleb128 0x8
 346 00f9 97000000 		.4byte	.LASF20
 347 00fd 04       		.byte	0x4
 348 00fe 72       		.byte	0x72
 349 00ff 91010000 		.4byte	0x191
 350 0103 A001     		.2byte	0x1a0
 351 0105 08       		.uleb128 0x8
 352 0106 9D020000 		.4byte	.LASF21
 353 010a 04       		.byte	0x4
 354 010b 73       		.byte	0x73
 355 010c 96010000 		.4byte	0x196
 356 0110 0002     		.2byte	0x200
 357 0112 08       		.uleb128 0x8
 358 0113 9F000000 		.4byte	.LASF22
 359 0117 04       		.byte	0x4
 360 0118 74       		.byte	0x74
 361 0119 AB010000 		.4byte	0x1ab
 362 011d 2002     		.2byte	0x220
 363 011f 09       		.uleb128 0x9
 364 0120 49505200 		.ascii	"IPR\000"
 365 0124 04       		.byte	0x4
 366 0125 75       		.byte	0x75
 367 0126 C0010000 		.4byte	0x1c0
 368 012a 0003     		.2byte	0x300
 369 012c 08       		.uleb128 0x8
 370 012d A7000000 		.4byte	.LASF23
 371 0131 04       		.byte	0x4
 372 0132 76       		.byte	0x76
 373 0133 D6010000 		.4byte	0x1d6
 374 0137 F003     		.2byte	0x3f0
 375 0139 08       		.uleb128 0x8
 376 013a E4000000 		.4byte	.LASF24
 377 013e 04       		.byte	0x4
 378 013f 77       		.byte	0x77
 379 0140 88000000 		.4byte	0x88
 380 0144 000E     		.2byte	0xe00
 381 0146 00       		.byte	0
 382 0147 0A       		.uleb128 0xa
 383 0148 88000000 		.4byte	0x88
 384 014c 57010000 		.4byte	0x157
 385 0150 0B       		.uleb128 0xb
 386 0151 57010000 		.4byte	0x157
 387 0155 07       		.byte	0x7
 388 0156 00       		.byte	0
 389 0157 03       		.uleb128 0x3
 390 0158 04       		.byte	0x4
 391 0159 07       		.byte	0x7
 392 015a 42010000 		.4byte	.LASF25
 393 015e 05       		.uleb128 0x5
 394 015f 47010000 		.4byte	0x147
 395 0163 0A       		.uleb128 0xa
 396 0164 88000000 		.4byte	0x88
ARM GAS  /tmp/cc80iXCu.s 			page 8


 397 0168 73010000 		.4byte	0x173
 398 016c 0B       		.uleb128 0xb
 399 016d 57010000 		.4byte	0x157
 400 0171 17       		.byte	0x17
 401 0172 00       		.byte	0
 402 0173 05       		.uleb128 0x5
 403 0174 63010000 		.4byte	0x163
 404 0178 05       		.uleb128 0x5
 405 0179 47010000 		.4byte	0x147
 406 017d 05       		.uleb128 0x5
 407 017e 63010000 		.4byte	0x163
 408 0182 05       		.uleb128 0x5
 409 0183 47010000 		.4byte	0x147
 410 0187 05       		.uleb128 0x5
 411 0188 63010000 		.4byte	0x163
 412 018c 05       		.uleb128 0x5
 413 018d 47010000 		.4byte	0x147
 414 0191 05       		.uleb128 0x5
 415 0192 63010000 		.4byte	0x163
 416 0196 05       		.uleb128 0x5
 417 0197 47010000 		.4byte	0x147
 418 019b 0A       		.uleb128 0xa
 419 019c 88000000 		.4byte	0x88
 420 01a0 AB010000 		.4byte	0x1ab
 421 01a4 0B       		.uleb128 0xb
 422 01a5 57010000 		.4byte	0x157
 423 01a9 37       		.byte	0x37
 424 01aa 00       		.byte	0
 425 01ab 05       		.uleb128 0x5
 426 01ac 9B010000 		.4byte	0x19b
 427 01b0 0A       		.uleb128 0xa
 428 01b1 88000000 		.4byte	0x88
 429 01b5 C0010000 		.4byte	0x1c0
 430 01b9 0B       		.uleb128 0xb
 431 01ba 57010000 		.4byte	0x157
 432 01be 3B       		.byte	0x3b
 433 01bf 00       		.byte	0
 434 01c0 05       		.uleb128 0x5
 435 01c1 B0010000 		.4byte	0x1b0
 436 01c5 0A       		.uleb128 0xa
 437 01c6 88000000 		.4byte	0x88
 438 01ca D6010000 		.4byte	0x1d6
 439 01ce 0C       		.uleb128 0xc
 440 01cf 57010000 		.4byte	0x157
 441 01d3 8302     		.2byte	0x283
 442 01d5 00       		.byte	0
 443 01d6 05       		.uleb128 0x5
 444 01d7 C5010000 		.4byte	0x1c5
 445 01db 04       		.uleb128 0x4
 446 01dc 4C000000 		.4byte	.LASF26
 447 01e0 04       		.byte	0x4
 448 01e1 78       		.byte	0x78
 449 01e2 98000000 		.4byte	0x98
 450 01e6 0D       		.uleb128 0xd
 451 01e7 8C       		.byte	0x8c
 452 01e8 04       		.byte	0x4
 453 01e9 89       		.byte	0x89
ARM GAS  /tmp/cc80iXCu.s 			page 9


 454 01ea EB020000 		.4byte	0x2eb
 455 01ee 07       		.uleb128 0x7
 456 01ef 59010000 		.4byte	.LASF27
 457 01f3 04       		.byte	0x4
 458 01f4 8A       		.byte	0x8a
 459 01f5 88000000 		.4byte	0x88
 460 01f9 00       		.byte	0
 461 01fa 07       		.uleb128 0x7
 462 01fb 22010000 		.4byte	.LASF28
 463 01ff 04       		.byte	0x4
 464 0200 8B       		.byte	0x8b
 465 0201 88000000 		.4byte	0x88
 466 0205 04       		.byte	0x4
 467 0206 07       		.uleb128 0x7
 468 0207 55000000 		.4byte	.LASF29
 469 020b 04       		.byte	0x4
 470 020c 8C       		.byte	0x8c
 471 020d 88000000 		.4byte	0x88
 472 0211 08       		.byte	0x8
 473 0212 07       		.uleb128 0x7
 474 0213 2F010000 		.4byte	.LASF30
 475 0217 04       		.byte	0x4
 476 0218 8D       		.byte	0x8d
 477 0219 88000000 		.4byte	0x88
 478 021d 0C       		.byte	0xc
 479 021e 0E       		.uleb128 0xe
 480 021f 53435200 		.ascii	"SCR\000"
 481 0223 04       		.byte	0x4
 482 0224 8E       		.byte	0x8e
 483 0225 88000000 		.4byte	0x88
 484 0229 10       		.byte	0x10
 485 022a 0E       		.uleb128 0xe
 486 022b 43435200 		.ascii	"CCR\000"
 487 022f 04       		.byte	0x4
 488 0230 8F       		.byte	0x8f
 489 0231 88000000 		.4byte	0x88
 490 0235 14       		.byte	0x14
 491 0236 07       		.uleb128 0x7
 492 0237 6F020000 		.4byte	.LASF31
 493 023b 04       		.byte	0x4
 494 023c 90       		.byte	0x90
 495 023d FB020000 		.4byte	0x2fb
 496 0241 18       		.byte	0x18
 497 0242 07       		.uleb128 0x7
 498 0243 57020000 		.4byte	.LASF32
 499 0247 04       		.byte	0x4
 500 0248 91       		.byte	0x91
 501 0249 88000000 		.4byte	0x88
 502 024d 24       		.byte	0x24
 503 024e 07       		.uleb128 0x7
 504 024f C2000000 		.4byte	.LASF33
 505 0253 04       		.byte	0x4
 506 0254 92       		.byte	0x92
 507 0255 88000000 		.4byte	0x88
 508 0259 28       		.byte	0x28
 509 025a 07       		.uleb128 0x7
 510 025b C7000000 		.4byte	.LASF34
ARM GAS  /tmp/cc80iXCu.s 			page 10


 511 025f 04       		.byte	0x4
 512 0260 93       		.byte	0x93
 513 0261 88000000 		.4byte	0x88
 514 0265 2C       		.byte	0x2c
 515 0266 07       		.uleb128 0x7
 516 0267 06010000 		.4byte	.LASF35
 517 026b 04       		.byte	0x4
 518 026c 94       		.byte	0x94
 519 026d 88000000 		.4byte	0x88
 520 0271 30       		.byte	0x30
 521 0272 07       		.uleb128 0x7
 522 0273 0B020000 		.4byte	.LASF36
 523 0277 04       		.byte	0x4
 524 0278 95       		.byte	0x95
 525 0279 88000000 		.4byte	0x88
 526 027d 34       		.byte	0x34
 527 027e 07       		.uleb128 0x7
 528 027f 35010000 		.4byte	.LASF37
 529 0283 04       		.byte	0x4
 530 0284 96       		.byte	0x96
 531 0285 88000000 		.4byte	0x88
 532 0289 38       		.byte	0x38
 533 028a 07       		.uleb128 0x7
 534 028b 69010000 		.4byte	.LASF38
 535 028f 04       		.byte	0x4
 536 0290 97       		.byte	0x97
 537 0291 88000000 		.4byte	0x88
 538 0295 3C       		.byte	0x3c
 539 0296 0E       		.uleb128 0xe
 540 0297 50465200 		.ascii	"PFR\000"
 541 029b 04       		.byte	0x4
 542 029c 98       		.byte	0x98
 543 029d 10030000 		.4byte	0x310
 544 02a1 40       		.byte	0x40
 545 02a2 0E       		.uleb128 0xe
 546 02a3 44465200 		.ascii	"DFR\000"
 547 02a7 04       		.byte	0x4
 548 02a8 99       		.byte	0x99
 549 02a9 88000000 		.4byte	0x88
 550 02ad 48       		.byte	0x48
 551 02ae 0E       		.uleb128 0xe
 552 02af 41445200 		.ascii	"ADR\000"
 553 02b3 04       		.byte	0x4
 554 02b4 9A       		.byte	0x9a
 555 02b5 88000000 		.4byte	0x88
 556 02b9 4C       		.byte	0x4c
 557 02ba 07       		.uleb128 0x7
 558 02bb 2F000000 		.4byte	.LASF39
 559 02bf 04       		.byte	0x4
 560 02c0 9B       		.byte	0x9b
 561 02c1 25030000 		.4byte	0x325
 562 02c5 50       		.byte	0x50
 563 02c6 0E       		.uleb128 0xe
 564 02c7 53415200 		.ascii	"SAR\000"
 565 02cb 04       		.byte	0x4
 566 02cc 9C       		.byte	0x9c
 567 02cd 3A030000 		.4byte	0x33a
ARM GAS  /tmp/cc80iXCu.s 			page 11


 568 02d1 60       		.byte	0x60
 569 02d2 07       		.uleb128 0x7
 570 02d3 7F000000 		.4byte	.LASF14
 571 02d7 04       		.byte	0x4
 572 02d8 9D       		.byte	0x9d
 573 02d9 3F030000 		.4byte	0x33f
 574 02dd 74       		.byte	0x74
 575 02de 07       		.uleb128 0x7
 576 02df DE000000 		.4byte	.LASF40
 577 02e3 04       		.byte	0x4
 578 02e4 9E       		.byte	0x9e
 579 02e5 88000000 		.4byte	0x88
 580 02e9 88       		.byte	0x88
 581 02ea 00       		.byte	0
 582 02eb 0A       		.uleb128 0xa
 583 02ec 88000000 		.4byte	0x88
 584 02f0 FB020000 		.4byte	0x2fb
 585 02f4 0B       		.uleb128 0xb
 586 02f5 57010000 		.4byte	0x157
 587 02f9 02       		.byte	0x2
 588 02fa 00       		.byte	0
 589 02fb 05       		.uleb128 0x5
 590 02fc EB020000 		.4byte	0x2eb
 591 0300 0A       		.uleb128 0xa
 592 0301 88000000 		.4byte	0x88
 593 0305 10030000 		.4byte	0x310
 594 0309 0B       		.uleb128 0xb
 595 030a 57010000 		.4byte	0x157
 596 030e 01       		.byte	0x1
 597 030f 00       		.byte	0
 598 0310 05       		.uleb128 0x5
 599 0311 00030000 		.4byte	0x300
 600 0315 0A       		.uleb128 0xa
 601 0316 88000000 		.4byte	0x88
 602 031a 25030000 		.4byte	0x325
 603 031e 0B       		.uleb128 0xb
 604 031f 57010000 		.4byte	0x157
 605 0323 03       		.byte	0x3
 606 0324 00       		.byte	0
 607 0325 05       		.uleb128 0x5
 608 0326 15030000 		.4byte	0x315
 609 032a 0A       		.uleb128 0xa
 610 032b 88000000 		.4byte	0x88
 611 032f 3A030000 		.4byte	0x33a
 612 0333 0B       		.uleb128 0xb
 613 0334 57010000 		.4byte	0x157
 614 0338 04       		.byte	0x4
 615 0339 00       		.byte	0
 616 033a 05       		.uleb128 0x5
 617 033b 2A030000 		.4byte	0x32a
 618 033f 05       		.uleb128 0x5
 619 0340 2A030000 		.4byte	0x32a
 620 0344 04       		.uleb128 0x4
 621 0345 27010000 		.4byte	.LASF41
 622 0349 04       		.byte	0x4
 623 034a 9F       		.byte	0x9f
 624 034b E6010000 		.4byte	0x1e6
ARM GAS  /tmp/cc80iXCu.s 			page 12


 625 034f 03       		.uleb128 0x3
 626 0350 01       		.byte	0x1
 627 0351 08       		.byte	0x8
 628 0352 5F010000 		.4byte	.LASF42
 629 0356 0F       		.uleb128 0xf
 630 0357 A2020000 		.4byte	.LASF44
 631 035b 01       		.byte	0x1
 632 035c 2E       		.byte	0x2e
 633 035d 00000000 		.4byte	.LFB7
 634 0361 90000000 		.4byte	.LFE7-.LFB7
 635 0365 01       		.uleb128 0x1
 636 0366 9C       		.byte	0x9c
 637 0367 93030000 		.4byte	0x393
 638 036b 10       		.uleb128 0x10
 639 036c 6E00     		.ascii	"n\000"
 640 036e 01       		.byte	0x1
 641 036f 2E       		.byte	0x2e
 642 0370 76000000 		.4byte	0x76
 643 0374 02       		.uleb128 0x2
 644 0375 91       		.byte	0x91
 645 0376 6C       		.sleb128 -20
 646 0377 11       		.uleb128 0x11
 647 0378 00000000 		.4byte	.LASF43
 648 037c 01       		.byte	0x1
 649 037d 2E       		.byte	0x2e
 650 037e 76000000 		.4byte	0x76
 651 0382 02       		.uleb128 0x2
 652 0383 91       		.byte	0x91
 653 0384 68       		.sleb128 -24
 654 0385 12       		.uleb128 0x12
 655 0386 736800   		.ascii	"sh\000"
 656 0389 01       		.byte	0x1
 657 038a 2F       		.byte	0x2f
 658 038b 2C000000 		.4byte	0x2c
 659 038f 02       		.uleb128 0x2
 660 0390 91       		.byte	0x91
 661 0391 74       		.sleb128 -12
 662 0392 00       		.byte	0
 663 0393 0F       		.uleb128 0xf
 664 0394 3A000000 		.4byte	.LASF45
 665 0398 01       		.byte	0x1
 666 0399 3C       		.byte	0x3c
 667 039a 00000000 		.4byte	.LFB8
 668 039e 68000000 		.4byte	.LFE8-.LFB8
 669 03a2 01       		.uleb128 0x1
 670 03a3 9C       		.byte	0x9c
 671 03a4 C2030000 		.4byte	0x3c2
 672 03a8 10       		.uleb128 0x10
 673 03a9 6E00     		.ascii	"n\000"
 674 03ab 01       		.byte	0x1
 675 03ac 3C       		.byte	0x3c
 676 03ad 76000000 		.4byte	0x76
 677 03b1 02       		.uleb128 0x2
 678 03b2 91       		.byte	0x91
 679 03b3 6C       		.sleb128 -20
 680 03b4 12       		.uleb128 0x12
 681 03b5 736800   		.ascii	"sh\000"
ARM GAS  /tmp/cc80iXCu.s 			page 13


 682 03b8 01       		.byte	0x1
 683 03b9 3D       		.byte	0x3d
 684 03ba 2C000000 		.4byte	0x2c
 685 03be 02       		.uleb128 0x2
 686 03bf 91       		.byte	0x91
 687 03c0 74       		.sleb128 -12
 688 03c1 00       		.byte	0
 689 03c2 13       		.uleb128 0x13
 690 03c3 80020000 		.4byte	.LASF50
 691 03c7 01       		.byte	0x1
 692 03c8 4A       		.byte	0x4a
 693 03c9 00000000 		.4byte	.LFB9
 694 03cd 54000000 		.4byte	.LFE9-.LFB9
 695 03d1 01       		.uleb128 0x1
 696 03d2 9C       		.byte	0x9c
 697 03d3 11       		.uleb128 0x11
 698 03d4 3A010000 		.4byte	.LASF46
 699 03d8 01       		.byte	0x1
 700 03d9 4A       		.byte	0x4a
 701 03da 76000000 		.4byte	0x76
 702 03de 02       		.uleb128 0x2
 703 03df 91       		.byte	0x91
 704 03e0 6C       		.sleb128 -20
 705 03e1 11       		.uleb128 0x11
 706 03e2 00000000 		.4byte	.LASF43
 707 03e6 01       		.byte	0x1
 708 03e7 4A       		.byte	0x4a
 709 03e8 76000000 		.4byte	0x76
 710 03ec 02       		.uleb128 0x2
 711 03ed 91       		.byte	0x91
 712 03ee 68       		.sleb128 -24
 713 03ef 12       		.uleb128 0x12
 714 03f0 736800   		.ascii	"sh\000"
 715 03f3 01       		.byte	0x1
 716 03f4 4B       		.byte	0x4b
 717 03f5 2C000000 		.4byte	0x2c
 718 03f9 02       		.uleb128 0x2
 719 03fa 91       		.byte	0x91
 720 03fb 74       		.sleb128 -12
 721 03fc 00       		.byte	0
 722 03fd 00       		.byte	0
 723              		.section	.debug_abbrev,"",%progbits
 724              	.Ldebug_abbrev0:
 725 0000 01       		.uleb128 0x1
 726 0001 11       		.uleb128 0x11
 727 0002 01       		.byte	0x1
 728 0003 25       		.uleb128 0x25
 729 0004 0E       		.uleb128 0xe
 730 0005 13       		.uleb128 0x13
 731 0006 0B       		.uleb128 0xb
 732 0007 03       		.uleb128 0x3
 733 0008 0E       		.uleb128 0xe
 734 0009 1B       		.uleb128 0x1b
 735 000a 0E       		.uleb128 0xe
 736 000b 55       		.uleb128 0x55
 737 000c 17       		.uleb128 0x17
 738 000d 11       		.uleb128 0x11
ARM GAS  /tmp/cc80iXCu.s 			page 14


 739 000e 01       		.uleb128 0x1
 740 000f 10       		.uleb128 0x10
 741 0010 17       		.uleb128 0x17
 742 0011 00       		.byte	0
 743 0012 00       		.byte	0
 744 0013 02       		.uleb128 0x2
 745 0014 24       		.uleb128 0x24
 746 0015 00       		.byte	0
 747 0016 0B       		.uleb128 0xb
 748 0017 0B       		.uleb128 0xb
 749 0018 3E       		.uleb128 0x3e
 750 0019 0B       		.uleb128 0xb
 751 001a 03       		.uleb128 0x3
 752 001b 08       		.uleb128 0x8
 753 001c 00       		.byte	0
 754 001d 00       		.byte	0
 755 001e 03       		.uleb128 0x3
 756 001f 24       		.uleb128 0x24
 757 0020 00       		.byte	0
 758 0021 0B       		.uleb128 0xb
 759 0022 0B       		.uleb128 0xb
 760 0023 3E       		.uleb128 0x3e
 761 0024 0B       		.uleb128 0xb
 762 0025 03       		.uleb128 0x3
 763 0026 0E       		.uleb128 0xe
 764 0027 00       		.byte	0
 765 0028 00       		.byte	0
 766 0029 04       		.uleb128 0x4
 767 002a 16       		.uleb128 0x16
 768 002b 00       		.byte	0
 769 002c 03       		.uleb128 0x3
 770 002d 0E       		.uleb128 0xe
 771 002e 3A       		.uleb128 0x3a
 772 002f 0B       		.uleb128 0xb
 773 0030 3B       		.uleb128 0x3b
 774 0031 0B       		.uleb128 0xb
 775 0032 49       		.uleb128 0x49
 776 0033 13       		.uleb128 0x13
 777 0034 00       		.byte	0
 778 0035 00       		.byte	0
 779 0036 05       		.uleb128 0x5
 780 0037 35       		.uleb128 0x35
 781 0038 00       		.byte	0
 782 0039 49       		.uleb128 0x49
 783 003a 13       		.uleb128 0x13
 784 003b 00       		.byte	0
 785 003c 00       		.byte	0
 786 003d 06       		.uleb128 0x6
 787 003e 13       		.uleb128 0x13
 788 003f 01       		.byte	0x1
 789 0040 0B       		.uleb128 0xb
 790 0041 05       		.uleb128 0x5
 791 0042 3A       		.uleb128 0x3a
 792 0043 0B       		.uleb128 0xb
 793 0044 3B       		.uleb128 0x3b
 794 0045 0B       		.uleb128 0xb
 795 0046 01       		.uleb128 0x1
ARM GAS  /tmp/cc80iXCu.s 			page 15


 796 0047 13       		.uleb128 0x13
 797 0048 00       		.byte	0
 798 0049 00       		.byte	0
 799 004a 07       		.uleb128 0x7
 800 004b 0D       		.uleb128 0xd
 801 004c 00       		.byte	0
 802 004d 03       		.uleb128 0x3
 803 004e 0E       		.uleb128 0xe
 804 004f 3A       		.uleb128 0x3a
 805 0050 0B       		.uleb128 0xb
 806 0051 3B       		.uleb128 0x3b
 807 0052 0B       		.uleb128 0xb
 808 0053 49       		.uleb128 0x49
 809 0054 13       		.uleb128 0x13
 810 0055 38       		.uleb128 0x38
 811 0056 0B       		.uleb128 0xb
 812 0057 00       		.byte	0
 813 0058 00       		.byte	0
 814 0059 08       		.uleb128 0x8
 815 005a 0D       		.uleb128 0xd
 816 005b 00       		.byte	0
 817 005c 03       		.uleb128 0x3
 818 005d 0E       		.uleb128 0xe
 819 005e 3A       		.uleb128 0x3a
 820 005f 0B       		.uleb128 0xb
 821 0060 3B       		.uleb128 0x3b
 822 0061 0B       		.uleb128 0xb
 823 0062 49       		.uleb128 0x49
 824 0063 13       		.uleb128 0x13
 825 0064 38       		.uleb128 0x38
 826 0065 05       		.uleb128 0x5
 827 0066 00       		.byte	0
 828 0067 00       		.byte	0
 829 0068 09       		.uleb128 0x9
 830 0069 0D       		.uleb128 0xd
 831 006a 00       		.byte	0
 832 006b 03       		.uleb128 0x3
 833 006c 08       		.uleb128 0x8
 834 006d 3A       		.uleb128 0x3a
 835 006e 0B       		.uleb128 0xb
 836 006f 3B       		.uleb128 0x3b
 837 0070 0B       		.uleb128 0xb
 838 0071 49       		.uleb128 0x49
 839 0072 13       		.uleb128 0x13
 840 0073 38       		.uleb128 0x38
 841 0074 05       		.uleb128 0x5
 842 0075 00       		.byte	0
 843 0076 00       		.byte	0
 844 0077 0A       		.uleb128 0xa
 845 0078 01       		.uleb128 0x1
 846 0079 01       		.byte	0x1
 847 007a 49       		.uleb128 0x49
 848 007b 13       		.uleb128 0x13
 849 007c 01       		.uleb128 0x1
 850 007d 13       		.uleb128 0x13
 851 007e 00       		.byte	0
 852 007f 00       		.byte	0
ARM GAS  /tmp/cc80iXCu.s 			page 16


 853 0080 0B       		.uleb128 0xb
 854 0081 21       		.uleb128 0x21
 855 0082 00       		.byte	0
 856 0083 49       		.uleb128 0x49
 857 0084 13       		.uleb128 0x13
 858 0085 2F       		.uleb128 0x2f
 859 0086 0B       		.uleb128 0xb
 860 0087 00       		.byte	0
 861 0088 00       		.byte	0
 862 0089 0C       		.uleb128 0xc
 863 008a 21       		.uleb128 0x21
 864 008b 00       		.byte	0
 865 008c 49       		.uleb128 0x49
 866 008d 13       		.uleb128 0x13
 867 008e 2F       		.uleb128 0x2f
 868 008f 05       		.uleb128 0x5
 869 0090 00       		.byte	0
 870 0091 00       		.byte	0
 871 0092 0D       		.uleb128 0xd
 872 0093 13       		.uleb128 0x13
 873 0094 01       		.byte	0x1
 874 0095 0B       		.uleb128 0xb
 875 0096 0B       		.uleb128 0xb
 876 0097 3A       		.uleb128 0x3a
 877 0098 0B       		.uleb128 0xb
 878 0099 3B       		.uleb128 0x3b
 879 009a 0B       		.uleb128 0xb
 880 009b 01       		.uleb128 0x1
 881 009c 13       		.uleb128 0x13
 882 009d 00       		.byte	0
 883 009e 00       		.byte	0
 884 009f 0E       		.uleb128 0xe
 885 00a0 0D       		.uleb128 0xd
 886 00a1 00       		.byte	0
 887 00a2 03       		.uleb128 0x3
 888 00a3 08       		.uleb128 0x8
 889 00a4 3A       		.uleb128 0x3a
 890 00a5 0B       		.uleb128 0xb
 891 00a6 3B       		.uleb128 0x3b
 892 00a7 0B       		.uleb128 0xb
 893 00a8 49       		.uleb128 0x49
 894 00a9 13       		.uleb128 0x13
 895 00aa 38       		.uleb128 0x38
 896 00ab 0B       		.uleb128 0xb
 897 00ac 00       		.byte	0
 898 00ad 00       		.byte	0
 899 00ae 0F       		.uleb128 0xf
 900 00af 2E       		.uleb128 0x2e
 901 00b0 01       		.byte	0x1
 902 00b1 3F       		.uleb128 0x3f
 903 00b2 19       		.uleb128 0x19
 904 00b3 03       		.uleb128 0x3
 905 00b4 0E       		.uleb128 0xe
 906 00b5 3A       		.uleb128 0x3a
 907 00b6 0B       		.uleb128 0xb
 908 00b7 3B       		.uleb128 0x3b
 909 00b8 0B       		.uleb128 0xb
ARM GAS  /tmp/cc80iXCu.s 			page 17


 910 00b9 27       		.uleb128 0x27
 911 00ba 19       		.uleb128 0x19
 912 00bb 11       		.uleb128 0x11
 913 00bc 01       		.uleb128 0x1
 914 00bd 12       		.uleb128 0x12
 915 00be 06       		.uleb128 0x6
 916 00bf 40       		.uleb128 0x40
 917 00c0 18       		.uleb128 0x18
 918 00c1 9742     		.uleb128 0x2117
 919 00c3 19       		.uleb128 0x19
 920 00c4 01       		.uleb128 0x1
 921 00c5 13       		.uleb128 0x13
 922 00c6 00       		.byte	0
 923 00c7 00       		.byte	0
 924 00c8 10       		.uleb128 0x10
 925 00c9 05       		.uleb128 0x5
 926 00ca 00       		.byte	0
 927 00cb 03       		.uleb128 0x3
 928 00cc 08       		.uleb128 0x8
 929 00cd 3A       		.uleb128 0x3a
 930 00ce 0B       		.uleb128 0xb
 931 00cf 3B       		.uleb128 0x3b
 932 00d0 0B       		.uleb128 0xb
 933 00d1 49       		.uleb128 0x49
 934 00d2 13       		.uleb128 0x13
 935 00d3 02       		.uleb128 0x2
 936 00d4 18       		.uleb128 0x18
 937 00d5 00       		.byte	0
 938 00d6 00       		.byte	0
 939 00d7 11       		.uleb128 0x11
 940 00d8 05       		.uleb128 0x5
 941 00d9 00       		.byte	0
 942 00da 03       		.uleb128 0x3
 943 00db 0E       		.uleb128 0xe
 944 00dc 3A       		.uleb128 0x3a
 945 00dd 0B       		.uleb128 0xb
 946 00de 3B       		.uleb128 0x3b
 947 00df 0B       		.uleb128 0xb
 948 00e0 49       		.uleb128 0x49
 949 00e1 13       		.uleb128 0x13
 950 00e2 02       		.uleb128 0x2
 951 00e3 18       		.uleb128 0x18
 952 00e4 00       		.byte	0
 953 00e5 00       		.byte	0
 954 00e6 12       		.uleb128 0x12
 955 00e7 34       		.uleb128 0x34
 956 00e8 00       		.byte	0
 957 00e9 03       		.uleb128 0x3
 958 00ea 08       		.uleb128 0x8
 959 00eb 3A       		.uleb128 0x3a
 960 00ec 0B       		.uleb128 0xb
 961 00ed 3B       		.uleb128 0x3b
 962 00ee 0B       		.uleb128 0xb
 963 00ef 49       		.uleb128 0x49
 964 00f0 13       		.uleb128 0x13
 965 00f1 02       		.uleb128 0x2
 966 00f2 18       		.uleb128 0x18
ARM GAS  /tmp/cc80iXCu.s 			page 18


 967 00f3 00       		.byte	0
 968 00f4 00       		.byte	0
 969 00f5 13       		.uleb128 0x13
 970 00f6 2E       		.uleb128 0x2e
 971 00f7 01       		.byte	0x1
 972 00f8 3F       		.uleb128 0x3f
 973 00f9 19       		.uleb128 0x19
 974 00fa 03       		.uleb128 0x3
 975 00fb 0E       		.uleb128 0xe
 976 00fc 3A       		.uleb128 0x3a
 977 00fd 0B       		.uleb128 0xb
 978 00fe 3B       		.uleb128 0x3b
 979 00ff 0B       		.uleb128 0xb
 980 0100 27       		.uleb128 0x27
 981 0101 19       		.uleb128 0x19
 982 0102 11       		.uleb128 0x11
 983 0103 01       		.uleb128 0x1
 984 0104 12       		.uleb128 0x12
 985 0105 06       		.uleb128 0x6
 986 0106 40       		.uleb128 0x40
 987 0107 18       		.uleb128 0x18
 988 0108 9742     		.uleb128 0x2117
 989 010a 19       		.uleb128 0x19
 990 010b 00       		.byte	0
 991 010c 00       		.byte	0
 992 010d 00       		.byte	0
 993              		.section	.debug_aranges,"",%progbits
 994 0000 2C000000 		.4byte	0x2c
 995 0004 0200     		.2byte	0x2
 996 0006 00000000 		.4byte	.Ldebug_info0
 997 000a 04       		.byte	0x4
 998 000b 00       		.byte	0
 999 000c 0000     		.2byte	0
 1000 000e 0000     		.2byte	0
 1001 0010 00000000 		.4byte	.LFB7
 1002 0014 90000000 		.4byte	.LFE7-.LFB7
 1003 0018 00000000 		.4byte	.LFB8
 1004 001c 68000000 		.4byte	.LFE8-.LFB8
 1005 0020 00000000 		.4byte	.LFB9
 1006 0024 54000000 		.4byte	.LFE9-.LFB9
 1007 0028 00000000 		.4byte	0
 1008 002c 00000000 		.4byte	0
 1009              		.section	.debug_ranges,"",%progbits
 1010              	.Ldebug_ranges0:
 1011 0000 00000000 		.4byte	.LFB7
 1012 0004 90000000 		.4byte	.LFE7
 1013 0008 00000000 		.4byte	.LFB8
 1014 000c 68000000 		.4byte	.LFE8
 1015 0010 00000000 		.4byte	.LFB9
 1016 0014 54000000 		.4byte	.LFE9
 1017 0018 00000000 		.4byte	0
 1018 001c 00000000 		.4byte	0
 1019              		.section	.debug_line,"",%progbits
 1020              	.Ldebug_line0:
 1021 0000 E9000000 		.section	.debug_str,"MS",%progbits,1
 1021      0200A300 
 1021      00000201 
ARM GAS  /tmp/cc80iXCu.s 			page 19


 1021      FB0E0D00 
 1021      01010101 
 1022              	.LASF43:
 1023 0000 7072696F 		.ascii	"prio\000"
 1023      00
 1024              	.LASF19:
 1025 0005 49435052 		.ascii	"ICPR\000"
 1025      00
 1026              	.LASF48:
 1027 000a 2E2E2F2E 		.ascii	"../..//os/ports/common/ARMCMx/nvic.c\000"
 1027      2E2F2F6F 
 1027      732F706F 
 1027      7274732F 
 1027      636F6D6D 
 1028              	.LASF39:
 1029 002f 4D4D4652 		.ascii	"MMFR\000"
 1029      00
 1030              	.LASF11:
 1031 0034 5F426F6F 		.ascii	"_Bool\000"
 1031      6C00
 1032              	.LASF45:
 1033 003a 6E766963 		.ascii	"nvicDisableVector\000"
 1033      44697361 
 1033      626C6556 
 1033      6563746F 
 1033      7200
 1034              	.LASF26:
 1035 004c 434D785F 		.ascii	"CMx_NVIC\000"
 1035      4E564943 
 1035      00
 1036              	.LASF29:
 1037 0055 56544F52 		.ascii	"VTOR\000"
 1037      00
 1038              	.LASF3:
 1039 005a 73686F72 		.ascii	"short int\000"
 1039      7420696E 
 1039      7400
 1040              	.LASF15:
 1041 0064 49434552 		.ascii	"ICER\000"
 1041      00
 1042              	.LASF12:
 1043 0069 494F5245 		.ascii	"IOREG32\000"
 1043      47333200 
 1044              	.LASF2:
 1045 0071 756E7369 		.ascii	"unsigned char\000"
 1045      676E6564 
 1045      20636861 
 1045      7200
 1046              	.LASF14:
 1047 007f 756E7573 		.ascii	"unused1\000"
 1047      65643100 
 1048              	.LASF16:
 1049 0087 756E7573 		.ascii	"unused2\000"
 1049      65643200 
 1050              	.LASF18:
 1051 008f 756E7573 		.ascii	"unused3\000"
 1051      65643300 
ARM GAS  /tmp/cc80iXCu.s 			page 20


 1052              	.LASF20:
 1053 0097 756E7573 		.ascii	"unused4\000"
 1053      65643400 
 1054              	.LASF22:
 1055 009f 756E7573 		.ascii	"unused5\000"
 1055      65643500 
 1056              	.LASF23:
 1057 00a7 756E7573 		.ascii	"unused6\000"
 1057      65643600 
 1058              	.LASF4:
 1059 00af 73686F72 		.ascii	"short unsigned int\000"
 1059      7420756E 
 1059      7369676E 
 1059      65642069 
 1059      6E7400
 1060              	.LASF33:
 1061 00c2 43465352 		.ascii	"CFSR\000"
 1061      00
 1062              	.LASF34:
 1063 00c7 48465352 		.ascii	"HFSR\000"
 1063      00
 1064              	.LASF6:
 1065 00cc 6C6F6E67 		.ascii	"long unsigned int\000"
 1065      20756E73 
 1065      69676E65 
 1065      6420696E 
 1065      7400
 1066              	.LASF40:
 1067 00de 43504143 		.ascii	"CPACR\000"
 1067      5200
 1068              	.LASF24:
 1069 00e4 53544952 		.ascii	"STIR\000"
 1069      00
 1070              	.LASF9:
 1071 00e9 5F5F7569 		.ascii	"__uint32_t\000"
 1071      6E743332 
 1071      5F7400
 1072              	.LASF0:
 1073 00f4 756E7369 		.ascii	"unsigned int\000"
 1073      676E6564 
 1073      20696E74 
 1073      00
 1074              	.LASF17:
 1075 0101 49535052 		.ascii	"ISPR\000"
 1075      00
 1076              	.LASF35:
 1077 0106 44465352 		.ascii	"DFSR\000"
 1077      00
 1078              	.LASF8:
 1079 010b 6C6F6E67 		.ascii	"long long unsigned int\000"
 1079      206C6F6E 
 1079      6720756E 
 1079      7369676E 
 1079      65642069 
 1080              	.LASF28:
 1081 0122 49435352 		.ascii	"ICSR\000"
 1081      00
ARM GAS  /tmp/cc80iXCu.s 			page 21


 1082              	.LASF41:
 1083 0127 434D785F 		.ascii	"CMx_SCB\000"
 1083      53434200 
 1084              	.LASF30:
 1085 012f 41495243 		.ascii	"AIRCR\000"
 1085      5200
 1086              	.LASF37:
 1087 0135 42464152 		.ascii	"BFAR\000"
 1087      00
 1088              	.LASF46:
 1089 013a 68616E64 		.ascii	"handler\000"
 1089      6C657200 
 1090              	.LASF25:
 1091 0142 73697A65 		.ascii	"sizetype\000"
 1091      74797065 
 1091      00
 1092              	.LASF7:
 1093 014b 6C6F6E67 		.ascii	"long long int\000"
 1093      206C6F6E 
 1093      6720696E 
 1093      7400
 1094              	.LASF27:
 1095 0159 43505549 		.ascii	"CPUID\000"
 1095      4400
 1096              	.LASF42:
 1097 015f 63686172 		.ascii	"char\000"
 1097      00
 1098              	.LASF13:
 1099 0164 49534552 		.ascii	"ISER\000"
 1099      00
 1100              	.LASF38:
 1101 0169 41465352 		.ascii	"AFSR\000"
 1101      00
 1102              	.LASF47:
 1103 016e 474E5520 		.ascii	"GNU C 4.8.2 -mcpu=cortex-m4 -mno-thumb-interwork -m"
 1103      4320342E 
 1103      382E3220 
 1103      2D6D6370 
 1103      753D636F 
 1104 01a1 7468756D 		.ascii	"thumb -ggdb -O0 -fomit-frame-pointer -falign-functi"
 1104      62202D67 
 1104      67646220 
 1104      2D4F3020 
 1104      2D666F6D 
 1105 01d4 6F6E733D 		.ascii	"ons=16 -ffunction-sections -fdata-sections -fno-com"
 1105      3136202D 
 1105      6666756E 
 1105      6374696F 
 1105      6E2D7365 
 1106 0207 6D6F6E00 		.ascii	"mon\000"
 1107              	.LASF36:
 1108 020b 4D4D4641 		.ascii	"MMFAR\000"
 1108      5200
 1109              	.LASF49:
 1110 0211 2F686F6D 		.ascii	"/home/ece497/vbox-shared/mplayer/ChibiOS-RT-stable_"
 1110      652F6563 
 1110      65343937 
ARM GAS  /tmp/cc80iXCu.s 			page 22


 1110      2F76626F 
 1110      782D7368 
 1111 0244 322E362E 		.ascii	"2.6.x/demos/SDCARD\000"
 1111      782F6465 
 1111      6D6F732F 
 1111      53444341 
 1111      524400
 1112              	.LASF32:
 1113 0257 53484353 		.ascii	"SHCSR\000"
 1113      5200
 1114              	.LASF10:
 1115 025d 75696E74 		.ascii	"uint32_t\000"
 1115      33325F74 
 1115      00
 1116              	.LASF5:
 1117 0266 6C6F6E67 		.ascii	"long int\000"
 1117      20696E74 
 1117      00
 1118              	.LASF31:
 1119 026f 53485052 		.ascii	"SHPR\000"
 1119      00
 1120              	.LASF1:
 1121 0274 7369676E 		.ascii	"signed char\000"
 1121      65642063 
 1121      68617200 
 1122              	.LASF50:
 1123 0280 6E766963 		.ascii	"nvicSetSystemHandlerPriority\000"
 1123      53657453 
 1123      79737465 
 1123      6D48616E 
 1123      646C6572 
 1124              	.LASF21:
 1125 029d 49414252 		.ascii	"IABR\000"
 1125      00
 1126              	.LASF44:
 1127 02a2 6E766963 		.ascii	"nvicEnableVector\000"
 1127      456E6162 
 1127      6C655665 
 1127      63746F72 
 1127      00
 1128              		.ident	"GCC: (Arch Repository) 4.8.2"
ARM GAS  /tmp/cc80iXCu.s 			page 23


DEFINED SYMBOLS
                            *ABS*:0000000000000000 nvic.c
     /tmp/cc80iXCu.s:19     .text.nvicEnableVector:0000000000000000 $t
     /tmp/cc80iXCu.s:25     .text.nvicEnableVector:0000000000000000 nvicEnableVector
     /tmp/cc80iXCu.s:97     .text.nvicDisableVector:0000000000000000 $t
     /tmp/cc80iXCu.s:103    .text.nvicDisableVector:0000000000000000 nvicDisableVector
     /tmp/cc80iXCu.s:159    .text.nvicSetSystemHandlerPriority:0000000000000000 $t
     /tmp/cc80iXCu.s:165    .text.nvicSetSystemHandlerPriority:0000000000000000 nvicSetSystemHandlerPriority
                     .debug_frame:0000000000000010 $d

NO UNDEFINED SYMBOLS
