ARM GAS  /tmp/cc80iXCu.s 			page 1


   1              		.syntax unified
   2              		.cpu cortex-m4
   3              		.fpu softvfp
   4              		.eabi_attribute 20, 1
   5              		.eabi_attribute 21, 1
   6              		.eabi_attribute 23, 3
   7              		.eabi_attribute 24, 1
   8              		.eabi_attribute 25, 1
   9              		.eabi_attribute 26, 1
  10              		.eabi_attribute 30, 6
  11              		.eabi_attribute 34, 1
  12              		.eabi_attribute 18, 4
  13              		.thumb
  14              		.file	"nvic.c"
  15              		.text
  16              	.Ltext0:
  17              		.cfi_sections	.debug_frame
  18              		.section	.text.nvicEnableVector,"ax",%progbits
  19              		.align	2
  20              		.p2align 4,,15
  21              		.global	nvicEnableVector
  22              		.thumb
  23              		.thumb_func
  24              		.type	nvicEnableVector, %function
  25              	nvicEnableVector:
  26              	.LFB7:
  27              		.file 1 "../..//os/ports/common/ARMCMx/nvic.c"
  28              		.loc 1 46 0
  29              		.cfi_startproc
  30              		@ args = 0, pretend = 0, frame = 16
  31              		@ frame_needed = 0, uses_anonymous_args = 0
  32              		@ link register save eliminated.
  33 0000 10B4     		push	{r4}
  34              		.cfi_def_cfa_offset 4
  35              		.cfi_offset 4, -4
  36 0002 85B0     		sub	sp, sp, #20
  37              		.cfi_def_cfa_offset 24
  38 0004 0190     		str	r0, [sp, #4]
  39 0006 0091     		str	r1, [sp]
  40              		.loc 1 47 0
  41 0008 019B     		ldr	r3, [sp, #4]
  42 000a 03F00303 		and	r3, r3, #3
  43 000e DB00     		lsls	r3, r3, #3
  44 0010 0393     		str	r3, [sp, #12]
  45              		.loc 1 49 0
  46 0012 4FF46143 		mov	r3, #57600
  47 0016 CEF20003 		movt	r3, 57344
  48 001a 019A     		ldr	r2, [sp, #4]
  49 001c 9008     		lsrs	r0, r2, #2
  50 001e 4FF46142 		mov	r2, #57600
  51 0022 CEF20002 		movt	r2, 57344
  52 0026 0199     		ldr	r1, [sp, #4]
  53 0028 8908     		lsrs	r1, r1, #2
  54 002a C031     		adds	r1, r1, #192
  55 002c 52F82110 		ldr	r1, [r2, r1, lsl #2]
  56 0030 039A     		ldr	r2, [sp, #12]
  57 0032 FF24     		movs	r4, #255
ARM GAS  /tmp/cc80iXCu.s 			page 2


  58 0034 04FA02F2 		lsl	r2, r4, r2
  59 0038 D243     		mvns	r2, r2
  60 003a 1140     		ands	r1, r1, r2
  61 003c 039A     		ldr	r2, [sp, #12]
  62 003e 009C     		ldr	r4, [sp]
  63 0040 04FA02F2 		lsl	r2, r4, r2
  64 0044 1143     		orrs	r1, r1, r2
  65 0046 00F1C002 		add	r2, r0, #192
  66 004a 43F82210 		str	r1, [r3, r2, lsl #2]
  67              		.loc 1 50 0
  68 004e 4FF46143 		mov	r3, #57600
  69 0052 CEF20003 		movt	r3, 57344
  70 0056 019A     		ldr	r2, [sp, #4]
  71 0058 5209     		lsrs	r2, r2, #5
  72 005a 0199     		ldr	r1, [sp, #4]
  73 005c 01F01F01 		and	r1, r1, #31
  74 0060 0120     		movs	r0, #1
  75 0062 00FA01F1 		lsl	r1, r0, r1
  76 0066 6032     		adds	r2, r2, #96
  77 0068 43F82210 		str	r1, [r3, r2, lsl #2]
  78              		.loc 1 51 0
  79 006c 4FF46143 		mov	r3, #57600
  80 0070 CEF20003 		movt	r3, 57344
  81 0074 019A     		ldr	r2, [sp, #4]
  82 0076 5209     		lsrs	r2, r2, #5
  83 0078 0199     		ldr	r1, [sp, #4]
  84 007a 01F01F01 		and	r1, r1, #31
  85 007e 0120     		movs	r0, #1
  86 0080 00FA01F1 		lsl	r1, r0, r1
  87 0084 43F82210 		str	r1, [r3, r2, lsl #2]
  88              		.loc 1 52 0
  89 0088 05B0     		add	sp, sp, #20
  90              		@ sp needed
  91 008a 5DF8044B 		ldr	r4, [sp], #4
  92 008e 7047     		bx	lr
  93              		.cfi_endproc
  94              	.LFE7:
  95              		.size	nvicEnableVector, .-nvicEnableVector
  96              		.section	.text.nvicDisableVector,"ax",%progbits
  97              		.align	2
  98              		.p2align 4,,15
  99              		.global	nvicDisableVector
 100              		.thumb
 101              		.thumb_func
 102              		.type	nvicDisableVector, %function
 103              	nvicDisableVector:
 104              	.LFB8:
 105              		.loc 1 60 0
 106              		.cfi_startproc
 107              		@ args = 0, pretend = 0, frame = 16
 108              		@ frame_needed = 0, uses_anonymous_args = 0
 109              		@ link register save eliminated.
 110 0000 10B4     		push	{r4}
 111              		.cfi_def_cfa_offset 4
 112              		.cfi_offset 4, -4
 113 0002 85B0     		sub	sp, sp, #20
 114              		.cfi_def_cfa_offset 24
ARM GAS  /tmp/cc80iXCu.s 			page 3


 115 0004 0190     		str	r0, [sp, #4]
 116              		.loc 1 61 0
 117 0006 019B     		ldr	r3, [sp, #4]
 118 0008 03F00303 		and	r3, r3, #3
 119 000c DB00     		lsls	r3, r3, #3
 120 000e 0393     		str	r3, [sp, #12]
 121              		.loc 1 63 0
 122 0010 4FF46143 		mov	r3, #57600
 123 0014 CEF20003 		movt	r3, 57344
 124 0018 019A     		ldr	r2, [sp, #4]
 125 001a 5209     		lsrs	r2, r2, #5
 126 001c 0199     		ldr	r1, [sp, #4]
 127 001e 01F01F01 		and	r1, r1, #31
 128 0022 0120     		movs	r0, #1
 129 0024 00FA01F1 		lsl	r1, r0, r1
 130 0028 2032     		adds	r2, r2, #32
 131 002a 43F82210 		str	r1, [r3, r2, lsl #2]
 132              		.loc 1 64 0
 133 002e 4FF46143 		mov	r3, #57600
 134 0032 CEF20003 		movt	r3, 57344
 135 0036 019A     		ldr	r2, [sp, #4]
 136 0038 9008     		lsrs	r0, r2, #2
 137 003a 4FF46142 		mov	r2, #57600
 138 003e CEF20002 		movt	r2, 57344
 139 0042 0199     		ldr	r1, [sp, #4]
 140 0044 8908     		lsrs	r1, r1, #2
 141 0046 C031     		adds	r1, r1, #192
 142 0048 52F82110 		ldr	r1, [r2, r1, lsl #2]
 143 004c 039A     		ldr	r2, [sp, #12]
 144 004e FF24     		movs	r4, #255
 145 0050 04FA02F2 		lsl	r2, r4, r2
 146 0054 D243     		mvns	r2, r2
 147 0056 1140     		ands	r1, r1, r2
 148 0058 00F1C002 		add	r2, r0, #192
 149 005c 43F82210 		str	r1, [r3, r2, lsl #2]
 150              		.loc 1 65 0
 151 0060 05B0     		add	sp, sp, #20
 152              		@ sp needed
 153 0062 5DF8044B 		ldr	r4, [sp], #4
 154 0066 7047     		bx	lr
 155              		.cfi_endproc
 156              	.LFE8:
 157              		.size	nvicDisableVector, .-nvicDisableVector
 158 0068 AFF30080 		.section	.text.nvicSetSystemHandlerPriority,"ax",%progbits
 158      AFF30080 
 159              		.align	2
 160              		.p2align 4,,15
 161              		.global	nvicSetSystemHandlerPriority
 162              		.thumb
 163              		.thumb_func
 164              		.type	nvicSetSystemHandlerPriority, %function
 165              	nvicSetSystemHandlerPriority:
 166              	.LFB9:
 167              		.loc 1 74 0
 168              		.cfi_startproc
 169              		@ args = 0, pretend = 0, frame = 16
 170              		@ frame_needed = 0, uses_anonymous_args = 0
ARM GAS  /tmp/cc80iXCu.s 			page 4


 171              		@ link register save eliminated.
 172 0000 10B4     		push	{r4}
 173              		.cfi_def_cfa_offset 4
 174              		.cfi_offset 4, -4
 175 0002 85B0     		sub	sp, sp, #20
 176              		.cfi_def_cfa_offset 24
 177 0004 0190     		str	r0, [sp, #4]
 178 0006 0091     		str	r1, [sp]
 179              		.loc 1 75 0
 180 0008 019B     		ldr	r3, [sp, #4]
 181 000a 03F00303 		and	r3, r3, #3
 182 000e DB00     		lsls	r3, r3, #3
 183 0010 0393     		str	r3, [sp, #12]
 184              		.loc 1 77 0
 185 0012 4FF46D43 		mov	r3, #60672
 186 0016 CEF20003 		movt	r3, 57344
 187 001a 019A     		ldr	r2, [sp, #4]
 188 001c 9008     		lsrs	r0, r2, #2
 189 001e 4FF46D42 		mov	r2, #60672
 190 0022 CEF20002 		movt	r2, 57344
 191 0026 0199     		ldr	r1, [sp, #4]
 192 0028 8908     		lsrs	r1, r1, #2
 193 002a 0631     		adds	r1, r1, #6
 194 002c 52F82110 		ldr	r1, [r2, r1, lsl #2]
 195              		.loc 1 78 0
 196 0030 039A     		ldr	r2, [sp, #12]
 197 0032 FF24     		movs	r4, #255
 198 0034 04FA02F2 		lsl	r2, r4, r2
 199 0038 D243     		mvns	r2, r2
 200              		.loc 1 77 0
 201 003a 1140     		ands	r1, r1, r2
 202              		.loc 1 78 0
 203 003c 039A     		ldr	r2, [sp, #12]
 204 003e 009C     		ldr	r4, [sp]
 205 0040 04FA02F2 		lsl	r2, r4, r2
 206 0044 1143     		orrs	r1, r1, r2
 207              		.loc 1 77 0
 208 0046 821D     		adds	r2, r0, #6
 209 0048 43F82210 		str	r1, [r3, r2, lsl #2]
 210              		.loc 1 79 0
 211 004c 05B0     		add	sp, sp, #20
 212              		@ sp needed
 213 004e 5DF8044B 		ldr	r4, [sp], #4
 214 0052 7047     		bx	lr
 215              		.cfi_endproc
 216              	.LFE9:
 217              		.size	nvicSetSystemHandlerPriority, .-nvicSetSystemHandlerPriority
 218 0054 AFF30080 		.text
 218      AFF30080 
 218      AFF30080 
 219              	.Letext0:
 220              		.file 2 "/usr/arm-none-eabi/include/machine/_default_types.h"
 221              		.file 3 "/usr/arm-none-eabi/include/stdint.h"
 222              		.file 4 "../..//os/ports/common/ARMCMx/nvic.h"