ARM GAS  /tmp/ccKGkBBp.s 			page 1


   1              		.syntax unified
   2              		.cpu cortex-m4
   3              		.fpu softvfp
   4              		.eabi_attribute 20, 1
   5              		.eabi_attribute 21, 1
   6              		.eabi_attribute 23, 3
   7              		.eabi_attribute 24, 1
   8              		.eabi_attribute 25, 1
   9              		.eabi_attribute 26, 1
  10              		.eabi_attribute 30, 6
  11              		.eabi_attribute 34, 1
  12              		.eabi_attribute 18, 4
  13              		.thumb
  14              		.file	"pal.c"
  15              		.text
  16              	.Ltext0:
  17              		.cfi_sections	.debug_frame
  18              		.section	.rodata
  19              		.align	2
  20              	.LC0:
  21 0000 2270616C 		.ascii	"\"palReadBus\"()\000"
  21      52656164 
  21      42757322 
  21      282900
  22              		.section	.text.palReadBus,"ax",%progbits
  23              		.align	2
  24              		.p2align 4,,15
  25              		.global	palReadBus
  26              		.thumb
  27              		.thumb_func
  28              		.type	palReadBus, %function
  29              	palReadBus:
  30              	.LFB118:
  31              		.file 1 "../..//os/hal/src/pal.c"
  32              		.loc 1 77 0
  33              		.cfi_startproc
  34              		@ args = 0, pretend = 0, frame = 8
  35              		@ frame_needed = 0, uses_anonymous_args = 0
  36 0000 00B5     		push	{lr}
  37              		.cfi_def_cfa_offset 4
  38              		.cfi_offset 14, -4
  39 0002 83B0     		sub	sp, sp, #12
  40              		.cfi_def_cfa_offset 16
  41 0004 0190     		str	r0, [sp, #4]
  42              		.loc 1 79 0
  43 0006 019B     		ldr	r3, [sp, #4]
  44 0008 002B     		cmp	r3, #0
  45 000a 03D0     		beq	.L2
  46              		.loc 1 79 0 is_stmt 0 discriminator 2
  47 000c 019B     		ldr	r3, [sp, #4]
  48 000e 9B68     		ldr	r3, [r3, #8]
  49 0010 0F2B     		cmp	r3, #15
  50 0012 05D9     		bls	.L3
  51              	.L2:
  52              		.loc 1 79 0 discriminator 1
  53 0014 40F20000 		movw	r0, #:lower16:.LC0
  54 0018 C0F20000 		movt	r0, #:upper16:.LC0
ARM GAS  /tmp/ccKGkBBp.s 			page 2


  55 001c FFF7FEFF 		bl	chDbgPanic
  56              	.L3:
  57              		.loc 1 82 0 is_stmt 1
  58 0020 019B     		ldr	r3, [sp, #4]
  59 0022 1B68     		ldr	r3, [r3]
  60 0024 1A69     		ldr	r2, [r3, #16]
  61 0026 019B     		ldr	r3, [sp, #4]
  62 0028 9B68     		ldr	r3, [r3, #8]
  63 002a DA40     		lsrs	r2, r2, r3
  64 002c 019B     		ldr	r3, [sp, #4]
  65 002e 5B68     		ldr	r3, [r3, #4]
  66 0030 1340     		ands	r3, r3, r2
  67              		.loc 1 83 0
  68 0032 1846     		mov	r0, r3
  69 0034 03B0     		add	sp, sp, #12
  70              		@ sp needed
  71 0036 5DF804FB 		ldr	pc, [sp], #4
  72              		.cfi_endproc
  73              	.LFE118:
  74              		.size	palReadBus, .-palReadBus
  75 003a 00BFAFF3 		.section	.rodata
  75      0080
  76 000f 00       		.align	2
  77              	.LC1:
  78 0010 2270616C 		.ascii	"\"palWriteBus\"()\000"
  78      57726974 
  78      65427573 
  78      22282900 
  79              		.section	.text.palWriteBus,"ax",%progbits
  80              		.align	2
  81              		.p2align 4,,15
  82              		.global	palWriteBus
  83              		.thumb
  84              		.thumb_func
  85              		.type	palWriteBus, %function
  86              	palWriteBus:
  87              	.LFB119:
  88              		.loc 1 103 0
  89              		.cfi_startproc
  90              		@ args = 0, pretend = 0, frame = 8
  91              		@ frame_needed = 0, uses_anonymous_args = 0
  92 0000 00B5     		push	{lr}
  93              		.cfi_def_cfa_offset 4
  94              		.cfi_offset 14, -4
  95 0002 83B0     		sub	sp, sp, #12
  96              		.cfi_def_cfa_offset 16
  97 0004 0190     		str	r0, [sp, #4]
  98 0006 0091     		str	r1, [sp]
  99              		.loc 1 105 0
 100 0008 019B     		ldr	r3, [sp, #4]
 101 000a 002B     		cmp	r3, #0
 102 000c 03D0     		beq	.L6
 103              		.loc 1 105 0 is_stmt 0 discriminator 2
 104 000e 019B     		ldr	r3, [sp, #4]
 105 0010 9B68     		ldr	r3, [r3, #8]
 106 0012 0F2B     		cmp	r3, #15
 107 0014 05D9     		bls	.L7
ARM GAS  /tmp/ccKGkBBp.s 			page 3


 108              	.L6:
 109              		.loc 1 105 0 discriminator 1
 110 0016 40F20000 		movw	r0, #:lower16:.LC1
 111 001a C0F20000 		movt	r0, #:upper16:.LC1
 112 001e FFF7FEFF 		bl	chDbgPanic
 113              	.L7:
 114              		.loc 1 108 0 is_stmt 1
 115 0022 019B     		ldr	r3, [sp, #4]
 116 0024 1B68     		ldr	r3, [r3]
 117 0026 009A     		ldr	r2, [sp]
 118 0028 D143     		mvns	r1, r2
 119 002a 019A     		ldr	r2, [sp, #4]
 120 002c 5268     		ldr	r2, [r2, #4]
 121 002e 1140     		ands	r1, r1, r2
 122 0030 019A     		ldr	r2, [sp, #4]
 123 0032 9268     		ldr	r2, [r2, #8]
 124 0034 1032     		adds	r2, r2, #16
 125 0036 9140     		lsls	r1, r1, r2
 126 0038 019A     		ldr	r2, [sp, #4]
 127 003a 5068     		ldr	r0, [r2, #4]
 128 003c 009A     		ldr	r2, [sp]
 129 003e 1040     		ands	r0, r0, r2
 130 0040 019A     		ldr	r2, [sp, #4]
 131 0042 9268     		ldr	r2, [r2, #8]
 132 0044 00FA02F2 		lsl	r2, r0, r2
 133 0048 0A43     		orrs	r2, r2, r1
 134 004a 9A61     		str	r2, [r3, #24]
 135              		.loc 1 109 0
 136 004c 03B0     		add	sp, sp, #12
 137              		@ sp needed
 138 004e 5DF804FB 		ldr	pc, [sp], #4
 139              		.cfi_endproc
 140              	.LFE119:
 141              		.size	palWriteBus, .-palWriteBus
 142 0052 00BFAFF3 		.section	.rodata
 142      0080AFF3 
 142      0080AFF3 
 142      0080
 143              		.align	2
 144              	.LC2:
 145 0020 2270616C 		.ascii	"\"palSetBusMode\"()\000"
 145      53657442 
 145      75734D6F 
 145      64652228 
 145      2900
 146 0032 0000     		.section	.text.palSetBusMode,"ax",%progbits
 147              		.align	2
 148              		.p2align 4,,15
 149              		.global	palSetBusMode
 150              		.thumb
 151              		.thumb_func
 152              		.type	palSetBusMode, %function
 153              	palSetBusMode:
 154              	.LFB120:
 155              		.loc 1 127 0
 156              		.cfi_startproc
 157              		@ args = 0, pretend = 0, frame = 8
ARM GAS  /tmp/ccKGkBBp.s 			page 4


 158              		@ frame_needed = 0, uses_anonymous_args = 0
 159 0000 00B5     		push	{lr}
 160              		.cfi_def_cfa_offset 4
 161              		.cfi_offset 14, -4
 162 0002 83B0     		sub	sp, sp, #12
 163              		.cfi_def_cfa_offset 16
 164 0004 0190     		str	r0, [sp, #4]
 165 0006 0091     		str	r1, [sp]
 166              		.loc 1 129 0
 167 0008 019B     		ldr	r3, [sp, #4]
 168 000a 002B     		cmp	r3, #0
 169 000c 03D0     		beq	.L9
 170              		.loc 1 129 0 is_stmt 0 discriminator 2
 171 000e 019B     		ldr	r3, [sp, #4]
 172 0010 9B68     		ldr	r3, [r3, #8]
 173 0012 0F2B     		cmp	r3, #15
 174 0014 05D9     		bls	.L10
 175              	.L9:
 176              		.loc 1 129 0 discriminator 1
 177 0016 40F20000 		movw	r0, #:lower16:.LC2
 178 001a C0F20000 		movt	r0, #:upper16:.LC2
 179 001e FFF7FEFF 		bl	chDbgPanic
 180              	.L10:
 181              		.loc 1 132 0 is_stmt 1
 182 0022 019B     		ldr	r3, [sp, #4]
 183 0024 1A68     		ldr	r2, [r3]
 184 0026 019B     		ldr	r3, [sp, #4]
 185 0028 5968     		ldr	r1, [r3, #4]
 186 002a 019B     		ldr	r3, [sp, #4]
 187 002c 9B68     		ldr	r3, [r3, #8]
 188 002e 01FA03F3 		lsl	r3, r1, r3
 189 0032 1046     		mov	r0, r2
 190 0034 1946     		mov	r1, r3
 191 0036 009A     		ldr	r2, [sp]
 192 0038 FFF7FEFF 		bl	_pal_lld_setgroupmode
 193              		.loc 1 133 0
 194 003c 03B0     		add	sp, sp, #12
 195              		@ sp needed
 196 003e 5DF804FB 		ldr	pc, [sp], #4
 197              		.cfi_endproc
 198              	.LFE120:
 199              		.size	palSetBusMode, .-palSetBusMode
 200 0042 00BFAFF3 		.text
 200      0080AFF3 
 200      0080AFF3 
 200      0080
 201              	.Letext0:
 202              		.file 2 "/usr/arm-none-eabi/include/machine/_default_types.h"
 203              		.file 3 "/usr/arm-none-eabi/include/stdint.h"
 204              		.file 4 "../..//os/hal/platforms/STM32/GPIOv2/pal_lld.h"
 205              		.file 5 "../..//os/hal/include/pal.h"
 206              		.file 6 "../..//os/ports/common/ARMCMx/CMSIS/include/core_cm4.h"
 207              		.section	.debug_info,"",%progbits
 208              	.Ldebug_info0:
 209 0000 9E020000 		.4byte	0x29e
 210 0004 0400     		.2byte	0x4
 211 0006 00000000 		.4byte	.Ldebug_abbrev0
ARM GAS  /tmp/ccKGkBBp.s 			page 5


 212 000a 04       		.byte	0x4
 213 000b 01       		.uleb128 0x1
 214 000c 42010000 		.4byte	.LASF40
 215 0010 01       		.byte	0x1
 216 0011 5D020000 		.4byte	.LASF41
 217 0015 F3010000 		.4byte	.LASF42
 218 0019 00000000 		.4byte	.Ldebug_ranges0+0
 219 001d 00000000 		.4byte	0
 220 0021 00000000 		.4byte	.Ldebug_line0
 221 0025 02       		.uleb128 0x2
 222 0026 04       		.byte	0x4
 223 0027 05       		.byte	0x5
 224 0028 696E7400 		.ascii	"int\000"
 225 002c 03       		.uleb128 0x3
 226 002d 04       		.byte	0x4
 227 002e 07       		.byte	0x7
 228 002f E8000000 		.4byte	.LASF0
 229 0033 03       		.uleb128 0x3
 230 0034 01       		.byte	0x1
 231 0035 06       		.byte	0x6
 232 0036 4B020000 		.4byte	.LASF1
 233 003a 03       		.uleb128 0x3
 234 003b 01       		.byte	0x1
 235 003c 08       		.byte	0x8
 236 003d 80000000 		.4byte	.LASF2
 237 0041 03       		.uleb128 0x3
 238 0042 02       		.byte	0x2
 239 0043 05       		.byte	0x5
 240 0044 44000000 		.4byte	.LASF3
 241 0048 04       		.uleb128 0x4
 242 0049 CA000000 		.4byte	.LASF5
 243 004d 02       		.byte	0x2
 244 004e 26       		.byte	0x26
 245 004f 53000000 		.4byte	0x53
 246 0053 03       		.uleb128 0x3
 247 0054 02       		.byte	0x2
 248 0055 07       		.byte	0x7
 249 0056 A5000000 		.4byte	.LASF4
 250 005a 04       		.uleb128 0x4
 251 005b 1C000000 		.4byte	.LASF6
 252 005f 02       		.byte	0x2
 253 0060 37       		.byte	0x37
 254 0061 65000000 		.4byte	0x65
 255 0065 03       		.uleb128 0x3
 256 0066 04       		.byte	0x4
 257 0067 05       		.byte	0x5
 258 0068 42020000 		.4byte	.LASF7
 259 006c 04       		.uleb128 0x4
 260 006d D5000000 		.4byte	.LASF8
 261 0071 02       		.byte	0x2
 262 0072 38       		.byte	0x38
 263 0073 77000000 		.4byte	0x77
 264 0077 03       		.uleb128 0x3
 265 0078 04       		.byte	0x4
 266 0079 07       		.byte	0x7
 267 007a 93000000 		.4byte	.LASF9
 268 007e 03       		.uleb128 0x3
ARM GAS  /tmp/ccKGkBBp.s 			page 6


 269 007f 08       		.byte	0x8
 270 0080 05       		.byte	0x5
 271 0081 23010000 		.4byte	.LASF10
 272 0085 03       		.uleb128 0x3
 273 0086 08       		.byte	0x8
 274 0087 07       		.byte	0x7
 275 0088 75020000 		.4byte	.LASF11
 276 008c 04       		.uleb128 0x4
 277 008d EA010000 		.4byte	.LASF12
 278 0091 03       		.byte	0x3
 279 0092 36       		.byte	0x36
 280 0093 48000000 		.4byte	0x48
 281 0097 04       		.uleb128 0x4
 282 0098 0C010000 		.4byte	.LASF13
 283 009c 03       		.byte	0x3
 284 009d 41       		.byte	0x41
 285 009e 5A000000 		.4byte	0x5a
 286 00a2 04       		.uleb128 0x4
 287 00a3 39020000 		.4byte	.LASF14
 288 00a7 03       		.byte	0x3
 289 00a8 42       		.byte	0x42
 290 00a9 6C000000 		.4byte	0x6c
 291 00ad 04       		.uleb128 0x4
 292 00ae 26000000 		.4byte	.LASF15
 293 00b2 03       		.byte	0x3
 294 00b3 60       		.byte	0x60
 295 00b4 2C000000 		.4byte	0x2c
 296 00b8 03       		.uleb128 0x3
 297 00b9 01       		.byte	0x1
 298 00ba 02       		.byte	0x2
 299 00bb 57020000 		.4byte	.LASF16
 300 00bf 05       		.uleb128 0x5
 301 00c0 A2000000 		.4byte	0xa2
 302 00c4 03       		.uleb128 0x3
 303 00c5 04       		.byte	0x4
 304 00c6 07       		.byte	0x7
 305 00c7 14010000 		.4byte	.LASF17
 306 00cb 03       		.uleb128 0x3
 307 00cc 01       		.byte	0x1
 308 00cd 08       		.byte	0x8
 309 00ce 02010000 		.4byte	.LASF18
 310 00d2 05       		.uleb128 0x5
 311 00d3 97000000 		.4byte	0x97
 312 00d7 06       		.uleb128 0x6
 313 00d8 04       		.byte	0x4
 314 00d9 04       		.byte	0x4
 315 00da 96       		.byte	0x96
 316 00db F8000000 		.4byte	0xf8
 317 00df 07       		.uleb128 0x7
 318 00e0 73657400 		.ascii	"set\000"
 319 00e4 04       		.byte	0x4
 320 00e5 97       		.byte	0x97
 321 00e6 8C000000 		.4byte	0x8c
 322 00ea 00       		.byte	0
 323 00eb 08       		.uleb128 0x8
 324 00ec 05000000 		.4byte	.LASF19
 325 00f0 04       		.byte	0x4
ARM GAS  /tmp/ccKGkBBp.s 			page 7


 326 00f1 98       		.byte	0x98
 327 00f2 8C000000 		.4byte	0x8c
 328 00f6 02       		.byte	0x2
 329 00f7 00       		.byte	0
 330 00f8 09       		.uleb128 0x9
 331 00f9 04       		.byte	0x4
 332 00fa 04       		.byte	0x4
 333 00fb 94       		.byte	0x94
 334 00fc 13010000 		.4byte	0x113
 335 0100 0A       		.uleb128 0xa
 336 0101 5700     		.ascii	"W\000"
 337 0103 04       		.byte	0x4
 338 0104 95       		.byte	0x95
 339 0105 A2000000 		.4byte	0xa2
 340 0109 0A       		.uleb128 0xa
 341 010a 4800     		.ascii	"H\000"
 342 010c 04       		.byte	0x4
 343 010d 99       		.byte	0x99
 344 010e D7000000 		.4byte	0xd7
 345 0112 00       		.byte	0
 346 0113 06       		.uleb128 0x6
 347 0114 28       		.byte	0x28
 348 0115 04       		.byte	0x4
 349 0116 8C       		.byte	0x8c
 350 0117 94010000 		.4byte	0x194
 351 011b 08       		.uleb128 0x8
 352 011c 0B000000 		.4byte	.LASF20
 353 0120 04       		.byte	0x4
 354 0121 8E       		.byte	0x8e
 355 0122 BF000000 		.4byte	0xbf
 356 0126 00       		.byte	0
 357 0127 08       		.uleb128 0x8
 358 0128 70000000 		.4byte	.LASF21
 359 012c 04       		.byte	0x4
 360 012d 8F       		.byte	0x8f
 361 012e BF000000 		.4byte	0xbf
 362 0132 04       		.byte	0x4
 363 0133 08       		.uleb128 0x8
 364 0134 E0000000 		.4byte	.LASF22
 365 0138 04       		.byte	0x4
 366 0139 90       		.byte	0x90
 367 013a BF000000 		.4byte	0xbf
 368 013e 08       		.byte	0x8
 369 013f 08       		.uleb128 0x8
 370 0140 1D010000 		.4byte	.LASF23
 371 0144 04       		.byte	0x4
 372 0145 91       		.byte	0x91
 373 0146 BF000000 		.4byte	0xbf
 374 014a 0C       		.byte	0xc
 375 014b 07       		.uleb128 0x7
 376 014c 49445200 		.ascii	"IDR\000"
 377 0150 04       		.byte	0x4
 378 0151 92       		.byte	0x92
 379 0152 BF000000 		.4byte	0xbf
 380 0156 10       		.byte	0x10
 381 0157 07       		.uleb128 0x7
 382 0158 4F445200 		.ascii	"ODR\000"
ARM GAS  /tmp/ccKGkBBp.s 			page 8


 383 015c 04       		.byte	0x4
 384 015d 93       		.byte	0x93
 385 015e BF000000 		.4byte	0xbf
 386 0162 14       		.byte	0x14
 387 0163 08       		.uleb128 0x8
 388 0164 33000000 		.4byte	.LASF24
 389 0168 04       		.byte	0x4
 390 0169 9A       		.byte	0x9a
 391 016a 94010000 		.4byte	0x194
 392 016e 18       		.byte	0x18
 393 016f 08       		.uleb128 0x8
 394 0170 00000000 		.4byte	.LASF25
 395 0174 04       		.byte	0x4
 396 0175 9B       		.byte	0x9b
 397 0176 BF000000 		.4byte	0xbf
 398 017a 1C       		.byte	0x1c
 399 017b 08       		.uleb128 0x8
 400 017c B8000000 		.4byte	.LASF26
 401 0180 04       		.byte	0x4
 402 0181 9C       		.byte	0x9c
 403 0182 BF000000 		.4byte	0xbf
 404 0186 20       		.byte	0x20
 405 0187 08       		.uleb128 0x8
 406 0188 8E000000 		.4byte	.LASF27
 407 018c 04       		.byte	0x4
 408 018d 9D       		.byte	0x9d
 409 018e BF000000 		.4byte	0xbf
 410 0192 24       		.byte	0x24
 411 0193 00       		.byte	0
 412 0194 05       		.uleb128 0x5
 413 0195 F8000000 		.4byte	0xf8
 414 0199 04       		.uleb128 0x4
 415 019a F5000000 		.4byte	.LASF28
 416 019e 04       		.byte	0x4
 417 019f 9E       		.byte	0x9e
 418 01a0 13010000 		.4byte	0x113
 419 01a4 04       		.uleb128 0x4
 420 01a5 63000000 		.4byte	.LASF29
 421 01a9 04       		.byte	0x4
 422 01aa F0       		.byte	0xf0
 423 01ab A2000000 		.4byte	0xa2
 424 01af 04       		.uleb128 0x4
 425 01b0 77000000 		.4byte	.LASF30
 426 01b4 04       		.byte	0x4
 427 01b5 F5       		.byte	0xf5
 428 01b6 A2000000 		.4byte	0xa2
 429 01ba 04       		.uleb128 0x4
 430 01bb DF010000 		.4byte	.LASF31
 431 01bf 04       		.byte	0x4
 432 01c0 FD       		.byte	0xfd
 433 01c1 C5010000 		.4byte	0x1c5
 434 01c5 0B       		.uleb128 0xb
 435 01c6 04       		.byte	0x4
 436 01c7 99010000 		.4byte	0x199
 437 01cb 06       		.uleb128 0x6
 438 01cc 0C       		.byte	0xc
 439 01cd 05       		.byte	0x5
ARM GAS  /tmp/ccKGkBBp.s 			page 9


 440 01ce 85       		.byte	0x85
 441 01cf F8010000 		.4byte	0x1f8
 442 01d3 08       		.uleb128 0x8
 443 01d4 5C000000 		.4byte	.LASF32
 444 01d8 05       		.byte	0x5
 445 01d9 89       		.byte	0x89
 446 01da BA010000 		.4byte	0x1ba
 447 01de 00       		.byte	0
 448 01df 08       		.uleb128 0x8
 449 01e0 31010000 		.4byte	.LASF33
 450 01e4 05       		.byte	0x5
 451 01e5 8F       		.byte	0x8f
 452 01e6 A4010000 		.4byte	0x1a4
 453 01ea 04       		.byte	0x4
 454 01eb 08       		.uleb128 0x8
 455 01ec 3B010000 		.4byte	.LASF34
 456 01f0 05       		.byte	0x5
 457 01f1 93       		.byte	0x93
 458 01f2 AD000000 		.4byte	0xad
 459 01f6 08       		.byte	0x8
 460 01f7 00       		.byte	0
 461 01f8 04       		.uleb128 0x4
 462 01f9 8C020000 		.4byte	.LASF35
 463 01fd 05       		.byte	0x5
 464 01fe 94       		.byte	0x94
 465 01ff CB010000 		.4byte	0x1cb
 466 0203 0C       		.uleb128 0xc
 467 0204 11000000 		.4byte	.LASF43
 468 0208 01       		.byte	0x1
 469 0209 4D       		.byte	0x4d
 470 020a A4010000 		.4byte	0x1a4
 471 020e 00000000 		.4byte	.LFB118
 472 0212 3A000000 		.4byte	.LFE118-.LFB118
 473 0216 01       		.uleb128 0x1
 474 0217 9C       		.byte	0x9c
 475 0218 2B020000 		.4byte	0x22b
 476 021c 0D       		.uleb128 0xd
 477 021d 62757300 		.ascii	"bus\000"
 478 0221 01       		.byte	0x1
 479 0222 4D       		.byte	0x4d
 480 0223 2B020000 		.4byte	0x22b
 481 0227 02       		.uleb128 0x2
 482 0228 91       		.byte	0x91
 483 0229 74       		.sleb128 -12
 484 022a 00       		.byte	0
 485 022b 0B       		.uleb128 0xb
 486 022c 04       		.byte	0x4
 487 022d F8010000 		.4byte	0x1f8
 488 0231 0E       		.uleb128 0xe
 489 0232 38000000 		.4byte	.LASF37
 490 0236 01       		.byte	0x1
 491 0237 67       		.byte	0x67
 492 0238 00000000 		.4byte	.LFB119
 493 023c 52000000 		.4byte	.LFE119-.LFB119
 494 0240 01       		.uleb128 0x1
 495 0241 9C       		.byte	0x9c
 496 0242 63020000 		.4byte	0x263
ARM GAS  /tmp/ccKGkBBp.s 			page 10


 497 0246 0D       		.uleb128 0xd
 498 0247 62757300 		.ascii	"bus\000"
 499 024b 01       		.byte	0x1
 500 024c 67       		.byte	0x67
 501 024d 2B020000 		.4byte	0x22b
 502 0251 02       		.uleb128 0x2
 503 0252 91       		.byte	0x91
 504 0253 74       		.sleb128 -12
 505 0254 0F       		.uleb128 0xf
 506 0255 36010000 		.4byte	.LASF36
 507 0259 01       		.byte	0x1
 508 025a 67       		.byte	0x67
 509 025b A4010000 		.4byte	0x1a4
 510 025f 02       		.uleb128 0x2
 511 0260 91       		.byte	0x91
 512 0261 70       		.sleb128 -16
 513 0262 00       		.byte	0
 514 0263 0E       		.uleb128 0xe
 515 0264 4E000000 		.4byte	.LASF38
 516 0268 01       		.byte	0x1
 517 0269 7F       		.byte	0x7f
 518 026a 00000000 		.4byte	.LFB120
 519 026e 42000000 		.4byte	.LFE120-.LFB120
 520 0272 01       		.uleb128 0x1
 521 0273 9C       		.byte	0x9c
 522 0274 95020000 		.4byte	0x295
 523 0278 0D       		.uleb128 0xd
 524 0279 62757300 		.ascii	"bus\000"
 525 027d 01       		.byte	0x1
 526 027e 7F       		.byte	0x7f
 527 027f 2B020000 		.4byte	0x22b
 528 0283 02       		.uleb128 0x2
 529 0284 91       		.byte	0x91
 530 0285 74       		.sleb128 -12
 531 0286 0F       		.uleb128 0xf
 532 0287 07010000 		.4byte	.LASF39
 533 028b 01       		.byte	0x1
 534 028c 7F       		.byte	0x7f
 535 028d AF010000 		.4byte	0x1af
 536 0291 02       		.uleb128 0x2
 537 0292 91       		.byte	0x91
 538 0293 70       		.sleb128 -16
 539 0294 00       		.byte	0
 540 0295 10       		.uleb128 0x10
 541 0296 BD000000 		.4byte	.LASF44
 542 029a 06       		.byte	0x6
 543 029b 9806     		.2byte	0x698
 544 029d D2000000 		.4byte	0xd2
 545 02a1 00       		.byte	0
 546              		.section	.debug_abbrev,"",%progbits
 547              	.Ldebug_abbrev0:
 548 0000 01       		.uleb128 0x1
 549 0001 11       		.uleb128 0x11
 550 0002 01       		.byte	0x1
 551 0003 25       		.uleb128 0x25
 552 0004 0E       		.uleb128 0xe
 553 0005 13       		.uleb128 0x13
ARM GAS  /tmp/ccKGkBBp.s 			page 11


 554 0006 0B       		.uleb128 0xb
 555 0007 03       		.uleb128 0x3
 556 0008 0E       		.uleb128 0xe
 557 0009 1B       		.uleb128 0x1b
 558 000a 0E       		.uleb128 0xe
 559 000b 55       		.uleb128 0x55
 560 000c 17       		.uleb128 0x17
 561 000d 11       		.uleb128 0x11
 562 000e 01       		.uleb128 0x1
 563 000f 10       		.uleb128 0x10
 564 0010 17       		.uleb128 0x17
 565 0011 00       		.byte	0
 566 0012 00       		.byte	0
 567 0013 02       		.uleb128 0x2
 568 0014 24       		.uleb128 0x24
 569 0015 00       		.byte	0
 570 0016 0B       		.uleb128 0xb
 571 0017 0B       		.uleb128 0xb
 572 0018 3E       		.uleb128 0x3e
 573 0019 0B       		.uleb128 0xb
 574 001a 03       		.uleb128 0x3
 575 001b 08       		.uleb128 0x8
 576 001c 00       		.byte	0
 577 001d 00       		.byte	0
 578 001e 03       		.uleb128 0x3
 579 001f 24       		.uleb128 0x24
 580 0020 00       		.byte	0
 581 0021 0B       		.uleb128 0xb
 582 0022 0B       		.uleb128 0xb
 583 0023 3E       		.uleb128 0x3e
 584 0024 0B       		.uleb128 0xb
 585 0025 03       		.uleb128 0x3
 586 0026 0E       		.uleb128 0xe
 587 0027 00       		.byte	0
 588 0028 00       		.byte	0
 589 0029 04       		.uleb128 0x4
 590 002a 16       		.uleb128 0x16
 591 002b 00       		.byte	0
 592 002c 03       		.uleb128 0x3
 593 002d 0E       		.uleb128 0xe
 594 002e 3A       		.uleb128 0x3a
 595 002f 0B       		.uleb128 0xb
 596 0030 3B       		.uleb128 0x3b
 597 0031 0B       		.uleb128 0xb
 598 0032 49       		.uleb128 0x49
 599 0033 13       		.uleb128 0x13
 600 0034 00       		.byte	0
 601 0035 00       		.byte	0
 602 0036 05       		.uleb128 0x5
 603 0037 35       		.uleb128 0x35
 604 0038 00       		.byte	0
 605 0039 49       		.uleb128 0x49
 606 003a 13       		.uleb128 0x13
 607 003b 00       		.byte	0
 608 003c 00       		.byte	0
 609 003d 06       		.uleb128 0x6
 610 003e 13       		.uleb128 0x13
ARM GAS  /tmp/ccKGkBBp.s 			page 12


 611 003f 01       		.byte	0x1
 612 0040 0B       		.uleb128 0xb
 613 0041 0B       		.uleb128 0xb
 614 0042 3A       		.uleb128 0x3a
 615 0043 0B       		.uleb128 0xb
 616 0044 3B       		.uleb128 0x3b
 617 0045 0B       		.uleb128 0xb
 618 0046 01       		.uleb128 0x1
 619 0047 13       		.uleb128 0x13
 620 0048 00       		.byte	0
 621 0049 00       		.byte	0
 622 004a 07       		.uleb128 0x7
 623 004b 0D       		.uleb128 0xd
 624 004c 00       		.byte	0
 625 004d 03       		.uleb128 0x3
 626 004e 08       		.uleb128 0x8
 627 004f 3A       		.uleb128 0x3a
 628 0050 0B       		.uleb128 0xb
 629 0051 3B       		.uleb128 0x3b
 630 0052 0B       		.uleb128 0xb
 631 0053 49       		.uleb128 0x49
 632 0054 13       		.uleb128 0x13
 633 0055 38       		.uleb128 0x38
 634 0056 0B       		.uleb128 0xb
 635 0057 00       		.byte	0
 636 0058 00       		.byte	0
 637 0059 08       		.uleb128 0x8
 638 005a 0D       		.uleb128 0xd
 639 005b 00       		.byte	0
 640 005c 03       		.uleb128 0x3
 641 005d 0E       		.uleb128 0xe
 642 005e 3A       		.uleb128 0x3a
 643 005f 0B       		.uleb128 0xb
 644 0060 3B       		.uleb128 0x3b
 645 0061 0B       		.uleb128 0xb
 646 0062 49       		.uleb128 0x49
 647 0063 13       		.uleb128 0x13
 648 0064 38       		.uleb128 0x38
 649 0065 0B       		.uleb128 0xb
 650 0066 00       		.byte	0
 651 0067 00       		.byte	0
 652 0068 09       		.uleb128 0x9
 653 0069 17       		.uleb128 0x17
 654 006a 01       		.byte	0x1
 655 006b 0B       		.uleb128 0xb
 656 006c 0B       		.uleb128 0xb
 657 006d 3A       		.uleb128 0x3a
 658 006e 0B       		.uleb128 0xb
 659 006f 3B       		.uleb128 0x3b
 660 0070 0B       		.uleb128 0xb
 661 0071 01       		.uleb128 0x1
 662 0072 13       		.uleb128 0x13
 663 0073 00       		.byte	0
 664 0074 00       		.byte	0
 665 0075 0A       		.uleb128 0xa
 666 0076 0D       		.uleb128 0xd
 667 0077 00       		.byte	0
ARM GAS  /tmp/ccKGkBBp.s 			page 13


 668 0078 03       		.uleb128 0x3
 669 0079 08       		.uleb128 0x8
 670 007a 3A       		.uleb128 0x3a
 671 007b 0B       		.uleb128 0xb
 672 007c 3B       		.uleb128 0x3b
 673 007d 0B       		.uleb128 0xb
 674 007e 49       		.uleb128 0x49
 675 007f 13       		.uleb128 0x13
 676 0080 00       		.byte	0
 677 0081 00       		.byte	0
 678 0082 0B       		.uleb128 0xb
 679 0083 0F       		.uleb128 0xf
 680 0084 00       		.byte	0
 681 0085 0B       		.uleb128 0xb
 682 0086 0B       		.uleb128 0xb
 683 0087 49       		.uleb128 0x49
 684 0088 13       		.uleb128 0x13
 685 0089 00       		.byte	0
 686 008a 00       		.byte	0
 687 008b 0C       		.uleb128 0xc
 688 008c 2E       		.uleb128 0x2e
 689 008d 01       		.byte	0x1
 690 008e 3F       		.uleb128 0x3f
 691 008f 19       		.uleb128 0x19
 692 0090 03       		.uleb128 0x3
 693 0091 0E       		.uleb128 0xe
 694 0092 3A       		.uleb128 0x3a
 695 0093 0B       		.uleb128 0xb
 696 0094 3B       		.uleb128 0x3b
 697 0095 0B       		.uleb128 0xb
 698 0096 27       		.uleb128 0x27
 699 0097 19       		.uleb128 0x19
 700 0098 49       		.uleb128 0x49
 701 0099 13       		.uleb128 0x13
 702 009a 11       		.uleb128 0x11
 703 009b 01       		.uleb128 0x1
 704 009c 12       		.uleb128 0x12
 705 009d 06       		.uleb128 0x6
 706 009e 40       		.uleb128 0x40
 707 009f 18       		.uleb128 0x18
 708 00a0 9642     		.uleb128 0x2116
 709 00a2 19       		.uleb128 0x19
 710 00a3 01       		.uleb128 0x1
 711 00a4 13       		.uleb128 0x13
 712 00a5 00       		.byte	0
 713 00a6 00       		.byte	0
 714 00a7 0D       		.uleb128 0xd
 715 00a8 05       		.uleb128 0x5
 716 00a9 00       		.byte	0
 717 00aa 03       		.uleb128 0x3
 718 00ab 08       		.uleb128 0x8
 719 00ac 3A       		.uleb128 0x3a
 720 00ad 0B       		.uleb128 0xb
 721 00ae 3B       		.uleb128 0x3b
 722 00af 0B       		.uleb128 0xb
 723 00b0 49       		.uleb128 0x49
 724 00b1 13       		.uleb128 0x13
ARM GAS  /tmp/ccKGkBBp.s 			page 14


 725 00b2 02       		.uleb128 0x2
 726 00b3 18       		.uleb128 0x18
 727 00b4 00       		.byte	0
 728 00b5 00       		.byte	0
 729 00b6 0E       		.uleb128 0xe
 730 00b7 2E       		.uleb128 0x2e
 731 00b8 01       		.byte	0x1
 732 00b9 3F       		.uleb128 0x3f
 733 00ba 19       		.uleb128 0x19
 734 00bb 03       		.uleb128 0x3
 735 00bc 0E       		.uleb128 0xe
 736 00bd 3A       		.uleb128 0x3a
 737 00be 0B       		.uleb128 0xb
 738 00bf 3B       		.uleb128 0x3b
 739 00c0 0B       		.uleb128 0xb
 740 00c1 27       		.uleb128 0x27
 741 00c2 19       		.uleb128 0x19
 742 00c3 11       		.uleb128 0x11
 743 00c4 01       		.uleb128 0x1
 744 00c5 12       		.uleb128 0x12
 745 00c6 06       		.uleb128 0x6
 746 00c7 40       		.uleb128 0x40
 747 00c8 18       		.uleb128 0x18
 748 00c9 9642     		.uleb128 0x2116
 749 00cb 19       		.uleb128 0x19
 750 00cc 01       		.uleb128 0x1
 751 00cd 13       		.uleb128 0x13
 752 00ce 00       		.byte	0
 753 00cf 00       		.byte	0
 754 00d0 0F       		.uleb128 0xf
 755 00d1 05       		.uleb128 0x5
 756 00d2 00       		.byte	0
 757 00d3 03       		.uleb128 0x3
 758 00d4 0E       		.uleb128 0xe
 759 00d5 3A       		.uleb128 0x3a
 760 00d6 0B       		.uleb128 0xb
 761 00d7 3B       		.uleb128 0x3b
 762 00d8 0B       		.uleb128 0xb
 763 00d9 49       		.uleb128 0x49
 764 00da 13       		.uleb128 0x13
 765 00db 02       		.uleb128 0x2
 766 00dc 18       		.uleb128 0x18
 767 00dd 00       		.byte	0
 768 00de 00       		.byte	0
 769 00df 10       		.uleb128 0x10
 770 00e0 34       		.uleb128 0x34
 771 00e1 00       		.byte	0
 772 00e2 03       		.uleb128 0x3
 773 00e3 0E       		.uleb128 0xe
 774 00e4 3A       		.uleb128 0x3a
 775 00e5 0B       		.uleb128 0xb
 776 00e6 3B       		.uleb128 0x3b
 777 00e7 05       		.uleb128 0x5
 778 00e8 49       		.uleb128 0x49
 779 00e9 13       		.uleb128 0x13
 780 00ea 3F       		.uleb128 0x3f
 781 00eb 19       		.uleb128 0x19
ARM GAS  /tmp/ccKGkBBp.s 			page 15


 782 00ec 3C       		.uleb128 0x3c
 783 00ed 19       		.uleb128 0x19
 784 00ee 00       		.byte	0
 785 00ef 00       		.byte	0
 786 00f0 00       		.byte	0
 787              		.section	.debug_aranges,"",%progbits
 788 0000 2C000000 		.4byte	0x2c
 789 0004 0200     		.2byte	0x2
 790 0006 00000000 		.4byte	.Ldebug_info0
 791 000a 04       		.byte	0x4
 792 000b 00       		.byte	0
 793 000c 0000     		.2byte	0
 794 000e 0000     		.2byte	0
 795 0010 00000000 		.4byte	.LFB118
 796 0014 3A000000 		.4byte	.LFE118-.LFB118
 797 0018 00000000 		.4byte	.LFB119
 798 001c 52000000 		.4byte	.LFE119-.LFB119
 799 0020 00000000 		.4byte	.LFB120
 800 0024 42000000 		.4byte	.LFE120-.LFB120
 801 0028 00000000 		.4byte	0
 802 002c 00000000 		.4byte	0
 803              		.section	.debug_ranges,"",%progbits
 804              	.Ldebug_ranges0:
 805 0000 00000000 		.4byte	.LFB118
 806 0004 3A000000 		.4byte	.LFE118
 807 0008 00000000 		.4byte	.LFB119
 808 000c 52000000 		.4byte	.LFE119
 809 0010 00000000 		.4byte	.LFB120
 810 0014 42000000 		.4byte	.LFE120
 811 0018 00000000 		.4byte	0
 812 001c 00000000 		.4byte	0
 813              		.section	.debug_line,"",%progbits
 814              	.Ldebug_line0:
 815 0000 7B010000 		.section	.debug_str,"MS",%progbits,1
 815      02001701 
 815      00000201 
 815      FB0E0D00 
 815      01010101 
 816              	.LASF25:
 817 0000 4C434B52 		.ascii	"LCKR\000"
 817      00
 818              	.LASF19:
 819 0005 636C6561 		.ascii	"clear\000"
 819      7200
 820              	.LASF20:
 821 000b 4D4F4445 		.ascii	"MODER\000"
 821      5200
 822              	.LASF43:
 823 0011 70616C52 		.ascii	"palReadBus\000"
 823      65616442 
 823      757300
 824              	.LASF6:
 825 001c 5F5F696E 		.ascii	"__int32_t\000"
 825      7433325F 
 825      7400
 826              	.LASF15:
 827 0026 75696E74 		.ascii	"uint_fast8_t\000"
ARM GAS  /tmp/ccKGkBBp.s 			page 16


 827      5F666173 
 827      74385F74 
 827      00
 828              	.LASF24:
 829 0033 42535252 		.ascii	"BSRR\000"
 829      00
 830              	.LASF37:
 831 0038 70616C57 		.ascii	"palWriteBus\000"
 831      72697465 
 831      42757300 
 832              	.LASF3:
 833 0044 73686F72 		.ascii	"short int\000"
 833      7420696E 
 833      7400
 834              	.LASF38:
 835 004e 70616C53 		.ascii	"palSetBusMode\000"
 835      65744275 
 835      734D6F64 
 835      6500
 836              	.LASF32:
 837 005c 706F7274 		.ascii	"portid\000"
 837      696400
 838              	.LASF29:
 839 0063 696F706F 		.ascii	"ioportmask_t\000"
 839      72746D61 
 839      736B5F74 
 839      00
 840              	.LASF21:
 841 0070 4F545950 		.ascii	"OTYPER\000"
 841      455200
 842              	.LASF30:
 843 0077 696F6D6F 		.ascii	"iomode_t\000"
 843      64655F74 
 843      00
 844              	.LASF2:
 845 0080 756E7369 		.ascii	"unsigned char\000"
 845      676E6564 
 845      20636861 
 845      7200
 846              	.LASF27:
 847 008e 41465248 		.ascii	"AFRH\000"
 847      00
 848              	.LASF9:
 849 0093 6C6F6E67 		.ascii	"long unsigned int\000"
 849      20756E73 
 849      69676E65 
 849      6420696E 
 849      7400
 850              	.LASF4:
 851 00a5 73686F72 		.ascii	"short unsigned int\000"
 851      7420756E 
 851      7369676E 
 851      65642069 
 851      6E7400
 852              	.LASF26:
 853 00b8 4146524C 		.ascii	"AFRL\000"
 853      00
ARM GAS  /tmp/ccKGkBBp.s 			page 17


 854              	.LASF44:
 855 00bd 49544D5F 		.ascii	"ITM_RxBuffer\000"
 855      52784275 
 855      66666572 
 855      00
 856              	.LASF5:
 857 00ca 5F5F7569 		.ascii	"__uint16_t\000"
 857      6E743136 
 857      5F7400
 858              	.LASF8:
 859 00d5 5F5F7569 		.ascii	"__uint32_t\000"
 859      6E743332 
 859      5F7400
 860              	.LASF22:
 861 00e0 4F535045 		.ascii	"OSPEEDR\000"
 861      45445200 
 862              	.LASF0:
 863 00e8 756E7369 		.ascii	"unsigned int\000"
 863      676E6564 
 863      20696E74 
 863      00
 864              	.LASF28:
 865 00f5 4750494F 		.ascii	"GPIO_TypeDef\000"
 865      5F547970 
 865      65446566 
 865      00
 866              	.LASF18:
 867 0102 63686172 		.ascii	"char\000"
 867      00
 868              	.LASF39:
 869 0107 6D6F6465 		.ascii	"mode\000"
 869      00
 870              	.LASF13:
 871 010c 696E7433 		.ascii	"int32_t\000"
 871      325F7400 
 872              	.LASF17:
 873 0114 73697A65 		.ascii	"sizetype\000"
 873      74797065 
 873      00
 874              	.LASF23:
 875 011d 50555044 		.ascii	"PUPDR\000"
 875      5200
 876              	.LASF10:
 877 0123 6C6F6E67 		.ascii	"long long int\000"
 877      206C6F6E 
 877      6720696E 
 877      7400
 878              	.LASF33:
 879 0131 6D61736B 		.ascii	"mask\000"
 879      00
 880              	.LASF36:
 881 0136 62697473 		.ascii	"bits\000"
 881      00
 882              	.LASF34:
 883 013b 6F666673 		.ascii	"offset\000"
 883      657400
 884              	.LASF40:
ARM GAS  /tmp/ccKGkBBp.s 			page 18


 885 0142 474E5520 		.ascii	"GNU C 4.8.2 -mcpu=cortex-m4 -mno-thumb-interwork -m"
 885      4320342E 
 885      382E3220 
 885      2D6D6370 
 885      753D636F 
 886 0175 7468756D 		.ascii	"thumb -ggdb -O0 -fomit-frame-pointer -falign-functi"
 886      62202D67 
 886      67646220 
 886      2D4F3020 
 886      2D666F6D 
 887 01a8 6F6E733D 		.ascii	"ons=16 -ffunction-sections -fdata-sections -fno-com"
 887      3136202D 
 887      6666756E 
 887      6374696F 
 887      6E2D7365 
 888 01db 6D6F6E00 		.ascii	"mon\000"
 889              	.LASF31:
 890 01df 696F706F 		.ascii	"ioportid_t\000"
 890      72746964 
 890      5F7400
 891              	.LASF12:
 892 01ea 75696E74 		.ascii	"uint16_t\000"
 892      31365F74 
 892      00
 893              	.LASF42:
 894 01f3 2F686F6D 		.ascii	"/home/ece497/vbox-shared/mplayer/ChibiOS-RT-stable_"
 894      652F6563 
 894      65343937 
 894      2F76626F 
 894      782D7368 
 895 0226 322E362E 		.ascii	"2.6.x/demos/SDCARD\000"
 895      782F6465 
 895      6D6F732F 
 895      53444341 
 895      524400
 896              	.LASF14:
 897 0239 75696E74 		.ascii	"uint32_t\000"
 897      33325F74 
 897      00
 898              	.LASF7:
 899 0242 6C6F6E67 		.ascii	"long int\000"
 899      20696E74 
 899      00
 900              	.LASF1:
 901 024b 7369676E 		.ascii	"signed char\000"
 901      65642063 
 901      68617200 
 902              	.LASF16:
 903 0257 5F426F6F 		.ascii	"_Bool\000"
 903      6C00
 904              	.LASF41:
 905 025d 2E2E2F2E 		.ascii	"../..//os/hal/src/pal.c\000"
 905      2E2F2F6F 
 905      732F6861 
 905      6C2F7372 
 905      632F7061 
 906              	.LASF11:
ARM GAS  /tmp/ccKGkBBp.s 			page 19


 907 0275 6C6F6E67 		.ascii	"long long unsigned int\000"
 907      206C6F6E 
 907      6720756E 
 907      7369676E 
 907      65642069 
 908              	.LASF35:
 909 028c 494F4275 		.ascii	"IOBus\000"
 909      7300
 910              		.ident	"GCC: (Arch Repository) 4.8.2"
ARM GAS  /tmp/ccKGkBBp.s 			page 20


DEFINED SYMBOLS
                            *ABS*:0000000000000000 pal.c
     /tmp/ccKGkBBp.s:19     .rodata:0000000000000000 $d
     /tmp/ccKGkBBp.s:20     .rodata:0000000000000000 .LC0
     /tmp/ccKGkBBp.s:23     .text.palReadBus:0000000000000000 $t
     /tmp/ccKGkBBp.s:29     .text.palReadBus:0000000000000000 palReadBus
     /tmp/ccKGkBBp.s:77     .rodata:0000000000000010 .LC1
     /tmp/ccKGkBBp.s:80     .text.palWriteBus:0000000000000000 $t
     /tmp/ccKGkBBp.s:86     .text.palWriteBus:0000000000000000 palWriteBus
     /tmp/ccKGkBBp.s:144    .rodata:0000000000000020 .LC2
     /tmp/ccKGkBBp.s:147    .text.palSetBusMode:0000000000000000 $t
     /tmp/ccKGkBBp.s:153    .text.palSetBusMode:0000000000000000 palSetBusMode
                     .debug_frame:0000000000000010 $d

UNDEFINED SYMBOLS
chDbgPanic
_pal_lld_setgroupmode
