ARM GAS  /tmp/ccKGkBBp.s 			page 1


   1              		.syntax unified
   2              		.cpu cortex-m4
   3              		.fpu softvfp
   4              		.eabi_attribute 20, 1
   5              		.eabi_attribute 21, 1
   6              		.eabi_attribute 23, 3
   7              		.eabi_attribute 24, 1
   8              		.eabi_attribute 25, 1
   9              		.eabi_attribute 26, 1
  10              		.eabi_attribute 30, 6
  11              		.eabi_attribute 34, 1
  12              		.eabi_attribute 18, 4
  13              		.thumb
  14              		.file	"pal.c"
  15              		.text
  16              	.Ltext0:
  17              		.cfi_sections	.debug_frame
  18              		.section	.rodata
  19              		.align	2
  20              	.LC0:
  21 0000 2270616C 		.ascii	"\"palReadBus\"()\000"
  21      52656164 
  21      42757322 
  21      282900
  22              		.section	.text.palReadBus,"ax",%progbits
  23              		.align	2
  24              		.p2align 4,,15
  25              		.global	palReadBus
  26              		.thumb
  27              		.thumb_func
  28              		.type	palReadBus, %function
  29              	palReadBus:
  30              	.LFB118:
  31              		.file 1 "../..//os/hal/src/pal.c"
  32              		.loc 1 77 0
  33              		.cfi_startproc
  34              		@ args = 0, pretend = 0, frame = 8
  35              		@ frame_needed = 0, uses_anonymous_args = 0
  36 0000 00B5     		push	{lr}
  37              		.cfi_def_cfa_offset 4
  38              		.cfi_offset 14, -4
  39 0002 83B0     		sub	sp, sp, #12
  40              		.cfi_def_cfa_offset 16
  41 0004 0190     		str	r0, [sp, #4]
  42              		.loc 1 79 0
  43 0006 019B     		ldr	r3, [sp, #4]
  44 0008 002B     		cmp	r3, #0
  45 000a 03D0     		beq	.L2
  46              		.loc 1 79 0 is_stmt 0 discriminator 2
  47 000c 019B     		ldr	r3, [sp, #4]
  48 000e 9B68     		ldr	r3, [r3, #8]
  49 0010 0F2B     		cmp	r3, #15
  50 0012 05D9     		bls	.L3
  51              	.L2:
  52              		.loc 1 79 0 discriminator 1
  53 0014 40F20000 		movw	r0, #:lower16:.LC0
  54 0018 C0F20000 		movt	r0, #:upper16:.LC0
ARM GAS  /tmp/ccKGkBBp.s 			page 2


  55 001c FFF7FEFF 		bl	chDbgPanic
  56              	.L3:
  57              		.loc 1 82 0 is_stmt 1
  58 0020 019B     		ldr	r3, [sp, #4]
  59 0022 1B68     		ldr	r3, [r3]
  60 0024 1A69     		ldr	r2, [r3, #16]
  61 0026 019B     		ldr	r3, [sp, #4]
  62 0028 9B68     		ldr	r3, [r3, #8]
  63 002a DA40     		lsrs	r2, r2, r3
  64 002c 019B     		ldr	r3, [sp, #4]
  65 002e 5B68     		ldr	r3, [r3, #4]
  66 0030 1340     		ands	r3, r3, r2
  67              		.loc 1 83 0
  68 0032 1846     		mov	r0, r3
  69 0034 03B0     		add	sp, sp, #12
  70              		@ sp needed
  71 0036 5DF804FB 		ldr	pc, [sp], #4
  72              		.cfi_endproc
  73              	.LFE118:
  74              		.size	palReadBus, .-palReadBus
  75 003a 00BFAFF3 		.section	.rodata
  75      0080
  76 000f 00       		.align	2
  77              	.LC1:
  78 0010 2270616C 		.ascii	"\"palWriteBus\"()\000"
  78      57726974 
  78      65427573 
  78      22282900 
  79              		.section	.text.palWriteBus,"ax",%progbits
  80              		.align	2
  81              		.p2align 4,,15
  82              		.global	palWriteBus
  83              		.thumb
  84              		.thumb_func
  85              		.type	palWriteBus, %function
  86              	palWriteBus:
  87              	.LFB119:
  88              		.loc 1 103 0
  89              		.cfi_startproc
  90              		@ args = 0, pretend = 0, frame = 8
  91              		@ frame_needed = 0, uses_anonymous_args = 0
  92 0000 00B5     		push	{lr}
  93              		.cfi_def_cfa_offset 4
  94              		.cfi_offset 14, -4
  95 0002 83B0     		sub	sp, sp, #12
  96              		.cfi_def_cfa_offset 16
  97 0004 0190     		str	r0, [sp, #4]
  98 0006 0091     		str	r1, [sp]
  99              		.loc 1 105 0
 100 0008 019B     		ldr	r3, [sp, #4]
 101 000a 002B     		cmp	r3, #0
 102 000c 03D0     		beq	.L6
 103              		.loc 1 105 0 is_stmt 0 discriminator 2
 104 000e 019B     		ldr	r3, [sp, #4]
 105 0010 9B68     		ldr	r3, [r3, #8]
 106 0012 0F2B     		cmp	r3, #15
 107 0014 05D9     		bls	.L7
ARM GAS  /tmp/ccKGkBBp.s 			page 3


 108              	.L6:
 109              		.loc 1 105 0 discriminator 1
 110 0016 40F20000 		movw	r0, #:lower16:.LC1
 111 001a C0F20000 		movt	r0, #:upper16:.LC1
 112 001e FFF7FEFF 		bl	chDbgPanic
 113              	.L7:
 114              		.loc 1 108 0 is_stmt 1
 115 0022 019B     		ldr	r3, [sp, #4]
 116 0024 1B68     		ldr	r3, [r3]
 117 0026 009A     		ldr	r2, [sp]
 118 0028 D143     		mvns	r1, r2
 119 002a 019A     		ldr	r2, [sp, #4]
 120 002c 5268     		ldr	r2, [r2, #4]
 121 002e 1140     		ands	r1, r1, r2
 122 0030 019A     		ldr	r2, [sp, #4]
 123 0032 9268     		ldr	r2, [r2, #8]
 124 0034 1032     		adds	r2, r2, #16
 125 0036 9140     		lsls	r1, r1, r2
 126 0038 019A     		ldr	r2, [sp, #4]
 127 003a 5068     		ldr	r0, [r2, #4]
 128 003c 009A     		ldr	r2, [sp]
 129 003e 1040     		ands	r0, r0, r2
 130 0040 019A     		ldr	r2, [sp, #4]
 131 0042 9268     		ldr	r2, [r2, #8]
 132 0044 00FA02F2 		lsl	r2, r0, r2
 133 0048 0A43     		orrs	r2, r2, r1
 134 004a 9A61     		str	r2, [r3, #24]
 135              		.loc 1 109 0
 136 004c 03B0     		add	sp, sp, #12
 137              		@ sp needed
 138 004e 5DF804FB 		ldr	pc, [sp], #4
 139              		.cfi_endproc
 140              	.LFE119:
 141              		.size	palWriteBus, .-palWriteBus
 142 0052 00BFAFF3 		.section	.rodata
 142      0080AFF3 
 142      0080AFF3 
 142      0080
 143              		.align	2
 144              	.LC2:
 145 0020 2270616C 		.ascii	"\"palSetBusMode\"()\000"
 145      53657442 
 145      75734D6F 
 145      64652228 
 145      2900
 146 0032 0000     		.section	.text.palSetBusMode,"ax",%progbits
 147              		.align	2
 148              		.p2align 4,,15
 149              		.global	palSetBusMode
 150              		.thumb
 151              		.thumb_func
 152              		.type	palSetBusMode, %function
 153              	palSetBusMode:
 154              	.LFB120:
 155              		.loc 1 127 0
 156              		.cfi_startproc
 157              		@ args = 0, pretend = 0, frame = 8
ARM GAS  /tmp/ccKGkBBp.s 			page 4


 158              		@ frame_needed = 0, uses_anonymous_args = 0
 159 0000 00B5     		push	{lr}
 160              		.cfi_def_cfa_offset 4
 161              		.cfi_offset 14, -4
 162 0002 83B0     		sub	sp, sp, #12
 163              		.cfi_def_cfa_offset 16
 164 0004 0190     		str	r0, [sp, #4]
 165 0006 0091     		str	r1, [sp]
 166              		.loc 1 129 0
 167 0008 019B     		ldr	r3, [sp, #4]
 168 000a 002B     		cmp	r3, #0
 169 000c 03D0     		beq	.L9
 170              		.loc 1 129 0 is_stmt 0 discriminator 2
 171 000e 019B     		ldr	r3, [sp, #4]
 172 0010 9B68     		ldr	r3, [r3, #8]
 173 0012 0F2B     		cmp	r3, #15
 174 0014 05D9     		bls	.L10
 175              	.L9:
 176              		.loc 1 129 0 discriminator 1
 177 0016 40F20000 		movw	r0, #:lower16:.LC2
 178 001a C0F20000 		movt	r0, #:upper16:.LC2
 179 001e FFF7FEFF 		bl	chDbgPanic
 180              	.L10:
 181              		.loc 1 132 0 is_stmt 1
 182 0022 019B     		ldr	r3, [sp, #4]
 183 0024 1A68     		ldr	r2, [r3]
 184 0026 019B     		ldr	r3, [sp, #4]
 185 0028 5968     		ldr	r1, [r3, #4]
 186 002a 019B     		ldr	r3, [sp, #4]
 187 002c 9B68     		ldr	r3, [r3, #8]
 188 002e 01FA03F3 		lsl	r3, r1, r3
 189 0032 1046     		mov	r0, r2
 190 0034 1946     		mov	r1, r3
 191 0036 009A     		ldr	r2, [sp]
 192 0038 FFF7FEFF 		bl	_pal_lld_setgroupmode
 193              		.loc 1 133 0
 194 003c 03B0     		add	sp, sp, #12
 195              		@ sp needed
 196 003e 5DF804FB 		ldr	pc, [sp], #4
 197              		.cfi_endproc
 198              	.LFE120:
 199              		.size	palSetBusMode, .-palSetBusMode
 200 0042 00BFAFF3 		.text
 200      0080AFF3 
 200      0080AFF3 
 200      0080
 201              	.Letext0:
 202              		.file 2 "/usr/arm-none-eabi/include/machine/_default_types.h"
 203              		.file 3 "/usr/arm-none-eabi/include/stdint.h"
 204              		.file 4 "../..//os/hal/platforms/STM32/GPIOv2/pal_lld.h"
 205              		.file 5 "../..//os/hal/include/pal.h"
 206              		.file 6 "../..//os/ports/common/ARMCMx/CMSIS/include/core_cm4.h"