ARM GAS  /tmp/ccMMQv7C.s 			page 1


   1              		.syntax unified
   2              		.cpu cortex-m4
   3              		.fpu softvfp
   4              		.eabi_attribute 20, 1
   5              		.eabi_attribute 21, 1
   6              		.eabi_attribute 23, 3
   7              		.eabi_attribute 24, 1
   8              		.eabi_attribute 25, 1
   9              		.eabi_attribute 26, 1
  10              		.eabi_attribute 30, 6
  11              		.eabi_attribute 34, 1
  12              		.eabi_attribute 18, 4
  13              		.thumb
  14              		.file	"sdc.c"
  15              		.text
  16              	.Ltext0:
  17              		.cfi_sections	.debug_frame
  18              		.section	.rodata.sdc_vmt,"a",%progbits
  19              		.align	2
  20              		.type	sdc_vmt, %object
  21              		.size	sdc_vmt, 32
  22              	sdc_vmt:
  23 0000 00000000 		.word	sdc_lld_is_card_inserted
  24 0004 00000000 		.word	sdc_lld_is_write_protected
  25 0008 00000000 		.word	sdcConnect
  26 000c 00000000 		.word	sdcDisconnect
  27 0010 00000000 		.word	sdcRead
  28 0014 00000000 		.word	sdcWrite
  29 0018 00000000 		.word	sdcSync
  30 001c 00000000 		.word	sdcGetInfo
  31              		.section	.text._sdc_wait_for_transfer_state,"ax",%progbits
  32              		.align	2
  33              		.p2align 4,,15
  34              		.global	_sdc_wait_for_transfer_state
  35              		.thumb
  36              		.thumb_func
  37              		.type	_sdc_wait_for_transfer_state, %function
  38              	_sdc_wait_for_transfer_state:
  39              	.LFB118:
  40              		.file 1 "../..//os/hal/src/sdc.c"
  41              		.loc 1 82 0
  42              		.cfi_startproc
  43              		@ args = 0, pretend = 0, frame = 16
  44              		@ frame_needed = 0, uses_anonymous_args = 0
  45 0000 00B5     		push	{lr}
  46              		.cfi_def_cfa_offset 4
  47              		.cfi_offset 14, -4
  48 0002 85B0     		sub	sp, sp, #20
  49              		.cfi_def_cfa_offset 24
  50 0004 0190     		str	r0, [sp, #4]
  51              	.L8:
  52              		.loc 1 86 0
  53 0006 019B     		ldr	r3, [sp, #4]
  54 0008 9A6B     		ldr	r2, [r3, #56]
  55 000a 03AB     		add	r3, sp, #12
  56 000c 0198     		ldr	r0, [sp, #4]
  57 000e 0D21     		movs	r1, #13
ARM GAS  /tmp/ccMMQv7C.s 			page 2


  58 0010 FFF7FEFF 		bl	sdc_lld_send_cmd_short_crc
  59 0014 0346     		mov	r3, r0
  60 0016 002B     		cmp	r3, #0
  61 0018 07D1     		bne	.L2
  62              		.loc 1 88 0
  63 001a 039A     		ldr	r2, [sp, #12]
  64 001c 4EF20803 		movw	r3, #57352
  65 0020 CFF6FF53 		movt	r3, 65023
  66 0024 1340     		ands	r3, r3, r2
  67              		.loc 1 87 0
  68 0026 002B     		cmp	r3, #0
  69 0028 01D0     		beq	.L3
  70              	.L2:
  71              		.loc 1 89 0
  72 002a 0123     		movs	r3, #1
  73 002c 11E0     		b	.L9
  74              	.L3:
  75              		.loc 1 90 0
  76 002e 039B     		ldr	r3, [sp, #12]
  77 0030 5B0A     		lsrs	r3, r3, #9
  78 0032 03F00F03 		and	r3, r3, #15
  79 0036 042B     		cmp	r3, #4
  80 0038 04D0     		beq	.L6
  81 003a 042B     		cmp	r3, #4
  82 003c 08D3     		bcc	.L5
  83 003e 072B     		cmp	r3, #7
  84 0040 06D8     		bhi	.L5
  85 0042 01E0     		b	.L10
  86              	.L6:
  87              		.loc 1 92 0
  88 0044 0023     		movs	r3, #0
  89 0046 04E0     		b	.L9
  90              	.L10:
  91              		.loc 1 97 0
  92 0048 0120     		movs	r0, #1
  93 004a FFF7FEFF 		bl	chThdSleep
  94              		.loc 1 105 0
  95 004e DAE7     		b	.L8
  96              	.L5:
  97              		.loc 1 103 0
  98 0050 0123     		movs	r3, #1
  99              	.L9:
 100              		.loc 1 108 0
 101 0052 1846     		mov	r0, r3
 102 0054 05B0     		add	sp, sp, #20
 103              		@ sp needed
 104 0056 5DF804FB 		ldr	pc, [sp], #4
 105              		.cfi_endproc
 106              	.LFE118:
 107              		.size	_sdc_wait_for_transfer_state, .-_sdc_wait_for_transfer_state
 108 005a 00BFAFF3 		.section	.text.sdcInit,"ax",%progbits
 108      0080
 109              		.align	2
 110              		.p2align 4,,15
 111              		.global	sdcInit
 112              		.thumb
 113              		.thumb_func
ARM GAS  /tmp/ccMMQv7C.s 			page 3


 114              		.type	sdcInit, %function
 115              	sdcInit:
 116              	.LFB119:
 117              		.loc 1 121 0
 118              		.cfi_startproc
 119              		@ args = 0, pretend = 0, frame = 0
 120              		@ frame_needed = 0, uses_anonymous_args = 0
 121 0000 08B5     		push	{r3, lr}
 122              		.cfi_def_cfa_offset 8
 123              		.cfi_offset 3, -8
 124              		.cfi_offset 14, -4
 125              		.loc 1 123 0
 126 0002 FFF7FEFF 		bl	sdc_lld_init
 127              		.loc 1 124 0
 128 0006 08BD     		pop	{r3, pc}
 129              		.cfi_endproc
 130              	.LFE119:
 131              		.size	sdcInit, .-sdcInit
 132 0008 AFF30080 		.section	.text.sdcObjectInit,"ax",%progbits
 132      AFF30080 
 133              		.align	2
 134              		.p2align 4,,15
 135              		.global	sdcObjectInit
 136              		.thumb
 137              		.thumb_func
 138              		.type	sdcObjectInit, %function
 139              	sdcObjectInit:
 140              	.LFB120:
 141              		.loc 1 133 0
 142              		.cfi_startproc
 143              		@ args = 0, pretend = 0, frame = 8
 144              		@ frame_needed = 0, uses_anonymous_args = 0
 145              		@ link register save eliminated.
 146 0000 82B0     		sub	sp, sp, #8
 147              		.cfi_def_cfa_offset 8
 148 0002 0190     		str	r0, [sp, #4]
 149              		.loc 1 135 0
 150 0004 019A     		ldr	r2, [sp, #4]
 151 0006 40F20003 		movw	r3, #:lower16:sdc_vmt
 152 000a C0F20003 		movt	r3, #:upper16:sdc_vmt
 153 000e 1360     		str	r3, [r2]
 154              		.loc 1 136 0
 155 0010 019B     		ldr	r3, [sp, #4]
 156 0012 0122     		movs	r2, #1
 157 0014 1A71     		strb	r2, [r3, #4]
 158              		.loc 1 137 0
 159 0016 019B     		ldr	r3, [sp, #4]
 160 0018 0022     		movs	r2, #0
 161 001a 5A63     		str	r2, [r3, #52]
 162              		.loc 1 138 0
 163 001c 019B     		ldr	r3, [sp, #4]
 164 001e 0022     		movs	r2, #0
 165 0020 DA62     		str	r2, [r3, #44]
 166              		.loc 1 139 0
 167 0022 019B     		ldr	r3, [sp, #4]
 168 0024 0022     		movs	r2, #0
 169 0026 9A62     		str	r2, [r3, #40]
ARM GAS  /tmp/ccMMQv7C.s 			page 4


 170              		.loc 1 140 0
 171 0028 02B0     		add	sp, sp, #8
 172              		@ sp needed
 173 002a 7047     		bx	lr
 174              		.cfi_endproc
 175              	.LFE120:
 176              		.size	sdcObjectInit, .-sdcObjectInit
 177 002c AFF30080 		.section	.rodata
 178              		.align	2
 179              	.LC0:
 180 0000 22736463 		.ascii	"\"sdcStart\"()\000"
 180      53746172 
 180      74222829 
 180      00
 181 000d 000000   		.align	2
 182              	.LC1:
 183 0010 73646353 		.ascii	"sdcStart(), #1\000"
 183      74617274 
 183      28292C20 
 183      233100
 184              		.section	.text.sdcStart,"ax",%progbits
 185              		.align	2
 186              		.p2align 4,,15
 187              		.global	sdcStart
 188              		.thumb
 189              		.thumb_func
 190              		.type	sdcStart, %function
 191              	sdcStart:
 192              	.LFB121:
 193              		.loc 1 152 0
 194              		.cfi_startproc
 195              		@ args = 0, pretend = 0, frame = 8
 196              		@ frame_needed = 0, uses_anonymous_args = 0
 197 0000 00B5     		push	{lr}
 198              		.cfi_def_cfa_offset 4
 199              		.cfi_offset 14, -4
 200 0002 83B0     		sub	sp, sp, #12
 201              		.cfi_def_cfa_offset 16
 202 0004 0190     		str	r0, [sp, #4]
 203 0006 0091     		str	r1, [sp]
 204              		.loc 1 154 0
 205 0008 019B     		ldr	r3, [sp, #4]
 206 000a 002B     		cmp	r3, #0
 207 000c 05D1     		bne	.L14
 208              		.loc 1 154 0 is_stmt 0 discriminator 1
 209 000e 40F20000 		movw	r0, #:lower16:.LC0
 210 0012 C0F20000 		movt	r0, #:upper16:.LC0
 211 0016 FFF7FEFF 		bl	chDbgPanic
 212              	.L14:
 213              	.LBB2:
 214              		.loc 1 156 0 is_stmt 1
 215 001a 2023     		movs	r3, #32
 216              	@ 156 "../..//os/hal/src/sdc.c" 1
 217 001c 83F31188 		msr     BASEPRI, r3
 218              	@ 0 "" 2
 219              		.thumb
 220              	.LBE2:
ARM GAS  /tmp/ccMMQv7C.s 			page 5


 221 0020 FFF7FEFF 		bl	dbg_check_lock
 222              		.loc 1 157 0
 223 0024 019B     		ldr	r3, [sp, #4]
 224 0026 1B79     		ldrb	r3, [r3, #4]	@ zero_extendqisi2
 225 0028 012B     		cmp	r3, #1
 226 002a 09D0     		beq	.L15
 227              		.loc 1 157 0 is_stmt 0 discriminator 1
 228 002c 019B     		ldr	r3, [sp, #4]
 229 002e 1B79     		ldrb	r3, [r3, #4]	@ zero_extendqisi2
 230 0030 022B     		cmp	r3, #2
 231 0032 05D0     		beq	.L15
 232 0034 40F20000 		movw	r0, #:lower16:.LC1
 233 0038 C0F20000 		movt	r0, #:upper16:.LC1
 234 003c FFF7FEFF 		bl	chDbgPanic
 235              	.L15:
 236              		.loc 1 159 0 is_stmt 1
 237 0040 019B     		ldr	r3, [sp, #4]
 238 0042 009A     		ldr	r2, [sp]
 239 0044 DA62     		str	r2, [r3, #44]
 240              		.loc 1 160 0
 241 0046 0198     		ldr	r0, [sp, #4]
 242 0048 FFF7FEFF 		bl	sdc_lld_start
 243              		.loc 1 161 0
 244 004c 019B     		ldr	r3, [sp, #4]
 245 004e 0222     		movs	r2, #2
 246 0050 1A71     		strb	r2, [r3, #4]
 247              		.loc 1 162 0
 248 0052 FFF7FEFF 		bl	dbg_check_unlock
 249              	.LBB3:
 250 0056 0023     		movs	r3, #0
 251              	@ 162 "../..//os/hal/src/sdc.c" 1
 252 0058 83F31188 		msr     BASEPRI, r3
 253              	@ 0 "" 2
 254              		.thumb
 255              	.LBE3:
 256              		.loc 1 163 0
 257 005c 03B0     		add	sp, sp, #12
 258              		@ sp needed
 259 005e 5DF804FB 		ldr	pc, [sp], #4
 260              		.cfi_endproc
 261              	.LFE121:
 262              		.size	sdcStart, .-sdcStart
 263 0062 00BFAFF3 		.section	.rodata
 263      0080AFF3 
 263      0080AFF3 
 263      0080
 264 001f 00       		.align	2
 265              	.LC2:
 266 0020 22736463 		.ascii	"\"sdcStop\"()\000"
 266      53746F70 
 266      22282900 
 267              		.align	2
 268              	.LC3:
 269 002c 73646353 		.ascii	"sdcStop(), #1\000"
 269      746F7028 
 269      292C2023 
 269      3100
ARM GAS  /tmp/ccMMQv7C.s 			page 6


 270              		.section	.text.sdcStop,"ax",%progbits
 271              		.align	2
 272              		.p2align 4,,15
 273              		.global	sdcStop
 274              		.thumb
 275              		.thumb_func
 276              		.type	sdcStop, %function
 277              	sdcStop:
 278              	.LFB122:
 279              		.loc 1 172 0
 280              		.cfi_startproc
 281              		@ args = 0, pretend = 0, frame = 8
 282              		@ frame_needed = 0, uses_anonymous_args = 0
 283 0000 00B5     		push	{lr}
 284              		.cfi_def_cfa_offset 4
 285              		.cfi_offset 14, -4
 286 0002 83B0     		sub	sp, sp, #12
 287              		.cfi_def_cfa_offset 16
 288 0004 0190     		str	r0, [sp, #4]
 289              		.loc 1 174 0
 290 0006 019B     		ldr	r3, [sp, #4]
 291 0008 002B     		cmp	r3, #0
 292 000a 05D1     		bne	.L17
 293              		.loc 1 174 0 is_stmt 0 discriminator 1
 294 000c 40F20000 		movw	r0, #:lower16:.LC2
 295 0010 C0F20000 		movt	r0, #:upper16:.LC2
 296 0014 FFF7FEFF 		bl	chDbgPanic
 297              	.L17:
 298              	.LBB4:
 299              		.loc 1 176 0 is_stmt 1
 300 0018 2023     		movs	r3, #32
 301              	@ 176 "../..//os/hal/src/sdc.c" 1
 302 001a 83F31188 		msr     BASEPRI, r3
 303              	@ 0 "" 2
 304              		.thumb
 305              	.LBE4:
 306 001e FFF7FEFF 		bl	dbg_check_lock
 307              		.loc 1 177 0
 308 0022 019B     		ldr	r3, [sp, #4]
 309 0024 1B79     		ldrb	r3, [r3, #4]	@ zero_extendqisi2
 310 0026 012B     		cmp	r3, #1
 311 0028 09D0     		beq	.L18
 312              		.loc 1 177 0 is_stmt 0 discriminator 1
 313 002a 019B     		ldr	r3, [sp, #4]
 314 002c 1B79     		ldrb	r3, [r3, #4]	@ zero_extendqisi2
 315 002e 022B     		cmp	r3, #2
 316 0030 05D0     		beq	.L18
 317 0032 40F20000 		movw	r0, #:lower16:.LC3
 318 0036 C0F20000 		movt	r0, #:upper16:.LC3
 319 003a FFF7FEFF 		bl	chDbgPanic
 320              	.L18:
 321              		.loc 1 179 0 is_stmt 1
 322 003e 0198     		ldr	r0, [sp, #4]
 323 0040 FFF7FEFF 		bl	sdc_lld_stop
 324              		.loc 1 180 0
 325 0044 019B     		ldr	r3, [sp, #4]
 326 0046 0122     		movs	r2, #1
ARM GAS  /tmp/ccMMQv7C.s 			page 7


 327 0048 1A71     		strb	r2, [r3, #4]
 328              		.loc 1 181 0
 329 004a FFF7FEFF 		bl	dbg_check_unlock
 330              	.LBB5:
 331 004e 0023     		movs	r3, #0
 332              	@ 181 "../..//os/hal/src/sdc.c" 1
 333 0050 83F31188 		msr     BASEPRI, r3
 334              	@ 0 "" 2
 335              		.thumb
 336              	.LBE5:
 337              		.loc 1 182 0
 338 0054 03B0     		add	sp, sp, #12
 339              		@ sp needed
 340 0056 5DF804FB 		ldr	pc, [sp], #4
 341              		.cfi_endproc
 342              	.LFE122:
 343              		.size	sdcStop, .-sdcStop
 344 005a 00BFAFF3 		.section	.rodata
 344      0080
 345 003a 0000     		.align	2
 346              	.LC4:
 347 003c 22736463 		.ascii	"\"sdcConnect\"()\000"
 347      436F6E6E 
 347      65637422 
 347      282900
 348 004b 00       		.align	2
 349              	.LC5:
 350 004c 6D6D6343 		.ascii	"mmcConnect(), #1\000"
 350      6F6E6E65 
 350      63742829 
 350      2C202331 
 350      00
 351              		.section	.text.sdcConnect,"ax",%progbits
 352              		.align	2
 353              		.p2align 4,,15
 354              		.global	sdcConnect
 355              		.thumb
 356              		.thumb_func
 357              		.type	sdcConnect, %function
 358              	sdcConnect:
 359              	.LFB123:
 360              		.loc 1 198 0
 361              		.cfi_startproc
 362              		@ args = 0, pretend = 0, frame = 24
 363              		@ frame_needed = 0, uses_anonymous_args = 0
 364 0000 00B5     		push	{lr}
 365              		.cfi_def_cfa_offset 4
 366              		.cfi_offset 14, -4
 367 0002 87B0     		sub	sp, sp, #28
 368              		.cfi_def_cfa_offset 32
 369 0004 0190     		str	r0, [sp, #4]
 370              		.loc 1 201 0
 371 0006 019B     		ldr	r3, [sp, #4]
 372 0008 002B     		cmp	r3, #0
 373 000a 05D1     		bne	.L20
 374              		.loc 1 201 0 is_stmt 0 discriminator 1
 375 000c 40F20000 		movw	r0, #:lower16:.LC4
ARM GAS  /tmp/ccMMQv7C.s 			page 8


 376 0010 C0F20000 		movt	r0, #:upper16:.LC4
 377 0014 FFF7FEFF 		bl	chDbgPanic
 378              	.L20:
 379              		.loc 1 202 0 is_stmt 1
 380 0018 019B     		ldr	r3, [sp, #4]
 381 001a 1B79     		ldrb	r3, [r3, #4]	@ zero_extendqisi2
 382 001c 022B     		cmp	r3, #2
 383 001e 09D0     		beq	.L21
 384              		.loc 1 202 0 is_stmt 0 discriminator 1
 385 0020 019B     		ldr	r3, [sp, #4]
 386 0022 1B79     		ldrb	r3, [r3, #4]	@ zero_extendqisi2
 387 0024 052B     		cmp	r3, #5
 388 0026 05D0     		beq	.L21
 389 0028 40F20000 		movw	r0, #:lower16:.LC5
 390 002c C0F20000 		movt	r0, #:upper16:.LC5
 391 0030 FFF7FEFF 		bl	chDbgPanic
 392              	.L21:
 393              		.loc 1 206 0 is_stmt 1
 394 0034 019B     		ldr	r3, [sp, #4]
 395 0036 0322     		movs	r2, #3
 396 0038 1A71     		strb	r2, [r3, #4]
 397              		.loc 1 209 0
 398 003a 0198     		ldr	r0, [sp, #4]
 399 003c FFF7FEFF 		bl	sdc_lld_start_clk
 400              		.loc 1 212 0
 401 0040 0198     		ldr	r0, [sp, #4]
 402 0042 0021     		movs	r1, #0
 403 0044 0022     		movs	r2, #0
 404 0046 FFF7FEFF 		bl	sdc_lld_send_cmd_none
 405              		.loc 1 215 0
 406 004a 03AB     		add	r3, sp, #12
 407 004c 0198     		ldr	r0, [sp, #4]
 408 004e 0821     		movs	r1, #8
 409 0050 4FF4D572 		mov	r2, #426
 410 0054 FFF7FEFF 		bl	sdc_lld_send_cmd_short_crc
 411 0058 0346     		mov	r3, r0
 412 005a 83F00103 		eor	r3, r3, #1
 413 005e DBB2     		uxtb	r3, r3
 414 0060 002B     		cmp	r3, #0
 415 0062 1DD0     		beq	.L22
 416              		.loc 1 217 0
 417 0064 019B     		ldr	r3, [sp, #4]
 418 0066 0122     		movs	r2, #1
 419 0068 1A63     		str	r2, [r3, #48]
 420              		.loc 1 219 0
 421 006a 039B     		ldr	r3, [sp, #12]
 422 006c 1B0A     		lsrs	r3, r3, #8
 423 006e 03F00F03 		and	r3, r3, #15
 424 0072 012B     		cmp	r3, #1
 425 0074 00D0     		beq	.L23
 426              		.loc 1 220 0
 427 0076 E1E0     		b	.L24
 428              	.L23:
 429              		.loc 1 221 0
 430 0078 03AB     		add	r3, sp, #12
 431 007a 0198     		ldr	r0, [sp, #4]
 432 007c 3721     		movs	r1, #55
ARM GAS  /tmp/ccMMQv7C.s 			page 9


 433 007e 0022     		movs	r2, #0
 434 0080 FFF7FEFF 		bl	sdc_lld_send_cmd_short_crc
 435 0084 0346     		mov	r3, r0
 436 0086 002B     		cmp	r3, #0
 437 0088 40F0D880 		bne	.L24
 438              		.loc 1 222 0 discriminator 1
 439 008c 039A     		ldr	r2, [sp, #12]
 440 008e 4EF20803 		movw	r3, #57352
 441 0092 CFF6FF53 		movt	r3, 65023
 442 0096 1340     		ands	r3, r3, r2
 443              		.loc 1 221 0 discriminator 1
 444 0098 002B     		cmp	r3, #0
 445 009a 40F0CF80 		bne	.L24
 446 009e 02E0     		b	.L25
 447              	.L22:
 448              		.loc 1 233 0
 449 00a0 019B     		ldr	r3, [sp, #4]
 450 00a2 0022     		movs	r2, #0
 451 00a4 1A63     		str	r2, [r3, #48]
 452              	.L25:
 453              	.LBB6:
 454              		.loc 1 248 0
 455 00a6 019B     		ldr	r3, [sp, #4]
 456 00a8 1B6B     		ldr	r3, [r3, #48]
 457 00aa 03F00F03 		and	r3, r3, #15
 458 00ae 012B     		cmp	r3, #1
 459 00b0 04D1     		bne	.L26
 460              		.loc 1 249 0
 461 00b2 0023     		movs	r3, #0
 462 00b4 CCF21003 		movt	r3, 49168
 463 00b8 0493     		str	r3, [sp, #16]
 464 00ba 03E0     		b	.L27
 465              	.L26:
 466              		.loc 1 251 0
 467 00bc 0023     		movs	r3, #0
 468 00be C8F21003 		movt	r3, 32784
 469 00c2 0493     		str	r3, [sp, #16]
 470              	.L27:
 471              		.loc 1 254 0
 472 00c4 0023     		movs	r3, #0
 473 00c6 0593     		str	r3, [sp, #20]
 474              	.L33:
 475              		.loc 1 256 0
 476 00c8 03AB     		add	r3, sp, #12
 477 00ca 0198     		ldr	r0, [sp, #4]
 478 00cc 3721     		movs	r1, #55
 479 00ce 0022     		movs	r2, #0
 480 00d0 FFF7FEFF 		bl	sdc_lld_send_cmd_short_crc
 481 00d4 0346     		mov	r3, r0
 482 00d6 002B     		cmp	r3, #0
 483 00d8 40F0B080 		bne	.L24
 484              		.loc 1 257 0 discriminator 1
 485 00dc 039A     		ldr	r2, [sp, #12]
 486 00de 4EF20803 		movw	r3, #57352
 487 00e2 CFF6FF53 		movt	r3, 65023
 488 00e6 1340     		ands	r3, r3, r2
 489              		.loc 1 256 0 discriminator 1
ARM GAS  /tmp/ccMMQv7C.s 			page 10


 490 00e8 002B     		cmp	r3, #0
 491 00ea 40F0A780 		bne	.L24
 492              		.loc 1 259 0
 493 00ee 03AB     		add	r3, sp, #12
 494 00f0 0198     		ldr	r0, [sp, #4]
 495 00f2 2921     		movs	r1, #41
 496 00f4 049A     		ldr	r2, [sp, #16]
 497 00f6 FFF7FEFF 		bl	sdc_lld_send_cmd_short
 498 00fa 0346     		mov	r3, r0
 499 00fc 002B     		cmp	r3, #0
 500 00fe 00D0     		beq	.L28
 501              		.loc 1 260 0
 502 0100 9CE0     		b	.L24
 503              	.L28:
 504              		.loc 1 261 0
 505 0102 039B     		ldr	r3, [sp, #12]
 506 0104 002B     		cmp	r3, #0
 507 0106 0CDA     		bge	.L29
 508              		.loc 1 262 0
 509 0108 039B     		ldr	r3, [sp, #12]
 510 010a 03F08043 		and	r3, r3, #1073741824
 511 010e 002B     		cmp	r3, #0
 512 0110 06D0     		beq	.L30
 513              		.loc 1 263 0
 514 0112 019B     		ldr	r3, [sp, #4]
 515 0114 1B6B     		ldr	r3, [r3, #48]
 516 0116 43F01002 		orr	r2, r3, #16
 517 011a 019B     		ldr	r3, [sp, #4]
 518 011c 1A63     		str	r2, [r3, #48]
 519              		.loc 1 264 0
 520 011e 0BE0     		b	.L31
 521              	.L30:
 522 0120 0AE0     		b	.L31
 523              	.L29:
 524              		.loc 1 266 0
 525 0122 059B     		ldr	r3, [sp, #20]
 526 0124 0133     		adds	r3, r3, #1
 527 0126 0593     		str	r3, [sp, #20]
 528 0128 059B     		ldr	r3, [sp, #20]
 529 012a 632B     		cmp	r3, #99
 530 012c 00D9     		bls	.L32
 531              		.loc 1 267 0
 532 012e 85E0     		b	.L24
 533              	.L32:
 534              		.loc 1 268 0
 535 0130 0A20     		movs	r0, #10
 536 0132 FFF7FEFF 		bl	chThdSleep
 537              		.loc 1 269 0
 538 0136 C7E7     		b	.L33
 539              	.L31:
 540              	.LBE6:
 541              		.loc 1 273 0
 542 0138 019B     		ldr	r3, [sp, #4]
 543 013a 0833     		adds	r3, r3, #8
 544 013c 0198     		ldr	r0, [sp, #4]
 545 013e 0221     		movs	r1, #2
 546 0140 0022     		movs	r2, #0
ARM GAS  /tmp/ccMMQv7C.s 			page 11


 547 0142 FFF7FEFF 		bl	sdc_lld_send_cmd_long_crc
 548 0146 0346     		mov	r3, r0
 549 0148 002B     		cmp	r3, #0
 550 014a 00D0     		beq	.L34
 551              		.loc 1 274 0
 552 014c 76E0     		b	.L24
 553              	.L34:
 554              		.loc 1 277 0
 555 014e 019B     		ldr	r3, [sp, #4]
 556 0150 3833     		adds	r3, r3, #56
 557 0152 0198     		ldr	r0, [sp, #4]
 558 0154 0321     		movs	r1, #3
 559 0156 0022     		movs	r2, #0
 560 0158 FFF7FEFF 		bl	sdc_lld_send_cmd_short_crc
 561 015c 0346     		mov	r3, r0
 562 015e 002B     		cmp	r3, #0
 563 0160 00D0     		beq	.L35
 564              		.loc 1 279 0
 565 0162 6BE0     		b	.L24
 566              	.L35:
 567              		.loc 1 282 0
 568 0164 019B     		ldr	r3, [sp, #4]
 569 0166 9A6B     		ldr	r2, [r3, #56]
 570              		.loc 1 283 0
 571 0168 019B     		ldr	r3, [sp, #4]
 572 016a 1833     		adds	r3, r3, #24
 573              		.loc 1 282 0
 574 016c 0198     		ldr	r0, [sp, #4]
 575 016e 0921     		movs	r1, #9
 576 0170 FFF7FEFF 		bl	sdc_lld_send_cmd_long_crc
 577 0174 0346     		mov	r3, r0
 578 0176 002B     		cmp	r3, #0
 579 0178 00D0     		beq	.L36
 580              		.loc 1 284 0
 581 017a 5FE0     		b	.L24
 582              	.L36:
 583              		.loc 1 287 0
 584 017c 0198     		ldr	r0, [sp, #4]
 585 017e FFF7FEFF 		bl	sdc_lld_set_data_clk
 586              		.loc 1 290 0
 587 0182 019B     		ldr	r3, [sp, #4]
 588 0184 9A6B     		ldr	r2, [r3, #56]
 589 0186 03AB     		add	r3, sp, #12
 590 0188 0198     		ldr	r0, [sp, #4]
 591 018a 0721     		movs	r1, #7
 592 018c FFF7FEFF 		bl	sdc_lld_send_cmd_short_crc
 593 0190 0346     		mov	r3, r0
 594 0192 002B     		cmp	r3, #0
 595 0194 00D0     		beq	.L37
 596              		.loc 1 292 0
 597 0196 51E0     		b	.L24
 598              	.L37:
 599              		.loc 1 295 0
 600 0198 03AB     		add	r3, sp, #12
 601 019a 0198     		ldr	r0, [sp, #4]
 602 019c 1021     		movs	r1, #16
 603 019e 4FF40072 		mov	r2, #512
ARM GAS  /tmp/ccMMQv7C.s 			page 12


 604 01a2 FFF7FEFF 		bl	sdc_lld_send_cmd_short_crc
 605 01a6 0346     		mov	r3, r0
 606 01a8 002B     		cmp	r3, #0
 607 01aa 47D1     		bne	.L24
 608              		.loc 1 297 0
 609 01ac 039A     		ldr	r2, [sp, #12]
 610 01ae 4EF20803 		movw	r3, #57352
 611 01b2 CFF6FF53 		movt	r3, 65023
 612 01b6 1340     		ands	r3, r3, r2
 613              		.loc 1 296 0
 614 01b8 002B     		cmp	r3, #0
 615 01ba 3FD1     		bne	.L24
 616              		.loc 1 301 0
 617 01bc 019B     		ldr	r3, [sp, #4]
 618 01be 1B6B     		ldr	r3, [r3, #48]
 619 01c0 03F00F03 		and	r3, r3, #15
 620 01c4 012B     		cmp	r3, #1
 621 01c6 27D8     		bhi	.L38
 622              		.loc 1 304 0
 623 01c8 0198     		ldr	r0, [sp, #4]
 624 01ca 0121     		movs	r1, #1
 625 01cc FFF7FEFF 		bl	sdc_lld_set_bus_mode
 626              		.loc 1 305 0
 627 01d0 019B     		ldr	r3, [sp, #4]
 628 01d2 9A6B     		ldr	r2, [r3, #56]
 629 01d4 03AB     		add	r3, sp, #12
 630 01d6 0198     		ldr	r0, [sp, #4]
 631 01d8 3721     		movs	r1, #55
 632 01da FFF7FEFF 		bl	sdc_lld_send_cmd_short_crc
 633 01de 0346     		mov	r3, r0
 634 01e0 002B     		cmp	r3, #0
 635 01e2 2BD1     		bne	.L24
 636              		.loc 1 306 0 discriminator 1
 637 01e4 039A     		ldr	r2, [sp, #12]
 638 01e6 4EF20803 		movw	r3, #57352
 639 01ea CFF6FF53 		movt	r3, 65023
 640 01ee 1340     		ands	r3, r3, r2
 641              		.loc 1 305 0 discriminator 1
 642 01f0 002B     		cmp	r3, #0
 643 01f2 23D1     		bne	.L24
 644              		.loc 1 308 0
 645 01f4 03AB     		add	r3, sp, #12
 646 01f6 0198     		ldr	r0, [sp, #4]
 647 01f8 0621     		movs	r1, #6
 648 01fa 0222     		movs	r2, #2
 649 01fc FFF7FEFF 		bl	sdc_lld_send_cmd_short_crc
 650 0200 0346     		mov	r3, r0
 651 0202 002B     		cmp	r3, #0
 652 0204 1AD1     		bne	.L24
 653              		.loc 1 309 0 discriminator 1
 654 0206 039A     		ldr	r2, [sp, #12]
 655 0208 4EF20803 		movw	r3, #57352
 656 020c CFF6FF53 		movt	r3, 65023
 657 0210 1340     		ands	r3, r3, r2
 658              		.loc 1 308 0 discriminator 1
 659 0212 002B     		cmp	r3, #0
 660 0214 12D1     		bne	.L24
ARM GAS  /tmp/ccMMQv7C.s 			page 13


 661              		.loc 1 311 0
 662 0216 00BF     		nop
 663              	.L38:
 664              		.loc 1 315 0
 665 0218 019B     		ldr	r3, [sp, #4]
 666 021a 1833     		adds	r3, r3, #24
 667 021c 1846     		mov	r0, r3
 668 021e FFF7FEFF 		bl	mmcsdGetCapacity
 669 0222 0246     		mov	r2, r0
 670 0224 019B     		ldr	r3, [sp, #4]
 671 0226 9A62     		str	r2, [r3, #40]
 672              		.loc 1 316 0
 673 0228 019B     		ldr	r3, [sp, #4]
 674 022a 9B6A     		ldr	r3, [r3, #40]
 675 022c 002B     		cmp	r3, #0
 676 022e 00D1     		bne	.L40
 677              		.loc 1 317 0
 678 0230 04E0     		b	.L24
 679              	.L40:
 680              		.loc 1 320 0
 681 0232 019B     		ldr	r3, [sp, #4]
 682 0234 0522     		movs	r2, #5
 683 0236 1A71     		strb	r2, [r3, #4]
 684              		.loc 1 321 0
 685 0238 0023     		movs	r3, #0
 686 023a 06E0     		b	.L42
 687              	.L24:
 688              		.loc 1 325 0
 689 023c 0198     		ldr	r0, [sp, #4]
 690 023e FFF7FEFF 		bl	sdc_lld_stop_clk
 691              		.loc 1 326 0
 692 0242 019B     		ldr	r3, [sp, #4]
 693 0244 0222     		movs	r2, #2
 694 0246 1A71     		strb	r2, [r3, #4]
 695              		.loc 1 327 0
 696 0248 0123     		movs	r3, #1
 697              	.L42:
 698              		.loc 1 328 0
 699 024a 1846     		mov	r0, r3
 700 024c 07B0     		add	sp, sp, #28
 701              		@ sp needed
 702 024e 5DF804FB 		ldr	pc, [sp], #4
 703              		.cfi_endproc
 704              	.LFE123:
 705              		.size	sdcConnect, .-sdcConnect
 706 0252 00BFAFF3 		.section	.rodata
 706      0080AFF3 
 706      0080AFF3 
 706      0080
 707 005d 000000   		.align	2
 708              	.LC6:
 709 0060 22736463 		.ascii	"\"sdcDisconnect\"()\000"
 709      44697363 
 709      6F6E6E65 
 709      63742228 
 709      2900
 710 0072 0000     		.align	2
ARM GAS  /tmp/ccMMQv7C.s 			page 14


 711              	.LC7:
 712 0074 73646344 		.ascii	"sdcDisconnect(), #1\000"
 712      6973636F 
 712      6E6E6563 
 712      7428292C 
 712      20233100 
 713              		.section	.text.sdcDisconnect,"ax",%progbits
 714              		.align	2
 715              		.p2align 4,,15
 716              		.global	sdcDisconnect
 717              		.thumb
 718              		.thumb_func
 719              		.type	sdcDisconnect, %function
 720              	sdcDisconnect:
 721              	.LFB124:
 722              		.loc 1 341 0
 723              		.cfi_startproc
 724              		@ args = 0, pretend = 0, frame = 8
 725              		@ frame_needed = 0, uses_anonymous_args = 0
 726 0000 00B5     		push	{lr}
 727              		.cfi_def_cfa_offset 4
 728              		.cfi_offset 14, -4
 729 0002 83B0     		sub	sp, sp, #12
 730              		.cfi_def_cfa_offset 16
 731 0004 0190     		str	r0, [sp, #4]
 732              		.loc 1 343 0
 733 0006 019B     		ldr	r3, [sp, #4]
 734 0008 002B     		cmp	r3, #0
 735 000a 05D1     		bne	.L44
 736              		.loc 1 343 0 is_stmt 0 discriminator 1
 737 000c 40F20000 		movw	r0, #:lower16:.LC6
 738 0010 C0F20000 		movt	r0, #:upper16:.LC6
 739 0014 FFF7FEFF 		bl	chDbgPanic
 740              	.L44:
 741              	.LBB7:
 742              		.loc 1 345 0 is_stmt 1
 743 0018 2023     		movs	r3, #32
 744              	@ 345 "../..//os/hal/src/sdc.c" 1
 745 001a 83F31188 		msr     BASEPRI, r3
 746              	@ 0 "" 2
 747              		.thumb
 748              	.LBE7:
 749 001e FFF7FEFF 		bl	dbg_check_lock
 750              		.loc 1 346 0
 751 0022 019B     		ldr	r3, [sp, #4]
 752 0024 1B79     		ldrb	r3, [r3, #4]	@ zero_extendqisi2
 753 0026 022B     		cmp	r3, #2
 754 0028 09D0     		beq	.L45
 755              		.loc 1 346 0 is_stmt 0 discriminator 1
 756 002a 019B     		ldr	r3, [sp, #4]
 757 002c 1B79     		ldrb	r3, [r3, #4]	@ zero_extendqisi2
 758 002e 052B     		cmp	r3, #5
 759 0030 05D0     		beq	.L45
 760 0032 40F20000 		movw	r0, #:lower16:.LC7
 761 0036 C0F20000 		movt	r0, #:upper16:.LC7
 762 003a FFF7FEFF 		bl	chDbgPanic
 763              	.L45:
ARM GAS  /tmp/ccMMQv7C.s 			page 15


 764              		.loc 1 348 0 is_stmt 1
 765 003e 019B     		ldr	r3, [sp, #4]
 766 0040 1B79     		ldrb	r3, [r3, #4]	@ zero_extendqisi2
 767 0042 022B     		cmp	r3, #2
 768 0044 06D1     		bne	.L46
 769              		.loc 1 349 0
 770 0046 FFF7FEFF 		bl	dbg_check_unlock
 771              	.LBB8:
 772 004a 0023     		movs	r3, #0
 773              	@ 349 "../..//os/hal/src/sdc.c" 1
 774 004c 83F31188 		msr     BASEPRI, r3
 775              	@ 0 "" 2
 776              		.thumb
 777              	.LBE8:
 778              		.loc 1 350 0
 779 0050 0023     		movs	r3, #0
 780 0052 1CE0     		b	.L47
 781              	.L46:
 782              		.loc 1 352 0
 783 0054 019B     		ldr	r3, [sp, #4]
 784 0056 0422     		movs	r2, #4
 785 0058 1A71     		strb	r2, [r3, #4]
 786              		.loc 1 353 0
 787 005a FFF7FEFF 		bl	dbg_check_unlock
 788              	.LBB9:
 789 005e 0023     		movs	r3, #0
 790              	@ 353 "../..//os/hal/src/sdc.c" 1
 791 0060 83F31188 		msr     BASEPRI, r3
 792              	@ 0 "" 2
 793              		.thumb
 794              	.LBE9:
 795              		.loc 1 356 0
 796 0064 0198     		ldr	r0, [sp, #4]
 797 0066 FFF7FEFF 		bl	_sdc_wait_for_transfer_state
 798 006a 0346     		mov	r3, r0
 799 006c 002B     		cmp	r3, #0
 800 006e 07D0     		beq	.L48
 801              		.loc 1 357 0
 802 0070 0198     		ldr	r0, [sp, #4]
 803 0072 FFF7FEFF 		bl	sdc_lld_stop_clk
 804              		.loc 1 358 0
 805 0076 019B     		ldr	r3, [sp, #4]
 806 0078 0222     		movs	r2, #2
 807 007a 1A71     		strb	r2, [r3, #4]
 808              		.loc 1 359 0
 809 007c 0123     		movs	r3, #1
 810 007e 06E0     		b	.L47
 811              	.L48:
 812              		.loc 1 363 0
 813 0080 0198     		ldr	r0, [sp, #4]
 814 0082 FFF7FEFF 		bl	sdc_lld_stop_clk
 815              		.loc 1 364 0
 816 0086 019B     		ldr	r3, [sp, #4]
 817 0088 0222     		movs	r2, #2
 818 008a 1A71     		strb	r2, [r3, #4]
 819              		.loc 1 365 0
 820 008c 0023     		movs	r3, #0
ARM GAS  /tmp/ccMMQv7C.s 			page 16


 821              	.L47:
 822              		.loc 1 366 0
 823 008e 1846     		mov	r0, r3
 824 0090 03B0     		add	sp, sp, #12
 825              		@ sp needed
 826 0092 5DF804FB 		ldr	pc, [sp], #4
 827              		.cfi_endproc
 828              	.LFE124:
 829              		.size	sdcDisconnect, .-sdcDisconnect
 830 0096 00BFAFF3 		.section	.rodata
 830      0080AFF3 
 830      0080
 831              		.align	2
 832              	.LC8:
 833 0088 22736463 		.ascii	"\"sdcRead\"()\000"
 833      52656164 
 833      22282900 
 834              		.align	2
 835              	.LC9:
 836 0094 73646352 		.ascii	"sdcRead(), #1\000"
 836      65616428 
 836      292C2023 
 836      3100
 837              		.section	.text.sdcRead,"ax",%progbits
 838              		.align	2
 839              		.p2align 4,,15
 840              		.global	sdcRead
 841              		.thumb
 842              		.thumb_func
 843              		.type	sdcRead, %function
 844              	sdcRead:
 845              	.LFB125:
 846              		.loc 1 385 0
 847              		.cfi_startproc
 848              		@ args = 0, pretend = 0, frame = 24
 849              		@ frame_needed = 0, uses_anonymous_args = 0
 850 0000 00B5     		push	{lr}
 851              		.cfi_def_cfa_offset 4
 852              		.cfi_offset 14, -4
 853 0002 87B0     		sub	sp, sp, #28
 854              		.cfi_def_cfa_offset 32
 855 0004 0390     		str	r0, [sp, #12]
 856 0006 0291     		str	r1, [sp, #8]
 857 0008 0192     		str	r2, [sp, #4]
 858 000a 0093     		str	r3, [sp]
 859              		.loc 1 388 0
 860 000c 039B     		ldr	r3, [sp, #12]
 861 000e 002B     		cmp	r3, #0
 862 0010 05D0     		beq	.L50
 863              		.loc 1 388 0 is_stmt 0 discriminator 2
 864 0012 019B     		ldr	r3, [sp, #4]
 865 0014 002B     		cmp	r3, #0
 866 0016 02D0     		beq	.L50
 867              		.loc 1 388 0 discriminator 1
 868 0018 009B     		ldr	r3, [sp]
 869 001a 002B     		cmp	r3, #0
 870 001c 05D1     		bne	.L51
ARM GAS  /tmp/ccMMQv7C.s 			page 17


 871              	.L50:
 872 001e 40F20000 		movw	r0, #:lower16:.LC8
 873 0022 C0F20000 		movt	r0, #:upper16:.LC8
 874 0026 FFF7FEFF 		bl	chDbgPanic
 875              	.L51:
 876              		.loc 1 389 0 is_stmt 1
 877 002a 039B     		ldr	r3, [sp, #12]
 878 002c 1B79     		ldrb	r3, [r3, #4]	@ zero_extendqisi2
 879 002e 052B     		cmp	r3, #5
 880 0030 05D0     		beq	.L52
 881              		.loc 1 389 0 is_stmt 0 discriminator 1
 882 0032 40F20000 		movw	r0, #:lower16:.LC9
 883 0036 C0F20000 		movt	r0, #:upper16:.LC9
 884 003a FFF7FEFF 		bl	chDbgPanic
 885              	.L52:
 886              		.loc 1 391 0 is_stmt 1
 887 003e 029A     		ldr	r2, [sp, #8]
 888 0040 009B     		ldr	r3, [sp]
 889 0042 1344     		add	r3, r3, r2
 890 0044 5A1E     		subs	r2, r3, #1
 891 0046 039B     		ldr	r3, [sp, #12]
 892 0048 9B6A     		ldr	r3, [r3, #40]
 893 004a 9A42     		cmp	r2, r3
 894 004c 07D9     		bls	.L53
 895              		.loc 1 392 0
 896 004e 039B     		ldr	r3, [sp, #12]
 897 0050 5B6B     		ldr	r3, [r3, #52]
 898 0052 43F08002 		orr	r2, r3, #128
 899 0056 039B     		ldr	r3, [sp, #12]
 900 0058 5A63     		str	r2, [r3, #52]
 901              		.loc 1 393 0
 902 005a 0123     		movs	r3, #1
 903 005c 10E0     		b	.L54
 904              	.L53:
 905              		.loc 1 397 0
 906 005e 039B     		ldr	r3, [sp, #12]
 907 0060 0622     		movs	r2, #6
 908 0062 1A71     		strb	r2, [r3, #4]
 909              		.loc 1 399 0
 910 0064 0398     		ldr	r0, [sp, #12]
 911 0066 0299     		ldr	r1, [sp, #8]
 912 0068 019A     		ldr	r2, [sp, #4]
 913 006a 009B     		ldr	r3, [sp]
 914 006c FFF7FEFF 		bl	sdc_lld_read
 915 0070 0346     		mov	r3, r0
 916 0072 8DF81730 		strb	r3, [sp, #23]
 917              		.loc 1 402 0
 918 0076 039B     		ldr	r3, [sp, #12]
 919 0078 0522     		movs	r2, #5
 920 007a 1A71     		strb	r2, [r3, #4]
 921              		.loc 1 403 0
 922 007c 9DF81730 		ldrb	r3, [sp, #23]	@ zero_extendqisi2
 923              	.L54:
 924              		.loc 1 404 0
 925 0080 1846     		mov	r0, r3
 926 0082 07B0     		add	sp, sp, #28
 927              		@ sp needed
ARM GAS  /tmp/ccMMQv7C.s 			page 18


 928 0084 5DF804FB 		ldr	pc, [sp], #4
 929              		.cfi_endproc
 930              	.LFE125:
 931              		.size	sdcRead, .-sdcRead
 932 0088 AFF30080 		.section	.rodata
 932      AFF30080 
 933 00a2 0000     		.align	2
 934              	.LC10:
 935 00a4 22736463 		.ascii	"\"sdcWrite\"()\000"
 935      57726974 
 935      65222829 
 935      00
 936 00b1 000000   		.align	2
 937              	.LC11:
 938 00b4 73646357 		.ascii	"sdcWrite(), #1\000"
 938      72697465 
 938      28292C20 
 938      233100
 939              		.section	.text.sdcWrite,"ax",%progbits
 940              		.align	2
 941              		.p2align 4,,15
 942              		.global	sdcWrite
 943              		.thumb
 944              		.thumb_func
 945              		.type	sdcWrite, %function
 946              	sdcWrite:
 947              	.LFB126:
 948              		.loc 1 423 0
 949              		.cfi_startproc
 950              		@ args = 0, pretend = 0, frame = 24
 951              		@ frame_needed = 0, uses_anonymous_args = 0
 952 0000 00B5     		push	{lr}
 953              		.cfi_def_cfa_offset 4
 954              		.cfi_offset 14, -4
 955 0002 87B0     		sub	sp, sp, #28
 956              		.cfi_def_cfa_offset 32
 957 0004 0390     		str	r0, [sp, #12]
 958 0006 0291     		str	r1, [sp, #8]
 959 0008 0192     		str	r2, [sp, #4]
 960 000a 0093     		str	r3, [sp]
 961              		.loc 1 426 0
 962 000c 039B     		ldr	r3, [sp, #12]
 963 000e 002B     		cmp	r3, #0
 964 0010 05D0     		beq	.L56
 965              		.loc 1 426 0 is_stmt 0 discriminator 2
 966 0012 019B     		ldr	r3, [sp, #4]
 967 0014 002B     		cmp	r3, #0
 968 0016 02D0     		beq	.L56
 969              		.loc 1 426 0 discriminator 1
 970 0018 009B     		ldr	r3, [sp]
 971 001a 002B     		cmp	r3, #0
 972 001c 05D1     		bne	.L57
 973              	.L56:
 974 001e 40F20000 		movw	r0, #:lower16:.LC10
 975 0022 C0F20000 		movt	r0, #:upper16:.LC10
 976 0026 FFF7FEFF 		bl	chDbgPanic
 977              	.L57:
ARM GAS  /tmp/ccMMQv7C.s 			page 19


 978              		.loc 1 427 0 is_stmt 1
 979 002a 039B     		ldr	r3, [sp, #12]
 980 002c 1B79     		ldrb	r3, [r3, #4]	@ zero_extendqisi2
 981 002e 052B     		cmp	r3, #5
 982 0030 05D0     		beq	.L58
 983              		.loc 1 427 0 is_stmt 0 discriminator 1
 984 0032 40F20000 		movw	r0, #:lower16:.LC11
 985 0036 C0F20000 		movt	r0, #:upper16:.LC11
 986 003a FFF7FEFF 		bl	chDbgPanic
 987              	.L58:
 988              		.loc 1 429 0 is_stmt 1
 989 003e 029A     		ldr	r2, [sp, #8]
 990 0040 009B     		ldr	r3, [sp]
 991 0042 1344     		add	r3, r3, r2
 992 0044 5A1E     		subs	r2, r3, #1
 993 0046 039B     		ldr	r3, [sp, #12]
 994 0048 9B6A     		ldr	r3, [r3, #40]
 995 004a 9A42     		cmp	r2, r3
 996 004c 07D9     		bls	.L59
 997              		.loc 1 430 0
 998 004e 039B     		ldr	r3, [sp, #12]
 999 0050 5B6B     		ldr	r3, [r3, #52]
 1000 0052 43F08002 		orr	r2, r3, #128
 1001 0056 039B     		ldr	r3, [sp, #12]
 1002 0058 5A63     		str	r2, [r3, #52]
 1003              		.loc 1 431 0
 1004 005a 0123     		movs	r3, #1
 1005 005c 10E0     		b	.L60
 1006              	.L59:
 1007              		.loc 1 435 0
 1008 005e 039B     		ldr	r3, [sp, #12]
 1009 0060 0722     		movs	r2, #7
 1010 0062 1A71     		strb	r2, [r3, #4]
 1011              		.loc 1 437 0
 1012 0064 0398     		ldr	r0, [sp, #12]
 1013 0066 0299     		ldr	r1, [sp, #8]
 1014 0068 019A     		ldr	r2, [sp, #4]
 1015 006a 009B     		ldr	r3, [sp]
 1016 006c FFF7FEFF 		bl	sdc_lld_write
 1017 0070 0346     		mov	r3, r0
 1018 0072 8DF81730 		strb	r3, [sp, #23]
 1019              		.loc 1 440 0
 1020 0076 039B     		ldr	r3, [sp, #12]
 1021 0078 0522     		movs	r2, #5
 1022 007a 1A71     		strb	r2, [r3, #4]
 1023              		.loc 1 441 0
 1024 007c 9DF81730 		ldrb	r3, [sp, #23]	@ zero_extendqisi2
 1025              	.L60:
 1026              		.loc 1 442 0
 1027 0080 1846     		mov	r0, r3
 1028 0082 07B0     		add	sp, sp, #28
 1029              		@ sp needed
 1030 0084 5DF804FB 		ldr	pc, [sp], #4
 1031              		.cfi_endproc
 1032              	.LFE126:
 1033              		.size	sdcWrite, .-sdcWrite
 1034 0088 AFF30080 		.section	.rodata
ARM GAS  /tmp/ccMMQv7C.s 			page 20


 1034      AFF30080 
 1035 00c3 00       		.align	2
 1036              	.LC12:
 1037 00c4 22736463 		.ascii	"\"sdcGetAndClearErrors\"()\000"
 1037      47657441 
 1037      6E64436C 
 1037      65617245 
 1037      72726F72 
 1038 00dd 000000   		.align	2
 1039              	.LC13:
 1040 00e0 73646347 		.ascii	"sdcGetAndClearErrors(), #1\000"
 1040      6574416E 
 1040      64436C65 
 1040      61724572 
 1040      726F7273 
 1041              		.section	.text.sdcGetAndClearErrors,"ax",%progbits
 1042              		.align	2
 1043              		.p2align 4,,15
 1044              		.global	sdcGetAndClearErrors
 1045              		.thumb
 1046              		.thumb_func
 1047              		.type	sdcGetAndClearErrors, %function
 1048              	sdcGetAndClearErrors:
 1049              	.LFB127:
 1050              		.loc 1 452 0
 1051              		.cfi_startproc
 1052              		@ args = 0, pretend = 0, frame = 16
 1053              		@ frame_needed = 0, uses_anonymous_args = 0
 1054 0000 00B5     		push	{lr}
 1055              		.cfi_def_cfa_offset 4
 1056              		.cfi_offset 14, -4
 1057 0002 85B0     		sub	sp, sp, #20
 1058              		.cfi_def_cfa_offset 24
 1059 0004 0190     		str	r0, [sp, #4]
 1060              		.loc 1 455 0
 1061 0006 019B     		ldr	r3, [sp, #4]
 1062 0008 002B     		cmp	r3, #0
 1063 000a 05D1     		bne	.L62
 1064              		.loc 1 455 0 is_stmt 0 discriminator 1
 1065 000c 40F20000 		movw	r0, #:lower16:.LC12
 1066 0010 C0F20000 		movt	r0, #:upper16:.LC12
 1067 0014 FFF7FEFF 		bl	chDbgPanic
 1068              	.L62:
 1069              		.loc 1 456 0 is_stmt 1
 1070 0018 019B     		ldr	r3, [sp, #4]
 1071 001a 1B79     		ldrb	r3, [r3, #4]	@ zero_extendqisi2
 1072 001c 052B     		cmp	r3, #5
 1073 001e 05D0     		beq	.L63
 1074              		.loc 1 456 0 is_stmt 0 discriminator 1
 1075 0020 40F20000 		movw	r0, #:lower16:.LC13
 1076 0024 C0F20000 		movt	r0, #:upper16:.LC13
 1077 0028 FFF7FEFF 		bl	chDbgPanic
 1078              	.L63:
 1079              	.LBB10:
 1080              		.loc 1 459 0 is_stmt 1
 1081 002c 2023     		movs	r3, #32
 1082              	@ 459 "../..//os/hal/src/sdc.c" 1
ARM GAS  /tmp/ccMMQv7C.s 			page 21


 1083 002e 83F31188 		msr     BASEPRI, r3
 1084              	@ 0 "" 2
 1085              		.thumb
 1086              	.LBE10:
 1087 0032 FFF7FEFF 		bl	dbg_check_lock
 1088              		.loc 1 460 0
 1089 0036 019B     		ldr	r3, [sp, #4]
 1090 0038 5B6B     		ldr	r3, [r3, #52]
 1091 003a 0393     		str	r3, [sp, #12]
 1092              		.loc 1 461 0
 1093 003c 019B     		ldr	r3, [sp, #4]
 1094 003e 0022     		movs	r2, #0
 1095 0040 5A63     		str	r2, [r3, #52]
 1096              		.loc 1 462 0
 1097 0042 FFF7FEFF 		bl	dbg_check_unlock
 1098              	.LBB11:
 1099 0046 0023     		movs	r3, #0
 1100              	@ 462 "../..//os/hal/src/sdc.c" 1
 1101 0048 83F31188 		msr     BASEPRI, r3
 1102              	@ 0 "" 2
 1103              		.thumb
 1104              	.LBE11:
 1105              		.loc 1 463 0
 1106 004c 039B     		ldr	r3, [sp, #12]
 1107              		.loc 1 464 0
 1108 004e 1846     		mov	r0, r3
 1109 0050 05B0     		add	sp, sp, #20
 1110              		@ sp needed
 1111 0052 5DF804FB 		ldr	pc, [sp], #4
 1112              		.cfi_endproc
 1113              	.LFE127:
 1114              		.size	sdcGetAndClearErrors, .-sdcGetAndClearErrors
 1115 0056 00BFAFF3 		.section	.rodata
 1115      0080AFF3 
 1115      0080
 1116 00fb 00       		.align	2
 1117              	.LC14:
 1118 00fc 22736463 		.ascii	"\"sdcSync\"()\000"
 1118      53796E63 
 1118      22282900 
 1119              		.section	.text.sdcSync,"ax",%progbits
 1120              		.align	2
 1121              		.p2align 4,,15
 1122              		.global	sdcSync
 1123              		.thumb
 1124              		.thumb_func
 1125              		.type	sdcSync, %function
 1126              	sdcSync:
 1127              	.LFB128:
 1128              		.loc 1 477 0
 1129              		.cfi_startproc
 1130              		@ args = 0, pretend = 0, frame = 16
 1131              		@ frame_needed = 0, uses_anonymous_args = 0
 1132 0000 00B5     		push	{lr}
 1133              		.cfi_def_cfa_offset 4
 1134              		.cfi_offset 14, -4
 1135 0002 85B0     		sub	sp, sp, #20
ARM GAS  /tmp/ccMMQv7C.s 			page 22


 1136              		.cfi_def_cfa_offset 24
 1137 0004 0190     		str	r0, [sp, #4]
 1138              		.loc 1 480 0
 1139 0006 019B     		ldr	r3, [sp, #4]
 1140 0008 002B     		cmp	r3, #0
 1141 000a 05D1     		bne	.L66
 1142              		.loc 1 480 0 is_stmt 0 discriminator 1
 1143 000c 40F20000 		movw	r0, #:lower16:.LC14
 1144 0010 C0F20000 		movt	r0, #:upper16:.LC14
 1145 0014 FFF7FEFF 		bl	chDbgPanic
 1146              	.L66:
 1147              		.loc 1 482 0 is_stmt 1
 1148 0018 019B     		ldr	r3, [sp, #4]
 1149 001a 1B79     		ldrb	r3, [r3, #4]	@ zero_extendqisi2
 1150 001c 052B     		cmp	r3, #5
 1151 001e 01D0     		beq	.L67
 1152              		.loc 1 483 0
 1153 0020 0123     		movs	r3, #1
 1154 0022 0DE0     		b	.L68
 1155              	.L67:
 1156              		.loc 1 486 0
 1157 0024 019B     		ldr	r3, [sp, #4]
 1158 0026 0822     		movs	r2, #8
 1159 0028 1A71     		strb	r2, [r3, #4]
 1160              		.loc 1 488 0
 1161 002a 0198     		ldr	r0, [sp, #4]
 1162 002c FFF7FEFF 		bl	sdc_lld_sync
 1163 0030 0346     		mov	r3, r0
 1164 0032 8DF80F30 		strb	r3, [sp, #15]
 1165              		.loc 1 491 0
 1166 0036 019B     		ldr	r3, [sp, #4]
 1167 0038 0522     		movs	r2, #5
 1168 003a 1A71     		strb	r2, [r3, #4]
 1169              		.loc 1 492 0
 1170 003c 9DF80F30 		ldrb	r3, [sp, #15]	@ zero_extendqisi2
 1171              	.L68:
 1172              		.loc 1 493 0
 1173 0040 1846     		mov	r0, r3
 1174 0042 05B0     		add	sp, sp, #20
 1175              		@ sp needed
 1176 0044 5DF804FB 		ldr	pc, [sp], #4
 1177              		.cfi_endproc
 1178              	.LFE128:
 1179              		.size	sdcSync, .-sdcSync
 1180 0048 AFF30080 		.section	.rodata
 1180      AFF30080 
 1181              		.align	2
 1182              	.LC15:
 1183 0108 22736463 		.ascii	"\"sdcGetInfo\"()\000"
 1183      47657449 
 1183      6E666F22 
 1183      282900
 1184              		.section	.text.sdcGetInfo,"ax",%progbits
 1185              		.align	2
 1186              		.p2align 4,,15
 1187              		.global	sdcGetInfo
 1188              		.thumb
ARM GAS  /tmp/ccMMQv7C.s 			page 23


 1189              		.thumb_func
 1190              		.type	sdcGetInfo, %function
 1191              	sdcGetInfo:
 1192              	.LFB129:
 1193              		.loc 1 507 0
 1194              		.cfi_startproc
 1195              		@ args = 0, pretend = 0, frame = 8
 1196              		@ frame_needed = 0, uses_anonymous_args = 0
 1197 0000 00B5     		push	{lr}
 1198              		.cfi_def_cfa_offset 4
 1199              		.cfi_offset 14, -4
 1200 0002 83B0     		sub	sp, sp, #12
 1201              		.cfi_def_cfa_offset 16
 1202 0004 0190     		str	r0, [sp, #4]
 1203 0006 0091     		str	r1, [sp]
 1204              		.loc 1 509 0
 1205 0008 019B     		ldr	r3, [sp, #4]
 1206 000a 002B     		cmp	r3, #0
 1207 000c 02D0     		beq	.L70
 1208              		.loc 1 509 0 is_stmt 0 discriminator 2
 1209 000e 009B     		ldr	r3, [sp]
 1210 0010 002B     		cmp	r3, #0
 1211 0012 05D1     		bne	.L71
 1212              	.L70:
 1213              		.loc 1 509 0 discriminator 1
 1214 0014 40F20000 		movw	r0, #:lower16:.LC15
 1215 0018 C0F20000 		movt	r0, #:upper16:.LC15
 1216 001c FFF7FEFF 		bl	chDbgPanic
 1217              	.L71:
 1218              		.loc 1 511 0 is_stmt 1
 1219 0020 019B     		ldr	r3, [sp, #4]
 1220 0022 1B79     		ldrb	r3, [r3, #4]	@ zero_extendqisi2
 1221 0024 052B     		cmp	r3, #5
 1222 0026 01D0     		beq	.L72
 1223              		.loc 1 512 0
 1224 0028 0123     		movs	r3, #1
 1225 002a 08E0     		b	.L73
 1226              	.L72:
 1227              		.loc 1 514 0
 1228 002c 019B     		ldr	r3, [sp, #4]
 1229 002e 9A6A     		ldr	r2, [r3, #40]
 1230 0030 009B     		ldr	r3, [sp]
 1231 0032 5A60     		str	r2, [r3, #4]
 1232              		.loc 1 515 0
 1233 0034 009B     		ldr	r3, [sp]
 1234 0036 4FF40072 		mov	r2, #512
 1235 003a 1A60     		str	r2, [r3]
 1236              		.loc 1 517 0
 1237 003c 0023     		movs	r3, #0
 1238              	.L73:
 1239              		.loc 1 518 0
 1240 003e 1846     		mov	r0, r3
 1241 0040 03B0     		add	sp, sp, #12
 1242              		@ sp needed
 1243 0042 5DF804FB 		ldr	pc, [sp], #4
 1244              		.cfi_endproc
 1245              	.LFE129:
ARM GAS  /tmp/ccMMQv7C.s 			page 24


 1246              		.size	sdcGetInfo, .-sdcGetInfo
 1247 0046 00BFAFF3 		.section	.rodata
 1247      0080AFF3 
 1247      0080
 1248 0117 00       		.align	2
 1249              	.LC16:
 1250 0118 22736463 		.ascii	"\"sdcErase\"()\000"
 1250      45726173 
 1250      65222829 
 1250      00
 1251 0125 000000   		.align	2
 1252              	.LC17:
 1253 0128 73646345 		.ascii	"sdcErase(), #1\000"
 1253      72617365 
 1253      28292C20 
 1253      233100
 1254 0137 00       		.section	.text.sdcErase,"ax",%progbits
 1255              		.align	2
 1256              		.p2align 4,,15
 1257              		.global	sdcErase
 1258              		.thumb
 1259              		.thumb_func
 1260              		.type	sdcErase, %function
 1261              	sdcErase:
 1262              	.LFB130:
 1263              		.loc 1 534 0
 1264              		.cfi_startproc
 1265              		@ args = 0, pretend = 0, frame = 24
 1266              		@ frame_needed = 0, uses_anonymous_args = 0
 1267 0000 00B5     		push	{lr}
 1268              		.cfi_def_cfa_offset 4
 1269              		.cfi_offset 14, -4
 1270 0002 87B0     		sub	sp, sp, #28
 1271              		.cfi_def_cfa_offset 32
 1272 0004 0390     		str	r0, [sp, #12]
 1273 0006 0291     		str	r1, [sp, #8]
 1274 0008 0192     		str	r2, [sp, #4]
 1275              		.loc 1 537 0
 1276 000a 039B     		ldr	r3, [sp, #12]
 1277 000c 002B     		cmp	r3, #0
 1278 000e 05D1     		bne	.L75
 1279              		.loc 1 537 0 is_stmt 0 discriminator 1
 1280 0010 40F20000 		movw	r0, #:lower16:.LC16
 1281 0014 C0F20000 		movt	r0, #:upper16:.LC16
 1282 0018 FFF7FEFF 		bl	chDbgPanic
 1283              	.L75:
 1284              		.loc 1 538 0 is_stmt 1
 1285 001c 039B     		ldr	r3, [sp, #12]
 1286 001e 1B79     		ldrb	r3, [r3, #4]	@ zero_extendqisi2
 1287 0020 052B     		cmp	r3, #5
 1288 0022 05D0     		beq	.L76
 1289              		.loc 1 538 0 is_stmt 0 discriminator 1
 1290 0024 40F20000 		movw	r0, #:lower16:.LC17
 1291 0028 C0F20000 		movt	r0, #:upper16:.LC17
 1292 002c FFF7FEFF 		bl	chDbgPanic
 1293              	.L76:
 1294              		.loc 1 541 0 is_stmt 1
ARM GAS  /tmp/ccMMQv7C.s 			page 25


 1295 0030 039B     		ldr	r3, [sp, #12]
 1296 0032 0722     		movs	r2, #7
 1297 0034 1A71     		strb	r2, [r3, #4]
 1298              		.loc 1 544 0
 1299 0036 039B     		ldr	r3, [sp, #12]
 1300 0038 1B6B     		ldr	r3, [r3, #48]
 1301 003a 03F01003 		and	r3, r3, #16
 1302 003e 002B     		cmp	r3, #0
 1303 0040 05D1     		bne	.L77
 1304              		.loc 1 545 0
 1305 0042 029B     		ldr	r3, [sp, #8]
 1306 0044 5B02     		lsls	r3, r3, #9
 1307 0046 0293     		str	r3, [sp, #8]
 1308              		.loc 1 546 0
 1309 0048 019B     		ldr	r3, [sp, #4]
 1310 004a 5B02     		lsls	r3, r3, #9
 1311 004c 0193     		str	r3, [sp, #4]
 1312              	.L77:
 1313              		.loc 1 549 0
 1314 004e 0398     		ldr	r0, [sp, #12]
 1315 0050 FFF7FEFF 		bl	_sdc_wait_for_transfer_state
 1316              		.loc 1 551 0
 1317 0054 05AB     		add	r3, sp, #20
 1318 0056 0398     		ldr	r0, [sp, #12]
 1319 0058 2021     		movs	r1, #32
 1320 005a 029A     		ldr	r2, [sp, #8]
 1321 005c FFF7FEFF 		bl	sdc_lld_send_cmd_short_crc
 1322 0060 0346     		mov	r3, r0
 1323 0062 002B     		cmp	r3, #0
 1324 0064 31D1     		bne	.L78
 1325              		.loc 1 553 0
 1326 0066 059A     		ldr	r2, [sp, #20]
 1327 0068 4EF20803 		movw	r3, #57352
 1328 006c CFF6FF53 		movt	r3, 65023
 1329 0070 1340     		ands	r3, r3, r2
 1330              		.loc 1 552 0
 1331 0072 002B     		cmp	r3, #0
 1332 0074 29D1     		bne	.L78
 1333              		.loc 1 556 0
 1334 0076 05AB     		add	r3, sp, #20
 1335 0078 0398     		ldr	r0, [sp, #12]
 1336 007a 2121     		movs	r1, #33
 1337 007c 019A     		ldr	r2, [sp, #4]
 1338 007e FFF7FEFF 		bl	sdc_lld_send_cmd_short_crc
 1339 0082 0346     		mov	r3, r0
 1340 0084 002B     		cmp	r3, #0
 1341 0086 20D1     		bne	.L78
 1342              		.loc 1 558 0
 1343 0088 059A     		ldr	r2, [sp, #20]
 1344 008a 4EF20803 		movw	r3, #57352
 1345 008e CFF6FF53 		movt	r3, 65023
 1346 0092 1340     		ands	r3, r3, r2
 1347              		.loc 1 557 0
 1348 0094 002B     		cmp	r3, #0
 1349 0096 18D1     		bne	.L78
 1350              		.loc 1 561 0
 1351 0098 05AB     		add	r3, sp, #20
ARM GAS  /tmp/ccMMQv7C.s 			page 26


 1352 009a 0398     		ldr	r0, [sp, #12]
 1353 009c 2621     		movs	r1, #38
 1354 009e 0022     		movs	r2, #0
 1355 00a0 FFF7FEFF 		bl	sdc_lld_send_cmd_short_crc
 1356 00a4 0346     		mov	r3, r0
 1357 00a6 002B     		cmp	r3, #0
 1358 00a8 0FD1     		bne	.L78
 1359              		.loc 1 563 0
 1360 00aa 059A     		ldr	r2, [sp, #20]
 1361 00ac 4EF20803 		movw	r3, #57352
 1362 00b0 CFF6FF53 		movt	r3, 65023
 1363 00b4 1340     		ands	r3, r3, r2
 1364              		.loc 1 562 0
 1365 00b6 002B     		cmp	r3, #0
 1366 00b8 07D1     		bne	.L78
 1367              		.loc 1 570 0
 1368 00ba 0398     		ldr	r0, [sp, #12]
 1369 00bc FFF7FEFF 		bl	_sdc_wait_for_transfer_state
 1370              		.loc 1 572 0
 1371 00c0 039B     		ldr	r3, [sp, #12]
 1372 00c2 0522     		movs	r2, #5
 1373 00c4 1A71     		strb	r2, [r3, #4]
 1374              		.loc 1 573 0
 1375 00c6 0023     		movs	r3, #0
 1376 00c8 03E0     		b	.L80
 1377              	.L78:
 1378              		.loc 1 576 0
 1379 00ca 039B     		ldr	r3, [sp, #12]
 1380 00cc 0522     		movs	r2, #5
 1381 00ce 1A71     		strb	r2, [r3, #4]
 1382              		.loc 1 577 0
 1383 00d0 0123     		movs	r3, #1
 1384              	.L80:
 1385              		.loc 1 578 0
 1386 00d2 1846     		mov	r0, r3
 1387 00d4 07B0     		add	sp, sp, #28
 1388              		@ sp needed
 1389 00d6 5DF804FB 		ldr	pc, [sp], #4
 1390              		.cfi_endproc
 1391              	.LFE130:
 1392              		.size	sdcErase, .-sdcErase
 1393 00da 00BFAFF3 		.text
 1393      0080
 1394              	.Letext0:
 1395              		.file 2 "/usr/arm-none-eabi/include/machine/_default_types.h"
 1396              		.file 3 "/usr/arm-none-eabi/include/stdint.h"
 1397              		.file 4 "../..//os/ports/GCC/ARMCMx/chtypes.h"
 1398              		.file 5 "../..//os/kernel/include/chlists.h"
 1399              		.file 6 "../..//os/kernel/include/chthreads.h"
 1400              		.file 7 "../..//os/ports/GCC/ARMCMx/chcore_v7m.h"
 1401              		.file 8 "../..//os/kernel/include/chmtx.h"
 1402              		.file 9 "../..//os/hal/platforms/STM32F4xx/stm32f4xx.h"
 1403              		.file 10 "../..//os/hal/platforms/STM32F4xx/stm32_dma.h"
 1404              		.file 11 "../..//os/hal/include/io_block.h"
 1405              		.file 12 "../..//os/hal/platforms/STM32/sdc_lld.h"
 1406              		.file 13 "../..//os/ports/common/ARMCMx/CMSIS/include/core_cm4.h"