ARM GAS  /tmp/ccSf0MBz.s 			page 1


   1              		.syntax unified
   2              		.cpu cortex-m4
   3              		.fpu softvfp
   4              		.eabi_attribute 20, 1
   5              		.eabi_attribute 21, 1
   6              		.eabi_attribute 23, 3
   7              		.eabi_attribute 24, 1
   8              		.eabi_attribute 25, 1
   9              		.eabi_attribute 26, 1
  10              		.eabi_attribute 30, 6
  11              		.eabi_attribute 34, 1
  12              		.eabi_attribute 18, 4
  13              		.thumb
  14              		.file	"serial_lld.c"
  15              		.text
  16              	.Ltext0:
  17              		.cfi_sections	.debug_frame
  18              		.global	SD2
  19              		.section	.bss.SD2,"aw",%nobits
  20              		.align	2
  21              		.type	SD2, %object
  22              		.size	SD2, 120
  23              	SD2:
  24 0000 00000000 		.space	120
  24      00000000 
  24      00000000 
  24      00000000 
  24      00000000 
  25              		.section	.rodata.default_config,"a",%progbits
  26              		.align	2
  27              		.type	default_config, %object
  28              		.size	default_config, 12
  29              	default_config:
  30 0000 00960000 		.word	38400
  31 0004 0000     		.short	0
  32 0006 0040     		.short	16384
  33 0008 0000     		.short	0
  34 000a 0000     		.space	2
  35              		.section	.text.usart_init,"ax",%progbits
  36              		.align	2
  37              		.p2align 4,,15
  38              		.thumb
  39              		.thumb_func
  40              		.type	usart_init, %function
  41              	usart_init:
  42              	.LFB118:
  43              		.file 1 "../..//os/hal/platforms/STM32/USARTv1/serial_lld.c"
  44              		.loc 1 92 0
  45              		.cfi_startproc
  46              		@ args = 0, pretend = 0, frame = 16
  47              		@ frame_needed = 0, uses_anonymous_args = 0
  48              		@ link register save eliminated.
  49 0000 84B0     		sub	sp, sp, #16
  50              		.cfi_def_cfa_offset 16
  51 0002 0190     		str	r0, [sp, #4]
  52 0004 0091     		str	r1, [sp]
  53              		.loc 1 93 0
ARM GAS  /tmp/ccSf0MBz.s 			page 2


  54 0006 019B     		ldr	r3, [sp, #4]
  55 0008 5B6F     		ldr	r3, [r3, #116]
  56 000a 0393     		str	r3, [sp, #12]
  57              		.loc 1 97 0
  58 000c 019B     		ldr	r3, [sp, #4]
  59 000e 5A6F     		ldr	r2, [r3, #116]
  60 0010 4FF48053 		mov	r3, #4096
  61 0014 C4F20103 		movt	r3, 16385
  62 0018 9A42     		cmp	r2, r3
  63 001a 07D0     		beq	.L2
  64              		.loc 1 97 0 is_stmt 0 discriminator 1
  65 001c 019B     		ldr	r3, [sp, #4]
  66 001e 5A6F     		ldr	r2, [r3, #116]
  67 0020 4FF4A053 		mov	r3, #5120
  68 0024 C4F20103 		movt	r3, 16385
  69 0028 9A42     		cmp	r2, r3
  70 002a 0BD1     		bne	.L3
  71              	.L2:
  72              		.loc 1 101 0 is_stmt 1
  73 002c 009B     		ldr	r3, [sp]
  74 002e 1A68     		ldr	r2, [r3]
  75 0030 4FF43D43 		mov	r3, #48384
  76 0034 C0F20153 		movt	r3, 1281
  77 0038 B3FBF2F3 		udiv	r3, r3, r2
  78 003c 9AB2     		uxth	r2, r3
  79 003e 039B     		ldr	r3, [sp, #12]
  80 0040 1A81     		strh	r2, [r3, #8]	@ movhi
  81 0042 0AE0     		b	.L4
  82              	.L3:
  83              		.loc 1 103 0
  84 0044 009B     		ldr	r3, [sp]
  85 0046 1A68     		ldr	r2, [r3]
  86 0048 4DF68063 		movw	r3, #56960
  87 004c C0F28023 		movt	r3, 640
  88 0050 B3FBF2F3 		udiv	r3, r3, r2
  89 0054 9AB2     		uxth	r2, r3
  90 0056 039B     		ldr	r3, [sp, #12]
  91 0058 1A81     		strh	r2, [r3, #8]	@ movhi
  92              	.L4:
  93              		.loc 1 106 0
  94 005a 009B     		ldr	r3, [sp]
  95 005c DB88     		ldrh	r3, [r3, #6]
  96 005e 43F04003 		orr	r3, r3, #64
  97 0062 9AB2     		uxth	r2, r3
  98 0064 039B     		ldr	r3, [sp, #12]
  99 0066 1A82     		strh	r2, [r3, #16]	@ movhi
 100              		.loc 1 107 0
 101 0068 009B     		ldr	r3, [sp]
 102 006a 1B89     		ldrh	r3, [r3, #8]
 103 006c 43F00103 		orr	r3, r3, #1
 104 0070 9AB2     		uxth	r2, r3
 105 0072 039B     		ldr	r3, [sp, #12]
 106 0074 9A82     		strh	r2, [r3, #20]	@ movhi
 107              		.loc 1 108 0
 108 0076 009B     		ldr	r3, [sp]
 109 0078 9B88     		ldrh	r3, [r3, #4]
 110 007a 43F40453 		orr	r3, r3, #8448
ARM GAS  /tmp/ccSf0MBz.s 			page 3


 111 007e 43F02C03 		orr	r3, r3, #44
 112 0082 9AB2     		uxth	r2, r3
 113 0084 039B     		ldr	r3, [sp, #12]
 114 0086 9A81     		strh	r2, [r3, #12]	@ movhi
 115              		.loc 1 111 0
 116 0088 039B     		ldr	r3, [sp, #12]
 117 008a 0022     		movs	r2, #0
 118 008c 1A80     		strh	r2, [r3]	@ movhi
 119              		.loc 1 112 0
 120 008e 039B     		ldr	r3, [sp, #12]
 121 0090 1B88     		ldrh	r3, [r3]	@ movhi
 122              		.loc 1 113 0
 123 0092 039B     		ldr	r3, [sp, #12]
 124 0094 9B88     		ldrh	r3, [r3, #4]	@ movhi
 125              		.loc 1 114 0
 126 0096 04B0     		add	sp, sp, #16
 127              		@ sp needed
 128 0098 7047     		bx	lr
 129              		.cfi_endproc
 130              	.LFE118:
 131              		.size	usart_init, .-usart_init
 132 009a 00BFAFF3 		.section	.text.usart_deinit,"ax",%progbits
 132      0080
 133              		.align	2
 134              		.p2align 4,,15
 135              		.thumb
 136              		.thumb_func
 137              		.type	usart_deinit, %function
 138              	usart_deinit:
 139              	.LFB119:
 140              		.loc 1 122 0
 141              		.cfi_startproc
 142              		@ args = 0, pretend = 0, frame = 8
 143              		@ frame_needed = 0, uses_anonymous_args = 0
 144              		@ link register save eliminated.
 145 0000 82B0     		sub	sp, sp, #8
 146              		.cfi_def_cfa_offset 8
 147 0002 0190     		str	r0, [sp, #4]
 148              		.loc 1 124 0
 149 0004 019B     		ldr	r3, [sp, #4]
 150 0006 0022     		movs	r2, #0
 151 0008 9A81     		strh	r2, [r3, #12]	@ movhi
 152              		.loc 1 125 0
 153 000a 019B     		ldr	r3, [sp, #4]
 154 000c 0022     		movs	r2, #0
 155 000e 1A82     		strh	r2, [r3, #16]	@ movhi
 156              		.loc 1 126 0
 157 0010 019B     		ldr	r3, [sp, #4]
 158 0012 0022     		movs	r2, #0
 159 0014 9A82     		strh	r2, [r3, #20]	@ movhi
 160              		.loc 1 127 0
 161 0016 02B0     		add	sp, sp, #8
 162              		@ sp needed
 163 0018 7047     		bx	lr
 164              		.cfi_endproc
 165              	.LFE119:
 166              		.size	usart_deinit, .-usart_deinit
ARM GAS  /tmp/ccSf0MBz.s 			page 4


 167 001a 00BFAFF3 		.section	.text.set_error,"ax",%progbits
 167      0080
 168              		.align	2
 169              		.p2align 4,,15
 170              		.thumb
 171              		.thumb_func
 172              		.type	set_error, %function
 173              	set_error:
 174              	.LFB120:
 175              		.loc 1 135 0
 176              		.cfi_startproc
 177              		@ args = 0, pretend = 0, frame = 16
 178              		@ frame_needed = 0, uses_anonymous_args = 0
 179 0000 00B5     		push	{lr}
 180              		.cfi_def_cfa_offset 4
 181              		.cfi_offset 14, -4
 182 0002 85B0     		sub	sp, sp, #20
 183              		.cfi_def_cfa_offset 24
 184 0004 0190     		str	r0, [sp, #4]
 185 0006 0B46     		mov	r3, r1
 186 0008 ADF80230 		strh	r3, [sp, #2]	@ movhi
 187              		.loc 1 136 0
 188 000c 0023     		movs	r3, #0
 189 000e 0393     		str	r3, [sp, #12]
 190              		.loc 1 138 0
 191 0010 BDF80230 		ldrh	r3, [sp, #2]
 192 0014 03F00803 		and	r3, r3, #8
 193 0018 002B     		cmp	r3, #0
 194 001a 03D0     		beq	.L7
 195              		.loc 1 139 0
 196 001c 039B     		ldr	r3, [sp, #12]
 197 001e 43F08003 		orr	r3, r3, #128
 198 0022 0393     		str	r3, [sp, #12]
 199              	.L7:
 200              		.loc 1 140 0
 201 0024 BDF80230 		ldrh	r3, [sp, #2]
 202 0028 03F00103 		and	r3, r3, #1
 203 002c 002B     		cmp	r3, #0
 204 002e 03D0     		beq	.L8
 205              		.loc 1 141 0
 206 0030 039B     		ldr	r3, [sp, #12]
 207 0032 43F02003 		orr	r3, r3, #32
 208 0036 0393     		str	r3, [sp, #12]
 209              	.L8:
 210              		.loc 1 142 0
 211 0038 BDF80230 		ldrh	r3, [sp, #2]
 212 003c 03F00203 		and	r3, r3, #2
 213 0040 002B     		cmp	r3, #0
 214 0042 03D0     		beq	.L9
 215              		.loc 1 143 0
 216 0044 039B     		ldr	r3, [sp, #12]
 217 0046 43F04003 		orr	r3, r3, #64
 218 004a 0393     		str	r3, [sp, #12]
 219              	.L9:
 220              		.loc 1 144 0
 221 004c BDF80230 		ldrh	r3, [sp, #2]
 222 0050 03F00403 		and	r3, r3, #4
ARM GAS  /tmp/ccSf0MBz.s 			page 5


 223 0054 002B     		cmp	r3, #0
 224 0056 03D0     		beq	.L10
 225              		.loc 1 145 0
 226 0058 039B     		ldr	r3, [sp, #12]
 227 005a 43F48073 		orr	r3, r3, #256
 228 005e 0393     		str	r3, [sp, #12]
 229              	.L10:
 230              		.loc 1 146 0
 231 0060 019B     		ldr	r3, [sp, #4]
 232 0062 0433     		adds	r3, r3, #4
 233 0064 1846     		mov	r0, r3
 234 0066 0399     		ldr	r1, [sp, #12]
 235 0068 FFF7FEFF 		bl	chEvtBroadcastFlagsI
 236              		.loc 1 147 0
 237 006c 05B0     		add	sp, sp, #20
 238              		@ sp needed
 239 006e 5DF804FB 		ldr	pc, [sp], #4
 240              		.cfi_endproc
 241              	.LFE120:
 242              		.size	set_error, .-set_error
 243 0072 00BFAFF3 		.section	.text.serve_interrupt,"ax",%progbits
 243      0080AFF3 
 243      0080AFF3 
 243      0080
 244              		.align	2
 245              		.p2align 4,,15
 246              		.thumb
 247              		.thumb_func
 248              		.type	serve_interrupt, %function
 249              	serve_interrupt:
 250              	.LFB121:
 251              		.loc 1 154 0
 252              		.cfi_startproc
 253              		@ args = 0, pretend = 0, frame = 24
 254              		@ frame_needed = 0, uses_anonymous_args = 0
 255 0000 00B5     		push	{lr}
 256              		.cfi_def_cfa_offset 4
 257              		.cfi_offset 14, -4
 258 0002 87B0     		sub	sp, sp, #28
 259              		.cfi_def_cfa_offset 32
 260 0004 0190     		str	r0, [sp, #4]
 261              		.loc 1 155 0
 262 0006 019B     		ldr	r3, [sp, #4]
 263 0008 5B6F     		ldr	r3, [r3, #116]
 264 000a 0493     		str	r3, [sp, #16]
 265              		.loc 1 156 0
 266 000c 049B     		ldr	r3, [sp, #16]
 267 000e 9B89     		ldrh	r3, [r3, #12]	@ movhi
 268 0010 ADF80E30 		strh	r3, [sp, #14]	@ movhi
 269              		.loc 1 157 0
 270 0014 049B     		ldr	r3, [sp, #16]
 271 0016 1B88     		ldrh	r3, [r3]	@ movhi
 272 0018 ADF81630 		strh	r3, [sp, #22]	@ movhi
 273              		.loc 1 160 0
 274 001c BDF81630 		ldrh	r3, [sp, #22]
 275 0020 03F48073 		and	r3, r3, #256
 276 0024 002B     		cmp	r3, #0
ARM GAS  /tmp/ccSf0MBz.s 			page 6


 277 0026 14D0     		beq	.L12
 278              	.LBB2:
 279              		.loc 1 161 0
 280 0028 2023     		movs	r3, #32
 281              	@ 161 "../..//os/hal/platforms/STM32/USARTv1/serial_lld.c" 1
 282 002a 83F31188 		msr     BASEPRI, r3
 283              	@ 0 "" 2
 284              		.thumb
 285              	.LBE2:
 286 002e FFF7FEFF 		bl	dbg_check_lock_from_isr
 287              		.loc 1 162 0
 288 0032 019B     		ldr	r3, [sp, #4]
 289 0034 0433     		adds	r3, r3, #4
 290 0036 1846     		mov	r0, r3
 291 0038 4FF40071 		mov	r1, #512
 292 003c FFF7FEFF 		bl	chEvtBroadcastFlagsI
 293              		.loc 1 163 0
 294 0040 FFF7FEFF 		bl	dbg_check_unlock_from_isr
 295              	.LBB3:
 296 0044 0023     		movs	r3, #0
 297              	@ 163 "../..//os/hal/platforms/STM32/USARTv1/serial_lld.c" 1
 298 0046 83F31188 		msr     BASEPRI, r3
 299              	@ 0 "" 2
 300              		.thumb
 301              	.LBE3:
 302              		.loc 1 164 0
 303 004a 049B     		ldr	r3, [sp, #16]
 304 004c 4FF6FF62 		movw	r2, #65279
 305 0050 1A80     		strh	r2, [r3]	@ movhi
 306              	.L12:
 307              	.LBB4:
 308              		.loc 1 168 0
 309 0052 2023     		movs	r3, #32
 310              	@ 168 "../..//os/hal/platforms/STM32/USARTv1/serial_lld.c" 1
 311 0054 83F31188 		msr     BASEPRI, r3
 312              	@ 0 "" 2
 313              		.thumb
 314              	.LBE4:
 315 0058 FFF7FEFF 		bl	dbg_check_lock_from_isr
 316              		.loc 1 169 0
 317 005c 17E0     		b	.L13
 318              	.L15:
 319              		.loc 1 171 0
 320 005e BDF81630 		ldrh	r3, [sp, #22]
 321 0062 03F00F03 		and	r3, r3, #15
 322 0066 002B     		cmp	r3, #0
 323 0068 05D0     		beq	.L14
 324              		.loc 1 172 0
 325 006a BDF81630 		ldrh	r3, [sp, #22]
 326 006e 0198     		ldr	r0, [sp, #4]
 327 0070 1946     		mov	r1, r3
 328 0072 FFF7FEFF 		bl	set_error
 329              	.L14:
 330              		.loc 1 173 0
 331 0076 049B     		ldr	r3, [sp, #16]
 332 0078 9B88     		ldrh	r3, [r3, #4]	@ movhi
 333 007a 9BB2     		uxth	r3, r3
ARM GAS  /tmp/ccSf0MBz.s 			page 7


 334 007c DBB2     		uxtb	r3, r3
 335 007e 0198     		ldr	r0, [sp, #4]
 336 0080 1946     		mov	r1, r3
 337 0082 FFF7FEFF 		bl	sdIncomingDataI
 338              		.loc 1 174 0
 339 0086 049B     		ldr	r3, [sp, #16]
 340 0088 1B88     		ldrh	r3, [r3]	@ movhi
 341 008a ADF81630 		strh	r3, [sp, #22]	@ movhi
 342              	.L13:
 343              		.loc 1 169 0 discriminator 1
 344 008e BDF81630 		ldrh	r3, [sp, #22]
 345 0092 03F02003 		and	r3, r3, #32
 346 0096 002B     		cmp	r3, #0
 347 0098 E1D1     		bne	.L15
 348              		.loc 1 176 0
 349 009a FFF7FEFF 		bl	dbg_check_unlock_from_isr
 350              	.LBB5:
 351 009e 0023     		movs	r3, #0
 352              	@ 176 "../..//os/hal/platforms/STM32/USARTv1/serial_lld.c" 1
 353 00a0 83F31188 		msr     BASEPRI, r3
 354              	@ 0 "" 2
 355              		.thumb
 356              	.LBE5:
 357              		.loc 1 179 0
 358 00a4 BDF80E30 		ldrh	r3, [sp, #14]
 359 00a8 03F08003 		and	r3, r3, #128
 360 00ac 002B     		cmp	r3, #0
 361 00ae 2ED0     		beq	.L16
 362              		.loc 1 179 0 is_stmt 0 discriminator 1
 363 00b0 BDF81630 		ldrh	r3, [sp, #22]
 364 00b4 03F08003 		and	r3, r3, #128
 365 00b8 002B     		cmp	r3, #0
 366 00ba 28D0     		beq	.L16
 367              	.LBB6:
 368              	.LBB7:
 369              		.loc 1 181 0 is_stmt 1
 370 00bc 2023     		movs	r3, #32
 371              	@ 181 "../..//os/hal/platforms/STM32/USARTv1/serial_lld.c" 1
 372 00be 83F31188 		msr     BASEPRI, r3
 373              	@ 0 "" 2
 374              		.thumb
 375              	.LBE7:
 376 00c2 FFF7FEFF 		bl	dbg_check_lock_from_isr
 377              		.loc 1 182 0
 378 00c6 019B     		ldr	r3, [sp, #4]
 379 00c8 3033     		adds	r3, r3, #48
 380 00ca 1846     		mov	r0, r3
 381 00cc FFF7FEFF 		bl	chOQGetI
 382 00d0 0290     		str	r0, [sp, #8]
 383              		.loc 1 183 0
 384 00d2 029B     		ldr	r3, [sp, #8]
 385 00d4 002B     		cmp	r3, #0
 386 00d6 11DA     		bge	.L17
 387              		.loc 1 184 0
 388 00d8 019B     		ldr	r3, [sp, #4]
 389 00da 0433     		adds	r3, r3, #4
 390 00dc 1846     		mov	r0, r3
ARM GAS  /tmp/ccSf0MBz.s 			page 8


 391 00de 0821     		movs	r1, #8
 392 00e0 FFF7FEFF 		bl	chEvtBroadcastFlagsI
 393              		.loc 1 185 0
 394 00e4 BDF80E30 		ldrh	r3, [sp, #14]
 395 00e8 23F0C003 		bic	r3, r3, #192
 396 00ec 9BB2     		uxth	r3, r3
 397 00ee 43F04003 		orr	r3, r3, #64
 398 00f2 9BB2     		uxth	r3, r3
 399 00f4 9AB2     		uxth	r2, r3
 400 00f6 049B     		ldr	r3, [sp, #16]
 401 00f8 9A81     		strh	r2, [r3, #12]	@ movhi
 402 00fa 03E0     		b	.L18
 403              	.L17:
 404              		.loc 1 188 0
 405 00fc 029B     		ldr	r3, [sp, #8]
 406 00fe 9AB2     		uxth	r2, r3
 407 0100 049B     		ldr	r3, [sp, #16]
 408 0102 9A80     		strh	r2, [r3, #4]	@ movhi
 409              	.L18:
 410              		.loc 1 189 0
 411 0104 FFF7FEFF 		bl	dbg_check_unlock_from_isr
 412              	.LBB8:
 413 0108 0023     		movs	r3, #0
 414              	@ 189 "../..//os/hal/platforms/STM32/USARTv1/serial_lld.c" 1
 415 010a 83F31188 		msr     BASEPRI, r3
 416              	@ 0 "" 2
 417              		.thumb
 418              	.L16:
 419              	.LBE8:
 420              	.LBE6:
 421              		.loc 1 193 0
 422 010e BDF81630 		ldrh	r3, [sp, #22]
 423 0112 03F04003 		and	r3, r3, #64
 424 0116 002B     		cmp	r3, #0
 425 0118 1AD0     		beq	.L11
 426              	.LBB9:
 427              		.loc 1 194 0
 428 011a 2023     		movs	r3, #32
 429              	@ 194 "../..//os/hal/platforms/STM32/USARTv1/serial_lld.c" 1
 430 011c 83F31188 		msr     BASEPRI, r3
 431              	@ 0 "" 2
 432              		.thumb
 433              	.LBE9:
 434 0120 FFF7FEFF 		bl	dbg_check_lock_from_isr
 435              		.loc 1 195 0
 436 0124 019B     		ldr	r3, [sp, #4]
 437 0126 0433     		adds	r3, r3, #4
 438 0128 1846     		mov	r0, r3
 439 012a 1021     		movs	r1, #16
 440 012c FFF7FEFF 		bl	chEvtBroadcastFlagsI
 441              		.loc 1 196 0
 442 0130 FFF7FEFF 		bl	dbg_check_unlock_from_isr
 443              	.LBB10:
 444 0134 0023     		movs	r3, #0
 445              	@ 196 "../..//os/hal/platforms/STM32/USARTv1/serial_lld.c" 1
 446 0136 83F31188 		msr     BASEPRI, r3
 447              	@ 0 "" 2
ARM GAS  /tmp/ccSf0MBz.s 			page 9


 448              		.thumb
 449              	.LBE10:
 450              		.loc 1 197 0
 451 013a BDF80E30 		ldrh	r3, [sp, #14]	@ movhi
 452 013e 23F0C003 		bic	r3, r3, #192
 453 0142 9AB2     		uxth	r2, r3
 454 0144 049B     		ldr	r3, [sp, #16]
 455 0146 9A81     		strh	r2, [r3, #12]	@ movhi
 456              		.loc 1 198 0
 457 0148 049B     		ldr	r3, [sp, #16]
 458 014a 4FF6BF72 		movw	r2, #65471
 459 014e 1A80     		strh	r2, [r3]	@ movhi
 460              	.L11:
 461              		.loc 1 200 0
 462 0150 07B0     		add	sp, sp, #28
 463              		@ sp needed
 464 0152 5DF804FB 		ldr	pc, [sp], #4
 465              		.cfi_endproc
 466              	.LFE121:
 467              		.size	serve_interrupt, .-serve_interrupt
 468 0156 00BFAFF3 		.section	.text.notify2,"ax",%progbits
 468      0080AFF3 
 468      0080
 469              		.align	2
 470              		.p2align 4,,15
 471              		.thumb
 472              		.thumb_func
 473              		.type	notify2, %function
 474              	notify2:
 475              	.LFB122:
 476              		.loc 1 211 0
 477              		.cfi_startproc
 478              		@ args = 0, pretend = 0, frame = 8
 479              		@ frame_needed = 0, uses_anonymous_args = 0
 480              		@ link register save eliminated.
 481 0000 82B0     		sub	sp, sp, #8
 482              		.cfi_def_cfa_offset 8
 483 0002 0190     		str	r0, [sp, #4]
 484              		.loc 1 214 0
 485 0004 4FF48843 		mov	r3, #17408
 486 0008 C4F20003 		movt	r3, 16384
 487 000c 4FF48842 		mov	r2, #17408
 488 0010 C4F20002 		movt	r2, 16384
 489 0014 9289     		ldrh	r2, [r2, #12]	@ movhi
 490 0016 92B2     		uxth	r2, r2
 491 0018 42F08002 		orr	r2, r2, #128
 492 001c 92B2     		uxth	r2, r2
 493 001e 9A81     		strh	r2, [r3, #12]	@ movhi
 494              		.loc 1 215 0
 495 0020 02B0     		add	sp, sp, #8
 496              		@ sp needed
 497 0022 7047     		bx	lr
 498              		.cfi_endproc
 499              	.LFE122:
 500              		.size	notify2, .-notify2
 501 0024 AFF30080 		.section	.text.VectorD8,"ax",%progbits
 501      AFF30080 
ARM GAS  /tmp/ccSf0MBz.s 			page 10


 501      AFF30080 
 502              		.align	2
 503              		.p2align 4,,15
 504              		.global	VectorD8
 505              		.thumb
 506              		.thumb_func
 507              		.type	VectorD8, %function
 508              	VectorD8:
 509              	.LFB123:
 510              		.loc 1 282 0
 511              		.cfi_startproc
 512              		@ args = 0, pretend = 0, frame = 0
 513              		@ frame_needed = 0, uses_anonymous_args = 0
 514 0000 08B5     		push	{r3, lr}
 515              		.cfi_def_cfa_offset 8
 516              		.cfi_offset 3, -8
 517              		.cfi_offset 14, -4
 518              		.loc 1 284 0
 519 0002 FFF7FEFF 		bl	dbg_check_enter_isr
 520              		.loc 1 286 0
 521 0006 40F20000 		movw	r0, #:lower16:SD2
 522 000a C0F20000 		movt	r0, #:upper16:SD2
 523 000e FFF7FEFF 		bl	serve_interrupt
 524              		.loc 1 288 0
 525 0012 FFF7FEFF 		bl	dbg_check_leave_isr
 526 0016 FFF7FEFF 		bl	_port_irq_epilogue
 527              		.loc 1 289 0
 528 001a 08BD     		pop	{r3, pc}
 529              		.cfi_endproc
 530              	.LFE123:
 531              		.size	VectorD8, .-VectorD8
 532 001c AFF30080 		.section	.text.sd_lld_init,"ax",%progbits
 533              		.align	2
 534              		.p2align 4,,15
 535              		.global	sd_lld_init
 536              		.thumb
 537              		.thumb_func
 538              		.type	sd_lld_init, %function
 539              	sd_lld_init:
 540              	.LFB124:
 541              		.loc 1 377 0
 542              		.cfi_startproc
 543              		@ args = 0, pretend = 0, frame = 0
 544              		@ frame_needed = 0, uses_anonymous_args = 0
 545 0000 08B5     		push	{r3, lr}
 546              		.cfi_def_cfa_offset 8
 547              		.cfi_offset 3, -8
 548              		.cfi_offset 14, -4
 549              		.loc 1 385 0
 550 0002 40F20000 		movw	r0, #:lower16:SD2
 551 0006 C0F20000 		movt	r0, #:upper16:SD2
 552 000a 0021     		movs	r1, #0
 553 000c 40F20002 		movw	r2, #:lower16:notify2
 554 0010 C0F20002 		movt	r2, #:upper16:notify2
 555 0014 FFF7FEFF 		bl	sdObjectInit
 556              		.loc 1 386 0
 557 0018 40F20003 		movw	r3, #:lower16:SD2
ARM GAS  /tmp/ccSf0MBz.s 			page 11


 558 001c C0F20003 		movt	r3, #:upper16:SD2
 559 0020 4FF48842 		mov	r2, #17408
 560 0024 C4F20002 		movt	r2, 16384
 561 0028 5A67     		str	r2, [r3, #116]
 562              		.loc 1 408 0
 563 002a 08BD     		pop	{r3, pc}
 564              		.cfi_endproc
 565              	.LFE124:
 566              		.size	sd_lld_init, .-sd_lld_init
 567 002c AFF30080 		.section	.text.sd_lld_start,"ax",%progbits
 568              		.align	2
 569              		.p2align 4,,15
 570              		.global	sd_lld_start
 571              		.thumb
 572              		.thumb_func
 573              		.type	sd_lld_start, %function
 574              	sd_lld_start:
 575              	.LFB125:
 576              		.loc 1 420 0
 577              		.cfi_startproc
 578              		@ args = 0, pretend = 0, frame = 8
 579              		@ frame_needed = 0, uses_anonymous_args = 0
 580 0000 00B5     		push	{lr}
 581              		.cfi_def_cfa_offset 4
 582              		.cfi_offset 14, -4
 583 0002 83B0     		sub	sp, sp, #12
 584              		.cfi_def_cfa_offset 16
 585 0004 0190     		str	r0, [sp, #4]
 586 0006 0091     		str	r1, [sp]
 587              		.loc 1 422 0
 588 0008 009B     		ldr	r3, [sp]
 589 000a 002B     		cmp	r3, #0
 590 000c 04D1     		bne	.L24
 591              		.loc 1 423 0
 592 000e 40F20003 		movw	r3, #:lower16:default_config
 593 0012 C0F20003 		movt	r3, #:upper16:default_config
 594 0016 0093     		str	r3, [sp]
 595              	.L24:
 596              		.loc 1 425 0
 597 0018 019B     		ldr	r3, [sp, #4]
 598 001a 1B7A     		ldrb	r3, [r3, #8]	@ zero_extendqisi2
 599 001c 012B     		cmp	r3, #1
 600 001e 16D1     		bne	.L25
 601              		.loc 1 434 0
 602 0020 019A     		ldr	r2, [sp, #4]
 603 0022 40F20003 		movw	r3, #:lower16:SD2
 604 0026 C0F20003 		movt	r3, #:upper16:SD2
 605 002a 9A42     		cmp	r2, r3
 606 002c 0FD1     		bne	.L25
 607              		.loc 1 435 0
 608 002e 4FF46053 		mov	r3, #14336
 609 0032 C4F20203 		movt	r3, 16386
 610 0036 4FF46052 		mov	r2, #14336
 611 003a C4F20202 		movt	r2, 16386
 612 003e 126C     		ldr	r2, [r2, #64]
 613 0040 42F40032 		orr	r2, r2, #131072
 614 0044 1A64     		str	r2, [r3, #64]
ARM GAS  /tmp/ccSf0MBz.s 			page 12


 615              		.loc 1 436 0
 616 0046 2620     		movs	r0, #38
 617 0048 C021     		movs	r1, #192
 618 004a FFF7FEFF 		bl	nvicEnableVector
 619              	.L25:
 620              		.loc 1 469 0
 621 004e 0198     		ldr	r0, [sp, #4]
 622 0050 0099     		ldr	r1, [sp]
 623 0052 FFF7FEFF 		bl	usart_init
 624              		.loc 1 470 0
 625 0056 03B0     		add	sp, sp, #12
 626              		@ sp needed
 627 0058 5DF804FB 		ldr	pc, [sp], #4
 628              		.cfi_endproc
 629              	.LFE125:
 630              		.size	sd_lld_start, .-sd_lld_start
 631 005c AFF30080 		.section	.text.sd_lld_stop,"ax",%progbits
 632              		.align	2
 633              		.p2align 4,,15
 634              		.global	sd_lld_stop
 635              		.thumb
 636              		.thumb_func
 637              		.type	sd_lld_stop, %function
 638              	sd_lld_stop:
 639              	.LFB126:
 640              		.loc 1 481 0
 641              		.cfi_startproc
 642              		@ args = 0, pretend = 0, frame = 8
 643              		@ frame_needed = 0, uses_anonymous_args = 0
 644 0000 00B5     		push	{lr}
 645              		.cfi_def_cfa_offset 4
 646              		.cfi_offset 14, -4
 647 0002 83B0     		sub	sp, sp, #12
 648              		.cfi_def_cfa_offset 16
 649 0004 0190     		str	r0, [sp, #4]
 650              		.loc 1 483 0
 651 0006 019B     		ldr	r3, [sp, #4]
 652 0008 1B7A     		ldrb	r3, [r3, #8]	@ zero_extendqisi2
 653 000a 022B     		cmp	r3, #2
 654 000c 1BD1     		bne	.L26
 655              		.loc 1 484 0
 656 000e 019B     		ldr	r3, [sp, #4]
 657 0010 5B6F     		ldr	r3, [r3, #116]
 658 0012 1846     		mov	r0, r3
 659 0014 FFF7FEFF 		bl	usart_deinit
 660              		.loc 1 493 0
 661 0018 019A     		ldr	r2, [sp, #4]
 662 001a 40F20003 		movw	r3, #:lower16:SD2
 663 001e C0F20003 		movt	r3, #:upper16:SD2
 664 0022 9A42     		cmp	r2, r3
 665 0024 0FD1     		bne	.L26
 666              		.loc 1 494 0
 667 0026 4FF46053 		mov	r3, #14336
 668 002a C4F20203 		movt	r3, 16386
 669 002e 4FF46052 		mov	r2, #14336
 670 0032 C4F20202 		movt	r2, 16386
 671 0036 126C     		ldr	r2, [r2, #64]
ARM GAS  /tmp/ccSf0MBz.s 			page 13


 672 0038 22F40032 		bic	r2, r2, #131072
 673 003c 1A64     		str	r2, [r3, #64]
 674              		.loc 1 495 0
 675 003e 2620     		movs	r0, #38
 676 0040 FFF7FEFF 		bl	nvicDisableVector
 677              		.loc 1 496 0
 678 0044 00BF     		nop
 679              	.L26:
 680              		.loc 1 528 0
 681 0046 03B0     		add	sp, sp, #12
 682              		@ sp needed
 683 0048 5DF804FB 		ldr	pc, [sp], #4
 684              		.cfi_endproc
 685              	.LFE126:
 686              		.size	sd_lld_stop, .-sd_lld_stop
 687 004c AFF30080 		.text
 688              	.Letext0:
 689              		.file 2 "/usr/lib/gcc/arm-none-eabi/4.8.2/include/stddef.h"
 690              		.file 3 "/usr/arm-none-eabi/include/machine/_default_types.h"
 691              		.file 4 "/usr/arm-none-eabi/include/stdint.h"
 692              		.file 5 "../..//os/ports/GCC/ARMCMx/chtypes.h"
 693              		.file 6 "../..//os/kernel/include/chlists.h"
 694              		.file 7 "../..//os/kernel/include/chthreads.h"
 695              		.file 8 "../..//os/ports/GCC/ARMCMx/chcore_v7m.h"
 696              		.file 9 "../..//os/kernel/include/chmtx.h"
 697              		.file 10 "../..//os/kernel/include/chevents.h"
 698              		.file 11 "../..//os/kernel/include/chqueues.h"
 699              		.file 12 "../..//os/hal/platforms/STM32F4xx/stm32f4xx.h"
 700              		.file 13 "../..//os/hal/include/serial.h"
 701              		.file 14 "../..//os/hal/platforms/STM32/USARTv1/serial_lld.h"
 702              		.file 15 "../..//os/ports/common/ARMCMx/CMSIS/include/core_cm4.h"
 703              		.section	.debug_info,"",%progbits
 704              	.Ldebug_info0:
 705 0000 240F0000 		.4byte	0xf24
 706 0004 0400     		.2byte	0x4
 707 0006 00000000 		.4byte	.Ldebug_abbrev0
 708 000a 04       		.byte	0x4
 709 000b 01       		.uleb128 0x1
 710 000c C6090000 		.4byte	.LASF239
 711 0010 01       		.byte	0x1
 712 0011 48050000 		.4byte	.LASF240
 713 0015 D4040000 		.4byte	.LASF241
 714 0019 00000000 		.4byte	.Ldebug_ranges0+0
 715 001d 00000000 		.4byte	0
 716 0021 00000000 		.4byte	.Ldebug_line0
 717 0025 02       		.uleb128 0x2
 718 0026 04       		.byte	0x4
 719 0027 05       		.byte	0x5
 720 0028 696E7400 		.ascii	"int\000"
 721 002c 03       		.uleb128 0x3
 722 002d 00000000 		.4byte	.LASF2
 723 0031 02       		.byte	0x2
 724 0032 D4       		.byte	0xd4
 725 0033 37000000 		.4byte	0x37
 726 0037 04       		.uleb128 0x4
 727 0038 04       		.byte	0x4
 728 0039 07       		.byte	0x7
ARM GAS  /tmp/ccSf0MBz.s 			page 14


 729 003a C7060000 		.4byte	.LASF0
 730 003e 04       		.uleb128 0x4
 731 003f 01       		.byte	0x1
 732 0040 06       		.byte	0x6
 733 0041 43020000 		.4byte	.LASF1
 734 0045 03       		.uleb128 0x3
 735 0046 1C010000 		.4byte	.LASF3
 736 004a 03       		.byte	0x3
 737 004b 1C       		.byte	0x1c
 738 004c 50000000 		.4byte	0x50
 739 0050 04       		.uleb128 0x4
 740 0051 01       		.byte	0x1
 741 0052 08       		.byte	0x8
 742 0053 9B020000 		.4byte	.LASF4
 743 0057 04       		.uleb128 0x4
 744 0058 02       		.byte	0x2
 745 0059 05       		.byte	0x5
 746 005a 29090000 		.4byte	.LASF5
 747 005e 03       		.uleb128 0x3
 748 005f 4E030000 		.4byte	.LASF6
 749 0063 03       		.byte	0x3
 750 0064 26       		.byte	0x26
 751 0065 69000000 		.4byte	0x69
 752 0069 04       		.uleb128 0x4
 753 006a 02       		.byte	0x2
 754 006b 07       		.byte	0x7
 755 006c A80A0000 		.4byte	.LASF7
 756 0070 03       		.uleb128 0x3
 757 0071 300B0000 		.4byte	.LASF8
 758 0075 03       		.byte	0x3
 759 0076 37       		.byte	0x37
 760 0077 7B000000 		.4byte	0x7b
 761 007b 04       		.uleb128 0x4
 762 007c 04       		.byte	0x4
 763 007d 05       		.byte	0x5
 764 007e 8F010000 		.4byte	.LASF9
 765 0082 03       		.uleb128 0x3
 766 0083 E5050000 		.4byte	.LASF10
 767 0087 03       		.byte	0x3
 768 0088 38       		.byte	0x38
 769 0089 8D000000 		.4byte	0x8d
 770 008d 04       		.uleb128 0x4
 771 008e 04       		.byte	0x4
 772 008f 07       		.byte	0x7
 773 0090 AC040000 		.4byte	.LASF11
 774 0094 04       		.uleb128 0x4
 775 0095 08       		.byte	0x8
 776 0096 05       		.byte	0x5
 777 0097 00060000 		.4byte	.LASF12
 778 009b 03       		.uleb128 0x3
 779 009c 97040000 		.4byte	.LASF13
 780 00a0 03       		.byte	0x3
 781 00a1 4E       		.byte	0x4e
 782 00a2 A6000000 		.4byte	0xa6
 783 00a6 04       		.uleb128 0x4
 784 00a7 08       		.byte	0x8
 785 00a8 07       		.byte	0x7
ARM GAS  /tmp/ccSf0MBz.s 			page 15


 786 00a9 F8070000 		.4byte	.LASF14
 787 00ad 03       		.uleb128 0x3
 788 00ae 59020000 		.4byte	.LASF15
 789 00b2 04       		.byte	0x4
 790 00b3 2A       		.byte	0x2a
 791 00b4 45000000 		.4byte	0x45
 792 00b8 03       		.uleb128 0x3
 793 00b9 17080000 		.4byte	.LASF16
 794 00bd 04       		.byte	0x4
 795 00be 36       		.byte	0x36
 796 00bf 5E000000 		.4byte	0x5e
 797 00c3 03       		.uleb128 0x3
 798 00c4 51000000 		.4byte	.LASF17
 799 00c8 04       		.byte	0x4
 800 00c9 41       		.byte	0x41
 801 00ca 70000000 		.4byte	0x70
 802 00ce 03       		.uleb128 0x3
 803 00cf BD090000 		.4byte	.LASF18
 804 00d3 04       		.byte	0x4
 805 00d4 42       		.byte	0x42
 806 00d5 82000000 		.4byte	0x82
 807 00d9 03       		.uleb128 0x3
 808 00da 33090000 		.4byte	.LASF19
 809 00de 04       		.byte	0x4
 810 00df 4E       		.byte	0x4e
 811 00e0 9B000000 		.4byte	0x9b
 812 00e4 04       		.uleb128 0x4
 813 00e5 01       		.byte	0x1
 814 00e6 02       		.byte	0x2
 815 00e7 FB020000 		.4byte	.LASF20
 816 00eb 03       		.uleb128 0x3
 817 00ec 9D080000 		.4byte	.LASF21
 818 00f0 05       		.byte	0x5
 819 00f1 2C       		.byte	0x2c
 820 00f2 AD000000 		.4byte	0xad
 821 00f6 03       		.uleb128 0x3
 822 00f7 CF010000 		.4byte	.LASF22
 823 00fb 05       		.byte	0x5
 824 00fc 2D       		.byte	0x2d
 825 00fd AD000000 		.4byte	0xad
 826 0101 03       		.uleb128 0x3
 827 0102 85090000 		.4byte	.LASF23
 828 0106 05       		.byte	0x5
 829 0107 2E       		.byte	0x2e
 830 0108 AD000000 		.4byte	0xad
 831 010c 03       		.uleb128 0x3
 832 010d 3C080000 		.4byte	.LASF24
 833 0111 05       		.byte	0x5
 834 0112 2F       		.byte	0x2f
 835 0113 AD000000 		.4byte	0xad
 836 0117 03       		.uleb128 0x3
 837 0118 3E000000 		.4byte	.LASF25
 838 011c 05       		.byte	0x5
 839 011d 30       		.byte	0x30
 840 011e CE000000 		.4byte	0xce
 841 0122 03       		.uleb128 0x3
 842 0123 20080000 		.4byte	.LASF26
ARM GAS  /tmp/ccSf0MBz.s 			page 16


 843 0127 05       		.byte	0x5
 844 0128 31       		.byte	0x31
 845 0129 C3000000 		.4byte	0xc3
 846 012d 03       		.uleb128 0x3
 847 012e 61020000 		.4byte	.LASF27
 848 0132 05       		.byte	0x5
 849 0133 33       		.byte	0x33
 850 0134 CE000000 		.4byte	0xce
 851 0138 03       		.uleb128 0x3
 852 0139 26070000 		.4byte	.LASF28
 853 013d 05       		.byte	0x5
 854 013e 34       		.byte	0x34
 855 013f CE000000 		.4byte	0xce
 856 0143 03       		.uleb128 0x3
 857 0144 23000000 		.4byte	.LASF29
 858 0148 05       		.byte	0x5
 859 0149 35       		.byte	0x35
 860 014a CE000000 		.4byte	0xce
 861 014e 03       		.uleb128 0x3
 862 014f 5E090000 		.4byte	.LASF30
 863 0153 06       		.byte	0x6
 864 0154 2A       		.byte	0x2a
 865 0155 59010000 		.4byte	0x159
 866 0159 05       		.uleb128 0x5
 867 015a 5E090000 		.4byte	.LASF30
 868 015e 4C       		.byte	0x4c
 869 015f 07       		.byte	0x7
 870 0160 5E       		.byte	0x5e
 871 0161 62020000 		.4byte	0x262
 872 0165 06       		.uleb128 0x6
 873 0166 98010000 		.4byte	.LASF31
 874 016a 07       		.byte	0x7
 875 016b 5F       		.byte	0x5f
 876 016c 83020000 		.4byte	0x283
 877 0170 00       		.byte	0
 878 0171 06       		.uleb128 0x6
 879 0172 A7010000 		.4byte	.LASF32
 880 0176 07       		.byte	0x7
 881 0177 61       		.byte	0x61
 882 0178 83020000 		.4byte	0x283
 883 017c 04       		.byte	0x4
 884 017d 06       		.uleb128 0x6
 885 017e 47030000 		.4byte	.LASF33
 886 0182 07       		.byte	0x7
 887 0183 63       		.byte	0x63
 888 0184 17010000 		.4byte	0x117
 889 0188 08       		.byte	0x8
 890 0189 06       		.uleb128 0x6
 891 018a 38000000 		.4byte	.LASF34
 892 018e 07       		.byte	0x7
 893 018f 64       		.byte	0x64
 894 0190 48030000 		.4byte	0x348
 895 0194 0C       		.byte	0xc
 896 0195 06       		.uleb128 0x6
 897 0196 87010000 		.4byte	.LASF35
 898 019a 07       		.byte	0x7
 899 019b 66       		.byte	0x66
ARM GAS  /tmp/ccSf0MBz.s 			page 17


 900 019c 83020000 		.4byte	0x283
 901 01a0 10       		.byte	0x10
 902 01a1 06       		.uleb128 0x6
 903 01a2 0F080000 		.4byte	.LASF36
 904 01a6 07       		.byte	0x7
 905 01a7 67       		.byte	0x67
 906 01a8 83020000 		.4byte	0x283
 907 01ac 14       		.byte	0x14
 908 01ad 06       		.uleb128 0x6
 909 01ae 4A0B0000 		.4byte	.LASF37
 910 01b2 07       		.byte	0x7
 911 01b3 6E       		.byte	0x6e
 912 01b4 63040000 		.4byte	0x463
 913 01b8 18       		.byte	0x18
 914 01b9 06       		.uleb128 0x6
 915 01ba 130B0000 		.4byte	.LASF38
 916 01be 07       		.byte	0x7
 917 01bf 74       		.byte	0x74
 918 01c0 75040000 		.4byte	0x475
 919 01c4 1C       		.byte	0x1c
 920 01c5 06       		.uleb128 0x6
 921 01c6 840B0000 		.4byte	.LASF39
 922 01ca 07       		.byte	0x7
 923 01cb 79       		.byte	0x79
 924 01cc F6000000 		.4byte	0xf6
 925 01d0 20       		.byte	0x20
 926 01d1 06       		.uleb128 0x6
 927 01d2 BA060000 		.4byte	.LASF40
 928 01d6 07       		.byte	0x7
 929 01d7 7D       		.byte	0x7d
 930 01d8 EB000000 		.4byte	0xeb
 931 01dc 21       		.byte	0x21
 932 01dd 06       		.uleb128 0x6
 933 01de F7060000 		.4byte	.LASF41
 934 01e2 07       		.byte	0x7
 935 01e3 82       		.byte	0x82
 936 01e4 01010000 		.4byte	0x101
 937 01e8 22       		.byte	0x22
 938 01e9 06       		.uleb128 0x6
 939 01ea 4F020000 		.4byte	.LASF42
 940 01ee 07       		.byte	0x7
 941 01ef 88       		.byte	0x88
 942 01f0 0C010000 		.4byte	0x10c
 943 01f4 23       		.byte	0x23
 944 01f5 06       		.uleb128 0x6
 945 01f6 51070000 		.4byte	.LASF43
 946 01fa 07       		.byte	0x7
 947 01fb 8F       		.byte	0x8f
 948 01fc 75030000 		.4byte	0x375
 949 0200 24       		.byte	0x24
 950 0201 07       		.uleb128 0x7
 951 0202 705F7500 		.ascii	"p_u\000"
 952 0206 07       		.byte	0x7
 953 0207 B4       		.byte	0xb4
 954 0208 2E040000 		.4byte	0x42e
 955 020c 28       		.byte	0x28
 956 020d 06       		.uleb128 0x6
ARM GAS  /tmp/ccSf0MBz.s 			page 18


 957 020e 87060000 		.4byte	.LASF44
 958 0212 07       		.byte	0x7
 959 0213 B9       		.byte	0xb9
 960 0214 A9020000 		.4byte	0x2a9
 961 0218 2C       		.byte	0x2c
 962 0219 06       		.uleb128 0x6
 963 021a 46000000 		.4byte	.LASF45
 964 021e 07       		.byte	0x7
 965 021f BF       		.byte	0xbf
 966 0220 89020000 		.4byte	0x289
 967 0224 30       		.byte	0x30
 968 0225 06       		.uleb128 0x6
 969 0226 720B0000 		.4byte	.LASF46
 970 022a 07       		.byte	0x7
 971 022b C3       		.byte	0xc3
 972 022c 22010000 		.4byte	0x122
 973 0230 38       		.byte	0x38
 974 0231 06       		.uleb128 0x6
 975 0232 E2030000 		.4byte	.LASF47
 976 0236 07       		.byte	0x7
 977 0237 C9       		.byte	0xc9
 978 0238 2D010000 		.4byte	0x12d
 979 023c 3C       		.byte	0x3c
 980 023d 06       		.uleb128 0x6
 981 023e D8010000 		.4byte	.LASF48
 982 0242 07       		.byte	0x7
 983 0243 D0       		.byte	0xd0
 984 0244 7B040000 		.4byte	0x47b
 985 0248 40       		.byte	0x40
 986 0249 06       		.uleb128 0x6
 987 024a 78070000 		.4byte	.LASF49
 988 024e 07       		.byte	0x7
 989 024f D4       		.byte	0xd4
 990 0250 17010000 		.4byte	0x117
 991 0254 44       		.byte	0x44
 992 0255 06       		.uleb128 0x6
 993 0256 E2060000 		.4byte	.LASF50
 994 025a 07       		.byte	0x7
 995 025b DA       		.byte	0xda
 996 025c BF020000 		.4byte	0x2bf
 997 0260 48       		.byte	0x48
 998 0261 00       		.byte	0
 999 0262 08       		.uleb128 0x8
 1000 0263 08       		.byte	0x8
 1001 0264 06       		.byte	0x6
 1002 0265 61       		.byte	0x61
 1003 0266 83020000 		.4byte	0x283
 1004 026a 06       		.uleb128 0x6
 1005 026b 98010000 		.4byte	.LASF31
 1006 026f 06       		.byte	0x6
 1007 0270 62       		.byte	0x62
 1008 0271 83020000 		.4byte	0x283
 1009 0275 00       		.byte	0
 1010 0276 06       		.uleb128 0x6
 1011 0277 A7010000 		.4byte	.LASF32
 1012 027b 06       		.byte	0x6
 1013 027c 64       		.byte	0x64
ARM GAS  /tmp/ccSf0MBz.s 			page 19


 1014 027d 83020000 		.4byte	0x283
 1015 0281 04       		.byte	0x4
 1016 0282 00       		.byte	0
 1017 0283 09       		.uleb128 0x9
 1018 0284 04       		.byte	0x4
 1019 0285 4E010000 		.4byte	0x14e
 1020 0289 03       		.uleb128 0x3
 1021 028a 710A0000 		.4byte	.LASF51
 1022 028e 06       		.byte	0x6
 1023 028f 66       		.byte	0x66
 1024 0290 62020000 		.4byte	0x262
 1025 0294 08       		.uleb128 0x8
 1026 0295 04       		.byte	0x4
 1027 0296 06       		.byte	0x6
 1028 0297 6B       		.byte	0x6b
 1029 0298 A9020000 		.4byte	0x2a9
 1030 029c 06       		.uleb128 0x6
 1031 029d 98010000 		.4byte	.LASF31
 1032 02a1 06       		.byte	0x6
 1033 02a2 6D       		.byte	0x6d
 1034 02a3 83020000 		.4byte	0x283
 1035 02a7 00       		.byte	0
 1036 02a8 00       		.byte	0
 1037 02a9 03       		.uleb128 0x3
 1038 02aa FE060000 		.4byte	.LASF52
 1039 02ae 06       		.byte	0x6
 1040 02af 70       		.byte	0x70
 1041 02b0 94020000 		.4byte	0x294
 1042 02b4 03       		.uleb128 0x3
 1043 02b5 01020000 		.4byte	.LASF53
 1044 02b9 08       		.byte	0x8
 1045 02ba E5       		.byte	0xe5
 1046 02bb BF020000 		.4byte	0x2bf
 1047 02bf 0A       		.uleb128 0xa
 1048 02c0 04       		.byte	0x4
 1049 02c1 03       		.uleb128 0x3
 1050 02c2 88030000 		.4byte	.LASF54
 1051 02c6 08       		.byte	0x8
 1052 02c7 EB       		.byte	0xeb
 1053 02c8 D9000000 		.4byte	0xd9
 1054 02cc 0B       		.uleb128 0xb
 1055 02cd D5030000 		.4byte	.LASF55
 1056 02d1 24       		.byte	0x24
 1057 02d2 08       		.byte	0x8
 1058 02d3 0C01     		.2byte	0x10c
 1059 02d5 48030000 		.4byte	0x348
 1060 02d9 0C       		.uleb128 0xc
 1061 02da 723400   		.ascii	"r4\000"
 1062 02dd 08       		.byte	0x8
 1063 02de 1F01     		.2byte	0x11f
 1064 02e0 B4020000 		.4byte	0x2b4
 1065 02e4 00       		.byte	0
 1066 02e5 0C       		.uleb128 0xc
 1067 02e6 723500   		.ascii	"r5\000"
 1068 02e9 08       		.byte	0x8
 1069 02ea 2001     		.2byte	0x120
 1070 02ec B4020000 		.4byte	0x2b4
ARM GAS  /tmp/ccSf0MBz.s 			page 20


 1071 02f0 04       		.byte	0x4
 1072 02f1 0C       		.uleb128 0xc
 1073 02f2 723600   		.ascii	"r6\000"
 1074 02f5 08       		.byte	0x8
 1075 02f6 2101     		.2byte	0x121
 1076 02f8 B4020000 		.4byte	0x2b4
 1077 02fc 08       		.byte	0x8
 1078 02fd 0C       		.uleb128 0xc
 1079 02fe 723700   		.ascii	"r7\000"
 1080 0301 08       		.byte	0x8
 1081 0302 2201     		.2byte	0x122
 1082 0304 B4020000 		.4byte	0x2b4
 1083 0308 0C       		.byte	0xc
 1084 0309 0C       		.uleb128 0xc
 1085 030a 723800   		.ascii	"r8\000"
 1086 030d 08       		.byte	0x8
 1087 030e 2301     		.2byte	0x123
 1088 0310 B4020000 		.4byte	0x2b4
 1089 0314 10       		.byte	0x10
 1090 0315 0C       		.uleb128 0xc
 1091 0316 723900   		.ascii	"r9\000"
 1092 0319 08       		.byte	0x8
 1093 031a 2401     		.2byte	0x124
 1094 031c B4020000 		.4byte	0x2b4
 1095 0320 14       		.byte	0x14
 1096 0321 0C       		.uleb128 0xc
 1097 0322 72313000 		.ascii	"r10\000"
 1098 0326 08       		.byte	0x8
 1099 0327 2501     		.2byte	0x125
 1100 0329 B4020000 		.4byte	0x2b4
 1101 032d 18       		.byte	0x18
 1102 032e 0C       		.uleb128 0xc
 1103 032f 72313100 		.ascii	"r11\000"
 1104 0333 08       		.byte	0x8
 1105 0334 2601     		.2byte	0x126
 1106 0336 B4020000 		.4byte	0x2b4
 1107 033a 1C       		.byte	0x1c
 1108 033b 0C       		.uleb128 0xc
 1109 033c 6C7200   		.ascii	"lr\000"
 1110 033f 08       		.byte	0x8
 1111 0340 2701     		.2byte	0x127
 1112 0342 B4020000 		.4byte	0x2b4
 1113 0346 20       		.byte	0x20
 1114 0347 00       		.byte	0
 1115 0348 0B       		.uleb128 0xb
 1116 0349 6D020000 		.4byte	.LASF56
 1117 034d 04       		.byte	0x4
 1118 034e 08       		.byte	0x8
 1119 034f 3101     		.2byte	0x131
 1120 0351 63030000 		.4byte	0x363
 1121 0355 0C       		.uleb128 0xc
 1122 0356 72313300 		.ascii	"r13\000"
 1123 035a 08       		.byte	0x8
 1124 035b 3201     		.2byte	0x132
 1125 035d 63030000 		.4byte	0x363
 1126 0361 00       		.byte	0
 1127 0362 00       		.byte	0
ARM GAS  /tmp/ccSf0MBz.s 			page 21


 1128 0363 09       		.uleb128 0x9
 1129 0364 04       		.byte	0x4
 1130 0365 CC020000 		.4byte	0x2cc
 1131 0369 0D       		.uleb128 0xd
 1132 036a CE000000 		.4byte	0xce
 1133 036e 04       		.uleb128 0x4
 1134 036f 04       		.byte	0x4
 1135 0370 07       		.byte	0x7
 1136 0371 1A000000 		.4byte	.LASF57
 1137 0375 0D       		.uleb128 0xd
 1138 0376 43010000 		.4byte	0x143
 1139 037a 05       		.uleb128 0x5
 1140 037b F0050000 		.4byte	.LASF58
 1141 037f 10       		.byte	0x10
 1142 0380 09       		.byte	0x9
 1143 0381 2C       		.byte	0x2c
 1144 0382 AB030000 		.4byte	0x3ab
 1145 0386 06       		.uleb128 0x6
 1146 0387 32060000 		.4byte	.LASF59
 1147 038b 09       		.byte	0x9
 1148 038c 2D       		.byte	0x2d
 1149 038d 89020000 		.4byte	0x289
 1150 0391 00       		.byte	0
 1151 0392 06       		.uleb128 0x6
 1152 0393 0B010000 		.4byte	.LASF60
 1153 0397 09       		.byte	0x9
 1154 0398 2F       		.byte	0x2f
 1155 0399 83020000 		.4byte	0x283
 1156 039d 08       		.byte	0x8
 1157 039e 06       		.uleb128 0x6
 1158 039f 510B0000 		.4byte	.LASF61
 1159 03a3 09       		.byte	0x9
 1160 03a4 31       		.byte	0x31
 1161 03a5 AB030000 		.4byte	0x3ab
 1162 03a9 0C       		.byte	0xc
 1163 03aa 00       		.byte	0
 1164 03ab 09       		.uleb128 0x9
 1165 03ac 04       		.byte	0x4
 1166 03ad 7A030000 		.4byte	0x37a
 1167 03b1 03       		.uleb128 0x3
 1168 03b2 F0050000 		.4byte	.LASF58
 1169 03b6 09       		.byte	0x9
 1170 03b7 33       		.byte	0x33
 1171 03b8 7A030000 		.4byte	0x37a
 1172 03bc 03       		.uleb128 0x3
 1173 03bd AF090000 		.4byte	.LASF62
 1174 03c1 0A       		.byte	0xa
 1175 03c2 2C       		.byte	0x2c
 1176 03c3 C7030000 		.4byte	0x3c7
 1177 03c7 05       		.uleb128 0x5
 1178 03c8 AF090000 		.4byte	.LASF62
 1179 03cc 10       		.byte	0x10
 1180 03cd 0A       		.byte	0xa
 1181 03ce 31       		.byte	0x31
 1182 03cf 04040000 		.4byte	0x404
 1183 03d3 06       		.uleb128 0x6
 1184 03d4 38050000 		.4byte	.LASF63
ARM GAS  /tmp/ccSf0MBz.s 			page 22


 1185 03d8 0A       		.byte	0xa
 1186 03d9 32       		.byte	0x32
 1187 03da 04040000 		.4byte	0x404
 1188 03de 00       		.byte	0
 1189 03df 06       		.uleb128 0x6
 1190 03e0 780B0000 		.4byte	.LASF64
 1191 03e4 0A       		.byte	0xa
 1192 03e5 35       		.byte	0x35
 1193 03e6 83020000 		.4byte	0x283
 1194 03ea 04       		.byte	0x4
 1195 03eb 06       		.uleb128 0x6
 1196 03ec 420B0000 		.4byte	.LASF65
 1197 03f0 0A       		.byte	0xa
 1198 03f1 37       		.byte	0x37
 1199 03f2 2D010000 		.4byte	0x12d
 1200 03f6 08       		.byte	0x8
 1201 03f7 06       		.uleb128 0x6
 1202 03f8 B2000000 		.4byte	.LASF66
 1203 03fc 0A       		.byte	0xa
 1204 03fd 3A       		.byte	0x3a
 1205 03fe 38010000 		.4byte	0x138
 1206 0402 0C       		.byte	0xc
 1207 0403 00       		.byte	0
 1208 0404 09       		.uleb128 0x9
 1209 0405 04       		.byte	0x4
 1210 0406 BC030000 		.4byte	0x3bc
 1211 040a 05       		.uleb128 0x5
 1212 040b 8B040000 		.4byte	.LASF67
 1213 040f 04       		.byte	0x4
 1214 0410 0A       		.byte	0xa
 1215 0411 41       		.byte	0x41
 1216 0412 23040000 		.4byte	0x423
 1217 0416 06       		.uleb128 0x6
 1218 0417 4F040000 		.4byte	.LASF68
 1219 041b 0A       		.byte	0xa
 1220 041c 42       		.byte	0x42
 1221 041d 04040000 		.4byte	0x404
 1222 0421 00       		.byte	0
 1223 0422 00       		.byte	0
 1224 0423 03       		.uleb128 0x3
 1225 0424 8B040000 		.4byte	.LASF67
 1226 0428 0A       		.byte	0xa
 1227 0429 45       		.byte	0x45
 1228 042a 0A040000 		.4byte	0x40a
 1229 042e 0E       		.uleb128 0xe
 1230 042f 04       		.byte	0x4
 1231 0430 07       		.byte	0x7
 1232 0431 96       		.byte	0x96
 1233 0432 63040000 		.4byte	0x463
 1234 0436 0F       		.uleb128 0xf
 1235 0437 960A0000 		.4byte	.LASF69
 1236 043b 07       		.byte	0x7
 1237 043c 9D       		.byte	0x9d
 1238 043d 22010000 		.4byte	0x122
 1239 0441 0F       		.uleb128 0xf
 1240 0442 13010000 		.4byte	.LASF70
 1241 0446 07       		.byte	0x7
ARM GAS  /tmp/ccSf0MBz.s 			page 23


 1242 0447 A4       		.byte	0xa4
 1243 0448 22010000 		.4byte	0x122
 1244 044c 0F       		.uleb128 0xf
 1245 044d 6E030000 		.4byte	.LASF71
 1246 0451 07       		.byte	0x7
 1247 0452 AB       		.byte	0xab
 1248 0453 BF020000 		.4byte	0x2bf
 1249 0457 0F       		.uleb128 0xf
 1250 0458 3D010000 		.4byte	.LASF72
 1251 045c 07       		.byte	0x7
 1252 045d B2       		.byte	0xb2
 1253 045e 2D010000 		.4byte	0x12d
 1254 0462 00       		.byte	0
 1255 0463 09       		.uleb128 0x9
 1256 0464 04       		.byte	0x4
 1257 0465 69040000 		.4byte	0x469
 1258 0469 10       		.uleb128 0x10
 1259 046a 6E040000 		.4byte	0x46e
 1260 046e 04       		.uleb128 0x4
 1261 046f 01       		.byte	0x1
 1262 0470 08       		.byte	0x8
 1263 0471 39030000 		.4byte	.LASF73
 1264 0475 09       		.uleb128 0x9
 1265 0476 04       		.byte	0x4
 1266 0477 C1020000 		.4byte	0x2c1
 1267 047b 09       		.uleb128 0x9
 1268 047c 04       		.byte	0x4
 1269 047d B1030000 		.4byte	0x3b1
 1270 0481 09       		.uleb128 0x9
 1271 0482 04       		.byte	0x4
 1272 0483 87040000 		.4byte	0x487
 1273 0487 11       		.uleb128 0x11
 1274 0488 22010000 		.4byte	0x122
 1275 048c 96040000 		.4byte	0x496
 1276 0490 12       		.uleb128 0x12
 1277 0491 BF020000 		.4byte	0x2bf
 1278 0495 00       		.byte	0
 1279 0496 03       		.uleb128 0x3
 1280 0497 61030000 		.4byte	.LASF74
 1281 049b 0B       		.byte	0xb
 1282 049c 37       		.byte	0x37
 1283 049d A1040000 		.4byte	0x4a1
 1284 04a1 05       		.uleb128 0x5
 1285 04a2 61030000 		.4byte	.LASF74
 1286 04a6 24       		.byte	0x24
 1287 04a7 0B       		.byte	0xb
 1288 04a8 45       		.byte	0x45
 1289 04a9 0E050000 		.4byte	0x50e
 1290 04ad 06       		.uleb128 0x6
 1291 04ae 88080000 		.4byte	.LASF75
 1292 04b2 0B       		.byte	0xb
 1293 04b3 46       		.byte	0x46
 1294 04b4 89020000 		.4byte	0x289
 1295 04b8 00       		.byte	0
 1296 04b9 06       		.uleb128 0x6
 1297 04ba 57040000 		.4byte	.LASF76
 1298 04be 0B       		.byte	0xb
ARM GAS  /tmp/ccSf0MBz.s 			page 24


 1299 04bf 47       		.byte	0x47
 1300 04c0 2C000000 		.4byte	0x2c
 1301 04c4 08       		.byte	0x8
 1302 04c5 06       		.uleb128 0x6
 1303 04c6 75010000 		.4byte	.LASF77
 1304 04ca 0B       		.byte	0xb
 1305 04cb 48       		.byte	0x48
 1306 04cc 30050000 		.4byte	0x530
 1307 04d0 0C       		.byte	0xc
 1308 04d1 06       		.uleb128 0x6
 1309 04d2 37010000 		.4byte	.LASF78
 1310 04d6 0B       		.byte	0xb
 1311 04d7 49       		.byte	0x49
 1312 04d8 30050000 		.4byte	0x530
 1313 04dc 10       		.byte	0x10
 1314 04dd 06       		.uleb128 0x6
 1315 04de 40050000 		.4byte	.LASF79
 1316 04e2 0B       		.byte	0xb
 1317 04e3 4B       		.byte	0x4b
 1318 04e4 30050000 		.4byte	0x530
 1319 04e8 14       		.byte	0x14
 1320 04e9 06       		.uleb128 0x6
 1321 04ea 9F010000 		.4byte	.LASF80
 1322 04ee 0B       		.byte	0xb
 1323 04ef 4C       		.byte	0x4c
 1324 04f0 30050000 		.4byte	0x530
 1325 04f4 18       		.byte	0x18
 1326 04f5 06       		.uleb128 0x6
 1327 04f6 7E010000 		.4byte	.LASF81
 1328 04fa 0B       		.byte	0xb
 1329 04fb 4D       		.byte	0x4d
 1330 04fc 0E050000 		.4byte	0x50e
 1331 0500 1C       		.byte	0x1c
 1332 0501 06       		.uleb128 0x6
 1333 0502 C5020000 		.4byte	.LASF82
 1334 0506 0B       		.byte	0xb
 1335 0507 4E       		.byte	0x4e
 1336 0508 BF020000 		.4byte	0x2bf
 1337 050c 20       		.byte	0x20
 1338 050d 00       		.byte	0
 1339 050e 03       		.uleb128 0x3
 1340 050f 7D060000 		.4byte	.LASF83
 1341 0513 0B       		.byte	0xb
 1342 0514 3A       		.byte	0x3a
 1343 0515 19050000 		.4byte	0x519
 1344 0519 09       		.uleb128 0x9
 1345 051a 04       		.byte	0x4
 1346 051b 1F050000 		.4byte	0x51f
 1347 051f 13       		.uleb128 0x13
 1348 0520 2A050000 		.4byte	0x52a
 1349 0524 12       		.uleb128 0x12
 1350 0525 2A050000 		.4byte	0x52a
 1351 0529 00       		.byte	0
 1352 052a 09       		.uleb128 0x9
 1353 052b 04       		.byte	0x4
 1354 052c 96040000 		.4byte	0x496
 1355 0530 09       		.uleb128 0x9
ARM GAS  /tmp/ccSf0MBz.s 			page 25


 1356 0531 04       		.byte	0x4
 1357 0532 AD000000 		.4byte	0xad
 1358 0536 03       		.uleb128 0x3
 1359 0537 DE0A0000 		.4byte	.LASF84
 1360 053b 0B       		.byte	0xb
 1361 053c 82       		.byte	0x82
 1362 053d 96040000 		.4byte	0x496
 1363 0541 03       		.uleb128 0x3
 1364 0542 A1030000 		.4byte	.LASF85
 1365 0546 0B       		.byte	0xb
 1366 0547 F5       		.byte	0xf5
 1367 0548 96040000 		.4byte	0x496
 1368 054c 11       		.uleb128 0x11
 1369 054d 2C000000 		.4byte	0x2c
 1370 0551 65050000 		.4byte	0x565
 1371 0555 12       		.uleb128 0x12
 1372 0556 BF020000 		.4byte	0x2bf
 1373 055a 12       		.uleb128 0x12
 1374 055b 65050000 		.4byte	0x565
 1375 055f 12       		.uleb128 0x12
 1376 0560 2C000000 		.4byte	0x2c
 1377 0564 00       		.byte	0
 1378 0565 09       		.uleb128 0x9
 1379 0566 04       		.byte	0x4
 1380 0567 6B050000 		.4byte	0x56b
 1381 056b 10       		.uleb128 0x10
 1382 056c AD000000 		.4byte	0xad
 1383 0570 09       		.uleb128 0x9
 1384 0571 04       		.byte	0x4
 1385 0572 4C050000 		.4byte	0x54c
 1386 0576 11       		.uleb128 0x11
 1387 0577 2C000000 		.4byte	0x2c
 1388 057b 8F050000 		.4byte	0x58f
 1389 057f 12       		.uleb128 0x12
 1390 0580 BF020000 		.4byte	0x2bf
 1391 0584 12       		.uleb128 0x12
 1392 0585 30050000 		.4byte	0x530
 1393 0589 12       		.uleb128 0x12
 1394 058a 2C000000 		.4byte	0x2c
 1395 058e 00       		.byte	0
 1396 058f 09       		.uleb128 0x9
 1397 0590 04       		.byte	0x4
 1398 0591 76050000 		.4byte	0x576
 1399 0595 11       		.uleb128 0x11
 1400 0596 22010000 		.4byte	0x122
 1401 059a A9050000 		.4byte	0x5a9
 1402 059e 12       		.uleb128 0x12
 1403 059f BF020000 		.4byte	0x2bf
 1404 05a3 12       		.uleb128 0x12
 1405 05a4 AD000000 		.4byte	0xad
 1406 05a8 00       		.byte	0
 1407 05a9 09       		.uleb128 0x9
 1408 05aa 04       		.byte	0x4
 1409 05ab 95050000 		.4byte	0x595
 1410 05af 14       		.uleb128 0x14
 1411 05b0 58070000 		.4byte	.LASF242
 1412 05b4 01       		.byte	0x1
ARM GAS  /tmp/ccSf0MBz.s 			page 26


 1413 05b5 0C       		.byte	0xc
 1414 05b6 AA       		.byte	0xaa
 1415 05b7 EA070000 		.4byte	0x7ea
 1416 05bb 15       		.uleb128 0x15
 1417 05bc 6D040000 		.4byte	.LASF86
 1418 05c0 72       		.sleb128 -14
 1419 05c1 15       		.uleb128 0x15
 1420 05c2 BE040000 		.4byte	.LASF87
 1421 05c6 74       		.sleb128 -12
 1422 05c7 15       		.uleb128 0x15
 1423 05c8 A5050000 		.4byte	.LASF88
 1424 05cc 75       		.sleb128 -11
 1425 05cd 15       		.uleb128 0x15
 1426 05ce 29030000 		.4byte	.LASF89
 1427 05d2 76       		.sleb128 -10
 1428 05d3 15       		.uleb128 0x15
 1429 05d4 4A060000 		.4byte	.LASF90
 1430 05d8 7B       		.sleb128 -5
 1431 05d9 15       		.uleb128 0x15
 1432 05da DB080000 		.4byte	.LASF91
 1433 05de 7C       		.sleb128 -4
 1434 05df 15       		.uleb128 0x15
 1435 05e0 F40A0000 		.4byte	.LASF92
 1436 05e4 7E       		.sleb128 -2
 1437 05e5 15       		.uleb128 0x15
 1438 05e6 1C020000 		.4byte	.LASF93
 1439 05ea 7F       		.sleb128 -1
 1440 05eb 15       		.uleb128 0x15
 1441 05ec A2040000 		.4byte	.LASF94
 1442 05f0 00       		.sleb128 0
 1443 05f1 15       		.uleb128 0x15
 1444 05f2 72080000 		.4byte	.LASF95
 1445 05f6 01       		.sleb128 1
 1446 05f7 15       		.uleb128 0x15
 1447 05f8 1A050000 		.4byte	.LASF96
 1448 05fc 02       		.sleb128 2
 1449 05fd 15       		.uleb128 0x15
 1450 05fe A1090000 		.4byte	.LASF97
 1451 0602 03       		.sleb128 3
 1452 0603 15       		.uleb128 0x15
 1453 0604 9D000000 		.4byte	.LASF98
 1454 0608 04       		.sleb128 4
 1455 0609 15       		.uleb128 0x15
 1456 060a 3C090000 		.4byte	.LASF99
 1457 060e 05       		.sleb128 5
 1458 060f 15       		.uleb128 0x15
 1459 0610 92080000 		.4byte	.LASF100
 1460 0614 06       		.sleb128 6
 1461 0615 15       		.uleb128 0x15
 1462 0616 0D040000 		.4byte	.LASF101
 1463 061a 07       		.sleb128 7
 1464 061b 15       		.uleb128 0x15
 1465 061c 46080000 		.4byte	.LASF102
 1466 0620 08       		.sleb128 8
 1467 0621 15       		.uleb128 0x15
 1468 0622 E90A0000 		.4byte	.LASF103
 1469 0626 09       		.sleb128 9
ARM GAS  /tmp/ccSf0MBz.s 			page 27


 1470 0627 15       		.uleb128 0x15
 1471 0628 9D0A0000 		.4byte	.LASF104
 1472 062c 0A       		.sleb128 10
 1473 062d 15       		.uleb128 0x15
 1474 062e 95070000 		.4byte	.LASF105
 1475 0632 0B       		.sleb128 11
 1476 0633 15       		.uleb128 0x15
 1477 0634 14070000 		.4byte	.LASF106
 1478 0638 0C       		.sleb128 12
 1479 0639 15       		.uleb128 0x15
 1480 063a 75020000 		.4byte	.LASF107
 1481 063e 0D       		.sleb128 13
 1482 063f 15       		.uleb128 0x15
 1483 0640 4C090000 		.4byte	.LASF108
 1484 0644 0E       		.sleb128 14
 1485 0645 15       		.uleb128 0x15
 1486 0646 A5080000 		.4byte	.LASF109
 1487 064a 0F       		.sleb128 15
 1488 064b 15       		.uleb128 0x15
 1489 064c 25040000 		.4byte	.LASF110
 1490 0650 10       		.sleb128 16
 1491 0651 15       		.uleb128 0x15
 1492 0652 5D070000 		.4byte	.LASF111
 1493 0656 11       		.sleb128 17
 1494 0657 15       		.uleb128 0x15
 1495 0658 5F080000 		.4byte	.LASF112
 1496 065c 12       		.sleb128 18
 1497 065d 15       		.uleb128 0x15
 1498 065e 18040000 		.4byte	.LASF113
 1499 0662 13       		.sleb128 19
 1500 0663 15       		.uleb128 0x15
 1501 0664 75030000 		.4byte	.LASF114
 1502 0668 14       		.sleb128 20
 1503 0669 15       		.uleb128 0x15
 1504 066a 630A0000 		.4byte	.LASF115
 1505 066e 15       		.sleb128 21
 1506 066f 15       		.uleb128 0x15
 1507 0670 2A050000 		.4byte	.LASF116
 1508 0674 16       		.sleb128 22
 1509 0675 15       		.uleb128 0x15
 1510 0676 7E0A0000 		.4byte	.LASF117
 1511 067a 17       		.sleb128 23
 1512 067b 15       		.uleb128 0x15
 1513 067c D2050000 		.4byte	.LASF118
 1514 0680 18       		.sleb128 24
 1515 0681 15       		.uleb128 0x15
 1516 0682 65090000 		.4byte	.LASF119
 1517 0686 19       		.sleb128 25
 1518 0687 15       		.uleb128 0x15
 1519 0688 E2010000 		.4byte	.LASF120
 1520 068c 1A       		.sleb128 26
 1521 068d 15       		.uleb128 0x15
 1522 068e F2030000 		.4byte	.LASF121
 1523 0692 1B       		.sleb128 27
 1524 0693 15       		.uleb128 0x15
 1525 0694 CD000000 		.4byte	.LASF122
 1526 0698 1C       		.sleb128 28
ARM GAS  /tmp/ccSf0MBz.s 			page 28


 1527 0699 15       		.uleb128 0x15
 1528 069a 26080000 		.4byte	.LASF123
 1529 069e 1D       		.sleb128 29
 1530 069f 15       		.uleb128 0x15
 1531 06a0 AD030000 		.4byte	.LASF124
 1532 06a4 1E       		.sleb128 30
 1533 06a5 15       		.uleb128 0x15
 1534 06a6 C8030000 		.4byte	.LASF125
 1535 06aa 1F       		.sleb128 31
 1536 06ab 15       		.uleb128 0x15
 1537 06ac D6020000 		.4byte	.LASF126
 1538 06b0 20       		.sleb128 32
 1539 06b1 15       		.uleb128 0x15
 1540 06b2 EA060000 		.4byte	.LASF127
 1541 06b6 21       		.sleb128 33
 1542 06b7 15       		.uleb128 0x15
 1543 06b8 98050000 		.4byte	.LASF128
 1544 06bc 22       		.sleb128 34
 1545 06bd 15       		.uleb128 0x15
 1546 06be 40060000 		.4byte	.LASF129
 1547 06c2 23       		.sleb128 35
 1548 06c3 15       		.uleb128 0x15
 1549 06c4 1C060000 		.4byte	.LASF130
 1550 06c8 24       		.sleb128 36
 1551 06c9 15       		.uleb128 0x15
 1552 06ca 30080000 		.4byte	.LASF131
 1553 06ce 25       		.sleb128 37
 1554 06cf 15       		.uleb128 0x15
 1555 06d0 B7030000 		.4byte	.LASF132
 1556 06d4 26       		.sleb128 38
 1557 06d5 15       		.uleb128 0x15
 1558 06d6 29020000 		.4byte	.LASF133
 1559 06da 27       		.sleb128 39
 1560 06db 15       		.uleb128 0x15
 1561 06dc E9070000 		.4byte	.LASF134
 1562 06e0 28       		.sleb128 40
 1563 06e1 15       		.uleb128 0x15
 1564 06e2 BB070000 		.4byte	.LASF135
 1565 06e6 29       		.sleb128 41
 1566 06e7 15       		.uleb128 0x15
 1567 06e8 A9060000 		.4byte	.LASF136
 1568 06ec 2A       		.sleb128 42
 1569 06ed 15       		.uleb128 0x15
 1570 06ee 44010000 		.4byte	.LASF137
 1571 06f2 2B       		.sleb128 43
 1572 06f3 15       		.uleb128 0x15
 1573 06f4 07000000 		.4byte	.LASF138
 1574 06f8 2C       		.sleb128 44
 1575 06f9 15       		.uleb128 0x15
 1576 06fa 37040000 		.4byte	.LASF139
 1577 06fe 2D       		.sleb128 45
 1578 06ff 15       		.uleb128 0x15
 1579 0700 C70A0000 		.4byte	.LASF140
 1580 0704 2E       		.sleb128 46
 1581 0705 15       		.uleb128 0x15
 1582 0706 1E0B0000 		.4byte	.LASF141
 1583 070a 2F       		.sleb128 47
ARM GAS  /tmp/ccSf0MBz.s 			page 29


 1584 070b 15       		.uleb128 0x15
 1585 070c 81040000 		.4byte	.LASF142
 1586 0710 30       		.sleb128 48
 1587 0711 15       		.uleb128 0x15
 1588 0712 D40A0000 		.4byte	.LASF143
 1589 0716 31       		.sleb128 49
 1590 0717 15       		.uleb128 0x15
 1591 0718 15030000 		.4byte	.LASF144
 1592 071c 32       		.sleb128 50
 1593 071d 15       		.uleb128 0x15
 1594 071e 93000000 		.4byte	.LASF145
 1595 0722 33       		.sleb128 51
 1596 0723 15       		.uleb128 0x15
 1597 0724 68060000 		.4byte	.LASF146
 1598 0728 34       		.sleb128 52
 1599 0729 15       		.uleb128 0x15
 1600 072a C7050000 		.4byte	.LASF147
 1601 072e 35       		.sleb128 53
 1602 072f 15       		.uleb128 0x15
 1603 0730 D4060000 		.4byte	.LASF148
 1604 0734 36       		.sleb128 54
 1605 0735 15       		.uleb128 0x15
 1606 0736 F6050000 		.4byte	.LASF149
 1607 073a 37       		.sleb128 55
 1608 073b 15       		.uleb128 0x15
 1609 073c 91060000 		.4byte	.LASF150
 1610 0740 38       		.sleb128 56
 1611 0741 15       		.uleb128 0x15
 1612 0742 78000000 		.4byte	.LASF151
 1613 0746 39       		.sleb128 57
 1614 0747 15       		.uleb128 0x15
 1615 0748 600B0000 		.4byte	.LASF152
 1616 074c 3A       		.sleb128 58
 1617 074d 15       		.uleb128 0x15
 1618 074e 32070000 		.4byte	.LASF153
 1619 0752 3B       		.sleb128 59
 1620 0753 15       		.uleb128 0x15
 1621 0754 A9020000 		.4byte	.LASF154
 1622 0758 3C       		.sleb128 60
 1623 0759 15       		.uleb128 0x15
 1624 075a 0C090000 		.4byte	.LASF155
 1625 075e 3D       		.sleb128 61
 1626 075f 15       		.uleb128 0x15
 1627 0760 0E060000 		.4byte	.LASF156
 1628 0764 3E       		.sleb128 62
 1629 0765 15       		.uleb128 0x15
 1630 0766 44070000 		.4byte	.LASF157
 1631 076a 3F       		.sleb128 63
 1632 076b 15       		.uleb128 0x15
 1633 076c F1000000 		.4byte	.LASF158
 1634 0770 C000     		.sleb128 64
 1635 0772 15       		.uleb128 0x15
 1636 0773 51080000 		.4byte	.LASF159
 1637 0777 C100     		.sleb128 65
 1638 0779 15       		.uleb128 0x15
 1639 077a E3020000 		.4byte	.LASF160
 1640 077e C200     		.sleb128 66
ARM GAS  /tmp/ccSf0MBz.s 			page 30


 1641 0780 15       		.uleb128 0x15
 1642 0781 61040000 		.4byte	.LASF161
 1643 0785 C300     		.sleb128 67
 1644 0787 15       		.uleb128 0x15
 1645 0788 BD010000 		.4byte	.LASF162
 1646 078c C400     		.sleb128 68
 1647 078e 15       		.uleb128 0x15
 1648 078f C1080000 		.4byte	.LASF163
 1649 0793 C500     		.sleb128 69
 1650 0795 15       		.uleb128 0x15
 1651 0796 83070000 		.4byte	.LASF164
 1652 079a C600     		.sleb128 70
 1653 079c 15       		.uleb128 0x15
 1654 079d FF000000 		.4byte	.LASF165
 1655 07a1 C700     		.sleb128 71
 1656 07a3 15       		.uleb128 0x15
 1657 07a4 F6080000 		.4byte	.LASF166
 1658 07a8 C800     		.sleb128 72
 1659 07aa 15       		.uleb128 0x15
 1660 07ab D2070000 		.4byte	.LASF167
 1661 07af C900     		.sleb128 73
 1662 07b1 15       		.uleb128 0x15
 1663 07b2 8D090000 		.4byte	.LASF168
 1664 07b6 CA00     		.sleb128 74
 1665 07b8 15       		.uleb128 0x15
 1666 07b9 000B0000 		.4byte	.LASF169
 1667 07bd CB00     		.sleb128 75
 1668 07bf 15       		.uleb128 0x15
 1669 07c0 26010000 		.4byte	.LASF170
 1670 07c4 CC00     		.sleb128 76
 1671 07c6 15       		.uleb128 0x15
 1672 07c7 26060000 		.4byte	.LASF171
 1673 07cb CD00     		.sleb128 77
 1674 07cd 15       		.uleb128 0x15
 1675 07ce A8000000 		.4byte	.LASF172
 1676 07d2 CE00     		.sleb128 78
 1677 07d4 15       		.uleb128 0x15
 1678 07d5 DF070000 		.4byte	.LASF173
 1679 07d9 CF00     		.sleb128 79
 1680 07db 15       		.uleb128 0x15
 1681 07dc FF030000 		.4byte	.LASF174
 1682 07e0 D000     		.sleb128 80
 1683 07e2 15       		.uleb128 0x15
 1684 07e3 5F060000 		.4byte	.LASF175
 1685 07e7 D100     		.sleb128 81
 1686 07e9 00       		.byte	0
 1687 07ea 16       		.uleb128 0x16
 1688 07eb CE000000 		.4byte	0xce
 1689 07ef FA070000 		.4byte	0x7fa
 1690 07f3 17       		.uleb128 0x17
 1691 07f4 6E030000 		.4byte	0x36e
 1692 07f8 01       		.byte	0x1
 1693 07f9 00       		.byte	0
 1694 07fa 0D       		.uleb128 0xd
 1695 07fb B8000000 		.4byte	0xb8
 1696 07ff 0D       		.uleb128 0xd
 1697 0800 C3000000 		.4byte	0xc3
ARM GAS  /tmp/ccSf0MBz.s 			page 31


 1698 0804 18       		.uleb128 0x18
 1699 0805 90       		.byte	0x90
 1700 0806 0C       		.byte	0xc
 1701 0807 5804     		.2byte	0x458
 1702 0809 AD090000 		.4byte	0x9ad
 1703 080d 0C       		.uleb128 0xc
 1704 080e 435200   		.ascii	"CR\000"
 1705 0811 0C       		.byte	0xc
 1706 0812 5A04     		.2byte	0x45a
 1707 0814 69030000 		.4byte	0x369
 1708 0818 00       		.byte	0
 1709 0819 19       		.uleb128 0x19
 1710 081a BF050000 		.4byte	.LASF176
 1711 081e 0C       		.byte	0xc
 1712 081f 5B04     		.2byte	0x45b
 1713 0821 69030000 		.4byte	0x369
 1714 0825 04       		.byte	0x4
 1715 0826 19       		.uleb128 0x19
 1716 0827 ED030000 		.4byte	.LASF177
 1717 082b 0C       		.byte	0xc
 1718 082c 5C04     		.2byte	0x45c
 1719 082e 69030000 		.4byte	0x369
 1720 0832 08       		.byte	0x8
 1721 0833 0C       		.uleb128 0xc
 1722 0834 43495200 		.ascii	"CIR\000"
 1723 0838 0C       		.byte	0xc
 1724 0839 5D04     		.2byte	0x45d
 1725 083b 69030000 		.4byte	0x369
 1726 083f 0C       		.byte	0xc
 1727 0840 19       		.uleb128 0x19
 1728 0841 3E030000 		.4byte	.LASF178
 1729 0845 0C       		.byte	0xc
 1730 0846 5E04     		.2byte	0x45e
 1731 0848 69030000 		.4byte	0x369
 1732 084c 10       		.byte	0x10
 1733 084d 19       		.uleb128 0x19
 1734 084e 03090000 		.4byte	.LASF179
 1735 0852 0C       		.byte	0xc
 1736 0853 5F04     		.2byte	0x45f
 1737 0855 69030000 		.4byte	0x369
 1738 0859 14       		.byte	0x14
 1739 085a 19       		.uleb128 0x19
 1740 085b 6F070000 		.4byte	.LASF180
 1741 085f 0C       		.byte	0xc
 1742 0860 6004     		.2byte	0x460
 1743 0862 69030000 		.4byte	0x369
 1744 0866 18       		.byte	0x18
 1745 0867 19       		.uleb128 0x19
 1746 0868 87020000 		.4byte	.LASF181
 1747 086c 0C       		.byte	0xc
 1748 086d 6104     		.2byte	0x461
 1749 086f CE000000 		.4byte	0xce
 1750 0873 1C       		.byte	0x1c
 1751 0874 19       		.uleb128 0x19
 1752 0875 A7070000 		.4byte	.LASF182
 1753 0879 0C       		.byte	0xc
 1754 087a 6204     		.2byte	0x462
ARM GAS  /tmp/ccSf0MBz.s 			page 32


 1755 087c 69030000 		.4byte	0x369
 1756 0880 20       		.byte	0x20
 1757 0881 19       		.uleb128 0x19
 1758 0882 56060000 		.4byte	.LASF183
 1759 0886 0C       		.byte	0xc
 1760 0887 6304     		.2byte	0x463
 1761 0889 69030000 		.4byte	0x369
 1762 088d 24       		.byte	0x24
 1763 088e 19       		.uleb128 0x19
 1764 088f 91020000 		.4byte	.LASF184
 1765 0893 0C       		.byte	0xc
 1766 0894 6404     		.2byte	0x464
 1767 0896 EA070000 		.4byte	0x7ea
 1768 089a 28       		.byte	0x28
 1769 089b 19       		.uleb128 0x19
 1770 089c D3080000 		.4byte	.LASF185
 1771 08a0 0C       		.byte	0xc
 1772 08a1 6504     		.2byte	0x465
 1773 08a3 69030000 		.4byte	0x369
 1774 08a7 30       		.byte	0x30
 1775 08a8 19       		.uleb128 0x19
 1776 08a9 59030000 		.4byte	.LASF186
 1777 08ad 0C       		.byte	0xc
 1778 08ae 6604     		.2byte	0x466
 1779 08b0 69030000 		.4byte	0x369
 1780 08b4 34       		.byte	0x34
 1781 08b5 19       		.uleb128 0x19
 1782 08b6 580B0000 		.4byte	.LASF187
 1783 08ba 0C       		.byte	0xc
 1784 08bb 6704     		.2byte	0x467
 1785 08bd 69030000 		.4byte	0x369
 1786 08c1 38       		.byte	0x38
 1787 08c2 19       		.uleb128 0x19
 1788 08c3 01030000 		.4byte	.LASF188
 1789 08c7 0C       		.byte	0xc
 1790 08c8 6804     		.2byte	0x468
 1791 08ca CE000000 		.4byte	0xce
 1792 08ce 3C       		.byte	0x3c
 1793 08cf 19       		.uleb128 0x19
 1794 08d0 CA070000 		.4byte	.LASF189
 1795 08d4 0C       		.byte	0xc
 1796 08d5 6904     		.2byte	0x469
 1797 08d7 69030000 		.4byte	0x369
 1798 08db 40       		.byte	0x40
 1799 08dc 19       		.uleb128 0x19
 1800 08dd 0A020000 		.4byte	.LASF190
 1801 08e1 0C       		.byte	0xc
 1802 08e2 6A04     		.2byte	0x46a
 1803 08e4 69030000 		.4byte	0x369
 1804 08e8 44       		.byte	0x44
 1805 08e9 19       		.uleb128 0x19
 1806 08ea 0B030000 		.4byte	.LASF191
 1807 08ee 0C       		.byte	0xc
 1808 08ef 6B04     		.2byte	0x46b
 1809 08f1 EA070000 		.4byte	0x7ea
 1810 08f5 48       		.byte	0x48
 1811 08f6 19       		.uleb128 0x19
ARM GAS  /tmp/ccSf0MBz.s 			page 33


 1812 08f7 12020000 		.4byte	.LASF192
 1813 08fb 0C       		.byte	0xc
 1814 08fc 6C04     		.2byte	0x46c
 1815 08fe 69030000 		.4byte	0x369
 1816 0902 50       		.byte	0x50
 1817 0903 19       		.uleb128 0x19
 1818 0904 58010000 		.4byte	.LASF193
 1819 0908 0C       		.byte	0xc
 1820 0909 6D04     		.2byte	0x46d
 1821 090b 69030000 		.4byte	0x369
 1822 090f 54       		.byte	0x54
 1823 0910 19       		.uleb128 0x19
 1824 0911 68080000 		.4byte	.LASF194
 1825 0915 0C       		.byte	0xc
 1826 0916 6E04     		.2byte	0x46e
 1827 0918 69030000 		.4byte	0x369
 1828 091c 58       		.byte	0x58
 1829 091d 19       		.uleb128 0x19
 1830 091e BB020000 		.4byte	.LASF195
 1831 0922 0C       		.byte	0xc
 1832 0923 6F04     		.2byte	0x46f
 1833 0925 CE000000 		.4byte	0xce
 1834 0929 5C       		.byte	0x5c
 1835 092a 19       		.uleb128 0x19
 1836 092b 0A070000 		.4byte	.LASF196
 1837 092f 0C       		.byte	0xc
 1838 0930 7004     		.2byte	0x470
 1839 0932 69030000 		.4byte	0x369
 1840 0936 60       		.byte	0x60
 1841 0937 19       		.uleb128 0x19
 1842 0938 73060000 		.4byte	.LASF197
 1843 093c 0C       		.byte	0xc
 1844 093d 7104     		.2byte	0x471
 1845 093f 69030000 		.4byte	0x369
 1846 0943 64       		.byte	0x64
 1847 0944 19       		.uleb128 0x19
 1848 0945 1F030000 		.4byte	.LASF198
 1849 0949 0C       		.byte	0xc
 1850 094a 7204     		.2byte	0x472
 1851 094c EA070000 		.4byte	0x7ea
 1852 0950 68       		.byte	0x68
 1853 0951 19       		.uleb128 0x19
 1854 0952 C3030000 		.4byte	.LASF199
 1855 0956 0C       		.byte	0xc
 1856 0957 7304     		.2byte	0x473
 1857 0959 69030000 		.4byte	0x369
 1858 095d 70       		.byte	0x70
 1859 095e 0C       		.uleb128 0xc
 1860 095f 43535200 		.ascii	"CSR\000"
 1861 0963 0C       		.byte	0xc
 1862 0964 7404     		.2byte	0x474
 1863 0966 69030000 		.4byte	0x369
 1864 096a 74       		.byte	0x74
 1865 096b 19       		.uleb128 0x19
 1866 096c CC020000 		.4byte	.LASF200
 1867 0970 0C       		.byte	0xc
 1868 0971 7504     		.2byte	0x475
ARM GAS  /tmp/ccSf0MBz.s 			page 34


 1869 0973 EA070000 		.4byte	0x7ea
 1870 0977 78       		.byte	0x78
 1871 0978 19       		.uleb128 0x19
 1872 0979 3A060000 		.4byte	.LASF201
 1873 097d 0C       		.byte	0xc
 1874 097e 7604     		.2byte	0x476
 1875 0980 69030000 		.4byte	0x369
 1876 0984 80       		.byte	0x80
 1877 0985 19       		.uleb128 0x19
 1878 0986 2D000000 		.4byte	.LASF202
 1879 098a 0C       		.byte	0xc
 1880 098b 7704     		.2byte	0x477
 1881 098d 69030000 		.4byte	0x369
 1882 0991 84       		.byte	0x84
 1883 0992 19       		.uleb128 0x19
 1884 0993 8B0A0000 		.4byte	.LASF203
 1885 0997 0C       		.byte	0xc
 1886 0998 7804     		.2byte	0x478
 1887 099a 69030000 		.4byte	0x369
 1888 099e 88       		.byte	0x88
 1889 099f 19       		.uleb128 0x19
 1890 09a0 35020000 		.4byte	.LASF204
 1891 09a4 0C       		.byte	0xc
 1892 09a5 7904     		.2byte	0x479
 1893 09a7 69030000 		.4byte	0x369
 1894 09ab 8C       		.byte	0x8c
 1895 09ac 00       		.byte	0
 1896 09ad 1A       		.uleb128 0x1a
 1897 09ae 1D090000 		.4byte	.LASF205
 1898 09b2 0C       		.byte	0xc
 1899 09b3 7B04     		.2byte	0x47b
 1900 09b5 04080000 		.4byte	0x804
 1901 09b9 18       		.uleb128 0x18
 1902 09ba 1C       		.byte	0x1c
 1903 09bb 0C       		.byte	0xc
 1904 09bc 2905     		.2byte	0x529
 1905 09be 770A0000 		.4byte	0xa77
 1906 09c2 0C       		.uleb128 0xc
 1907 09c3 535200   		.ascii	"SR\000"
 1908 09c6 0C       		.byte	0xc
 1909 09c7 2B05     		.2byte	0x52b
 1910 09c9 FA070000 		.4byte	0x7fa
 1911 09cd 00       		.byte	0
 1912 09ce 19       		.uleb128 0x19
 1913 09cf 87020000 		.4byte	.LASF181
 1914 09d3 0C       		.byte	0xc
 1915 09d4 2C05     		.2byte	0x52c
 1916 09d6 B8000000 		.4byte	0xb8
 1917 09da 02       		.byte	0x2
 1918 09db 0C       		.uleb128 0xc
 1919 09dc 445200   		.ascii	"DR\000"
 1920 09df 0C       		.byte	0xc
 1921 09e0 2D05     		.2byte	0x52d
 1922 09e2 FA070000 		.4byte	0x7fa
 1923 09e6 04       		.byte	0x4
 1924 09e7 19       		.uleb128 0x19
 1925 09e8 91020000 		.4byte	.LASF184
ARM GAS  /tmp/ccSf0MBz.s 			page 35


 1926 09ec 0C       		.byte	0xc
 1927 09ed 2E05     		.2byte	0x52e
 1928 09ef B8000000 		.4byte	0xb8
 1929 09f3 06       		.byte	0x6
 1930 09f4 0C       		.uleb128 0xc
 1931 09f5 42525200 		.ascii	"BRR\000"
 1932 09f9 0C       		.byte	0xc
 1933 09fa 2F05     		.2byte	0x52f
 1934 09fc FA070000 		.4byte	0x7fa
 1935 0a00 08       		.byte	0x8
 1936 0a01 19       		.uleb128 0x19
 1937 0a02 01030000 		.4byte	.LASF188
 1938 0a06 0C       		.byte	0xc
 1939 0a07 3005     		.2byte	0x530
 1940 0a09 B8000000 		.4byte	0xb8
 1941 0a0d 0A       		.byte	0xa
 1942 0a0e 0C       		.uleb128 0xc
 1943 0a0f 43523100 		.ascii	"CR1\000"
 1944 0a13 0C       		.byte	0xc
 1945 0a14 3105     		.2byte	0x531
 1946 0a16 FA070000 		.4byte	0x7fa
 1947 0a1a 0C       		.byte	0xc
 1948 0a1b 19       		.uleb128 0x19
 1949 0a1c 0B030000 		.4byte	.LASF191
 1950 0a20 0C       		.byte	0xc
 1951 0a21 3205     		.2byte	0x532
 1952 0a23 B8000000 		.4byte	0xb8
 1953 0a27 0E       		.byte	0xe
 1954 0a28 0C       		.uleb128 0xc
 1955 0a29 43523200 		.ascii	"CR2\000"
 1956 0a2d 0C       		.byte	0xc
 1957 0a2e 3305     		.2byte	0x533
 1958 0a30 FA070000 		.4byte	0x7fa
 1959 0a34 10       		.byte	0x10
 1960 0a35 19       		.uleb128 0x19
 1961 0a36 BB020000 		.4byte	.LASF195
 1962 0a3a 0C       		.byte	0xc
 1963 0a3b 3405     		.2byte	0x534
 1964 0a3d B8000000 		.4byte	0xb8
 1965 0a41 12       		.byte	0x12
 1966 0a42 0C       		.uleb128 0xc
 1967 0a43 43523300 		.ascii	"CR3\000"
 1968 0a47 0C       		.byte	0xc
 1969 0a48 3505     		.2byte	0x535
 1970 0a4a FA070000 		.4byte	0x7fa
 1971 0a4e 14       		.byte	0x14
 1972 0a4f 19       		.uleb128 0x19
 1973 0a50 1F030000 		.4byte	.LASF198
 1974 0a54 0C       		.byte	0xc
 1975 0a55 3605     		.2byte	0x536
 1976 0a57 B8000000 		.4byte	0xb8
 1977 0a5b 16       		.byte	0x16
 1978 0a5c 19       		.uleb128 0x19
 1979 0a5d 6D000000 		.4byte	.LASF206
 1980 0a61 0C       		.byte	0xc
 1981 0a62 3705     		.2byte	0x537
 1982 0a64 FA070000 		.4byte	0x7fa
ARM GAS  /tmp/ccSf0MBz.s 			page 36


 1983 0a68 18       		.byte	0x18
 1984 0a69 19       		.uleb128 0x19
 1985 0a6a CC020000 		.4byte	.LASF200
 1986 0a6e 0C       		.byte	0xc
 1987 0a6f 3805     		.2byte	0x538
 1988 0a71 B8000000 		.4byte	0xb8
 1989 0a75 1A       		.byte	0x1a
 1990 0a76 00       		.byte	0
 1991 0a77 1A       		.uleb128 0x1a
 1992 0a78 93030000 		.4byte	.LASF207
 1993 0a7c 0C       		.byte	0xc
 1994 0a7d 3905     		.2byte	0x539
 1995 0a7f B9090000 		.4byte	0x9b9
 1996 0a83 11       		.uleb128 0x11
 1997 0a84 22010000 		.4byte	0x122
 1998 0a88 9C0A0000 		.4byte	0xa9c
 1999 0a8c 12       		.uleb128 0x12
 2000 0a8d BF020000 		.4byte	0x2bf
 2001 0a91 12       		.uleb128 0x12
 2002 0a92 AD000000 		.4byte	0xad
 2003 0a96 12       		.uleb128 0x12
 2004 0a97 43010000 		.4byte	0x143
 2005 0a9b 00       		.byte	0
 2006 0a9c 09       		.uleb128 0x9
 2007 0a9d 04       		.byte	0x4
 2008 0a9e 830A0000 		.4byte	0xa83
 2009 0aa2 11       		.uleb128 0x11
 2010 0aa3 22010000 		.4byte	0x122
 2011 0aa7 B60A0000 		.4byte	0xab6
 2012 0aab 12       		.uleb128 0x12
 2013 0aac BF020000 		.4byte	0x2bf
 2014 0ab0 12       		.uleb128 0x12
 2015 0ab1 43010000 		.4byte	0x143
 2016 0ab5 00       		.byte	0
 2017 0ab6 09       		.uleb128 0x9
 2018 0ab7 04       		.byte	0x4
 2019 0ab8 A20A0000 		.4byte	0xaa2
 2020 0abc 11       		.uleb128 0x11
 2021 0abd 2C000000 		.4byte	0x2c
 2022 0ac1 DA0A0000 		.4byte	0xada
 2023 0ac5 12       		.uleb128 0x12
 2024 0ac6 BF020000 		.4byte	0x2bf
 2025 0aca 12       		.uleb128 0x12
 2026 0acb 65050000 		.4byte	0x565
 2027 0acf 12       		.uleb128 0x12
 2028 0ad0 2C000000 		.4byte	0x2c
 2029 0ad4 12       		.uleb128 0x12
 2030 0ad5 43010000 		.4byte	0x143
 2031 0ad9 00       		.byte	0
 2032 0ada 09       		.uleb128 0x9
 2033 0adb 04       		.byte	0x4
 2034 0adc BC0A0000 		.4byte	0xabc
 2035 0ae0 11       		.uleb128 0x11
 2036 0ae1 2C000000 		.4byte	0x2c
 2037 0ae5 FE0A0000 		.4byte	0xafe
 2038 0ae9 12       		.uleb128 0x12
 2039 0aea BF020000 		.4byte	0x2bf
ARM GAS  /tmp/ccSf0MBz.s 			page 37


 2040 0aee 12       		.uleb128 0x12
 2041 0aef 30050000 		.4byte	0x530
 2042 0af3 12       		.uleb128 0x12
 2043 0af4 2C000000 		.4byte	0x2c
 2044 0af8 12       		.uleb128 0x12
 2045 0af9 43010000 		.4byte	0x143
 2046 0afd 00       		.byte	0
 2047 0afe 09       		.uleb128 0x9
 2048 0aff 04       		.byte	0x4
 2049 0b00 E00A0000 		.4byte	0xae0
 2050 0b04 1B       		.uleb128 0x1b
 2051 0b05 01       		.byte	0x1
 2052 0b06 0D       		.byte	0xd
 2053 0b07 64       		.byte	0x64
 2054 0b08 1F0B0000 		.4byte	0xb1f
 2055 0b0c 15       		.uleb128 0x15
 2056 0b0d F1020000 		.4byte	.LASF208
 2057 0b11 00       		.sleb128 0
 2058 0b12 15       		.uleb128 0x15
 2059 0b13 3A0B0000 		.4byte	.LASF209
 2060 0b17 01       		.sleb128 1
 2061 0b18 15       		.uleb128 0x15
 2062 0b19 ED080000 		.4byte	.LASF210
 2063 0b1d 02       		.sleb128 2
 2064 0b1e 00       		.byte	0
 2065 0b1f 03       		.uleb128 0x3
 2066 0b20 B7080000 		.4byte	.LASF211
 2067 0b24 0D       		.byte	0xd
 2068 0b25 68       		.byte	0x68
 2069 0b26 040B0000 		.4byte	0xb04
 2070 0b2a 03       		.uleb128 0x3
 2071 0b2b 7B080000 		.4byte	.LASF212
 2072 0b2f 0D       		.byte	0xd
 2073 0b30 6D       		.byte	0x6d
 2074 0b31 350B0000 		.4byte	0xb35
 2075 0b35 05       		.uleb128 0x5
 2076 0b36 7B080000 		.4byte	.LASF212
 2077 0b3a 78       		.byte	0x78
 2078 0b3b 0D       		.byte	0xd
 2079 0b3c 87       		.byte	0x87
 2080 0b3d A00B0000 		.4byte	0xba0
 2081 0b41 07       		.uleb128 0x7
 2082 0b42 766D7400 		.ascii	"vmt\000"
 2083 0b46 0D       		.byte	0xd
 2084 0b47 89       		.byte	0x89
 2085 0b48 510C0000 		.4byte	0xc51
 2086 0b4c 00       		.byte	0
 2087 0b4d 06       		.uleb128 0x6
 2088 0b4e A3060000 		.4byte	.LASF213
 2089 0b52 0D       		.byte	0xd
 2090 0b53 8A       		.byte	0x8a
 2091 0b54 23040000 		.4byte	0x423
 2092 0b58 04       		.byte	0x4
 2093 0b59 06       		.uleb128 0x6
 2094 0b5a C2000000 		.4byte	.LASF214
 2095 0b5e 0D       		.byte	0xd
 2096 0b5f 8A       		.byte	0x8a
ARM GAS  /tmp/ccSf0MBz.s 			page 38


 2097 0b60 1F0B0000 		.4byte	0xb1f
 2098 0b64 08       		.byte	0x8
 2099 0b65 06       		.uleb128 0x6
 2100 0b66 45090000 		.4byte	.LASF215
 2101 0b6a 0D       		.byte	0xd
 2102 0b6b 8A       		.byte	0x8a
 2103 0b6c 36050000 		.4byte	0x536
 2104 0b70 0C       		.byte	0xc
 2105 0b71 06       		.uleb128 0x6
 2106 0b72 FA010000 		.4byte	.LASF216
 2107 0b76 0D       		.byte	0xd
 2108 0b77 8A       		.byte	0x8a
 2109 0b78 41050000 		.4byte	0x541
 2110 0b7c 30       		.byte	0x30
 2111 0b7d 07       		.uleb128 0x7
 2112 0b7e 696200   		.ascii	"ib\000"
 2113 0b81 0D       		.byte	0xd
 2114 0b82 8A       		.byte	0x8a
 2115 0b83 5C0C0000 		.4byte	0xc5c
 2116 0b87 54       		.byte	0x54
 2117 0b88 07       		.uleb128 0x7
 2118 0b89 6F6200   		.ascii	"ob\000"
 2119 0b8c 0D       		.byte	0xd
 2120 0b8d 8A       		.byte	0x8a
 2121 0b8e 5C0C0000 		.4byte	0xc5c
 2122 0b92 64       		.byte	0x64
 2123 0b93 06       		.uleb128 0x6
 2124 0b94 3D020000 		.4byte	.LASF217
 2125 0b98 0D       		.byte	0xd
 2126 0b99 8A       		.byte	0x8a
 2127 0b9a 6C0C0000 		.4byte	0xc6c
 2128 0b9e 74       		.byte	0x74
 2129 0b9f 00       		.byte	0
 2130 0ba0 08       		.uleb128 0x8
 2131 0ba1 0C       		.byte	0xc
 2132 0ba2 0E       		.byte	0xe
 2133 0ba3 D7       		.byte	0xd7
 2134 0ba4 D90B0000 		.4byte	0xbd9
 2135 0ba8 06       		.uleb128 0x6
 2136 0ba9 DC030000 		.4byte	.LASF218
 2137 0bad 0E       		.byte	0xe
 2138 0bae DB       		.byte	0xdb
 2139 0baf CE000000 		.4byte	0xce
 2140 0bb3 00       		.byte	0
 2141 0bb4 07       		.uleb128 0x7
 2142 0bb5 63723100 		.ascii	"cr1\000"
 2143 0bb9 0E       		.byte	0xe
 2144 0bba E0       		.byte	0xe0
 2145 0bbb B8000000 		.4byte	0xb8
 2146 0bbf 04       		.byte	0x4
 2147 0bc0 07       		.uleb128 0x7
 2148 0bc1 63723200 		.ascii	"cr2\000"
 2149 0bc5 0E       		.byte	0xe
 2150 0bc6 E4       		.byte	0xe4
 2151 0bc7 B8000000 		.4byte	0xb8
 2152 0bcb 06       		.byte	0x6
 2153 0bcc 07       		.uleb128 0x7
ARM GAS  /tmp/ccSf0MBz.s 			page 39


 2154 0bcd 63723300 		.ascii	"cr3\000"
 2155 0bd1 0E       		.byte	0xe
 2156 0bd2 E8       		.byte	0xe8
 2157 0bd3 B8000000 		.4byte	0xb8
 2158 0bd7 08       		.byte	0x8
 2159 0bd8 00       		.byte	0
 2160 0bd9 03       		.uleb128 0x3
 2161 0bda 59000000 		.4byte	.LASF219
 2162 0bde 0E       		.byte	0xe
 2163 0bdf E9       		.byte	0xe9
 2164 0be0 A00B0000 		.4byte	0xba0
 2165 0be4 05       		.uleb128 0x5
 2166 0be5 7B050000 		.4byte	.LASF220
 2167 0be9 20       		.byte	0x20
 2168 0bea 0D       		.byte	0xd
 2169 0beb 7C       		.byte	0x7c
 2170 0bec 510C0000 		.4byte	0xc51
 2171 0bf0 06       		.uleb128 0x6
 2172 0bf1 72000000 		.4byte	.LASF221
 2173 0bf5 0D       		.byte	0xd
 2174 0bf6 7D       		.byte	0x7d
 2175 0bf7 70050000 		.4byte	0x570
 2176 0bfb 00       		.byte	0
 2177 0bfc 06       		.uleb128 0x6
 2178 0bfd C2060000 		.4byte	.LASF222
 2179 0c01 0D       		.byte	0xd
 2180 0c02 7D       		.byte	0x7d
 2181 0c03 8F050000 		.4byte	0x58f
 2182 0c07 04       		.byte	0x4
 2183 0c08 07       		.uleb128 0x7
 2184 0c09 70757400 		.ascii	"put\000"
 2185 0c0d 0D       		.byte	0xd
 2186 0c0e 7D       		.byte	0x7d
 2187 0c0f A9050000 		.4byte	0x5a9
 2188 0c13 08       		.byte	0x8
 2189 0c14 07       		.uleb128 0x7
 2190 0c15 67657400 		.ascii	"get\000"
 2191 0c19 0D       		.byte	0xd
 2192 0c1a 7D       		.byte	0x7d
 2193 0c1b 81040000 		.4byte	0x481
 2194 0c1f 0C       		.byte	0xc
 2195 0c20 06       		.uleb128 0x6
 2196 0c21 C8000000 		.4byte	.LASF223
 2197 0c25 0D       		.byte	0xd
 2198 0c26 7D       		.byte	0x7d
 2199 0c27 9C0A0000 		.4byte	0xa9c
 2200 0c2b 10       		.byte	0x10
 2201 0c2c 06       		.uleb128 0x6
 2202 0c2d 83030000 		.4byte	.LASF224
 2203 0c31 0D       		.byte	0xd
 2204 0c32 7D       		.byte	0x7d
 2205 0c33 B60A0000 		.4byte	0xab6
 2206 0c37 14       		.byte	0x14
 2207 0c38 06       		.uleb128 0x6
 2208 0c39 66000000 		.4byte	.LASF225
 2209 0c3d 0D       		.byte	0xd
 2210 0c3e 7D       		.byte	0x7d
ARM GAS  /tmp/ccSf0MBz.s 			page 40


 2211 0c3f DA0A0000 		.4byte	0xada
 2212 0c43 18       		.byte	0x18
 2213 0c44 06       		.uleb128 0x6
 2214 0c45 62010000 		.4byte	.LASF226
 2215 0c49 0D       		.byte	0xd
 2216 0c4a 7D       		.byte	0x7d
 2217 0c4b FE0A0000 		.4byte	0xafe
 2218 0c4f 1C       		.byte	0x1c
 2219 0c50 00       		.byte	0
 2220 0c51 09       		.uleb128 0x9
 2221 0c52 04       		.byte	0x4
 2222 0c53 570C0000 		.4byte	0xc57
 2223 0c57 10       		.uleb128 0x10
 2224 0c58 E40B0000 		.4byte	0xbe4
 2225 0c5c 16       		.uleb128 0x16
 2226 0c5d AD000000 		.4byte	0xad
 2227 0c61 6C0C0000 		.4byte	0xc6c
 2228 0c65 17       		.uleb128 0x17
 2229 0c66 6E030000 		.4byte	0x36e
 2230 0c6a 0F       		.byte	0xf
 2231 0c6b 00       		.byte	0
 2232 0c6c 09       		.uleb128 0x9
 2233 0c6d 04       		.byte	0x4
 2234 0c6e 770A0000 		.4byte	0xa77
 2235 0c72 1C       		.uleb128 0x1c
 2236 0c73 B0070000 		.4byte	.LASF228
 2237 0c77 01       		.byte	0x1
 2238 0c78 5C       		.byte	0x5c
 2239 0c79 00000000 		.4byte	.LFB118
 2240 0c7d 9A000000 		.4byte	.LFE118-.LFB118
 2241 0c81 01       		.uleb128 0x1
 2242 0c82 9C       		.byte	0x9c
 2243 0c83 B00C0000 		.4byte	0xcb0
 2244 0c87 1D       		.uleb128 0x1d
 2245 0c88 73647000 		.ascii	"sdp\000"
 2246 0c8c 01       		.byte	0x1
 2247 0c8d 5C       		.byte	0x5c
 2248 0c8e B00C0000 		.4byte	0xcb0
 2249 0c92 02       		.uleb128 0x2
 2250 0c93 91       		.byte	0x91
 2251 0c94 74       		.sleb128 -12
 2252 0c95 1E       		.uleb128 0x1e
 2253 0c96 BB000000 		.4byte	.LASF227
 2254 0c9a 01       		.byte	0x1
 2255 0c9b 5C       		.byte	0x5c
 2256 0c9c B60C0000 		.4byte	0xcb6
 2257 0ca0 02       		.uleb128 0x2
 2258 0ca1 91       		.byte	0x91
 2259 0ca2 70       		.sleb128 -16
 2260 0ca3 1F       		.uleb128 0x1f
 2261 0ca4 7500     		.ascii	"u\000"
 2262 0ca6 01       		.byte	0x1
 2263 0ca7 5D       		.byte	0x5d
 2264 0ca8 6C0C0000 		.4byte	0xc6c
 2265 0cac 02       		.uleb128 0x2
 2266 0cad 91       		.byte	0x91
 2267 0cae 7C       		.sleb128 -4
ARM GAS  /tmp/ccSf0MBz.s 			page 41


 2268 0caf 00       		.byte	0
 2269 0cb0 09       		.uleb128 0x9
 2270 0cb1 04       		.byte	0x4
 2271 0cb2 2A0B0000 		.4byte	0xb2a
 2272 0cb6 09       		.uleb128 0x9
 2273 0cb7 04       		.byte	0x4
 2274 0cb8 BC0C0000 		.4byte	0xcbc
 2275 0cbc 10       		.uleb128 0x10
 2276 0cbd D90B0000 		.4byte	0xbd9
 2277 0cc1 1C       		.uleb128 0x1c
 2278 0cc2 8B050000 		.4byte	.LASF229
 2279 0cc6 01       		.byte	0x1
 2280 0cc7 7A       		.byte	0x7a
 2281 0cc8 00000000 		.4byte	.LFB119
 2282 0ccc 1A000000 		.4byte	.LFE119-.LFB119
 2283 0cd0 01       		.uleb128 0x1
 2284 0cd1 9C       		.byte	0x9c
 2285 0cd2 E30C0000 		.4byte	0xce3
 2286 0cd6 1D       		.uleb128 0x1d
 2287 0cd7 7500     		.ascii	"u\000"
 2288 0cd9 01       		.byte	0x1
 2289 0cda 7A       		.byte	0x7a
 2290 0cdb 6C0C0000 		.4byte	0xc6c
 2291 0cdf 02       		.uleb128 0x2
 2292 0ce0 91       		.byte	0x91
 2293 0ce1 7C       		.sleb128 -4
 2294 0ce2 00       		.byte	0
 2295 0ce3 20       		.uleb128 0x20
 2296 0ce4 E7000000 		.4byte	.LASF230
 2297 0ce8 01       		.byte	0x1
 2298 0ce9 87       		.byte	0x87
 2299 0cea 00000000 		.4byte	.LFB120
 2300 0cee 72000000 		.4byte	.LFE120-.LFB120
 2301 0cf2 01       		.uleb128 0x1
 2302 0cf3 9C       		.byte	0x9c
 2303 0cf4 220D0000 		.4byte	0xd22
 2304 0cf8 1D       		.uleb128 0x1d
 2305 0cf9 73647000 		.ascii	"sdp\000"
 2306 0cfd 01       		.byte	0x1
 2307 0cfe 87       		.byte	0x87
 2308 0cff B00C0000 		.4byte	0xcb0
 2309 0d03 02       		.uleb128 0x2
 2310 0d04 91       		.byte	0x91
 2311 0d05 6C       		.sleb128 -20
 2312 0d06 1D       		.uleb128 0x1d
 2313 0d07 737200   		.ascii	"sr\000"
 2314 0d0a 01       		.byte	0x1
 2315 0d0b 87       		.byte	0x87
 2316 0d0c B8000000 		.4byte	0xb8
 2317 0d10 02       		.uleb128 0x2
 2318 0d11 91       		.byte	0x91
 2319 0d12 6A       		.sleb128 -22
 2320 0d13 1F       		.uleb128 0x1f
 2321 0d14 73747300 		.ascii	"sts\000"
 2322 0d18 01       		.byte	0x1
 2323 0d19 88       		.byte	0x88
 2324 0d1a 38010000 		.4byte	0x138
ARM GAS  /tmp/ccSf0MBz.s 			page 42


 2325 0d1e 02       		.uleb128 0x2
 2326 0d1f 91       		.byte	0x91
 2327 0d20 74       		.sleb128 -12
 2328 0d21 00       		.byte	0
 2329 0d22 20       		.uleb128 0x20
 2330 0d23 D7000000 		.4byte	.LASF231
 2331 0d27 01       		.byte	0x1
 2332 0d28 9A       		.byte	0x9a
 2333 0d29 00000000 		.4byte	.LFB121
 2334 0d2d 56010000 		.4byte	.LFE121-.LFB121
 2335 0d31 01       		.uleb128 0x1
 2336 0d32 9C       		.byte	0x9c
 2337 0d33 570E0000 		.4byte	0xe57
 2338 0d37 1D       		.uleb128 0x1d
 2339 0d38 73647000 		.ascii	"sdp\000"
 2340 0d3c 01       		.byte	0x1
 2341 0d3d 9A       		.byte	0x9a
 2342 0d3e B00C0000 		.4byte	0xcb0
 2343 0d42 02       		.uleb128 0x2
 2344 0d43 91       		.byte	0x91
 2345 0d44 64       		.sleb128 -28
 2346 0d45 1F       		.uleb128 0x1f
 2347 0d46 7500     		.ascii	"u\000"
 2348 0d48 01       		.byte	0x1
 2349 0d49 9B       		.byte	0x9b
 2350 0d4a 6C0C0000 		.4byte	0xc6c
 2351 0d4e 02       		.uleb128 0x2
 2352 0d4f 91       		.byte	0x91
 2353 0d50 70       		.sleb128 -16
 2354 0d51 1F       		.uleb128 0x1f
 2355 0d52 63723100 		.ascii	"cr1\000"
 2356 0d56 01       		.byte	0x1
 2357 0d57 9C       		.byte	0x9c
 2358 0d58 B8000000 		.4byte	0xb8
 2359 0d5c 02       		.uleb128 0x2
 2360 0d5d 91       		.byte	0x91
 2361 0d5e 6E       		.sleb128 -18
 2362 0d5f 1F       		.uleb128 0x1f
 2363 0d60 737200   		.ascii	"sr\000"
 2364 0d63 01       		.byte	0x1
 2365 0d64 9D       		.byte	0x9d
 2366 0d65 B8000000 		.4byte	0xb8
 2367 0d69 02       		.uleb128 0x2
 2368 0d6a 91       		.byte	0x91
 2369 0d6b 76       		.sleb128 -10
 2370 0d6c 21       		.uleb128 0x21
 2371 0d6d 28000000 		.4byte	.LBB2
 2372 0d71 06000000 		.4byte	.LBE2-.LBB2
 2373 0d75 870D0000 		.4byte	0xd87
 2374 0d79 1F       		.uleb128 0x1f
 2375 0d7a 746D7000 		.ascii	"tmp\000"
 2376 0d7e 01       		.byte	0x1
 2377 0d7f A1       		.byte	0xa1
 2378 0d80 CE000000 		.4byte	0xce
 2379 0d84 01       		.uleb128 0x1
 2380 0d85 53       		.byte	0x53
 2381 0d86 00       		.byte	0
ARM GAS  /tmp/ccSf0MBz.s 			page 43


 2382 0d87 21       		.uleb128 0x21
 2383 0d88 44000000 		.4byte	.LBB3
 2384 0d8c 06000000 		.4byte	.LBE3-.LBB3
 2385 0d90 A20D0000 		.4byte	0xda2
 2386 0d94 1F       		.uleb128 0x1f
 2387 0d95 746D7000 		.ascii	"tmp\000"
 2388 0d99 01       		.byte	0x1
 2389 0d9a A3       		.byte	0xa3
 2390 0d9b CE000000 		.4byte	0xce
 2391 0d9f 01       		.uleb128 0x1
 2392 0da0 53       		.byte	0x53
 2393 0da1 00       		.byte	0
 2394 0da2 21       		.uleb128 0x21
 2395 0da3 52000000 		.4byte	.LBB4
 2396 0da7 06000000 		.4byte	.LBE4-.LBB4
 2397 0dab BD0D0000 		.4byte	0xdbd
 2398 0daf 1F       		.uleb128 0x1f
 2399 0db0 746D7000 		.ascii	"tmp\000"
 2400 0db4 01       		.byte	0x1
 2401 0db5 A8       		.byte	0xa8
 2402 0db6 CE000000 		.4byte	0xce
 2403 0dba 01       		.uleb128 0x1
 2404 0dbb 53       		.byte	0x53
 2405 0dbc 00       		.byte	0
 2406 0dbd 21       		.uleb128 0x21
 2407 0dbe 9E000000 		.4byte	.LBB5
 2408 0dc2 06000000 		.4byte	.LBE5-.LBB5
 2409 0dc6 D80D0000 		.4byte	0xdd8
 2410 0dca 1F       		.uleb128 0x1f
 2411 0dcb 746D7000 		.ascii	"tmp\000"
 2412 0dcf 01       		.byte	0x1
 2413 0dd0 B0       		.byte	0xb0
 2414 0dd1 CE000000 		.4byte	0xce
 2415 0dd5 01       		.uleb128 0x1
 2416 0dd6 53       		.byte	0x53
 2417 0dd7 00       		.byte	0
 2418 0dd8 21       		.uleb128 0x21
 2419 0dd9 BC000000 		.4byte	.LBB6
 2420 0ddd 52000000 		.4byte	.LBE6-.LBB6
 2421 0de1 240E0000 		.4byte	0xe24
 2422 0de5 1F       		.uleb128 0x1f
 2423 0de6 6200     		.ascii	"b\000"
 2424 0de8 01       		.byte	0x1
 2425 0de9 B4       		.byte	0xb4
 2426 0dea 22010000 		.4byte	0x122
 2427 0dee 02       		.uleb128 0x2
 2428 0def 91       		.byte	0x91
 2429 0df0 68       		.sleb128 -24
 2430 0df1 21       		.uleb128 0x21
 2431 0df2 BC000000 		.4byte	.LBB7
 2432 0df6 06000000 		.4byte	.LBE7-.LBB7
 2433 0dfa 0C0E0000 		.4byte	0xe0c
 2434 0dfe 1F       		.uleb128 0x1f
 2435 0dff 746D7000 		.ascii	"tmp\000"
 2436 0e03 01       		.byte	0x1
 2437 0e04 B5       		.byte	0xb5
 2438 0e05 CE000000 		.4byte	0xce
ARM GAS  /tmp/ccSf0MBz.s 			page 44


 2439 0e09 01       		.uleb128 0x1
 2440 0e0a 53       		.byte	0x53
 2441 0e0b 00       		.byte	0
 2442 0e0c 22       		.uleb128 0x22
 2443 0e0d 08010000 		.4byte	.LBB8
 2444 0e11 06000000 		.4byte	.LBE8-.LBB8
 2445 0e15 1F       		.uleb128 0x1f
 2446 0e16 746D7000 		.ascii	"tmp\000"
 2447 0e1a 01       		.byte	0x1
 2448 0e1b BD       		.byte	0xbd
 2449 0e1c CE000000 		.4byte	0xce
 2450 0e20 01       		.uleb128 0x1
 2451 0e21 53       		.byte	0x53
 2452 0e22 00       		.byte	0
 2453 0e23 00       		.byte	0
 2454 0e24 21       		.uleb128 0x21
 2455 0e25 1A010000 		.4byte	.LBB9
 2456 0e29 06000000 		.4byte	.LBE9-.LBB9
 2457 0e2d 3F0E0000 		.4byte	0xe3f
 2458 0e31 1F       		.uleb128 0x1f
 2459 0e32 746D7000 		.ascii	"tmp\000"
 2460 0e36 01       		.byte	0x1
 2461 0e37 C2       		.byte	0xc2
 2462 0e38 CE000000 		.4byte	0xce
 2463 0e3c 01       		.uleb128 0x1
 2464 0e3d 53       		.byte	0x53
 2465 0e3e 00       		.byte	0
 2466 0e3f 22       		.uleb128 0x22
 2467 0e40 34010000 		.4byte	.LBB10
 2468 0e44 06000000 		.4byte	.LBE10-.LBB10
 2469 0e48 1F       		.uleb128 0x1f
 2470 0e49 746D7000 		.ascii	"tmp\000"
 2471 0e4d 01       		.byte	0x1
 2472 0e4e C4       		.byte	0xc4
 2473 0e4f CE000000 		.4byte	0xce
 2474 0e53 01       		.uleb128 0x1
 2475 0e54 53       		.byte	0x53
 2476 0e55 00       		.byte	0
 2477 0e56 00       		.byte	0
 2478 0e57 1C       		.uleb128 0x1c
 2479 0e58 15090000 		.4byte	.LASF232
 2480 0e5c 01       		.byte	0x1
 2481 0e5d D3       		.byte	0xd3
 2482 0e5e 00000000 		.4byte	.LFB122
 2483 0e62 24000000 		.4byte	.LFE122-.LFB122
 2484 0e66 01       		.uleb128 0x1
 2485 0e67 9C       		.byte	0x9c
 2486 0e68 7A0E0000 		.4byte	0xe7a
 2487 0e6c 1D       		.uleb128 0x1d
 2488 0e6d 717000   		.ascii	"qp\000"
 2489 0e70 01       		.byte	0x1
 2490 0e71 D3       		.byte	0xd3
 2491 0e72 2A050000 		.4byte	0x52a
 2492 0e76 02       		.uleb128 0x2
 2493 0e77 91       		.byte	0x91
 2494 0e78 7C       		.sleb128 -4
 2495 0e79 00       		.byte	0
ARM GAS  /tmp/ccSf0MBz.s 			page 45


 2496 0e7a 23       		.uleb128 0x23
 2497 0e7b 8A000000 		.4byte	.LASF233
 2498 0e7f 01       		.byte	0x1
 2499 0e80 1A01     		.2byte	0x11a
 2500 0e82 00000000 		.4byte	.LFB123
 2501 0e86 1C000000 		.4byte	.LFE123-.LFB123
 2502 0e8a 01       		.uleb128 0x1
 2503 0e8b 9C       		.byte	0x9c
 2504 0e8c 23       		.uleb128 0x23
 2505 0e8d B3050000 		.4byte	.LASF234
 2506 0e91 01       		.byte	0x1
 2507 0e92 7901     		.2byte	0x179
 2508 0e94 00000000 		.4byte	.LFB124
 2509 0e98 2C000000 		.4byte	.LFE124-.LFB124
 2510 0e9c 01       		.uleb128 0x1
 2511 0e9d 9C       		.byte	0x9c
 2512 0e9e 24       		.uleb128 0x24
 2513 0e9f 68010000 		.4byte	.LASF235
 2514 0ea3 01       		.byte	0x1
 2515 0ea4 A401     		.2byte	0x1a4
 2516 0ea6 00000000 		.4byte	.LFB125
 2517 0eaa 5C000000 		.4byte	.LFE125-.LFB125
 2518 0eae 01       		.uleb128 0x1
 2519 0eaf 9C       		.byte	0x9c
 2520 0eb0 D30E0000 		.4byte	0xed3
 2521 0eb4 25       		.uleb128 0x25
 2522 0eb5 73647000 		.ascii	"sdp\000"
 2523 0eb9 01       		.byte	0x1
 2524 0eba A401     		.2byte	0x1a4
 2525 0ebc B00C0000 		.4byte	0xcb0
 2526 0ec0 02       		.uleb128 0x2
 2527 0ec1 91       		.byte	0x91
 2528 0ec2 74       		.sleb128 -12
 2529 0ec3 26       		.uleb128 0x26
 2530 0ec4 BB000000 		.4byte	.LASF227
 2531 0ec8 01       		.byte	0x1
 2532 0ec9 A401     		.2byte	0x1a4
 2533 0ecb B60C0000 		.4byte	0xcb6
 2534 0ecf 02       		.uleb128 0x2
 2535 0ed0 91       		.byte	0x91
 2536 0ed1 70       		.sleb128 -16
 2537 0ed2 00       		.byte	0
 2538 0ed3 24       		.uleb128 0x24
 2539 0ed4 BB0A0000 		.4byte	.LASF236
 2540 0ed8 01       		.byte	0x1
 2541 0ed9 E101     		.2byte	0x1e1
 2542 0edb 00000000 		.4byte	.LFB126
 2543 0edf 4C000000 		.4byte	.LFE126-.LFB126
 2544 0ee3 01       		.uleb128 0x1
 2545 0ee4 9C       		.byte	0x9c
 2546 0ee5 F90E0000 		.4byte	0xef9
 2547 0ee9 25       		.uleb128 0x25
 2548 0eea 73647000 		.ascii	"sdp\000"
 2549 0eee 01       		.byte	0x1
 2550 0eef E101     		.2byte	0x1e1
 2551 0ef1 B00C0000 		.4byte	0xcb0
 2552 0ef5 02       		.uleb128 0x2
ARM GAS  /tmp/ccSf0MBz.s 			page 46


 2553 0ef6 91       		.byte	0x91
 2554 0ef7 74       		.sleb128 -12
 2555 0ef8 00       		.byte	0
 2556 0ef9 27       		.uleb128 0x27
 2557 0efa AE010000 		.4byte	.LASF237
 2558 0efe 01       		.byte	0x1
 2559 0eff 49       		.byte	0x49
 2560 0f00 BC0C0000 		.4byte	0xcbc
 2561 0f04 05       		.uleb128 0x5
 2562 0f05 03       		.byte	0x3
 2563 0f06 00000000 		.4byte	default_config
 2564 0f0a 28       		.uleb128 0x28
 2565 0f0b 78090000 		.4byte	.LASF238
 2566 0f0f 0F       		.byte	0xf
 2567 0f10 9806     		.2byte	0x698
 2568 0f12 FF070000 		.4byte	0x7ff
 2569 0f16 29       		.uleb128 0x29
 2570 0f17 53443200 		.ascii	"SD2\000"
 2571 0f1b 01       		.byte	0x1
 2572 0f1c 2D       		.byte	0x2d
 2573 0f1d 2A0B0000 		.4byte	0xb2a
 2574 0f21 05       		.uleb128 0x5
 2575 0f22 03       		.byte	0x3
 2576 0f23 00000000 		.4byte	SD2
 2577 0f27 00       		.byte	0
 2578              		.section	.debug_abbrev,"",%progbits
 2579              	.Ldebug_abbrev0:
 2580 0000 01       		.uleb128 0x1
 2581 0001 11       		.uleb128 0x11
 2582 0002 01       		.byte	0x1
 2583 0003 25       		.uleb128 0x25
 2584 0004 0E       		.uleb128 0xe
 2585 0005 13       		.uleb128 0x13
 2586 0006 0B       		.uleb128 0xb
 2587 0007 03       		.uleb128 0x3
 2588 0008 0E       		.uleb128 0xe
 2589 0009 1B       		.uleb128 0x1b
 2590 000a 0E       		.uleb128 0xe
 2591 000b 55       		.uleb128 0x55
 2592 000c 17       		.uleb128 0x17
 2593 000d 11       		.uleb128 0x11
 2594 000e 01       		.uleb128 0x1
 2595 000f 10       		.uleb128 0x10
 2596 0010 17       		.uleb128 0x17
 2597 0011 00       		.byte	0
 2598 0012 00       		.byte	0
 2599 0013 02       		.uleb128 0x2
 2600 0014 24       		.uleb128 0x24
 2601 0015 00       		.byte	0
 2602 0016 0B       		.uleb128 0xb
 2603 0017 0B       		.uleb128 0xb
 2604 0018 3E       		.uleb128 0x3e
 2605 0019 0B       		.uleb128 0xb
 2606 001a 03       		.uleb128 0x3
 2607 001b 08       		.uleb128 0x8
 2608 001c 00       		.byte	0
 2609 001d 00       		.byte	0
ARM GAS  /tmp/ccSf0MBz.s 			page 47


 2610 001e 03       		.uleb128 0x3
 2611 001f 16       		.uleb128 0x16
 2612 0020 00       		.byte	0
 2613 0021 03       		.uleb128 0x3
 2614 0022 0E       		.uleb128 0xe
 2615 0023 3A       		.uleb128 0x3a
 2616 0024 0B       		.uleb128 0xb
 2617 0025 3B       		.uleb128 0x3b
 2618 0026 0B       		.uleb128 0xb
 2619 0027 49       		.uleb128 0x49
 2620 0028 13       		.uleb128 0x13
 2621 0029 00       		.byte	0
 2622 002a 00       		.byte	0
 2623 002b 04       		.uleb128 0x4
 2624 002c 24       		.uleb128 0x24
 2625 002d 00       		.byte	0
 2626 002e 0B       		.uleb128 0xb
 2627 002f 0B       		.uleb128 0xb
 2628 0030 3E       		.uleb128 0x3e
 2629 0031 0B       		.uleb128 0xb
 2630 0032 03       		.uleb128 0x3
 2631 0033 0E       		.uleb128 0xe
 2632 0034 00       		.byte	0
 2633 0035 00       		.byte	0
 2634 0036 05       		.uleb128 0x5
 2635 0037 13       		.uleb128 0x13
 2636 0038 01       		.byte	0x1
 2637 0039 03       		.uleb128 0x3
 2638 003a 0E       		.uleb128 0xe
 2639 003b 0B       		.uleb128 0xb
 2640 003c 0B       		.uleb128 0xb
 2641 003d 3A       		.uleb128 0x3a
 2642 003e 0B       		.uleb128 0xb
 2643 003f 3B       		.uleb128 0x3b
 2644 0040 0B       		.uleb128 0xb
 2645 0041 01       		.uleb128 0x1
 2646 0042 13       		.uleb128 0x13
 2647 0043 00       		.byte	0
 2648 0044 00       		.byte	0
 2649 0045 06       		.uleb128 0x6
 2650 0046 0D       		.uleb128 0xd
 2651 0047 00       		.byte	0
 2652 0048 03       		.uleb128 0x3
 2653 0049 0E       		.uleb128 0xe
 2654 004a 3A       		.uleb128 0x3a
 2655 004b 0B       		.uleb128 0xb
 2656 004c 3B       		.uleb128 0x3b
 2657 004d 0B       		.uleb128 0xb
 2658 004e 49       		.uleb128 0x49
 2659 004f 13       		.uleb128 0x13
 2660 0050 38       		.uleb128 0x38
 2661 0051 0B       		.uleb128 0xb
 2662 0052 00       		.byte	0
 2663 0053 00       		.byte	0
 2664 0054 07       		.uleb128 0x7
 2665 0055 0D       		.uleb128 0xd
 2666 0056 00       		.byte	0
ARM GAS  /tmp/ccSf0MBz.s 			page 48


 2667 0057 03       		.uleb128 0x3
 2668 0058 08       		.uleb128 0x8
 2669 0059 3A       		.uleb128 0x3a
 2670 005a 0B       		.uleb128 0xb
 2671 005b 3B       		.uleb128 0x3b
 2672 005c 0B       		.uleb128 0xb
 2673 005d 49       		.uleb128 0x49
 2674 005e 13       		.uleb128 0x13
 2675 005f 38       		.uleb128 0x38
 2676 0060 0B       		.uleb128 0xb
 2677 0061 00       		.byte	0
 2678 0062 00       		.byte	0
 2679 0063 08       		.uleb128 0x8
 2680 0064 13       		.uleb128 0x13
 2681 0065 01       		.byte	0x1
 2682 0066 0B       		.uleb128 0xb
 2683 0067 0B       		.uleb128 0xb
 2684 0068 3A       		.uleb128 0x3a
 2685 0069 0B       		.uleb128 0xb
 2686 006a 3B       		.uleb128 0x3b
 2687 006b 0B       		.uleb128 0xb
 2688 006c 01       		.uleb128 0x1
 2689 006d 13       		.uleb128 0x13
 2690 006e 00       		.byte	0
 2691 006f 00       		.byte	0
 2692 0070 09       		.uleb128 0x9
 2693 0071 0F       		.uleb128 0xf
 2694 0072 00       		.byte	0
 2695 0073 0B       		.uleb128 0xb
 2696 0074 0B       		.uleb128 0xb
 2697 0075 49       		.uleb128 0x49
 2698 0076 13       		.uleb128 0x13
 2699 0077 00       		.byte	0
 2700 0078 00       		.byte	0
 2701 0079 0A       		.uleb128 0xa
 2702 007a 0F       		.uleb128 0xf
 2703 007b 00       		.byte	0
 2704 007c 0B       		.uleb128 0xb
 2705 007d 0B       		.uleb128 0xb
 2706 007e 00       		.byte	0
 2707 007f 00       		.byte	0
 2708 0080 0B       		.uleb128 0xb
 2709 0081 13       		.uleb128 0x13
 2710 0082 01       		.byte	0x1
 2711 0083 03       		.uleb128 0x3
 2712 0084 0E       		.uleb128 0xe
 2713 0085 0B       		.uleb128 0xb
 2714 0086 0B       		.uleb128 0xb
 2715 0087 3A       		.uleb128 0x3a
 2716 0088 0B       		.uleb128 0xb
 2717 0089 3B       		.uleb128 0x3b
 2718 008a 05       		.uleb128 0x5
 2719 008b 01       		.uleb128 0x1
 2720 008c 13       		.uleb128 0x13
 2721 008d 00       		.byte	0
 2722 008e 00       		.byte	0
 2723 008f 0C       		.uleb128 0xc
ARM GAS  /tmp/ccSf0MBz.s 			page 49


 2724 0090 0D       		.uleb128 0xd
 2725 0091 00       		.byte	0
 2726 0092 03       		.uleb128 0x3
 2727 0093 08       		.uleb128 0x8
 2728 0094 3A       		.uleb128 0x3a
 2729 0095 0B       		.uleb128 0xb
 2730 0096 3B       		.uleb128 0x3b
 2731 0097 05       		.uleb128 0x5
 2732 0098 49       		.uleb128 0x49
 2733 0099 13       		.uleb128 0x13
 2734 009a 38       		.uleb128 0x38
 2735 009b 0B       		.uleb128 0xb
 2736 009c 00       		.byte	0
 2737 009d 00       		.byte	0
 2738 009e 0D       		.uleb128 0xd
 2739 009f 35       		.uleb128 0x35
 2740 00a0 00       		.byte	0
 2741 00a1 49       		.uleb128 0x49
 2742 00a2 13       		.uleb128 0x13
 2743 00a3 00       		.byte	0
 2744 00a4 00       		.byte	0
 2745 00a5 0E       		.uleb128 0xe
 2746 00a6 17       		.uleb128 0x17
 2747 00a7 01       		.byte	0x1
 2748 00a8 0B       		.uleb128 0xb
 2749 00a9 0B       		.uleb128 0xb
 2750 00aa 3A       		.uleb128 0x3a
 2751 00ab 0B       		.uleb128 0xb
 2752 00ac 3B       		.uleb128 0x3b
 2753 00ad 0B       		.uleb128 0xb
 2754 00ae 01       		.uleb128 0x1
 2755 00af 13       		.uleb128 0x13
 2756 00b0 00       		.byte	0
 2757 00b1 00       		.byte	0
 2758 00b2 0F       		.uleb128 0xf
 2759 00b3 0D       		.uleb128 0xd
 2760 00b4 00       		.byte	0
 2761 00b5 03       		.uleb128 0x3
 2762 00b6 0E       		.uleb128 0xe
 2763 00b7 3A       		.uleb128 0x3a
 2764 00b8 0B       		.uleb128 0xb
 2765 00b9 3B       		.uleb128 0x3b
 2766 00ba 0B       		.uleb128 0xb
 2767 00bb 49       		.uleb128 0x49
 2768 00bc 13       		.uleb128 0x13
 2769 00bd 00       		.byte	0
 2770 00be 00       		.byte	0
 2771 00bf 10       		.uleb128 0x10
 2772 00c0 26       		.uleb128 0x26
 2773 00c1 00       		.byte	0
 2774 00c2 49       		.uleb128 0x49
 2775 00c3 13       		.uleb128 0x13
 2776 00c4 00       		.byte	0
 2777 00c5 00       		.byte	0
 2778 00c6 11       		.uleb128 0x11
 2779 00c7 15       		.uleb128 0x15
 2780 00c8 01       		.byte	0x1
ARM GAS  /tmp/ccSf0MBz.s 			page 50


 2781 00c9 27       		.uleb128 0x27
 2782 00ca 19       		.uleb128 0x19
 2783 00cb 49       		.uleb128 0x49
 2784 00cc 13       		.uleb128 0x13
 2785 00cd 01       		.uleb128 0x1
 2786 00ce 13       		.uleb128 0x13
 2787 00cf 00       		.byte	0
 2788 00d0 00       		.byte	0
 2789 00d1 12       		.uleb128 0x12
 2790 00d2 05       		.uleb128 0x5
 2791 00d3 00       		.byte	0
 2792 00d4 49       		.uleb128 0x49
 2793 00d5 13       		.uleb128 0x13
 2794 00d6 00       		.byte	0
 2795 00d7 00       		.byte	0
 2796 00d8 13       		.uleb128 0x13
 2797 00d9 15       		.uleb128 0x15
 2798 00da 01       		.byte	0x1
 2799 00db 27       		.uleb128 0x27
 2800 00dc 19       		.uleb128 0x19
 2801 00dd 01       		.uleb128 0x1
 2802 00de 13       		.uleb128 0x13
 2803 00df 00       		.byte	0
 2804 00e0 00       		.byte	0
 2805 00e1 14       		.uleb128 0x14
 2806 00e2 04       		.uleb128 0x4
 2807 00e3 01       		.byte	0x1
 2808 00e4 03       		.uleb128 0x3
 2809 00e5 0E       		.uleb128 0xe
 2810 00e6 0B       		.uleb128 0xb
 2811 00e7 0B       		.uleb128 0xb
 2812 00e8 3A       		.uleb128 0x3a
 2813 00e9 0B       		.uleb128 0xb
 2814 00ea 3B       		.uleb128 0x3b
 2815 00eb 0B       		.uleb128 0xb
 2816 00ec 01       		.uleb128 0x1
 2817 00ed 13       		.uleb128 0x13
 2818 00ee 00       		.byte	0
 2819 00ef 00       		.byte	0
 2820 00f0 15       		.uleb128 0x15
 2821 00f1 28       		.uleb128 0x28
 2822 00f2 00       		.byte	0
 2823 00f3 03       		.uleb128 0x3
 2824 00f4 0E       		.uleb128 0xe
 2825 00f5 1C       		.uleb128 0x1c
 2826 00f6 0D       		.uleb128 0xd
 2827 00f7 00       		.byte	0
 2828 00f8 00       		.byte	0
 2829 00f9 16       		.uleb128 0x16
 2830 00fa 01       		.uleb128 0x1
 2831 00fb 01       		.byte	0x1
 2832 00fc 49       		.uleb128 0x49
 2833 00fd 13       		.uleb128 0x13
 2834 00fe 01       		.uleb128 0x1
 2835 00ff 13       		.uleb128 0x13
 2836 0100 00       		.byte	0
 2837 0101 00       		.byte	0
ARM GAS  /tmp/ccSf0MBz.s 			page 51


 2838 0102 17       		.uleb128 0x17
 2839 0103 21       		.uleb128 0x21
 2840 0104 00       		.byte	0
 2841 0105 49       		.uleb128 0x49
 2842 0106 13       		.uleb128 0x13
 2843 0107 2F       		.uleb128 0x2f
 2844 0108 0B       		.uleb128 0xb
 2845 0109 00       		.byte	0
 2846 010a 00       		.byte	0
 2847 010b 18       		.uleb128 0x18
 2848 010c 13       		.uleb128 0x13
 2849 010d 01       		.byte	0x1
 2850 010e 0B       		.uleb128 0xb
 2851 010f 0B       		.uleb128 0xb
 2852 0110 3A       		.uleb128 0x3a
 2853 0111 0B       		.uleb128 0xb
 2854 0112 3B       		.uleb128 0x3b
 2855 0113 05       		.uleb128 0x5
 2856 0114 01       		.uleb128 0x1
 2857 0115 13       		.uleb128 0x13
 2858 0116 00       		.byte	0
 2859 0117 00       		.byte	0
 2860 0118 19       		.uleb128 0x19
 2861 0119 0D       		.uleb128 0xd
 2862 011a 00       		.byte	0
 2863 011b 03       		.uleb128 0x3
 2864 011c 0E       		.uleb128 0xe
 2865 011d 3A       		.uleb128 0x3a
 2866 011e 0B       		.uleb128 0xb
 2867 011f 3B       		.uleb128 0x3b
 2868 0120 05       		.uleb128 0x5
 2869 0121 49       		.uleb128 0x49
 2870 0122 13       		.uleb128 0x13
 2871 0123 38       		.uleb128 0x38
 2872 0124 0B       		.uleb128 0xb
 2873 0125 00       		.byte	0
 2874 0126 00       		.byte	0
 2875 0127 1A       		.uleb128 0x1a
 2876 0128 16       		.uleb128 0x16
 2877 0129 00       		.byte	0
 2878 012a 03       		.uleb128 0x3
 2879 012b 0E       		.uleb128 0xe
 2880 012c 3A       		.uleb128 0x3a
 2881 012d 0B       		.uleb128 0xb
 2882 012e 3B       		.uleb128 0x3b
 2883 012f 05       		.uleb128 0x5
 2884 0130 49       		.uleb128 0x49
 2885 0131 13       		.uleb128 0x13
 2886 0132 00       		.byte	0
 2887 0133 00       		.byte	0
 2888 0134 1B       		.uleb128 0x1b
 2889 0135 04       		.uleb128 0x4
 2890 0136 01       		.byte	0x1
 2891 0137 0B       		.uleb128 0xb
 2892 0138 0B       		.uleb128 0xb
 2893 0139 3A       		.uleb128 0x3a
 2894 013a 0B       		.uleb128 0xb
ARM GAS  /tmp/ccSf0MBz.s 			page 52


 2895 013b 3B       		.uleb128 0x3b
 2896 013c 0B       		.uleb128 0xb
 2897 013d 01       		.uleb128 0x1
 2898 013e 13       		.uleb128 0x13
 2899 013f 00       		.byte	0
 2900 0140 00       		.byte	0
 2901 0141 1C       		.uleb128 0x1c
 2902 0142 2E       		.uleb128 0x2e
 2903 0143 01       		.byte	0x1
 2904 0144 03       		.uleb128 0x3
 2905 0145 0E       		.uleb128 0xe
 2906 0146 3A       		.uleb128 0x3a
 2907 0147 0B       		.uleb128 0xb
 2908 0148 3B       		.uleb128 0x3b
 2909 0149 0B       		.uleb128 0xb
 2910 014a 27       		.uleb128 0x27
 2911 014b 19       		.uleb128 0x19
 2912 014c 11       		.uleb128 0x11
 2913 014d 01       		.uleb128 0x1
 2914 014e 12       		.uleb128 0x12
 2915 014f 06       		.uleb128 0x6
 2916 0150 40       		.uleb128 0x40
 2917 0151 18       		.uleb128 0x18
 2918 0152 9742     		.uleb128 0x2117
 2919 0154 19       		.uleb128 0x19
 2920 0155 01       		.uleb128 0x1
 2921 0156 13       		.uleb128 0x13
 2922 0157 00       		.byte	0
 2923 0158 00       		.byte	0
 2924 0159 1D       		.uleb128 0x1d
 2925 015a 05       		.uleb128 0x5
 2926 015b 00       		.byte	0
 2927 015c 03       		.uleb128 0x3
 2928 015d 08       		.uleb128 0x8
 2929 015e 3A       		.uleb128 0x3a
 2930 015f 0B       		.uleb128 0xb
 2931 0160 3B       		.uleb128 0x3b
 2932 0161 0B       		.uleb128 0xb
 2933 0162 49       		.uleb128 0x49
 2934 0163 13       		.uleb128 0x13
 2935 0164 02       		.uleb128 0x2
 2936 0165 18       		.uleb128 0x18
 2937 0166 00       		.byte	0
 2938 0167 00       		.byte	0
 2939 0168 1E       		.uleb128 0x1e
 2940 0169 05       		.uleb128 0x5
 2941 016a 00       		.byte	0
 2942 016b 03       		.uleb128 0x3
 2943 016c 0E       		.uleb128 0xe
 2944 016d 3A       		.uleb128 0x3a
 2945 016e 0B       		.uleb128 0xb
 2946 016f 3B       		.uleb128 0x3b
 2947 0170 0B       		.uleb128 0xb
 2948 0171 49       		.uleb128 0x49
 2949 0172 13       		.uleb128 0x13
 2950 0173 02       		.uleb128 0x2
 2951 0174 18       		.uleb128 0x18
ARM GAS  /tmp/ccSf0MBz.s 			page 53


 2952 0175 00       		.byte	0
 2953 0176 00       		.byte	0
 2954 0177 1F       		.uleb128 0x1f
 2955 0178 34       		.uleb128 0x34
 2956 0179 00       		.byte	0
 2957 017a 03       		.uleb128 0x3
 2958 017b 08       		.uleb128 0x8
 2959 017c 3A       		.uleb128 0x3a
 2960 017d 0B       		.uleb128 0xb
 2961 017e 3B       		.uleb128 0x3b
 2962 017f 0B       		.uleb128 0xb
 2963 0180 49       		.uleb128 0x49
 2964 0181 13       		.uleb128 0x13
 2965 0182 02       		.uleb128 0x2
 2966 0183 18       		.uleb128 0x18
 2967 0184 00       		.byte	0
 2968 0185 00       		.byte	0
 2969 0186 20       		.uleb128 0x20
 2970 0187 2E       		.uleb128 0x2e
 2971 0188 01       		.byte	0x1
 2972 0189 03       		.uleb128 0x3
 2973 018a 0E       		.uleb128 0xe
 2974 018b 3A       		.uleb128 0x3a
 2975 018c 0B       		.uleb128 0xb
 2976 018d 3B       		.uleb128 0x3b
 2977 018e 0B       		.uleb128 0xb
 2978 018f 27       		.uleb128 0x27
 2979 0190 19       		.uleb128 0x19
 2980 0191 11       		.uleb128 0x11
 2981 0192 01       		.uleb128 0x1
 2982 0193 12       		.uleb128 0x12
 2983 0194 06       		.uleb128 0x6
 2984 0195 40       		.uleb128 0x40
 2985 0196 18       		.uleb128 0x18
 2986 0197 9642     		.uleb128 0x2116
 2987 0199 19       		.uleb128 0x19
 2988 019a 01       		.uleb128 0x1
 2989 019b 13       		.uleb128 0x13
 2990 019c 00       		.byte	0
 2991 019d 00       		.byte	0
 2992 019e 21       		.uleb128 0x21
 2993 019f 0B       		.uleb128 0xb
 2994 01a0 01       		.byte	0x1
 2995 01a1 11       		.uleb128 0x11
 2996 01a2 01       		.uleb128 0x1
 2997 01a3 12       		.uleb128 0x12
 2998 01a4 06       		.uleb128 0x6
 2999 01a5 01       		.uleb128 0x1
 3000 01a6 13       		.uleb128 0x13
 3001 01a7 00       		.byte	0
 3002 01a8 00       		.byte	0
 3003 01a9 22       		.uleb128 0x22
 3004 01aa 0B       		.uleb128 0xb
 3005 01ab 01       		.byte	0x1
 3006 01ac 11       		.uleb128 0x11
 3007 01ad 01       		.uleb128 0x1
 3008 01ae 12       		.uleb128 0x12
ARM GAS  /tmp/ccSf0MBz.s 			page 54


 3009 01af 06       		.uleb128 0x6
 3010 01b0 00       		.byte	0
 3011 01b1 00       		.byte	0
 3012 01b2 23       		.uleb128 0x23
 3013 01b3 2E       		.uleb128 0x2e
 3014 01b4 00       		.byte	0
 3015 01b5 3F       		.uleb128 0x3f
 3016 01b6 19       		.uleb128 0x19
 3017 01b7 03       		.uleb128 0x3
 3018 01b8 0E       		.uleb128 0xe
 3019 01b9 3A       		.uleb128 0x3a
 3020 01ba 0B       		.uleb128 0xb
 3021 01bb 3B       		.uleb128 0x3b
 3022 01bc 05       		.uleb128 0x5
 3023 01bd 27       		.uleb128 0x27
 3024 01be 19       		.uleb128 0x19
 3025 01bf 11       		.uleb128 0x11
 3026 01c0 01       		.uleb128 0x1
 3027 01c1 12       		.uleb128 0x12
 3028 01c2 06       		.uleb128 0x6
 3029 01c3 40       		.uleb128 0x40
 3030 01c4 18       		.uleb128 0x18
 3031 01c5 9642     		.uleb128 0x2116
 3032 01c7 19       		.uleb128 0x19
 3033 01c8 00       		.byte	0
 3034 01c9 00       		.byte	0
 3035 01ca 24       		.uleb128 0x24
 3036 01cb 2E       		.uleb128 0x2e
 3037 01cc 01       		.byte	0x1
 3038 01cd 3F       		.uleb128 0x3f
 3039 01ce 19       		.uleb128 0x19
 3040 01cf 03       		.uleb128 0x3
 3041 01d0 0E       		.uleb128 0xe
 3042 01d1 3A       		.uleb128 0x3a
 3043 01d2 0B       		.uleb128 0xb
 3044 01d3 3B       		.uleb128 0x3b
 3045 01d4 05       		.uleb128 0x5
 3046 01d5 27       		.uleb128 0x27
 3047 01d6 19       		.uleb128 0x19
 3048 01d7 11       		.uleb128 0x11
 3049 01d8 01       		.uleb128 0x1
 3050 01d9 12       		.uleb128 0x12
 3051 01da 06       		.uleb128 0x6
 3052 01db 40       		.uleb128 0x40
 3053 01dc 18       		.uleb128 0x18
 3054 01dd 9642     		.uleb128 0x2116
 3055 01df 19       		.uleb128 0x19
 3056 01e0 01       		.uleb128 0x1
 3057 01e1 13       		.uleb128 0x13
 3058 01e2 00       		.byte	0
 3059 01e3 00       		.byte	0
 3060 01e4 25       		.uleb128 0x25
 3061 01e5 05       		.uleb128 0x5
 3062 01e6 00       		.byte	0
 3063 01e7 03       		.uleb128 0x3
 3064 01e8 08       		.uleb128 0x8
 3065 01e9 3A       		.uleb128 0x3a
ARM GAS  /tmp/ccSf0MBz.s 			page 55


 3066 01ea 0B       		.uleb128 0xb
 3067 01eb 3B       		.uleb128 0x3b
 3068 01ec 05       		.uleb128 0x5
 3069 01ed 49       		.uleb128 0x49
 3070 01ee 13       		.uleb128 0x13
 3071 01ef 02       		.uleb128 0x2
 3072 01f0 18       		.uleb128 0x18
 3073 01f1 00       		.byte	0
 3074 01f2 00       		.byte	0
 3075 01f3 26       		.uleb128 0x26
 3076 01f4 05       		.uleb128 0x5
 3077 01f5 00       		.byte	0
 3078 01f6 03       		.uleb128 0x3
 3079 01f7 0E       		.uleb128 0xe
 3080 01f8 3A       		.uleb128 0x3a
 3081 01f9 0B       		.uleb128 0xb
 3082 01fa 3B       		.uleb128 0x3b
 3083 01fb 05       		.uleb128 0x5
 3084 01fc 49       		.uleb128 0x49
 3085 01fd 13       		.uleb128 0x13
 3086 01fe 02       		.uleb128 0x2
 3087 01ff 18       		.uleb128 0x18
 3088 0200 00       		.byte	0
 3089 0201 00       		.byte	0
 3090 0202 27       		.uleb128 0x27
 3091 0203 34       		.uleb128 0x34
 3092 0204 00       		.byte	0
 3093 0205 03       		.uleb128 0x3
 3094 0206 0E       		.uleb128 0xe
 3095 0207 3A       		.uleb128 0x3a
 3096 0208 0B       		.uleb128 0xb
 3097 0209 3B       		.uleb128 0x3b
 3098 020a 0B       		.uleb128 0xb
 3099 020b 49       		.uleb128 0x49
 3100 020c 13       		.uleb128 0x13
 3101 020d 02       		.uleb128 0x2
 3102 020e 18       		.uleb128 0x18
 3103 020f 00       		.byte	0
 3104 0210 00       		.byte	0
 3105 0211 28       		.uleb128 0x28
 3106 0212 34       		.uleb128 0x34
 3107 0213 00       		.byte	0
 3108 0214 03       		.uleb128 0x3
 3109 0215 0E       		.uleb128 0xe
 3110 0216 3A       		.uleb128 0x3a
 3111 0217 0B       		.uleb128 0xb
 3112 0218 3B       		.uleb128 0x3b
 3113 0219 05       		.uleb128 0x5
 3114 021a 49       		.uleb128 0x49
 3115 021b 13       		.uleb128 0x13
 3116 021c 3F       		.uleb128 0x3f
 3117 021d 19       		.uleb128 0x19
 3118 021e 3C       		.uleb128 0x3c
 3119 021f 19       		.uleb128 0x19
 3120 0220 00       		.byte	0
 3121 0221 00       		.byte	0
 3122 0222 29       		.uleb128 0x29
ARM GAS  /tmp/ccSf0MBz.s 			page 56


 3123 0223 34       		.uleb128 0x34
 3124 0224 00       		.byte	0
 3125 0225 03       		.uleb128 0x3
 3126 0226 08       		.uleb128 0x8
 3127 0227 3A       		.uleb128 0x3a
 3128 0228 0B       		.uleb128 0xb
 3129 0229 3B       		.uleb128 0x3b
 3130 022a 0B       		.uleb128 0xb
 3131 022b 49       		.uleb128 0x49
 3132 022c 13       		.uleb128 0x13
 3133 022d 3F       		.uleb128 0x3f
 3134 022e 19       		.uleb128 0x19
 3135 022f 02       		.uleb128 0x2
 3136 0230 18       		.uleb128 0x18
 3137 0231 00       		.byte	0
 3138 0232 00       		.byte	0
 3139 0233 00       		.byte	0
 3140              		.section	.debug_aranges,"",%progbits
 3141 0000 5C000000 		.4byte	0x5c
 3142 0004 0200     		.2byte	0x2
 3143 0006 00000000 		.4byte	.Ldebug_info0
 3144 000a 04       		.byte	0x4
 3145 000b 00       		.byte	0
 3146 000c 0000     		.2byte	0
 3147 000e 0000     		.2byte	0
 3148 0010 00000000 		.4byte	.LFB118
 3149 0014 9A000000 		.4byte	.LFE118-.LFB118
 3150 0018 00000000 		.4byte	.LFB119
 3151 001c 1A000000 		.4byte	.LFE119-.LFB119
 3152 0020 00000000 		.4byte	.LFB120
 3153 0024 72000000 		.4byte	.LFE120-.LFB120
 3154 0028 00000000 		.4byte	.LFB121
 3155 002c 56010000 		.4byte	.LFE121-.LFB121
 3156 0030 00000000 		.4byte	.LFB122
 3157 0034 24000000 		.4byte	.LFE122-.LFB122
 3158 0038 00000000 		.4byte	.LFB123
 3159 003c 1C000000 		.4byte	.LFE123-.LFB123
 3160 0040 00000000 		.4byte	.LFB124
 3161 0044 2C000000 		.4byte	.LFE124-.LFB124
 3162 0048 00000000 		.4byte	.LFB125
 3163 004c 5C000000 		.4byte	.LFE125-.LFB125
 3164 0050 00000000 		.4byte	.LFB126
 3165 0054 4C000000 		.4byte	.LFE126-.LFB126
 3166 0058 00000000 		.4byte	0
 3167 005c 00000000 		.4byte	0
 3168              		.section	.debug_ranges,"",%progbits
 3169              	.Ldebug_ranges0:
 3170 0000 00000000 		.4byte	.LFB118
 3171 0004 9A000000 		.4byte	.LFE118
 3172 0008 00000000 		.4byte	.LFB119
 3173 000c 1A000000 		.4byte	.LFE119
 3174 0010 00000000 		.4byte	.LFB120
 3175 0014 72000000 		.4byte	.LFE120
 3176 0018 00000000 		.4byte	.LFB121
 3177 001c 56010000 		.4byte	.LFE121
 3178 0020 00000000 		.4byte	.LFB122
 3179 0024 24000000 		.4byte	.LFE122
ARM GAS  /tmp/ccSf0MBz.s 			page 57


 3180 0028 00000000 		.4byte	.LFB123
 3181 002c 1C000000 		.4byte	.LFE123
 3182 0030 00000000 		.4byte	.LFB124
 3183 0034 2C000000 		.4byte	.LFE124
 3184 0038 00000000 		.4byte	.LFB125
 3185 003c 5C000000 		.4byte	.LFE125
 3186 0040 00000000 		.4byte	.LFB126
 3187 0044 4C000000 		.4byte	.LFE126
 3188 0048 00000000 		.4byte	0
 3189 004c 00000000 		.4byte	0
 3190              		.section	.debug_line,"",%progbits
 3191              	.Ldebug_line0:
 3192 0000 10030000 		.section	.debug_str,"MS",%progbits,1
 3192      02000D02 
 3192      00000201 
 3192      FB0E0D00 
 3192      01010101 
 3193              	.LASF2:
 3194 0000 73697A65 		.ascii	"size_t\000"
 3194      5F7400
 3195              	.LASF138:
 3196 0007 54494D38 		.ascii	"TIM8_UP_TIM13_IRQn\000"
 3196      5F55505F 
 3196      54494D31 
 3196      335F4952 
 3196      516E00
 3197              	.LASF57:
 3198 001a 73697A65 		.ascii	"sizetype\000"
 3198      74797065 
 3198      00
 3199              	.LASF29:
 3200 0023 73797374 		.ascii	"systime_t\000"
 3200      696D655F 
 3200      7400
 3201              	.LASF202:
 3202 002d 504C4C49 		.ascii	"PLLI2SCFGR\000"
 3202      32534346 
 3202      475200
 3203              	.LASF34:
 3204 0038 705F6374 		.ascii	"p_ctx\000"
 3204      7800
 3205              	.LASF25:
 3206 003e 74707269 		.ascii	"tprio_t\000"
 3206      6F5F7400 
 3207              	.LASF45:
 3208 0046 705F6D73 		.ascii	"p_msgqueue\000"
 3208      67717565 
 3208      756500
 3209              	.LASF17:
 3210 0051 696E7433 		.ascii	"int32_t\000"
 3210      325F7400 
 3211              	.LASF219:
 3212 0059 53657269 		.ascii	"SerialConfig\000"
 3212      616C436F 
 3212      6E666967 
 3212      00
 3213              	.LASF225:
ARM GAS  /tmp/ccSf0MBz.s 			page 58


 3214 0066 77726974 		.ascii	"writet\000"
 3214      657400
 3215              	.LASF206:
 3216 006d 47545052 		.ascii	"GTPR\000"
 3216      00
 3217              	.LASF221:
 3218 0072 77726974 		.ascii	"write\000"
 3218      6500
 3219              	.LASF151:
 3220 0078 444D4132 		.ascii	"DMA2_Stream1_IRQn\000"
 3220      5F537472 
 3220      65616D31 
 3220      5F495251 
 3220      6E00
 3221              	.LASF233:
 3222 008a 56656374 		.ascii	"VectorD8\000"
 3222      6F724438 
 3222      00
 3223              	.LASF145:
 3224 0093 53504933 		.ascii	"SPI3_IRQn\000"
 3224      5F495251 
 3224      6E00
 3225              	.LASF98:
 3226 009d 464C4153 		.ascii	"FLASH_IRQn\000"
 3226      485F4952 
 3226      516E00
 3227              	.LASF172:
 3228 00a8 44434D49 		.ascii	"DCMI_IRQn\000"
 3228      5F495251 
 3228      6E00
 3229              	.LASF66:
 3230 00b2 656C5F66 		.ascii	"el_flags\000"
 3230      6C616773 
 3230      00
 3231              	.LASF227:
 3232 00bb 636F6E66 		.ascii	"config\000"
 3232      696700
 3233              	.LASF214:
 3234 00c2 73746174 		.ascii	"state\000"
 3234      6500
 3235              	.LASF223:
 3236 00c8 70757474 		.ascii	"putt\000"
 3236      00
 3237              	.LASF122:
 3238 00cd 54494D32 		.ascii	"TIM2_IRQn\000"
 3238      5F495251 
 3238      6E00
 3239              	.LASF231:
 3240 00d7 73657276 		.ascii	"serve_interrupt\000"
 3240      655F696E 
 3240      74657272 
 3240      75707400 
 3241              	.LASF230:
 3242 00e7 7365745F 		.ascii	"set_error\000"
 3242      6572726F 
 3242      7200
 3243              	.LASF158:
ARM GAS  /tmp/ccSf0MBz.s 			page 59


 3244 00f1 43414E32 		.ascii	"CAN2_RX0_IRQn\000"
 3244      5F525830 
 3244      5F495251 
 3244      6E00
 3245              	.LASF165:
 3246 00ff 55534152 		.ascii	"USART6_IRQn\000"
 3246      54365F49 
 3246      52516E00 
 3247              	.LASF60:
 3248 010b 6D5F6F77 		.ascii	"m_owner\000"
 3248      6E657200 
 3249              	.LASF70:
 3250 0113 65786974 		.ascii	"exitcode\000"
 3250      636F6465 
 3250      00
 3251              	.LASF3:
 3252 011c 5F5F7569 		.ascii	"__uint8_t\000"
 3252      6E74385F 
 3252      7400
 3253              	.LASF170:
 3254 0126 4F54475F 		.ascii	"OTG_HS_WKUP_IRQn\000"
 3254      48535F57 
 3254      4B55505F 
 3254      4952516E 
 3254      00
 3255              	.LASF78:
 3256 0137 715F746F 		.ascii	"q_top\000"
 3256      7000
 3257              	.LASF72:
 3258 013d 65776D61 		.ascii	"ewmask\000"
 3258      736B00
 3259              	.LASF137:
 3260 0144 54494D38 		.ascii	"TIM8_BRK_TIM12_IRQn\000"
 3260      5F42524B 
 3260      5F54494D 
 3260      31325F49 
 3260      52516E00 
 3261              	.LASF193:
 3262 0158 41484232 		.ascii	"AHB2LPENR\000"
 3262      4C50454E 
 3262      5200
 3263              	.LASF226:
 3264 0162 72656164 		.ascii	"readt\000"
 3264      7400
 3265              	.LASF235:
 3266 0168 73645F6C 		.ascii	"sd_lld_start\000"
 3266      6C645F73 
 3266      74617274 
 3266      00
 3267              	.LASF77:
 3268 0175 715F6275 		.ascii	"q_buffer\000"
 3268      66666572 
 3268      00
 3269              	.LASF81:
 3270 017e 715F6E6F 		.ascii	"q_notify\000"
 3270      74696679 
 3270      00
ARM GAS  /tmp/ccSf0MBz.s 			page 60


 3271              	.LASF35:
 3272 0187 705F6E65 		.ascii	"p_newer\000"
 3272      77657200 
 3273              	.LASF9:
 3274 018f 6C6F6E67 		.ascii	"long int\000"
 3274      20696E74 
 3274      00
 3275              	.LASF31:
 3276 0198 705F6E65 		.ascii	"p_next\000"
 3276      787400
 3277              	.LASF80:
 3278 019f 715F7264 		.ascii	"q_rdptr\000"
 3278      70747200 
 3279              	.LASF32:
 3280 01a7 705F7072 		.ascii	"p_prev\000"
 3280      657600
 3281              	.LASF237:
 3282 01ae 64656661 		.ascii	"default_config\000"
 3282      756C745F 
 3282      636F6E66 
 3282      696700
 3283              	.LASF162:
 3284 01bd 444D4132 		.ascii	"DMA2_Stream5_IRQn\000"
 3284      5F537472 
 3284      65616D35 
 3284      5F495251 
 3284      6E00
 3285              	.LASF22:
 3286 01cf 74737461 		.ascii	"tstate_t\000"
 3286      74655F74 
 3286      00
 3287              	.LASF48:
 3288 01d8 705F6D74 		.ascii	"p_mtxlist\000"
 3288      786C6973 
 3288      7400
 3289              	.LASF120:
 3290 01e2 54494D31 		.ascii	"TIM1_TRG_COM_TIM11_IRQn\000"
 3290      5F545247 
 3290      5F434F4D 
 3290      5F54494D 
 3290      31315F49 
 3291              	.LASF216:
 3292 01fa 6F717565 		.ascii	"oqueue\000"
 3292      756500
 3293              	.LASF53:
 3294 0201 72656761 		.ascii	"regarm_t\000"
 3294      726D5F74 
 3294      00
 3295              	.LASF190:
 3296 020a 41504232 		.ascii	"APB2ENR\000"
 3296      454E5200 
 3297              	.LASF192:
 3298 0212 41484231 		.ascii	"AHB1LPENR\000"
 3298      4C50454E 
 3298      5200
 3299              	.LASF93:
 3300 021c 53797354 		.ascii	"SysTick_IRQn\000"
ARM GAS  /tmp/ccSf0MBz.s 			page 61


 3300      69636B5F 
 3300      4952516E 
 3300      00
 3301              	.LASF133:
 3302 0229 55534152 		.ascii	"USART3_IRQn\000"
 3302      54335F49 
 3302      52516E00 
 3303              	.LASF204:
 3304 0235 44434B43 		.ascii	"DCKCFGR\000"
 3304      46475200 
 3305              	.LASF217:
 3306 023d 75736172 		.ascii	"usart\000"
 3306      7400
 3307              	.LASF1:
 3308 0243 7369676E 		.ascii	"signed char\000"
 3308      65642063 
 3308      68617200 
 3309              	.LASF42:
 3310 024f 705F7072 		.ascii	"p_preempt\000"
 3310      65656D70 
 3310      7400
 3311              	.LASF15:
 3312 0259 75696E74 		.ascii	"uint8_t\000"
 3312      385F7400 
 3313              	.LASF27:
 3314 0261 6576656E 		.ascii	"eventmask_t\000"
 3314      746D6173 
 3314      6B5F7400 
 3315              	.LASF56:
 3316 026d 636F6E74 		.ascii	"context\000"
 3316      65787400 
 3317              	.LASF107:
 3318 0275 444D4131 		.ascii	"DMA1_Stream2_IRQn\000"
 3318      5F537472 
 3318      65616D32 
 3318      5F495251 
 3318      6E00
 3319              	.LASF181:
 3320 0287 52455345 		.ascii	"RESERVED0\000"
 3320      52564544 
 3320      3000
 3321              	.LASF184:
 3322 0291 52455345 		.ascii	"RESERVED1\000"
 3322      52564544 
 3322      3100
 3323              	.LASF4:
 3324 029b 756E7369 		.ascii	"unsigned char\000"
 3324      676E6564 
 3324      20636861 
 3324      7200
 3325              	.LASF154:
 3326 02a9 444D4132 		.ascii	"DMA2_Stream4_IRQn\000"
 3326      5F537472 
 3326      65616D34 
 3326      5F495251 
 3326      6E00
 3327              	.LASF195:
ARM GAS  /tmp/ccSf0MBz.s 			page 62


 3328 02bb 52455345 		.ascii	"RESERVED4\000"
 3328      52564544 
 3328      3400
 3329              	.LASF82:
 3330 02c5 715F6C69 		.ascii	"q_link\000"
 3330      6E6B00
 3331              	.LASF200:
 3332 02cc 52455345 		.ascii	"RESERVED6\000"
 3332      52564544 
 3332      3600
 3333              	.LASF126:
 3334 02d6 49324331 		.ascii	"I2C1_ER_IRQn\000"
 3334      5F45525F 
 3334      4952516E 
 3334      00
 3335              	.LASF160:
 3336 02e3 43414E32 		.ascii	"CAN2_SCE_IRQn\000"
 3336      5F534345 
 3336      5F495251 
 3336      6E00
 3337              	.LASF208:
 3338 02f1 53445F55 		.ascii	"SD_UNINIT\000"
 3338      4E494E49 
 3338      5400
 3339              	.LASF20:
 3340 02fb 5F426F6F 		.ascii	"_Bool\000"
 3340      6C00
 3341              	.LASF188:
 3342 0301 52455345 		.ascii	"RESERVED2\000"
 3342      52564544 
 3342      3200
 3343              	.LASF191:
 3344 030b 52455345 		.ascii	"RESERVED3\000"
 3344      52564544 
 3344      3300
 3345              	.LASF144:
 3346 0315 54494D35 		.ascii	"TIM5_IRQn\000"
 3346      5F495251 
 3346      6E00
 3347              	.LASF198:
 3348 031f 52455345 		.ascii	"RESERVED5\000"
 3348      52564544 
 3348      3500
 3349              	.LASF89:
 3350 0329 55736167 		.ascii	"UsageFault_IRQn\000"
 3350      65466175 
 3350      6C745F49 
 3350      52516E00 
 3351              	.LASF73:
 3352 0339 63686172 		.ascii	"char\000"
 3352      00
 3353              	.LASF178:
 3354 033e 41484231 		.ascii	"AHB1RSTR\000"
 3354      52535452 
 3354      00
 3355              	.LASF33:
 3356 0347 705F7072 		.ascii	"p_prio\000"
ARM GAS  /tmp/ccSf0MBz.s 			page 63


 3356      696F00
 3357              	.LASF6:
 3358 034e 5F5F7569 		.ascii	"__uint16_t\000"
 3358      6E743136 
 3358      5F7400
 3359              	.LASF186:
 3360 0359 41484232 		.ascii	"AHB2ENR\000"
 3360      454E5200 
 3361              	.LASF74:
 3362 0361 47656E65 		.ascii	"GenericQueue\000"
 3362      72696351 
 3362      75657565 
 3362      00
 3363              	.LASF71:
 3364 036e 77746F62 		.ascii	"wtobjp\000"
 3364      6A7000
 3365              	.LASF114:
 3366 0375 43414E31 		.ascii	"CAN1_RX0_IRQn\000"
 3366      5F525830 
 3366      5F495251 
 3366      6E00
 3367              	.LASF224:
 3368 0383 67657474 		.ascii	"gett\000"
 3368      00
 3369              	.LASF54:
 3370 0388 73746B61 		.ascii	"stkalign_t\000"
 3370      6C69676E 
 3370      5F7400
 3371              	.LASF207:
 3372 0393 55534152 		.ascii	"USART_TypeDef\000"
 3372      545F5479 
 3372      70654465 
 3372      6600
 3373              	.LASF85:
 3374 03a1 4F757470 		.ascii	"OutputQueue\000"
 3374      75745175 
 3374      65756500 
 3375              	.LASF124:
 3376 03ad 54494D34 		.ascii	"TIM4_IRQn\000"
 3376      5F495251 
 3376      6E00
 3377              	.LASF132:
 3378 03b7 55534152 		.ascii	"USART2_IRQn\000"
 3378      54325F49 
 3378      52516E00 
 3379              	.LASF199:
 3380 03c3 42444352 		.ascii	"BDCR\000"
 3380      00
 3381              	.LASF125:
 3382 03c8 49324331 		.ascii	"I2C1_EV_IRQn\000"
 3382      5F45565F 
 3382      4952516E 
 3382      00
 3383              	.LASF55:
 3384 03d5 696E7463 		.ascii	"intctx\000"
 3384      747800
 3385              	.LASF218:
ARM GAS  /tmp/ccSf0MBz.s 			page 64


 3386 03dc 73706565 		.ascii	"speed\000"
 3386      6400
 3387              	.LASF47:
 3388 03e2 705F6570 		.ascii	"p_epending\000"
 3388      656E6469 
 3388      6E6700
 3389              	.LASF177:
 3390 03ed 43464752 		.ascii	"CFGR\000"
 3390      00
 3391              	.LASF121:
 3392 03f2 54494D31 		.ascii	"TIM1_CC_IRQn\000"
 3392      5F43435F 
 3392      4952516E 
 3392      00
 3393              	.LASF174:
 3394 03ff 48415348 		.ascii	"HASH_RNG_IRQn\000"
 3394      5F524E47 
 3394      5F495251 
 3394      6E00
 3395              	.LASF101:
 3396 040d 45585449 		.ascii	"EXTI1_IRQn\000"
 3396      315F4952 
 3396      516E00
 3397              	.LASF113:
 3398 0418 43414E31 		.ascii	"CAN1_TX_IRQn\000"
 3398      5F54585F 
 3398      4952516E 
 3398      00
 3399              	.LASF110:
 3400 0425 444D4131 		.ascii	"DMA1_Stream5_IRQn\000"
 3400      5F537472 
 3400      65616D35 
 3400      5F495251 
 3400      6E00
 3401              	.LASF139:
 3402 0437 54494D38 		.ascii	"TIM8_TRG_COM_TIM14_IRQn\000"
 3402      5F545247 
 3402      5F434F4D 
 3402      5F54494D 
 3402      31345F49 
 3403              	.LASF68:
 3404 044f 65735F6E 		.ascii	"es_next\000"
 3404      65787400 
 3405              	.LASF76:
 3406 0457 715F636F 		.ascii	"q_counter\000"
 3406      756E7465 
 3406      7200
 3407              	.LASF161:
 3408 0461 4F54475F 		.ascii	"OTG_FS_IRQn\000"
 3408      46535F49 
 3408      52516E00 
 3409              	.LASF86:
 3410 046d 4E6F6E4D 		.ascii	"NonMaskableInt_IRQn\000"
 3410      61736B61 
 3410      626C6549 
 3410      6E745F49 
 3410      52516E00 
ARM GAS  /tmp/ccSf0MBz.s 			page 65


 3411              	.LASF142:
 3412 0481 46534D43 		.ascii	"FSMC_IRQn\000"
 3412      5F495251 
 3412      6E00
 3413              	.LASF67:
 3414 048b 4576656E 		.ascii	"EventSource\000"
 3414      74536F75 
 3414      72636500 
 3415              	.LASF13:
 3416 0497 5F5F7569 		.ascii	"__uint64_t\000"
 3416      6E743634 
 3416      5F7400
 3417              	.LASF94:
 3418 04a2 57574447 		.ascii	"WWDG_IRQn\000"
 3418      5F495251 
 3418      6E00
 3419              	.LASF11:
 3420 04ac 6C6F6E67 		.ascii	"long unsigned int\000"
 3420      20756E73 
 3420      69676E65 
 3420      6420696E 
 3420      7400
 3421              	.LASF87:
 3422 04be 4D656D6F 		.ascii	"MemoryManagement_IRQn\000"
 3422      72794D61 
 3422      6E616765 
 3422      6D656E74 
 3422      5F495251 
 3423              	.LASF241:
 3424 04d4 2F686F6D 		.ascii	"/home/ece497/vbox-shared/mplayer/ChibiOS-RT-stable_"
 3424      652F6563 
 3424      65343937 
 3424      2F76626F 
 3424      782D7368 
 3425 0507 322E362E 		.ascii	"2.6.x/demos/SDCARD\000"
 3425      782F6465 
 3425      6D6F732F 
 3425      53444341 
 3425      524400
 3426              	.LASF96:
 3427 051a 54414D50 		.ascii	"TAMP_STAMP_IRQn\000"
 3427      5F535441 
 3427      4D505F49 
 3427      52516E00 
 3428              	.LASF116:
 3429 052a 43414E31 		.ascii	"CAN1_SCE_IRQn\000"
 3429      5F534345 
 3429      5F495251 
 3429      6E00
 3430              	.LASF63:
 3431 0538 656C5F6E 		.ascii	"el_next\000"
 3431      65787400 
 3432              	.LASF79:
 3433 0540 715F7772 		.ascii	"q_wrptr\000"
 3433      70747200 
 3434              	.LASF240:
 3435 0548 2E2E2F2E 		.ascii	"../..//os/hal/platforms/STM32/USARTv1/serial_lld.c\000"
ARM GAS  /tmp/ccSf0MBz.s 			page 66


 3435      2E2F2F6F 
 3435      732F6861 
 3435      6C2F706C 
 3435      6174666F 
 3436              	.LASF220:
 3437 057b 53657269 		.ascii	"SerialDriverVMT\000"
 3437      616C4472 
 3437      69766572 
 3437      564D5400 
 3438              	.LASF229:
 3439 058b 75736172 		.ascii	"usart_deinit\000"
 3439      745F6465 
 3439      696E6974 
 3439      00
 3440              	.LASF128:
 3441 0598 49324332 		.ascii	"I2C2_ER_IRQn\000"
 3441      5F45525F 
 3441      4952516E 
 3441      00
 3442              	.LASF88:
 3443 05a5 42757346 		.ascii	"BusFault_IRQn\000"
 3443      61756C74 
 3443      5F495251 
 3443      6E00
 3444              	.LASF234:
 3445 05b3 73645F6C 		.ascii	"sd_lld_init\000"
 3445      6C645F69 
 3445      6E697400 
 3446              	.LASF176:
 3447 05bf 504C4C43 		.ascii	"PLLCFGR\000"
 3447      46475200 
 3448              	.LASF147:
 3449 05c7 55415254 		.ascii	"UART5_IRQn\000"
 3449      355F4952 
 3449      516E00
 3450              	.LASF118:
 3451 05d2 54494D31 		.ascii	"TIM1_BRK_TIM9_IRQn\000"
 3451      5F42524B 
 3451      5F54494D 
 3451      395F4952 
 3451      516E00
 3452              	.LASF10:
 3453 05e5 5F5F7569 		.ascii	"__uint32_t\000"
 3453      6E743332 
 3453      5F7400
 3454              	.LASF58:
 3455 05f0 4D757465 		.ascii	"Mutex\000"
 3455      7800
 3456              	.LASF149:
 3457 05f6 54494D37 		.ascii	"TIM7_IRQn\000"
 3457      5F495251 
 3457      6E00
 3458              	.LASF12:
 3459 0600 6C6F6E67 		.ascii	"long long int\000"
 3459      206C6F6E 
 3459      6720696E 
 3459      7400
ARM GAS  /tmp/ccSf0MBz.s 			page 67


 3460              	.LASF156:
 3461 060e 4554485F 		.ascii	"ETH_WKUP_IRQn\000"
 3461      574B5550 
 3461      5F495251 
 3461      6E00
 3462              	.LASF130:
 3463 061c 53504932 		.ascii	"SPI2_IRQn\000"
 3463      5F495251 
 3463      6E00
 3464              	.LASF171:
 3465 0626 4F54475F 		.ascii	"OTG_HS_IRQn\000"
 3465      48535F49 
 3465      52516E00 
 3466              	.LASF59:
 3467 0632 6D5F7175 		.ascii	"m_queue\000"
 3467      65756500 
 3468              	.LASF201:
 3469 063a 53534347 		.ascii	"SSCGR\000"
 3469      5200
 3470              	.LASF129:
 3471 0640 53504931 		.ascii	"SPI1_IRQn\000"
 3471      5F495251 
 3471      6E00
 3472              	.LASF90:
 3473 064a 53564361 		.ascii	"SVCall_IRQn\000"
 3473      6C6C5F49 
 3473      52516E00 
 3474              	.LASF183:
 3475 0656 41504232 		.ascii	"APB2RSTR\000"
 3475      52535452 
 3475      00
 3476              	.LASF175:
 3477 065f 4650555F 		.ascii	"FPU_IRQn\000"
 3477      4952516E 
 3477      00
 3478              	.LASF146:
 3479 0668 55415254 		.ascii	"UART4_IRQn\000"
 3479      345F4952 
 3479      516E00
 3480              	.LASF197:
 3481 0673 41504232 		.ascii	"APB2LPENR\000"
 3481      4C50454E 
 3481      5200
 3482              	.LASF83:
 3483 067d 716E6F74 		.ascii	"qnotify_t\000"
 3483      6966795F 
 3483      7400
 3484              	.LASF44:
 3485 0687 705F7761 		.ascii	"p_waiting\000"
 3485      6974696E 
 3485      6700
 3486              	.LASF150:
 3487 0691 444D4132 		.ascii	"DMA2_Stream0_IRQn\000"
 3487      5F537472 
 3487      65616D30 
 3487      5F495251 
 3487      6E00
ARM GAS  /tmp/ccSf0MBz.s 			page 68


 3488              	.LASF213:
 3489 06a3 6576656E 		.ascii	"event\000"
 3489      7400
 3490              	.LASF136:
 3491 06a9 4F54475F 		.ascii	"OTG_FS_WKUP_IRQn\000"
 3491      46535F57 
 3491      4B55505F 
 3491      4952516E 
 3491      00
 3492              	.LASF40:
 3493 06ba 705F666C 		.ascii	"p_flags\000"
 3493      61677300 
 3494              	.LASF222:
 3495 06c2 72656164 		.ascii	"read\000"
 3495      00
 3496              	.LASF0:
 3497 06c7 756E7369 		.ascii	"unsigned int\000"
 3497      676E6564 
 3497      20696E74 
 3497      00
 3498              	.LASF148:
 3499 06d4 54494D36 		.ascii	"TIM6_DAC_IRQn\000"
 3499      5F444143 
 3499      5F495251 
 3499      6E00
 3500              	.LASF50:
 3501 06e2 705F6D70 		.ascii	"p_mpool\000"
 3501      6F6F6C00 
 3502              	.LASF127:
 3503 06ea 49324332 		.ascii	"I2C2_EV_IRQn\000"
 3503      5F45565F 
 3503      4952516E 
 3503      00
 3504              	.LASF41:
 3505 06f7 705F7265 		.ascii	"p_refs\000"
 3505      667300
 3506              	.LASF52:
 3507 06fe 54687265 		.ascii	"ThreadsList\000"
 3507      6164734C 
 3507      69737400 
 3508              	.LASF196:
 3509 070a 41504231 		.ascii	"APB1LPENR\000"
 3509      4C50454E 
 3509      5200
 3510              	.LASF106:
 3511 0714 444D4131 		.ascii	"DMA1_Stream1_IRQn\000"
 3511      5F537472 
 3511      65616D31 
 3511      5F495251 
 3511      6E00
 3512              	.LASF28:
 3513 0726 666C6167 		.ascii	"flagsmask_t\000"
 3513      736D6173 
 3513      6B5F7400 
 3514              	.LASF153:
 3515 0732 444D4132 		.ascii	"DMA2_Stream3_IRQn\000"
 3515      5F537472 
ARM GAS  /tmp/ccSf0MBz.s 			page 69


 3515      65616D33 
 3515      5F495251 
 3515      6E00
 3516              	.LASF157:
 3517 0744 43414E32 		.ascii	"CAN2_TX_IRQn\000"
 3517      5F54585F 
 3517      4952516E 
 3517      00
 3518              	.LASF43:
 3519 0751 705F7469 		.ascii	"p_time\000"
 3519      6D6500
 3520              	.LASF242:
 3521 0758 4952516E 		.ascii	"IRQn\000"
 3521      00
 3522              	.LASF111:
 3523 075d 444D4131 		.ascii	"DMA1_Stream6_IRQn\000"
 3523      5F537472 
 3523      65616D36 
 3523      5F495251 
 3523      6E00
 3524              	.LASF180:
 3525 076f 41484233 		.ascii	"AHB3RSTR\000"
 3525      52535452 
 3525      00
 3526              	.LASF49:
 3527 0778 705F7265 		.ascii	"p_realprio\000"
 3527      616C7072 
 3527      696F00
 3528              	.LASF164:
 3529 0783 444D4132 		.ascii	"DMA2_Stream7_IRQn\000"
 3529      5F537472 
 3529      65616D37 
 3529      5F495251 
 3529      6E00
 3530              	.LASF105:
 3531 0795 444D4131 		.ascii	"DMA1_Stream0_IRQn\000"
 3531      5F537472 
 3531      65616D30 
 3531      5F495251 
 3531      6E00
 3532              	.LASF182:
 3533 07a7 41504231 		.ascii	"APB1RSTR\000"
 3533      52535452 
 3533      00
 3534              	.LASF228:
 3535 07b0 75736172 		.ascii	"usart_init\000"
 3535      745F696E 
 3535      697400
 3536              	.LASF135:
 3537 07bb 5254435F 		.ascii	"RTC_Alarm_IRQn\000"
 3537      416C6172 
 3537      6D5F4952 
 3537      516E00
 3538              	.LASF189:
 3539 07ca 41504231 		.ascii	"APB1ENR\000"
 3539      454E5200 
 3540              	.LASF167:
ARM GAS  /tmp/ccSf0MBz.s 			page 70


 3541 07d2 49324333 		.ascii	"I2C3_ER_IRQn\000"
 3541      5F45525F 
 3541      4952516E 
 3541      00
 3542              	.LASF173:
 3543 07df 43525950 		.ascii	"CRYP_IRQn\000"
 3543      5F495251 
 3543      6E00
 3544              	.LASF134:
 3545 07e9 45585449 		.ascii	"EXTI15_10_IRQn\000"
 3545      31355F31 
 3545      305F4952 
 3545      516E00
 3546              	.LASF14:
 3547 07f8 6C6F6E67 		.ascii	"long long unsigned int\000"
 3547      206C6F6E 
 3547      6720756E 
 3547      7369676E 
 3547      65642069 
 3548              	.LASF36:
 3549 080f 705F6F6C 		.ascii	"p_older\000"
 3549      64657200 
 3550              	.LASF16:
 3551 0817 75696E74 		.ascii	"uint16_t\000"
 3551      31365F74 
 3551      00
 3552              	.LASF26:
 3553 0820 6D73675F 		.ascii	"msg_t\000"
 3553      7400
 3554              	.LASF123:
 3555 0826 54494D33 		.ascii	"TIM3_IRQn\000"
 3555      5F495251 
 3555      6E00
 3556              	.LASF131:
 3557 0830 55534152 		.ascii	"USART1_IRQn\000"
 3557      54315F49 
 3557      52516E00 
 3558              	.LASF24:
 3559 083c 74736C69 		.ascii	"tslices_t\000"
 3559      6365735F 
 3559      7400
 3560              	.LASF102:
 3561 0846 45585449 		.ascii	"EXTI2_IRQn\000"
 3561      325F4952 
 3561      516E00
 3562              	.LASF159:
 3563 0851 43414E32 		.ascii	"CAN2_RX1_IRQn\000"
 3563      5F525831 
 3563      5F495251 
 3563      6E00
 3564              	.LASF112:
 3565 085f 4144435F 		.ascii	"ADC_IRQn\000"
 3565      4952516E 
 3565      00
 3566              	.LASF194:
 3567 0868 41484233 		.ascii	"AHB3LPENR\000"
 3567      4C50454E 
ARM GAS  /tmp/ccSf0MBz.s 			page 71


 3567      5200
 3568              	.LASF95:
 3569 0872 5056445F 		.ascii	"PVD_IRQn\000"
 3569      4952516E 
 3569      00
 3570              	.LASF212:
 3571 087b 53657269 		.ascii	"SerialDriver\000"
 3571      616C4472 
 3571      69766572 
 3571      00
 3572              	.LASF75:
 3573 0888 715F7761 		.ascii	"q_waiting\000"
 3573      6974696E 
 3573      6700
 3574              	.LASF100:
 3575 0892 45585449 		.ascii	"EXTI0_IRQn\000"
 3575      305F4952 
 3575      516E00
 3576              	.LASF21:
 3577 089d 746D6F64 		.ascii	"tmode_t\000"
 3577      655F7400 
 3578              	.LASF109:
 3579 08a5 444D4131 		.ascii	"DMA1_Stream4_IRQn\000"
 3579      5F537472 
 3579      65616D34 
 3579      5F495251 
 3579      6E00
 3580              	.LASF211:
 3581 08b7 73647374 		.ascii	"sdstate_t\000"
 3581      6174655F 
 3581      7400
 3582              	.LASF163:
 3583 08c1 444D4132 		.ascii	"DMA2_Stream6_IRQn\000"
 3583      5F537472 
 3583      65616D36 
 3583      5F495251 
 3583      6E00
 3584              	.LASF185:
 3585 08d3 41484231 		.ascii	"AHB1ENR\000"
 3585      454E5200 
 3586              	.LASF91:
 3587 08db 44656275 		.ascii	"DebugMonitor_IRQn\000"
 3587      674D6F6E 
 3587      69746F72 
 3587      5F495251 
 3587      6E00
 3588              	.LASF210:
 3589 08ed 53445F52 		.ascii	"SD_READY\000"
 3589      45414459 
 3589      00
 3590              	.LASF166:
 3591 08f6 49324333 		.ascii	"I2C3_EV_IRQn\000"
 3591      5F45565F 
 3591      4952516E 
 3591      00
 3592              	.LASF179:
 3593 0903 41484232 		.ascii	"AHB2RSTR\000"
ARM GAS  /tmp/ccSf0MBz.s 			page 72


 3593      52535452 
 3593      00
 3594              	.LASF155:
 3595 090c 4554485F 		.ascii	"ETH_IRQn\000"
 3595      4952516E 
 3595      00
 3596              	.LASF232:
 3597 0915 6E6F7469 		.ascii	"notify2\000"
 3597      66793200 
 3598              	.LASF205:
 3599 091d 5243435F 		.ascii	"RCC_TypeDef\000"
 3599      54797065 
 3599      44656600 
 3600              	.LASF5:
 3601 0929 73686F72 		.ascii	"short int\000"
 3601      7420696E 
 3601      7400
 3602              	.LASF19:
 3603 0933 75696E74 		.ascii	"uint64_t\000"
 3603      36345F74 
 3603      00
 3604              	.LASF99:
 3605 093c 5243435F 		.ascii	"RCC_IRQn\000"
 3605      4952516E 
 3605      00
 3606              	.LASF215:
 3607 0945 69717565 		.ascii	"iqueue\000"
 3607      756500
 3608              	.LASF108:
 3609 094c 444D4131 		.ascii	"DMA1_Stream3_IRQn\000"
 3609      5F537472 
 3609      65616D33 
 3609      5F495251 
 3609      6E00
 3610              	.LASF30:
 3611 095e 54687265 		.ascii	"Thread\000"
 3611      616400
 3612              	.LASF119:
 3613 0965 54494D31 		.ascii	"TIM1_UP_TIM10_IRQn\000"
 3613      5F55505F 
 3613      54494D31 
 3613      305F4952 
 3613      516E00
 3614              	.LASF238:
 3615 0978 49544D5F 		.ascii	"ITM_RxBuffer\000"
 3615      52784275 
 3615      66666572 
 3615      00
 3616              	.LASF23:
 3617 0985 74726566 		.ascii	"trefs_t\000"
 3617      735F7400 
 3618              	.LASF168:
 3619 098d 4F54475F 		.ascii	"OTG_HS_EP1_OUT_IRQn\000"
 3619      48535F45 
 3619      50315F4F 
 3619      55545F49 
 3619      52516E00 
ARM GAS  /tmp/ccSf0MBz.s 			page 73


 3620              	.LASF97:
 3621 09a1 5254435F 		.ascii	"RTC_WKUP_IRQn\000"
 3621      574B5550 
 3621      5F495251 
 3621      6E00
 3622              	.LASF62:
 3623 09af 4576656E 		.ascii	"EventListener\000"
 3623      744C6973 
 3623      74656E65 
 3623      7200
 3624              	.LASF18:
 3625 09bd 75696E74 		.ascii	"uint32_t\000"
 3625      33325F74 
 3625      00
 3626              	.LASF239:
 3627 09c6 474E5520 		.ascii	"GNU C 4.8.2 -mcpu=cortex-m4 -mno-thumb-interwork -m"
 3627      4320342E 
 3627      382E3220 
 3627      2D6D6370 
 3627      753D636F 
 3628 09f9 7468756D 		.ascii	"thumb -ggdb -O0 -fomit-frame-pointer -falign-functi"
 3628      62202D67 
 3628      67646220 
 3628      2D4F3020 
 3628      2D666F6D 
 3629 0a2c 6F6E733D 		.ascii	"ons=16 -ffunction-sections -fdata-sections -fno-com"
 3629      3136202D 
 3629      6666756E 
 3629      6374696F 
 3629      6E2D7365 
 3630 0a5f 6D6F6E00 		.ascii	"mon\000"
 3631              	.LASF115:
 3632 0a63 43414E31 		.ascii	"CAN1_RX1_IRQn\000"
 3632      5F525831 
 3632      5F495251 
 3632      6E00
 3633              	.LASF51:
 3634 0a71 54687265 		.ascii	"ThreadsQueue\000"
 3634      61647351 
 3634      75657565 
 3634      00
 3635              	.LASF117:
 3636 0a7e 45585449 		.ascii	"EXTI9_5_IRQn\000"
 3636      395F355F 
 3636      4952516E 
 3636      00
 3637              	.LASF203:
 3638 0a8b 504C4C53 		.ascii	"PLLSAICFGR\000"
 3638      41494346 
 3638      475200
 3639              	.LASF69:
 3640 0a96 7264796D 		.ascii	"rdymsg\000"
 3640      736700
 3641              	.LASF104:
 3642 0a9d 45585449 		.ascii	"EXTI4_IRQn\000"
 3642      345F4952 
 3642      516E00
ARM GAS  /tmp/ccSf0MBz.s 			page 74


 3643              	.LASF7:
 3644 0aa8 73686F72 		.ascii	"short unsigned int\000"
 3644      7420756E 
 3644      7369676E 
 3644      65642069 
 3644      6E7400
 3645              	.LASF236:
 3646 0abb 73645F6C 		.ascii	"sd_lld_stop\000"
 3646      6C645F73 
 3646      746F7000 
 3647              	.LASF140:
 3648 0ac7 54494D38 		.ascii	"TIM8_CC_IRQn\000"
 3648      5F43435F 
 3648      4952516E 
 3648      00
 3649              	.LASF143:
 3650 0ad4 5344494F 		.ascii	"SDIO_IRQn\000"
 3650      5F495251 
 3650      6E00
 3651              	.LASF84:
 3652 0ade 496E7075 		.ascii	"InputQueue\000"
 3652      74517565 
 3652      756500
 3653              	.LASF103:
 3654 0ae9 45585449 		.ascii	"EXTI3_IRQn\000"
 3654      335F4952 
 3654      516E00
 3655              	.LASF92:
 3656 0af4 50656E64 		.ascii	"PendSV_IRQn\000"
 3656      53565F49 
 3656      52516E00 
 3657              	.LASF169:
 3658 0b00 4F54475F 		.ascii	"OTG_HS_EP1_IN_IRQn\000"
 3658      48535F45 
 3658      50315F49 
 3658      4E5F4952 
 3658      516E00
 3659              	.LASF38:
 3660 0b13 705F7374 		.ascii	"p_stklimit\000"
 3660      6B6C696D 
 3660      697400
 3661              	.LASF141:
 3662 0b1e 444D4131 		.ascii	"DMA1_Stream7_IRQn\000"
 3662      5F537472 
 3662      65616D37 
 3662      5F495251 
 3662      6E00
 3663              	.LASF8:
 3664 0b30 5F5F696E 		.ascii	"__int32_t\000"
 3664      7433325F 
 3664      7400
 3665              	.LASF209:
 3666 0b3a 53445F53 		.ascii	"SD_STOP\000"
 3666      544F5000 
 3667              	.LASF65:
 3668 0b42 656C5F6D 		.ascii	"el_mask\000"
 3668      61736B00 
ARM GAS  /tmp/ccSf0MBz.s 			page 75


 3669              	.LASF37:
 3670 0b4a 705F6E61 		.ascii	"p_name\000"
 3670      6D6500
 3671              	.LASF61:
 3672 0b51 6D5F6E65 		.ascii	"m_next\000"
 3672      787400
 3673              	.LASF187:
 3674 0b58 41484233 		.ascii	"AHB3ENR\000"
 3674      454E5200 
 3675              	.LASF152:
 3676 0b60 444D4132 		.ascii	"DMA2_Stream2_IRQn\000"
 3676      5F537472 
 3676      65616D32 
 3676      5F495251 
 3676      6E00
 3677              	.LASF46:
 3678 0b72 705F6D73 		.ascii	"p_msg\000"
 3678      6700
 3679              	.LASF64:
 3680 0b78 656C5F6C 		.ascii	"el_listener\000"
 3680      69737465 
 3680      6E657200 
 3681              	.LASF39:
 3682 0b84 705F7374 		.ascii	"p_state\000"
 3682      61746500 
 3683              		.ident	"GCC: (Arch Repository) 4.8.2"
ARM GAS  /tmp/ccSf0MBz.s 			page 76


DEFINED SYMBOLS
                            *ABS*:0000000000000000 serial_lld.c
     /tmp/ccSf0MBz.s:23     .bss.SD2:0000000000000000 SD2
     /tmp/ccSf0MBz.s:20     .bss.SD2:0000000000000000 $d
     /tmp/ccSf0MBz.s:26     .rodata.default_config:0000000000000000 $d
     /tmp/ccSf0MBz.s:29     .rodata.default_config:0000000000000000 default_config
     /tmp/ccSf0MBz.s:36     .text.usart_init:0000000000000000 $t
     /tmp/ccSf0MBz.s:41     .text.usart_init:0000000000000000 usart_init
     /tmp/ccSf0MBz.s:133    .text.usart_deinit:0000000000000000 $t
     /tmp/ccSf0MBz.s:138    .text.usart_deinit:0000000000000000 usart_deinit
     /tmp/ccSf0MBz.s:168    .text.set_error:0000000000000000 $t
     /tmp/ccSf0MBz.s:173    .text.set_error:0000000000000000 set_error
     /tmp/ccSf0MBz.s:244    .text.serve_interrupt:0000000000000000 $t
     /tmp/ccSf0MBz.s:249    .text.serve_interrupt:0000000000000000 serve_interrupt
     /tmp/ccSf0MBz.s:469    .text.notify2:0000000000000000 $t
     /tmp/ccSf0MBz.s:474    .text.notify2:0000000000000000 notify2
     /tmp/ccSf0MBz.s:502    .text.VectorD8:0000000000000000 $t
     /tmp/ccSf0MBz.s:508    .text.VectorD8:0000000000000000 VectorD8
     /tmp/ccSf0MBz.s:533    .text.sd_lld_init:0000000000000000 $t
     /tmp/ccSf0MBz.s:539    .text.sd_lld_init:0000000000000000 sd_lld_init
     /tmp/ccSf0MBz.s:568    .text.sd_lld_start:0000000000000000 $t
     /tmp/ccSf0MBz.s:574    .text.sd_lld_start:0000000000000000 sd_lld_start
     /tmp/ccSf0MBz.s:632    .text.sd_lld_stop:0000000000000000 $t
     /tmp/ccSf0MBz.s:638    .text.sd_lld_stop:0000000000000000 sd_lld_stop
                     .debug_frame:0000000000000010 $d

UNDEFINED SYMBOLS
chEvtBroadcastFlagsI
dbg_check_lock_from_isr
dbg_check_unlock_from_isr
sdIncomingDataI
chOQGetI
dbg_check_enter_isr
dbg_check_leave_isr
_port_irq_epilogue
sdObjectInit
nvicEnableVector
nvicDisableVector
