ARM GAS  /tmp/ccSf0MBz.s 			page 1


   1              		.syntax unified
   2              		.cpu cortex-m4
   3              		.fpu softvfp
   4              		.eabi_attribute 20, 1
   5              		.eabi_attribute 21, 1
   6              		.eabi_attribute 23, 3
   7              		.eabi_attribute 24, 1
   8              		.eabi_attribute 25, 1
   9              		.eabi_attribute 26, 1
  10              		.eabi_attribute 30, 6
  11              		.eabi_attribute 34, 1
  12              		.eabi_attribute 18, 4
  13              		.thumb
  14              		.file	"serial_lld.c"
  15              		.text
  16              	.Ltext0:
  17              		.cfi_sections	.debug_frame
  18              		.global	SD2
  19              		.section	.bss.SD2,"aw",%nobits
  20              		.align	2
  21              		.type	SD2, %object
  22              		.size	SD2, 120
  23              	SD2:
  24 0000 00000000 		.space	120
  24      00000000 
  24      00000000 
  24      00000000 
  24      00000000 
  25              		.section	.rodata.default_config,"a",%progbits
  26              		.align	2
  27              		.type	default_config, %object
  28              		.size	default_config, 12
  29              	default_config:
  30 0000 00960000 		.word	38400
  31 0004 0000     		.short	0
  32 0006 0040     		.short	16384
  33 0008 0000     		.short	0
  34 000a 0000     		.space	2
  35              		.section	.text.usart_init,"ax",%progbits
  36              		.align	2
  37              		.p2align 4,,15
  38              		.thumb
  39              		.thumb_func
  40              		.type	usart_init, %function
  41              	usart_init:
  42              	.LFB118:
  43              		.file 1 "../..//os/hal/platforms/STM32/USARTv1/serial_lld.c"
  44              		.loc 1 92 0
  45              		.cfi_startproc
  46              		@ args = 0, pretend = 0, frame = 16
  47              		@ frame_needed = 0, uses_anonymous_args = 0
  48              		@ link register save eliminated.
  49 0000 84B0     		sub	sp, sp, #16
  50              		.cfi_def_cfa_offset 16
  51 0002 0190     		str	r0, [sp, #4]
  52 0004 0091     		str	r1, [sp]
  53              		.loc 1 93 0
ARM GAS  /tmp/ccSf0MBz.s 			page 2


  54 0006 019B     		ldr	r3, [sp, #4]
  55 0008 5B6F     		ldr	r3, [r3, #116]
  56 000a 0393     		str	r3, [sp, #12]
  57              		.loc 1 97 0
  58 000c 019B     		ldr	r3, [sp, #4]
  59 000e 5A6F     		ldr	r2, [r3, #116]
  60 0010 4FF48053 		mov	r3, #4096
  61 0014 C4F20103 		movt	r3, 16385
  62 0018 9A42     		cmp	r2, r3
  63 001a 07D0     		beq	.L2
  64              		.loc 1 97 0 is_stmt 0 discriminator 1
  65 001c 019B     		ldr	r3, [sp, #4]
  66 001e 5A6F     		ldr	r2, [r3, #116]
  67 0020 4FF4A053 		mov	r3, #5120
  68 0024 C4F20103 		movt	r3, 16385
  69 0028 9A42     		cmp	r2, r3
  70 002a 0BD1     		bne	.L3
  71              	.L2:
  72              		.loc 1 101 0 is_stmt 1
  73 002c 009B     		ldr	r3, [sp]
  74 002e 1A68     		ldr	r2, [r3]
  75 0030 4FF43D43 		mov	r3, #48384
  76 0034 C0F20153 		movt	r3, 1281
  77 0038 B3FBF2F3 		udiv	r3, r3, r2
  78 003c 9AB2     		uxth	r2, r3
  79 003e 039B     		ldr	r3, [sp, #12]
  80 0040 1A81     		strh	r2, [r3, #8]	@ movhi
  81 0042 0AE0     		b	.L4
  82              	.L3:
  83              		.loc 1 103 0
  84 0044 009B     		ldr	r3, [sp]
  85 0046 1A68     		ldr	r2, [r3]
  86 0048 4DF68063 		movw	r3, #56960
  87 004c C0F28023 		movt	r3, 640
  88 0050 B3FBF2F3 		udiv	r3, r3, r2
  89 0054 9AB2     		uxth	r2, r3
  90 0056 039B     		ldr	r3, [sp, #12]
  91 0058 1A81     		strh	r2, [r3, #8]	@ movhi
  92              	.L4:
  93              		.loc 1 106 0
  94 005a 009B     		ldr	r3, [sp]
  95 005c DB88     		ldrh	r3, [r3, #6]
  96 005e 43F04003 		orr	r3, r3, #64
  97 0062 9AB2     		uxth	r2, r3
  98 0064 039B     		ldr	r3, [sp, #12]
  99 0066 1A82     		strh	r2, [r3, #16]	@ movhi
 100              		.loc 1 107 0
 101 0068 009B     		ldr	r3, [sp]
 102 006a 1B89     		ldrh	r3, [r3, #8]
 103 006c 43F00103 		orr	r3, r3, #1
 104 0070 9AB2     		uxth	r2, r3
 105 0072 039B     		ldr	r3, [sp, #12]
 106 0074 9A82     		strh	r2, [r3, #20]	@ movhi
 107              		.loc 1 108 0
 108 0076 009B     		ldr	r3, [sp]
 109 0078 9B88     		ldrh	r3, [r3, #4]
 110 007a 43F40453 		orr	r3, r3, #8448
ARM GAS  /tmp/ccSf0MBz.s 			page 3


 111 007e 43F02C03 		orr	r3, r3, #44
 112 0082 9AB2     		uxth	r2, r3
 113 0084 039B     		ldr	r3, [sp, #12]
 114 0086 9A81     		strh	r2, [r3, #12]	@ movhi
 115              		.loc 1 111 0
 116 0088 039B     		ldr	r3, [sp, #12]
 117 008a 0022     		movs	r2, #0
 118 008c 1A80     		strh	r2, [r3]	@ movhi
 119              		.loc 1 112 0
 120 008e 039B     		ldr	r3, [sp, #12]
 121 0090 1B88     		ldrh	r3, [r3]	@ movhi
 122              		.loc 1 113 0
 123 0092 039B     		ldr	r3, [sp, #12]
 124 0094 9B88     		ldrh	r3, [r3, #4]	@ movhi
 125              		.loc 1 114 0
 126 0096 04B0     		add	sp, sp, #16
 127              		@ sp needed
 128 0098 7047     		bx	lr
 129              		.cfi_endproc
 130              	.LFE118:
 131              		.size	usart_init, .-usart_init
 132 009a 00BFAFF3 		.section	.text.usart_deinit,"ax",%progbits
 132      0080
 133              		.align	2
 134              		.p2align 4,,15
 135              		.thumb
 136              		.thumb_func
 137              		.type	usart_deinit, %function
 138              	usart_deinit:
 139              	.LFB119:
 140              		.loc 1 122 0
 141              		.cfi_startproc
 142              		@ args = 0, pretend = 0, frame = 8
 143              		@ frame_needed = 0, uses_anonymous_args = 0
 144              		@ link register save eliminated.
 145 0000 82B0     		sub	sp, sp, #8
 146              		.cfi_def_cfa_offset 8
 147 0002 0190     		str	r0, [sp, #4]
 148              		.loc 1 124 0
 149 0004 019B     		ldr	r3, [sp, #4]
 150 0006 0022     		movs	r2, #0
 151 0008 9A81     		strh	r2, [r3, #12]	@ movhi
 152              		.loc 1 125 0
 153 000a 019B     		ldr	r3, [sp, #4]
 154 000c 0022     		movs	r2, #0
 155 000e 1A82     		strh	r2, [r3, #16]	@ movhi
 156              		.loc 1 126 0
 157 0010 019B     		ldr	r3, [sp, #4]
 158 0012 0022     		movs	r2, #0
 159 0014 9A82     		strh	r2, [r3, #20]	@ movhi
 160              		.loc 1 127 0
 161 0016 02B0     		add	sp, sp, #8
 162              		@ sp needed
 163 0018 7047     		bx	lr
 164              		.cfi_endproc
 165              	.LFE119:
 166              		.size	usart_deinit, .-usart_deinit
ARM GAS  /tmp/ccSf0MBz.s 			page 4


 167 001a 00BFAFF3 		.section	.text.set_error,"ax",%progbits
 167      0080
 168              		.align	2
 169              		.p2align 4,,15
 170              		.thumb
 171              		.thumb_func
 172              		.type	set_error, %function
 173              	set_error:
 174              	.LFB120:
 175              		.loc 1 135 0
 176              		.cfi_startproc
 177              		@ args = 0, pretend = 0, frame = 16
 178              		@ frame_needed = 0, uses_anonymous_args = 0
 179 0000 00B5     		push	{lr}
 180              		.cfi_def_cfa_offset 4
 181              		.cfi_offset 14, -4
 182 0002 85B0     		sub	sp, sp, #20
 183              		.cfi_def_cfa_offset 24
 184 0004 0190     		str	r0, [sp, #4]
 185 0006 0B46     		mov	r3, r1
 186 0008 ADF80230 		strh	r3, [sp, #2]	@ movhi
 187              		.loc 1 136 0
 188 000c 0023     		movs	r3, #0
 189 000e 0393     		str	r3, [sp, #12]
 190              		.loc 1 138 0
 191 0010 BDF80230 		ldrh	r3, [sp, #2]
 192 0014 03F00803 		and	r3, r3, #8
 193 0018 002B     		cmp	r3, #0
 194 001a 03D0     		beq	.L7
 195              		.loc 1 139 0
 196 001c 039B     		ldr	r3, [sp, #12]
 197 001e 43F08003 		orr	r3, r3, #128
 198 0022 0393     		str	r3, [sp, #12]
 199              	.L7:
 200              		.loc 1 140 0
 201 0024 BDF80230 		ldrh	r3, [sp, #2]
 202 0028 03F00103 		and	r3, r3, #1
 203 002c 002B     		cmp	r3, #0
 204 002e 03D0     		beq	.L8
 205              		.loc 1 141 0
 206 0030 039B     		ldr	r3, [sp, #12]
 207 0032 43F02003 		orr	r3, r3, #32
 208 0036 0393     		str	r3, [sp, #12]
 209              	.L8:
 210              		.loc 1 142 0
 211 0038 BDF80230 		ldrh	r3, [sp, #2]
 212 003c 03F00203 		and	r3, r3, #2
 213 0040 002B     		cmp	r3, #0
 214 0042 03D0     		beq	.L9
 215              		.loc 1 143 0
 216 0044 039B     		ldr	r3, [sp, #12]
 217 0046 43F04003 		orr	r3, r3, #64
 218 004a 0393     		str	r3, [sp, #12]
 219              	.L9:
 220              		.loc 1 144 0
 221 004c BDF80230 		ldrh	r3, [sp, #2]
 222 0050 03F00403 		and	r3, r3, #4
ARM GAS  /tmp/ccSf0MBz.s 			page 5


 223 0054 002B     		cmp	r3, #0
 224 0056 03D0     		beq	.L10
 225              		.loc 1 145 0
 226 0058 039B     		ldr	r3, [sp, #12]
 227 005a 43F48073 		orr	r3, r3, #256
 228 005e 0393     		str	r3, [sp, #12]
 229              	.L10:
 230              		.loc 1 146 0
 231 0060 019B     		ldr	r3, [sp, #4]
 232 0062 0433     		adds	r3, r3, #4
 233 0064 1846     		mov	r0, r3
 234 0066 0399     		ldr	r1, [sp, #12]
 235 0068 FFF7FEFF 		bl	chEvtBroadcastFlagsI
 236              		.loc 1 147 0
 237 006c 05B0     		add	sp, sp, #20
 238              		@ sp needed
 239 006e 5DF804FB 		ldr	pc, [sp], #4
 240              		.cfi_endproc
 241              	.LFE120:
 242              		.size	set_error, .-set_error
 243 0072 00BFAFF3 		.section	.text.serve_interrupt,"ax",%progbits
 243      0080AFF3 
 243      0080AFF3 
 243      0080
 244              		.align	2
 245              		.p2align 4,,15
 246              		.thumb
 247              		.thumb_func
 248              		.type	serve_interrupt, %function
 249              	serve_interrupt:
 250              	.LFB121:
 251              		.loc 1 154 0
 252              		.cfi_startproc
 253              		@ args = 0, pretend = 0, frame = 24
 254              		@ frame_needed = 0, uses_anonymous_args = 0
 255 0000 00B5     		push	{lr}
 256              		.cfi_def_cfa_offset 4
 257              		.cfi_offset 14, -4
 258 0002 87B0     		sub	sp, sp, #28
 259              		.cfi_def_cfa_offset 32
 260 0004 0190     		str	r0, [sp, #4]
 261              		.loc 1 155 0
 262 0006 019B     		ldr	r3, [sp, #4]
 263 0008 5B6F     		ldr	r3, [r3, #116]
 264 000a 0493     		str	r3, [sp, #16]
 265              		.loc 1 156 0
 266 000c 049B     		ldr	r3, [sp, #16]
 267 000e 9B89     		ldrh	r3, [r3, #12]	@ movhi
 268 0010 ADF80E30 		strh	r3, [sp, #14]	@ movhi
 269              		.loc 1 157 0
 270 0014 049B     		ldr	r3, [sp, #16]
 271 0016 1B88     		ldrh	r3, [r3]	@ movhi
 272 0018 ADF81630 		strh	r3, [sp, #22]	@ movhi
 273              		.loc 1 160 0
 274 001c BDF81630 		ldrh	r3, [sp, #22]
 275 0020 03F48073 		and	r3, r3, #256
 276 0024 002B     		cmp	r3, #0
ARM GAS  /tmp/ccSf0MBz.s 			page 6


 277 0026 14D0     		beq	.L12
 278              	.LBB2:
 279              		.loc 1 161 0
 280 0028 2023     		movs	r3, #32
 281              	@ 161 "../..//os/hal/platforms/STM32/USARTv1/serial_lld.c" 1
 282 002a 83F31188 		msr     BASEPRI, r3
 283              	@ 0 "" 2
 284              		.thumb
 285              	.LBE2:
 286 002e FFF7FEFF 		bl	dbg_check_lock_from_isr
 287              		.loc 1 162 0
 288 0032 019B     		ldr	r3, [sp, #4]
 289 0034 0433     		adds	r3, r3, #4
 290 0036 1846     		mov	r0, r3
 291 0038 4FF40071 		mov	r1, #512
 292 003c FFF7FEFF 		bl	chEvtBroadcastFlagsI
 293              		.loc 1 163 0
 294 0040 FFF7FEFF 		bl	dbg_check_unlock_from_isr
 295              	.LBB3:
 296 0044 0023     		movs	r3, #0
 297              	@ 163 "../..//os/hal/platforms/STM32/USARTv1/serial_lld.c" 1
 298 0046 83F31188 		msr     BASEPRI, r3
 299              	@ 0 "" 2
 300              		.thumb
 301              	.LBE3:
 302              		.loc 1 164 0
 303 004a 049B     		ldr	r3, [sp, #16]
 304 004c 4FF6FF62 		movw	r2, #65279
 305 0050 1A80     		strh	r2, [r3]	@ movhi
 306              	.L12:
 307              	.LBB4:
 308              		.loc 1 168 0
 309 0052 2023     		movs	r3, #32
 310              	@ 168 "../..//os/hal/platforms/STM32/USARTv1/serial_lld.c" 1
 311 0054 83F31188 		msr     BASEPRI, r3
 312              	@ 0 "" 2
 313              		.thumb
 314              	.LBE4:
 315 0058 FFF7FEFF 		bl	dbg_check_lock_from_isr
 316              		.loc 1 169 0
 317 005c 17E0     		b	.L13
 318              	.L15:
 319              		.loc 1 171 0
 320 005e BDF81630 		ldrh	r3, [sp, #22]
 321 0062 03F00F03 		and	r3, r3, #15
 322 0066 002B     		cmp	r3, #0
 323 0068 05D0     		beq	.L14
 324              		.loc 1 172 0
 325 006a BDF81630 		ldrh	r3, [sp, #22]
 326 006e 0198     		ldr	r0, [sp, #4]
 327 0070 1946     		mov	r1, r3
 328 0072 FFF7FEFF 		bl	set_error
 329              	.L14:
 330              		.loc 1 173 0
 331 0076 049B     		ldr	r3, [sp, #16]
 332 0078 9B88     		ldrh	r3, [r3, #4]	@ movhi
 333 007a 9BB2     		uxth	r3, r3
ARM GAS  /tmp/ccSf0MBz.s 			page 7


 334 007c DBB2     		uxtb	r3, r3
 335 007e 0198     		ldr	r0, [sp, #4]
 336 0080 1946     		mov	r1, r3
 337 0082 FFF7FEFF 		bl	sdIncomingDataI
 338              		.loc 1 174 0
 339 0086 049B     		ldr	r3, [sp, #16]
 340 0088 1B88     		ldrh	r3, [r3]	@ movhi
 341 008a ADF81630 		strh	r3, [sp, #22]	@ movhi
 342              	.L13:
 343              		.loc 1 169 0 discriminator 1
 344 008e BDF81630 		ldrh	r3, [sp, #22]
 345 0092 03F02003 		and	r3, r3, #32
 346 0096 002B     		cmp	r3, #0
 347 0098 E1D1     		bne	.L15
 348              		.loc 1 176 0
 349 009a FFF7FEFF 		bl	dbg_check_unlock_from_isr
 350              	.LBB5:
 351 009e 0023     		movs	r3, #0
 352              	@ 176 "../..//os/hal/platforms/STM32/USARTv1/serial_lld.c" 1
 353 00a0 83F31188 		msr     BASEPRI, r3
 354              	@ 0 "" 2
 355              		.thumb
 356              	.LBE5:
 357              		.loc 1 179 0
 358 00a4 BDF80E30 		ldrh	r3, [sp, #14]
 359 00a8 03F08003 		and	r3, r3, #128
 360 00ac 002B     		cmp	r3, #0
 361 00ae 2ED0     		beq	.L16
 362              		.loc 1 179 0 is_stmt 0 discriminator 1
 363 00b0 BDF81630 		ldrh	r3, [sp, #22]
 364 00b4 03F08003 		and	r3, r3, #128
 365 00b8 002B     		cmp	r3, #0
 366 00ba 28D0     		beq	.L16
 367              	.LBB6:
 368              	.LBB7:
 369              		.loc 1 181 0 is_stmt 1
 370 00bc 2023     		movs	r3, #32
 371              	@ 181 "../..//os/hal/platforms/STM32/USARTv1/serial_lld.c" 1
 372 00be 83F31188 		msr     BASEPRI, r3
 373              	@ 0 "" 2
 374              		.thumb
 375              	.LBE7:
 376 00c2 FFF7FEFF 		bl	dbg_check_lock_from_isr
 377              		.loc 1 182 0
 378 00c6 019B     		ldr	r3, [sp, #4]
 379 00c8 3033     		adds	r3, r3, #48
 380 00ca 1846     		mov	r0, r3
 381 00cc FFF7FEFF 		bl	chOQGetI
 382 00d0 0290     		str	r0, [sp, #8]
 383              		.loc 1 183 0
 384 00d2 029B     		ldr	r3, [sp, #8]
 385 00d4 002B     		cmp	r3, #0
 386 00d6 11DA     		bge	.L17
 387              		.loc 1 184 0
 388 00d8 019B     		ldr	r3, [sp, #4]
 389 00da 0433     		adds	r3, r3, #4
 390 00dc 1846     		mov	r0, r3
ARM GAS  /tmp/ccSf0MBz.s 			page 8


 391 00de 0821     		movs	r1, #8
 392 00e0 FFF7FEFF 		bl	chEvtBroadcastFlagsI
 393              		.loc 1 185 0
 394 00e4 BDF80E30 		ldrh	r3, [sp, #14]
 395 00e8 23F0C003 		bic	r3, r3, #192
 396 00ec 9BB2     		uxth	r3, r3
 397 00ee 43F04003 		orr	r3, r3, #64
 398 00f2 9BB2     		uxth	r3, r3
 399 00f4 9AB2     		uxth	r2, r3
 400 00f6 049B     		ldr	r3, [sp, #16]
 401 00f8 9A81     		strh	r2, [r3, #12]	@ movhi
 402 00fa 03E0     		b	.L18
 403              	.L17:
 404              		.loc 1 188 0
 405 00fc 029B     		ldr	r3, [sp, #8]
 406 00fe 9AB2     		uxth	r2, r3
 407 0100 049B     		ldr	r3, [sp, #16]
 408 0102 9A80     		strh	r2, [r3, #4]	@ movhi
 409              	.L18:
 410              		.loc 1 189 0
 411 0104 FFF7FEFF 		bl	dbg_check_unlock_from_isr
 412              	.LBB8:
 413 0108 0023     		movs	r3, #0
 414              	@ 189 "../..//os/hal/platforms/STM32/USARTv1/serial_lld.c" 1
 415 010a 83F31188 		msr     BASEPRI, r3
 416              	@ 0 "" 2
 417              		.thumb
 418              	.L16:
 419              	.LBE8:
 420              	.LBE6:
 421              		.loc 1 193 0
 422 010e BDF81630 		ldrh	r3, [sp, #22]
 423 0112 03F04003 		and	r3, r3, #64
 424 0116 002B     		cmp	r3, #0
 425 0118 1AD0     		beq	.L11
 426              	.LBB9:
 427              		.loc 1 194 0
 428 011a 2023     		movs	r3, #32
 429              	@ 194 "../..//os/hal/platforms/STM32/USARTv1/serial_lld.c" 1
 430 011c 83F31188 		msr     BASEPRI, r3
 431              	@ 0 "" 2
 432              		.thumb
 433              	.LBE9:
 434 0120 FFF7FEFF 		bl	dbg_check_lock_from_isr
 435              		.loc 1 195 0
 436 0124 019B     		ldr	r3, [sp, #4]
 437 0126 0433     		adds	r3, r3, #4
 438 0128 1846     		mov	r0, r3
 439 012a 1021     		movs	r1, #16
 440 012c FFF7FEFF 		bl	chEvtBroadcastFlagsI
 441              		.loc 1 196 0
 442 0130 FFF7FEFF 		bl	dbg_check_unlock_from_isr
 443              	.LBB10:
 444 0134 0023     		movs	r3, #0
 445              	@ 196 "../..//os/hal/platforms/STM32/USARTv1/serial_lld.c" 1
 446 0136 83F31188 		msr     BASEPRI, r3
 447              	@ 0 "" 2
ARM GAS  /tmp/ccSf0MBz.s 			page 9


 448              		.thumb
 449              	.LBE10:
 450              		.loc 1 197 0
 451 013a BDF80E30 		ldrh	r3, [sp, #14]	@ movhi
 452 013e 23F0C003 		bic	r3, r3, #192
 453 0142 9AB2     		uxth	r2, r3
 454 0144 049B     		ldr	r3, [sp, #16]
 455 0146 9A81     		strh	r2, [r3, #12]	@ movhi
 456              		.loc 1 198 0
 457 0148 049B     		ldr	r3, [sp, #16]
 458 014a 4FF6BF72 		movw	r2, #65471
 459 014e 1A80     		strh	r2, [r3]	@ movhi
 460              	.L11:
 461              		.loc 1 200 0
 462 0150 07B0     		add	sp, sp, #28
 463              		@ sp needed
 464 0152 5DF804FB 		ldr	pc, [sp], #4
 465              		.cfi_endproc
 466              	.LFE121:
 467              		.size	serve_interrupt, .-serve_interrupt
 468 0156 00BFAFF3 		.section	.text.notify2,"ax",%progbits
 468      0080AFF3 
 468      0080
 469              		.align	2
 470              		.p2align 4,,15
 471              		.thumb
 472              		.thumb_func
 473              		.type	notify2, %function
 474              	notify2:
 475              	.LFB122:
 476              		.loc 1 211 0
 477              		.cfi_startproc
 478              		@ args = 0, pretend = 0, frame = 8
 479              		@ frame_needed = 0, uses_anonymous_args = 0
 480              		@ link register save eliminated.
 481 0000 82B0     		sub	sp, sp, #8
 482              		.cfi_def_cfa_offset 8
 483 0002 0190     		str	r0, [sp, #4]
 484              		.loc 1 214 0
 485 0004 4FF48843 		mov	r3, #17408
 486 0008 C4F20003 		movt	r3, 16384
 487 000c 4FF48842 		mov	r2, #17408
 488 0010 C4F20002 		movt	r2, 16384
 489 0014 9289     		ldrh	r2, [r2, #12]	@ movhi
 490 0016 92B2     		uxth	r2, r2
 491 0018 42F08002 		orr	r2, r2, #128
 492 001c 92B2     		uxth	r2, r2
 493 001e 9A81     		strh	r2, [r3, #12]	@ movhi
 494              		.loc 1 215 0
 495 0020 02B0     		add	sp, sp, #8
 496              		@ sp needed
 497 0022 7047     		bx	lr
 498              		.cfi_endproc
 499              	.LFE122:
 500              		.size	notify2, .-notify2
 501 0024 AFF30080 		.section	.text.VectorD8,"ax",%progbits
 501      AFF30080 
ARM GAS  /tmp/ccSf0MBz.s 			page 10


 501      AFF30080 
 502              		.align	2
 503              		.p2align 4,,15
 504              		.global	VectorD8
 505              		.thumb
 506              		.thumb_func
 507              		.type	VectorD8, %function
 508              	VectorD8:
 509              	.LFB123:
 510              		.loc 1 282 0
 511              		.cfi_startproc
 512              		@ args = 0, pretend = 0, frame = 0
 513              		@ frame_needed = 0, uses_anonymous_args = 0
 514 0000 08B5     		push	{r3, lr}
 515              		.cfi_def_cfa_offset 8
 516              		.cfi_offset 3, -8
 517              		.cfi_offset 14, -4
 518              		.loc 1 284 0
 519 0002 FFF7FEFF 		bl	dbg_check_enter_isr
 520              		.loc 1 286 0
 521 0006 40F20000 		movw	r0, #:lower16:SD2
 522 000a C0F20000 		movt	r0, #:upper16:SD2
 523 000e FFF7FEFF 		bl	serve_interrupt
 524              		.loc 1 288 0
 525 0012 FFF7FEFF 		bl	dbg_check_leave_isr
 526 0016 FFF7FEFF 		bl	_port_irq_epilogue
 527              		.loc 1 289 0
 528 001a 08BD     		pop	{r3, pc}
 529              		.cfi_endproc
 530              	.LFE123:
 531              		.size	VectorD8, .-VectorD8
 532 001c AFF30080 		.section	.text.sd_lld_init,"ax",%progbits
 533              		.align	2
 534              		.p2align 4,,15
 535              		.global	sd_lld_init
 536              		.thumb
 537              		.thumb_func
 538              		.type	sd_lld_init, %function
 539              	sd_lld_init:
 540              	.LFB124:
 541              		.loc 1 377 0
 542              		.cfi_startproc
 543              		@ args = 0, pretend = 0, frame = 0
 544              		@ frame_needed = 0, uses_anonymous_args = 0
 545 0000 08B5     		push	{r3, lr}
 546              		.cfi_def_cfa_offset 8
 547              		.cfi_offset 3, -8
 548              		.cfi_offset 14, -4
 549              		.loc 1 385 0
 550 0002 40F20000 		movw	r0, #:lower16:SD2
 551 0006 C0F20000 		movt	r0, #:upper16:SD2
 552 000a 0021     		movs	r1, #0
 553 000c 40F20002 		movw	r2, #:lower16:notify2
 554 0010 C0F20002 		movt	r2, #:upper16:notify2
 555 0014 FFF7FEFF 		bl	sdObjectInit
 556              		.loc 1 386 0
 557 0018 40F20003 		movw	r3, #:lower16:SD2
ARM GAS  /tmp/ccSf0MBz.s 			page 11


 558 001c C0F20003 		movt	r3, #:upper16:SD2
 559 0020 4FF48842 		mov	r2, #17408
 560 0024 C4F20002 		movt	r2, 16384
 561 0028 5A67     		str	r2, [r3, #116]
 562              		.loc 1 408 0
 563 002a 08BD     		pop	{r3, pc}
 564              		.cfi_endproc
 565              	.LFE124:
 566              		.size	sd_lld_init, .-sd_lld_init
 567 002c AFF30080 		.section	.text.sd_lld_start,"ax",%progbits
 568              		.align	2
 569              		.p2align 4,,15
 570              		.global	sd_lld_start
 571              		.thumb
 572              		.thumb_func
 573              		.type	sd_lld_start, %function
 574              	sd_lld_start:
 575              	.LFB125:
 576              		.loc 1 420 0
 577              		.cfi_startproc
 578              		@ args = 0, pretend = 0, frame = 8
 579              		@ frame_needed = 0, uses_anonymous_args = 0
 580 0000 00B5     		push	{lr}
 581              		.cfi_def_cfa_offset 4
 582              		.cfi_offset 14, -4
 583 0002 83B0     		sub	sp, sp, #12
 584              		.cfi_def_cfa_offset 16
 585 0004 0190     		str	r0, [sp, #4]
 586 0006 0091     		str	r1, [sp]
 587              		.loc 1 422 0
 588 0008 009B     		ldr	r3, [sp]
 589 000a 002B     		cmp	r3, #0
 590 000c 04D1     		bne	.L24
 591              		.loc 1 423 0
 592 000e 40F20003 		movw	r3, #:lower16:default_config
 593 0012 C0F20003 		movt	r3, #:upper16:default_config
 594 0016 0093     		str	r3, [sp]
 595              	.L24:
 596              		.loc 1 425 0
 597 0018 019B     		ldr	r3, [sp, #4]
 598 001a 1B7A     		ldrb	r3, [r3, #8]	@ zero_extendqisi2
 599 001c 012B     		cmp	r3, #1
 600 001e 16D1     		bne	.L25
 601              		.loc 1 434 0
 602 0020 019A     		ldr	r2, [sp, #4]
 603 0022 40F20003 		movw	r3, #:lower16:SD2
 604 0026 C0F20003 		movt	r3, #:upper16:SD2
 605 002a 9A42     		cmp	r2, r3
 606 002c 0FD1     		bne	.L25
 607              		.loc 1 435 0
 608 002e 4FF46053 		mov	r3, #14336
 609 0032 C4F20203 		movt	r3, 16386
 610 0036 4FF46052 		mov	r2, #14336
 611 003a C4F20202 		movt	r2, 16386
 612 003e 126C     		ldr	r2, [r2, #64]
 613 0040 42F40032 		orr	r2, r2, #131072
 614 0044 1A64     		str	r2, [r3, #64]
ARM GAS  /tmp/ccSf0MBz.s 			page 12


 615              		.loc 1 436 0
 616 0046 2620     		movs	r0, #38
 617 0048 C021     		movs	r1, #192
 618 004a FFF7FEFF 		bl	nvicEnableVector
 619              	.L25:
 620              		.loc 1 469 0
 621 004e 0198     		ldr	r0, [sp, #4]
 622 0050 0099     		ldr	r1, [sp]
 623 0052 FFF7FEFF 		bl	usart_init
 624              		.loc 1 470 0
 625 0056 03B0     		add	sp, sp, #12
 626              		@ sp needed
 627 0058 5DF804FB 		ldr	pc, [sp], #4
 628              		.cfi_endproc
 629              	.LFE125:
 630              		.size	sd_lld_start, .-sd_lld_start
 631 005c AFF30080 		.section	.text.sd_lld_stop,"ax",%progbits
 632              		.align	2
 633              		.p2align 4,,15
 634              		.global	sd_lld_stop
 635              		.thumb
 636              		.thumb_func
 637              		.type	sd_lld_stop, %function
 638              	sd_lld_stop:
 639              	.LFB126:
 640              		.loc 1 481 0
 641              		.cfi_startproc
 642              		@ args = 0, pretend = 0, frame = 8
 643              		@ frame_needed = 0, uses_anonymous_args = 0
 644 0000 00B5     		push	{lr}
 645              		.cfi_def_cfa_offset 4
 646              		.cfi_offset 14, -4
 647 0002 83B0     		sub	sp, sp, #12
 648              		.cfi_def_cfa_offset 16
 649 0004 0190     		str	r0, [sp, #4]
 650              		.loc 1 483 0
 651 0006 019B     		ldr	r3, [sp, #4]
 652 0008 1B7A     		ldrb	r3, [r3, #8]	@ zero_extendqisi2
 653 000a 022B     		cmp	r3, #2
 654 000c 1BD1     		bne	.L26
 655              		.loc 1 484 0
 656 000e 019B     		ldr	r3, [sp, #4]
 657 0010 5B6F     		ldr	r3, [r3, #116]
 658 0012 1846     		mov	r0, r3
 659 0014 FFF7FEFF 		bl	usart_deinit
 660              		.loc 1 493 0
 661 0018 019A     		ldr	r2, [sp, #4]
 662 001a 40F20003 		movw	r3, #:lower16:SD2
 663 001e C0F20003 		movt	r3, #:upper16:SD2
 664 0022 9A42     		cmp	r2, r3
 665 0024 0FD1     		bne	.L26
 666              		.loc 1 494 0
 667 0026 4FF46053 		mov	r3, #14336
 668 002a C4F20203 		movt	r3, 16386
 669 002e 4FF46052 		mov	r2, #14336
 670 0032 C4F20202 		movt	r2, 16386
 671 0036 126C     		ldr	r2, [r2, #64]
ARM GAS  /tmp/ccSf0MBz.s 			page 13


 672 0038 22F40032 		bic	r2, r2, #131072
 673 003c 1A64     		str	r2, [r3, #64]
 674              		.loc 1 495 0
 675 003e 2620     		movs	r0, #38
 676 0040 FFF7FEFF 		bl	nvicDisableVector
 677              		.loc 1 496 0
 678 0044 00BF     		nop
 679              	.L26:
 680              		.loc 1 528 0
 681 0046 03B0     		add	sp, sp, #12
 682              		@ sp needed
 683 0048 5DF804FB 		ldr	pc, [sp], #4
 684              		.cfi_endproc
 685              	.LFE126:
 686              		.size	sd_lld_stop, .-sd_lld_stop
 687 004c AFF30080 		.text
 688              	.Letext0:
 689              		.file 2 "/usr/lib/gcc/arm-none-eabi/4.8.2/include/stddef.h"
 690              		.file 3 "/usr/arm-none-eabi/include/machine/_default_types.h"
 691              		.file 4 "/usr/arm-none-eabi/include/stdint.h"
 692              		.file 5 "../..//os/ports/GCC/ARMCMx/chtypes.h"
 693              		.file 6 "../..//os/kernel/include/chlists.h"
 694              		.file 7 "../..//os/kernel/include/chthreads.h"
 695              		.file 8 "../..//os/ports/GCC/ARMCMx/chcore_v7m.h"
 696              		.file 9 "../..//os/kernel/include/chmtx.h"
 697              		.file 10 "../..//os/kernel/include/chevents.h"
 698              		.file 11 "../..//os/kernel/include/chqueues.h"
 699              		.file 12 "../..//os/hal/platforms/STM32F4xx/stm32f4xx.h"
 700              		.file 13 "../..//os/hal/include/serial.h"
 701              		.file 14 "../..//os/hal/platforms/STM32/USARTv1/serial_lld.h"
 702              		.file 15 "../..//os/ports/common/ARMCMx/CMSIS/include/core_cm4.h"