ARM GAS  /tmp/ccMY8SYN.s 			page 1


   1              		.syntax unified
   2              		.cpu cortex-m4
   3              		.fpu softvfp
   4              		.eabi_attribute 20, 1
   5              		.eabi_attribute 21, 1
   6              		.eabi_attribute 23, 3
   7              		.eabi_attribute 24, 1
   8              		.eabi_attribute 25, 1
   9              		.eabi_attribute 26, 1
  10              		.eabi_attribute 30, 6
  11              		.eabi_attribute 34, 1
  12              		.eabi_attribute 18, 4
  13              		.thumb
  14              		.file	"serial.c"
  15              		.text
  16              	.Ltext0:
  17              		.cfi_sections	.debug_frame
  18              		.section	.text.write,"ax",%progbits
  19              		.align	2
  20              		.p2align 4,,15
  21              		.thumb
  22              		.thumb_func
  23              		.type	write, %function
  24              	write:
  25              	.LFB118:
  26              		.file 1 "../..//os/hal/src/serial.c"
  27              		.loc 1 62 0
  28              		.cfi_startproc
  29              		@ args = 0, pretend = 0, frame = 16
  30              		@ frame_needed = 0, uses_anonymous_args = 0
  31 0000 00B5     		push	{lr}
  32              		.cfi_def_cfa_offset 4
  33              		.cfi_offset 14, -4
  34 0002 85B0     		sub	sp, sp, #20
  35              		.cfi_def_cfa_offset 24
  36 0004 0390     		str	r0, [sp, #12]
  37 0006 0291     		str	r1, [sp, #8]
  38 0008 0192     		str	r2, [sp, #4]
  39              		.loc 1 64 0
  40 000a 039B     		ldr	r3, [sp, #12]
  41 000c 3033     		adds	r3, r3, #48
  42 000e 1846     		mov	r0, r3
  43 0010 0299     		ldr	r1, [sp, #8]
  44 0012 019A     		ldr	r2, [sp, #4]
  45 0014 4FF0FF33 		mov	r3, #-1
  46 0018 FFF7FEFF 		bl	chOQWriteTimeout
  47 001c 0346     		mov	r3, r0
  48              		.loc 1 66 0
  49 001e 1846     		mov	r0, r3
  50 0020 05B0     		add	sp, sp, #20
  51              		@ sp needed
  52 0022 5DF804FB 		ldr	pc, [sp], #4
  53              		.cfi_endproc
  54              	.LFE118:
  55              		.size	write, .-write
  56 0026 00BFAFF3 		.section	.text.read,"ax",%progbits
  56      0080AFF3 
ARM GAS  /tmp/ccMY8SYN.s 			page 2


  56      0080
  57              		.align	2
  58              		.p2align 4,,15
  59              		.thumb
  60              		.thumb_func
  61              		.type	read, %function
  62              	read:
  63              	.LFB119:
  64              		.loc 1 68 0
  65              		.cfi_startproc
  66              		@ args = 0, pretend = 0, frame = 16
  67              		@ frame_needed = 0, uses_anonymous_args = 0
  68 0000 00B5     		push	{lr}
  69              		.cfi_def_cfa_offset 4
  70              		.cfi_offset 14, -4
  71 0002 85B0     		sub	sp, sp, #20
  72              		.cfi_def_cfa_offset 24
  73 0004 0390     		str	r0, [sp, #12]
  74 0006 0291     		str	r1, [sp, #8]
  75 0008 0192     		str	r2, [sp, #4]
  76              		.loc 1 70 0
  77 000a 039B     		ldr	r3, [sp, #12]
  78 000c 0C33     		adds	r3, r3, #12
  79 000e 1846     		mov	r0, r3
  80 0010 0299     		ldr	r1, [sp, #8]
  81 0012 019A     		ldr	r2, [sp, #4]
  82 0014 4FF0FF33 		mov	r3, #-1
  83 0018 FFF7FEFF 		bl	chIQReadTimeout
  84 001c 0346     		mov	r3, r0
  85              		.loc 1 72 0
  86 001e 1846     		mov	r0, r3
  87 0020 05B0     		add	sp, sp, #20
  88              		@ sp needed
  89 0022 5DF804FB 		ldr	pc, [sp], #4
  90              		.cfi_endproc
  91              	.LFE119:
  92              		.size	read, .-read
  93              		.section	.text.put,"ax",%progbits
  94              		.align	2
  95              		.p2align 4,,15
  96              		.thumb
  97              		.thumb_func
  98              		.type	put, %function
  99              	put:
 100              	.LFB120:
 101              		.loc 1 74 0
 102              		.cfi_startproc
 103              		@ args = 0, pretend = 0, frame = 8
 104              		@ frame_needed = 0, uses_anonymous_args = 0
 105 0000 00B5     		push	{lr}
 106              		.cfi_def_cfa_offset 4
 107              		.cfi_offset 14, -4
 108 0002 83B0     		sub	sp, sp, #12
 109              		.cfi_def_cfa_offset 16
 110 0004 0190     		str	r0, [sp, #4]
 111 0006 0B46     		mov	r3, r1
 112 0008 8DF80330 		strb	r3, [sp, #3]
ARM GAS  /tmp/ccMY8SYN.s 			page 3


 113              		.loc 1 76 0
 114 000c 019B     		ldr	r3, [sp, #4]
 115 000e 03F13002 		add	r2, r3, #48
 116 0012 9DF80330 		ldrb	r3, [sp, #3]	@ zero_extendqisi2
 117 0016 1046     		mov	r0, r2
 118 0018 1946     		mov	r1, r3
 119 001a 4FF0FF32 		mov	r2, #-1
 120 001e FFF7FEFF 		bl	chOQPutTimeout
 121 0022 0346     		mov	r3, r0
 122              		.loc 1 77 0
 123 0024 1846     		mov	r0, r3
 124 0026 03B0     		add	sp, sp, #12
 125              		@ sp needed
 126 0028 5DF804FB 		ldr	pc, [sp], #4
 127              		.cfi_endproc
 128              	.LFE120:
 129              		.size	put, .-put
 130 002c AFF30080 		.section	.text.get,"ax",%progbits
 131              		.align	2
 132              		.p2align 4,,15
 133              		.thumb
 134              		.thumb_func
 135              		.type	get, %function
 136              	get:
 137              	.LFB121:
 138              		.loc 1 79 0
 139              		.cfi_startproc
 140              		@ args = 0, pretend = 0, frame = 8
 141              		@ frame_needed = 0, uses_anonymous_args = 0
 142 0000 00B5     		push	{lr}
 143              		.cfi_def_cfa_offset 4
 144              		.cfi_offset 14, -4
 145 0002 83B0     		sub	sp, sp, #12
 146              		.cfi_def_cfa_offset 16
 147 0004 0190     		str	r0, [sp, #4]
 148              		.loc 1 81 0
 149 0006 019B     		ldr	r3, [sp, #4]
 150 0008 0C33     		adds	r3, r3, #12
 151 000a 1846     		mov	r0, r3
 152 000c 4FF0FF31 		mov	r1, #-1
 153 0010 FFF7FEFF 		bl	chIQGetTimeout
 154 0014 0346     		mov	r3, r0
 155              		.loc 1 82 0
 156 0016 1846     		mov	r0, r3
 157 0018 03B0     		add	sp, sp, #12
 158              		@ sp needed
 159 001a 5DF804FB 		ldr	pc, [sp], #4
 160              		.cfi_endproc
 161              	.LFE121:
 162              		.size	get, .-get
 163 001e 00BF     		.section	.text.putt,"ax",%progbits
 164              		.align	2
 165              		.p2align 4,,15
 166              		.thumb
 167              		.thumb_func
 168              		.type	putt, %function
 169              	putt:
ARM GAS  /tmp/ccMY8SYN.s 			page 4


 170              	.LFB122:
 171              		.loc 1 84 0
 172              		.cfi_startproc
 173              		@ args = 0, pretend = 0, frame = 16
 174              		@ frame_needed = 0, uses_anonymous_args = 0
 175 0000 00B5     		push	{lr}
 176              		.cfi_def_cfa_offset 4
 177              		.cfi_offset 14, -4
 178 0002 85B0     		sub	sp, sp, #20
 179              		.cfi_def_cfa_offset 24
 180 0004 0390     		str	r0, [sp, #12]
 181 0006 0B46     		mov	r3, r1
 182 0008 0192     		str	r2, [sp, #4]
 183 000a 8DF80B30 		strb	r3, [sp, #11]
 184              		.loc 1 86 0
 185 000e 039B     		ldr	r3, [sp, #12]
 186 0010 03F13002 		add	r2, r3, #48
 187 0014 9DF80B30 		ldrb	r3, [sp, #11]	@ zero_extendqisi2
 188 0018 1046     		mov	r0, r2
 189 001a 1946     		mov	r1, r3
 190 001c 019A     		ldr	r2, [sp, #4]
 191 001e FFF7FEFF 		bl	chOQPutTimeout
 192 0022 0346     		mov	r3, r0
 193              		.loc 1 87 0
 194 0024 1846     		mov	r0, r3
 195 0026 05B0     		add	sp, sp, #20
 196              		@ sp needed
 197 0028 5DF804FB 		ldr	pc, [sp], #4
 198              		.cfi_endproc
 199              	.LFE122:
 200              		.size	putt, .-putt
 201 002c AFF30080 		.section	.text.gett,"ax",%progbits
 202              		.align	2
 203              		.p2align 4,,15
 204              		.thumb
 205              		.thumb_func
 206              		.type	gett, %function
 207              	gett:
 208              	.LFB123:
 209              		.loc 1 89 0
 210              		.cfi_startproc
 211              		@ args = 0, pretend = 0, frame = 8
 212              		@ frame_needed = 0, uses_anonymous_args = 0
 213 0000 00B5     		push	{lr}
 214              		.cfi_def_cfa_offset 4
 215              		.cfi_offset 14, -4
 216 0002 83B0     		sub	sp, sp, #12
 217              		.cfi_def_cfa_offset 16
 218 0004 0190     		str	r0, [sp, #4]
 219 0006 0091     		str	r1, [sp]
 220              		.loc 1 91 0
 221 0008 019B     		ldr	r3, [sp, #4]
 222 000a 0C33     		adds	r3, r3, #12
 223 000c 1846     		mov	r0, r3
 224 000e 0099     		ldr	r1, [sp]
 225 0010 FFF7FEFF 		bl	chIQGetTimeout
 226 0014 0346     		mov	r3, r0
ARM GAS  /tmp/ccMY8SYN.s 			page 5


 227              		.loc 1 92 0
 228 0016 1846     		mov	r0, r3
 229 0018 03B0     		add	sp, sp, #12
 230              		@ sp needed
 231 001a 5DF804FB 		ldr	pc, [sp], #4
 232              		.cfi_endproc
 233              	.LFE123:
 234              		.size	gett, .-gett
 235 001e 00BF     		.section	.text.writet,"ax",%progbits
 236              		.align	2
 237              		.p2align 4,,15
 238              		.thumb
 239              		.thumb_func
 240              		.type	writet, %function
 241              	writet:
 242              	.LFB124:
 243              		.loc 1 94 0
 244              		.cfi_startproc
 245              		@ args = 0, pretend = 0, frame = 16
 246              		@ frame_needed = 0, uses_anonymous_args = 0
 247 0000 00B5     		push	{lr}
 248              		.cfi_def_cfa_offset 4
 249              		.cfi_offset 14, -4
 250 0002 85B0     		sub	sp, sp, #20
 251              		.cfi_def_cfa_offset 24
 252 0004 0390     		str	r0, [sp, #12]
 253 0006 0291     		str	r1, [sp, #8]
 254 0008 0192     		str	r2, [sp, #4]
 255 000a 0093     		str	r3, [sp]
 256              		.loc 1 96 0
 257 000c 039B     		ldr	r3, [sp, #12]
 258 000e 3033     		adds	r3, r3, #48
 259 0010 1846     		mov	r0, r3
 260 0012 0299     		ldr	r1, [sp, #8]
 261 0014 019A     		ldr	r2, [sp, #4]
 262 0016 009B     		ldr	r3, [sp]
 263 0018 FFF7FEFF 		bl	chOQWriteTimeout
 264 001c 0346     		mov	r3, r0
 265              		.loc 1 97 0
 266 001e 1846     		mov	r0, r3
 267 0020 05B0     		add	sp, sp, #20
 268              		@ sp needed
 269 0022 5DF804FB 		ldr	pc, [sp], #4
 270              		.cfi_endproc
 271              	.LFE124:
 272              		.size	writet, .-writet
 273 0026 00BFAFF3 		.section	.text.readt,"ax",%progbits
 273      0080AFF3 
 273      0080
 274              		.align	2
 275              		.p2align 4,,15
 276              		.thumb
 277              		.thumb_func
 278              		.type	readt, %function
 279              	readt:
 280              	.LFB125:
 281              		.loc 1 99 0
ARM GAS  /tmp/ccMY8SYN.s 			page 6


 282              		.cfi_startproc
 283              		@ args = 0, pretend = 0, frame = 16
 284              		@ frame_needed = 0, uses_anonymous_args = 0
 285 0000 00B5     		push	{lr}
 286              		.cfi_def_cfa_offset 4
 287              		.cfi_offset 14, -4
 288 0002 85B0     		sub	sp, sp, #20
 289              		.cfi_def_cfa_offset 24
 290 0004 0390     		str	r0, [sp, #12]
 291 0006 0291     		str	r1, [sp, #8]
 292 0008 0192     		str	r2, [sp, #4]
 293 000a 0093     		str	r3, [sp]
 294              		.loc 1 101 0
 295 000c 039B     		ldr	r3, [sp, #12]
 296 000e 0C33     		adds	r3, r3, #12
 297 0010 1846     		mov	r0, r3
 298 0012 0299     		ldr	r1, [sp, #8]
 299 0014 019A     		ldr	r2, [sp, #4]
 300 0016 009B     		ldr	r3, [sp]
 301 0018 FFF7FEFF 		bl	chIQReadTimeout
 302 001c 0346     		mov	r3, r0
 303              		.loc 1 102 0
 304 001e 1846     		mov	r0, r3
 305 0020 05B0     		add	sp, sp, #20
 306              		@ sp needed
 307 0022 5DF804FB 		ldr	pc, [sp], #4
 308              		.cfi_endproc
 309              	.LFE125:
 310              		.size	readt, .-readt
 311 0026 00BFAFF3 		.section	.rodata.vmt,"a",%progbits
 311      0080AFF3 
 311      0080
 312              		.align	2
 313              		.type	vmt, %object
 314              		.size	vmt, 32
 315              	vmt:
 316 0000 00000000 		.word	write
 317 0004 00000000 		.word	read
 318 0008 00000000 		.word	put
 319 000c 00000000 		.word	get
 320 0010 00000000 		.word	putt
 321 0014 00000000 		.word	gett
 322 0018 00000000 		.word	writet
 323 001c 00000000 		.word	readt
 324              		.section	.text.sdInit,"ax",%progbits
 325              		.align	2
 326              		.p2align 4,,15
 327              		.global	sdInit
 328              		.thumb
 329              		.thumb_func
 330              		.type	sdInit, %function
 331              	sdInit:
 332              	.LFB126:
 333              		.loc 1 120 0
 334              		.cfi_startproc
 335              		@ args = 0, pretend = 0, frame = 0
 336              		@ frame_needed = 0, uses_anonymous_args = 0
ARM GAS  /tmp/ccMY8SYN.s 			page 7


 337 0000 08B5     		push	{r3, lr}
 338              		.cfi_def_cfa_offset 8
 339              		.cfi_offset 3, -8
 340              		.cfi_offset 14, -4
 341              		.loc 1 122 0
 342 0002 FFF7FEFF 		bl	sd_lld_init
 343              		.loc 1 123 0
 344 0006 08BD     		pop	{r3, pc}
 345              		.cfi_endproc
 346              	.LFE126:
 347              		.size	sdInit, .-sdInit
 348 0008 AFF30080 		.section	.text.sdObjectInit,"ax",%progbits
 348      AFF30080 
 349              		.align	2
 350              		.p2align 4,,15
 351              		.global	sdObjectInit
 352              		.thumb
 353              		.thumb_func
 354              		.type	sdObjectInit, %function
 355              	sdObjectInit:
 356              	.LFB127:
 357              		.loc 1 140 0
 358              		.cfi_startproc
 359              		@ args = 0, pretend = 0, frame = 16
 360              		@ frame_needed = 0, uses_anonymous_args = 0
 361 0000 00B5     		push	{lr}
 362              		.cfi_def_cfa_offset 4
 363              		.cfi_offset 14, -4
 364 0002 87B0     		sub	sp, sp, #28
 365              		.cfi_def_cfa_offset 32
 366 0004 0590     		str	r0, [sp, #20]
 367 0006 0491     		str	r1, [sp, #16]
 368 0008 0392     		str	r2, [sp, #12]
 369              		.loc 1 142 0
 370 000a 059A     		ldr	r2, [sp, #20]
 371 000c 40F20003 		movw	r3, #:lower16:vmt
 372 0010 C0F20003 		movt	r3, #:upper16:vmt
 373 0014 1360     		str	r3, [r2]
 374              		.loc 1 143 0
 375 0016 059B     		ldr	r3, [sp, #20]
 376 0018 1A1D     		adds	r2, r3, #4
 377 001a 059B     		ldr	r3, [sp, #20]
 378 001c 5A60     		str	r2, [r3, #4]
 379              		.loc 1 144 0
 380 001e 059B     		ldr	r3, [sp, #20]
 381 0020 0122     		movs	r2, #1
 382 0022 1A72     		strb	r2, [r3, #8]
 383              		.loc 1 145 0
 384 0024 059B     		ldr	r3, [sp, #20]
 385 0026 03F10C02 		add	r2, r3, #12
 386 002a 059B     		ldr	r3, [sp, #20]
 387 002c 5433     		adds	r3, r3, #84
 388 002e 0599     		ldr	r1, [sp, #20]
 389 0030 0091     		str	r1, [sp]
 390 0032 1046     		mov	r0, r2
 391 0034 1946     		mov	r1, r3
 392 0036 1022     		movs	r2, #16
ARM GAS  /tmp/ccMY8SYN.s 			page 8


 393 0038 049B     		ldr	r3, [sp, #16]
 394 003a FFF7FEFF 		bl	chIQInit
 395              		.loc 1 146 0
 396 003e 059B     		ldr	r3, [sp, #20]
 397 0040 03F13002 		add	r2, r3, #48
 398 0044 059B     		ldr	r3, [sp, #20]
 399 0046 6433     		adds	r3, r3, #100
 400 0048 0599     		ldr	r1, [sp, #20]
 401 004a 0091     		str	r1, [sp]
 402 004c 1046     		mov	r0, r2
 403 004e 1946     		mov	r1, r3
 404 0050 1022     		movs	r2, #16
 405 0052 039B     		ldr	r3, [sp, #12]
 406 0054 FFF7FEFF 		bl	chOQInit
 407              		.loc 1 147 0
 408 0058 07B0     		add	sp, sp, #28
 409              		@ sp needed
 410 005a 5DF804FB 		ldr	pc, [sp], #4
 411              		.cfi_endproc
 412              	.LFE127:
 413              		.size	sdObjectInit, .-sdObjectInit
 414 005e 00BF     		.section	.rodata
 415              		.align	2
 416              	.LC0:
 417 0000 22736453 		.ascii	"\"sdStart\"()\000"
 417      74617274 
 417      22282900 
 418              		.align	2
 419              	.LC1:
 420 000c 73645374 		.ascii	"sdStart(), #1\000"
 420      61727428 
 420      292C2023 
 420      3100
 421              		.section	.text.sdStart,"ax",%progbits
 422              		.align	2
 423              		.p2align 4,,15
 424              		.global	sdStart
 425              		.thumb
 426              		.thumb_func
 427              		.type	sdStart, %function
 428              	sdStart:
 429              	.LFB128:
 430              		.loc 1 159 0
 431              		.cfi_startproc
 432              		@ args = 0, pretend = 0, frame = 8
 433              		@ frame_needed = 0, uses_anonymous_args = 0
 434 0000 00B5     		push	{lr}
 435              		.cfi_def_cfa_offset 4
 436              		.cfi_offset 14, -4
 437 0002 83B0     		sub	sp, sp, #12
 438              		.cfi_def_cfa_offset 16
 439 0004 0190     		str	r0, [sp, #4]
 440 0006 0091     		str	r1, [sp]
 441              		.loc 1 161 0
 442 0008 019B     		ldr	r3, [sp, #4]
 443 000a 002B     		cmp	r3, #0
 444 000c 05D1     		bne	.L20
ARM GAS  /tmp/ccMY8SYN.s 			page 9


 445              		.loc 1 161 0 is_stmt 0 discriminator 1
 446 000e 40F20000 		movw	r0, #:lower16:.LC0
 447 0012 C0F20000 		movt	r0, #:upper16:.LC0
 448 0016 FFF7FEFF 		bl	chDbgPanic
 449              	.L20:
 450              	.LBB2:
 451              		.loc 1 163 0 is_stmt 1
 452 001a 2023     		movs	r3, #32
 453              	@ 163 "../..//os/hal/src/serial.c" 1
 454 001c 83F31188 		msr     BASEPRI, r3
 455              	@ 0 "" 2
 456              		.thumb
 457              	.LBE2:
 458 0020 FFF7FEFF 		bl	dbg_check_lock
 459              		.loc 1 164 0
 460 0024 019B     		ldr	r3, [sp, #4]
 461 0026 1B7A     		ldrb	r3, [r3, #8]	@ zero_extendqisi2
 462 0028 012B     		cmp	r3, #1
 463 002a 09D0     		beq	.L21
 464              		.loc 1 164 0 is_stmt 0 discriminator 1
 465 002c 019B     		ldr	r3, [sp, #4]
 466 002e 1B7A     		ldrb	r3, [r3, #8]	@ zero_extendqisi2
 467 0030 022B     		cmp	r3, #2
 468 0032 05D0     		beq	.L21
 469 0034 40F20000 		movw	r0, #:lower16:.LC1
 470 0038 C0F20000 		movt	r0, #:upper16:.LC1
 471 003c FFF7FEFF 		bl	chDbgPanic
 472              	.L21:
 473              		.loc 1 167 0 is_stmt 1
 474 0040 0198     		ldr	r0, [sp, #4]
 475 0042 0099     		ldr	r1, [sp]
 476 0044 FFF7FEFF 		bl	sd_lld_start
 477              		.loc 1 168 0
 478 0048 019B     		ldr	r3, [sp, #4]
 479 004a 0222     		movs	r2, #2
 480 004c 1A72     		strb	r2, [r3, #8]
 481              		.loc 1 169 0
 482 004e FFF7FEFF 		bl	dbg_check_unlock
 483              	.LBB3:
 484 0052 0023     		movs	r3, #0
 485              	@ 169 "../..//os/hal/src/serial.c" 1
 486 0054 83F31188 		msr     BASEPRI, r3
 487              	@ 0 "" 2
 488              		.thumb
 489              	.LBE3:
 490              		.loc 1 170 0
 491 0058 03B0     		add	sp, sp, #12
 492              		@ sp needed
 493 005a 5DF804FB 		ldr	pc, [sp], #4
 494              		.cfi_endproc
 495              	.LFE128:
 496              		.size	sdStart, .-sdStart
 497 005e 00BF     		.section	.rodata
 498 001a 0000     		.align	2
 499              	.LC2:
 500 001c 22736453 		.ascii	"\"sdStop\"()\000"
 500      746F7022 
ARM GAS  /tmp/ccMY8SYN.s 			page 10


 500      282900
 501 0027 00       		.align	2
 502              	.LC3:
 503 0028 73645374 		.ascii	"sdStop(), #1\000"
 503      6F702829 
 503      2C202331 
 503      00
 504              		.section	.text.sdStop,"ax",%progbits
 505              		.align	2
 506              		.p2align 4,,15
 507              		.global	sdStop
 508              		.thumb
 509              		.thumb_func
 510              		.type	sdStop, %function
 511              	sdStop:
 512              	.LFB129:
 513              		.loc 1 181 0
 514              		.cfi_startproc
 515              		@ args = 0, pretend = 0, frame = 8
 516              		@ frame_needed = 0, uses_anonymous_args = 0
 517 0000 00B5     		push	{lr}
 518              		.cfi_def_cfa_offset 4
 519              		.cfi_offset 14, -4
 520 0002 83B0     		sub	sp, sp, #12
 521              		.cfi_def_cfa_offset 16
 522 0004 0190     		str	r0, [sp, #4]
 523              		.loc 1 183 0
 524 0006 019B     		ldr	r3, [sp, #4]
 525 0008 002B     		cmp	r3, #0
 526 000a 05D1     		bne	.L23
 527              		.loc 1 183 0 is_stmt 0 discriminator 1
 528 000c 40F20000 		movw	r0, #:lower16:.LC2
 529 0010 C0F20000 		movt	r0, #:upper16:.LC2
 530 0014 FFF7FEFF 		bl	chDbgPanic
 531              	.L23:
 532              	.LBB4:
 533              		.loc 1 185 0 is_stmt 1
 534 0018 2023     		movs	r3, #32
 535              	@ 185 "../..//os/hal/src/serial.c" 1
 536 001a 83F31188 		msr     BASEPRI, r3
 537              	@ 0 "" 2
 538              		.thumb
 539              	.LBE4:
 540 001e FFF7FEFF 		bl	dbg_check_lock
 541              		.loc 1 186 0
 542 0022 019B     		ldr	r3, [sp, #4]
 543 0024 1B7A     		ldrb	r3, [r3, #8]	@ zero_extendqisi2
 544 0026 012B     		cmp	r3, #1
 545 0028 09D0     		beq	.L24
 546              		.loc 1 186 0 is_stmt 0 discriminator 1
 547 002a 019B     		ldr	r3, [sp, #4]
 548 002c 1B7A     		ldrb	r3, [r3, #8]	@ zero_extendqisi2
 549 002e 022B     		cmp	r3, #2
 550 0030 05D0     		beq	.L24
 551 0032 40F20000 		movw	r0, #:lower16:.LC3
 552 0036 C0F20000 		movt	r0, #:upper16:.LC3
 553 003a FFF7FEFF 		bl	chDbgPanic
ARM GAS  /tmp/ccMY8SYN.s 			page 11


 554              	.L24:
 555              		.loc 1 189 0 is_stmt 1
 556 003e 0198     		ldr	r0, [sp, #4]
 557 0040 FFF7FEFF 		bl	sd_lld_stop
 558              		.loc 1 190 0
 559 0044 019B     		ldr	r3, [sp, #4]
 560 0046 0122     		movs	r2, #1
 561 0048 1A72     		strb	r2, [r3, #8]
 562              		.loc 1 191 0
 563 004a 019B     		ldr	r3, [sp, #4]
 564 004c 3033     		adds	r3, r3, #48
 565 004e 1846     		mov	r0, r3
 566 0050 FFF7FEFF 		bl	chOQResetI
 567              		.loc 1 192 0
 568 0054 019B     		ldr	r3, [sp, #4]
 569 0056 0C33     		adds	r3, r3, #12
 570 0058 1846     		mov	r0, r3
 571 005a FFF7FEFF 		bl	chIQResetI
 572              		.loc 1 193 0
 573 005e FFF7FEFF 		bl	chSchRescheduleS
 574              		.loc 1 194 0
 575 0062 FFF7FEFF 		bl	dbg_check_unlock
 576              	.LBB5:
 577 0066 0023     		movs	r3, #0
 578              	@ 194 "../..//os/hal/src/serial.c" 1
 579 0068 83F31188 		msr     BASEPRI, r3
 580              	@ 0 "" 2
 581              		.thumb
 582              	.LBE5:
 583              		.loc 1 195 0
 584 006c 03B0     		add	sp, sp, #12
 585              		@ sp needed
 586 006e 5DF804FB 		ldr	pc, [sp], #4
 587              		.cfi_endproc
 588              	.LFE129:
 589              		.size	sdStop, .-sdStop
 590 0072 00BFAFF3 		.section	.rodata
 590      0080AFF3 
 590      0080AFF3 
 590      0080
 591 0035 000000   		.align	2
 592              	.LC4:
 593 0038 22736449 		.ascii	"\"sdIncomingDataI\"()\000"
 593      6E636F6D 
 593      696E6744 
 593      61746149 
 593      22282900 
 594              		.section	.text.sdIncomingDataI,"ax",%progbits
 595              		.align	2
 596              		.p2align 4,,15
 597              		.global	sdIncomingDataI
 598              		.thumb
 599              		.thumb_func
 600              		.type	sdIncomingDataI, %function
 601              	sdIncomingDataI:
 602              	.LFB130:
 603              		.loc 1 213 0
ARM GAS  /tmp/ccMY8SYN.s 			page 12


 604              		.cfi_startproc
 605              		@ args = 0, pretend = 0, frame = 8
 606              		@ frame_needed = 0, uses_anonymous_args = 0
 607 0000 00B5     		push	{lr}
 608              		.cfi_def_cfa_offset 4
 609              		.cfi_offset 14, -4
 610 0002 83B0     		sub	sp, sp, #12
 611              		.cfi_def_cfa_offset 16
 612 0004 0190     		str	r0, [sp, #4]
 613 0006 0B46     		mov	r3, r1
 614 0008 8DF80330 		strb	r3, [sp, #3]
 615              		.loc 1 215 0
 616 000c FFF7FEFF 		bl	chDbgCheckClassI
 617              		.loc 1 216 0
 618 0010 019B     		ldr	r3, [sp, #4]
 619 0012 002B     		cmp	r3, #0
 620 0014 05D1     		bne	.L26
 621              		.loc 1 216 0 is_stmt 0 discriminator 1
 622 0016 40F20000 		movw	r0, #:lower16:.LC4
 623 001a C0F20000 		movt	r0, #:upper16:.LC4
 624 001e FFF7FEFF 		bl	chDbgPanic
 625              	.L26:
 626              		.loc 1 218 0 is_stmt 1
 627 0022 019B     		ldr	r3, [sp, #4]
 628 0024 5B69     		ldr	r3, [r3, #20]
 629 0026 002B     		cmp	r3, #0
 630 0028 05D1     		bne	.L27
 631              		.loc 1 219 0
 632 002a 019B     		ldr	r3, [sp, #4]
 633 002c 0433     		adds	r3, r3, #4
 634 002e 1846     		mov	r0, r3
 635 0030 0421     		movs	r1, #4
 636 0032 FFF7FEFF 		bl	chEvtBroadcastFlagsI
 637              	.L27:
 638              		.loc 1 220 0
 639 0036 019B     		ldr	r3, [sp, #4]
 640 0038 03F10C02 		add	r2, r3, #12
 641 003c 9DF80330 		ldrb	r3, [sp, #3]	@ zero_extendqisi2
 642 0040 1046     		mov	r0, r2
 643 0042 1946     		mov	r1, r3
 644 0044 FFF7FEFF 		bl	chIQPutI
 645 0048 0346     		mov	r3, r0
 646 004a 002B     		cmp	r3, #0
 647 004c 05DA     		bge	.L25
 648              		.loc 1 221 0
 649 004e 019B     		ldr	r3, [sp, #4]
 650 0050 0433     		adds	r3, r3, #4
 651 0052 1846     		mov	r0, r3
 652 0054 8021     		movs	r1, #128
 653 0056 FFF7FEFF 		bl	chEvtBroadcastFlagsI
 654              	.L25:
 655              		.loc 1 222 0
 656 005a 03B0     		add	sp, sp, #12
 657              		@ sp needed
 658 005c 5DF804FB 		ldr	pc, [sp], #4
 659              		.cfi_endproc
 660              	.LFE130:
ARM GAS  /tmp/ccMY8SYN.s 			page 13


 661              		.size	sdIncomingDataI, .-sdIncomingDataI
 662              		.section	.rodata
 663              		.align	2
 664              	.LC5:
 665 004c 22736452 		.ascii	"\"sdRequestDataI\"()\000"
 665      65717565 
 665      73744461 
 665      74614922 
 665      282900
 666 005f 00       		.section	.text.sdRequestDataI,"ax",%progbits
 667              		.align	2
 668              		.p2align 4,,15
 669              		.global	sdRequestDataI
 670              		.thumb
 671              		.thumb_func
 672              		.type	sdRequestDataI, %function
 673              	sdRequestDataI:
 674              	.LFB131:
 675              		.loc 1 239 0
 676              		.cfi_startproc
 677              		@ args = 0, pretend = 0, frame = 16
 678              		@ frame_needed = 0, uses_anonymous_args = 0
 679 0000 00B5     		push	{lr}
 680              		.cfi_def_cfa_offset 4
 681              		.cfi_offset 14, -4
 682 0002 85B0     		sub	sp, sp, #20
 683              		.cfi_def_cfa_offset 24
 684 0004 0190     		str	r0, [sp, #4]
 685              		.loc 1 242 0
 686 0006 FFF7FEFF 		bl	chDbgCheckClassI
 687              		.loc 1 243 0
 688 000a 019B     		ldr	r3, [sp, #4]
 689 000c 002B     		cmp	r3, #0
 690 000e 05D1     		bne	.L30
 691              		.loc 1 243 0 is_stmt 0 discriminator 1
 692 0010 40F20000 		movw	r0, #:lower16:.LC5
 693 0014 C0F20000 		movt	r0, #:upper16:.LC5
 694 0018 FFF7FEFF 		bl	chDbgPanic
 695              	.L30:
 696              		.loc 1 245 0 is_stmt 1
 697 001c 019B     		ldr	r3, [sp, #4]
 698 001e 3033     		adds	r3, r3, #48
 699 0020 1846     		mov	r0, r3
 700 0022 FFF7FEFF 		bl	chOQGetI
 701 0026 0390     		str	r0, [sp, #12]
 702              		.loc 1 246 0
 703 0028 039B     		ldr	r3, [sp, #12]
 704 002a 002B     		cmp	r3, #0
 705 002c 05DA     		bge	.L31
 706              		.loc 1 247 0
 707 002e 019B     		ldr	r3, [sp, #4]
 708 0030 0433     		adds	r3, r3, #4
 709 0032 1846     		mov	r0, r3
 710 0034 0821     		movs	r1, #8
 711 0036 FFF7FEFF 		bl	chEvtBroadcastFlagsI
 712              	.L31:
 713              		.loc 1 248 0
ARM GAS  /tmp/ccMY8SYN.s 			page 14


 714 003a 039B     		ldr	r3, [sp, #12]
 715              		.loc 1 249 0
 716 003c 1846     		mov	r0, r3
 717 003e 05B0     		add	sp, sp, #20
 718              		@ sp needed
 719 0040 5DF804FB 		ldr	pc, [sp], #4
 720              		.cfi_endproc
 721              	.LFE131:
 722              		.size	sdRequestDataI, .-sdRequestDataI
 723 0044 AFF30080 		.text
 723      AFF30080 
 723      AFF30080 
 724              	.Letext0:
 725              		.file 2 "/usr/lib/gcc/arm-none-eabi/4.8.2/include/stddef.h"
 726              		.file 3 "/usr/arm-none-eabi/include/machine/_default_types.h"
 727              		.file 4 "/usr/arm-none-eabi/include/stdint.h"
 728              		.file 5 "../..//os/ports/GCC/ARMCMx/chtypes.h"
 729              		.file 6 "../..//os/kernel/include/chlists.h"
 730              		.file 7 "../..//os/kernel/include/chthreads.h"
 731              		.file 8 "../..//os/ports/GCC/ARMCMx/chcore_v7m.h"
 732              		.file 9 "../..//os/kernel/include/chmtx.h"
 733              		.file 10 "../..//os/kernel/include/chevents.h"
 734              		.file 11 "../..//os/kernel/include/chqueues.h"
 735              		.file 12 "../..//os/hal/platforms/STM32F4xx/stm32f4xx.h"
 736              		.file 13 "../..//os/hal/include/serial.h"
 737              		.file 14 "../..//os/hal/platforms/STM32/USARTv1/serial_lld.h"
 738              		.file 15 "../..//os/ports/common/ARMCMx/CMSIS/include/core_cm4.h"
 739              		.section	.debug_info,"",%progbits
 740              	.Ldebug_info0:
 741 0000 FE0B0000 		.4byte	0xbfe
 742 0004 0400     		.2byte	0x4
 743 0006 00000000 		.4byte	.Ldebug_abbrev0
 744 000a 04       		.byte	0x4
 745 000b 01       		.uleb128 0x1
 746 000c F6000000 		.4byte	.LASF124
 747 0010 01       		.byte	0x1
 748 0011 93010000 		.4byte	.LASF125
 749 0015 1B030000 		.4byte	.LASF126
 750 0019 00000000 		.4byte	.Ldebug_ranges0+0
 751 001d 00000000 		.4byte	0
 752 0021 00000000 		.4byte	.Ldebug_line0
 753 0025 02       		.uleb128 0x2
 754 0026 04       		.byte	0x4
 755 0027 05       		.byte	0x5
 756 0028 696E7400 		.ascii	"int\000"
 757 002c 03       		.uleb128 0x3
 758 002d 00000000 		.4byte	.LASF2
 759 0031 02       		.byte	0x2
 760 0032 D4       		.byte	0xd4
 761 0033 37000000 		.4byte	0x37
 762 0037 04       		.uleb128 0x4
 763 0038 04       		.byte	0x4
 764 0039 07       		.byte	0x7
 765 003a C9010000 		.4byte	.LASF0
 766 003e 04       		.uleb128 0x4
 767 003f 01       		.byte	0x1
 768 0040 06       		.byte	0x6
ARM GAS  /tmp/ccMY8SYN.s 			page 15


 769 0041 85000000 		.4byte	.LASF1
 770 0045 03       		.uleb128 0x3
 771 0046 23000000 		.4byte	.LASF3
 772 004a 03       		.byte	0x3
 773 004b 1C       		.byte	0x1c
 774 004c 50000000 		.4byte	0x50
 775 0050 04       		.uleb128 0x4
 776 0051 01       		.byte	0x1
 777 0052 08       		.byte	0x8
 778 0053 CA030000 		.4byte	.LASF4
 779 0057 04       		.uleb128 0x4
 780 0058 02       		.byte	0x2
 781 0059 05       		.byte	0x5
 782 005a FF030000 		.4byte	.LASF5
 783 005e 03       		.uleb128 0x3
 784 005f BA040000 		.4byte	.LASF6
 785 0063 03       		.byte	0x3
 786 0064 26       		.byte	0x26
 787 0065 69000000 		.4byte	0x69
 788 0069 04       		.uleb128 0x4
 789 006a 02       		.byte	0x2
 790 006b 07       		.byte	0x7
 791 006c 1C020000 		.4byte	.LASF7
 792 0070 03       		.uleb128 0x3
 793 0071 E1040000 		.4byte	.LASF8
 794 0075 03       		.byte	0x3
 795 0076 37       		.byte	0x37
 796 0077 7B000000 		.4byte	0x7b
 797 007b 04       		.uleb128 0x4
 798 007c 04       		.byte	0x4
 799 007d 05       		.byte	0x5
 800 007e BD000000 		.4byte	.LASF9
 801 0082 03       		.uleb128 0x3
 802 0083 EB040000 		.4byte	.LASF10
 803 0087 03       		.byte	0x3
 804 0088 38       		.byte	0x38
 805 0089 8D000000 		.4byte	0x8d
 806 008d 04       		.uleb128 0x4
 807 008e 04       		.byte	0x4
 808 008f 07       		.byte	0x7
 809 0090 7F040000 		.4byte	.LASF11
 810 0094 04       		.uleb128 0x4
 811 0095 08       		.byte	0x8
 812 0096 05       		.byte	0x5
 813 0097 77000000 		.4byte	.LASF12
 814 009b 03       		.uleb128 0x3
 815 009c 10030000 		.4byte	.LASF13
 816 00a0 03       		.byte	0x3
 817 00a1 4E       		.byte	0x4e
 818 00a2 A6000000 		.4byte	0xa6
 819 00a6 04       		.uleb128 0x4
 820 00a7 08       		.byte	0x8
 821 00a8 07       		.byte	0x7
 822 00a9 2D000000 		.4byte	.LASF14
 823 00ad 03       		.uleb128 0x3
 824 00ae 47050000 		.4byte	.LASF15
 825 00b2 04       		.byte	0x4
ARM GAS  /tmp/ccMY8SYN.s 			page 16


 826 00b3 2A       		.byte	0x2a
 827 00b4 45000000 		.4byte	0x45
 828 00b8 03       		.uleb128 0x3
 829 00b9 D6010000 		.4byte	.LASF16
 830 00bd 04       		.byte	0x4
 831 00be 36       		.byte	0x36
 832 00bf 5E000000 		.4byte	0x5e
 833 00c3 03       		.uleb128 0x3
 834 00c4 C2030000 		.4byte	.LASF17
 835 00c8 04       		.byte	0x4
 836 00c9 41       		.byte	0x41
 837 00ca 70000000 		.4byte	0x70
 838 00ce 03       		.uleb128 0x3
 839 00cf 5F040000 		.4byte	.LASF18
 840 00d3 04       		.byte	0x4
 841 00d4 42       		.byte	0x42
 842 00d5 82000000 		.4byte	0x82
 843 00d9 03       		.uleb128 0x3
 844 00da 0E000000 		.4byte	.LASF19
 845 00de 04       		.byte	0x4
 846 00df 4E       		.byte	0x4e
 847 00e0 9B000000 		.4byte	0x9b
 848 00e4 03       		.uleb128 0x3
 849 00e5 9E000000 		.4byte	.LASF20
 850 00e9 05       		.byte	0x5
 851 00ea 2B       		.byte	0x2b
 852 00eb EF000000 		.4byte	0xef
 853 00ef 04       		.uleb128 0x4
 854 00f0 01       		.byte	0x1
 855 00f1 02       		.byte	0x2
 856 00f2 BC030000 		.4byte	.LASF21
 857 00f6 03       		.uleb128 0x3
 858 00f7 51020000 		.4byte	.LASF22
 859 00fb 05       		.byte	0x5
 860 00fc 2C       		.byte	0x2c
 861 00fd AD000000 		.4byte	0xad
 862 0101 03       		.uleb128 0x3
 863 0102 C6000000 		.4byte	.LASF23
 864 0106 05       		.byte	0x5
 865 0107 2D       		.byte	0x2d
 866 0108 AD000000 		.4byte	0xad
 867 010c 03       		.uleb128 0x3
 868 010d 61030000 		.4byte	.LASF24
 869 0111 05       		.byte	0x5
 870 0112 2E       		.byte	0x2e
 871 0113 AD000000 		.4byte	0xad
 872 0117 03       		.uleb128 0x3
 873 0118 AD000000 		.4byte	.LASF25
 874 011c 05       		.byte	0x5
 875 011d 2F       		.byte	0x2f
 876 011e AD000000 		.4byte	0xad
 877 0122 03       		.uleb128 0x3
 878 0123 AC030000 		.4byte	.LASF26
 879 0127 05       		.byte	0x5
 880 0128 30       		.byte	0x30
 881 0129 CE000000 		.4byte	0xce
 882 012d 03       		.uleb128 0x3
ARM GAS  /tmp/ccMY8SYN.s 			page 17


 883 012e 2F020000 		.4byte	.LASF27
 884 0132 05       		.byte	0x5
 885 0133 31       		.byte	0x31
 886 0134 C3000000 		.4byte	0xc3
 887 0138 03       		.uleb128 0x3
 888 0139 65020000 		.4byte	.LASF28
 889 013d 05       		.byte	0x5
 890 013e 33       		.byte	0x33
 891 013f CE000000 		.4byte	0xce
 892 0143 03       		.uleb128 0x3
 893 0144 0E050000 		.4byte	.LASF29
 894 0148 05       		.byte	0x5
 895 0149 34       		.byte	0x34
 896 014a CE000000 		.4byte	0xce
 897 014e 03       		.uleb128 0x3
 898 014f CC040000 		.4byte	.LASF30
 899 0153 05       		.byte	0x5
 900 0154 35       		.byte	0x35
 901 0155 CE000000 		.4byte	0xce
 902 0159 03       		.uleb128 0x3
 903 015a 39040000 		.4byte	.LASF31
 904 015e 06       		.byte	0x6
 905 015f 2A       		.byte	0x2a
 906 0160 64010000 		.4byte	0x164
 907 0164 05       		.uleb128 0x5
 908 0165 39040000 		.4byte	.LASF31
 909 0169 4C       		.byte	0x4c
 910 016a 07       		.byte	0x7
 911 016b 5E       		.byte	0x5e
 912 016c 6D020000 		.4byte	0x26d
 913 0170 06       		.uleb128 0x6
 914 0171 1A040000 		.4byte	.LASF32
 915 0175 07       		.byte	0x7
 916 0176 5F       		.byte	0x5f
 917 0177 8E020000 		.4byte	0x28e
 918 017b 00       		.byte	0
 919 017c 06       		.uleb128 0x6
 920 017d 9B030000 		.4byte	.LASF33
 921 0181 07       		.byte	0x7
 922 0182 61       		.byte	0x61
 923 0183 8E020000 		.4byte	0x28e
 924 0187 04       		.byte	0x4
 925 0188 06       		.uleb128 0x6
 926 0189 C8020000 		.4byte	.LASF34
 927 018d 07       		.byte	0x7
 928 018e 63       		.byte	0x63
 929 018f 22010000 		.4byte	0x122
 930 0193 08       		.byte	0x8
 931 0194 06       		.uleb128 0x6
 932 0195 88050000 		.4byte	.LASF35
 933 0199 07       		.byte	0x7
 934 019a 64       		.byte	0x64
 935 019b 53030000 		.4byte	0x353
 936 019f 0C       		.byte	0xc
 937 01a0 06       		.uleb128 0x6
 938 01a1 EE000000 		.4byte	.LASF36
 939 01a5 07       		.byte	0x7
ARM GAS  /tmp/ccMY8SYN.s 			page 18


 940 01a6 66       		.byte	0x66
 941 01a7 8E020000 		.4byte	0x28e
 942 01ab 10       		.byte	0x10
 943 01ac 06       		.uleb128 0x6
 944 01ad D7020000 		.4byte	.LASF37
 945 01b1 07       		.byte	0x7
 946 01b2 67       		.byte	0x67
 947 01b3 8E020000 		.4byte	0x28e
 948 01b7 14       		.byte	0x14
 949 01b8 06       		.uleb128 0x6
 950 01b9 20050000 		.4byte	.LASF38
 951 01bd 07       		.byte	0x7
 952 01be 6E       		.byte	0x6e
 953 01bf 69040000 		.4byte	0x469
 954 01c3 18       		.byte	0x18
 955 01c4 06       		.uleb128 0x6
 956 01c5 EC020000 		.4byte	.LASF39
 957 01c9 07       		.byte	0x7
 958 01ca 74       		.byte	0x74
 959 01cb 7B040000 		.4byte	0x47b
 960 01cf 1C       		.byte	0x1c
 961 01d0 06       		.uleb128 0x6
 962 01d1 ED030000 		.4byte	.LASF40
 963 01d5 07       		.byte	0x7
 964 01d6 79       		.byte	0x79
 965 01d7 01010000 		.4byte	0x101
 966 01db 20       		.byte	0x20
 967 01dc 06       		.uleb128 0x6
 968 01dd 21040000 		.4byte	.LASF41
 969 01e1 07       		.byte	0x7
 970 01e2 7D       		.byte	0x7d
 971 01e3 F6000000 		.4byte	0xf6
 972 01e7 21       		.byte	0x21
 973 01e8 06       		.uleb128 0x6
 974 01e9 CF000000 		.4byte	.LASF42
 975 01ed 07       		.byte	0x7
 976 01ee 82       		.byte	0x82
 977 01ef 0C010000 		.4byte	0x10c
 978 01f3 22       		.byte	0x22
 979 01f4 06       		.uleb128 0x6
 980 01f5 09040000 		.4byte	.LASF43
 981 01f9 07       		.byte	0x7
 982 01fa 88       		.byte	0x88
 983 01fb 17010000 		.4byte	0x117
 984 01ff 23       		.byte	0x23
 985 0200 06       		.uleb128 0x6
 986 0201 E7000000 		.4byte	.LASF44
 987 0205 07       		.byte	0x7
 988 0206 8F       		.byte	0x8f
 989 0207 7B030000 		.4byte	0x37b
 990 020b 24       		.byte	0x24
 991 020c 07       		.uleb128 0x7
 992 020d 705F7500 		.ascii	"p_u\000"
 993 0211 07       		.byte	0x7
 994 0212 B4       		.byte	0xb4
 995 0213 34040000 		.4byte	0x434
 996 0217 28       		.byte	0x28
ARM GAS  /tmp/ccMY8SYN.s 			page 19


 997 0218 06       		.uleb128 0x6
 998 0219 8E050000 		.4byte	.LASF45
 999 021d 07       		.byte	0x7
 1000 021e B9       		.byte	0xb9
 1001 021f B4020000 		.4byte	0x2b4
 1002 0223 2C       		.byte	0x2c
 1003 0224 06       		.uleb128 0x6
 1004 0225 FE010000 		.4byte	.LASF46
 1005 0229 07       		.byte	0x7
 1006 022a BF       		.byte	0xbf
 1007 022b 94020000 		.4byte	0x294
 1008 022f 30       		.byte	0x30
 1009 0230 06       		.uleb128 0x6
 1010 0231 6C050000 		.4byte	.LASF47
 1011 0235 07       		.byte	0x7
 1012 0236 C3       		.byte	0xc3
 1013 0237 2D010000 		.4byte	0x12d
 1014 023b 38       		.byte	0x38
 1015 023c 06       		.uleb128 0x6
 1016 023d 40040000 		.4byte	.LASF48
 1017 0241 07       		.byte	0x7
 1018 0242 C9       		.byte	0xc9
 1019 0243 38010000 		.4byte	0x138
 1020 0247 3C       		.byte	0x3c
 1021 0248 06       		.uleb128 0x6
 1022 0249 F5030000 		.4byte	.LASF49
 1023 024d 07       		.byte	0x7
 1024 024e D0       		.byte	0xd0
 1025 024f 81040000 		.4byte	0x481
 1026 0253 40       		.byte	0x40
 1027 0254 06       		.uleb128 0x6
 1028 0255 D6040000 		.4byte	.LASF50
 1029 0259 07       		.byte	0x7
 1030 025a D4       		.byte	0xd4
 1031 025b 22010000 		.4byte	0x122
 1032 025f 44       		.byte	0x44
 1033 0260 06       		.uleb128 0x6
 1034 0261 96000000 		.4byte	.LASF51
 1035 0265 07       		.byte	0x7
 1036 0266 DA       		.byte	0xda
 1037 0267 CA020000 		.4byte	0x2ca
 1038 026b 48       		.byte	0x48
 1039 026c 00       		.byte	0
 1040 026d 08       		.uleb128 0x8
 1041 026e 08       		.byte	0x8
 1042 026f 06       		.byte	0x6
 1043 0270 61       		.byte	0x61
 1044 0271 8E020000 		.4byte	0x28e
 1045 0275 06       		.uleb128 0x6
 1046 0276 1A040000 		.4byte	.LASF32
 1047 027a 06       		.byte	0x6
 1048 027b 62       		.byte	0x62
 1049 027c 8E020000 		.4byte	0x28e
 1050 0280 00       		.byte	0
 1051 0281 06       		.uleb128 0x6
 1052 0282 9B030000 		.4byte	.LASF33
 1053 0286 06       		.byte	0x6
ARM GAS  /tmp/ccMY8SYN.s 			page 20


 1054 0287 64       		.byte	0x64
 1055 0288 8E020000 		.4byte	0x28e
 1056 028c 04       		.byte	0x4
 1057 028d 00       		.byte	0
 1058 028e 09       		.uleb128 0x9
 1059 028f 04       		.byte	0x4
 1060 0290 59010000 		.4byte	0x159
 1061 0294 03       		.uleb128 0x3
 1062 0295 DF020000 		.4byte	.LASF52
 1063 0299 06       		.byte	0x6
 1064 029a 66       		.byte	0x66
 1065 029b 6D020000 		.4byte	0x26d
 1066 029f 08       		.uleb128 0x8
 1067 02a0 04       		.byte	0x4
 1068 02a1 06       		.byte	0x6
 1069 02a2 6B       		.byte	0x6b
 1070 02a3 B4020000 		.4byte	0x2b4
 1071 02a7 06       		.uleb128 0x6
 1072 02a8 1A040000 		.4byte	.LASF32
 1073 02ac 06       		.byte	0x6
 1074 02ad 6D       		.byte	0x6d
 1075 02ae 8E020000 		.4byte	0x28e
 1076 02b2 00       		.byte	0
 1077 02b3 00       		.byte	0
 1078 02b4 03       		.uleb128 0x3
 1079 02b5 59020000 		.4byte	.LASF53
 1080 02b9 06       		.byte	0x6
 1081 02ba 70       		.byte	0x70
 1082 02bb 9F020000 		.4byte	0x29f
 1083 02bf 03       		.uleb128 0x3
 1084 02c0 AE010000 		.4byte	.LASF54
 1085 02c4 08       		.byte	0x8
 1086 02c5 E5       		.byte	0xe5
 1087 02c6 CA020000 		.4byte	0x2ca
 1088 02ca 0A       		.uleb128 0xa
 1089 02cb 04       		.byte	0x4
 1090 02cc 03       		.uleb128 0x3
 1091 02cd 99020000 		.4byte	.LASF55
 1092 02d1 08       		.byte	0x8
 1093 02d2 EB       		.byte	0xeb
 1094 02d3 D9000000 		.4byte	0xd9
 1095 02d7 0B       		.uleb128 0xb
 1096 02d8 FE040000 		.4byte	.LASF56
 1097 02dc 24       		.byte	0x24
 1098 02dd 08       		.byte	0x8
 1099 02de 0C01     		.2byte	0x10c
 1100 02e0 53030000 		.4byte	0x353
 1101 02e4 0C       		.uleb128 0xc
 1102 02e5 723400   		.ascii	"r4\000"
 1103 02e8 08       		.byte	0x8
 1104 02e9 1F01     		.2byte	0x11f
 1105 02eb BF020000 		.4byte	0x2bf
 1106 02ef 00       		.byte	0
 1107 02f0 0C       		.uleb128 0xc
 1108 02f1 723500   		.ascii	"r5\000"
 1109 02f4 08       		.byte	0x8
 1110 02f5 2001     		.2byte	0x120
ARM GAS  /tmp/ccMY8SYN.s 			page 21


 1111 02f7 BF020000 		.4byte	0x2bf
 1112 02fb 04       		.byte	0x4
 1113 02fc 0C       		.uleb128 0xc
 1114 02fd 723600   		.ascii	"r6\000"
 1115 0300 08       		.byte	0x8
 1116 0301 2101     		.2byte	0x121
 1117 0303 BF020000 		.4byte	0x2bf
 1118 0307 08       		.byte	0x8
 1119 0308 0C       		.uleb128 0xc
 1120 0309 723700   		.ascii	"r7\000"
 1121 030c 08       		.byte	0x8
 1122 030d 2201     		.2byte	0x122
 1123 030f BF020000 		.4byte	0x2bf
 1124 0313 0C       		.byte	0xc
 1125 0314 0C       		.uleb128 0xc
 1126 0315 723800   		.ascii	"r8\000"
 1127 0318 08       		.byte	0x8
 1128 0319 2301     		.2byte	0x123
 1129 031b BF020000 		.4byte	0x2bf
 1130 031f 10       		.byte	0x10
 1131 0320 0C       		.uleb128 0xc
 1132 0321 723900   		.ascii	"r9\000"
 1133 0324 08       		.byte	0x8
 1134 0325 2401     		.2byte	0x124
 1135 0327 BF020000 		.4byte	0x2bf
 1136 032b 14       		.byte	0x14
 1137 032c 0C       		.uleb128 0xc
 1138 032d 72313000 		.ascii	"r10\000"
 1139 0331 08       		.byte	0x8
 1140 0332 2501     		.2byte	0x125
 1141 0334 BF020000 		.4byte	0x2bf
 1142 0338 18       		.byte	0x18
 1143 0339 0C       		.uleb128 0xc
 1144 033a 72313100 		.ascii	"r11\000"
 1145 033e 08       		.byte	0x8
 1146 033f 2601     		.2byte	0x126
 1147 0341 BF020000 		.4byte	0x2bf
 1148 0345 1C       		.byte	0x1c
 1149 0346 0C       		.uleb128 0xc
 1150 0347 6C7200   		.ascii	"lr\000"
 1151 034a 08       		.byte	0x8
 1152 034b 2701     		.2byte	0x127
 1153 034d BF020000 		.4byte	0x2bf
 1154 0351 20       		.byte	0x20
 1155 0352 00       		.byte	0
 1156 0353 0B       		.uleb128 0xb
 1157 0354 F6040000 		.4byte	.LASF57
 1158 0358 04       		.byte	0x4
 1159 0359 08       		.byte	0x8
 1160 035a 3101     		.2byte	0x131
 1161 035c 6E030000 		.4byte	0x36e
 1162 0360 0C       		.uleb128 0xc
 1163 0361 72313300 		.ascii	"r13\000"
 1164 0365 08       		.byte	0x8
 1165 0366 3201     		.2byte	0x132
 1166 0368 6E030000 		.4byte	0x36e
 1167 036c 00       		.byte	0
ARM GAS  /tmp/ccMY8SYN.s 			page 22


 1168 036d 00       		.byte	0
 1169 036e 09       		.uleb128 0x9
 1170 036f 04       		.byte	0x4
 1171 0370 D7020000 		.4byte	0x2d7
 1172 0374 04       		.uleb128 0x4
 1173 0375 04       		.byte	0x4
 1174 0376 07       		.byte	0x7
 1175 0377 AF020000 		.4byte	.LASF58
 1176 037b 0D       		.uleb128 0xd
 1177 037c 4E010000 		.4byte	0x14e
 1178 0380 05       		.uleb128 0x5
 1179 0381 C2020000 		.4byte	.LASF59
 1180 0385 10       		.byte	0x10
 1181 0386 09       		.byte	0x9
 1182 0387 2C       		.byte	0x2c
 1183 0388 B1030000 		.4byte	0x3b1
 1184 038c 06       		.uleb128 0x6
 1185 038d A5000000 		.4byte	.LASF60
 1186 0391 09       		.byte	0x9
 1187 0392 2D       		.byte	0x2d
 1188 0393 94020000 		.4byte	0x294
 1189 0397 00       		.byte	0
 1190 0398 06       		.uleb128 0x6
 1191 0399 80050000 		.4byte	.LASF61
 1192 039d 09       		.byte	0x9
 1193 039e 2F       		.byte	0x2f
 1194 039f 8E020000 		.4byte	0x28e
 1195 03a3 08       		.byte	0x8
 1196 03a4 06       		.uleb128 0x6
 1197 03a5 C5040000 		.4byte	.LASF62
 1198 03a9 09       		.byte	0x9
 1199 03aa 31       		.byte	0x31
 1200 03ab B1030000 		.4byte	0x3b1
 1201 03af 0C       		.byte	0xc
 1202 03b0 00       		.byte	0
 1203 03b1 09       		.uleb128 0x9
 1204 03b2 04       		.byte	0x4
 1205 03b3 80030000 		.4byte	0x380
 1206 03b7 03       		.uleb128 0x3
 1207 03b8 C2020000 		.4byte	.LASF59
 1208 03bc 09       		.byte	0x9
 1209 03bd 33       		.byte	0x33
 1210 03be 80030000 		.4byte	0x380
 1211 03c2 03       		.uleb128 0x3
 1212 03c3 57050000 		.4byte	.LASF63
 1213 03c7 0A       		.byte	0xa
 1214 03c8 2C       		.byte	0x2c
 1215 03c9 CD030000 		.4byte	0x3cd
 1216 03cd 05       		.uleb128 0x5
 1217 03ce 57050000 		.4byte	.LASF63
 1218 03d2 10       		.byte	0x10
 1219 03d3 0A       		.byte	0xa
 1220 03d4 31       		.byte	0x31
 1221 03d5 0A040000 		.4byte	0x40a
 1222 03d9 06       		.uleb128 0x6
 1223 03da 29040000 		.4byte	.LASF64
 1224 03de 0A       		.byte	0xa
ARM GAS  /tmp/ccMY8SYN.s 			page 23


 1225 03df 32       		.byte	0x32
 1226 03e0 0A040000 		.4byte	0x40a
 1227 03e4 00       		.byte	0
 1228 03e5 06       		.uleb128 0x6
 1229 03e6 D8030000 		.4byte	.LASF65
 1230 03ea 0A       		.byte	0xa
 1231 03eb 35       		.byte	0x35
 1232 03ec 8E020000 		.4byte	0x28e
 1233 03f0 04       		.byte	0x4
 1234 03f1 06       		.uleb128 0x6
 1235 03f2 CF020000 		.4byte	.LASF66
 1236 03f6 0A       		.byte	0xa
 1237 03f7 37       		.byte	0x37
 1238 03f8 38010000 		.4byte	0x138
 1239 03fc 08       		.byte	0x8
 1240 03fd 06       		.uleb128 0x6
 1241 03fe E4030000 		.4byte	.LASF67
 1242 0402 0A       		.byte	0xa
 1243 0403 3A       		.byte	0x3a
 1244 0404 43010000 		.4byte	0x143
 1245 0408 0C       		.byte	0xc
 1246 0409 00       		.byte	0
 1247 040a 09       		.uleb128 0x9
 1248 040b 04       		.byte	0x4
 1249 040c C2030000 		.4byte	0x3c2
 1250 0410 05       		.uleb128 0x5
 1251 0411 B7010000 		.4byte	.LASF68
 1252 0415 04       		.byte	0x4
 1253 0416 0A       		.byte	0xa
 1254 0417 41       		.byte	0x41
 1255 0418 29040000 		.4byte	0x429
 1256 041c 06       		.uleb128 0x6
 1257 041d 27050000 		.4byte	.LASF69
 1258 0421 0A       		.byte	0xa
 1259 0422 42       		.byte	0x42
 1260 0423 0A040000 		.4byte	0x40a
 1261 0427 00       		.byte	0
 1262 0428 00       		.byte	0
 1263 0429 03       		.uleb128 0x3
 1264 042a B7010000 		.4byte	.LASF68
 1265 042e 0A       		.byte	0xa
 1266 042f 45       		.byte	0x45
 1267 0430 10040000 		.4byte	0x410
 1268 0434 0E       		.uleb128 0xe
 1269 0435 04       		.byte	0x4
 1270 0436 07       		.byte	0x7
 1271 0437 96       		.byte	0x96
 1272 0438 69040000 		.4byte	0x469
 1273 043c 0F       		.uleb128 0xf
 1274 043d 07000000 		.4byte	.LASF70
 1275 0441 07       		.byte	0x7
 1276 0442 9D       		.byte	0x9d
 1277 0443 2D010000 		.4byte	0x12d
 1278 0447 0F       		.uleb128 0xf
 1279 0448 44000000 		.4byte	.LASF71
 1280 044c 07       		.byte	0x7
 1281 044d A4       		.byte	0xa4
ARM GAS  /tmp/ccMY8SYN.s 			page 24


 1282 044e 2D010000 		.4byte	0x12d
 1283 0452 0F       		.uleb128 0xf
 1284 0453 65050000 		.4byte	.LASF72
 1285 0457 07       		.byte	0x7
 1286 0458 AB       		.byte	0xab
 1287 0459 CA020000 		.4byte	0x2ca
 1288 045d 0F       		.uleb128 0xf
 1289 045e 13040000 		.4byte	.LASF73
 1290 0462 07       		.byte	0x7
 1291 0463 B2       		.byte	0xb2
 1292 0464 38010000 		.4byte	0x138
 1293 0468 00       		.byte	0
 1294 0469 09       		.uleb128 0x9
 1295 046a 04       		.byte	0x4
 1296 046b 6F040000 		.4byte	0x46f
 1297 046f 10       		.uleb128 0x10
 1298 0470 74040000 		.4byte	0x474
 1299 0474 04       		.uleb128 0x4
 1300 0475 01       		.byte	0x1
 1301 0476 08       		.byte	0x8
 1302 0477 96040000 		.4byte	.LASF74
 1303 047b 09       		.uleb128 0x9
 1304 047c 04       		.byte	0x4
 1305 047d CC020000 		.4byte	0x2cc
 1306 0481 09       		.uleb128 0x9
 1307 0482 04       		.byte	0x4
 1308 0483 B7030000 		.4byte	0x3b7
 1309 0487 09       		.uleb128 0x9
 1310 0488 04       		.byte	0x4
 1311 0489 8D040000 		.4byte	0x48d
 1312 048d 11       		.uleb128 0x11
 1313 048e 2D010000 		.4byte	0x12d
 1314 0492 9C040000 		.4byte	0x49c
 1315 0496 12       		.uleb128 0x12
 1316 0497 CA020000 		.4byte	0x2ca
 1317 049b 00       		.byte	0
 1318 049c 03       		.uleb128 0x3
 1319 049d 8C020000 		.4byte	.LASF75
 1320 04a1 0B       		.byte	0xb
 1321 04a2 37       		.byte	0x37
 1322 04a3 A7040000 		.4byte	0x4a7
 1323 04a7 05       		.uleb128 0x5
 1324 04a8 8C020000 		.4byte	.LASF75
 1325 04ac 24       		.byte	0x24
 1326 04ad 0B       		.byte	0xb
 1327 04ae 45       		.byte	0x45
 1328 04af 14050000 		.4byte	0x514
 1329 04b3 06       		.uleb128 0x6
 1330 04b4 6D000000 		.4byte	.LASF76
 1331 04b8 0B       		.byte	0xb
 1332 04b9 46       		.byte	0x46
 1333 04ba 94020000 		.4byte	0x294
 1334 04be 00       		.byte	0
 1335 04bf 06       		.uleb128 0x6
 1336 04c0 B8020000 		.4byte	.LASF77
 1337 04c4 0B       		.byte	0xb
 1338 04c5 47       		.byte	0x47
ARM GAS  /tmp/ccMY8SYN.s 			page 25


 1339 04c6 2C000000 		.4byte	0x2c
 1340 04ca 08       		.byte	0x8
 1341 04cb 06       		.uleb128 0x6
 1342 04cc D6000000 		.4byte	.LASF78
 1343 04d0 0B       		.byte	0xb
 1344 04d1 48       		.byte	0x48
 1345 04d2 36050000 		.4byte	0x536
 1346 04d6 0C       		.byte	0xc
 1347 04d7 06       		.uleb128 0x6
 1348 04d8 1A050000 		.4byte	.LASF79
 1349 04dc 0B       		.byte	0xb
 1350 04dd 49       		.byte	0x49
 1351 04de 36050000 		.4byte	0x536
 1352 04e2 10       		.byte	0x10
 1353 04e3 06       		.uleb128 0x6
 1354 04e4 DF000000 		.4byte	.LASF80
 1355 04e8 0B       		.byte	0xb
 1356 04e9 4B       		.byte	0x4b
 1357 04ea 36050000 		.4byte	0x536
 1358 04ee 14       		.byte	0x14
 1359 04ef 06       		.uleb128 0x6
 1360 04f0 B4030000 		.4byte	.LASF81
 1361 04f4 0B       		.byte	0xb
 1362 04f5 4C       		.byte	0x4c
 1363 04f6 36050000 		.4byte	0x536
 1364 04fa 18       		.byte	0x18
 1365 04fb 06       		.uleb128 0x6
 1366 04fc 2F050000 		.4byte	.LASF82
 1367 0500 0B       		.byte	0xb
 1368 0501 4D       		.byte	0x4d
 1369 0502 14050000 		.4byte	0x514
 1370 0506 1C       		.byte	0x1c
 1371 0507 06       		.uleb128 0x6
 1372 0508 79050000 		.4byte	.LASF83
 1373 050c 0B       		.byte	0xb
 1374 050d 4E       		.byte	0x4e
 1375 050e CA020000 		.4byte	0x2ca
 1376 0512 20       		.byte	0x20
 1377 0513 00       		.byte	0
 1378 0514 03       		.uleb128 0x3
 1379 0515 82020000 		.4byte	.LASF84
 1380 0519 0B       		.byte	0xb
 1381 051a 3A       		.byte	0x3a
 1382 051b 1F050000 		.4byte	0x51f
 1383 051f 09       		.uleb128 0x9
 1384 0520 04       		.byte	0x4
 1385 0521 25050000 		.4byte	0x525
 1386 0525 13       		.uleb128 0x13
 1387 0526 30050000 		.4byte	0x530
 1388 052a 12       		.uleb128 0x12
 1389 052b 30050000 		.4byte	0x530
 1390 052f 00       		.byte	0
 1391 0530 09       		.uleb128 0x9
 1392 0531 04       		.byte	0x4
 1393 0532 9C040000 		.4byte	0x49c
 1394 0536 09       		.uleb128 0x9
 1395 0537 04       		.byte	0x4
ARM GAS  /tmp/ccMY8SYN.s 			page 26


 1396 0538 AD000000 		.4byte	0xad
 1397 053c 03       		.uleb128 0x3
 1398 053d 71020000 		.4byte	.LASF85
 1399 0541 0B       		.byte	0xb
 1400 0542 82       		.byte	0x82
 1401 0543 9C040000 		.4byte	0x49c
 1402 0547 03       		.uleb128 0x3
 1403 0548 17000000 		.4byte	.LASF86
 1404 054c 0B       		.byte	0xb
 1405 054d F5       		.byte	0xf5
 1406 054e 9C040000 		.4byte	0x49c
 1407 0552 11       		.uleb128 0x11
 1408 0553 2C000000 		.4byte	0x2c
 1409 0557 6B050000 		.4byte	0x56b
 1410 055b 12       		.uleb128 0x12
 1411 055c CA020000 		.4byte	0x2ca
 1412 0560 12       		.uleb128 0x12
 1413 0561 6B050000 		.4byte	0x56b
 1414 0565 12       		.uleb128 0x12
 1415 0566 2C000000 		.4byte	0x2c
 1416 056a 00       		.byte	0
 1417 056b 09       		.uleb128 0x9
 1418 056c 04       		.byte	0x4
 1419 056d 71050000 		.4byte	0x571
 1420 0571 10       		.uleb128 0x10
 1421 0572 AD000000 		.4byte	0xad
 1422 0576 09       		.uleb128 0x9
 1423 0577 04       		.byte	0x4
 1424 0578 52050000 		.4byte	0x552
 1425 057c 11       		.uleb128 0x11
 1426 057d 2C000000 		.4byte	0x2c
 1427 0581 95050000 		.4byte	0x595
 1428 0585 12       		.uleb128 0x12
 1429 0586 CA020000 		.4byte	0x2ca
 1430 058a 12       		.uleb128 0x12
 1431 058b 36050000 		.4byte	0x536
 1432 058f 12       		.uleb128 0x12
 1433 0590 2C000000 		.4byte	0x2c
 1434 0594 00       		.byte	0
 1435 0595 09       		.uleb128 0x9
 1436 0596 04       		.byte	0x4
 1437 0597 7C050000 		.4byte	0x57c
 1438 059b 11       		.uleb128 0x11
 1439 059c 2D010000 		.4byte	0x12d
 1440 05a0 AF050000 		.4byte	0x5af
 1441 05a4 12       		.uleb128 0x12
 1442 05a5 CA020000 		.4byte	0x2ca
 1443 05a9 12       		.uleb128 0x12
 1444 05aa AD000000 		.4byte	0xad
 1445 05ae 00       		.byte	0
 1446 05af 09       		.uleb128 0x9
 1447 05b0 04       		.byte	0x4
 1448 05b1 9B050000 		.4byte	0x59b
 1449 05b5 0D       		.uleb128 0xd
 1450 05b6 B8000000 		.4byte	0xb8
 1451 05ba 0D       		.uleb128 0xd
 1452 05bb C3000000 		.4byte	0xc3
ARM GAS  /tmp/ccMY8SYN.s 			page 27


 1453 05bf 14       		.uleb128 0x14
 1454 05c0 1C       		.byte	0x1c
 1455 05c1 0C       		.byte	0xc
 1456 05c2 2905     		.2byte	0x529
 1457 05c4 7D060000 		.4byte	0x67d
 1458 05c8 0C       		.uleb128 0xc
 1459 05c9 535200   		.ascii	"SR\000"
 1460 05cc 0C       		.byte	0xc
 1461 05cd 2B05     		.2byte	0x52b
 1462 05cf B5050000 		.4byte	0x5b5
 1463 05d3 00       		.byte	0
 1464 05d4 15       		.uleb128 0x15
 1465 05d5 69030000 		.4byte	.LASF87
 1466 05d9 0C       		.byte	0xc
 1467 05da 2C05     		.2byte	0x52c
 1468 05dc B8000000 		.4byte	0xb8
 1469 05e0 02       		.byte	0x2
 1470 05e1 0C       		.uleb128 0xc
 1471 05e2 445200   		.ascii	"DR\000"
 1472 05e5 0C       		.byte	0xc
 1473 05e6 2D05     		.2byte	0x52d
 1474 05e8 B5050000 		.4byte	0x5b5
 1475 05ec 04       		.byte	0x4
 1476 05ed 15       		.uleb128 0x15
 1477 05ee 73030000 		.4byte	.LASF88
 1478 05f2 0C       		.byte	0xc
 1479 05f3 2E05     		.2byte	0x52e
 1480 05f5 B8000000 		.4byte	0xb8
 1481 05f9 06       		.byte	0x6
 1482 05fa 0C       		.uleb128 0xc
 1483 05fb 42525200 		.ascii	"BRR\000"
 1484 05ff 0C       		.byte	0xc
 1485 0600 2F05     		.2byte	0x52f
 1486 0602 B5050000 		.4byte	0x5b5
 1487 0606 08       		.byte	0x8
 1488 0607 15       		.uleb128 0x15
 1489 0608 7D030000 		.4byte	.LASF89
 1490 060c 0C       		.byte	0xc
 1491 060d 3005     		.2byte	0x530
 1492 060f B8000000 		.4byte	0xb8
 1493 0613 0A       		.byte	0xa
 1494 0614 0C       		.uleb128 0xc
 1495 0615 43523100 		.ascii	"CR1\000"
 1496 0619 0C       		.byte	0xc
 1497 061a 3105     		.2byte	0x531
 1498 061c B5050000 		.4byte	0x5b5
 1499 0620 0C       		.byte	0xc
 1500 0621 15       		.uleb128 0x15
 1501 0622 87030000 		.4byte	.LASF90
 1502 0626 0C       		.byte	0xc
 1503 0627 3205     		.2byte	0x532
 1504 0629 B8000000 		.4byte	0xb8
 1505 062d 0E       		.byte	0xe
 1506 062e 0C       		.uleb128 0xc
 1507 062f 43523200 		.ascii	"CR2\000"
 1508 0633 0C       		.byte	0xc
 1509 0634 3305     		.2byte	0x533
ARM GAS  /tmp/ccMY8SYN.s 			page 28


 1510 0636 B5050000 		.4byte	0x5b5
 1511 063a 10       		.byte	0x10
 1512 063b 15       		.uleb128 0x15
 1513 063c 91030000 		.4byte	.LASF91
 1514 0640 0C       		.byte	0xc
 1515 0641 3405     		.2byte	0x534
 1516 0643 B8000000 		.4byte	0xb8
 1517 0647 12       		.byte	0x12
 1518 0648 0C       		.uleb128 0xc
 1519 0649 43523300 		.ascii	"CR3\000"
 1520 064d 0C       		.byte	0xc
 1521 064e 3505     		.2byte	0x535
 1522 0650 B5050000 		.4byte	0x5b5
 1523 0654 14       		.byte	0x14
 1524 0655 15       		.uleb128 0x15
 1525 0656 55040000 		.4byte	.LASF92
 1526 065a 0C       		.byte	0xc
 1527 065b 3605     		.2byte	0x536
 1528 065d B8000000 		.4byte	0xb8
 1529 0661 16       		.byte	0x16
 1530 0662 15       		.uleb128 0x15
 1531 0663 91000000 		.4byte	.LASF93
 1532 0667 0C       		.byte	0xc
 1533 0668 3705     		.2byte	0x537
 1534 066a B5050000 		.4byte	0x5b5
 1535 066e 18       		.byte	0x18
 1536 066f 15       		.uleb128 0x15
 1537 0670 A2030000 		.4byte	.LASF94
 1538 0674 0C       		.byte	0xc
 1539 0675 3805     		.2byte	0x538
 1540 0677 B8000000 		.4byte	0xb8
 1541 067b 1A       		.byte	0x1a
 1542 067c 00       		.byte	0
 1543 067d 16       		.uleb128 0x16
 1544 067e 3C020000 		.4byte	.LASF95
 1545 0682 0C       		.byte	0xc
 1546 0683 3905     		.2byte	0x539
 1547 0685 BF050000 		.4byte	0x5bf
 1548 0689 11       		.uleb128 0x11
 1549 068a 2D010000 		.4byte	0x12d
 1550 068e A2060000 		.4byte	0x6a2
 1551 0692 12       		.uleb128 0x12
 1552 0693 CA020000 		.4byte	0x2ca
 1553 0697 12       		.uleb128 0x12
 1554 0698 AD000000 		.4byte	0xad
 1555 069c 12       		.uleb128 0x12
 1556 069d 4E010000 		.4byte	0x14e
 1557 06a1 00       		.byte	0
 1558 06a2 09       		.uleb128 0x9
 1559 06a3 04       		.byte	0x4
 1560 06a4 89060000 		.4byte	0x689
 1561 06a8 11       		.uleb128 0x11
 1562 06a9 2D010000 		.4byte	0x12d
 1563 06ad BC060000 		.4byte	0x6bc
 1564 06b1 12       		.uleb128 0x12
 1565 06b2 CA020000 		.4byte	0x2ca
 1566 06b6 12       		.uleb128 0x12
ARM GAS  /tmp/ccMY8SYN.s 			page 29


 1567 06b7 4E010000 		.4byte	0x14e
 1568 06bb 00       		.byte	0
 1569 06bc 09       		.uleb128 0x9
 1570 06bd 04       		.byte	0x4
 1571 06be A8060000 		.4byte	0x6a8
 1572 06c2 11       		.uleb128 0x11
 1573 06c3 2C000000 		.4byte	0x2c
 1574 06c7 E0060000 		.4byte	0x6e0
 1575 06cb 12       		.uleb128 0x12
 1576 06cc CA020000 		.4byte	0x2ca
 1577 06d0 12       		.uleb128 0x12
 1578 06d1 6B050000 		.4byte	0x56b
 1579 06d5 12       		.uleb128 0x12
 1580 06d6 2C000000 		.4byte	0x2c
 1581 06da 12       		.uleb128 0x12
 1582 06db 4E010000 		.4byte	0x14e
 1583 06df 00       		.byte	0
 1584 06e0 09       		.uleb128 0x9
 1585 06e1 04       		.byte	0x4
 1586 06e2 C2060000 		.4byte	0x6c2
 1587 06e6 11       		.uleb128 0x11
 1588 06e7 2C000000 		.4byte	0x2c
 1589 06eb 04070000 		.4byte	0x704
 1590 06ef 12       		.uleb128 0x12
 1591 06f0 CA020000 		.4byte	0x2ca
 1592 06f4 12       		.uleb128 0x12
 1593 06f5 36050000 		.4byte	0x536
 1594 06f9 12       		.uleb128 0x12
 1595 06fa 2C000000 		.4byte	0x2c
 1596 06fe 12       		.uleb128 0x12
 1597 06ff 4E010000 		.4byte	0x14e
 1598 0703 00       		.byte	0
 1599 0704 09       		.uleb128 0x9
 1600 0705 04       		.byte	0x4
 1601 0706 E6060000 		.4byte	0x6e6
 1602 070a 17       		.uleb128 0x17
 1603 070b 01       		.byte	0x1
 1604 070c 0D       		.byte	0xd
 1605 070d 64       		.byte	0x64
 1606 070e 25070000 		.4byte	0x725
 1607 0712 18       		.uleb128 0x18
 1608 0713 4B040000 		.4byte	.LASF96
 1609 0717 00       		.sleb128 0
 1610 0718 18       		.uleb128 0x18
 1611 0719 31040000 		.4byte	.LASF97
 1612 071d 01       		.sleb128 1
 1613 071e 18       		.uleb128 0x18
 1614 071f 05050000 		.4byte	.LASF98
 1615 0723 02       		.sleb128 2
 1616 0724 00       		.byte	0
 1617 0725 03       		.uleb128 0x3
 1618 0726 68040000 		.4byte	.LASF99
 1619 072a 0D       		.byte	0xd
 1620 072b 68       		.byte	0x68
 1621 072c 0A070000 		.4byte	0x70a
 1622 0730 03       		.uleb128 0x3
 1623 0731 72040000 		.4byte	.LASF100
ARM GAS  /tmp/ccMY8SYN.s 			page 30


 1624 0735 0D       		.byte	0xd
 1625 0736 6D       		.byte	0x6d
 1626 0737 3B070000 		.4byte	0x73b
 1627 073b 05       		.uleb128 0x5
 1628 073c 72040000 		.4byte	.LASF100
 1629 0740 78       		.byte	0x78
 1630 0741 0D       		.byte	0xd
 1631 0742 87       		.byte	0x87
 1632 0743 A6070000 		.4byte	0x7a6
 1633 0747 07       		.uleb128 0x7
 1634 0748 766D7400 		.ascii	"vmt\000"
 1635 074c 0D       		.byte	0xd
 1636 074d 89       		.byte	0x89
 1637 074e 57080000 		.4byte	0x857
 1638 0752 00       		.byte	0
 1639 0753 06       		.uleb128 0x6
 1640 0754 16020000 		.4byte	.LASF101
 1641 0758 0D       		.byte	0xd
 1642 0759 8A       		.byte	0x8a
 1643 075a 29040000 		.4byte	0x429
 1644 075e 04       		.byte	0x4
 1645 075f 06       		.uleb128 0x6
 1646 0760 B7000000 		.4byte	.LASF102
 1647 0764 0D       		.byte	0xd
 1648 0765 8A       		.byte	0x8a
 1649 0766 25070000 		.4byte	0x725
 1650 076a 08       		.byte	0x8
 1651 076b 06       		.uleb128 0x6
 1652 076c F7010000 		.4byte	.LASF103
 1653 0770 0D       		.byte	0xd
 1654 0771 8A       		.byte	0x8a
 1655 0772 3C050000 		.4byte	0x53c
 1656 0776 0C       		.byte	0xc
 1657 0777 06       		.uleb128 0x6
 1658 0778 35020000 		.4byte	.LASF104
 1659 077c 0D       		.byte	0xd
 1660 077d 8A       		.byte	0x8a
 1661 077e 47050000 		.4byte	0x547
 1662 0782 30       		.byte	0x30
 1663 0783 07       		.uleb128 0x7
 1664 0784 696200   		.ascii	"ib\000"
 1665 0787 0D       		.byte	0xd
 1666 0788 8A       		.byte	0x8a
 1667 0789 62080000 		.4byte	0x862
 1668 078d 54       		.byte	0x54
 1669 078e 07       		.uleb128 0x7
 1670 078f 6F6200   		.ascii	"ob\000"
 1671 0792 0D       		.byte	0xd
 1672 0793 8A       		.byte	0x8a
 1673 0794 62080000 		.4byte	0x862
 1674 0798 64       		.byte	0x64
 1675 0799 06       		.uleb128 0x6
 1676 079a C3010000 		.4byte	.LASF105
 1677 079e 0D       		.byte	0xd
 1678 079f 8A       		.byte	0x8a
 1679 07a0 72080000 		.4byte	0x872
 1680 07a4 74       		.byte	0x74
ARM GAS  /tmp/ccMY8SYN.s 			page 31


 1681 07a5 00       		.byte	0
 1682 07a6 08       		.uleb128 0x8
 1683 07a7 0C       		.byte	0xc
 1684 07a8 0E       		.byte	0xe
 1685 07a9 D7       		.byte	0xd7
 1686 07aa DF070000 		.4byte	0x7df
 1687 07ae 06       		.uleb128 0x6
 1688 07af 7C020000 		.4byte	.LASF106
 1689 07b3 0E       		.byte	0xe
 1690 07b4 DB       		.byte	0xdb
 1691 07b5 CE000000 		.4byte	0xce
 1692 07b9 00       		.byte	0
 1693 07ba 07       		.uleb128 0x7
 1694 07bb 63723100 		.ascii	"cr1\000"
 1695 07bf 0E       		.byte	0xe
 1696 07c0 E0       		.byte	0xe0
 1697 07c1 B8000000 		.4byte	0xb8
 1698 07c5 04       		.byte	0x4
 1699 07c6 07       		.uleb128 0x7
 1700 07c7 63723200 		.ascii	"cr2\000"
 1701 07cb 0E       		.byte	0xe
 1702 07cc E4       		.byte	0xe4
 1703 07cd B8000000 		.4byte	0xb8
 1704 07d1 06       		.byte	0x6
 1705 07d2 07       		.uleb128 0x7
 1706 07d3 63723300 		.ascii	"cr3\000"
 1707 07d7 0E       		.byte	0xe
 1708 07d8 E8       		.byte	0xe8
 1709 07d9 B8000000 		.4byte	0xb8
 1710 07dd 08       		.byte	0x8
 1711 07de 00       		.byte	0
 1712 07df 03       		.uleb128 0x3
 1713 07e0 03030000 		.4byte	.LASF107
 1714 07e4 0E       		.byte	0xe
 1715 07e5 E9       		.byte	0xe9
 1716 07e6 A6070000 		.4byte	0x7a6
 1717 07ea 05       		.uleb128 0x5
 1718 07eb DF010000 		.4byte	.LASF108
 1719 07ef 20       		.byte	0x20
 1720 07f0 0D       		.byte	0xd
 1721 07f1 7C       		.byte	0x7c
 1722 07f2 57080000 		.4byte	0x857
 1723 07f6 06       		.uleb128 0x6
 1724 07f7 A4020000 		.4byte	.LASF109
 1725 07fb 0D       		.byte	0xd
 1726 07fc 7D       		.byte	0x7d
 1727 07fd 76050000 		.4byte	0x576
 1728 0801 00       		.byte	0
 1729 0802 06       		.uleb128 0x6
 1730 0803 91040000 		.4byte	.LASF110
 1731 0807 0D       		.byte	0xd
 1732 0808 7D       		.byte	0x7d
 1733 0809 95050000 		.4byte	0x595
 1734 080d 04       		.byte	0x4
 1735 080e 07       		.uleb128 0x7
 1736 080f 70757400 		.ascii	"put\000"
 1737 0813 0D       		.byte	0xd
ARM GAS  /tmp/ccMY8SYN.s 			page 32


 1738 0814 7D       		.byte	0x7d
 1739 0815 AF050000 		.4byte	0x5af
 1740 0819 08       		.byte	0x8
 1741 081a 07       		.uleb128 0x7
 1742 081b 67657400 		.ascii	"get\000"
 1743 081f 0D       		.byte	0xd
 1744 0820 7D       		.byte	0x7d
 1745 0821 87040000 		.4byte	0x487
 1746 0825 0C       		.byte	0xc
 1747 0826 06       		.uleb128 0x6
 1748 0827 AA020000 		.4byte	.LASF111
 1749 082b 0D       		.byte	0xd
 1750 082c 7D       		.byte	0x7d
 1751 082d A2060000 		.4byte	0x6a2
 1752 0831 10       		.byte	0x10
 1753 0832 06       		.uleb128 0x6
 1754 0833 11020000 		.4byte	.LASF112
 1755 0837 0D       		.byte	0xd
 1756 0838 7D       		.byte	0x7d
 1757 0839 BC060000 		.4byte	0x6bc
 1758 083d 14       		.byte	0x14
 1759 083e 06       		.uleb128 0x6
 1760 083f 4A020000 		.4byte	.LASF113
 1761 0843 0D       		.byte	0xd
 1762 0844 7D       		.byte	0x7d
 1763 0845 E0060000 		.4byte	0x6e0
 1764 0849 18       		.byte	0x18
 1765 084a 06       		.uleb128 0x6
 1766 084b 67000000 		.4byte	.LASF114
 1767 084f 0D       		.byte	0xd
 1768 0850 7D       		.byte	0x7d
 1769 0851 04070000 		.4byte	0x704
 1770 0855 1C       		.byte	0x1c
 1771 0856 00       		.byte	0
 1772 0857 09       		.uleb128 0x9
 1773 0858 04       		.byte	0x4
 1774 0859 5D080000 		.4byte	0x85d
 1775 085d 10       		.uleb128 0x10
 1776 085e EA070000 		.4byte	0x7ea
 1777 0862 19       		.uleb128 0x19
 1778 0863 AD000000 		.4byte	0xad
 1779 0867 72080000 		.4byte	0x872
 1780 086b 1A       		.uleb128 0x1a
 1781 086c 74030000 		.4byte	0x374
 1782 0870 0F       		.byte	0xf
 1783 0871 00       		.byte	0
 1784 0872 09       		.uleb128 0x9
 1785 0873 04       		.byte	0x4
 1786 0874 7D060000 		.4byte	0x67d
 1787 0878 1B       		.uleb128 0x1b
 1788 0879 A4020000 		.4byte	.LASF109
 1789 087d 01       		.byte	0x1
 1790 087e 3E       		.byte	0x3e
 1791 087f 2C000000 		.4byte	0x2c
 1792 0883 00000000 		.4byte	.LFB118
 1793 0887 26000000 		.4byte	.LFE118-.LFB118
 1794 088b 01       		.uleb128 0x1
ARM GAS  /tmp/ccMY8SYN.s 			page 33


 1795 088c 9C       		.byte	0x9c
 1796 088d B8080000 		.4byte	0x8b8
 1797 0891 1C       		.uleb128 0x1c
 1798 0892 697000   		.ascii	"ip\000"
 1799 0895 01       		.byte	0x1
 1800 0896 3E       		.byte	0x3e
 1801 0897 CA020000 		.4byte	0x2ca
 1802 089b 02       		.uleb128 0x2
 1803 089c 91       		.byte	0x91
 1804 089d 74       		.sleb128 -12
 1805 089e 1C       		.uleb128 0x1c
 1806 089f 627000   		.ascii	"bp\000"
 1807 08a2 01       		.byte	0x1
 1808 08a3 3E       		.byte	0x3e
 1809 08a4 6B050000 		.4byte	0x56b
 1810 08a8 02       		.uleb128 0x2
 1811 08a9 91       		.byte	0x91
 1812 08aa 70       		.sleb128 -16
 1813 08ab 1C       		.uleb128 0x1c
 1814 08ac 6E00     		.ascii	"n\000"
 1815 08ae 01       		.byte	0x1
 1816 08af 3E       		.byte	0x3e
 1817 08b0 2C000000 		.4byte	0x2c
 1818 08b4 02       		.uleb128 0x2
 1819 08b5 91       		.byte	0x91
 1820 08b6 6C       		.sleb128 -20
 1821 08b7 00       		.byte	0
 1822 08b8 1B       		.uleb128 0x1b
 1823 08b9 91040000 		.4byte	.LASF110
 1824 08bd 01       		.byte	0x1
 1825 08be 44       		.byte	0x44
 1826 08bf 2C000000 		.4byte	0x2c
 1827 08c3 00000000 		.4byte	.LFB119
 1828 08c7 26000000 		.4byte	.LFE119-.LFB119
 1829 08cb 01       		.uleb128 0x1
 1830 08cc 9C       		.byte	0x9c
 1831 08cd F8080000 		.4byte	0x8f8
 1832 08d1 1C       		.uleb128 0x1c
 1833 08d2 697000   		.ascii	"ip\000"
 1834 08d5 01       		.byte	0x1
 1835 08d6 44       		.byte	0x44
 1836 08d7 CA020000 		.4byte	0x2ca
 1837 08db 02       		.uleb128 0x2
 1838 08dc 91       		.byte	0x91
 1839 08dd 74       		.sleb128 -12
 1840 08de 1C       		.uleb128 0x1c
 1841 08df 627000   		.ascii	"bp\000"
 1842 08e2 01       		.byte	0x1
 1843 08e3 44       		.byte	0x44
 1844 08e4 36050000 		.4byte	0x536
 1845 08e8 02       		.uleb128 0x2
 1846 08e9 91       		.byte	0x91
 1847 08ea 70       		.sleb128 -16
 1848 08eb 1C       		.uleb128 0x1c
 1849 08ec 6E00     		.ascii	"n\000"
 1850 08ee 01       		.byte	0x1
 1851 08ef 44       		.byte	0x44
ARM GAS  /tmp/ccMY8SYN.s 			page 34


 1852 08f0 2C000000 		.4byte	0x2c
 1853 08f4 02       		.uleb128 0x2
 1854 08f5 91       		.byte	0x91
 1855 08f6 6C       		.sleb128 -20
 1856 08f7 00       		.byte	0
 1857 08f8 1D       		.uleb128 0x1d
 1858 08f9 70757400 		.ascii	"put\000"
 1859 08fd 01       		.byte	0x1
 1860 08fe 4A       		.byte	0x4a
 1861 08ff 2D010000 		.4byte	0x12d
 1862 0903 00000000 		.4byte	.LFB120
 1863 0907 2C000000 		.4byte	.LFE120-.LFB120
 1864 090b 01       		.uleb128 0x1
 1865 090c 9C       		.byte	0x9c
 1866 090d 2B090000 		.4byte	0x92b
 1867 0911 1C       		.uleb128 0x1c
 1868 0912 697000   		.ascii	"ip\000"
 1869 0915 01       		.byte	0x1
 1870 0916 4A       		.byte	0x4a
 1871 0917 CA020000 		.4byte	0x2ca
 1872 091b 02       		.uleb128 0x2
 1873 091c 91       		.byte	0x91
 1874 091d 74       		.sleb128 -12
 1875 091e 1C       		.uleb128 0x1c
 1876 091f 6200     		.ascii	"b\000"
 1877 0921 01       		.byte	0x1
 1878 0922 4A       		.byte	0x4a
 1879 0923 AD000000 		.4byte	0xad
 1880 0927 02       		.uleb128 0x2
 1881 0928 91       		.byte	0x91
 1882 0929 73       		.sleb128 -13
 1883 092a 00       		.byte	0
 1884 092b 1D       		.uleb128 0x1d
 1885 092c 67657400 		.ascii	"get\000"
 1886 0930 01       		.byte	0x1
 1887 0931 4F       		.byte	0x4f
 1888 0932 2D010000 		.4byte	0x12d
 1889 0936 00000000 		.4byte	.LFB121
 1890 093a 1E000000 		.4byte	.LFE121-.LFB121
 1891 093e 01       		.uleb128 0x1
 1892 093f 9C       		.byte	0x9c
 1893 0940 52090000 		.4byte	0x952
 1894 0944 1C       		.uleb128 0x1c
 1895 0945 697000   		.ascii	"ip\000"
 1896 0948 01       		.byte	0x1
 1897 0949 4F       		.byte	0x4f
 1898 094a CA020000 		.4byte	0x2ca
 1899 094e 02       		.uleb128 0x2
 1900 094f 91       		.byte	0x91
 1901 0950 74       		.sleb128 -12
 1902 0951 00       		.byte	0
 1903 0952 1B       		.uleb128 0x1b
 1904 0953 AA020000 		.4byte	.LASF111
 1905 0957 01       		.byte	0x1
 1906 0958 54       		.byte	0x54
 1907 0959 2D010000 		.4byte	0x12d
 1908 095d 00000000 		.4byte	.LFB122
ARM GAS  /tmp/ccMY8SYN.s 			page 35


 1909 0961 2C000000 		.4byte	.LFE122-.LFB122
 1910 0965 01       		.uleb128 0x1
 1911 0966 9C       		.byte	0x9c
 1912 0967 93090000 		.4byte	0x993
 1913 096b 1C       		.uleb128 0x1c
 1914 096c 697000   		.ascii	"ip\000"
 1915 096f 01       		.byte	0x1
 1916 0970 54       		.byte	0x54
 1917 0971 CA020000 		.4byte	0x2ca
 1918 0975 02       		.uleb128 0x2
 1919 0976 91       		.byte	0x91
 1920 0977 74       		.sleb128 -12
 1921 0978 1C       		.uleb128 0x1c
 1922 0979 6200     		.ascii	"b\000"
 1923 097b 01       		.byte	0x1
 1924 097c 54       		.byte	0x54
 1925 097d AD000000 		.4byte	0xad
 1926 0981 02       		.uleb128 0x2
 1927 0982 91       		.byte	0x91
 1928 0983 73       		.sleb128 -13
 1929 0984 1E       		.uleb128 0x1e
 1930 0985 09020000 		.4byte	.LASF115
 1931 0989 01       		.byte	0x1
 1932 098a 54       		.byte	0x54
 1933 098b 4E010000 		.4byte	0x14e
 1934 098f 02       		.uleb128 0x2
 1935 0990 91       		.byte	0x91
 1936 0991 6C       		.sleb128 -20
 1937 0992 00       		.byte	0
 1938 0993 1B       		.uleb128 0x1b
 1939 0994 11020000 		.4byte	.LASF112
 1940 0998 01       		.byte	0x1
 1941 0999 59       		.byte	0x59
 1942 099a 2D010000 		.4byte	0x12d
 1943 099e 00000000 		.4byte	.LFB123
 1944 09a2 1E000000 		.4byte	.LFE123-.LFB123
 1945 09a6 01       		.uleb128 0x1
 1946 09a7 9C       		.byte	0x9c
 1947 09a8 C8090000 		.4byte	0x9c8
 1948 09ac 1C       		.uleb128 0x1c
 1949 09ad 697000   		.ascii	"ip\000"
 1950 09b0 01       		.byte	0x1
 1951 09b1 59       		.byte	0x59
 1952 09b2 CA020000 		.4byte	0x2ca
 1953 09b6 02       		.uleb128 0x2
 1954 09b7 91       		.byte	0x91
 1955 09b8 74       		.sleb128 -12
 1956 09b9 1E       		.uleb128 0x1e
 1957 09ba 09020000 		.4byte	.LASF115
 1958 09be 01       		.byte	0x1
 1959 09bf 59       		.byte	0x59
 1960 09c0 4E010000 		.4byte	0x14e
 1961 09c4 02       		.uleb128 0x2
 1962 09c5 91       		.byte	0x91
 1963 09c6 70       		.sleb128 -16
 1964 09c7 00       		.byte	0
 1965 09c8 1B       		.uleb128 0x1b
ARM GAS  /tmp/ccMY8SYN.s 			page 36


 1966 09c9 4A020000 		.4byte	.LASF113
 1967 09cd 01       		.byte	0x1
 1968 09ce 5E       		.byte	0x5e
 1969 09cf 2C000000 		.4byte	0x2c
 1970 09d3 00000000 		.4byte	.LFB124
 1971 09d7 26000000 		.4byte	.LFE124-.LFB124
 1972 09db 01       		.uleb128 0x1
 1973 09dc 9C       		.byte	0x9c
 1974 09dd 160A0000 		.4byte	0xa16
 1975 09e1 1C       		.uleb128 0x1c
 1976 09e2 697000   		.ascii	"ip\000"
 1977 09e5 01       		.byte	0x1
 1978 09e6 5E       		.byte	0x5e
 1979 09e7 CA020000 		.4byte	0x2ca
 1980 09eb 02       		.uleb128 0x2
 1981 09ec 91       		.byte	0x91
 1982 09ed 74       		.sleb128 -12
 1983 09ee 1C       		.uleb128 0x1c
 1984 09ef 627000   		.ascii	"bp\000"
 1985 09f2 01       		.byte	0x1
 1986 09f3 5E       		.byte	0x5e
 1987 09f4 6B050000 		.4byte	0x56b
 1988 09f8 02       		.uleb128 0x2
 1989 09f9 91       		.byte	0x91
 1990 09fa 70       		.sleb128 -16
 1991 09fb 1C       		.uleb128 0x1c
 1992 09fc 6E00     		.ascii	"n\000"
 1993 09fe 01       		.byte	0x1
 1994 09ff 5E       		.byte	0x5e
 1995 0a00 2C000000 		.4byte	0x2c
 1996 0a04 02       		.uleb128 0x2
 1997 0a05 91       		.byte	0x91
 1998 0a06 6C       		.sleb128 -20
 1999 0a07 1E       		.uleb128 0x1e
 2000 0a08 FE020000 		.4byte	.LASF116
 2001 0a0c 01       		.byte	0x1
 2002 0a0d 5E       		.byte	0x5e
 2003 0a0e 4E010000 		.4byte	0x14e
 2004 0a12 02       		.uleb128 0x2
 2005 0a13 91       		.byte	0x91
 2006 0a14 68       		.sleb128 -24
 2007 0a15 00       		.byte	0
 2008 0a16 1B       		.uleb128 0x1b
 2009 0a17 67000000 		.4byte	.LASF114
 2010 0a1b 01       		.byte	0x1
 2011 0a1c 63       		.byte	0x63
 2012 0a1d 2C000000 		.4byte	0x2c
 2013 0a21 00000000 		.4byte	.LFB125
 2014 0a25 26000000 		.4byte	.LFE125-.LFB125
 2015 0a29 01       		.uleb128 0x1
 2016 0a2a 9C       		.byte	0x9c
 2017 0a2b 640A0000 		.4byte	0xa64
 2018 0a2f 1C       		.uleb128 0x1c
 2019 0a30 697000   		.ascii	"ip\000"
 2020 0a33 01       		.byte	0x1
 2021 0a34 63       		.byte	0x63
 2022 0a35 CA020000 		.4byte	0x2ca
ARM GAS  /tmp/ccMY8SYN.s 			page 37


 2023 0a39 02       		.uleb128 0x2
 2024 0a3a 91       		.byte	0x91
 2025 0a3b 74       		.sleb128 -12
 2026 0a3c 1C       		.uleb128 0x1c
 2027 0a3d 627000   		.ascii	"bp\000"
 2028 0a40 01       		.byte	0x1
 2029 0a41 63       		.byte	0x63
 2030 0a42 36050000 		.4byte	0x536
 2031 0a46 02       		.uleb128 0x2
 2032 0a47 91       		.byte	0x91
 2033 0a48 70       		.sleb128 -16
 2034 0a49 1C       		.uleb128 0x1c
 2035 0a4a 6E00     		.ascii	"n\000"
 2036 0a4c 01       		.byte	0x1
 2037 0a4d 63       		.byte	0x63
 2038 0a4e 2C000000 		.4byte	0x2c
 2039 0a52 02       		.uleb128 0x2
 2040 0a53 91       		.byte	0x91
 2041 0a54 6C       		.sleb128 -20
 2042 0a55 1E       		.uleb128 0x1e
 2043 0a56 FE020000 		.4byte	.LASF116
 2044 0a5a 01       		.byte	0x1
 2045 0a5b 63       		.byte	0x63
 2046 0a5c 4E010000 		.4byte	0x14e
 2047 0a60 02       		.uleb128 0x2
 2048 0a61 91       		.byte	0x91
 2049 0a62 68       		.sleb128 -24
 2050 0a63 00       		.byte	0
 2051 0a64 1F       		.uleb128 0x1f
 2052 0a65 72050000 		.4byte	.LASF127
 2053 0a69 01       		.byte	0x1
 2054 0a6a 78       		.byte	0x78
 2055 0a6b 00000000 		.4byte	.LFB126
 2056 0a6f 08000000 		.4byte	.LFE126-.LFB126
 2057 0a73 01       		.uleb128 0x1
 2058 0a74 9C       		.byte	0x9c
 2059 0a75 20       		.uleb128 0x20
 2060 0a76 5A000000 		.4byte	.LASF119
 2061 0a7a 01       		.byte	0x1
 2062 0a7b 8C       		.byte	0x8c
 2063 0a7c 00000000 		.4byte	.LFB127
 2064 0a80 5E000000 		.4byte	.LFE127-.LFB127
 2065 0a84 01       		.uleb128 0x1
 2066 0a85 9C       		.byte	0x9c
 2067 0a86 B50A0000 		.4byte	0xab5
 2068 0a8a 1C       		.uleb128 0x1c
 2069 0a8b 73647000 		.ascii	"sdp\000"
 2070 0a8f 01       		.byte	0x1
 2071 0a90 8C       		.byte	0x8c
 2072 0a91 B50A0000 		.4byte	0xab5
 2073 0a95 02       		.uleb128 0x2
 2074 0a96 91       		.byte	0x91
 2075 0a97 74       		.sleb128 -12
 2076 0a98 1E       		.uleb128 0x1e
 2077 0a99 EF010000 		.4byte	.LASF117
 2078 0a9d 01       		.byte	0x1
 2079 0a9e 8C       		.byte	0x8c
ARM GAS  /tmp/ccMY8SYN.s 			page 38


 2080 0a9f 14050000 		.4byte	0x514
 2081 0aa3 02       		.uleb128 0x2
 2082 0aa4 91       		.byte	0x91
 2083 0aa5 70       		.sleb128 -16
 2084 0aa6 1E       		.uleb128 0x1e
 2085 0aa7 4F050000 		.4byte	.LASF118
 2086 0aab 01       		.byte	0x1
 2087 0aac 8C       		.byte	0x8c
 2088 0aad 14050000 		.4byte	0x514
 2089 0ab1 02       		.uleb128 0x2
 2090 0ab2 91       		.byte	0x91
 2091 0ab3 6C       		.sleb128 -20
 2092 0ab4 00       		.byte	0
 2093 0ab5 09       		.uleb128 0x9
 2094 0ab6 04       		.byte	0x4
 2095 0ab7 30070000 		.4byte	0x730
 2096 0abb 20       		.uleb128 0x20
 2097 0abc B2040000 		.4byte	.LASF120
 2098 0ac0 01       		.byte	0x1
 2099 0ac1 9F       		.byte	0x9f
 2100 0ac2 00000000 		.4byte	.LFB128
 2101 0ac6 5E000000 		.4byte	.LFE128-.LFB128
 2102 0aca 01       		.uleb128 0x1
 2103 0acb 9C       		.byte	0x9c
 2104 0acc 1F0B0000 		.4byte	0xb1f
 2105 0ad0 1C       		.uleb128 0x1c
 2106 0ad1 73647000 		.ascii	"sdp\000"
 2107 0ad5 01       		.byte	0x1
 2108 0ad6 9F       		.byte	0x9f
 2109 0ad7 B50A0000 		.4byte	0xab5
 2110 0adb 02       		.uleb128 0x2
 2111 0adc 91       		.byte	0x91
 2112 0add 74       		.sleb128 -12
 2113 0ade 1E       		.uleb128 0x1e
 2114 0adf AB040000 		.4byte	.LASF121
 2115 0ae3 01       		.byte	0x1
 2116 0ae4 9F       		.byte	0x9f
 2117 0ae5 1F0B0000 		.4byte	0xb1f
 2118 0ae9 02       		.uleb128 0x2
 2119 0aea 91       		.byte	0x91
 2120 0aeb 70       		.sleb128 -16
 2121 0aec 21       		.uleb128 0x21
 2122 0aed 1A000000 		.4byte	.LBB2
 2123 0af1 06000000 		.4byte	.LBE2-.LBB2
 2124 0af5 070B0000 		.4byte	0xb07
 2125 0af9 22       		.uleb128 0x22
 2126 0afa 746D7000 		.ascii	"tmp\000"
 2127 0afe 01       		.byte	0x1
 2128 0aff A3       		.byte	0xa3
 2129 0b00 CE000000 		.4byte	0xce
 2130 0b04 01       		.uleb128 0x1
 2131 0b05 53       		.byte	0x53
 2132 0b06 00       		.byte	0
 2133 0b07 23       		.uleb128 0x23
 2134 0b08 52000000 		.4byte	.LBB3
 2135 0b0c 06000000 		.4byte	.LBE3-.LBB3
 2136 0b10 22       		.uleb128 0x22
ARM GAS  /tmp/ccMY8SYN.s 			page 39


 2137 0b11 746D7000 		.ascii	"tmp\000"
 2138 0b15 01       		.byte	0x1
 2139 0b16 A9       		.byte	0xa9
 2140 0b17 CE000000 		.4byte	0xce
 2141 0b1b 01       		.uleb128 0x1
 2142 0b1c 53       		.byte	0x53
 2143 0b1d 00       		.byte	0
 2144 0b1e 00       		.byte	0
 2145 0b1f 09       		.uleb128 0x9
 2146 0b20 04       		.byte	0x4
 2147 0b21 250B0000 		.4byte	0xb25
 2148 0b25 10       		.uleb128 0x10
 2149 0b26 DF070000 		.4byte	0x7df
 2150 0b2a 20       		.uleb128 0x20
 2151 0b2b F7020000 		.4byte	.LASF122
 2152 0b2f 01       		.byte	0x1
 2153 0b30 B5       		.byte	0xb5
 2154 0b31 00000000 		.4byte	.LFB129
 2155 0b35 72000000 		.4byte	.LFE129-.LFB129
 2156 0b39 01       		.uleb128 0x1
 2157 0b3a 9C       		.byte	0x9c
 2158 0b3b 800B0000 		.4byte	0xb80
 2159 0b3f 1C       		.uleb128 0x1c
 2160 0b40 73647000 		.ascii	"sdp\000"
 2161 0b44 01       		.byte	0x1
 2162 0b45 B5       		.byte	0xb5
 2163 0b46 B50A0000 		.4byte	0xab5
 2164 0b4a 02       		.uleb128 0x2
 2165 0b4b 91       		.byte	0x91
 2166 0b4c 74       		.sleb128 -12
 2167 0b4d 21       		.uleb128 0x21
 2168 0b4e 18000000 		.4byte	.LBB4
 2169 0b52 06000000 		.4byte	.LBE4-.LBB4
 2170 0b56 680B0000 		.4byte	0xb68
 2171 0b5a 22       		.uleb128 0x22
 2172 0b5b 746D7000 		.ascii	"tmp\000"
 2173 0b5f 01       		.byte	0x1
 2174 0b60 B9       		.byte	0xb9
 2175 0b61 CE000000 		.4byte	0xce
 2176 0b65 01       		.uleb128 0x1
 2177 0b66 53       		.byte	0x53
 2178 0b67 00       		.byte	0
 2179 0b68 23       		.uleb128 0x23
 2180 0b69 66000000 		.4byte	.LBB5
 2181 0b6d 06000000 		.4byte	.LBE5-.LBB5
 2182 0b71 22       		.uleb128 0x22
 2183 0b72 746D7000 		.ascii	"tmp\000"
 2184 0b76 01       		.byte	0x1
 2185 0b77 C2       		.byte	0xc2
 2186 0b78 CE000000 		.4byte	0xce
 2187 0b7c 01       		.uleb128 0x1
 2188 0b7d 53       		.byte	0x53
 2189 0b7e 00       		.byte	0
 2190 0b7f 00       		.byte	0
 2191 0b80 20       		.uleb128 0x20
 2192 0b81 9B040000 		.4byte	.LASF123
 2193 0b85 01       		.byte	0x1
ARM GAS  /tmp/ccMY8SYN.s 			page 40


 2194 0b86 D5       		.byte	0xd5
 2195 0b87 00000000 		.4byte	.LFB130
 2196 0b8b 60000000 		.4byte	.LFE130-.LFB130
 2197 0b8f 01       		.uleb128 0x1
 2198 0b90 9C       		.byte	0x9c
 2199 0b91 B00B0000 		.4byte	0xbb0
 2200 0b95 1C       		.uleb128 0x1c
 2201 0b96 73647000 		.ascii	"sdp\000"
 2202 0b9a 01       		.byte	0x1
 2203 0b9b D5       		.byte	0xd5
 2204 0b9c B50A0000 		.4byte	0xab5
 2205 0ba0 02       		.uleb128 0x2
 2206 0ba1 91       		.byte	0x91
 2207 0ba2 74       		.sleb128 -12
 2208 0ba3 1C       		.uleb128 0x1c
 2209 0ba4 6200     		.ascii	"b\000"
 2210 0ba6 01       		.byte	0x1
 2211 0ba7 D5       		.byte	0xd5
 2212 0ba8 AD000000 		.4byte	0xad
 2213 0bac 02       		.uleb128 0x2
 2214 0bad 91       		.byte	0x91
 2215 0bae 73       		.sleb128 -13
 2216 0baf 00       		.byte	0
 2217 0bb0 24       		.uleb128 0x24
 2218 0bb1 38050000 		.4byte	.LASF128
 2219 0bb5 01       		.byte	0x1
 2220 0bb6 EF       		.byte	0xef
 2221 0bb7 2D010000 		.4byte	0x12d
 2222 0bbb 00000000 		.4byte	.LFB131
 2223 0bbf 44000000 		.4byte	.LFE131-.LFB131
 2224 0bc3 01       		.uleb128 0x1
 2225 0bc4 9C       		.byte	0x9c
 2226 0bc5 E40B0000 		.4byte	0xbe4
 2227 0bc9 1C       		.uleb128 0x1c
 2228 0bca 73647000 		.ascii	"sdp\000"
 2229 0bce 01       		.byte	0x1
 2230 0bcf EF       		.byte	0xef
 2231 0bd0 B50A0000 		.4byte	0xab5
 2232 0bd4 02       		.uleb128 0x2
 2233 0bd5 91       		.byte	0x91
 2234 0bd6 6C       		.sleb128 -20
 2235 0bd7 22       		.uleb128 0x22
 2236 0bd8 6200     		.ascii	"b\000"
 2237 0bda 01       		.byte	0x1
 2238 0bdb F0       		.byte	0xf0
 2239 0bdc 2D010000 		.4byte	0x12d
 2240 0be0 02       		.uleb128 0x2
 2241 0be1 91       		.byte	0x91
 2242 0be2 74       		.sleb128 -12
 2243 0be3 00       		.byte	0
 2244 0be4 22       		.uleb128 0x22
 2245 0be5 766D7400 		.ascii	"vmt\000"
 2246 0be9 01       		.byte	0x1
 2247 0bea 68       		.byte	0x68
 2248 0beb 5D080000 		.4byte	0x85d
 2249 0bef 05       		.uleb128 0x5
 2250 0bf0 03       		.byte	0x3
ARM GAS  /tmp/ccMY8SYN.s 			page 41


 2251 0bf1 00000000 		.4byte	vmt
 2252 0bf5 25       		.uleb128 0x25
 2253 0bf6 4D000000 		.4byte	.LASF129
 2254 0bfa 0F       		.byte	0xf
 2255 0bfb 9806     		.2byte	0x698
 2256 0bfd BA050000 		.4byte	0x5ba
 2257 0c01 00       		.byte	0
 2258              		.section	.debug_abbrev,"",%progbits
 2259              	.Ldebug_abbrev0:
 2260 0000 01       		.uleb128 0x1
 2261 0001 11       		.uleb128 0x11
 2262 0002 01       		.byte	0x1
 2263 0003 25       		.uleb128 0x25
 2264 0004 0E       		.uleb128 0xe
 2265 0005 13       		.uleb128 0x13
 2266 0006 0B       		.uleb128 0xb
 2267 0007 03       		.uleb128 0x3
 2268 0008 0E       		.uleb128 0xe
 2269 0009 1B       		.uleb128 0x1b
 2270 000a 0E       		.uleb128 0xe
 2271 000b 55       		.uleb128 0x55
 2272 000c 17       		.uleb128 0x17
 2273 000d 11       		.uleb128 0x11
 2274 000e 01       		.uleb128 0x1
 2275 000f 10       		.uleb128 0x10
 2276 0010 17       		.uleb128 0x17
 2277 0011 00       		.byte	0
 2278 0012 00       		.byte	0
 2279 0013 02       		.uleb128 0x2
 2280 0014 24       		.uleb128 0x24
 2281 0015 00       		.byte	0
 2282 0016 0B       		.uleb128 0xb
 2283 0017 0B       		.uleb128 0xb
 2284 0018 3E       		.uleb128 0x3e
 2285 0019 0B       		.uleb128 0xb
 2286 001a 03       		.uleb128 0x3
 2287 001b 08       		.uleb128 0x8
 2288 001c 00       		.byte	0
 2289 001d 00       		.byte	0
 2290 001e 03       		.uleb128 0x3
 2291 001f 16       		.uleb128 0x16
 2292 0020 00       		.byte	0
 2293 0021 03       		.uleb128 0x3
 2294 0022 0E       		.uleb128 0xe
 2295 0023 3A       		.uleb128 0x3a
 2296 0024 0B       		.uleb128 0xb
 2297 0025 3B       		.uleb128 0x3b
 2298 0026 0B       		.uleb128 0xb
 2299 0027 49       		.uleb128 0x49
 2300 0028 13       		.uleb128 0x13
 2301 0029 00       		.byte	0
 2302 002a 00       		.byte	0
 2303 002b 04       		.uleb128 0x4
 2304 002c 24       		.uleb128 0x24
 2305 002d 00       		.byte	0
 2306 002e 0B       		.uleb128 0xb
 2307 002f 0B       		.uleb128 0xb
ARM GAS  /tmp/ccMY8SYN.s 			page 42


 2308 0030 3E       		.uleb128 0x3e
 2309 0031 0B       		.uleb128 0xb
 2310 0032 03       		.uleb128 0x3
 2311 0033 0E       		.uleb128 0xe
 2312 0034 00       		.byte	0
 2313 0035 00       		.byte	0
 2314 0036 05       		.uleb128 0x5
 2315 0037 13       		.uleb128 0x13
 2316 0038 01       		.byte	0x1
 2317 0039 03       		.uleb128 0x3
 2318 003a 0E       		.uleb128 0xe
 2319 003b 0B       		.uleb128 0xb
 2320 003c 0B       		.uleb128 0xb
 2321 003d 3A       		.uleb128 0x3a
 2322 003e 0B       		.uleb128 0xb
 2323 003f 3B       		.uleb128 0x3b
 2324 0040 0B       		.uleb128 0xb
 2325 0041 01       		.uleb128 0x1
 2326 0042 13       		.uleb128 0x13
 2327 0043 00       		.byte	0
 2328 0044 00       		.byte	0
 2329 0045 06       		.uleb128 0x6
 2330 0046 0D       		.uleb128 0xd
 2331 0047 00       		.byte	0
 2332 0048 03       		.uleb128 0x3
 2333 0049 0E       		.uleb128 0xe
 2334 004a 3A       		.uleb128 0x3a
 2335 004b 0B       		.uleb128 0xb
 2336 004c 3B       		.uleb128 0x3b
 2337 004d 0B       		.uleb128 0xb
 2338 004e 49       		.uleb128 0x49
 2339 004f 13       		.uleb128 0x13
 2340 0050 38       		.uleb128 0x38
 2341 0051 0B       		.uleb128 0xb
 2342 0052 00       		.byte	0
 2343 0053 00       		.byte	0
 2344 0054 07       		.uleb128 0x7
 2345 0055 0D       		.uleb128 0xd
 2346 0056 00       		.byte	0
 2347 0057 03       		.uleb128 0x3
 2348 0058 08       		.uleb128 0x8
 2349 0059 3A       		.uleb128 0x3a
 2350 005a 0B       		.uleb128 0xb
 2351 005b 3B       		.uleb128 0x3b
 2352 005c 0B       		.uleb128 0xb
 2353 005d 49       		.uleb128 0x49
 2354 005e 13       		.uleb128 0x13
 2355 005f 38       		.uleb128 0x38
 2356 0060 0B       		.uleb128 0xb
 2357 0061 00       		.byte	0
 2358 0062 00       		.byte	0
 2359 0063 08       		.uleb128 0x8
 2360 0064 13       		.uleb128 0x13
 2361 0065 01       		.byte	0x1
 2362 0066 0B       		.uleb128 0xb
 2363 0067 0B       		.uleb128 0xb
 2364 0068 3A       		.uleb128 0x3a
ARM GAS  /tmp/ccMY8SYN.s 			page 43


 2365 0069 0B       		.uleb128 0xb
 2366 006a 3B       		.uleb128 0x3b
 2367 006b 0B       		.uleb128 0xb
 2368 006c 01       		.uleb128 0x1
 2369 006d 13       		.uleb128 0x13
 2370 006e 00       		.byte	0
 2371 006f 00       		.byte	0
 2372 0070 09       		.uleb128 0x9
 2373 0071 0F       		.uleb128 0xf
 2374 0072 00       		.byte	0
 2375 0073 0B       		.uleb128 0xb
 2376 0074 0B       		.uleb128 0xb
 2377 0075 49       		.uleb128 0x49
 2378 0076 13       		.uleb128 0x13
 2379 0077 00       		.byte	0
 2380 0078 00       		.byte	0
 2381 0079 0A       		.uleb128 0xa
 2382 007a 0F       		.uleb128 0xf
 2383 007b 00       		.byte	0
 2384 007c 0B       		.uleb128 0xb
 2385 007d 0B       		.uleb128 0xb
 2386 007e 00       		.byte	0
 2387 007f 00       		.byte	0
 2388 0080 0B       		.uleb128 0xb
 2389 0081 13       		.uleb128 0x13
 2390 0082 01       		.byte	0x1
 2391 0083 03       		.uleb128 0x3
 2392 0084 0E       		.uleb128 0xe
 2393 0085 0B       		.uleb128 0xb
 2394 0086 0B       		.uleb128 0xb
 2395 0087 3A       		.uleb128 0x3a
 2396 0088 0B       		.uleb128 0xb
 2397 0089 3B       		.uleb128 0x3b
 2398 008a 05       		.uleb128 0x5
 2399 008b 01       		.uleb128 0x1
 2400 008c 13       		.uleb128 0x13
 2401 008d 00       		.byte	0
 2402 008e 00       		.byte	0
 2403 008f 0C       		.uleb128 0xc
 2404 0090 0D       		.uleb128 0xd
 2405 0091 00       		.byte	0
 2406 0092 03       		.uleb128 0x3
 2407 0093 08       		.uleb128 0x8
 2408 0094 3A       		.uleb128 0x3a
 2409 0095 0B       		.uleb128 0xb
 2410 0096 3B       		.uleb128 0x3b
 2411 0097 05       		.uleb128 0x5
 2412 0098 49       		.uleb128 0x49
 2413 0099 13       		.uleb128 0x13
 2414 009a 38       		.uleb128 0x38
 2415 009b 0B       		.uleb128 0xb
 2416 009c 00       		.byte	0
 2417 009d 00       		.byte	0
 2418 009e 0D       		.uleb128 0xd
 2419 009f 35       		.uleb128 0x35
 2420 00a0 00       		.byte	0
 2421 00a1 49       		.uleb128 0x49
ARM GAS  /tmp/ccMY8SYN.s 			page 44


 2422 00a2 13       		.uleb128 0x13
 2423 00a3 00       		.byte	0
 2424 00a4 00       		.byte	0
 2425 00a5 0E       		.uleb128 0xe
 2426 00a6 17       		.uleb128 0x17
 2427 00a7 01       		.byte	0x1
 2428 00a8 0B       		.uleb128 0xb
 2429 00a9 0B       		.uleb128 0xb
 2430 00aa 3A       		.uleb128 0x3a
 2431 00ab 0B       		.uleb128 0xb
 2432 00ac 3B       		.uleb128 0x3b
 2433 00ad 0B       		.uleb128 0xb
 2434 00ae 01       		.uleb128 0x1
 2435 00af 13       		.uleb128 0x13
 2436 00b0 00       		.byte	0
 2437 00b1 00       		.byte	0
 2438 00b2 0F       		.uleb128 0xf
 2439 00b3 0D       		.uleb128 0xd
 2440 00b4 00       		.byte	0
 2441 00b5 03       		.uleb128 0x3
 2442 00b6 0E       		.uleb128 0xe
 2443 00b7 3A       		.uleb128 0x3a
 2444 00b8 0B       		.uleb128 0xb
 2445 00b9 3B       		.uleb128 0x3b
 2446 00ba 0B       		.uleb128 0xb
 2447 00bb 49       		.uleb128 0x49
 2448 00bc 13       		.uleb128 0x13
 2449 00bd 00       		.byte	0
 2450 00be 00       		.byte	0
 2451 00bf 10       		.uleb128 0x10
 2452 00c0 26       		.uleb128 0x26
 2453 00c1 00       		.byte	0
 2454 00c2 49       		.uleb128 0x49
 2455 00c3 13       		.uleb128 0x13
 2456 00c4 00       		.byte	0
 2457 00c5 00       		.byte	0
 2458 00c6 11       		.uleb128 0x11
 2459 00c7 15       		.uleb128 0x15
 2460 00c8 01       		.byte	0x1
 2461 00c9 27       		.uleb128 0x27
 2462 00ca 19       		.uleb128 0x19
 2463 00cb 49       		.uleb128 0x49
 2464 00cc 13       		.uleb128 0x13
 2465 00cd 01       		.uleb128 0x1
 2466 00ce 13       		.uleb128 0x13
 2467 00cf 00       		.byte	0
 2468 00d0 00       		.byte	0
 2469 00d1 12       		.uleb128 0x12
 2470 00d2 05       		.uleb128 0x5
 2471 00d3 00       		.byte	0
 2472 00d4 49       		.uleb128 0x49
 2473 00d5 13       		.uleb128 0x13
 2474 00d6 00       		.byte	0
 2475 00d7 00       		.byte	0
 2476 00d8 13       		.uleb128 0x13
 2477 00d9 15       		.uleb128 0x15
 2478 00da 01       		.byte	0x1
ARM GAS  /tmp/ccMY8SYN.s 			page 45


 2479 00db 27       		.uleb128 0x27
 2480 00dc 19       		.uleb128 0x19
 2481 00dd 01       		.uleb128 0x1
 2482 00de 13       		.uleb128 0x13
 2483 00df 00       		.byte	0
 2484 00e0 00       		.byte	0
 2485 00e1 14       		.uleb128 0x14
 2486 00e2 13       		.uleb128 0x13
 2487 00e3 01       		.byte	0x1
 2488 00e4 0B       		.uleb128 0xb
 2489 00e5 0B       		.uleb128 0xb
 2490 00e6 3A       		.uleb128 0x3a
 2491 00e7 0B       		.uleb128 0xb
 2492 00e8 3B       		.uleb128 0x3b
 2493 00e9 05       		.uleb128 0x5
 2494 00ea 01       		.uleb128 0x1
 2495 00eb 13       		.uleb128 0x13
 2496 00ec 00       		.byte	0
 2497 00ed 00       		.byte	0
 2498 00ee 15       		.uleb128 0x15
 2499 00ef 0D       		.uleb128 0xd
 2500 00f0 00       		.byte	0
 2501 00f1 03       		.uleb128 0x3
 2502 00f2 0E       		.uleb128 0xe
 2503 00f3 3A       		.uleb128 0x3a
 2504 00f4 0B       		.uleb128 0xb
 2505 00f5 3B       		.uleb128 0x3b
 2506 00f6 05       		.uleb128 0x5
 2507 00f7 49       		.uleb128 0x49
 2508 00f8 13       		.uleb128 0x13
 2509 00f9 38       		.uleb128 0x38
 2510 00fa 0B       		.uleb128 0xb
 2511 00fb 00       		.byte	0
 2512 00fc 00       		.byte	0
 2513 00fd 16       		.uleb128 0x16
 2514 00fe 16       		.uleb128 0x16
 2515 00ff 00       		.byte	0
 2516 0100 03       		.uleb128 0x3
 2517 0101 0E       		.uleb128 0xe
 2518 0102 3A       		.uleb128 0x3a
 2519 0103 0B       		.uleb128 0xb
 2520 0104 3B       		.uleb128 0x3b
 2521 0105 05       		.uleb128 0x5
 2522 0106 49       		.uleb128 0x49
 2523 0107 13       		.uleb128 0x13
 2524 0108 00       		.byte	0
 2525 0109 00       		.byte	0
 2526 010a 17       		.uleb128 0x17
 2527 010b 04       		.uleb128 0x4
 2528 010c 01       		.byte	0x1
 2529 010d 0B       		.uleb128 0xb
 2530 010e 0B       		.uleb128 0xb
 2531 010f 3A       		.uleb128 0x3a
 2532 0110 0B       		.uleb128 0xb
 2533 0111 3B       		.uleb128 0x3b
 2534 0112 0B       		.uleb128 0xb
 2535 0113 01       		.uleb128 0x1
ARM GAS  /tmp/ccMY8SYN.s 			page 46


 2536 0114 13       		.uleb128 0x13
 2537 0115 00       		.byte	0
 2538 0116 00       		.byte	0
 2539 0117 18       		.uleb128 0x18
 2540 0118 28       		.uleb128 0x28
 2541 0119 00       		.byte	0
 2542 011a 03       		.uleb128 0x3
 2543 011b 0E       		.uleb128 0xe
 2544 011c 1C       		.uleb128 0x1c
 2545 011d 0D       		.uleb128 0xd
 2546 011e 00       		.byte	0
 2547 011f 00       		.byte	0
 2548 0120 19       		.uleb128 0x19
 2549 0121 01       		.uleb128 0x1
 2550 0122 01       		.byte	0x1
 2551 0123 49       		.uleb128 0x49
 2552 0124 13       		.uleb128 0x13
 2553 0125 01       		.uleb128 0x1
 2554 0126 13       		.uleb128 0x13
 2555 0127 00       		.byte	0
 2556 0128 00       		.byte	0
 2557 0129 1A       		.uleb128 0x1a
 2558 012a 21       		.uleb128 0x21
 2559 012b 00       		.byte	0
 2560 012c 49       		.uleb128 0x49
 2561 012d 13       		.uleb128 0x13
 2562 012e 2F       		.uleb128 0x2f
 2563 012f 0B       		.uleb128 0xb
 2564 0130 00       		.byte	0
 2565 0131 00       		.byte	0
 2566 0132 1B       		.uleb128 0x1b
 2567 0133 2E       		.uleb128 0x2e
 2568 0134 01       		.byte	0x1
 2569 0135 03       		.uleb128 0x3
 2570 0136 0E       		.uleb128 0xe
 2571 0137 3A       		.uleb128 0x3a
 2572 0138 0B       		.uleb128 0xb
 2573 0139 3B       		.uleb128 0x3b
 2574 013a 0B       		.uleb128 0xb
 2575 013b 27       		.uleb128 0x27
 2576 013c 19       		.uleb128 0x19
 2577 013d 49       		.uleb128 0x49
 2578 013e 13       		.uleb128 0x13
 2579 013f 11       		.uleb128 0x11
 2580 0140 01       		.uleb128 0x1
 2581 0141 12       		.uleb128 0x12
 2582 0142 06       		.uleb128 0x6
 2583 0143 40       		.uleb128 0x40
 2584 0144 18       		.uleb128 0x18
 2585 0145 9642     		.uleb128 0x2116
 2586 0147 19       		.uleb128 0x19
 2587 0148 01       		.uleb128 0x1
 2588 0149 13       		.uleb128 0x13
 2589 014a 00       		.byte	0
 2590 014b 00       		.byte	0
 2591 014c 1C       		.uleb128 0x1c
 2592 014d 05       		.uleb128 0x5
ARM GAS  /tmp/ccMY8SYN.s 			page 47


 2593 014e 00       		.byte	0
 2594 014f 03       		.uleb128 0x3
 2595 0150 08       		.uleb128 0x8
 2596 0151 3A       		.uleb128 0x3a
 2597 0152 0B       		.uleb128 0xb
 2598 0153 3B       		.uleb128 0x3b
 2599 0154 0B       		.uleb128 0xb
 2600 0155 49       		.uleb128 0x49
 2601 0156 13       		.uleb128 0x13
 2602 0157 02       		.uleb128 0x2
 2603 0158 18       		.uleb128 0x18
 2604 0159 00       		.byte	0
 2605 015a 00       		.byte	0
 2606 015b 1D       		.uleb128 0x1d
 2607 015c 2E       		.uleb128 0x2e
 2608 015d 01       		.byte	0x1
 2609 015e 03       		.uleb128 0x3
 2610 015f 08       		.uleb128 0x8
 2611 0160 3A       		.uleb128 0x3a
 2612 0161 0B       		.uleb128 0xb
 2613 0162 3B       		.uleb128 0x3b
 2614 0163 0B       		.uleb128 0xb
 2615 0164 27       		.uleb128 0x27
 2616 0165 19       		.uleb128 0x19
 2617 0166 49       		.uleb128 0x49
 2618 0167 13       		.uleb128 0x13
 2619 0168 11       		.uleb128 0x11
 2620 0169 01       		.uleb128 0x1
 2621 016a 12       		.uleb128 0x12
 2622 016b 06       		.uleb128 0x6
 2623 016c 40       		.uleb128 0x40
 2624 016d 18       		.uleb128 0x18
 2625 016e 9642     		.uleb128 0x2116
 2626 0170 19       		.uleb128 0x19
 2627 0171 01       		.uleb128 0x1
 2628 0172 13       		.uleb128 0x13
 2629 0173 00       		.byte	0
 2630 0174 00       		.byte	0
 2631 0175 1E       		.uleb128 0x1e
 2632 0176 05       		.uleb128 0x5
 2633 0177 00       		.byte	0
 2634 0178 03       		.uleb128 0x3
 2635 0179 0E       		.uleb128 0xe
 2636 017a 3A       		.uleb128 0x3a
 2637 017b 0B       		.uleb128 0xb
 2638 017c 3B       		.uleb128 0x3b
 2639 017d 0B       		.uleb128 0xb
 2640 017e 49       		.uleb128 0x49
 2641 017f 13       		.uleb128 0x13
 2642 0180 02       		.uleb128 0x2
 2643 0181 18       		.uleb128 0x18
 2644 0182 00       		.byte	0
 2645 0183 00       		.byte	0
 2646 0184 1F       		.uleb128 0x1f
 2647 0185 2E       		.uleb128 0x2e
 2648 0186 00       		.byte	0
 2649 0187 3F       		.uleb128 0x3f
ARM GAS  /tmp/ccMY8SYN.s 			page 48


 2650 0188 19       		.uleb128 0x19
 2651 0189 03       		.uleb128 0x3
 2652 018a 0E       		.uleb128 0xe
 2653 018b 3A       		.uleb128 0x3a
 2654 018c 0B       		.uleb128 0xb
 2655 018d 3B       		.uleb128 0x3b
 2656 018e 0B       		.uleb128 0xb
 2657 018f 27       		.uleb128 0x27
 2658 0190 19       		.uleb128 0x19
 2659 0191 11       		.uleb128 0x11
 2660 0192 01       		.uleb128 0x1
 2661 0193 12       		.uleb128 0x12
 2662 0194 06       		.uleb128 0x6
 2663 0195 40       		.uleb128 0x40
 2664 0196 18       		.uleb128 0x18
 2665 0197 9642     		.uleb128 0x2116
 2666 0199 19       		.uleb128 0x19
 2667 019a 00       		.byte	0
 2668 019b 00       		.byte	0
 2669 019c 20       		.uleb128 0x20
 2670 019d 2E       		.uleb128 0x2e
 2671 019e 01       		.byte	0x1
 2672 019f 3F       		.uleb128 0x3f
 2673 01a0 19       		.uleb128 0x19
 2674 01a1 03       		.uleb128 0x3
 2675 01a2 0E       		.uleb128 0xe
 2676 01a3 3A       		.uleb128 0x3a
 2677 01a4 0B       		.uleb128 0xb
 2678 01a5 3B       		.uleb128 0x3b
 2679 01a6 0B       		.uleb128 0xb
 2680 01a7 27       		.uleb128 0x27
 2681 01a8 19       		.uleb128 0x19
 2682 01a9 11       		.uleb128 0x11
 2683 01aa 01       		.uleb128 0x1
 2684 01ab 12       		.uleb128 0x12
 2685 01ac 06       		.uleb128 0x6
 2686 01ad 40       		.uleb128 0x40
 2687 01ae 18       		.uleb128 0x18
 2688 01af 9642     		.uleb128 0x2116
 2689 01b1 19       		.uleb128 0x19
 2690 01b2 01       		.uleb128 0x1
 2691 01b3 13       		.uleb128 0x13
 2692 01b4 00       		.byte	0
 2693 01b5 00       		.byte	0
 2694 01b6 21       		.uleb128 0x21
 2695 01b7 0B       		.uleb128 0xb
 2696 01b8 01       		.byte	0x1
 2697 01b9 11       		.uleb128 0x11
 2698 01ba 01       		.uleb128 0x1
 2699 01bb 12       		.uleb128 0x12
 2700 01bc 06       		.uleb128 0x6
 2701 01bd 01       		.uleb128 0x1
 2702 01be 13       		.uleb128 0x13
 2703 01bf 00       		.byte	0
 2704 01c0 00       		.byte	0
 2705 01c1 22       		.uleb128 0x22
 2706 01c2 34       		.uleb128 0x34
ARM GAS  /tmp/ccMY8SYN.s 			page 49


 2707 01c3 00       		.byte	0
 2708 01c4 03       		.uleb128 0x3
 2709 01c5 08       		.uleb128 0x8
 2710 01c6 3A       		.uleb128 0x3a
 2711 01c7 0B       		.uleb128 0xb
 2712 01c8 3B       		.uleb128 0x3b
 2713 01c9 0B       		.uleb128 0xb
 2714 01ca 49       		.uleb128 0x49
 2715 01cb 13       		.uleb128 0x13
 2716 01cc 02       		.uleb128 0x2
 2717 01cd 18       		.uleb128 0x18
 2718 01ce 00       		.byte	0
 2719 01cf 00       		.byte	0
 2720 01d0 23       		.uleb128 0x23
 2721 01d1 0B       		.uleb128 0xb
 2722 01d2 01       		.byte	0x1
 2723 01d3 11       		.uleb128 0x11
 2724 01d4 01       		.uleb128 0x1
 2725 01d5 12       		.uleb128 0x12
 2726 01d6 06       		.uleb128 0x6
 2727 01d7 00       		.byte	0
 2728 01d8 00       		.byte	0
 2729 01d9 24       		.uleb128 0x24
 2730 01da 2E       		.uleb128 0x2e
 2731 01db 01       		.byte	0x1
 2732 01dc 3F       		.uleb128 0x3f
 2733 01dd 19       		.uleb128 0x19
 2734 01de 03       		.uleb128 0x3
 2735 01df 0E       		.uleb128 0xe
 2736 01e0 3A       		.uleb128 0x3a
 2737 01e1 0B       		.uleb128 0xb
 2738 01e2 3B       		.uleb128 0x3b
 2739 01e3 0B       		.uleb128 0xb
 2740 01e4 27       		.uleb128 0x27
 2741 01e5 19       		.uleb128 0x19
 2742 01e6 49       		.uleb128 0x49
 2743 01e7 13       		.uleb128 0x13
 2744 01e8 11       		.uleb128 0x11
 2745 01e9 01       		.uleb128 0x1
 2746 01ea 12       		.uleb128 0x12
 2747 01eb 06       		.uleb128 0x6
 2748 01ec 40       		.uleb128 0x40
 2749 01ed 18       		.uleb128 0x18
 2750 01ee 9642     		.uleb128 0x2116
 2751 01f0 19       		.uleb128 0x19
 2752 01f1 01       		.uleb128 0x1
 2753 01f2 13       		.uleb128 0x13
 2754 01f3 00       		.byte	0
 2755 01f4 00       		.byte	0
 2756 01f5 25       		.uleb128 0x25
 2757 01f6 34       		.uleb128 0x34
 2758 01f7 00       		.byte	0
 2759 01f8 03       		.uleb128 0x3
 2760 01f9 0E       		.uleb128 0xe
 2761 01fa 3A       		.uleb128 0x3a
 2762 01fb 0B       		.uleb128 0xb
 2763 01fc 3B       		.uleb128 0x3b
ARM GAS  /tmp/ccMY8SYN.s 			page 50


 2764 01fd 05       		.uleb128 0x5
 2765 01fe 49       		.uleb128 0x49
 2766 01ff 13       		.uleb128 0x13
 2767 0200 3F       		.uleb128 0x3f
 2768 0201 19       		.uleb128 0x19
 2769 0202 3C       		.uleb128 0x3c
 2770 0203 19       		.uleb128 0x19
 2771 0204 00       		.byte	0
 2772 0205 00       		.byte	0
 2773 0206 00       		.byte	0
 2774              		.section	.debug_aranges,"",%progbits
 2775 0000 84000000 		.4byte	0x84
 2776 0004 0200     		.2byte	0x2
 2777 0006 00000000 		.4byte	.Ldebug_info0
 2778 000a 04       		.byte	0x4
 2779 000b 00       		.byte	0
 2780 000c 0000     		.2byte	0
 2781 000e 0000     		.2byte	0
 2782 0010 00000000 		.4byte	.LFB118
 2783 0014 26000000 		.4byte	.LFE118-.LFB118
 2784 0018 00000000 		.4byte	.LFB119
 2785 001c 26000000 		.4byte	.LFE119-.LFB119
 2786 0020 00000000 		.4byte	.LFB120
 2787 0024 2C000000 		.4byte	.LFE120-.LFB120
 2788 0028 00000000 		.4byte	.LFB121
 2789 002c 1E000000 		.4byte	.LFE121-.LFB121
 2790 0030 00000000 		.4byte	.LFB122
 2791 0034 2C000000 		.4byte	.LFE122-.LFB122
 2792 0038 00000000 		.4byte	.LFB123
 2793 003c 1E000000 		.4byte	.LFE123-.LFB123
 2794 0040 00000000 		.4byte	.LFB124
 2795 0044 26000000 		.4byte	.LFE124-.LFB124
 2796 0048 00000000 		.4byte	.LFB125
 2797 004c 26000000 		.4byte	.LFE125-.LFB125
 2798 0050 00000000 		.4byte	.LFB126
 2799 0054 08000000 		.4byte	.LFE126-.LFB126
 2800 0058 00000000 		.4byte	.LFB127
 2801 005c 5E000000 		.4byte	.LFE127-.LFB127
 2802 0060 00000000 		.4byte	.LFB128
 2803 0064 5E000000 		.4byte	.LFE128-.LFB128
 2804 0068 00000000 		.4byte	.LFB129
 2805 006c 72000000 		.4byte	.LFE129-.LFB129
 2806 0070 00000000 		.4byte	.LFB130
 2807 0074 60000000 		.4byte	.LFE130-.LFB130
 2808 0078 00000000 		.4byte	.LFB131
 2809 007c 44000000 		.4byte	.LFE131-.LFB131
 2810 0080 00000000 		.4byte	0
 2811 0084 00000000 		.4byte	0
 2812              		.section	.debug_ranges,"",%progbits
 2813              	.Ldebug_ranges0:
 2814 0000 00000000 		.4byte	.LFB118
 2815 0004 26000000 		.4byte	.LFE118
 2816 0008 00000000 		.4byte	.LFB119
 2817 000c 26000000 		.4byte	.LFE119
 2818 0010 00000000 		.4byte	.LFB120
 2819 0014 2C000000 		.4byte	.LFE120
 2820 0018 00000000 		.4byte	.LFB121
ARM GAS  /tmp/ccMY8SYN.s 			page 51


 2821 001c 1E000000 		.4byte	.LFE121
 2822 0020 00000000 		.4byte	.LFB122
 2823 0024 2C000000 		.4byte	.LFE122
 2824 0028 00000000 		.4byte	.LFB123
 2825 002c 1E000000 		.4byte	.LFE123
 2826 0030 00000000 		.4byte	.LFB124
 2827 0034 26000000 		.4byte	.LFE124
 2828 0038 00000000 		.4byte	.LFB125
 2829 003c 26000000 		.4byte	.LFE125
 2830 0040 00000000 		.4byte	.LFB126
 2831 0044 08000000 		.4byte	.LFE126
 2832 0048 00000000 		.4byte	.LFB127
 2833 004c 5E000000 		.4byte	.LFE127
 2834 0050 00000000 		.4byte	.LFB128
 2835 0054 5E000000 		.4byte	.LFE128
 2836 0058 00000000 		.4byte	.LFB129
 2837 005c 72000000 		.4byte	.LFE129
 2838 0060 00000000 		.4byte	.LFB130
 2839 0064 60000000 		.4byte	.LFE130
 2840 0068 00000000 		.4byte	.LFB131
 2841 006c 44000000 		.4byte	.LFE131
 2842 0070 00000000 		.4byte	0
 2843 0074 00000000 		.4byte	0
 2844              		.section	.debug_line,"",%progbits
 2845              	.Ldebug_line0:
 2846 0000 61030000 		.section	.debug_str,"MS",%progbits,1
 2846      02001B02 
 2846      00000201 
 2846      FB0E0D00 
 2846      01010101 
 2847              	.LASF2:
 2848 0000 73697A65 		.ascii	"size_t\000"
 2848      5F7400
 2849              	.LASF70:
 2850 0007 7264796D 		.ascii	"rdymsg\000"
 2850      736700
 2851              	.LASF19:
 2852 000e 75696E74 		.ascii	"uint64_t\000"
 2852      36345F74 
 2852      00
 2853              	.LASF86:
 2854 0017 4F757470 		.ascii	"OutputQueue\000"
 2854      75745175 
 2854      65756500 
 2855              	.LASF3:
 2856 0023 5F5F7569 		.ascii	"__uint8_t\000"
 2856      6E74385F 
 2856      7400
 2857              	.LASF14:
 2858 002d 6C6F6E67 		.ascii	"long long unsigned int\000"
 2858      206C6F6E 
 2858      6720756E 
 2858      7369676E 
 2858      65642069 
 2859              	.LASF71:
 2860 0044 65786974 		.ascii	"exitcode\000"
 2860      636F6465 
ARM GAS  /tmp/ccMY8SYN.s 			page 52


 2860      00
 2861              	.LASF129:
 2862 004d 49544D5F 		.ascii	"ITM_RxBuffer\000"
 2862      52784275 
 2862      66666572 
 2862      00
 2863              	.LASF119:
 2864 005a 73644F62 		.ascii	"sdObjectInit\000"
 2864      6A656374 
 2864      496E6974 
 2864      00
 2865              	.LASF114:
 2866 0067 72656164 		.ascii	"readt\000"
 2866      7400
 2867              	.LASF76:
 2868 006d 715F7761 		.ascii	"q_waiting\000"
 2868      6974696E 
 2868      6700
 2869              	.LASF12:
 2870 0077 6C6F6E67 		.ascii	"long long int\000"
 2870      206C6F6E 
 2870      6720696E 
 2870      7400
 2871              	.LASF1:
 2872 0085 7369676E 		.ascii	"signed char\000"
 2872      65642063 
 2872      68617200 
 2873              	.LASF93:
 2874 0091 47545052 		.ascii	"GTPR\000"
 2874      00
 2875              	.LASF51:
 2876 0096 705F6D70 		.ascii	"p_mpool\000"
 2876      6F6F6C00 
 2877              	.LASF20:
 2878 009e 626F6F6C 		.ascii	"bool_t\000"
 2878      5F7400
 2879              	.LASF60:
 2880 00a5 6D5F7175 		.ascii	"m_queue\000"
 2880      65756500 
 2881              	.LASF25:
 2882 00ad 74736C69 		.ascii	"tslices_t\000"
 2882      6365735F 
 2882      7400
 2883              	.LASF102:
 2884 00b7 73746174 		.ascii	"state\000"
 2884      6500
 2885              	.LASF9:
 2886 00bd 6C6F6E67 		.ascii	"long int\000"
 2886      20696E74 
 2886      00
 2887              	.LASF23:
 2888 00c6 74737461 		.ascii	"tstate_t\000"
 2888      74655F74 
 2888      00
 2889              	.LASF42:
 2890 00cf 705F7265 		.ascii	"p_refs\000"
 2890      667300
ARM GAS  /tmp/ccMY8SYN.s 			page 53


 2891              	.LASF78:
 2892 00d6 715F6275 		.ascii	"q_buffer\000"
 2892      66666572 
 2892      00
 2893              	.LASF80:
 2894 00df 715F7772 		.ascii	"q_wrptr\000"
 2894      70747200 
 2895              	.LASF44:
 2896 00e7 705F7469 		.ascii	"p_time\000"
 2896      6D6500
 2897              	.LASF36:
 2898 00ee 705F6E65 		.ascii	"p_newer\000"
 2898      77657200 
 2899              	.LASF124:
 2900 00f6 474E5520 		.ascii	"GNU C 4.8.2 -mcpu=cortex-m4 -mno-thumb-interwork -m"
 2900      4320342E 
 2900      382E3220 
 2900      2D6D6370 
 2900      753D636F 
 2901 0129 7468756D 		.ascii	"thumb -ggdb -O0 -fomit-frame-pointer -falign-functi"
 2901      62202D67 
 2901      67646220 
 2901      2D4F3020 
 2901      2D666F6D 
 2902 015c 6F6E733D 		.ascii	"ons=16 -ffunction-sections -fdata-sections -fno-com"
 2902      3136202D 
 2902      6666756E 
 2902      6374696F 
 2902      6E2D7365 
 2903 018f 6D6F6E00 		.ascii	"mon\000"
 2904              	.LASF125:
 2905 0193 2E2E2F2E 		.ascii	"../..//os/hal/src/serial.c\000"
 2905      2E2F2F6F 
 2905      732F6861 
 2905      6C2F7372 
 2905      632F7365 
 2906              	.LASF54:
 2907 01ae 72656761 		.ascii	"regarm_t\000"
 2907      726D5F74 
 2907      00
 2908              	.LASF68:
 2909 01b7 4576656E 		.ascii	"EventSource\000"
 2909      74536F75 
 2909      72636500 
 2910              	.LASF105:
 2911 01c3 75736172 		.ascii	"usart\000"
 2911      7400
 2912              	.LASF0:
 2913 01c9 756E7369 		.ascii	"unsigned int\000"
 2913      676E6564 
 2913      20696E74 
 2913      00
 2914              	.LASF16:
 2915 01d6 75696E74 		.ascii	"uint16_t\000"
 2915      31365F74 
 2915      00
 2916              	.LASF108:
ARM GAS  /tmp/ccMY8SYN.s 			page 54


 2917 01df 53657269 		.ascii	"SerialDriverVMT\000"
 2917      616C4472 
 2917      69766572 
 2917      564D5400 
 2918              	.LASF117:
 2919 01ef 696E6F74 		.ascii	"inotify\000"
 2919      69667900 
 2920              	.LASF103:
 2921 01f7 69717565 		.ascii	"iqueue\000"
 2921      756500
 2922              	.LASF46:
 2923 01fe 705F6D73 		.ascii	"p_msgqueue\000"
 2923      67717565 
 2923      756500
 2924              	.LASF115:
 2925 0209 74696D65 		.ascii	"timeout\000"
 2925      6F757400 
 2926              	.LASF112:
 2927 0211 67657474 		.ascii	"gett\000"
 2927      00
 2928              	.LASF101:
 2929 0216 6576656E 		.ascii	"event\000"
 2929      7400
 2930              	.LASF7:
 2931 021c 73686F72 		.ascii	"short unsigned int\000"
 2931      7420756E 
 2931      7369676E 
 2931      65642069 
 2931      6E7400
 2932              	.LASF27:
 2933 022f 6D73675F 		.ascii	"msg_t\000"
 2933      7400
 2934              	.LASF104:
 2935 0235 6F717565 		.ascii	"oqueue\000"
 2935      756500
 2936              	.LASF95:
 2937 023c 55534152 		.ascii	"USART_TypeDef\000"
 2937      545F5479 
 2937      70654465 
 2937      6600
 2938              	.LASF113:
 2939 024a 77726974 		.ascii	"writet\000"
 2939      657400
 2940              	.LASF22:
 2941 0251 746D6F64 		.ascii	"tmode_t\000"
 2941      655F7400 
 2942              	.LASF53:
 2943 0259 54687265 		.ascii	"ThreadsList\000"
 2943      6164734C 
 2943      69737400 
 2944              	.LASF28:
 2945 0265 6576656E 		.ascii	"eventmask_t\000"
 2945      746D6173 
 2945      6B5F7400 
 2946              	.LASF85:
 2947 0271 496E7075 		.ascii	"InputQueue\000"
 2947      74517565 
ARM GAS  /tmp/ccMY8SYN.s 			page 55


 2947      756500
 2948              	.LASF106:
 2949 027c 73706565 		.ascii	"speed\000"
 2949      6400
 2950              	.LASF84:
 2951 0282 716E6F74 		.ascii	"qnotify_t\000"
 2951      6966795F 
 2951      7400
 2952              	.LASF75:
 2953 028c 47656E65 		.ascii	"GenericQueue\000"
 2953      72696351 
 2953      75657565 
 2953      00
 2954              	.LASF55:
 2955 0299 73746B61 		.ascii	"stkalign_t\000"
 2955      6C69676E 
 2955      5F7400
 2956              	.LASF109:
 2957 02a4 77726974 		.ascii	"write\000"
 2957      6500
 2958              	.LASF111:
 2959 02aa 70757474 		.ascii	"putt\000"
 2959      00
 2960              	.LASF58:
 2961 02af 73697A65 		.ascii	"sizetype\000"
 2961      74797065 
 2961      00
 2962              	.LASF77:
 2963 02b8 715F636F 		.ascii	"q_counter\000"
 2963      756E7465 
 2963      7200
 2964              	.LASF59:
 2965 02c2 4D757465 		.ascii	"Mutex\000"
 2965      7800
 2966              	.LASF34:
 2967 02c8 705F7072 		.ascii	"p_prio\000"
 2967      696F00
 2968              	.LASF66:
 2969 02cf 656C5F6D 		.ascii	"el_mask\000"
 2969      61736B00 
 2970              	.LASF37:
 2971 02d7 705F6F6C 		.ascii	"p_older\000"
 2971      64657200 
 2972              	.LASF52:
 2973 02df 54687265 		.ascii	"ThreadsQueue\000"
 2973      61647351 
 2973      75657565 
 2973      00
 2974              	.LASF39:
 2975 02ec 705F7374 		.ascii	"p_stklimit\000"
 2975      6B6C696D 
 2975      697400
 2976              	.LASF122:
 2977 02f7 73645374 		.ascii	"sdStop\000"
 2977      6F7000
 2978              	.LASF116:
 2979 02fe 74696D65 		.ascii	"time\000"
ARM GAS  /tmp/ccMY8SYN.s 			page 56


 2979      00
 2980              	.LASF107:
 2981 0303 53657269 		.ascii	"SerialConfig\000"
 2981      616C436F 
 2981      6E666967 
 2981      00
 2982              	.LASF13:
 2983 0310 5F5F7569 		.ascii	"__uint64_t\000"
 2983      6E743634 
 2983      5F7400
 2984              	.LASF126:
 2985 031b 2F686F6D 		.ascii	"/home/ece497/vbox-shared/mplayer/ChibiOS-RT-stable_"
 2985      652F6563 
 2985      65343937 
 2985      2F76626F 
 2985      782D7368 
 2986 034e 322E362E 		.ascii	"2.6.x/demos/SDCARD\000"
 2986      782F6465 
 2986      6D6F732F 
 2986      53444341 
 2986      524400
 2987              	.LASF24:
 2988 0361 74726566 		.ascii	"trefs_t\000"
 2988      735F7400 
 2989              	.LASF87:
 2990 0369 52455345 		.ascii	"RESERVED0\000"
 2990      52564544 
 2990      3000
 2991              	.LASF88:
 2992 0373 52455345 		.ascii	"RESERVED1\000"
 2992      52564544 
 2992      3100
 2993              	.LASF89:
 2994 037d 52455345 		.ascii	"RESERVED2\000"
 2994      52564544 
 2994      3200
 2995              	.LASF90:
 2996 0387 52455345 		.ascii	"RESERVED3\000"
 2996      52564544 
 2996      3300
 2997              	.LASF91:
 2998 0391 52455345 		.ascii	"RESERVED4\000"
 2998      52564544 
 2998      3400
 2999              	.LASF33:
 3000 039b 705F7072 		.ascii	"p_prev\000"
 3000      657600
 3001              	.LASF94:
 3002 03a2 52455345 		.ascii	"RESERVED6\000"
 3002      52564544 
 3002      3600
 3003              	.LASF26:
 3004 03ac 74707269 		.ascii	"tprio_t\000"
 3004      6F5F7400 
 3005              	.LASF81:
 3006 03b4 715F7264 		.ascii	"q_rdptr\000"
 3006      70747200 
ARM GAS  /tmp/ccMY8SYN.s 			page 57


 3007              	.LASF21:
 3008 03bc 5F426F6F 		.ascii	"_Bool\000"
 3008      6C00
 3009              	.LASF17:
 3010 03c2 696E7433 		.ascii	"int32_t\000"
 3010      325F7400 
 3011              	.LASF4:
 3012 03ca 756E7369 		.ascii	"unsigned char\000"
 3012      676E6564 
 3012      20636861 
 3012      7200
 3013              	.LASF65:
 3014 03d8 656C5F6C 		.ascii	"el_listener\000"
 3014      69737465 
 3014      6E657200 
 3015              	.LASF67:
 3016 03e4 656C5F66 		.ascii	"el_flags\000"
 3016      6C616773 
 3016      00
 3017              	.LASF40:
 3018 03ed 705F7374 		.ascii	"p_state\000"
 3018      61746500 
 3019              	.LASF49:
 3020 03f5 705F6D74 		.ascii	"p_mtxlist\000"
 3020      786C6973 
 3020      7400
 3021              	.LASF5:
 3022 03ff 73686F72 		.ascii	"short int\000"
 3022      7420696E 
 3022      7400
 3023              	.LASF43:
 3024 0409 705F7072 		.ascii	"p_preempt\000"
 3024      65656D70 
 3024      7400
 3025              	.LASF73:
 3026 0413 65776D61 		.ascii	"ewmask\000"
 3026      736B00
 3027              	.LASF32:
 3028 041a 705F6E65 		.ascii	"p_next\000"
 3028      787400
 3029              	.LASF41:
 3030 0421 705F666C 		.ascii	"p_flags\000"
 3030      61677300 
 3031              	.LASF64:
 3032 0429 656C5F6E 		.ascii	"el_next\000"
 3032      65787400 
 3033              	.LASF97:
 3034 0431 53445F53 		.ascii	"SD_STOP\000"
 3034      544F5000 
 3035              	.LASF31:
 3036 0439 54687265 		.ascii	"Thread\000"
 3036      616400
 3037              	.LASF48:
 3038 0440 705F6570 		.ascii	"p_epending\000"
 3038      656E6469 
 3038      6E6700
 3039              	.LASF96:
ARM GAS  /tmp/ccMY8SYN.s 			page 58


 3040 044b 53445F55 		.ascii	"SD_UNINIT\000"
 3040      4E494E49 
 3040      5400
 3041              	.LASF92:
 3042 0455 52455345 		.ascii	"RESERVED5\000"
 3042      52564544 
 3042      3500
 3043              	.LASF18:
 3044 045f 75696E74 		.ascii	"uint32_t\000"
 3044      33325F74 
 3044      00
 3045              	.LASF99:
 3046 0468 73647374 		.ascii	"sdstate_t\000"
 3046      6174655F 
 3046      7400
 3047              	.LASF100:
 3048 0472 53657269 		.ascii	"SerialDriver\000"
 3048      616C4472 
 3048      69766572 
 3048      00
 3049              	.LASF11:
 3050 047f 6C6F6E67 		.ascii	"long unsigned int\000"
 3050      20756E73 
 3050      69676E65 
 3050      6420696E 
 3050      7400
 3051              	.LASF110:
 3052 0491 72656164 		.ascii	"read\000"
 3052      00
 3053              	.LASF74:
 3054 0496 63686172 		.ascii	"char\000"
 3054      00
 3055              	.LASF123:
 3056 049b 7364496E 		.ascii	"sdIncomingDataI\000"
 3056      636F6D69 
 3056      6E674461 
 3056      74614900 
 3057              	.LASF121:
 3058 04ab 636F6E66 		.ascii	"config\000"
 3058      696700
 3059              	.LASF120:
 3060 04b2 73645374 		.ascii	"sdStart\000"
 3060      61727400 
 3061              	.LASF6:
 3062 04ba 5F5F7569 		.ascii	"__uint16_t\000"
 3062      6E743136 
 3062      5F7400
 3063              	.LASF62:
 3064 04c5 6D5F6E65 		.ascii	"m_next\000"
 3064      787400
 3065              	.LASF30:
 3066 04cc 73797374 		.ascii	"systime_t\000"
 3066      696D655F 
 3066      7400
 3067              	.LASF50:
 3068 04d6 705F7265 		.ascii	"p_realprio\000"
 3068      616C7072 
ARM GAS  /tmp/ccMY8SYN.s 			page 59


 3068      696F00
 3069              	.LASF8:
 3070 04e1 5F5F696E 		.ascii	"__int32_t\000"
 3070      7433325F 
 3070      7400
 3071              	.LASF10:
 3072 04eb 5F5F7569 		.ascii	"__uint32_t\000"
 3072      6E743332 
 3072      5F7400
 3073              	.LASF57:
 3074 04f6 636F6E74 		.ascii	"context\000"
 3074      65787400 
 3075              	.LASF56:
 3076 04fe 696E7463 		.ascii	"intctx\000"
 3076      747800
 3077              	.LASF98:
 3078 0505 53445F52 		.ascii	"SD_READY\000"
 3078      45414459 
 3078      00
 3079              	.LASF29:
 3080 050e 666C6167 		.ascii	"flagsmask_t\000"
 3080      736D6173 
 3080      6B5F7400 
 3081              	.LASF79:
 3082 051a 715F746F 		.ascii	"q_top\000"
 3082      7000
 3083              	.LASF38:
 3084 0520 705F6E61 		.ascii	"p_name\000"
 3084      6D6500
 3085              	.LASF69:
 3086 0527 65735F6E 		.ascii	"es_next\000"
 3086      65787400 
 3087              	.LASF82:
 3088 052f 715F6E6F 		.ascii	"q_notify\000"
 3088      74696679 
 3088      00
 3089              	.LASF128:
 3090 0538 73645265 		.ascii	"sdRequestDataI\000"
 3090      71756573 
 3090      74446174 
 3090      614900
 3091              	.LASF15:
 3092 0547 75696E74 		.ascii	"uint8_t\000"
 3092      385F7400 
 3093              	.LASF118:
 3094 054f 6F6E6F74 		.ascii	"onotify\000"
 3094      69667900 
 3095              	.LASF63:
 3096 0557 4576656E 		.ascii	"EventListener\000"
 3096      744C6973 
 3096      74656E65 
 3096      7200
 3097              	.LASF72:
 3098 0565 77746F62 		.ascii	"wtobjp\000"
 3098      6A7000
 3099              	.LASF47:
 3100 056c 705F6D73 		.ascii	"p_msg\000"
ARM GAS  /tmp/ccMY8SYN.s 			page 60


 3100      6700
 3101              	.LASF127:
 3102 0572 7364496E 		.ascii	"sdInit\000"
 3102      697400
 3103              	.LASF83:
 3104 0579 715F6C69 		.ascii	"q_link\000"
 3104      6E6B00
 3105              	.LASF61:
 3106 0580 6D5F6F77 		.ascii	"m_owner\000"
 3106      6E657200 
 3107              	.LASF35:
 3108 0588 705F6374 		.ascii	"p_ctx\000"
 3108      7800
 3109              	.LASF45:
 3110 058e 705F7761 		.ascii	"p_waiting\000"
 3110      6974696E 
 3110      6700
 3111              		.ident	"GCC: (Arch Repository) 4.8.2"
ARM GAS  /tmp/ccMY8SYN.s 			page 61


DEFINED SYMBOLS
                            *ABS*:0000000000000000 serial.c
     /tmp/ccMY8SYN.s:19     .text.write:0000000000000000 $t
     /tmp/ccMY8SYN.s:24     .text.write:0000000000000000 write
     /tmp/ccMY8SYN.s:57     .text.read:0000000000000000 $t
     /tmp/ccMY8SYN.s:62     .text.read:0000000000000000 read
     /tmp/ccMY8SYN.s:94     .text.put:0000000000000000 $t
     /tmp/ccMY8SYN.s:99     .text.put:0000000000000000 put
     /tmp/ccMY8SYN.s:131    .text.get:0000000000000000 $t
     /tmp/ccMY8SYN.s:136    .text.get:0000000000000000 get
     /tmp/ccMY8SYN.s:164    .text.putt:0000000000000000 $t
     /tmp/ccMY8SYN.s:169    .text.putt:0000000000000000 putt
     /tmp/ccMY8SYN.s:202    .text.gett:0000000000000000 $t
     /tmp/ccMY8SYN.s:207    .text.gett:0000000000000000 gett
     /tmp/ccMY8SYN.s:236    .text.writet:0000000000000000 $t
     /tmp/ccMY8SYN.s:241    .text.writet:0000000000000000 writet
     /tmp/ccMY8SYN.s:274    .text.readt:0000000000000000 $t
     /tmp/ccMY8SYN.s:279    .text.readt:0000000000000000 readt
     /tmp/ccMY8SYN.s:312    .rodata.vmt:0000000000000000 $d
     /tmp/ccMY8SYN.s:315    .rodata.vmt:0000000000000000 vmt
     /tmp/ccMY8SYN.s:325    .text.sdInit:0000000000000000 $t
     /tmp/ccMY8SYN.s:331    .text.sdInit:0000000000000000 sdInit
     /tmp/ccMY8SYN.s:349    .text.sdObjectInit:0000000000000000 $t
     /tmp/ccMY8SYN.s:355    .text.sdObjectInit:0000000000000000 sdObjectInit
     /tmp/ccMY8SYN.s:415    .rodata:0000000000000000 $d
     /tmp/ccMY8SYN.s:416    .rodata:0000000000000000 .LC0
     /tmp/ccMY8SYN.s:419    .rodata:000000000000000c .LC1
     /tmp/ccMY8SYN.s:422    .text.sdStart:0000000000000000 $t
     /tmp/ccMY8SYN.s:428    .text.sdStart:0000000000000000 sdStart
     /tmp/ccMY8SYN.s:499    .rodata:000000000000001c .LC2
     /tmp/ccMY8SYN.s:502    .rodata:0000000000000028 .LC3
     /tmp/ccMY8SYN.s:505    .text.sdStop:0000000000000000 $t
     /tmp/ccMY8SYN.s:511    .text.sdStop:0000000000000000 sdStop
     /tmp/ccMY8SYN.s:592    .rodata:0000000000000038 .LC4
     /tmp/ccMY8SYN.s:595    .text.sdIncomingDataI:0000000000000000 $t
     /tmp/ccMY8SYN.s:601    .text.sdIncomingDataI:0000000000000000 sdIncomingDataI
     /tmp/ccMY8SYN.s:664    .rodata:000000000000004c .LC5
     /tmp/ccMY8SYN.s:667    .text.sdRequestDataI:0000000000000000 $t
     /tmp/ccMY8SYN.s:673    .text.sdRequestDataI:0000000000000000 sdRequestDataI
                     .debug_frame:0000000000000010 $d

UNDEFINED SYMBOLS
chOQWriteTimeout
chIQReadTimeout
chOQPutTimeout
chIQGetTimeout
sd_lld_init
chIQInit
chOQInit
chDbgPanic
dbg_check_lock
sd_lld_start
dbg_check_unlock
sd_lld_stop
chOQResetI
chIQResetI
chSchRescheduleS
ARM GAS  /tmp/ccMY8SYN.s 			page 62


chDbgCheckClassI
chEvtBroadcastFlagsI
chIQPutI
chOQGetI
