ARM GAS  /tmp/ccMY8SYN.s 			page 1


   1              		.syntax unified
   2              		.cpu cortex-m4
   3              		.fpu softvfp
   4              		.eabi_attribute 20, 1
   5              		.eabi_attribute 21, 1
   6              		.eabi_attribute 23, 3
   7              		.eabi_attribute 24, 1
   8              		.eabi_attribute 25, 1
   9              		.eabi_attribute 26, 1
  10              		.eabi_attribute 30, 6
  11              		.eabi_attribute 34, 1
  12              		.eabi_attribute 18, 4
  13              		.thumb
  14              		.file	"serial.c"
  15              		.text
  16              	.Ltext0:
  17              		.cfi_sections	.debug_frame
  18              		.section	.text.write,"ax",%progbits
  19              		.align	2
  20              		.p2align 4,,15
  21              		.thumb
  22              		.thumb_func
  23              		.type	write, %function
  24              	write:
  25              	.LFB118:
  26              		.file 1 "../..//os/hal/src/serial.c"
  27              		.loc 1 62 0
  28              		.cfi_startproc
  29              		@ args = 0, pretend = 0, frame = 16
  30              		@ frame_needed = 0, uses_anonymous_args = 0
  31 0000 00B5     		push	{lr}
  32              		.cfi_def_cfa_offset 4
  33              		.cfi_offset 14, -4
  34 0002 85B0     		sub	sp, sp, #20
  35              		.cfi_def_cfa_offset 24
  36 0004 0390     		str	r0, [sp, #12]
  37 0006 0291     		str	r1, [sp, #8]
  38 0008 0192     		str	r2, [sp, #4]
  39              		.loc 1 64 0
  40 000a 039B     		ldr	r3, [sp, #12]
  41 000c 3033     		adds	r3, r3, #48
  42 000e 1846     		mov	r0, r3
  43 0010 0299     		ldr	r1, [sp, #8]
  44 0012 019A     		ldr	r2, [sp, #4]
  45 0014 4FF0FF33 		mov	r3, #-1
  46 0018 FFF7FEFF 		bl	chOQWriteTimeout
  47 001c 0346     		mov	r3, r0
  48              		.loc 1 66 0
  49 001e 1846     		mov	r0, r3
  50 0020 05B0     		add	sp, sp, #20
  51              		@ sp needed
  52 0022 5DF804FB 		ldr	pc, [sp], #4
  53              		.cfi_endproc
  54              	.LFE118:
  55              		.size	write, .-write
  56 0026 00BFAFF3 		.section	.text.read,"ax",%progbits
  56      0080AFF3 
ARM GAS  /tmp/ccMY8SYN.s 			page 2


  56      0080
  57              		.align	2
  58              		.p2align 4,,15
  59              		.thumb
  60              		.thumb_func
  61              		.type	read, %function
  62              	read:
  63              	.LFB119:
  64              		.loc 1 68 0
  65              		.cfi_startproc
  66              		@ args = 0, pretend = 0, frame = 16
  67              		@ frame_needed = 0, uses_anonymous_args = 0
  68 0000 00B5     		push	{lr}
  69              		.cfi_def_cfa_offset 4
  70              		.cfi_offset 14, -4
  71 0002 85B0     		sub	sp, sp, #20
  72              		.cfi_def_cfa_offset 24
  73 0004 0390     		str	r0, [sp, #12]
  74 0006 0291     		str	r1, [sp, #8]
  75 0008 0192     		str	r2, [sp, #4]
  76              		.loc 1 70 0
  77 000a 039B     		ldr	r3, [sp, #12]
  78 000c 0C33     		adds	r3, r3, #12
  79 000e 1846     		mov	r0, r3
  80 0010 0299     		ldr	r1, [sp, #8]
  81 0012 019A     		ldr	r2, [sp, #4]
  82 0014 4FF0FF33 		mov	r3, #-1
  83 0018 FFF7FEFF 		bl	chIQReadTimeout
  84 001c 0346     		mov	r3, r0
  85              		.loc 1 72 0
  86 001e 1846     		mov	r0, r3
  87 0020 05B0     		add	sp, sp, #20
  88              		@ sp needed
  89 0022 5DF804FB 		ldr	pc, [sp], #4
  90              		.cfi_endproc
  91              	.LFE119:
  92              		.size	read, .-read
  93              		.section	.text.put,"ax",%progbits
  94              		.align	2
  95              		.p2align 4,,15
  96              		.thumb
  97              		.thumb_func
  98              		.type	put, %function
  99              	put:
 100              	.LFB120:
 101              		.loc 1 74 0
 102              		.cfi_startproc
 103              		@ args = 0, pretend = 0, frame = 8
 104              		@ frame_needed = 0, uses_anonymous_args = 0
 105 0000 00B5     		push	{lr}
 106              		.cfi_def_cfa_offset 4
 107              		.cfi_offset 14, -4
 108 0002 83B0     		sub	sp, sp, #12
 109              		.cfi_def_cfa_offset 16
 110 0004 0190     		str	r0, [sp, #4]
 111 0006 0B46     		mov	r3, r1
 112 0008 8DF80330 		strb	r3, [sp, #3]
ARM GAS  /tmp/ccMY8SYN.s 			page 3


 113              		.loc 1 76 0
 114 000c 019B     		ldr	r3, [sp, #4]
 115 000e 03F13002 		add	r2, r3, #48
 116 0012 9DF80330 		ldrb	r3, [sp, #3]	@ zero_extendqisi2
 117 0016 1046     		mov	r0, r2
 118 0018 1946     		mov	r1, r3
 119 001a 4FF0FF32 		mov	r2, #-1
 120 001e FFF7FEFF 		bl	chOQPutTimeout
 121 0022 0346     		mov	r3, r0
 122              		.loc 1 77 0
 123 0024 1846     		mov	r0, r3
 124 0026 03B0     		add	sp, sp, #12
 125              		@ sp needed
 126 0028 5DF804FB 		ldr	pc, [sp], #4
 127              		.cfi_endproc
 128              	.LFE120:
 129              		.size	put, .-put
 130 002c AFF30080 		.section	.text.get,"ax",%progbits
 131              		.align	2
 132              		.p2align 4,,15
 133              		.thumb
 134              		.thumb_func
 135              		.type	get, %function
 136              	get:
 137              	.LFB121:
 138              		.loc 1 79 0
 139              		.cfi_startproc
 140              		@ args = 0, pretend = 0, frame = 8
 141              		@ frame_needed = 0, uses_anonymous_args = 0
 142 0000 00B5     		push	{lr}
 143              		.cfi_def_cfa_offset 4
 144              		.cfi_offset 14, -4
 145 0002 83B0     		sub	sp, sp, #12
 146              		.cfi_def_cfa_offset 16
 147 0004 0190     		str	r0, [sp, #4]
 148              		.loc 1 81 0
 149 0006 019B     		ldr	r3, [sp, #4]
 150 0008 0C33     		adds	r3, r3, #12
 151 000a 1846     		mov	r0, r3
 152 000c 4FF0FF31 		mov	r1, #-1
 153 0010 FFF7FEFF 		bl	chIQGetTimeout
 154 0014 0346     		mov	r3, r0
 155              		.loc 1 82 0
 156 0016 1846     		mov	r0, r3
 157 0018 03B0     		add	sp, sp, #12
 158              		@ sp needed
 159 001a 5DF804FB 		ldr	pc, [sp], #4
 160              		.cfi_endproc
 161              	.LFE121:
 162              		.size	get, .-get
 163 001e 00BF     		.section	.text.putt,"ax",%progbits
 164              		.align	2
 165              		.p2align 4,,15
 166              		.thumb
 167              		.thumb_func
 168              		.type	putt, %function
 169              	putt:
ARM GAS  /tmp/ccMY8SYN.s 			page 4


 170              	.LFB122:
 171              		.loc 1 84 0
 172              		.cfi_startproc
 173              		@ args = 0, pretend = 0, frame = 16
 174              		@ frame_needed = 0, uses_anonymous_args = 0
 175 0000 00B5     		push	{lr}
 176              		.cfi_def_cfa_offset 4
 177              		.cfi_offset 14, -4
 178 0002 85B0     		sub	sp, sp, #20
 179              		.cfi_def_cfa_offset 24
 180 0004 0390     		str	r0, [sp, #12]
 181 0006 0B46     		mov	r3, r1
 182 0008 0192     		str	r2, [sp, #4]
 183 000a 8DF80B30 		strb	r3, [sp, #11]
 184              		.loc 1 86 0
 185 000e 039B     		ldr	r3, [sp, #12]
 186 0010 03F13002 		add	r2, r3, #48
 187 0014 9DF80B30 		ldrb	r3, [sp, #11]	@ zero_extendqisi2
 188 0018 1046     		mov	r0, r2
 189 001a 1946     		mov	r1, r3
 190 001c 019A     		ldr	r2, [sp, #4]
 191 001e FFF7FEFF 		bl	chOQPutTimeout
 192 0022 0346     		mov	r3, r0
 193              		.loc 1 87 0
 194 0024 1846     		mov	r0, r3
 195 0026 05B0     		add	sp, sp, #20
 196              		@ sp needed
 197 0028 5DF804FB 		ldr	pc, [sp], #4
 198              		.cfi_endproc
 199              	.LFE122:
 200              		.size	putt, .-putt
 201 002c AFF30080 		.section	.text.gett,"ax",%progbits
 202              		.align	2
 203              		.p2align 4,,15
 204              		.thumb
 205              		.thumb_func
 206              		.type	gett, %function
 207              	gett:
 208              	.LFB123:
 209              		.loc 1 89 0
 210              		.cfi_startproc
 211              		@ args = 0, pretend = 0, frame = 8
 212              		@ frame_needed = 0, uses_anonymous_args = 0
 213 0000 00B5     		push	{lr}
 214              		.cfi_def_cfa_offset 4
 215              		.cfi_offset 14, -4
 216 0002 83B0     		sub	sp, sp, #12
 217              		.cfi_def_cfa_offset 16
 218 0004 0190     		str	r0, [sp, #4]
 219 0006 0091     		str	r1, [sp]
 220              		.loc 1 91 0
 221 0008 019B     		ldr	r3, [sp, #4]
 222 000a 0C33     		adds	r3, r3, #12
 223 000c 1846     		mov	r0, r3
 224 000e 0099     		ldr	r1, [sp]
 225 0010 FFF7FEFF 		bl	chIQGetTimeout
 226 0014 0346     		mov	r3, r0
ARM GAS  /tmp/ccMY8SYN.s 			page 5


 227              		.loc 1 92 0
 228 0016 1846     		mov	r0, r3
 229 0018 03B0     		add	sp, sp, #12
 230              		@ sp needed
 231 001a 5DF804FB 		ldr	pc, [sp], #4
 232              		.cfi_endproc
 233              	.LFE123:
 234              		.size	gett, .-gett
 235 001e 00BF     		.section	.text.writet,"ax",%progbits
 236              		.align	2
 237              		.p2align 4,,15
 238              		.thumb
 239              		.thumb_func
 240              		.type	writet, %function
 241              	writet:
 242              	.LFB124:
 243              		.loc 1 94 0
 244              		.cfi_startproc
 245              		@ args = 0, pretend = 0, frame = 16
 246              		@ frame_needed = 0, uses_anonymous_args = 0
 247 0000 00B5     		push	{lr}
 248              		.cfi_def_cfa_offset 4
 249              		.cfi_offset 14, -4
 250 0002 85B0     		sub	sp, sp, #20
 251              		.cfi_def_cfa_offset 24
 252 0004 0390     		str	r0, [sp, #12]
 253 0006 0291     		str	r1, [sp, #8]
 254 0008 0192     		str	r2, [sp, #4]
 255 000a 0093     		str	r3, [sp]
 256              		.loc 1 96 0
 257 000c 039B     		ldr	r3, [sp, #12]
 258 000e 3033     		adds	r3, r3, #48
 259 0010 1846     		mov	r0, r3
 260 0012 0299     		ldr	r1, [sp, #8]
 261 0014 019A     		ldr	r2, [sp, #4]
 262 0016 009B     		ldr	r3, [sp]
 263 0018 FFF7FEFF 		bl	chOQWriteTimeout
 264 001c 0346     		mov	r3, r0
 265              		.loc 1 97 0
 266 001e 1846     		mov	r0, r3
 267 0020 05B0     		add	sp, sp, #20
 268              		@ sp needed
 269 0022 5DF804FB 		ldr	pc, [sp], #4
 270              		.cfi_endproc
 271              	.LFE124:
 272              		.size	writet, .-writet
 273 0026 00BFAFF3 		.section	.text.readt,"ax",%progbits
 273      0080AFF3 
 273      0080
 274              		.align	2
 275              		.p2align 4,,15
 276              		.thumb
 277              		.thumb_func
 278              		.type	readt, %function
 279              	readt:
 280              	.LFB125:
 281              		.loc 1 99 0
ARM GAS  /tmp/ccMY8SYN.s 			page 6


 282              		.cfi_startproc
 283              		@ args = 0, pretend = 0, frame = 16
 284              		@ frame_needed = 0, uses_anonymous_args = 0
 285 0000 00B5     		push	{lr}
 286              		.cfi_def_cfa_offset 4
 287              		.cfi_offset 14, -4
 288 0002 85B0     		sub	sp, sp, #20
 289              		.cfi_def_cfa_offset 24
 290 0004 0390     		str	r0, [sp, #12]
 291 0006 0291     		str	r1, [sp, #8]
 292 0008 0192     		str	r2, [sp, #4]
 293 000a 0093     		str	r3, [sp]
 294              		.loc 1 101 0
 295 000c 039B     		ldr	r3, [sp, #12]
 296 000e 0C33     		adds	r3, r3, #12
 297 0010 1846     		mov	r0, r3
 298 0012 0299     		ldr	r1, [sp, #8]
 299 0014 019A     		ldr	r2, [sp, #4]
 300 0016 009B     		ldr	r3, [sp]
 301 0018 FFF7FEFF 		bl	chIQReadTimeout
 302 001c 0346     		mov	r3, r0
 303              		.loc 1 102 0
 304 001e 1846     		mov	r0, r3
 305 0020 05B0     		add	sp, sp, #20
 306              		@ sp needed
 307 0022 5DF804FB 		ldr	pc, [sp], #4
 308              		.cfi_endproc
 309              	.LFE125:
 310              		.size	readt, .-readt
 311 0026 00BFAFF3 		.section	.rodata.vmt,"a",%progbits
 311      0080AFF3 
 311      0080
 312              		.align	2
 313              		.type	vmt, %object
 314              		.size	vmt, 32
 315              	vmt:
 316 0000 00000000 		.word	write
 317 0004 00000000 		.word	read
 318 0008 00000000 		.word	put
 319 000c 00000000 		.word	get
 320 0010 00000000 		.word	putt
 321 0014 00000000 		.word	gett
 322 0018 00000000 		.word	writet
 323 001c 00000000 		.word	readt
 324              		.section	.text.sdInit,"ax",%progbits
 325              		.align	2
 326              		.p2align 4,,15
 327              		.global	sdInit
 328              		.thumb
 329              		.thumb_func
 330              		.type	sdInit, %function
 331              	sdInit:
 332              	.LFB126:
 333              		.loc 1 120 0
 334              		.cfi_startproc
 335              		@ args = 0, pretend = 0, frame = 0
 336              		@ frame_needed = 0, uses_anonymous_args = 0
ARM GAS  /tmp/ccMY8SYN.s 			page 7


 337 0000 08B5     		push	{r3, lr}
 338              		.cfi_def_cfa_offset 8
 339              		.cfi_offset 3, -8
 340              		.cfi_offset 14, -4
 341              		.loc 1 122 0
 342 0002 FFF7FEFF 		bl	sd_lld_init
 343              		.loc 1 123 0
 344 0006 08BD     		pop	{r3, pc}
 345              		.cfi_endproc
 346              	.LFE126:
 347              		.size	sdInit, .-sdInit
 348 0008 AFF30080 		.section	.text.sdObjectInit,"ax",%progbits
 348      AFF30080 
 349              		.align	2
 350              		.p2align 4,,15
 351              		.global	sdObjectInit
 352              		.thumb
 353              		.thumb_func
 354              		.type	sdObjectInit, %function
 355              	sdObjectInit:
 356              	.LFB127:
 357              		.loc 1 140 0
 358              		.cfi_startproc
 359              		@ args = 0, pretend = 0, frame = 16
 360              		@ frame_needed = 0, uses_anonymous_args = 0
 361 0000 00B5     		push	{lr}
 362              		.cfi_def_cfa_offset 4
 363              		.cfi_offset 14, -4
 364 0002 87B0     		sub	sp, sp, #28
 365              		.cfi_def_cfa_offset 32
 366 0004 0590     		str	r0, [sp, #20]
 367 0006 0491     		str	r1, [sp, #16]
 368 0008 0392     		str	r2, [sp, #12]
 369              		.loc 1 142 0
 370 000a 059A     		ldr	r2, [sp, #20]
 371 000c 40F20003 		movw	r3, #:lower16:vmt
 372 0010 C0F20003 		movt	r3, #:upper16:vmt
 373 0014 1360     		str	r3, [r2]
 374              		.loc 1 143 0
 375 0016 059B     		ldr	r3, [sp, #20]
 376 0018 1A1D     		adds	r2, r3, #4
 377 001a 059B     		ldr	r3, [sp, #20]
 378 001c 5A60     		str	r2, [r3, #4]
 379              		.loc 1 144 0
 380 001e 059B     		ldr	r3, [sp, #20]
 381 0020 0122     		movs	r2, #1
 382 0022 1A72     		strb	r2, [r3, #8]
 383              		.loc 1 145 0
 384 0024 059B     		ldr	r3, [sp, #20]
 385 0026 03F10C02 		add	r2, r3, #12
 386 002a 059B     		ldr	r3, [sp, #20]
 387 002c 5433     		adds	r3, r3, #84
 388 002e 0599     		ldr	r1, [sp, #20]
 389 0030 0091     		str	r1, [sp]
 390 0032 1046     		mov	r0, r2
 391 0034 1946     		mov	r1, r3
 392 0036 1022     		movs	r2, #16
ARM GAS  /tmp/ccMY8SYN.s 			page 8


 393 0038 049B     		ldr	r3, [sp, #16]
 394 003a FFF7FEFF 		bl	chIQInit
 395              		.loc 1 146 0
 396 003e 059B     		ldr	r3, [sp, #20]
 397 0040 03F13002 		add	r2, r3, #48
 398 0044 059B     		ldr	r3, [sp, #20]
 399 0046 6433     		adds	r3, r3, #100
 400 0048 0599     		ldr	r1, [sp, #20]
 401 004a 0091     		str	r1, [sp]
 402 004c 1046     		mov	r0, r2
 403 004e 1946     		mov	r1, r3
 404 0050 1022     		movs	r2, #16
 405 0052 039B     		ldr	r3, [sp, #12]
 406 0054 FFF7FEFF 		bl	chOQInit
 407              		.loc 1 147 0
 408 0058 07B0     		add	sp, sp, #28
 409              		@ sp needed
 410 005a 5DF804FB 		ldr	pc, [sp], #4
 411              		.cfi_endproc
 412              	.LFE127:
 413              		.size	sdObjectInit, .-sdObjectInit
 414 005e 00BF     		.section	.rodata
 415              		.align	2
 416              	.LC0:
 417 0000 22736453 		.ascii	"\"sdStart\"()\000"
 417      74617274 
 417      22282900 
 418              		.align	2
 419              	.LC1:
 420 000c 73645374 		.ascii	"sdStart(), #1\000"
 420      61727428 
 420      292C2023 
 420      3100
 421              		.section	.text.sdStart,"ax",%progbits
 422              		.align	2
 423              		.p2align 4,,15
 424              		.global	sdStart
 425              		.thumb
 426              		.thumb_func
 427              		.type	sdStart, %function
 428              	sdStart:
 429              	.LFB128:
 430              		.loc 1 159 0
 431              		.cfi_startproc
 432              		@ args = 0, pretend = 0, frame = 8
 433              		@ frame_needed = 0, uses_anonymous_args = 0
 434 0000 00B5     		push	{lr}
 435              		.cfi_def_cfa_offset 4
 436              		.cfi_offset 14, -4
 437 0002 83B0     		sub	sp, sp, #12
 438              		.cfi_def_cfa_offset 16
 439 0004 0190     		str	r0, [sp, #4]
 440 0006 0091     		str	r1, [sp]
 441              		.loc 1 161 0
 442 0008 019B     		ldr	r3, [sp, #4]
 443 000a 002B     		cmp	r3, #0
 444 000c 05D1     		bne	.L20
ARM GAS  /tmp/ccMY8SYN.s 			page 9


 445              		.loc 1 161 0 is_stmt 0 discriminator 1
 446 000e 40F20000 		movw	r0, #:lower16:.LC0
 447 0012 C0F20000 		movt	r0, #:upper16:.LC0
 448 0016 FFF7FEFF 		bl	chDbgPanic
 449              	.L20:
 450              	.LBB2:
 451              		.loc 1 163 0 is_stmt 1
 452 001a 2023     		movs	r3, #32
 453              	@ 163 "../..//os/hal/src/serial.c" 1
 454 001c 83F31188 		msr     BASEPRI, r3
 455              	@ 0 "" 2
 456              		.thumb
 457              	.LBE2:
 458 0020 FFF7FEFF 		bl	dbg_check_lock
 459              		.loc 1 164 0
 460 0024 019B     		ldr	r3, [sp, #4]
 461 0026 1B7A     		ldrb	r3, [r3, #8]	@ zero_extendqisi2
 462 0028 012B     		cmp	r3, #1
 463 002a 09D0     		beq	.L21
 464              		.loc 1 164 0 is_stmt 0 discriminator 1
 465 002c 019B     		ldr	r3, [sp, #4]
 466 002e 1B7A     		ldrb	r3, [r3, #8]	@ zero_extendqisi2
 467 0030 022B     		cmp	r3, #2
 468 0032 05D0     		beq	.L21
 469 0034 40F20000 		movw	r0, #:lower16:.LC1
 470 0038 C0F20000 		movt	r0, #:upper16:.LC1
 471 003c FFF7FEFF 		bl	chDbgPanic
 472              	.L21:
 473              		.loc 1 167 0 is_stmt 1
 474 0040 0198     		ldr	r0, [sp, #4]
 475 0042 0099     		ldr	r1, [sp]
 476 0044 FFF7FEFF 		bl	sd_lld_start
 477              		.loc 1 168 0
 478 0048 019B     		ldr	r3, [sp, #4]
 479 004a 0222     		movs	r2, #2
 480 004c 1A72     		strb	r2, [r3, #8]
 481              		.loc 1 169 0
 482 004e FFF7FEFF 		bl	dbg_check_unlock
 483              	.LBB3:
 484 0052 0023     		movs	r3, #0
 485              	@ 169 "../..//os/hal/src/serial.c" 1
 486 0054 83F31188 		msr     BASEPRI, r3
 487              	@ 0 "" 2
 488              		.thumb
 489              	.LBE3:
 490              		.loc 1 170 0
 491 0058 03B0     		add	sp, sp, #12
 492              		@ sp needed
 493 005a 5DF804FB 		ldr	pc, [sp], #4
 494              		.cfi_endproc
 495              	.LFE128:
 496              		.size	sdStart, .-sdStart
 497 005e 00BF     		.section	.rodata
 498 001a 0000     		.align	2
 499              	.LC2:
 500 001c 22736453 		.ascii	"\"sdStop\"()\000"
 500      746F7022 
ARM GAS  /tmp/ccMY8SYN.s 			page 10


 500      282900
 501 0027 00       		.align	2
 502              	.LC3:
 503 0028 73645374 		.ascii	"sdStop(), #1\000"
 503      6F702829 
 503      2C202331 
 503      00
 504              		.section	.text.sdStop,"ax",%progbits
 505              		.align	2
 506              		.p2align 4,,15
 507              		.global	sdStop
 508              		.thumb
 509              		.thumb_func
 510              		.type	sdStop, %function
 511              	sdStop:
 512              	.LFB129:
 513              		.loc 1 181 0
 514              		.cfi_startproc
 515              		@ args = 0, pretend = 0, frame = 8
 516              		@ frame_needed = 0, uses_anonymous_args = 0
 517 0000 00B5     		push	{lr}
 518              		.cfi_def_cfa_offset 4
 519              		.cfi_offset 14, -4
 520 0002 83B0     		sub	sp, sp, #12
 521              		.cfi_def_cfa_offset 16
 522 0004 0190     		str	r0, [sp, #4]
 523              		.loc 1 183 0
 524 0006 019B     		ldr	r3, [sp, #4]
 525 0008 002B     		cmp	r3, #0
 526 000a 05D1     		bne	.L23
 527              		.loc 1 183 0 is_stmt 0 discriminator 1
 528 000c 40F20000 		movw	r0, #:lower16:.LC2
 529 0010 C0F20000 		movt	r0, #:upper16:.LC2
 530 0014 FFF7FEFF 		bl	chDbgPanic
 531              	.L23:
 532              	.LBB4:
 533              		.loc 1 185 0 is_stmt 1
 534 0018 2023     		movs	r3, #32
 535              	@ 185 "../..//os/hal/src/serial.c" 1
 536 001a 83F31188 		msr     BASEPRI, r3
 537              	@ 0 "" 2
 538              		.thumb
 539              	.LBE4:
 540 001e FFF7FEFF 		bl	dbg_check_lock
 541              		.loc 1 186 0
 542 0022 019B     		ldr	r3, [sp, #4]
 543 0024 1B7A     		ldrb	r3, [r3, #8]	@ zero_extendqisi2
 544 0026 012B     		cmp	r3, #1
 545 0028 09D0     		beq	.L24
 546              		.loc 1 186 0 is_stmt 0 discriminator 1
 547 002a 019B     		ldr	r3, [sp, #4]
 548 002c 1B7A     		ldrb	r3, [r3, #8]	@ zero_extendqisi2
 549 002e 022B     		cmp	r3, #2
 550 0030 05D0     		beq	.L24
 551 0032 40F20000 		movw	r0, #:lower16:.LC3
 552 0036 C0F20000 		movt	r0, #:upper16:.LC3
 553 003a FFF7FEFF 		bl	chDbgPanic
ARM GAS  /tmp/ccMY8SYN.s 			page 11


 554              	.L24:
 555              		.loc 1 189 0 is_stmt 1
 556 003e 0198     		ldr	r0, [sp, #4]
 557 0040 FFF7FEFF 		bl	sd_lld_stop
 558              		.loc 1 190 0
 559 0044 019B     		ldr	r3, [sp, #4]
 560 0046 0122     		movs	r2, #1
 561 0048 1A72     		strb	r2, [r3, #8]
 562              		.loc 1 191 0
 563 004a 019B     		ldr	r3, [sp, #4]
 564 004c 3033     		adds	r3, r3, #48
 565 004e 1846     		mov	r0, r3
 566 0050 FFF7FEFF 		bl	chOQResetI
 567              		.loc 1 192 0
 568 0054 019B     		ldr	r3, [sp, #4]
 569 0056 0C33     		adds	r3, r3, #12
 570 0058 1846     		mov	r0, r3
 571 005a FFF7FEFF 		bl	chIQResetI
 572              		.loc 1 193 0
 573 005e FFF7FEFF 		bl	chSchRescheduleS
 574              		.loc 1 194 0
 575 0062 FFF7FEFF 		bl	dbg_check_unlock
 576              	.LBB5:
 577 0066 0023     		movs	r3, #0
 578              	@ 194 "../..//os/hal/src/serial.c" 1
 579 0068 83F31188 		msr     BASEPRI, r3
 580              	@ 0 "" 2
 581              		.thumb
 582              	.LBE5:
 583              		.loc 1 195 0
 584 006c 03B0     		add	sp, sp, #12
 585              		@ sp needed
 586 006e 5DF804FB 		ldr	pc, [sp], #4
 587              		.cfi_endproc
 588              	.LFE129:
 589              		.size	sdStop, .-sdStop
 590 0072 00BFAFF3 		.section	.rodata
 590      0080AFF3 
 590      0080AFF3 
 590      0080
 591 0035 000000   		.align	2
 592              	.LC4:
 593 0038 22736449 		.ascii	"\"sdIncomingDataI\"()\000"
 593      6E636F6D 
 593      696E6744 
 593      61746149 
 593      22282900 
 594              		.section	.text.sdIncomingDataI,"ax",%progbits
 595              		.align	2
 596              		.p2align 4,,15
 597              		.global	sdIncomingDataI
 598              		.thumb
 599              		.thumb_func
 600              		.type	sdIncomingDataI, %function
 601              	sdIncomingDataI:
 602              	.LFB130:
 603              		.loc 1 213 0
ARM GAS  /tmp/ccMY8SYN.s 			page 12


 604              		.cfi_startproc
 605              		@ args = 0, pretend = 0, frame = 8
 606              		@ frame_needed = 0, uses_anonymous_args = 0
 607 0000 00B5     		push	{lr}
 608              		.cfi_def_cfa_offset 4
 609              		.cfi_offset 14, -4
 610 0002 83B0     		sub	sp, sp, #12
 611              		.cfi_def_cfa_offset 16
 612 0004 0190     		str	r0, [sp, #4]
 613 0006 0B46     		mov	r3, r1
 614 0008 8DF80330 		strb	r3, [sp, #3]
 615              		.loc 1 215 0
 616 000c FFF7FEFF 		bl	chDbgCheckClassI
 617              		.loc 1 216 0
 618 0010 019B     		ldr	r3, [sp, #4]
 619 0012 002B     		cmp	r3, #0
 620 0014 05D1     		bne	.L26
 621              		.loc 1 216 0 is_stmt 0 discriminator 1
 622 0016 40F20000 		movw	r0, #:lower16:.LC4
 623 001a C0F20000 		movt	r0, #:upper16:.LC4
 624 001e FFF7FEFF 		bl	chDbgPanic
 625              	.L26:
 626              		.loc 1 218 0 is_stmt 1
 627 0022 019B     		ldr	r3, [sp, #4]
 628 0024 5B69     		ldr	r3, [r3, #20]
 629 0026 002B     		cmp	r3, #0
 630 0028 05D1     		bne	.L27
 631              		.loc 1 219 0
 632 002a 019B     		ldr	r3, [sp, #4]
 633 002c 0433     		adds	r3, r3, #4
 634 002e 1846     		mov	r0, r3
 635 0030 0421     		movs	r1, #4
 636 0032 FFF7FEFF 		bl	chEvtBroadcastFlagsI
 637              	.L27:
 638              		.loc 1 220 0
 639 0036 019B     		ldr	r3, [sp, #4]
 640 0038 03F10C02 		add	r2, r3, #12
 641 003c 9DF80330 		ldrb	r3, [sp, #3]	@ zero_extendqisi2
 642 0040 1046     		mov	r0, r2
 643 0042 1946     		mov	r1, r3
 644 0044 FFF7FEFF 		bl	chIQPutI
 645 0048 0346     		mov	r3, r0
 646 004a 002B     		cmp	r3, #0
 647 004c 05DA     		bge	.L25
 648              		.loc 1 221 0
 649 004e 019B     		ldr	r3, [sp, #4]
 650 0050 0433     		adds	r3, r3, #4
 651 0052 1846     		mov	r0, r3
 652 0054 8021     		movs	r1, #128
 653 0056 FFF7FEFF 		bl	chEvtBroadcastFlagsI
 654              	.L25:
 655              		.loc 1 222 0
 656 005a 03B0     		add	sp, sp, #12
 657              		@ sp needed
 658 005c 5DF804FB 		ldr	pc, [sp], #4
 659              		.cfi_endproc
 660              	.LFE130:
ARM GAS  /tmp/ccMY8SYN.s 			page 13


 661              		.size	sdIncomingDataI, .-sdIncomingDataI
 662              		.section	.rodata
 663              		.align	2
 664              	.LC5:
 665 004c 22736452 		.ascii	"\"sdRequestDataI\"()\000"
 665      65717565 
 665      73744461 
 665      74614922 
 665      282900
 666 005f 00       		.section	.text.sdRequestDataI,"ax",%progbits
 667              		.align	2
 668              		.p2align 4,,15
 669              		.global	sdRequestDataI
 670              		.thumb
 671              		.thumb_func
 672              		.type	sdRequestDataI, %function
 673              	sdRequestDataI:
 674              	.LFB131:
 675              		.loc 1 239 0
 676              		.cfi_startproc
 677              		@ args = 0, pretend = 0, frame = 16
 678              		@ frame_needed = 0, uses_anonymous_args = 0
 679 0000 00B5     		push	{lr}
 680              		.cfi_def_cfa_offset 4
 681              		.cfi_offset 14, -4
 682 0002 85B0     		sub	sp, sp, #20
 683              		.cfi_def_cfa_offset 24
 684 0004 0190     		str	r0, [sp, #4]
 685              		.loc 1 242 0
 686 0006 FFF7FEFF 		bl	chDbgCheckClassI
 687              		.loc 1 243 0
 688 000a 019B     		ldr	r3, [sp, #4]
 689 000c 002B     		cmp	r3, #0
 690 000e 05D1     		bne	.L30
 691              		.loc 1 243 0 is_stmt 0 discriminator 1
 692 0010 40F20000 		movw	r0, #:lower16:.LC5
 693 0014 C0F20000 		movt	r0, #:upper16:.LC5
 694 0018 FFF7FEFF 		bl	chDbgPanic
 695              	.L30:
 696              		.loc 1 245 0 is_stmt 1
 697 001c 019B     		ldr	r3, [sp, #4]
 698 001e 3033     		adds	r3, r3, #48
 699 0020 1846     		mov	r0, r3
 700 0022 FFF7FEFF 		bl	chOQGetI
 701 0026 0390     		str	r0, [sp, #12]
 702              		.loc 1 246 0
 703 0028 039B     		ldr	r3, [sp, #12]
 704 002a 002B     		cmp	r3, #0
 705 002c 05DA     		bge	.L31
 706              		.loc 1 247 0
 707 002e 019B     		ldr	r3, [sp, #4]
 708 0030 0433     		adds	r3, r3, #4
 709 0032 1846     		mov	r0, r3
 710 0034 0821     		movs	r1, #8
 711 0036 FFF7FEFF 		bl	chEvtBroadcastFlagsI
 712              	.L31:
 713              		.loc 1 248 0
ARM GAS  /tmp/ccMY8SYN.s 			page 14


 714 003a 039B     		ldr	r3, [sp, #12]
 715              		.loc 1 249 0
 716 003c 1846     		mov	r0, r3
 717 003e 05B0     		add	sp, sp, #20
 718              		@ sp needed
 719 0040 5DF804FB 		ldr	pc, [sp], #4
 720              		.cfi_endproc
 721              	.LFE131:
 722              		.size	sdRequestDataI, .-sdRequestDataI
 723 0044 AFF30080 		.text
 723      AFF30080 
 723      AFF30080 
 724              	.Letext0:
 725              		.file 2 "/usr/lib/gcc/arm-none-eabi/4.8.2/include/stddef.h"
 726              		.file 3 "/usr/arm-none-eabi/include/machine/_default_types.h"
 727              		.file 4 "/usr/arm-none-eabi/include/stdint.h"
 728              		.file 5 "../..//os/ports/GCC/ARMCMx/chtypes.h"
 729              		.file 6 "../..//os/kernel/include/chlists.h"
 730              		.file 7 "../..//os/kernel/include/chthreads.h"
 731              		.file 8 "../..//os/ports/GCC/ARMCMx/chcore_v7m.h"
 732              		.file 9 "../..//os/kernel/include/chmtx.h"
 733              		.file 10 "../..//os/kernel/include/chevents.h"
 734              		.file 11 "../..//os/kernel/include/chqueues.h"
 735              		.file 12 "../..//os/hal/platforms/STM32F4xx/stm32f4xx.h"
 736              		.file 13 "../..//os/hal/include/serial.h"
 737              		.file 14 "../..//os/hal/platforms/STM32/USARTv1/serial_lld.h"
 738              		.file 15 "../..//os/ports/common/ARMCMx/CMSIS/include/core_cm4.h"