ARM GAS  /tmp/ccWam7Sf.s 			page 1


   1              		.syntax unified
   2              		.cpu cortex-m4
   3              		.fpu softvfp
   4              		.eabi_attribute 20, 1
   5              		.eabi_attribute 21, 1
   6              		.eabi_attribute 23, 3
   7              		.eabi_attribute 24, 1
   8              		.eabi_attribute 25, 1
   9              		.eabi_attribute 26, 1
  10              		.eabi_attribute 30, 6
  11              		.eabi_attribute 34, 1
  12              		.eabi_attribute 18, 4
  13              		.thumb
  14              		.file	"syscalls.c"
  15              		.text
  16              	.Ltext0:
  17              		.cfi_sections	.debug_frame
  18              		.section	.text._read_r,"ax",%progbits
  19              		.align	2
  20              		.p2align 4,,15
  21              		.global	_read_r
  22              		.thumb
  23              		.thumb_func
  24              		.type	_read_r, %function
  25              	_read_r:
  26              	.LFB7:
  27              		.file 1 "../..//os/various/syscalls.c"
  28              		.loc 1 76 0
  29              		.cfi_startproc
  30              		@ args = 0, pretend = 0, frame = 16
  31              		@ frame_needed = 0, uses_anonymous_args = 0
  32              		@ link register save eliminated.
  33 0000 84B0     		sub	sp, sp, #16
  34              		.cfi_def_cfa_offset 16
  35 0002 0390     		str	r0, [sp, #12]
  36 0004 0291     		str	r1, [sp, #8]
  37 0006 0192     		str	r2, [sp, #4]
  38 0008 0093     		str	r3, [sp]
  39              		.loc 1 89 0
  40 000a 039B     		ldr	r3, [sp, #12]
  41 000c 1622     		movs	r2, #22
  42 000e 1A60     		str	r2, [r3]
  43              		.loc 1 90 0
  44 0010 4FF0FF33 		mov	r3, #-1
  45              		.loc 1 92 0
  46 0014 1846     		mov	r0, r3
  47 0016 04B0     		add	sp, sp, #16
  48              		@ sp needed
  49 0018 7047     		bx	lr
  50              		.cfi_endproc
  51              	.LFE7:
  52              		.size	_read_r, .-_read_r
  53 001a 00BFAFF3 		.section	.text._lseek_r,"ax",%progbits
  53      0080
  54              		.align	2
  55              		.p2align 4,,15
  56              		.global	_lseek_r
ARM GAS  /tmp/ccWam7Sf.s 			page 2


  57              		.thumb
  58              		.thumb_func
  59              		.type	_lseek_r, %function
  60              	_lseek_r:
  61              	.LFB8:
  62              		.loc 1 97 0
  63              		.cfi_startproc
  64              		@ args = 0, pretend = 0, frame = 16
  65              		@ frame_needed = 0, uses_anonymous_args = 0
  66              		@ link register save eliminated.
  67 0000 84B0     		sub	sp, sp, #16
  68              		.cfi_def_cfa_offset 16
  69 0002 0390     		str	r0, [sp, #12]
  70 0004 0291     		str	r1, [sp, #8]
  71 0006 0192     		str	r2, [sp, #4]
  72 0008 0093     		str	r3, [sp]
  73              		.loc 1 103 0
  74 000a 0023     		movs	r3, #0
  75              		.loc 1 104 0
  76 000c 1846     		mov	r0, r3
  77 000e 04B0     		add	sp, sp, #16
  78              		@ sp needed
  79 0010 7047     		bx	lr
  80              		.cfi_endproc
  81              	.LFE8:
  82              		.size	_lseek_r, .-_lseek_r
  83 0012 00BFAFF3 		.section	.text._write_r,"ax",%progbits
  83      0080AFF3 
  83      0080AFF3 
  83      0080
  84              		.align	2
  85              		.p2align 4,,15
  86              		.global	_write_r
  87              		.thumb
  88              		.thumb_func
  89              		.type	_write_r, %function
  90              	_write_r:
  91              	.LFB9:
  92              		.loc 1 109 0
  93              		.cfi_startproc
  94              		@ args = 0, pretend = 0, frame = 16
  95              		@ frame_needed = 0, uses_anonymous_args = 0
  96              		@ link register save eliminated.
  97 0000 84B0     		sub	sp, sp, #16
  98              		.cfi_def_cfa_offset 16
  99 0002 0390     		str	r0, [sp, #12]
 100 0004 0291     		str	r1, [sp, #8]
 101 0006 0192     		str	r2, [sp, #4]
 102 0008 0093     		str	r3, [sp]
 103              		.loc 1 120 0
 104 000a 009B     		ldr	r3, [sp]
 105              		.loc 1 121 0
 106 000c 1846     		mov	r0, r3
 107 000e 04B0     		add	sp, sp, #16
 108              		@ sp needed
 109 0010 7047     		bx	lr
 110              		.cfi_endproc
ARM GAS  /tmp/ccWam7Sf.s 			page 3


 111              	.LFE9:
 112              		.size	_write_r, .-_write_r
 113 0012 00BFAFF3 		.section	.text._close_r,"ax",%progbits
 113      0080AFF3 
 113      0080AFF3 
 113      0080
 114              		.align	2
 115              		.p2align 4,,15
 116              		.global	_close_r
 117              		.thumb
 118              		.thumb_func
 119              		.type	_close_r, %function
 120              	_close_r:
 121              	.LFB10:
 122              		.loc 1 126 0
 123              		.cfi_startproc
 124              		@ args = 0, pretend = 0, frame = 8
 125              		@ frame_needed = 0, uses_anonymous_args = 0
 126              		@ link register save eliminated.
 127 0000 82B0     		sub	sp, sp, #8
 128              		.cfi_def_cfa_offset 8
 129 0002 0190     		str	r0, [sp, #4]
 130 0004 0091     		str	r1, [sp]
 131              		.loc 1 130 0
 132 0006 0023     		movs	r3, #0
 133              		.loc 1 131 0
 134 0008 1846     		mov	r0, r3
 135 000a 02B0     		add	sp, sp, #8
 136              		@ sp needed
 137 000c 7047     		bx	lr
 138              		.cfi_endproc
 139              	.LFE10:
 140              		.size	_close_r, .-_close_r
 141 000e 00BF     		.section	.rodata
 142              		.align	2
 143              	.LC0:
 144 0000 225F7362 		.ascii	"\"_sbrk_r\"()\000"
 144      726B5F72 
 144      22282900 
 145              		.section	.text._sbrk_r,"ax",%progbits
 146              		.align	2
 147              		.p2align 4,,15
 148              		.global	_sbrk_r
 149              		.thumb
 150              		.thumb_func
 151              		.type	_sbrk_r, %function
 152              	_sbrk_r:
 153              	.LFB11:
 154              		.loc 1 136 0
 155              		.cfi_startproc
 156              		@ args = 0, pretend = 0, frame = 16
 157              		@ frame_needed = 0, uses_anonymous_args = 0
 158 0000 00B5     		push	{lr}
 159              		.cfi_def_cfa_offset 4
 160              		.cfi_offset 14, -4
 161 0002 85B0     		sub	sp, sp, #20
 162              		.cfi_def_cfa_offset 24
ARM GAS  /tmp/ccWam7Sf.s 			page 4


 163 0004 0190     		str	r0, [sp, #4]
 164 0006 0091     		str	r1, [sp]
 165              		.loc 1 140 0
 166 0008 009B     		ldr	r3, [sp]
 167 000a 002B     		cmp	r3, #0
 168 000c 05DC     		bgt	.L10
 169              		.loc 1 140 0 is_stmt 0 discriminator 1
 170 000e 40F20000 		movw	r0, #:lower16:.LC0
 171 0012 C0F20000 		movt	r0, #:upper16:.LC0
 172 0016 FFF7FEFF 		bl	chDbgPanic
 173              	.L10:
 174              		.loc 1 143 0 is_stmt 1
 175 001a 009B     		ldr	r3, [sp]
 176 001c 1846     		mov	r0, r3
 177 001e FFF7FEFF 		bl	chCoreAlloc
 178 0022 0390     		str	r0, [sp, #12]
 179              		.loc 1 144 0
 180 0024 039B     		ldr	r3, [sp, #12]
 181 0026 002B     		cmp	r3, #0
 182 0028 05D1     		bne	.L11
 183              		.loc 1 145 0
 184 002a 019B     		ldr	r3, [sp, #4]
 185 002c 0C22     		movs	r2, #12
 186 002e 1A60     		str	r2, [r3]
 187              		.loc 1 146 0
 188 0030 4FF0FF33 		mov	r3, #-1
 189 0034 00E0     		b	.L12
 190              	.L11:
 191              		.loc 1 148 0
 192 0036 039B     		ldr	r3, [sp, #12]
 193              	.L12:
 194              		.loc 1 153 0
 195 0038 1846     		mov	r0, r3
 196 003a 05B0     		add	sp, sp, #20
 197              		@ sp needed
 198 003c 5DF804FB 		ldr	pc, [sp], #4
 199              		.cfi_endproc
 200              	.LFE11:
 201              		.size	_sbrk_r, .-_sbrk_r
 202              		.section	.text._fstat_r,"ax",%progbits
 203              		.align	2
 204              		.p2align 4,,15
 205              		.global	_fstat_r
 206              		.thumb
 207              		.thumb_func
 208              		.type	_fstat_r, %function
 209              	_fstat_r:
 210              	.LFB12:
 211              		.loc 1 158 0
 212              		.cfi_startproc
 213              		@ args = 0, pretend = 0, frame = 16
 214              		@ frame_needed = 0, uses_anonymous_args = 0
 215 0000 00B5     		push	{lr}
 216              		.cfi_def_cfa_offset 4
 217              		.cfi_offset 14, -4
 218 0002 85B0     		sub	sp, sp, #20
 219              		.cfi_def_cfa_offset 24
ARM GAS  /tmp/ccWam7Sf.s 			page 5


 220 0004 0390     		str	r0, [sp, #12]
 221 0006 0291     		str	r1, [sp, #8]
 222 0008 0192     		str	r2, [sp, #4]
 223              		.loc 1 162 0
 224 000a 0198     		ldr	r0, [sp, #4]
 225 000c 0021     		movs	r1, #0
 226 000e 3C22     		movs	r2, #60
 227 0010 FFF7FEFF 		bl	memset
 228              		.loc 1 163 0
 229 0014 019B     		ldr	r3, [sp, #4]
 230 0016 4FF40052 		mov	r2, #8192
 231 001a 5A60     		str	r2, [r3, #4]
 232              		.loc 1 164 0
 233 001c 0023     		movs	r3, #0
 234              		.loc 1 165 0
 235 001e 1846     		mov	r0, r3
 236 0020 05B0     		add	sp, sp, #20
 237              		@ sp needed
 238 0022 5DF804FB 		ldr	pc, [sp], #4
 239              		.cfi_endproc
 240              	.LFE12:
 241              		.size	_fstat_r, .-_fstat_r
 242 0026 00BFAFF3 		.section	.text._isatty_r,"ax",%progbits
 242      0080AFF3 
 242      0080
 243              		.align	2
 244              		.p2align 4,,15
 245              		.global	_isatty_r
 246              		.thumb
 247              		.thumb_func
 248              		.type	_isatty_r, %function
 249              	_isatty_r:
 250              	.LFB13:
 251              		.loc 1 170 0
 252              		.cfi_startproc
 253              		@ args = 0, pretend = 0, frame = 8
 254              		@ frame_needed = 0, uses_anonymous_args = 0
 255              		@ link register save eliminated.
 256 0000 82B0     		sub	sp, sp, #8
 257              		.cfi_def_cfa_offset 8
 258 0002 0190     		str	r0, [sp, #4]
 259 0004 0091     		str	r1, [sp]
 260              		.loc 1 174 0
 261 0006 0123     		movs	r3, #1
 262              		.loc 1 175 0
 263 0008 1846     		mov	r0, r3
 264 000a 02B0     		add	sp, sp, #8
 265              		@ sp needed
 266 000c 7047     		bx	lr
 267              		.cfi_endproc
 268              	.LFE13:
 269              		.size	_isatty_r, .-_isatty_r
 270 000e 00BF     		.text
 271              	.Letext0:
 272              		.file 2 "/usr/lib/gcc/arm-none-eabi/4.8.2/include/stddef.h"
 273              		.file 3 "/usr/arm-none-eabi/include/sys/lock.h"
 274              		.file 4 "/usr/arm-none-eabi/include/sys/_types.h"
ARM GAS  /tmp/ccWam7Sf.s 			page 6


 275              		.file 5 "/usr/arm-none-eabi/include/sys/reent.h"
 276              		.file 6 "/usr/arm-none-eabi/include/sys/types.h"
 277              		.file 7 "/usr/arm-none-eabi/include/sys/stat.h"