ARM GAS  /tmp/cckVf1Go.s 			page 1


   1              		.syntax unified
   2              		.cpu cortex-m4
   3              		.fpu softvfp
   4              		.eabi_attribute 20, 1
   5              		.eabi_attribute 21, 1
   6              		.eabi_attribute 23, 3
   7              		.eabi_attribute 24, 1
   8              		.eabi_attribute 25, 1
   9              		.eabi_attribute 26, 1
  10              		.eabi_attribute 30, 6
  11              		.eabi_attribute 34, 1
  12              		.eabi_attribute 18, 4
  13              		.thumb
  14              		.file	"chcond.c"
  15              		.text
  16              	.Ltext0:
  17              		.cfi_sections	.debug_frame
  18              		.section	.text.prio_insert,"ax",%progbits
  19              		.align	2
  20              		.p2align 4,,15
  21              		.thumb
  22              		.thumb_func
  23              		.type	prio_insert, %function
  24              	prio_insert:
  25              	.LFB0:
  26              		.file 1 "../../../os/kernel/include/chinline.h"
  27              		.loc 1 41 0
  28              		.cfi_startproc
  29              		@ args = 0, pretend = 0, frame = 16
  30              		@ frame_needed = 0, uses_anonymous_args = 0
  31              		@ link register save eliminated.
  32 0000 84B0     		sub	sp, sp, #16
  33              		.cfi_def_cfa_offset 16
  34 0002 0190     		str	r0, [sp, #4]
  35 0004 0091     		str	r1, [sp]
  36              		.loc 1 43 0
  37 0006 009B     		ldr	r3, [sp]
  38 0008 0393     		str	r3, [sp, #12]
  39              	.L3:
  40              		.loc 1 45 0 discriminator 1
  41 000a 039B     		ldr	r3, [sp, #12]
  42 000c 1B68     		ldr	r3, [r3]
  43 000e 0393     		str	r3, [sp, #12]
  44              		.loc 1 46 0 discriminator 1
  45 0010 039A     		ldr	r2, [sp, #12]
  46 0012 009B     		ldr	r3, [sp]
  47 0014 9A42     		cmp	r2, r3
  48 0016 05D0     		beq	.L2
  49 0018 039B     		ldr	r3, [sp, #12]
  50 001a 9A68     		ldr	r2, [r3, #8]
  51 001c 019B     		ldr	r3, [sp, #4]
  52 001e 9B68     		ldr	r3, [r3, #8]
  53 0020 9A42     		cmp	r2, r3
  54 0022 F2D2     		bcs	.L3
  55              	.L2:
  56              		.loc 1 47 0
  57 0024 019B     		ldr	r3, [sp, #4]
ARM GAS  /tmp/cckVf1Go.s 			page 2


  58 0026 039A     		ldr	r2, [sp, #12]
  59 0028 1A60     		str	r2, [r3]
  60              		.loc 1 48 0
  61 002a 039B     		ldr	r3, [sp, #12]
  62 002c 5A68     		ldr	r2, [r3, #4]
  63 002e 019B     		ldr	r3, [sp, #4]
  64 0030 5A60     		str	r2, [r3, #4]
  65              		.loc 1 49 0
  66 0032 019B     		ldr	r3, [sp, #4]
  67 0034 5B68     		ldr	r3, [r3, #4]
  68 0036 039A     		ldr	r2, [sp, #12]
  69 0038 0199     		ldr	r1, [sp, #4]
  70 003a 5160     		str	r1, [r2, #4]
  71 003c 039A     		ldr	r2, [sp, #12]
  72 003e 5268     		ldr	r2, [r2, #4]
  73 0040 1A60     		str	r2, [r3]
  74              		.loc 1 50 0
  75 0042 04B0     		add	sp, sp, #16
  76              		@ sp needed
  77 0044 7047     		bx	lr
  78              		.cfi_endproc
  79              	.LFE0:
  80              		.size	prio_insert, .-prio_insert
  81 0046 00BFAFF3 		.section	.text.fifo_remove,"ax",%progbits
  81      0080AFF3 
  81      0080
  82              		.align	2
  83              		.p2align 4,,15
  84              		.thumb
  85              		.thumb_func
  86              		.type	fifo_remove, %function
  87              	fifo_remove:
  88              	.LFB2:
  89              		.loc 1 59 0
  90              		.cfi_startproc
  91              		@ args = 0, pretend = 0, frame = 16
  92              		@ frame_needed = 0, uses_anonymous_args = 0
  93              		@ link register save eliminated.
  94 0000 84B0     		sub	sp, sp, #16
  95              		.cfi_def_cfa_offset 16
  96 0002 0190     		str	r0, [sp, #4]
  97              		.loc 1 60 0
  98 0004 019B     		ldr	r3, [sp, #4]
  99 0006 1B68     		ldr	r3, [r3]
 100 0008 0393     		str	r3, [sp, #12]
 101              		.loc 1 62 0
 102 000a 039B     		ldr	r3, [sp, #12]
 103 000c 1A68     		ldr	r2, [r3]
 104 000e 019B     		ldr	r3, [sp, #4]
 105 0010 1A60     		str	r2, [r3]
 106 0012 019B     		ldr	r3, [sp, #4]
 107 0014 1B68     		ldr	r3, [r3]
 108 0016 019A     		ldr	r2, [sp, #4]
 109 0018 5A60     		str	r2, [r3, #4]
 110              		.loc 1 63 0
 111 001a 039B     		ldr	r3, [sp, #12]
 112              		.loc 1 64 0
ARM GAS  /tmp/cckVf1Go.s 			page 3


 113 001c 1846     		mov	r0, r3
 114 001e 04B0     		add	sp, sp, #16
 115              		@ sp needed
 116 0020 7047     		bx	lr
 117              		.cfi_endproc
 118              	.LFE2:
 119              		.size	fifo_remove, .-fifo_remove
 120 0022 00BFAFF3 		.section	.rodata
 120      0080AFF3 
 120      0080AFF3 
 120      0080
 121              		.align	2
 122              	.LC0:
 123 0000 22636843 		.ascii	"\"chCondInit\"()\000"
 123      6F6E6449 
 123      6E697422 
 123      282900
 124              		.section	.text.chCondInit,"ax",%progbits
 125              		.align	2
 126              		.p2align 4,,15
 127              		.global	chCondInit
 128              		.thumb
 129              		.thumb_func
 130              		.type	chCondInit, %function
 131              	chCondInit:
 132              	.LFB7:
 133              		.file 2 "../../../os/kernel/src/chcond.c"
 134              		.loc 2 59 0
 135              		.cfi_startproc
 136              		@ args = 0, pretend = 0, frame = 8
 137              		@ frame_needed = 0, uses_anonymous_args = 0
 138 0000 00B5     		push	{lr}
 139              		.cfi_def_cfa_offset 4
 140              		.cfi_offset 14, -4
 141 0002 83B0     		sub	sp, sp, #12
 142              		.cfi_def_cfa_offset 16
 143 0004 0190     		str	r0, [sp, #4]
 144              		.loc 2 61 0
 145 0006 019B     		ldr	r3, [sp, #4]
 146 0008 002B     		cmp	r3, #0
 147 000a 05D1     		bne	.L7
 148              		.loc 2 61 0 is_stmt 0 discriminator 1
 149 000c 40F20000 		movw	r0, #:lower16:.LC0
 150 0010 C0F20000 		movt	r0, #:upper16:.LC0
 151 0014 FFF7FEFF 		bl	chDbgPanic
 152              	.L7:
 153              		.loc 2 63 0 is_stmt 1
 154 0018 019A     		ldr	r2, [sp, #4]
 155 001a 019B     		ldr	r3, [sp, #4]
 156 001c 5A60     		str	r2, [r3, #4]
 157 001e 019B     		ldr	r3, [sp, #4]
 158 0020 5A68     		ldr	r2, [r3, #4]
 159 0022 019B     		ldr	r3, [sp, #4]
 160 0024 1A60     		str	r2, [r3]
 161              		.loc 2 64 0
 162 0026 03B0     		add	sp, sp, #12
 163              		@ sp needed
ARM GAS  /tmp/cckVf1Go.s 			page 4


 164 0028 5DF804FB 		ldr	pc, [sp], #4
 165              		.cfi_endproc
 166              	.LFE7:
 167              		.size	chCondInit, .-chCondInit
 168 002c AFF30080 		.section	.rodata
 169 000f 00       		.align	2
 170              	.LC1:
 171 0010 22636843 		.ascii	"\"chCondSignal\"()\000"
 171      6F6E6453 
 171      69676E61 
 171      6C222829 
 171      00
 172              		.section	.text.chCondSignal,"ax",%progbits
 173              		.align	2
 174              		.p2align 4,,15
 175              		.global	chCondSignal
 176              		.thumb
 177              		.thumb_func
 178              		.type	chCondSignal, %function
 179              	chCondSignal:
 180              	.LFB8:
 181              		.loc 2 73 0
 182              		.cfi_startproc
 183              		@ args = 0, pretend = 0, frame = 8
 184              		@ frame_needed = 0, uses_anonymous_args = 0
 185 0000 00B5     		push	{lr}
 186              		.cfi_def_cfa_offset 4
 187              		.cfi_offset 14, -4
 188 0002 83B0     		sub	sp, sp, #12
 189              		.cfi_def_cfa_offset 16
 190 0004 0190     		str	r0, [sp, #4]
 191              		.loc 2 75 0
 192 0006 019B     		ldr	r3, [sp, #4]
 193 0008 002B     		cmp	r3, #0
 194 000a 05D1     		bne	.L9
 195              		.loc 2 75 0 is_stmt 0 discriminator 1
 196 000c 40F20000 		movw	r0, #:lower16:.LC1
 197 0010 C0F20000 		movt	r0, #:upper16:.LC1
 198 0014 FFF7FEFF 		bl	chDbgPanic
 199              	.L9:
 200              	.LBB2:
 201              		.loc 2 77 0 is_stmt 1
 202 0018 2023     		movs	r3, #32
 203              	@ 77 "../../../os/kernel/src/chcond.c" 1
 204 001a 83F31188 		msr     BASEPRI, r3
 205              	@ 0 "" 2
 206              		.thumb
 207              	.LBE2:
 208 001e FFF7FEFF 		bl	dbg_check_lock
 209              		.loc 2 78 0
 210 0022 019B     		ldr	r3, [sp, #4]
 211 0024 1A68     		ldr	r2, [r3]
 212 0026 019B     		ldr	r3, [sp, #4]
 213 0028 9A42     		cmp	r2, r3
 214 002a 08D0     		beq	.L10
 215              		.loc 2 79 0
 216 002c 019B     		ldr	r3, [sp, #4]
ARM GAS  /tmp/cckVf1Go.s 			page 5


 217 002e 1846     		mov	r0, r3
 218 0030 FFF7FEFF 		bl	fifo_remove
 219 0034 0346     		mov	r3, r0
 220 0036 1846     		mov	r0, r3
 221 0038 0021     		movs	r1, #0
 222 003a FFF7FEFF 		bl	chSchWakeupS
 223              	.L10:
 224              		.loc 2 80 0
 225 003e FFF7FEFF 		bl	dbg_check_unlock
 226              	.LBB3:
 227 0042 0023     		movs	r3, #0
 228              	@ 80 "../../../os/kernel/src/chcond.c" 1
 229 0044 83F31188 		msr     BASEPRI, r3
 230              	@ 0 "" 2
 231              		.thumb
 232              	.LBE3:
 233              		.loc 2 81 0
 234 0048 03B0     		add	sp, sp, #12
 235              		@ sp needed
 236 004a 5DF804FB 		ldr	pc, [sp], #4
 237              		.cfi_endproc
 238              	.LFE8:
 239              		.size	chCondSignal, .-chCondSignal
 240 004e 00BF     		.section	.rodata
 241 0021 000000   		.align	2
 242              	.LC2:
 243 0024 22636843 		.ascii	"\"chCondSignalI\"()\000"
 243      6F6E6453 
 243      69676E61 
 243      6C492228 
 243      2900
 244              		.section	.text.chCondSignalI,"ax",%progbits
 245              		.align	2
 246              		.p2align 4,,15
 247              		.global	chCondSignalI
 248              		.thumb
 249              		.thumb_func
 250              		.type	chCondSignalI, %function
 251              	chCondSignalI:
 252              	.LFB9:
 253              		.loc 2 94 0
 254              		.cfi_startproc
 255              		@ args = 0, pretend = 0, frame = 8
 256              		@ frame_needed = 0, uses_anonymous_args = 0
 257 0000 00B5     		push	{lr}
 258              		.cfi_def_cfa_offset 4
 259              		.cfi_offset 14, -4
 260 0002 83B0     		sub	sp, sp, #12
 261              		.cfi_def_cfa_offset 16
 262 0004 0190     		str	r0, [sp, #4]
 263              		.loc 2 96 0
 264 0006 FFF7FEFF 		bl	chDbgCheckClassI
 265              		.loc 2 97 0
 266 000a 019B     		ldr	r3, [sp, #4]
 267 000c 002B     		cmp	r3, #0
 268 000e 05D1     		bne	.L12
 269              		.loc 2 97 0 is_stmt 0 discriminator 1
ARM GAS  /tmp/cckVf1Go.s 			page 6


 270 0010 40F20000 		movw	r0, #:lower16:.LC2
 271 0014 C0F20000 		movt	r0, #:upper16:.LC2
 272 0018 FFF7FEFF 		bl	chDbgPanic
 273              	.L12:
 274              		.loc 2 99 0 is_stmt 1
 275 001c 019B     		ldr	r3, [sp, #4]
 276 001e 1A68     		ldr	r2, [r3]
 277 0020 019B     		ldr	r3, [sp, #4]
 278 0022 9A42     		cmp	r2, r3
 279 0024 0AD0     		beq	.L11
 280              		.loc 2 100 0
 281 0026 019B     		ldr	r3, [sp, #4]
 282 0028 1846     		mov	r0, r3
 283 002a FFF7FEFF 		bl	fifo_remove
 284 002e 0346     		mov	r3, r0
 285 0030 1846     		mov	r0, r3
 286 0032 FFF7FEFF 		bl	chSchReadyI
 287 0036 0346     		mov	r3, r0
 288 0038 0022     		movs	r2, #0
 289 003a 9A62     		str	r2, [r3, #40]
 290              	.L11:
 291              		.loc 2 101 0
 292 003c 03B0     		add	sp, sp, #12
 293              		@ sp needed
 294 003e 5DF804FB 		ldr	pc, [sp], #4
 295              		.cfi_endproc
 296              	.LFE9:
 297              		.size	chCondSignalI, .-chCondSignalI
 298 0042 00BFAFF3 		.section	.text.chCondBroadcast,"ax",%progbits
 298      0080AFF3 
 298      0080AFF3 
 298      0080
 299              		.align	2
 300              		.p2align 4,,15
 301              		.global	chCondBroadcast
 302              		.thumb
 303              		.thumb_func
 304              		.type	chCondBroadcast, %function
 305              	chCondBroadcast:
 306              	.LFB10:
 307              		.loc 2 110 0
 308              		.cfi_startproc
 309              		@ args = 0, pretend = 0, frame = 8
 310              		@ frame_needed = 0, uses_anonymous_args = 0
 311 0000 00B5     		push	{lr}
 312              		.cfi_def_cfa_offset 4
 313              		.cfi_offset 14, -4
 314 0002 83B0     		sub	sp, sp, #12
 315              		.cfi_def_cfa_offset 16
 316 0004 0190     		str	r0, [sp, #4]
 317              	.LBB4:
 318              		.loc 2 112 0
 319 0006 2023     		movs	r3, #32
 320              	@ 112 "../../../os/kernel/src/chcond.c" 1
 321 0008 83F31188 		msr     BASEPRI, r3
 322              	@ 0 "" 2
 323              		.thumb
ARM GAS  /tmp/cckVf1Go.s 			page 7


 324              	.LBE4:
 325 000c FFF7FEFF 		bl	dbg_check_lock
 326              		.loc 2 113 0
 327 0010 0198     		ldr	r0, [sp, #4]
 328 0012 FFF7FEFF 		bl	chCondBroadcastI
 329              		.loc 2 114 0
 330 0016 FFF7FEFF 		bl	chSchRescheduleS
 331              		.loc 2 115 0
 332 001a FFF7FEFF 		bl	dbg_check_unlock
 333              	.LBB5:
 334 001e 0023     		movs	r3, #0
 335              	@ 115 "../../../os/kernel/src/chcond.c" 1
 336 0020 83F31188 		msr     BASEPRI, r3
 337              	@ 0 "" 2
 338              		.thumb
 339              	.LBE5:
 340              		.loc 2 116 0
 341 0024 03B0     		add	sp, sp, #12
 342              		@ sp needed
 343 0026 5DF804FB 		ldr	pc, [sp], #4
 344              		.cfi_endproc
 345              	.LFE10:
 346              		.size	chCondBroadcast, .-chCondBroadcast
 347 002a 00BFAFF3 		.section	.rodata
 347      0080
 348 0036 0000     		.align	2
 349              	.LC3:
 350 0038 22636843 		.ascii	"\"chCondBroadcastI\"()\000"
 350      6F6E6442 
 350      726F6164 
 350      63617374 
 350      49222829 
 351              		.section	.text.chCondBroadcastI,"ax",%progbits
 352              		.align	2
 353              		.p2align 4,,15
 354              		.global	chCondBroadcastI
 355              		.thumb
 356              		.thumb_func
 357              		.type	chCondBroadcastI, %function
 358              	chCondBroadcastI:
 359              	.LFB11:
 360              		.loc 2 129 0
 361              		.cfi_startproc
 362              		@ args = 0, pretend = 0, frame = 8
 363              		@ frame_needed = 0, uses_anonymous_args = 0
 364 0000 00B5     		push	{lr}
 365              		.cfi_def_cfa_offset 4
 366              		.cfi_offset 14, -4
 367 0002 83B0     		sub	sp, sp, #12
 368              		.cfi_def_cfa_offset 16
 369 0004 0190     		str	r0, [sp, #4]
 370              		.loc 2 131 0
 371 0006 FFF7FEFF 		bl	chDbgCheckClassI
 372              		.loc 2 132 0
 373 000a 019B     		ldr	r3, [sp, #4]
 374 000c 002B     		cmp	r3, #0
 375 000e 06D1     		bne	.L16
ARM GAS  /tmp/cckVf1Go.s 			page 8


 376              		.loc 2 132 0 is_stmt 0 discriminator 1
 377 0010 40F20000 		movw	r0, #:lower16:.LC3
 378 0014 C0F20000 		movt	r0, #:upper16:.LC3
 379 0018 FFF7FEFF 		bl	chDbgPanic
 380              		.loc 2 137 0 is_stmt 1 discriminator 1
 381 001c 0CE0     		b	.L17
 382              	.L16:
 383              		.loc 2 137 0 is_stmt 0
 384 001e 0BE0     		b	.L17
 385              	.L18:
 386              		.loc 2 138 0 is_stmt 1
 387 0020 019B     		ldr	r3, [sp, #4]
 388 0022 1846     		mov	r0, r3
 389 0024 FFF7FEFF 		bl	fifo_remove
 390 0028 0346     		mov	r3, r0
 391 002a 1846     		mov	r0, r3
 392 002c FFF7FEFF 		bl	chSchReadyI
 393 0030 0346     		mov	r3, r0
 394 0032 6FF00102 		mvn	r2, #1
 395 0036 9A62     		str	r2, [r3, #40]
 396              	.L17:
 397              		.loc 2 137 0 discriminator 1
 398 0038 019B     		ldr	r3, [sp, #4]
 399 003a 1A68     		ldr	r2, [r3]
 400 003c 019B     		ldr	r3, [sp, #4]
 401 003e 9A42     		cmp	r2, r3
 402 0040 EED1     		bne	.L18
 403              		.loc 2 139 0
 404 0042 03B0     		add	sp, sp, #12
 405              		@ sp needed
 406 0044 5DF804FB 		ldr	pc, [sp], #4
 407              		.cfi_endproc
 408              	.LFE11:
 409              		.size	chCondBroadcastI, .-chCondBroadcastI
 410 0048 AFF30080 		.section	.text.chCondWait,"ax",%progbits
 410      AFF30080 
 411              		.align	2
 412              		.p2align 4,,15
 413              		.global	chCondWait
 414              		.thumb
 415              		.thumb_func
 416              		.type	chCondWait, %function
 417              	chCondWait:
 418              	.LFB12:
 419              		.loc 2 158 0
 420              		.cfi_startproc
 421              		@ args = 0, pretend = 0, frame = 16
 422              		@ frame_needed = 0, uses_anonymous_args = 0
 423 0000 00B5     		push	{lr}
 424              		.cfi_def_cfa_offset 4
 425              		.cfi_offset 14, -4
 426 0002 85B0     		sub	sp, sp, #20
 427              		.cfi_def_cfa_offset 24
 428 0004 0190     		str	r0, [sp, #4]
 429              	.LBB6:
 430              		.loc 2 161 0
 431 0006 2023     		movs	r3, #32
ARM GAS  /tmp/cckVf1Go.s 			page 9


 432              	@ 161 "../../../os/kernel/src/chcond.c" 1
 433 0008 83F31188 		msr     BASEPRI, r3
 434              	@ 0 "" 2
 435              		.thumb
 436              	.LBE6:
 437 000c FFF7FEFF 		bl	dbg_check_lock
 438              		.loc 2 162 0
 439 0010 0198     		ldr	r0, [sp, #4]
 440 0012 FFF7FEFF 		bl	chCondWaitS
 441 0016 0390     		str	r0, [sp, #12]
 442              		.loc 2 163 0
 443 0018 FFF7FEFF 		bl	dbg_check_unlock
 444              	.LBB7:
 445 001c 0023     		movs	r3, #0
 446              	@ 163 "../../../os/kernel/src/chcond.c" 1
 447 001e 83F31188 		msr     BASEPRI, r3
 448              	@ 0 "" 2
 449              		.thumb
 450              	.LBE7:
 451              		.loc 2 164 0
 452 0022 039B     		ldr	r3, [sp, #12]
 453              		.loc 2 165 0
 454 0024 1846     		mov	r0, r3
 455 0026 05B0     		add	sp, sp, #20
 456              		@ sp needed
 457 0028 5DF804FB 		ldr	pc, [sp], #4
 458              		.cfi_endproc
 459              	.LFE12:
 460              		.size	chCondWait, .-chCondWait
 461 002c AFF30080 		.section	.rodata
 462 004d 000000   		.align	2
 463              	.LC4:
 464 0050 22636843 		.ascii	"\"chCondWaitS\"()\000"
 464      6F6E6457 
 464      61697453 
 464      22282900 
 465              		.align	2
 466              	.LC5:
 467 0060 6368436F 		.ascii	"chCondWaitS(), #1\000"
 467      6E645761 
 467      69745328 
 467      292C2023 
 467      3100
 468              		.section	.text.chCondWaitS,"ax",%progbits
 469              		.align	2
 470              		.p2align 4,,15
 471              		.global	chCondWaitS
 472              		.thumb
 473              		.thumb_func
 474              		.type	chCondWaitS, %function
 475              	chCondWaitS:
 476              	.LFB13:
 477              		.loc 2 184 0
 478              		.cfi_startproc
 479              		@ args = 0, pretend = 0, frame = 24
 480              		@ frame_needed = 0, uses_anonymous_args = 0
 481 0000 00B5     		push	{lr}
ARM GAS  /tmp/cckVf1Go.s 			page 10


 482              		.cfi_def_cfa_offset 4
 483              		.cfi_offset 14, -4
 484 0002 87B0     		sub	sp, sp, #28
 485              		.cfi_def_cfa_offset 32
 486 0004 0190     		str	r0, [sp, #4]
 487              		.loc 2 185 0
 488 0006 40F20003 		movw	r3, #:lower16:rlist
 489 000a C0F20003 		movt	r3, #:upper16:rlist
 490 000e 9B69     		ldr	r3, [r3, #24]
 491 0010 0593     		str	r3, [sp, #20]
 492              		.loc 2 189 0
 493 0012 FFF7FEFF 		bl	chDbgCheckClassS
 494              		.loc 2 190 0
 495 0016 019B     		ldr	r3, [sp, #4]
 496 0018 002B     		cmp	r3, #0
 497 001a 05D1     		bne	.L22
 498              		.loc 2 190 0 is_stmt 0 discriminator 1
 499 001c 40F20000 		movw	r0, #:lower16:.LC4
 500 0020 C0F20000 		movt	r0, #:upper16:.LC4
 501 0024 FFF7FEFF 		bl	chDbgPanic
 502              	.L22:
 503              		.loc 2 191 0 is_stmt 1
 504 0028 059B     		ldr	r3, [sp, #20]
 505 002a 1B6C     		ldr	r3, [r3, #64]
 506 002c 002B     		cmp	r3, #0
 507 002e 05D1     		bne	.L23
 508              		.loc 2 191 0 is_stmt 0 discriminator 1
 509 0030 40F20000 		movw	r0, #:lower16:.LC5
 510 0034 C0F20000 		movt	r0, #:upper16:.LC5
 511 0038 FFF7FEFF 		bl	chDbgPanic
 512              	.L23:
 513              		.loc 2 195 0 is_stmt 1
 514 003c FFF7FEFF 		bl	chMtxUnlockS
 515 0040 0490     		str	r0, [sp, #16]
 516              		.loc 2 196 0
 517 0042 059B     		ldr	r3, [sp, #20]
 518 0044 019A     		ldr	r2, [sp, #4]
 519 0046 9A62     		str	r2, [r3, #40]
 520              		.loc 2 197 0
 521 0048 019B     		ldr	r3, [sp, #4]
 522 004a 0598     		ldr	r0, [sp, #20]
 523 004c 1946     		mov	r1, r3
 524 004e FFF7FEFF 		bl	prio_insert
 525              		.loc 2 198 0
 526 0052 0520     		movs	r0, #5
 527 0054 FFF7FEFF 		bl	chSchGoSleepS
 528              		.loc 2 199 0
 529 0058 059B     		ldr	r3, [sp, #20]
 530 005a 9B6A     		ldr	r3, [r3, #40]
 531 005c 0393     		str	r3, [sp, #12]
 532              		.loc 2 200 0
 533 005e 0498     		ldr	r0, [sp, #16]
 534 0060 FFF7FEFF 		bl	chMtxLockS
 535              		.loc 2 201 0
 536 0064 039B     		ldr	r3, [sp, #12]
 537              		.loc 2 202 0
 538 0066 1846     		mov	r0, r3
ARM GAS  /tmp/cckVf1Go.s 			page 11


 539 0068 07B0     		add	sp, sp, #28
 540              		@ sp needed
 541 006a 5DF804FB 		ldr	pc, [sp], #4
 542              		.cfi_endproc
 543              	.LFE13:
 544              		.size	chCondWaitS, .-chCondWaitS
 545 006e 00BF     		.section	.text.chCondWaitTimeout,"ax",%progbits
 546              		.align	2
 547              		.p2align 4,,15
 548              		.global	chCondWaitTimeout
 549              		.thumb
 550              		.thumb_func
 551              		.type	chCondWaitTimeout, %function
 552              	chCondWaitTimeout:
 553              	.LFB14:
 554              		.loc 2 233 0
 555              		.cfi_startproc
 556              		@ args = 0, pretend = 0, frame = 16
 557              		@ frame_needed = 0, uses_anonymous_args = 0
 558 0000 00B5     		push	{lr}
 559              		.cfi_def_cfa_offset 4
 560              		.cfi_offset 14, -4
 561 0002 85B0     		sub	sp, sp, #20
 562              		.cfi_def_cfa_offset 24
 563 0004 0190     		str	r0, [sp, #4]
 564 0006 0091     		str	r1, [sp]
 565              	.LBB8:
 566              		.loc 2 236 0
 567 0008 2023     		movs	r3, #32
 568              	@ 236 "../../../os/kernel/src/chcond.c" 1
 569 000a 83F31188 		msr     BASEPRI, r3
 570              	@ 0 "" 2
 571              		.thumb
 572              	.LBE8:
 573 000e FFF7FEFF 		bl	dbg_check_lock
 574              		.loc 2 237 0
 575 0012 0198     		ldr	r0, [sp, #4]
 576 0014 0099     		ldr	r1, [sp]
 577 0016 FFF7FEFF 		bl	chCondWaitTimeoutS
 578 001a 0390     		str	r0, [sp, #12]
 579              		.loc 2 238 0
 580 001c FFF7FEFF 		bl	dbg_check_unlock
 581              	.LBB9:
 582 0020 0023     		movs	r3, #0
 583              	@ 238 "../../../os/kernel/src/chcond.c" 1
 584 0022 83F31188 		msr     BASEPRI, r3
 585              	@ 0 "" 2
 586              		.thumb
 587              	.LBE9:
 588              		.loc 2 239 0
 589 0026 039B     		ldr	r3, [sp, #12]
 590              		.loc 2 240 0
 591 0028 1846     		mov	r0, r3
 592 002a 05B0     		add	sp, sp, #20
 593              		@ sp needed
 594 002c 5DF804FB 		ldr	pc, [sp], #4
 595              		.cfi_endproc
ARM GAS  /tmp/cckVf1Go.s 			page 12


 596              	.LFE14:
 597              		.size	chCondWaitTimeout, .-chCondWaitTimeout
 598              		.section	.rodata
 599 0072 0000     		.align	2
 600              	.LC6:
 601 0074 22636843 		.ascii	"\"chCondWaitTimeoutS\"()\000"
 601      6F6E6457 
 601      61697454 
 601      696D656F 
 601      75745322 
 602 008b 00       		.align	2
 603              	.LC7:
 604 008c 6368436F 		.ascii	"chCondWaitTimeoutS(), #1\000"
 604      6E645761 
 604      69745469 
 604      6D656F75 
 604      74532829 
 605 00a5 000000   		.section	.text.chCondWaitTimeoutS,"ax",%progbits
 606              		.align	2
 607              		.p2align 4,,15
 608              		.global	chCondWaitTimeoutS
 609              		.thumb
 610              		.thumb_func
 611              		.type	chCondWaitTimeoutS, %function
 612              	chCondWaitTimeoutS:
 613              	.LFB15:
 614              		.loc 2 270 0
 615              		.cfi_startproc
 616              		@ args = 0, pretend = 0, frame = 16
 617              		@ frame_needed = 0, uses_anonymous_args = 0
 618 0000 00B5     		push	{lr}
 619              		.cfi_def_cfa_offset 4
 620              		.cfi_offset 14, -4
 621 0002 85B0     		sub	sp, sp, #20
 622              		.cfi_def_cfa_offset 24
 623 0004 0190     		str	r0, [sp, #4]
 624 0006 0091     		str	r1, [sp]
 625              		.loc 2 274 0
 626 0008 FFF7FEFF 		bl	chDbgCheckClassS
 627              		.loc 2 275 0
 628 000c 019B     		ldr	r3, [sp, #4]
 629 000e 002B     		cmp	r3, #0
 630 0010 02D0     		beq	.L28
 631              		.loc 2 275 0 is_stmt 0 discriminator 2
 632 0012 009B     		ldr	r3, [sp]
 633 0014 002B     		cmp	r3, #0
 634 0016 05D1     		bne	.L29
 635              	.L28:
 636              		.loc 2 275 0 discriminator 1
 637 0018 40F20000 		movw	r0, #:lower16:.LC6
 638 001c C0F20000 		movt	r0, #:upper16:.LC6
 639 0020 FFF7FEFF 		bl	chDbgPanic
 640              	.L29:
 641              		.loc 2 276 0 is_stmt 1
 642 0024 40F20003 		movw	r3, #:lower16:rlist
 643 0028 C0F20003 		movt	r3, #:upper16:rlist
 644 002c 9B69     		ldr	r3, [r3, #24]
ARM GAS  /tmp/cckVf1Go.s 			page 13


 645 002e 1B6C     		ldr	r3, [r3, #64]
 646 0030 002B     		cmp	r3, #0
 647 0032 05D1     		bne	.L30
 648              		.loc 2 276 0 is_stmt 0 discriminator 1
 649 0034 40F20000 		movw	r0, #:lower16:.LC7
 650 0038 C0F20000 		movt	r0, #:upper16:.LC7
 651 003c FFF7FEFF 		bl	chDbgPanic
 652              	.L30:
 653              		.loc 2 280 0 is_stmt 1
 654 0040 FFF7FEFF 		bl	chMtxUnlockS
 655 0044 0390     		str	r0, [sp, #12]
 656              		.loc 2 281 0
 657 0046 40F20003 		movw	r3, #:lower16:rlist
 658 004a C0F20003 		movt	r3, #:upper16:rlist
 659 004e 9B69     		ldr	r3, [r3, #24]
 660 0050 019A     		ldr	r2, [sp, #4]
 661 0052 9A62     		str	r2, [r3, #40]
 662              		.loc 2 282 0
 663 0054 40F20003 		movw	r3, #:lower16:rlist
 664 0058 C0F20003 		movt	r3, #:upper16:rlist
 665 005c 9A69     		ldr	r2, [r3, #24]
 666 005e 019B     		ldr	r3, [sp, #4]
 667 0060 1046     		mov	r0, r2
 668 0062 1946     		mov	r1, r3
 669 0064 FFF7FEFF 		bl	prio_insert
 670              		.loc 2 283 0
 671 0068 0520     		movs	r0, #5
 672 006a 0099     		ldr	r1, [sp]
 673 006c FFF7FEFF 		bl	chSchGoSleepTimeoutS
 674 0070 0290     		str	r0, [sp, #8]
 675              		.loc 2 284 0
 676 0072 029B     		ldr	r3, [sp, #8]
 677 0074 B3F1FF3F 		cmp	r3, #-1
 678 0078 02D0     		beq	.L31
 679              		.loc 2 285 0
 680 007a 0398     		ldr	r0, [sp, #12]
 681 007c FFF7FEFF 		bl	chMtxLockS
 682              	.L31:
 683              		.loc 2 286 0
 684 0080 029B     		ldr	r3, [sp, #8]
 685              		.loc 2 287 0
 686 0082 1846     		mov	r0, r3
 687 0084 05B0     		add	sp, sp, #20
 688              		@ sp needed
 689 0086 5DF804FB 		ldr	pc, [sp], #4
 690              		.cfi_endproc
 691              	.LFE15:
 692              		.size	chCondWaitTimeoutS, .-chCondWaitTimeoutS
 693 008a 00BFAFF3 		.text
 693      0080
 694              	.Letext0:
 695              		.file 3 "/usr/arm-none-eabi/include/machine/_default_types.h"
 696              		.file 4 "/usr/arm-none-eabi/include/stdint.h"
 697              		.file 5 "../../../os/ports/GCC/ARMCMx/chtypes.h"
 698              		.file 6 "../../../os/kernel/include/chlists.h"
 699              		.file 7 "../../../os/kernel/include/chthreads.h"
 700              		.file 8 "../../../os/ports/GCC/ARMCMx/chcore_v7m.h"
ARM GAS  /tmp/cckVf1Go.s 			page 14


 701              		.file 9 "../../../os/kernel/include/chschd.h"
 702              		.file 10 "../../../os/kernel/include/chmtx.h"
 703              		.file 11 "../../../os/kernel/include/chcond.h"