ARM GAS  /tmp/cckVf1Go.s 			page 1


   1              		.syntax unified
   2              		.cpu cortex-m4
   3              		.fpu softvfp
   4              		.eabi_attribute 20, 1
   5              		.eabi_attribute 21, 1
   6              		.eabi_attribute 23, 3
   7              		.eabi_attribute 24, 1
   8              		.eabi_attribute 25, 1
   9              		.eabi_attribute 26, 1
  10              		.eabi_attribute 30, 6
  11              		.eabi_attribute 34, 1
  12              		.eabi_attribute 18, 4
  13              		.thumb
  14              		.file	"chcond.c"
  15              		.text
  16              	.Ltext0:
  17              		.cfi_sections	.debug_frame
  18              		.section	.text.prio_insert,"ax",%progbits
  19              		.align	2
  20              		.p2align 4,,15
  21              		.thumb
  22              		.thumb_func
  23              		.type	prio_insert, %function
  24              	prio_insert:
  25              	.LFB0:
  26              		.file 1 "../../../os/kernel/include/chinline.h"
  27              		.loc 1 41 0
  28              		.cfi_startproc
  29              		@ args = 0, pretend = 0, frame = 16
  30              		@ frame_needed = 0, uses_anonymous_args = 0
  31              		@ link register save eliminated.
  32 0000 84B0     		sub	sp, sp, #16
  33              		.cfi_def_cfa_offset 16
  34 0002 0190     		str	r0, [sp, #4]
  35 0004 0091     		str	r1, [sp]
  36              		.loc 1 43 0
  37 0006 009B     		ldr	r3, [sp]
  38 0008 0393     		str	r3, [sp, #12]
  39              	.L3:
  40              		.loc 1 45 0 discriminator 1
  41 000a 039B     		ldr	r3, [sp, #12]
  42 000c 1B68     		ldr	r3, [r3]
  43 000e 0393     		str	r3, [sp, #12]
  44              		.loc 1 46 0 discriminator 1
  45 0010 039A     		ldr	r2, [sp, #12]
  46 0012 009B     		ldr	r3, [sp]
  47 0014 9A42     		cmp	r2, r3
  48 0016 05D0     		beq	.L2
  49 0018 039B     		ldr	r3, [sp, #12]
  50 001a 9A68     		ldr	r2, [r3, #8]
  51 001c 019B     		ldr	r3, [sp, #4]
  52 001e 9B68     		ldr	r3, [r3, #8]
  53 0020 9A42     		cmp	r2, r3
  54 0022 F2D2     		bcs	.L3
  55              	.L2:
  56              		.loc 1 47 0
  57 0024 019B     		ldr	r3, [sp, #4]
ARM GAS  /tmp/cckVf1Go.s 			page 2


  58 0026 039A     		ldr	r2, [sp, #12]
  59 0028 1A60     		str	r2, [r3]
  60              		.loc 1 48 0
  61 002a 039B     		ldr	r3, [sp, #12]
  62 002c 5A68     		ldr	r2, [r3, #4]
  63 002e 019B     		ldr	r3, [sp, #4]
  64 0030 5A60     		str	r2, [r3, #4]
  65              		.loc 1 49 0
  66 0032 019B     		ldr	r3, [sp, #4]
  67 0034 5B68     		ldr	r3, [r3, #4]
  68 0036 039A     		ldr	r2, [sp, #12]
  69 0038 0199     		ldr	r1, [sp, #4]
  70 003a 5160     		str	r1, [r2, #4]
  71 003c 039A     		ldr	r2, [sp, #12]
  72 003e 5268     		ldr	r2, [r2, #4]
  73 0040 1A60     		str	r2, [r3]
  74              		.loc 1 50 0
  75 0042 04B0     		add	sp, sp, #16
  76              		@ sp needed
  77 0044 7047     		bx	lr
  78              		.cfi_endproc
  79              	.LFE0:
  80              		.size	prio_insert, .-prio_insert
  81 0046 00BFAFF3 		.section	.text.fifo_remove,"ax",%progbits
  81      0080AFF3 
  81      0080
  82              		.align	2
  83              		.p2align 4,,15
  84              		.thumb
  85              		.thumb_func
  86              		.type	fifo_remove, %function
  87              	fifo_remove:
  88              	.LFB2:
  89              		.loc 1 59 0
  90              		.cfi_startproc
  91              		@ args = 0, pretend = 0, frame = 16
  92              		@ frame_needed = 0, uses_anonymous_args = 0
  93              		@ link register save eliminated.
  94 0000 84B0     		sub	sp, sp, #16
  95              		.cfi_def_cfa_offset 16
  96 0002 0190     		str	r0, [sp, #4]
  97              		.loc 1 60 0
  98 0004 019B     		ldr	r3, [sp, #4]
  99 0006 1B68     		ldr	r3, [r3]
 100 0008 0393     		str	r3, [sp, #12]
 101              		.loc 1 62 0
 102 000a 039B     		ldr	r3, [sp, #12]
 103 000c 1A68     		ldr	r2, [r3]
 104 000e 019B     		ldr	r3, [sp, #4]
 105 0010 1A60     		str	r2, [r3]
 106 0012 019B     		ldr	r3, [sp, #4]
 107 0014 1B68     		ldr	r3, [r3]
 108 0016 019A     		ldr	r2, [sp, #4]
 109 0018 5A60     		str	r2, [r3, #4]
 110              		.loc 1 63 0
 111 001a 039B     		ldr	r3, [sp, #12]
 112              		.loc 1 64 0
ARM GAS  /tmp/cckVf1Go.s 			page 3


 113 001c 1846     		mov	r0, r3
 114 001e 04B0     		add	sp, sp, #16
 115              		@ sp needed
 116 0020 7047     		bx	lr
 117              		.cfi_endproc
 118              	.LFE2:
 119              		.size	fifo_remove, .-fifo_remove
 120 0022 00BFAFF3 		.section	.rodata
 120      0080AFF3 
 120      0080AFF3 
 120      0080
 121              		.align	2
 122              	.LC0:
 123 0000 22636843 		.ascii	"\"chCondInit\"()\000"
 123      6F6E6449 
 123      6E697422 
 123      282900
 124              		.section	.text.chCondInit,"ax",%progbits
 125              		.align	2
 126              		.p2align 4,,15
 127              		.global	chCondInit
 128              		.thumb
 129              		.thumb_func
 130              		.type	chCondInit, %function
 131              	chCondInit:
 132              	.LFB7:
 133              		.file 2 "../../../os/kernel/src/chcond.c"
 134              		.loc 2 59 0
 135              		.cfi_startproc
 136              		@ args = 0, pretend = 0, frame = 8
 137              		@ frame_needed = 0, uses_anonymous_args = 0
 138 0000 00B5     		push	{lr}
 139              		.cfi_def_cfa_offset 4
 140              		.cfi_offset 14, -4
 141 0002 83B0     		sub	sp, sp, #12
 142              		.cfi_def_cfa_offset 16
 143 0004 0190     		str	r0, [sp, #4]
 144              		.loc 2 61 0
 145 0006 019B     		ldr	r3, [sp, #4]
 146 0008 002B     		cmp	r3, #0
 147 000a 05D1     		bne	.L7
 148              		.loc 2 61 0 is_stmt 0 discriminator 1
 149 000c 40F20000 		movw	r0, #:lower16:.LC0
 150 0010 C0F20000 		movt	r0, #:upper16:.LC0
 151 0014 FFF7FEFF 		bl	chDbgPanic
 152              	.L7:
 153              		.loc 2 63 0 is_stmt 1
 154 0018 019A     		ldr	r2, [sp, #4]
 155 001a 019B     		ldr	r3, [sp, #4]
 156 001c 5A60     		str	r2, [r3, #4]
 157 001e 019B     		ldr	r3, [sp, #4]
 158 0020 5A68     		ldr	r2, [r3, #4]
 159 0022 019B     		ldr	r3, [sp, #4]
 160 0024 1A60     		str	r2, [r3]
 161              		.loc 2 64 0
 162 0026 03B0     		add	sp, sp, #12
 163              		@ sp needed
ARM GAS  /tmp/cckVf1Go.s 			page 4


 164 0028 5DF804FB 		ldr	pc, [sp], #4
 165              		.cfi_endproc
 166              	.LFE7:
 167              		.size	chCondInit, .-chCondInit
 168 002c AFF30080 		.section	.rodata
 169 000f 00       		.align	2
 170              	.LC1:
 171 0010 22636843 		.ascii	"\"chCondSignal\"()\000"
 171      6F6E6453 
 171      69676E61 
 171      6C222829 
 171      00
 172              		.section	.text.chCondSignal,"ax",%progbits
 173              		.align	2
 174              		.p2align 4,,15
 175              		.global	chCondSignal
 176              		.thumb
 177              		.thumb_func
 178              		.type	chCondSignal, %function
 179              	chCondSignal:
 180              	.LFB8:
 181              		.loc 2 73 0
 182              		.cfi_startproc
 183              		@ args = 0, pretend = 0, frame = 8
 184              		@ frame_needed = 0, uses_anonymous_args = 0
 185 0000 00B5     		push	{lr}
 186              		.cfi_def_cfa_offset 4
 187              		.cfi_offset 14, -4
 188 0002 83B0     		sub	sp, sp, #12
 189              		.cfi_def_cfa_offset 16
 190 0004 0190     		str	r0, [sp, #4]
 191              		.loc 2 75 0
 192 0006 019B     		ldr	r3, [sp, #4]
 193 0008 002B     		cmp	r3, #0
 194 000a 05D1     		bne	.L9
 195              		.loc 2 75 0 is_stmt 0 discriminator 1
 196 000c 40F20000 		movw	r0, #:lower16:.LC1
 197 0010 C0F20000 		movt	r0, #:upper16:.LC1
 198 0014 FFF7FEFF 		bl	chDbgPanic
 199              	.L9:
 200              	.LBB2:
 201              		.loc 2 77 0 is_stmt 1
 202 0018 2023     		movs	r3, #32
 203              	@ 77 "../../../os/kernel/src/chcond.c" 1
 204 001a 83F31188 		msr     BASEPRI, r3
 205              	@ 0 "" 2
 206              		.thumb
 207              	.LBE2:
 208 001e FFF7FEFF 		bl	dbg_check_lock
 209              		.loc 2 78 0
 210 0022 019B     		ldr	r3, [sp, #4]
 211 0024 1A68     		ldr	r2, [r3]
 212 0026 019B     		ldr	r3, [sp, #4]
 213 0028 9A42     		cmp	r2, r3
 214 002a 08D0     		beq	.L10
 215              		.loc 2 79 0
 216 002c 019B     		ldr	r3, [sp, #4]
ARM GAS  /tmp/cckVf1Go.s 			page 5


 217 002e 1846     		mov	r0, r3
 218 0030 FFF7FEFF 		bl	fifo_remove
 219 0034 0346     		mov	r3, r0
 220 0036 1846     		mov	r0, r3
 221 0038 0021     		movs	r1, #0
 222 003a FFF7FEFF 		bl	chSchWakeupS
 223              	.L10:
 224              		.loc 2 80 0
 225 003e FFF7FEFF 		bl	dbg_check_unlock
 226              	.LBB3:
 227 0042 0023     		movs	r3, #0
 228              	@ 80 "../../../os/kernel/src/chcond.c" 1
 229 0044 83F31188 		msr     BASEPRI, r3
 230              	@ 0 "" 2
 231              		.thumb
 232              	.LBE3:
 233              		.loc 2 81 0
 234 0048 03B0     		add	sp, sp, #12
 235              		@ sp needed
 236 004a 5DF804FB 		ldr	pc, [sp], #4
 237              		.cfi_endproc
 238              	.LFE8:
 239              		.size	chCondSignal, .-chCondSignal
 240 004e 00BF     		.section	.rodata
 241 0021 000000   		.align	2
 242              	.LC2:
 243 0024 22636843 		.ascii	"\"chCondSignalI\"()\000"
 243      6F6E6453 
 243      69676E61 
 243      6C492228 
 243      2900
 244              		.section	.text.chCondSignalI,"ax",%progbits
 245              		.align	2
 246              		.p2align 4,,15
 247              		.global	chCondSignalI
 248              		.thumb
 249              		.thumb_func
 250              		.type	chCondSignalI, %function
 251              	chCondSignalI:
 252              	.LFB9:
 253              		.loc 2 94 0
 254              		.cfi_startproc
 255              		@ args = 0, pretend = 0, frame = 8
 256              		@ frame_needed = 0, uses_anonymous_args = 0
 257 0000 00B5     		push	{lr}
 258              		.cfi_def_cfa_offset 4
 259              		.cfi_offset 14, -4
 260 0002 83B0     		sub	sp, sp, #12
 261              		.cfi_def_cfa_offset 16
 262 0004 0190     		str	r0, [sp, #4]
 263              		.loc 2 96 0
 264 0006 FFF7FEFF 		bl	chDbgCheckClassI
 265              		.loc 2 97 0
 266 000a 019B     		ldr	r3, [sp, #4]
 267 000c 002B     		cmp	r3, #0
 268 000e 05D1     		bne	.L12
 269              		.loc 2 97 0 is_stmt 0 discriminator 1
ARM GAS  /tmp/cckVf1Go.s 			page 6


 270 0010 40F20000 		movw	r0, #:lower16:.LC2
 271 0014 C0F20000 		movt	r0, #:upper16:.LC2
 272 0018 FFF7FEFF 		bl	chDbgPanic
 273              	.L12:
 274              		.loc 2 99 0 is_stmt 1
 275 001c 019B     		ldr	r3, [sp, #4]
 276 001e 1A68     		ldr	r2, [r3]
 277 0020 019B     		ldr	r3, [sp, #4]
 278 0022 9A42     		cmp	r2, r3
 279 0024 0AD0     		beq	.L11
 280              		.loc 2 100 0
 281 0026 019B     		ldr	r3, [sp, #4]
 282 0028 1846     		mov	r0, r3
 283 002a FFF7FEFF 		bl	fifo_remove
 284 002e 0346     		mov	r3, r0
 285 0030 1846     		mov	r0, r3
 286 0032 FFF7FEFF 		bl	chSchReadyI
 287 0036 0346     		mov	r3, r0
 288 0038 0022     		movs	r2, #0
 289 003a 9A62     		str	r2, [r3, #40]
 290              	.L11:
 291              		.loc 2 101 0
 292 003c 03B0     		add	sp, sp, #12
 293              		@ sp needed
 294 003e 5DF804FB 		ldr	pc, [sp], #4
 295              		.cfi_endproc
 296              	.LFE9:
 297              		.size	chCondSignalI, .-chCondSignalI
 298 0042 00BFAFF3 		.section	.text.chCondBroadcast,"ax",%progbits
 298      0080AFF3 
 298      0080AFF3 
 298      0080
 299              		.align	2
 300              		.p2align 4,,15
 301              		.global	chCondBroadcast
 302              		.thumb
 303              		.thumb_func
 304              		.type	chCondBroadcast, %function
 305              	chCondBroadcast:
 306              	.LFB10:
 307              		.loc 2 110 0
 308              		.cfi_startproc
 309              		@ args = 0, pretend = 0, frame = 8
 310              		@ frame_needed = 0, uses_anonymous_args = 0
 311 0000 00B5     		push	{lr}
 312              		.cfi_def_cfa_offset 4
 313              		.cfi_offset 14, -4
 314 0002 83B0     		sub	sp, sp, #12
 315              		.cfi_def_cfa_offset 16
 316 0004 0190     		str	r0, [sp, #4]
 317              	.LBB4:
 318              		.loc 2 112 0
 319 0006 2023     		movs	r3, #32
 320              	@ 112 "../../../os/kernel/src/chcond.c" 1
 321 0008 83F31188 		msr     BASEPRI, r3
 322              	@ 0 "" 2
 323              		.thumb
ARM GAS  /tmp/cckVf1Go.s 			page 7


 324              	.LBE4:
 325 000c FFF7FEFF 		bl	dbg_check_lock
 326              		.loc 2 113 0
 327 0010 0198     		ldr	r0, [sp, #4]
 328 0012 FFF7FEFF 		bl	chCondBroadcastI
 329              		.loc 2 114 0
 330 0016 FFF7FEFF 		bl	chSchRescheduleS
 331              		.loc 2 115 0
 332 001a FFF7FEFF 		bl	dbg_check_unlock
 333              	.LBB5:
 334 001e 0023     		movs	r3, #0
 335              	@ 115 "../../../os/kernel/src/chcond.c" 1
 336 0020 83F31188 		msr     BASEPRI, r3
 337              	@ 0 "" 2
 338              		.thumb
 339              	.LBE5:
 340              		.loc 2 116 0
 341 0024 03B0     		add	sp, sp, #12
 342              		@ sp needed
 343 0026 5DF804FB 		ldr	pc, [sp], #4
 344              		.cfi_endproc
 345              	.LFE10:
 346              		.size	chCondBroadcast, .-chCondBroadcast
 347 002a 00BFAFF3 		.section	.rodata
 347      0080
 348 0036 0000     		.align	2
 349              	.LC3:
 350 0038 22636843 		.ascii	"\"chCondBroadcastI\"()\000"
 350      6F6E6442 
 350      726F6164 
 350      63617374 
 350      49222829 
 351              		.section	.text.chCondBroadcastI,"ax",%progbits
 352              		.align	2
 353              		.p2align 4,,15
 354              		.global	chCondBroadcastI
 355              		.thumb
 356              		.thumb_func
 357              		.type	chCondBroadcastI, %function
 358              	chCondBroadcastI:
 359              	.LFB11:
 360              		.loc 2 129 0
 361              		.cfi_startproc
 362              		@ args = 0, pretend = 0, frame = 8
 363              		@ frame_needed = 0, uses_anonymous_args = 0
 364 0000 00B5     		push	{lr}
 365              		.cfi_def_cfa_offset 4
 366              		.cfi_offset 14, -4
 367 0002 83B0     		sub	sp, sp, #12
 368              		.cfi_def_cfa_offset 16
 369 0004 0190     		str	r0, [sp, #4]
 370              		.loc 2 131 0
 371 0006 FFF7FEFF 		bl	chDbgCheckClassI
 372              		.loc 2 132 0
 373 000a 019B     		ldr	r3, [sp, #4]
 374 000c 002B     		cmp	r3, #0
 375 000e 06D1     		bne	.L16
ARM GAS  /tmp/cckVf1Go.s 			page 8


 376              		.loc 2 132 0 is_stmt 0 discriminator 1
 377 0010 40F20000 		movw	r0, #:lower16:.LC3
 378 0014 C0F20000 		movt	r0, #:upper16:.LC3
 379 0018 FFF7FEFF 		bl	chDbgPanic
 380              		.loc 2 137 0 is_stmt 1 discriminator 1
 381 001c 0CE0     		b	.L17
 382              	.L16:
 383              		.loc 2 137 0 is_stmt 0
 384 001e 0BE0     		b	.L17
 385              	.L18:
 386              		.loc 2 138 0 is_stmt 1
 387 0020 019B     		ldr	r3, [sp, #4]
 388 0022 1846     		mov	r0, r3
 389 0024 FFF7FEFF 		bl	fifo_remove
 390 0028 0346     		mov	r3, r0
 391 002a 1846     		mov	r0, r3
 392 002c FFF7FEFF 		bl	chSchReadyI
 393 0030 0346     		mov	r3, r0
 394 0032 6FF00102 		mvn	r2, #1
 395 0036 9A62     		str	r2, [r3, #40]
 396              	.L17:
 397              		.loc 2 137 0 discriminator 1
 398 0038 019B     		ldr	r3, [sp, #4]
 399 003a 1A68     		ldr	r2, [r3]
 400 003c 019B     		ldr	r3, [sp, #4]
 401 003e 9A42     		cmp	r2, r3
 402 0040 EED1     		bne	.L18
 403              		.loc 2 139 0
 404 0042 03B0     		add	sp, sp, #12
 405              		@ sp needed
 406 0044 5DF804FB 		ldr	pc, [sp], #4
 407              		.cfi_endproc
 408              	.LFE11:
 409              		.size	chCondBroadcastI, .-chCondBroadcastI
 410 0048 AFF30080 		.section	.text.chCondWait,"ax",%progbits
 410      AFF30080 
 411              		.align	2
 412              		.p2align 4,,15
 413              		.global	chCondWait
 414              		.thumb
 415              		.thumb_func
 416              		.type	chCondWait, %function
 417              	chCondWait:
 418              	.LFB12:
 419              		.loc 2 158 0
 420              		.cfi_startproc
 421              		@ args = 0, pretend = 0, frame = 16
 422              		@ frame_needed = 0, uses_anonymous_args = 0
 423 0000 00B5     		push	{lr}
 424              		.cfi_def_cfa_offset 4
 425              		.cfi_offset 14, -4
 426 0002 85B0     		sub	sp, sp, #20
 427              		.cfi_def_cfa_offset 24
 428 0004 0190     		str	r0, [sp, #4]
 429              	.LBB6:
 430              		.loc 2 161 0
 431 0006 2023     		movs	r3, #32
ARM GAS  /tmp/cckVf1Go.s 			page 9


 432              	@ 161 "../../../os/kernel/src/chcond.c" 1
 433 0008 83F31188 		msr     BASEPRI, r3
 434              	@ 0 "" 2
 435              		.thumb
 436              	.LBE6:
 437 000c FFF7FEFF 		bl	dbg_check_lock
 438              		.loc 2 162 0
 439 0010 0198     		ldr	r0, [sp, #4]
 440 0012 FFF7FEFF 		bl	chCondWaitS
 441 0016 0390     		str	r0, [sp, #12]
 442              		.loc 2 163 0
 443 0018 FFF7FEFF 		bl	dbg_check_unlock
 444              	.LBB7:
 445 001c 0023     		movs	r3, #0
 446              	@ 163 "../../../os/kernel/src/chcond.c" 1
 447 001e 83F31188 		msr     BASEPRI, r3
 448              	@ 0 "" 2
 449              		.thumb
 450              	.LBE7:
 451              		.loc 2 164 0
 452 0022 039B     		ldr	r3, [sp, #12]
 453              		.loc 2 165 0
 454 0024 1846     		mov	r0, r3
 455 0026 05B0     		add	sp, sp, #20
 456              		@ sp needed
 457 0028 5DF804FB 		ldr	pc, [sp], #4
 458              		.cfi_endproc
 459              	.LFE12:
 460              		.size	chCondWait, .-chCondWait
 461 002c AFF30080 		.section	.rodata
 462 004d 000000   		.align	2
 463              	.LC4:
 464 0050 22636843 		.ascii	"\"chCondWaitS\"()\000"
 464      6F6E6457 
 464      61697453 
 464      22282900 
 465              		.align	2
 466              	.LC5:
 467 0060 6368436F 		.ascii	"chCondWaitS(), #1\000"
 467      6E645761 
 467      69745328 
 467      292C2023 
 467      3100
 468              		.section	.text.chCondWaitS,"ax",%progbits
 469              		.align	2
 470              		.p2align 4,,15
 471              		.global	chCondWaitS
 472              		.thumb
 473              		.thumb_func
 474              		.type	chCondWaitS, %function
 475              	chCondWaitS:
 476              	.LFB13:
 477              		.loc 2 184 0
 478              		.cfi_startproc
 479              		@ args = 0, pretend = 0, frame = 24
 480              		@ frame_needed = 0, uses_anonymous_args = 0
 481 0000 00B5     		push	{lr}
ARM GAS  /tmp/cckVf1Go.s 			page 10


 482              		.cfi_def_cfa_offset 4
 483              		.cfi_offset 14, -4
 484 0002 87B0     		sub	sp, sp, #28
 485              		.cfi_def_cfa_offset 32
 486 0004 0190     		str	r0, [sp, #4]
 487              		.loc 2 185 0
 488 0006 40F20003 		movw	r3, #:lower16:rlist
 489 000a C0F20003 		movt	r3, #:upper16:rlist
 490 000e 9B69     		ldr	r3, [r3, #24]
 491 0010 0593     		str	r3, [sp, #20]
 492              		.loc 2 189 0
 493 0012 FFF7FEFF 		bl	chDbgCheckClassS
 494              		.loc 2 190 0
 495 0016 019B     		ldr	r3, [sp, #4]
 496 0018 002B     		cmp	r3, #0
 497 001a 05D1     		bne	.L22
 498              		.loc 2 190 0 is_stmt 0 discriminator 1
 499 001c 40F20000 		movw	r0, #:lower16:.LC4
 500 0020 C0F20000 		movt	r0, #:upper16:.LC4
 501 0024 FFF7FEFF 		bl	chDbgPanic
 502              	.L22:
 503              		.loc 2 191 0 is_stmt 1
 504 0028 059B     		ldr	r3, [sp, #20]
 505 002a 1B6C     		ldr	r3, [r3, #64]
 506 002c 002B     		cmp	r3, #0
 507 002e 05D1     		bne	.L23
 508              		.loc 2 191 0 is_stmt 0 discriminator 1
 509 0030 40F20000 		movw	r0, #:lower16:.LC5
 510 0034 C0F20000 		movt	r0, #:upper16:.LC5
 511 0038 FFF7FEFF 		bl	chDbgPanic
 512              	.L23:
 513              		.loc 2 195 0 is_stmt 1
 514 003c FFF7FEFF 		bl	chMtxUnlockS
 515 0040 0490     		str	r0, [sp, #16]
 516              		.loc 2 196 0
 517 0042 059B     		ldr	r3, [sp, #20]
 518 0044 019A     		ldr	r2, [sp, #4]
 519 0046 9A62     		str	r2, [r3, #40]
 520              		.loc 2 197 0
 521 0048 019B     		ldr	r3, [sp, #4]
 522 004a 0598     		ldr	r0, [sp, #20]
 523 004c 1946     		mov	r1, r3
 524 004e FFF7FEFF 		bl	prio_insert
 525              		.loc 2 198 0
 526 0052 0520     		movs	r0, #5
 527 0054 FFF7FEFF 		bl	chSchGoSleepS
 528              		.loc 2 199 0
 529 0058 059B     		ldr	r3, [sp, #20]
 530 005a 9B6A     		ldr	r3, [r3, #40]
 531 005c 0393     		str	r3, [sp, #12]
 532              		.loc 2 200 0
 533 005e 0498     		ldr	r0, [sp, #16]
 534 0060 FFF7FEFF 		bl	chMtxLockS
 535              		.loc 2 201 0
 536 0064 039B     		ldr	r3, [sp, #12]
 537              		.loc 2 202 0
 538 0066 1846     		mov	r0, r3
ARM GAS  /tmp/cckVf1Go.s 			page 11


 539 0068 07B0     		add	sp, sp, #28
 540              		@ sp needed
 541 006a 5DF804FB 		ldr	pc, [sp], #4
 542              		.cfi_endproc
 543              	.LFE13:
 544              		.size	chCondWaitS, .-chCondWaitS
 545 006e 00BF     		.section	.text.chCondWaitTimeout,"ax",%progbits
 546              		.align	2
 547              		.p2align 4,,15
 548              		.global	chCondWaitTimeout
 549              		.thumb
 550              		.thumb_func
 551              		.type	chCondWaitTimeout, %function
 552              	chCondWaitTimeout:
 553              	.LFB14:
 554              		.loc 2 233 0
 555              		.cfi_startproc
 556              		@ args = 0, pretend = 0, frame = 16
 557              		@ frame_needed = 0, uses_anonymous_args = 0
 558 0000 00B5     		push	{lr}
 559              		.cfi_def_cfa_offset 4
 560              		.cfi_offset 14, -4
 561 0002 85B0     		sub	sp, sp, #20
 562              		.cfi_def_cfa_offset 24
 563 0004 0190     		str	r0, [sp, #4]
 564 0006 0091     		str	r1, [sp]
 565              	.LBB8:
 566              		.loc 2 236 0
 567 0008 2023     		movs	r3, #32
 568              	@ 236 "../../../os/kernel/src/chcond.c" 1
 569 000a 83F31188 		msr     BASEPRI, r3
 570              	@ 0 "" 2
 571              		.thumb
 572              	.LBE8:
 573 000e FFF7FEFF 		bl	dbg_check_lock
 574              		.loc 2 237 0
 575 0012 0198     		ldr	r0, [sp, #4]
 576 0014 0099     		ldr	r1, [sp]
 577 0016 FFF7FEFF 		bl	chCondWaitTimeoutS
 578 001a 0390     		str	r0, [sp, #12]
 579              		.loc 2 238 0
 580 001c FFF7FEFF 		bl	dbg_check_unlock
 581              	.LBB9:
 582 0020 0023     		movs	r3, #0
 583              	@ 238 "../../../os/kernel/src/chcond.c" 1
 584 0022 83F31188 		msr     BASEPRI, r3
 585              	@ 0 "" 2
 586              		.thumb
 587              	.LBE9:
 588              		.loc 2 239 0
 589 0026 039B     		ldr	r3, [sp, #12]
 590              		.loc 2 240 0
 591 0028 1846     		mov	r0, r3
 592 002a 05B0     		add	sp, sp, #20
 593              		@ sp needed
 594 002c 5DF804FB 		ldr	pc, [sp], #4
 595              		.cfi_endproc
ARM GAS  /tmp/cckVf1Go.s 			page 12


 596              	.LFE14:
 597              		.size	chCondWaitTimeout, .-chCondWaitTimeout
 598              		.section	.rodata
 599 0072 0000     		.align	2
 600              	.LC6:
 601 0074 22636843 		.ascii	"\"chCondWaitTimeoutS\"()\000"
 601      6F6E6457 
 601      61697454 
 601      696D656F 
 601      75745322 
 602 008b 00       		.align	2
 603              	.LC7:
 604 008c 6368436F 		.ascii	"chCondWaitTimeoutS(), #1\000"
 604      6E645761 
 604      69745469 
 604      6D656F75 
 604      74532829 
 605 00a5 000000   		.section	.text.chCondWaitTimeoutS,"ax",%progbits
 606              		.align	2
 607              		.p2align 4,,15
 608              		.global	chCondWaitTimeoutS
 609              		.thumb
 610              		.thumb_func
 611              		.type	chCondWaitTimeoutS, %function
 612              	chCondWaitTimeoutS:
 613              	.LFB15:
 614              		.loc 2 270 0
 615              		.cfi_startproc
 616              		@ args = 0, pretend = 0, frame = 16
 617              		@ frame_needed = 0, uses_anonymous_args = 0
 618 0000 00B5     		push	{lr}
 619              		.cfi_def_cfa_offset 4
 620              		.cfi_offset 14, -4
 621 0002 85B0     		sub	sp, sp, #20
 622              		.cfi_def_cfa_offset 24
 623 0004 0190     		str	r0, [sp, #4]
 624 0006 0091     		str	r1, [sp]
 625              		.loc 2 274 0
 626 0008 FFF7FEFF 		bl	chDbgCheckClassS
 627              		.loc 2 275 0
 628 000c 019B     		ldr	r3, [sp, #4]
 629 000e 002B     		cmp	r3, #0
 630 0010 02D0     		beq	.L28
 631              		.loc 2 275 0 is_stmt 0 discriminator 2
 632 0012 009B     		ldr	r3, [sp]
 633 0014 002B     		cmp	r3, #0
 634 0016 05D1     		bne	.L29
 635              	.L28:
 636              		.loc 2 275 0 discriminator 1
 637 0018 40F20000 		movw	r0, #:lower16:.LC6
 638 001c C0F20000 		movt	r0, #:upper16:.LC6
 639 0020 FFF7FEFF 		bl	chDbgPanic
 640              	.L29:
 641              		.loc 2 276 0 is_stmt 1
 642 0024 40F20003 		movw	r3, #:lower16:rlist
 643 0028 C0F20003 		movt	r3, #:upper16:rlist
 644 002c 9B69     		ldr	r3, [r3, #24]
ARM GAS  /tmp/cckVf1Go.s 			page 13


 645 002e 1B6C     		ldr	r3, [r3, #64]
 646 0030 002B     		cmp	r3, #0
 647 0032 05D1     		bne	.L30
 648              		.loc 2 276 0 is_stmt 0 discriminator 1
 649 0034 40F20000 		movw	r0, #:lower16:.LC7
 650 0038 C0F20000 		movt	r0, #:upper16:.LC7
 651 003c FFF7FEFF 		bl	chDbgPanic
 652              	.L30:
 653              		.loc 2 280 0 is_stmt 1
 654 0040 FFF7FEFF 		bl	chMtxUnlockS
 655 0044 0390     		str	r0, [sp, #12]
 656              		.loc 2 281 0
 657 0046 40F20003 		movw	r3, #:lower16:rlist
 658 004a C0F20003 		movt	r3, #:upper16:rlist
 659 004e 9B69     		ldr	r3, [r3, #24]
 660 0050 019A     		ldr	r2, [sp, #4]
 661 0052 9A62     		str	r2, [r3, #40]
 662              		.loc 2 282 0
 663 0054 40F20003 		movw	r3, #:lower16:rlist
 664 0058 C0F20003 		movt	r3, #:upper16:rlist
 665 005c 9A69     		ldr	r2, [r3, #24]
 666 005e 019B     		ldr	r3, [sp, #4]
 667 0060 1046     		mov	r0, r2
 668 0062 1946     		mov	r1, r3
 669 0064 FFF7FEFF 		bl	prio_insert
 670              		.loc 2 283 0
 671 0068 0520     		movs	r0, #5
 672 006a 0099     		ldr	r1, [sp]
 673 006c FFF7FEFF 		bl	chSchGoSleepTimeoutS
 674 0070 0290     		str	r0, [sp, #8]
 675              		.loc 2 284 0
 676 0072 029B     		ldr	r3, [sp, #8]
 677 0074 B3F1FF3F 		cmp	r3, #-1
 678 0078 02D0     		beq	.L31
 679              		.loc 2 285 0
 680 007a 0398     		ldr	r0, [sp, #12]
 681 007c FFF7FEFF 		bl	chMtxLockS
 682              	.L31:
 683              		.loc 2 286 0
 684 0080 029B     		ldr	r3, [sp, #8]
 685              		.loc 2 287 0
 686 0082 1846     		mov	r0, r3
 687 0084 05B0     		add	sp, sp, #20
 688              		@ sp needed
 689 0086 5DF804FB 		ldr	pc, [sp], #4
 690              		.cfi_endproc
 691              	.LFE15:
 692              		.size	chCondWaitTimeoutS, .-chCondWaitTimeoutS
 693 008a 00BFAFF3 		.text
 693      0080
 694              	.Letext0:
 695              		.file 3 "/usr/arm-none-eabi/include/machine/_default_types.h"
 696              		.file 4 "/usr/arm-none-eabi/include/stdint.h"
 697              		.file 5 "../../../os/ports/GCC/ARMCMx/chtypes.h"
 698              		.file 6 "../../../os/kernel/include/chlists.h"
 699              		.file 7 "../../../os/kernel/include/chthreads.h"
 700              		.file 8 "../../../os/ports/GCC/ARMCMx/chcore_v7m.h"
ARM GAS  /tmp/cckVf1Go.s 			page 14


 701              		.file 9 "../../../os/kernel/include/chschd.h"
 702              		.file 10 "../../../os/kernel/include/chmtx.h"
 703              		.file 11 "../../../os/kernel/include/chcond.h"
 704              		.section	.debug_info,"",%progbits
 705              	.Ldebug_info0:
 706 0000 79070000 		.4byte	0x779
 707 0004 0400     		.2byte	0x4
 708 0006 00000000 		.4byte	.Ldebug_abbrev0
 709 000a 04       		.byte	0x4
 710 000b 01       		.uleb128 0x1
 711 000c AF030000 		.4byte	.LASF82
 712 0010 01       		.byte	0x1
 713 0011 D1010000 		.4byte	.LASF83
 714 0015 52030000 		.4byte	.LASF84
 715 0019 00000000 		.4byte	.Ldebug_ranges0+0
 716 001d 00000000 		.4byte	0
 717 0021 00000000 		.4byte	.Ldebug_line0
 718 0025 02       		.uleb128 0x2
 719 0026 04       		.byte	0x4
 720 0027 05       		.byte	0x5
 721 0028 696E7400 		.ascii	"int\000"
 722 002c 03       		.uleb128 0x3
 723 002d 04       		.byte	0x4
 724 002e 07       		.byte	0x7
 725 002f E5000000 		.4byte	.LASF0
 726 0033 03       		.uleb128 0x3
 727 0034 01       		.byte	0x1
 728 0035 06       		.byte	0x6
 729 0036 71000000 		.4byte	.LASF1
 730 003a 04       		.uleb128 0x4
 731 003b 21000000 		.4byte	.LASF5
 732 003f 03       		.byte	0x3
 733 0040 1C       		.byte	0x1c
 734 0041 45000000 		.4byte	0x45
 735 0045 03       		.uleb128 0x3
 736 0046 01       		.byte	0x1
 737 0047 08       		.byte	0x8
 738 0048 24020000 		.4byte	.LASF2
 739 004c 03       		.uleb128 0x3
 740 004d 02       		.byte	0x2
 741 004e 05       		.byte	0x5
 742 004f 3C020000 		.4byte	.LASF3
 743 0053 03       		.uleb128 0x3
 744 0054 02       		.byte	0x2
 745 0055 07       		.byte	0x7
 746 0056 0C010000 		.4byte	.LASF4
 747 005a 04       		.uleb128 0x4
 748 005b D9020000 		.4byte	.LASF6
 749 005f 03       		.byte	0x3
 750 0060 37       		.byte	0x37
 751 0061 65000000 		.4byte	0x65
 752 0065 03       		.uleb128 0x3
 753 0066 04       		.byte	0x4
 754 0067 05       		.byte	0x5
 755 0068 9F000000 		.4byte	.LASF7
 756 006c 04       		.uleb128 0x4
 757 006d B9000000 		.4byte	.LASF8
ARM GAS  /tmp/cckVf1Go.s 			page 15


 758 0071 03       		.byte	0x3
 759 0072 38       		.byte	0x38
 760 0073 77000000 		.4byte	0x77
 761 0077 03       		.uleb128 0x3
 762 0078 04       		.byte	0x4
 763 0079 07       		.byte	0x7
 764 007a F2000000 		.4byte	.LASF9
 765 007e 03       		.uleb128 0x3
 766 007f 08       		.byte	0x8
 767 0080 05       		.byte	0x5
 768 0081 63000000 		.4byte	.LASF10
 769 0085 04       		.uleb128 0x4
 770 0086 C6010000 		.4byte	.LASF11
 771 008a 03       		.byte	0x3
 772 008b 4E       		.byte	0x4e
 773 008c 90000000 		.4byte	0x90
 774 0090 03       		.uleb128 0x3
 775 0091 08       		.byte	0x8
 776 0092 07       		.byte	0x7
 777 0093 2B000000 		.4byte	.LASF12
 778 0097 04       		.uleb128 0x4
 779 0098 2A030000 		.4byte	.LASF13
 780 009c 04       		.byte	0x4
 781 009d 2A       		.byte	0x2a
 782 009e 3A000000 		.4byte	0x3a
 783 00a2 04       		.uleb128 0x4
 784 00a3 1C020000 		.4byte	.LASF14
 785 00a7 04       		.byte	0x4
 786 00a8 41       		.byte	0x41
 787 00a9 5A000000 		.4byte	0x5a
 788 00ad 04       		.uleb128 0x4
 789 00ae 8F020000 		.4byte	.LASF15
 790 00b2 04       		.byte	0x4
 791 00b3 42       		.byte	0x42
 792 00b4 6C000000 		.4byte	0x6c
 793 00b8 04       		.uleb128 0x4
 794 00b9 18000000 		.4byte	.LASF16
 795 00bd 04       		.byte	0x4
 796 00be 4E       		.byte	0x4e
 797 00bf 85000000 		.4byte	0x85
 798 00c3 03       		.uleb128 0x3
 799 00c4 01       		.byte	0x1
 800 00c5 02       		.byte	0x2
 801 00c6 16020000 		.4byte	.LASF17
 802 00ca 04       		.uleb128 0x4
 803 00cb 2D010000 		.4byte	.LASF18
 804 00cf 05       		.byte	0x5
 805 00d0 2C       		.byte	0x2c
 806 00d1 97000000 		.4byte	0x97
 807 00d5 04       		.uleb128 0x4
 808 00d6 A8000000 		.4byte	.LASF19
 809 00da 05       		.byte	0x5
 810 00db 2D       		.byte	0x2d
 811 00dc 97000000 		.4byte	0x97
 812 00e0 04       		.uleb128 0x4
 813 00e1 F1010000 		.4byte	.LASF20
 814 00e5 05       		.byte	0x5
ARM GAS  /tmp/cckVf1Go.s 			page 16


 815 00e6 2E       		.byte	0x2e
 816 00e7 97000000 		.4byte	0x97
 817 00eb 04       		.uleb128 0x4
 818 00ec 8D000000 		.4byte	.LASF21
 819 00f0 05       		.byte	0x5
 820 00f1 2F       		.byte	0x2f
 821 00f2 97000000 		.4byte	0x97
 822 00f6 04       		.uleb128 0x4
 823 00f7 00020000 		.4byte	.LASF22
 824 00fb 05       		.byte	0x5
 825 00fc 30       		.byte	0x30
 826 00fd AD000000 		.4byte	0xad
 827 0101 04       		.uleb128 0x4
 828 0102 1F010000 		.4byte	.LASF23
 829 0106 05       		.byte	0x5
 830 0107 31       		.byte	0x31
 831 0108 A2000000 		.4byte	0xa2
 832 010c 04       		.uleb128 0x4
 833 010d 41010000 		.4byte	.LASF24
 834 0111 05       		.byte	0x5
 835 0112 33       		.byte	0x33
 836 0113 AD000000 		.4byte	0xad
 837 0117 04       		.uleb128 0x4
 838 0118 C4020000 		.4byte	.LASF25
 839 011c 05       		.byte	0x5
 840 011d 35       		.byte	0x35
 841 011e AD000000 		.4byte	0xad
 842 0122 04       		.uleb128 0x4
 843 0123 75020000 		.4byte	.LASF26
 844 0127 06       		.byte	0x6
 845 0128 2A       		.byte	0x2a
 846 0129 2D010000 		.4byte	0x12d
 847 012d 05       		.uleb128 0x5
 848 012e 75020000 		.4byte	.LASF26
 849 0132 4C       		.byte	0x4c
 850 0133 07       		.byte	0x7
 851 0134 5E       		.byte	0x5e
 852 0135 36020000 		.4byte	0x236
 853 0139 06       		.uleb128 0x6
 854 013a 66020000 		.4byte	.LASF27
 855 013e 07       		.byte	0x7
 856 013f 5F       		.byte	0x5f
 857 0140 57020000 		.4byte	0x257
 858 0144 00       		.byte	0
 859 0145 06       		.uleb128 0x6
 860 0146 F9010000 		.4byte	.LASF28
 861 014a 07       		.byte	0x7
 862 014b 61       		.byte	0x61
 863 014c 57020000 		.4byte	0x257
 864 0150 04       		.byte	0x4
 865 0151 06       		.uleb128 0x6
 866 0152 5C000000 		.4byte	.LASF29
 867 0156 07       		.byte	0x7
 868 0157 63       		.byte	0x63
 869 0158 F6000000 		.4byte	0xf6
 870 015c 08       		.byte	0x8
 871 015d 06       		.uleb128 0x6
ARM GAS  /tmp/cckVf1Go.s 			page 17


 872 015e A9030000 		.4byte	.LASF30
 873 0162 07       		.byte	0x7
 874 0163 64       		.byte	0x64
 875 0164 1C030000 		.4byte	0x31c
 876 0168 0C       		.byte	0xc
 877 0169 06       		.uleb128 0x6
 878 016a B1000000 		.4byte	.LASF31
 879 016e 07       		.byte	0x7
 880 016f 66       		.byte	0x66
 881 0170 57020000 		.4byte	0x257
 882 0174 10       		.byte	0x10
 883 0175 06       		.uleb128 0x6
 884 0176 84010000 		.4byte	.LASF32
 885 017a 07       		.byte	0x7
 886 017b 67       		.byte	0x67
 887 017c 57020000 		.4byte	0x257
 888 0180 14       		.byte	0x14
 889 0181 06       		.uleb128 0x6
 890 0182 39030000 		.4byte	.LASF33
 891 0186 07       		.byte	0x7
 892 0187 6E       		.byte	0x6e
 893 0188 40040000 		.4byte	0x440
 894 018c 18       		.byte	0x18
 895 018d 06       		.uleb128 0x6
 896 018e DA000000 		.4byte	.LASF34
 897 0192 07       		.byte	0x7
 898 0193 74       		.byte	0x74
 899 0194 52040000 		.4byte	0x452
 900 0198 1C       		.byte	0x1c
 901 0199 06       		.uleb128 0x6
 902 019a 46020000 		.4byte	.LASF35
 903 019e 07       		.byte	0x7
 904 019f 79       		.byte	0x79
 905 01a0 D5000000 		.4byte	0xd5
 906 01a4 20       		.byte	0x20
 907 01a5 06       		.uleb128 0x6
 908 01a6 6D020000 		.4byte	.LASF36
 909 01aa 07       		.byte	0x7
 910 01ab 7D       		.byte	0x7d
 911 01ac CA000000 		.4byte	0xca
 912 01b0 21       		.byte	0x21
 913 01b1 06       		.uleb128 0x6
 914 01b2 13030000 		.4byte	.LASF37
 915 01b6 07       		.byte	0x7
 916 01b7 82       		.byte	0x82
 917 01b8 E0000000 		.4byte	0xe0
 918 01bc 22       		.byte	0x22
 919 01bd 06       		.uleb128 0x6
 920 01be 4E020000 		.4byte	.LASF38
 921 01c2 07       		.byte	0x7
 922 01c3 88       		.byte	0x88
 923 01c4 EB000000 		.4byte	0xeb
 924 01c8 23       		.byte	0x23
 925 01c9 06       		.uleb128 0x6
 926 01ca FA020000 		.4byte	.LASF39
 927 01ce 07       		.byte	0x7
 928 01cf 8F       		.byte	0x8f
ARM GAS  /tmp/cckVf1Go.s 			page 18


 929 01d0 44030000 		.4byte	0x344
 930 01d4 24       		.byte	0x24
 931 01d5 07       		.uleb128 0x7
 932 01d6 705F7500 		.ascii	"p_u\000"
 933 01da 07       		.byte	0x7
 934 01db B4       		.byte	0xb4
 935 01dc 0B040000 		.4byte	0x40b
 936 01e0 28       		.byte	0x28
 937 01e1 06       		.uleb128 0x6
 938 01e2 5E010000 		.4byte	.LASF40
 939 01e6 07       		.byte	0x7
 940 01e7 B9       		.byte	0xb9
 941 01e8 7D020000 		.4byte	0x27d
 942 01ec 2C       		.byte	0x2c
 943 01ed 06       		.uleb128 0x6
 944 01ee 08030000 		.4byte	.LASF41
 945 01f2 07       		.byte	0x7
 946 01f3 BF       		.byte	0xbf
 947 01f4 5D020000 		.4byte	0x25d
 948 01f8 30       		.byte	0x30
 949 01f9 06       		.uleb128 0x6
 950 01fa 00000000 		.4byte	.LASF42
 951 01fe 07       		.byte	0x7
 952 01ff C3       		.byte	0xc3
 953 0200 01010000 		.4byte	0x101
 954 0204 38       		.byte	0x38
 955 0205 06       		.uleb128 0x6
 956 0206 84020000 		.4byte	.LASF43
 957 020a 07       		.byte	0x7
 958 020b C9       		.byte	0xc9
 959 020c 0C010000 		.4byte	0x10c
 960 0210 3C       		.byte	0x3c
 961 0211 06       		.uleb128 0x6
 962 0212 32020000 		.4byte	.LASF44
 963 0216 07       		.byte	0x7
 964 0217 D0       		.byte	0xd0
 965 0218 58040000 		.4byte	0x458
 966 021c 40       		.byte	0x40
 967 021d 06       		.uleb128 0x6
 968 021e CE020000 		.4byte	.LASF45
 969 0222 07       		.byte	0x7
 970 0223 D4       		.byte	0xd4
 971 0224 F6000000 		.4byte	0xf6
 972 0228 44       		.byte	0x44
 973 0229 06       		.uleb128 0x6
 974 022a 7D000000 		.4byte	.LASF46
 975 022e 07       		.byte	0x7
 976 022f DA       		.byte	0xda
 977 0230 93020000 		.4byte	0x293
 978 0234 48       		.byte	0x48
 979 0235 00       		.byte	0
 980 0236 08       		.uleb128 0x8
 981 0237 08       		.byte	0x8
 982 0238 06       		.byte	0x6
 983 0239 61       		.byte	0x61
 984 023a 57020000 		.4byte	0x257
 985 023e 06       		.uleb128 0x6
ARM GAS  /tmp/cckVf1Go.s 			page 19


 986 023f 66020000 		.4byte	.LASF27
 987 0243 06       		.byte	0x6
 988 0244 62       		.byte	0x62
 989 0245 57020000 		.4byte	0x257
 990 0249 00       		.byte	0
 991 024a 06       		.uleb128 0x6
 992 024b F9010000 		.4byte	.LASF28
 993 024f 06       		.byte	0x6
 994 0250 64       		.byte	0x64
 995 0251 57020000 		.4byte	0x257
 996 0255 04       		.byte	0x4
 997 0256 00       		.byte	0
 998 0257 09       		.uleb128 0x9
 999 0258 04       		.byte	0x4
 1000 0259 22010000 		.4byte	0x122
 1001 025d 04       		.uleb128 0x4
 1002 025e 92010000 		.4byte	.LASF47
 1003 0262 06       		.byte	0x6
 1004 0263 66       		.byte	0x66
 1005 0264 36020000 		.4byte	0x236
 1006 0268 08       		.uleb128 0x8
 1007 0269 04       		.byte	0x4
 1008 026a 06       		.byte	0x6
 1009 026b 6B       		.byte	0x6b
 1010 026c 7D020000 		.4byte	0x27d
 1011 0270 06       		.uleb128 0x6
 1012 0271 66020000 		.4byte	.LASF27
 1013 0275 06       		.byte	0x6
 1014 0276 6D       		.byte	0x6d
 1015 0277 57020000 		.4byte	0x257
 1016 027b 00       		.byte	0
 1017 027c 00       		.byte	0
 1018 027d 04       		.uleb128 0x4
 1019 027e 35010000 		.4byte	.LASF48
 1020 0282 06       		.byte	0x6
 1021 0283 70       		.byte	0x70
 1022 0284 68020000 		.4byte	0x268
 1023 0288 04       		.uleb128 0x4
 1024 0289 C4000000 		.4byte	.LASF49
 1025 028d 08       		.byte	0x8
 1026 028e E5       		.byte	0xe5
 1027 028f 93020000 		.4byte	0x293
 1028 0293 0A       		.uleb128 0xa
 1029 0294 04       		.byte	0x4
 1030 0295 04       		.uleb128 0x4
 1031 0296 53010000 		.4byte	.LASF50
 1032 029a 08       		.byte	0x8
 1033 029b EB       		.byte	0xeb
 1034 029c B8000000 		.4byte	0xb8
 1035 02a0 0B       		.uleb128 0xb
 1036 02a1 01030000 		.4byte	.LASF51
 1037 02a5 24       		.byte	0x24
 1038 02a6 08       		.byte	0x8
 1039 02a7 0C01     		.2byte	0x10c
 1040 02a9 1C030000 		.4byte	0x31c
 1041 02ad 0C       		.uleb128 0xc
 1042 02ae 723400   		.ascii	"r4\000"
ARM GAS  /tmp/cckVf1Go.s 			page 20


 1043 02b1 08       		.byte	0x8
 1044 02b2 1F01     		.2byte	0x11f
 1045 02b4 88020000 		.4byte	0x288
 1046 02b8 00       		.byte	0
 1047 02b9 0C       		.uleb128 0xc
 1048 02ba 723500   		.ascii	"r5\000"
 1049 02bd 08       		.byte	0x8
 1050 02be 2001     		.2byte	0x120
 1051 02c0 88020000 		.4byte	0x288
 1052 02c4 04       		.byte	0x4
 1053 02c5 0C       		.uleb128 0xc
 1054 02c6 723600   		.ascii	"r6\000"
 1055 02c9 08       		.byte	0x8
 1056 02ca 2101     		.2byte	0x121
 1057 02cc 88020000 		.4byte	0x288
 1058 02d0 08       		.byte	0x8
 1059 02d1 0C       		.uleb128 0xc
 1060 02d2 723700   		.ascii	"r7\000"
 1061 02d5 08       		.byte	0x8
 1062 02d6 2201     		.2byte	0x122
 1063 02d8 88020000 		.4byte	0x288
 1064 02dc 0C       		.byte	0xc
 1065 02dd 0C       		.uleb128 0xc
 1066 02de 723800   		.ascii	"r8\000"
 1067 02e1 08       		.byte	0x8
 1068 02e2 2301     		.2byte	0x123
 1069 02e4 88020000 		.4byte	0x288
 1070 02e8 10       		.byte	0x10
 1071 02e9 0C       		.uleb128 0xc
 1072 02ea 723900   		.ascii	"r9\000"
 1073 02ed 08       		.byte	0x8
 1074 02ee 2401     		.2byte	0x124
 1075 02f0 88020000 		.4byte	0x288
 1076 02f4 14       		.byte	0x14
 1077 02f5 0C       		.uleb128 0xc
 1078 02f6 72313000 		.ascii	"r10\000"
 1079 02fa 08       		.byte	0x8
 1080 02fb 2501     		.2byte	0x125
 1081 02fd 88020000 		.4byte	0x288
 1082 0301 18       		.byte	0x18
 1083 0302 0C       		.uleb128 0xc
 1084 0303 72313100 		.ascii	"r11\000"
 1085 0307 08       		.byte	0x8
 1086 0308 2601     		.2byte	0x126
 1087 030a 88020000 		.4byte	0x288
 1088 030e 1C       		.byte	0x1c
 1089 030f 0C       		.uleb128 0xc
 1090 0310 6C7200   		.ascii	"lr\000"
 1091 0313 08       		.byte	0x8
 1092 0314 2701     		.2byte	0x127
 1093 0316 88020000 		.4byte	0x288
 1094 031a 20       		.byte	0x20
 1095 031b 00       		.byte	0
 1096 031c 0B       		.uleb128 0xb
 1097 031d 04010000 		.4byte	.LASF52
 1098 0321 04       		.byte	0x4
 1099 0322 08       		.byte	0x8
ARM GAS  /tmp/cckVf1Go.s 			page 21


 1100 0323 3101     		.2byte	0x131
 1101 0325 37030000 		.4byte	0x337
 1102 0329 0C       		.uleb128 0xc
 1103 032a 72313300 		.ascii	"r13\000"
 1104 032e 08       		.byte	0x8
 1105 032f 3201     		.2byte	0x132
 1106 0331 37030000 		.4byte	0x337
 1107 0335 00       		.byte	0
 1108 0336 00       		.byte	0
 1109 0337 09       		.uleb128 0x9
 1110 0338 04       		.byte	0x4
 1111 0339 A0020000 		.4byte	0x2a0
 1112 033d 03       		.uleb128 0x3
 1113 033e 04       		.byte	0x4
 1114 033f 07       		.byte	0x7
 1115 0340 68010000 		.4byte	.LASF53
 1116 0344 0D       		.uleb128 0xd
 1117 0345 17010000 		.4byte	0x117
 1118 0349 08       		.uleb128 0x8
 1119 034a 1C       		.byte	0x1c
 1120 034b 09       		.byte	0x9
 1121 034c 5E       		.byte	0x5e
 1122 034d 9A030000 		.4byte	0x39a
 1123 0351 06       		.uleb128 0x6
 1124 0352 98020000 		.4byte	.LASF54
 1125 0356 09       		.byte	0x9
 1126 0357 5F       		.byte	0x5f
 1127 0358 5D020000 		.4byte	0x25d
 1128 035c 00       		.byte	0
 1129 035d 06       		.uleb128 0x6
 1130 035e 58020000 		.4byte	.LASF55
 1131 0362 09       		.byte	0x9
 1132 0363 60       		.byte	0x60
 1133 0364 F6000000 		.4byte	0xf6
 1134 0368 08       		.byte	0x8
 1135 0369 06       		.uleb128 0x6
 1136 036a 8C010000 		.4byte	.LASF56
 1137 036e 09       		.byte	0x9
 1138 036f 62       		.byte	0x62
 1139 0370 1C030000 		.4byte	0x31c
 1140 0374 0C       		.byte	0xc
 1141 0375 06       		.uleb128 0x6
 1142 0376 25010000 		.4byte	.LASF57
 1143 037a 09       		.byte	0x9
 1144 037b 65       		.byte	0x65
 1145 037c 57020000 		.4byte	0x257
 1146 0380 10       		.byte	0x10
 1147 0381 06       		.uleb128 0x6
 1148 0382 AE010000 		.4byte	.LASF58
 1149 0386 09       		.byte	0x9
 1150 0387 66       		.byte	0x66
 1151 0388 57020000 		.4byte	0x257
 1152 038c 14       		.byte	0x14
 1153 038d 06       		.uleb128 0x6
 1154 038e A4010000 		.4byte	.LASF59
 1155 0392 09       		.byte	0x9
 1156 0393 69       		.byte	0x69
ARM GAS  /tmp/cckVf1Go.s 			page 22


 1157 0394 57020000 		.4byte	0x257
 1158 0398 18       		.byte	0x18
 1159 0399 00       		.byte	0
 1160 039a 04       		.uleb128 0x4
 1161 039b 1A030000 		.4byte	.LASF60
 1162 039f 09       		.byte	0x9
 1163 03a0 6B       		.byte	0x6b
 1164 03a1 49030000 		.4byte	0x349
 1165 03a5 05       		.uleb128 0x5
 1166 03a6 4D010000 		.4byte	.LASF61
 1167 03aa 10       		.byte	0x10
 1168 03ab 0A       		.byte	0xa
 1169 03ac 2C       		.byte	0x2c
 1170 03ad D6030000 		.4byte	0x3d6
 1171 03b1 06       		.uleb128 0x6
 1172 03b2 85000000 		.4byte	.LASF62
 1173 03b6 0A       		.byte	0xa
 1174 03b7 2D       		.byte	0x2d
 1175 03b8 5D020000 		.4byte	0x25d
 1176 03bc 00       		.byte	0
 1177 03bd 06       		.uleb128 0x6
 1178 03be A1030000 		.4byte	.LASF63
 1179 03c2 0A       		.byte	0xa
 1180 03c3 2F       		.byte	0x2f
 1181 03c4 57020000 		.4byte	0x257
 1182 03c8 08       		.byte	0x8
 1183 03c9 06       		.uleb128 0x6
 1184 03ca BD020000 		.4byte	.LASF64
 1185 03ce 0A       		.byte	0xa
 1186 03cf 31       		.byte	0x31
 1187 03d0 D6030000 		.4byte	0x3d6
 1188 03d4 0C       		.byte	0xc
 1189 03d5 00       		.byte	0
 1190 03d6 09       		.uleb128 0x9
 1191 03d7 04       		.byte	0x4
 1192 03d8 A5030000 		.4byte	0x3a5
 1193 03dc 04       		.uleb128 0x4
 1194 03dd 4D010000 		.4byte	.LASF61
 1195 03e1 0A       		.byte	0xa
 1196 03e2 33       		.byte	0x33
 1197 03e3 A5030000 		.4byte	0x3a5
 1198 03e7 05       		.uleb128 0x5
 1199 03e8 97000000 		.4byte	.LASF65
 1200 03ec 08       		.byte	0x8
 1201 03ed 0B       		.byte	0xb
 1202 03ee 36       		.byte	0x36
 1203 03ef 00040000 		.4byte	0x400
 1204 03f3 06       		.uleb128 0x6
 1205 03f4 7C020000 		.4byte	.LASF66
 1206 03f8 0B       		.byte	0xb
 1207 03f9 37       		.byte	0x37
 1208 03fa 5D020000 		.4byte	0x25d
 1209 03fe 00       		.byte	0
 1210 03ff 00       		.byte	0
 1211 0400 04       		.uleb128 0x4
 1212 0401 97000000 		.4byte	.LASF65
 1213 0405 0B       		.byte	0xb
ARM GAS  /tmp/cckVf1Go.s 			page 23


 1214 0406 38       		.byte	0x38
 1215 0407 E7030000 		.4byte	0x3e7
 1216 040b 0E       		.uleb128 0xe
 1217 040c 04       		.byte	0x4
 1218 040d 07       		.byte	0x7
 1219 040e 96       		.byte	0x96
 1220 040f 40040000 		.4byte	0x440
 1221 0413 0F       		.uleb128 0xf
 1222 0414 11000000 		.4byte	.LASF67
 1223 0418 07       		.byte	0x7
 1224 0419 9D       		.byte	0x9d
 1225 041a 01010000 		.4byte	0x101
 1226 041e 0F       		.uleb128 0xf
 1227 041f 42000000 		.4byte	.LASF68
 1228 0423 07       		.byte	0x7
 1229 0424 A4       		.byte	0xa4
 1230 0425 01010000 		.4byte	0x101
 1231 0429 0F       		.uleb128 0xf
 1232 042a 32030000 		.4byte	.LASF69
 1233 042e 07       		.byte	0x7
 1234 042f AB       		.byte	0xab
 1235 0430 93020000 		.4byte	0x293
 1236 0434 0F       		.uleb128 0xf
 1237 0435 5F020000 		.4byte	.LASF70
 1238 0439 07       		.byte	0x7
 1239 043a B2       		.byte	0xb2
 1240 043b 0C010000 		.4byte	0x10c
 1241 043f 00       		.byte	0
 1242 0440 09       		.uleb128 0x9
 1243 0441 04       		.byte	0x4
 1244 0442 46040000 		.4byte	0x446
 1245 0446 10       		.uleb128 0x10
 1246 0447 4B040000 		.4byte	0x44b
 1247 044b 03       		.uleb128 0x3
 1248 044c 01       		.byte	0x1
 1249 044d 08       		.byte	0x8
 1250 044e A0020000 		.4byte	.LASF71
 1251 0452 09       		.uleb128 0x9
 1252 0453 04       		.byte	0x4
 1253 0454 95020000 		.4byte	0x295
 1254 0458 09       		.uleb128 0x9
 1255 0459 04       		.byte	0x4
 1256 045a DC030000 		.4byte	0x3dc
 1257 045e 11       		.uleb128 0x11
 1258 045f E3020000 		.4byte	.LASF85
 1259 0463 01       		.byte	0x1
 1260 0464 29       		.byte	0x29
 1261 0465 00000000 		.4byte	.LFB0
 1262 0469 46000000 		.4byte	.LFE0-.LFB0
 1263 046d 01       		.uleb128 0x1
 1264 046e 9C       		.byte	0x9c
 1265 046f 9C040000 		.4byte	0x49c
 1266 0473 12       		.uleb128 0x12
 1267 0474 747000   		.ascii	"tp\000"
 1268 0477 01       		.byte	0x1
 1269 0478 29       		.byte	0x29
 1270 0479 57020000 		.4byte	0x257
ARM GAS  /tmp/cckVf1Go.s 			page 24


 1271 047d 02       		.uleb128 0x2
 1272 047e 91       		.byte	0x91
 1273 047f 74       		.sleb128 -12
 1274 0480 12       		.uleb128 0x12
 1275 0481 74717000 		.ascii	"tqp\000"
 1276 0485 01       		.byte	0x1
 1277 0486 29       		.byte	0x29
 1278 0487 9C040000 		.4byte	0x49c
 1279 048b 02       		.uleb128 0x2
 1280 048c 91       		.byte	0x91
 1281 048d 70       		.sleb128 -16
 1282 048e 13       		.uleb128 0x13
 1283 048f 637000   		.ascii	"cp\000"
 1284 0492 01       		.byte	0x1
 1285 0493 2B       		.byte	0x2b
 1286 0494 57020000 		.4byte	0x257
 1287 0498 02       		.uleb128 0x2
 1288 0499 91       		.byte	0x91
 1289 049a 7C       		.sleb128 -4
 1290 049b 00       		.byte	0
 1291 049c 09       		.uleb128 0x9
 1292 049d 04       		.byte	0x4
 1293 049e 5D020000 		.4byte	0x25d
 1294 04a2 14       		.uleb128 0x14
 1295 04a3 A5020000 		.4byte	.LASF86
 1296 04a7 01       		.byte	0x1
 1297 04a8 3B       		.byte	0x3b
 1298 04a9 57020000 		.4byte	0x257
 1299 04ad 00000000 		.4byte	.LFB2
 1300 04b1 22000000 		.4byte	.LFE2-.LFB2
 1301 04b5 01       		.uleb128 0x1
 1302 04b6 9C       		.byte	0x9c
 1303 04b7 D7040000 		.4byte	0x4d7
 1304 04bb 12       		.uleb128 0x12
 1305 04bc 74717000 		.ascii	"tqp\000"
 1306 04c0 01       		.byte	0x1
 1307 04c1 3B       		.byte	0x3b
 1308 04c2 9C040000 		.4byte	0x49c
 1309 04c6 02       		.uleb128 0x2
 1310 04c7 91       		.byte	0x91
 1311 04c8 74       		.sleb128 -12
 1312 04c9 13       		.uleb128 0x13
 1313 04ca 747000   		.ascii	"tp\000"
 1314 04cd 01       		.byte	0x1
 1315 04ce 3C       		.byte	0x3c
 1316 04cf 57020000 		.4byte	0x257
 1317 04d3 02       		.uleb128 0x2
 1318 04d4 91       		.byte	0x91
 1319 04d5 7C       		.sleb128 -4
 1320 04d6 00       		.byte	0
 1321 04d7 15       		.uleb128 0x15
 1322 04d8 06000000 		.4byte	.LASF72
 1323 04dc 02       		.byte	0x2
 1324 04dd 3B       		.byte	0x3b
 1325 04de 00000000 		.4byte	.LFB7
 1326 04e2 2C000000 		.4byte	.LFE7-.LFB7
 1327 04e6 01       		.uleb128 0x1
ARM GAS  /tmp/cckVf1Go.s 			page 25


 1328 04e7 9C       		.byte	0x9c
 1329 04e8 FA040000 		.4byte	0x4fa
 1330 04ec 12       		.uleb128 0x12
 1331 04ed 637000   		.ascii	"cp\000"
 1332 04f0 02       		.byte	0x2
 1333 04f1 3B       		.byte	0x3b
 1334 04f2 FA040000 		.4byte	0x4fa
 1335 04f6 02       		.uleb128 0x2
 1336 04f7 91       		.byte	0x91
 1337 04f8 74       		.sleb128 -12
 1338 04f9 00       		.byte	0
 1339 04fa 09       		.uleb128 0x9
 1340 04fb 04       		.byte	0x4
 1341 04fc 00040000 		.4byte	0x400
 1342 0500 15       		.uleb128 0x15
 1343 0501 CD000000 		.4byte	.LASF73
 1344 0505 02       		.byte	0x2
 1345 0506 49       		.byte	0x49
 1346 0507 00000000 		.4byte	.LFB8
 1347 050b 4E000000 		.4byte	.LFE8-.LFB8
 1348 050f 01       		.uleb128 0x1
 1349 0510 9C       		.byte	0x9c
 1350 0511 55050000 		.4byte	0x555
 1351 0515 12       		.uleb128 0x12
 1352 0516 637000   		.ascii	"cp\000"
 1353 0519 02       		.byte	0x2
 1354 051a 49       		.byte	0x49
 1355 051b FA040000 		.4byte	0x4fa
 1356 051f 02       		.uleb128 0x2
 1357 0520 91       		.byte	0x91
 1358 0521 74       		.sleb128 -12
 1359 0522 16       		.uleb128 0x16
 1360 0523 18000000 		.4byte	.LBB2
 1361 0527 06000000 		.4byte	.LBE2-.LBB2
 1362 052b 3D050000 		.4byte	0x53d
 1363 052f 13       		.uleb128 0x13
 1364 0530 746D7000 		.ascii	"tmp\000"
 1365 0534 02       		.byte	0x2
 1366 0535 4D       		.byte	0x4d
 1367 0536 AD000000 		.4byte	0xad
 1368 053a 01       		.uleb128 0x1
 1369 053b 53       		.byte	0x53
 1370 053c 00       		.byte	0
 1371 053d 17       		.uleb128 0x17
 1372 053e 42000000 		.4byte	.LBB3
 1373 0542 06000000 		.4byte	.LBE3-.LBB3
 1374 0546 13       		.uleb128 0x13
 1375 0547 746D7000 		.ascii	"tmp\000"
 1376 054b 02       		.byte	0x2
 1377 054c 50       		.byte	0x50
 1378 054d AD000000 		.4byte	0xad
 1379 0551 01       		.uleb128 0x1
 1380 0552 53       		.byte	0x53
 1381 0553 00       		.byte	0
 1382 0554 00       		.byte	0
 1383 0555 15       		.uleb128 0x15
 1384 0556 08020000 		.4byte	.LASF74
ARM GAS  /tmp/cckVf1Go.s 			page 26


 1385 055a 02       		.byte	0x2
 1386 055b 5E       		.byte	0x5e
 1387 055c 00000000 		.4byte	.LFB9
 1388 0560 42000000 		.4byte	.LFE9-.LFB9
 1389 0564 01       		.uleb128 0x1
 1390 0565 9C       		.byte	0x9c
 1391 0566 78050000 		.4byte	0x578
 1392 056a 12       		.uleb128 0x12
 1393 056b 637000   		.ascii	"cp\000"
 1394 056e 02       		.byte	0x2
 1395 056f 5E       		.byte	0x5e
 1396 0570 FA040000 		.4byte	0x4fa
 1397 0574 02       		.uleb128 0x2
 1398 0575 91       		.byte	0x91
 1399 0576 74       		.sleb128 -12
 1400 0577 00       		.byte	0
 1401 0578 15       		.uleb128 0x15
 1402 0579 B6010000 		.4byte	.LASF75
 1403 057d 02       		.byte	0x2
 1404 057e 6E       		.byte	0x6e
 1405 057f 00000000 		.4byte	.LFB10
 1406 0583 2A000000 		.4byte	.LFE10-.LFB10
 1407 0587 01       		.uleb128 0x1
 1408 0588 9C       		.byte	0x9c
 1409 0589 CD050000 		.4byte	0x5cd
 1410 058d 12       		.uleb128 0x12
 1411 058e 637000   		.ascii	"cp\000"
 1412 0591 02       		.byte	0x2
 1413 0592 6E       		.byte	0x6e
 1414 0593 FA040000 		.4byte	0x4fa
 1415 0597 02       		.uleb128 0x2
 1416 0598 91       		.byte	0x91
 1417 0599 74       		.sleb128 -12
 1418 059a 16       		.uleb128 0x16
 1419 059b 06000000 		.4byte	.LBB4
 1420 059f 06000000 		.4byte	.LBE4-.LBB4
 1421 05a3 B5050000 		.4byte	0x5b5
 1422 05a7 13       		.uleb128 0x13
 1423 05a8 746D7000 		.ascii	"tmp\000"
 1424 05ac 02       		.byte	0x2
 1425 05ad 70       		.byte	0x70
 1426 05ae AD000000 		.4byte	0xad
 1427 05b2 01       		.uleb128 0x1
 1428 05b3 53       		.byte	0x53
 1429 05b4 00       		.byte	0
 1430 05b5 17       		.uleb128 0x17
 1431 05b6 1E000000 		.4byte	.LBB5
 1432 05ba 06000000 		.4byte	.LBE5-.LBB5
 1433 05be 13       		.uleb128 0x13
 1434 05bf 746D7000 		.ascii	"tmp\000"
 1435 05c3 02       		.byte	0x2
 1436 05c4 73       		.byte	0x73
 1437 05c5 AD000000 		.4byte	0xad
 1438 05c9 01       		.uleb128 0x1
 1439 05ca 53       		.byte	0x53
 1440 05cb 00       		.byte	0
 1441 05cc 00       		.byte	0
ARM GAS  /tmp/cckVf1Go.s 			page 27


 1442 05cd 15       		.uleb128 0x15
 1443 05ce 4B000000 		.4byte	.LASF76
 1444 05d2 02       		.byte	0x2
 1445 05d3 81       		.byte	0x81
 1446 05d4 00000000 		.4byte	.LFB11
 1447 05d8 48000000 		.4byte	.LFE11-.LFB11
 1448 05dc 01       		.uleb128 0x1
 1449 05dd 9C       		.byte	0x9c
 1450 05de F0050000 		.4byte	0x5f0
 1451 05e2 12       		.uleb128 0x12
 1452 05e3 637000   		.ascii	"cp\000"
 1453 05e6 02       		.byte	0x2
 1454 05e7 81       		.byte	0x81
 1455 05e8 FA040000 		.4byte	0x4fa
 1456 05ec 02       		.uleb128 0x2
 1457 05ed 91       		.byte	0x91
 1458 05ee 74       		.sleb128 -12
 1459 05ef 00       		.byte	0
 1460 05f0 18       		.uleb128 0x18
 1461 05f1 EF020000 		.4byte	.LASF77
 1462 05f5 02       		.byte	0x2
 1463 05f6 9E       		.byte	0x9e
 1464 05f7 01010000 		.4byte	0x101
 1465 05fb 00000000 		.4byte	.LFB12
 1466 05ff 2C000000 		.4byte	.LFE12-.LFB12
 1467 0603 01       		.uleb128 0x1
 1468 0604 9C       		.byte	0x9c
 1469 0605 57060000 		.4byte	0x657
 1470 0609 12       		.uleb128 0x12
 1471 060a 637000   		.ascii	"cp\000"
 1472 060d 02       		.byte	0x2
 1473 060e 9E       		.byte	0x9e
 1474 060f FA040000 		.4byte	0x4fa
 1475 0613 02       		.uleb128 0x2
 1476 0614 91       		.byte	0x91
 1477 0615 6C       		.sleb128 -20
 1478 0616 13       		.uleb128 0x13
 1479 0617 6D736700 		.ascii	"msg\000"
 1480 061b 02       		.byte	0x2
 1481 061c 9F       		.byte	0x9f
 1482 061d 01010000 		.4byte	0x101
 1483 0621 02       		.uleb128 0x2
 1484 0622 91       		.byte	0x91
 1485 0623 74       		.sleb128 -12
 1486 0624 16       		.uleb128 0x16
 1487 0625 06000000 		.4byte	.LBB6
 1488 0629 06000000 		.4byte	.LBE6-.LBB6
 1489 062d 3F060000 		.4byte	0x63f
 1490 0631 13       		.uleb128 0x13
 1491 0632 746D7000 		.ascii	"tmp\000"
 1492 0636 02       		.byte	0x2
 1493 0637 A1       		.byte	0xa1
 1494 0638 AD000000 		.4byte	0xad
 1495 063c 01       		.uleb128 0x1
 1496 063d 53       		.byte	0x53
 1497 063e 00       		.byte	0
 1498 063f 17       		.uleb128 0x17
ARM GAS  /tmp/cckVf1Go.s 			page 28


 1499 0640 1C000000 		.4byte	.LBB7
 1500 0644 06000000 		.4byte	.LBE7-.LBB7
 1501 0648 13       		.uleb128 0x13
 1502 0649 746D7000 		.ascii	"tmp\000"
 1503 064d 02       		.byte	0x2
 1504 064e A3       		.byte	0xa3
 1505 064f AD000000 		.4byte	0xad
 1506 0653 01       		.uleb128 0x1
 1507 0654 53       		.byte	0x53
 1508 0655 00       		.byte	0
 1509 0656 00       		.byte	0
 1510 0657 18       		.uleb128 0x18
 1511 0658 B1020000 		.4byte	.LASF78
 1512 065c 02       		.byte	0x2
 1513 065d B8       		.byte	0xb8
 1514 065e 01010000 		.4byte	0x101
 1515 0662 00000000 		.4byte	.LFB13
 1516 0666 6E000000 		.4byte	.LFE13-.LFB13
 1517 066a 01       		.uleb128 0x1
 1518 066b 9C       		.byte	0x9c
 1519 066c A7060000 		.4byte	0x6a7
 1520 0670 12       		.uleb128 0x12
 1521 0671 637000   		.ascii	"cp\000"
 1522 0674 02       		.byte	0x2
 1523 0675 B8       		.byte	0xb8
 1524 0676 FA040000 		.4byte	0x4fa
 1525 067a 02       		.uleb128 0x2
 1526 067b 91       		.byte	0x91
 1527 067c 64       		.sleb128 -28
 1528 067d 13       		.uleb128 0x13
 1529 067e 63747000 		.ascii	"ctp\000"
 1530 0682 02       		.byte	0x2
 1531 0683 B9       		.byte	0xb9
 1532 0684 57020000 		.4byte	0x257
 1533 0688 02       		.uleb128 0x2
 1534 0689 91       		.byte	0x91
 1535 068a 74       		.sleb128 -12
 1536 068b 13       		.uleb128 0x13
 1537 068c 6D7000   		.ascii	"mp\000"
 1538 068f 02       		.byte	0x2
 1539 0690 BA       		.byte	0xba
 1540 0691 58040000 		.4byte	0x458
 1541 0695 02       		.uleb128 0x2
 1542 0696 91       		.byte	0x91
 1543 0697 70       		.sleb128 -16
 1544 0698 13       		.uleb128 0x13
 1545 0699 6D736700 		.ascii	"msg\000"
 1546 069d 02       		.byte	0x2
 1547 069e BB       		.byte	0xbb
 1548 069f 01010000 		.4byte	0x101
 1549 06a3 02       		.uleb128 0x2
 1550 06a4 91       		.byte	0x91
 1551 06a5 6C       		.sleb128 -20
 1552 06a6 00       		.byte	0
 1553 06a7 18       		.uleb128 0x18
 1554 06a8 40030000 		.4byte	.LASF79
 1555 06ac 02       		.byte	0x2
ARM GAS  /tmp/cckVf1Go.s 			page 29


 1556 06ad E9       		.byte	0xe9
 1557 06ae 01010000 		.4byte	0x101
 1558 06b2 00000000 		.4byte	.LFB14
 1559 06b6 30000000 		.4byte	.LFE14-.LFB14
 1560 06ba 01       		.uleb128 0x1
 1561 06bb 9C       		.byte	0x9c
 1562 06bc 1C070000 		.4byte	0x71c
 1563 06c0 12       		.uleb128 0x12
 1564 06c1 637000   		.ascii	"cp\000"
 1565 06c4 02       		.byte	0x2
 1566 06c5 E9       		.byte	0xe9
 1567 06c6 FA040000 		.4byte	0x4fa
 1568 06ca 02       		.uleb128 0x2
 1569 06cb 91       		.byte	0x91
 1570 06cc 6C       		.sleb128 -20
 1571 06cd 19       		.uleb128 0x19
 1572 06ce 9F010000 		.4byte	.LASF80
 1573 06d2 02       		.byte	0x2
 1574 06d3 E9       		.byte	0xe9
 1575 06d4 17010000 		.4byte	0x117
 1576 06d8 02       		.uleb128 0x2
 1577 06d9 91       		.byte	0x91
 1578 06da 68       		.sleb128 -24
 1579 06db 13       		.uleb128 0x13
 1580 06dc 6D736700 		.ascii	"msg\000"
 1581 06e0 02       		.byte	0x2
 1582 06e1 EA       		.byte	0xea
 1583 06e2 01010000 		.4byte	0x101
 1584 06e6 02       		.uleb128 0x2
 1585 06e7 91       		.byte	0x91
 1586 06e8 74       		.sleb128 -12
 1587 06e9 16       		.uleb128 0x16
 1588 06ea 08000000 		.4byte	.LBB8
 1589 06ee 06000000 		.4byte	.LBE8-.LBB8
 1590 06f2 04070000 		.4byte	0x704
 1591 06f6 13       		.uleb128 0x13
 1592 06f7 746D7000 		.ascii	"tmp\000"
 1593 06fb 02       		.byte	0x2
 1594 06fc EC       		.byte	0xec
 1595 06fd AD000000 		.4byte	0xad
 1596 0701 01       		.uleb128 0x1
 1597 0702 53       		.byte	0x53
 1598 0703 00       		.byte	0
 1599 0704 17       		.uleb128 0x17
 1600 0705 20000000 		.4byte	.LBB9
 1601 0709 06000000 		.4byte	.LBE9-.LBB9
 1602 070d 13       		.uleb128 0x13
 1603 070e 746D7000 		.ascii	"tmp\000"
 1604 0712 02       		.byte	0x2
 1605 0713 EE       		.byte	0xee
 1606 0714 AD000000 		.4byte	0xad
 1607 0718 01       		.uleb128 0x1
 1608 0719 53       		.byte	0x53
 1609 071a 00       		.byte	0
 1610 071b 00       		.byte	0
 1611 071c 1A       		.uleb128 0x1a
 1612 071d 71010000 		.4byte	.LASF81
ARM GAS  /tmp/cckVf1Go.s 			page 30


 1613 0721 02       		.byte	0x2
 1614 0722 0E01     		.2byte	0x10e
 1615 0724 01010000 		.4byte	0x101
 1616 0728 00000000 		.4byte	.LFB15
 1617 072c 8A000000 		.4byte	.LFE15-.LFB15
 1618 0730 01       		.uleb128 0x1
 1619 0731 9C       		.byte	0x9c
 1620 0732 71070000 		.4byte	0x771
 1621 0736 1B       		.uleb128 0x1b
 1622 0737 637000   		.ascii	"cp\000"
 1623 073a 02       		.byte	0x2
 1624 073b 0E01     		.2byte	0x10e
 1625 073d FA040000 		.4byte	0x4fa
 1626 0741 02       		.uleb128 0x2
 1627 0742 91       		.byte	0x91
 1628 0743 6C       		.sleb128 -20
 1629 0744 1C       		.uleb128 0x1c
 1630 0745 9F010000 		.4byte	.LASF80
 1631 0749 02       		.byte	0x2
 1632 074a 0E01     		.2byte	0x10e
 1633 074c 17010000 		.4byte	0x117
 1634 0750 02       		.uleb128 0x2
 1635 0751 91       		.byte	0x91
 1636 0752 68       		.sleb128 -24
 1637 0753 1D       		.uleb128 0x1d
 1638 0754 6D7000   		.ascii	"mp\000"
 1639 0757 02       		.byte	0x2
 1640 0758 0F01     		.2byte	0x10f
 1641 075a 58040000 		.4byte	0x458
 1642 075e 02       		.uleb128 0x2
 1643 075f 91       		.byte	0x91
 1644 0760 74       		.sleb128 -12
 1645 0761 1D       		.uleb128 0x1d
 1646 0762 6D736700 		.ascii	"msg\000"
 1647 0766 02       		.byte	0x2
 1648 0767 1001     		.2byte	0x110
 1649 0769 01010000 		.4byte	0x101
 1650 076d 02       		.uleb128 0x2
 1651 076e 91       		.byte	0x91
 1652 076f 70       		.sleb128 -16
 1653 0770 00       		.byte	0
 1654 0771 1E       		.uleb128 0x1e
 1655 0772 24030000 		.4byte	.LASF87
 1656 0776 09       		.byte	0x9
 1657 0777 6F       		.byte	0x6f
 1658 0778 9A030000 		.4byte	0x39a
 1659 077c 00       		.byte	0
 1660              		.section	.debug_abbrev,"",%progbits
 1661              	.Ldebug_abbrev0:
 1662 0000 01       		.uleb128 0x1
 1663 0001 11       		.uleb128 0x11
 1664 0002 01       		.byte	0x1
 1665 0003 25       		.uleb128 0x25
 1666 0004 0E       		.uleb128 0xe
 1667 0005 13       		.uleb128 0x13
 1668 0006 0B       		.uleb128 0xb
 1669 0007 03       		.uleb128 0x3
ARM GAS  /tmp/cckVf1Go.s 			page 31


 1670 0008 0E       		.uleb128 0xe
 1671 0009 1B       		.uleb128 0x1b
 1672 000a 0E       		.uleb128 0xe
 1673 000b 55       		.uleb128 0x55
 1674 000c 17       		.uleb128 0x17
 1675 000d 11       		.uleb128 0x11
 1676 000e 01       		.uleb128 0x1
 1677 000f 10       		.uleb128 0x10
 1678 0010 17       		.uleb128 0x17
 1679 0011 00       		.byte	0
 1680 0012 00       		.byte	0
 1681 0013 02       		.uleb128 0x2
 1682 0014 24       		.uleb128 0x24
 1683 0015 00       		.byte	0
 1684 0016 0B       		.uleb128 0xb
 1685 0017 0B       		.uleb128 0xb
 1686 0018 3E       		.uleb128 0x3e
 1687 0019 0B       		.uleb128 0xb
 1688 001a 03       		.uleb128 0x3
 1689 001b 08       		.uleb128 0x8
 1690 001c 00       		.byte	0
 1691 001d 00       		.byte	0
 1692 001e 03       		.uleb128 0x3
 1693 001f 24       		.uleb128 0x24
 1694 0020 00       		.byte	0
 1695 0021 0B       		.uleb128 0xb
 1696 0022 0B       		.uleb128 0xb
 1697 0023 3E       		.uleb128 0x3e
 1698 0024 0B       		.uleb128 0xb
 1699 0025 03       		.uleb128 0x3
 1700 0026 0E       		.uleb128 0xe
 1701 0027 00       		.byte	0
 1702 0028 00       		.byte	0
 1703 0029 04       		.uleb128 0x4
 1704 002a 16       		.uleb128 0x16
 1705 002b 00       		.byte	0
 1706 002c 03       		.uleb128 0x3
 1707 002d 0E       		.uleb128 0xe
 1708 002e 3A       		.uleb128 0x3a
 1709 002f 0B       		.uleb128 0xb
 1710 0030 3B       		.uleb128 0x3b
 1711 0031 0B       		.uleb128 0xb
 1712 0032 49       		.uleb128 0x49
 1713 0033 13       		.uleb128 0x13
 1714 0034 00       		.byte	0
 1715 0035 00       		.byte	0
 1716 0036 05       		.uleb128 0x5
 1717 0037 13       		.uleb128 0x13
 1718 0038 01       		.byte	0x1
 1719 0039 03       		.uleb128 0x3
 1720 003a 0E       		.uleb128 0xe
 1721 003b 0B       		.uleb128 0xb
 1722 003c 0B       		.uleb128 0xb
 1723 003d 3A       		.uleb128 0x3a
 1724 003e 0B       		.uleb128 0xb
 1725 003f 3B       		.uleb128 0x3b
 1726 0040 0B       		.uleb128 0xb
ARM GAS  /tmp/cckVf1Go.s 			page 32


 1727 0041 01       		.uleb128 0x1
 1728 0042 13       		.uleb128 0x13
 1729 0043 00       		.byte	0
 1730 0044 00       		.byte	0
 1731 0045 06       		.uleb128 0x6
 1732 0046 0D       		.uleb128 0xd
 1733 0047 00       		.byte	0
 1734 0048 03       		.uleb128 0x3
 1735 0049 0E       		.uleb128 0xe
 1736 004a 3A       		.uleb128 0x3a
 1737 004b 0B       		.uleb128 0xb
 1738 004c 3B       		.uleb128 0x3b
 1739 004d 0B       		.uleb128 0xb
 1740 004e 49       		.uleb128 0x49
 1741 004f 13       		.uleb128 0x13
 1742 0050 38       		.uleb128 0x38
 1743 0051 0B       		.uleb128 0xb
 1744 0052 00       		.byte	0
 1745 0053 00       		.byte	0
 1746 0054 07       		.uleb128 0x7
 1747 0055 0D       		.uleb128 0xd
 1748 0056 00       		.byte	0
 1749 0057 03       		.uleb128 0x3
 1750 0058 08       		.uleb128 0x8
 1751 0059 3A       		.uleb128 0x3a
 1752 005a 0B       		.uleb128 0xb
 1753 005b 3B       		.uleb128 0x3b
 1754 005c 0B       		.uleb128 0xb
 1755 005d 49       		.uleb128 0x49
 1756 005e 13       		.uleb128 0x13
 1757 005f 38       		.uleb128 0x38
 1758 0060 0B       		.uleb128 0xb
 1759 0061 00       		.byte	0
 1760 0062 00       		.byte	0
 1761 0063 08       		.uleb128 0x8
 1762 0064 13       		.uleb128 0x13
 1763 0065 01       		.byte	0x1
 1764 0066 0B       		.uleb128 0xb
 1765 0067 0B       		.uleb128 0xb
 1766 0068 3A       		.uleb128 0x3a
 1767 0069 0B       		.uleb128 0xb
 1768 006a 3B       		.uleb128 0x3b
 1769 006b 0B       		.uleb128 0xb
 1770 006c 01       		.uleb128 0x1
 1771 006d 13       		.uleb128 0x13
 1772 006e 00       		.byte	0
 1773 006f 00       		.byte	0
 1774 0070 09       		.uleb128 0x9
 1775 0071 0F       		.uleb128 0xf
 1776 0072 00       		.byte	0
 1777 0073 0B       		.uleb128 0xb
 1778 0074 0B       		.uleb128 0xb
 1779 0075 49       		.uleb128 0x49
 1780 0076 13       		.uleb128 0x13
 1781 0077 00       		.byte	0
 1782 0078 00       		.byte	0
 1783 0079 0A       		.uleb128 0xa
ARM GAS  /tmp/cckVf1Go.s 			page 33


 1784 007a 0F       		.uleb128 0xf
 1785 007b 00       		.byte	0
 1786 007c 0B       		.uleb128 0xb
 1787 007d 0B       		.uleb128 0xb
 1788 007e 00       		.byte	0
 1789 007f 00       		.byte	0
 1790 0080 0B       		.uleb128 0xb
 1791 0081 13       		.uleb128 0x13
 1792 0082 01       		.byte	0x1
 1793 0083 03       		.uleb128 0x3
 1794 0084 0E       		.uleb128 0xe
 1795 0085 0B       		.uleb128 0xb
 1796 0086 0B       		.uleb128 0xb
 1797 0087 3A       		.uleb128 0x3a
 1798 0088 0B       		.uleb128 0xb
 1799 0089 3B       		.uleb128 0x3b
 1800 008a 05       		.uleb128 0x5
 1801 008b 01       		.uleb128 0x1
 1802 008c 13       		.uleb128 0x13
 1803 008d 00       		.byte	0
 1804 008e 00       		.byte	0
 1805 008f 0C       		.uleb128 0xc
 1806 0090 0D       		.uleb128 0xd
 1807 0091 00       		.byte	0
 1808 0092 03       		.uleb128 0x3
 1809 0093 08       		.uleb128 0x8
 1810 0094 3A       		.uleb128 0x3a
 1811 0095 0B       		.uleb128 0xb
 1812 0096 3B       		.uleb128 0x3b
 1813 0097 05       		.uleb128 0x5
 1814 0098 49       		.uleb128 0x49
 1815 0099 13       		.uleb128 0x13
 1816 009a 38       		.uleb128 0x38
 1817 009b 0B       		.uleb128 0xb
 1818 009c 00       		.byte	0
 1819 009d 00       		.byte	0
 1820 009e 0D       		.uleb128 0xd
 1821 009f 35       		.uleb128 0x35
 1822 00a0 00       		.byte	0
 1823 00a1 49       		.uleb128 0x49
 1824 00a2 13       		.uleb128 0x13
 1825 00a3 00       		.byte	0
 1826 00a4 00       		.byte	0
 1827 00a5 0E       		.uleb128 0xe
 1828 00a6 17       		.uleb128 0x17
 1829 00a7 01       		.byte	0x1
 1830 00a8 0B       		.uleb128 0xb
 1831 00a9 0B       		.uleb128 0xb
 1832 00aa 3A       		.uleb128 0x3a
 1833 00ab 0B       		.uleb128 0xb
 1834 00ac 3B       		.uleb128 0x3b
 1835 00ad 0B       		.uleb128 0xb
 1836 00ae 01       		.uleb128 0x1
 1837 00af 13       		.uleb128 0x13
 1838 00b0 00       		.byte	0
 1839 00b1 00       		.byte	0
 1840 00b2 0F       		.uleb128 0xf
ARM GAS  /tmp/cckVf1Go.s 			page 34


 1841 00b3 0D       		.uleb128 0xd
 1842 00b4 00       		.byte	0
 1843 00b5 03       		.uleb128 0x3
 1844 00b6 0E       		.uleb128 0xe
 1845 00b7 3A       		.uleb128 0x3a
 1846 00b8 0B       		.uleb128 0xb
 1847 00b9 3B       		.uleb128 0x3b
 1848 00ba 0B       		.uleb128 0xb
 1849 00bb 49       		.uleb128 0x49
 1850 00bc 13       		.uleb128 0x13
 1851 00bd 00       		.byte	0
 1852 00be 00       		.byte	0
 1853 00bf 10       		.uleb128 0x10
 1854 00c0 26       		.uleb128 0x26
 1855 00c1 00       		.byte	0
 1856 00c2 49       		.uleb128 0x49
 1857 00c3 13       		.uleb128 0x13
 1858 00c4 00       		.byte	0
 1859 00c5 00       		.byte	0
 1860 00c6 11       		.uleb128 0x11
 1861 00c7 2E       		.uleb128 0x2e
 1862 00c8 01       		.byte	0x1
 1863 00c9 03       		.uleb128 0x3
 1864 00ca 0E       		.uleb128 0xe
 1865 00cb 3A       		.uleb128 0x3a
 1866 00cc 0B       		.uleb128 0xb
 1867 00cd 3B       		.uleb128 0x3b
 1868 00ce 0B       		.uleb128 0xb
 1869 00cf 27       		.uleb128 0x27
 1870 00d0 19       		.uleb128 0x19
 1871 00d1 11       		.uleb128 0x11
 1872 00d2 01       		.uleb128 0x1
 1873 00d3 12       		.uleb128 0x12
 1874 00d4 06       		.uleb128 0x6
 1875 00d5 40       		.uleb128 0x40
 1876 00d6 18       		.uleb128 0x18
 1877 00d7 9742     		.uleb128 0x2117
 1878 00d9 19       		.uleb128 0x19
 1879 00da 01       		.uleb128 0x1
 1880 00db 13       		.uleb128 0x13
 1881 00dc 00       		.byte	0
 1882 00dd 00       		.byte	0
 1883 00de 12       		.uleb128 0x12
 1884 00df 05       		.uleb128 0x5
 1885 00e0 00       		.byte	0
 1886 00e1 03       		.uleb128 0x3
 1887 00e2 08       		.uleb128 0x8
 1888 00e3 3A       		.uleb128 0x3a
 1889 00e4 0B       		.uleb128 0xb
 1890 00e5 3B       		.uleb128 0x3b
 1891 00e6 0B       		.uleb128 0xb
 1892 00e7 49       		.uleb128 0x49
 1893 00e8 13       		.uleb128 0x13
 1894 00e9 02       		.uleb128 0x2
 1895 00ea 18       		.uleb128 0x18
 1896 00eb 00       		.byte	0
 1897 00ec 00       		.byte	0
ARM GAS  /tmp/cckVf1Go.s 			page 35


 1898 00ed 13       		.uleb128 0x13
 1899 00ee 34       		.uleb128 0x34
 1900 00ef 00       		.byte	0
 1901 00f0 03       		.uleb128 0x3
 1902 00f1 08       		.uleb128 0x8
 1903 00f2 3A       		.uleb128 0x3a
 1904 00f3 0B       		.uleb128 0xb
 1905 00f4 3B       		.uleb128 0x3b
 1906 00f5 0B       		.uleb128 0xb
 1907 00f6 49       		.uleb128 0x49
 1908 00f7 13       		.uleb128 0x13
 1909 00f8 02       		.uleb128 0x2
 1910 00f9 18       		.uleb128 0x18
 1911 00fa 00       		.byte	0
 1912 00fb 00       		.byte	0
 1913 00fc 14       		.uleb128 0x14
 1914 00fd 2E       		.uleb128 0x2e
 1915 00fe 01       		.byte	0x1
 1916 00ff 03       		.uleb128 0x3
 1917 0100 0E       		.uleb128 0xe
 1918 0101 3A       		.uleb128 0x3a
 1919 0102 0B       		.uleb128 0xb
 1920 0103 3B       		.uleb128 0x3b
 1921 0104 0B       		.uleb128 0xb
 1922 0105 27       		.uleb128 0x27
 1923 0106 19       		.uleb128 0x19
 1924 0107 49       		.uleb128 0x49
 1925 0108 13       		.uleb128 0x13
 1926 0109 11       		.uleb128 0x11
 1927 010a 01       		.uleb128 0x1
 1928 010b 12       		.uleb128 0x12
 1929 010c 06       		.uleb128 0x6
 1930 010d 40       		.uleb128 0x40
 1931 010e 18       		.uleb128 0x18
 1932 010f 9742     		.uleb128 0x2117
 1933 0111 19       		.uleb128 0x19
 1934 0112 01       		.uleb128 0x1
 1935 0113 13       		.uleb128 0x13
 1936 0114 00       		.byte	0
 1937 0115 00       		.byte	0
 1938 0116 15       		.uleb128 0x15
 1939 0117 2E       		.uleb128 0x2e
 1940 0118 01       		.byte	0x1
 1941 0119 3F       		.uleb128 0x3f
 1942 011a 19       		.uleb128 0x19
 1943 011b 03       		.uleb128 0x3
 1944 011c 0E       		.uleb128 0xe
 1945 011d 3A       		.uleb128 0x3a
 1946 011e 0B       		.uleb128 0xb
 1947 011f 3B       		.uleb128 0x3b
 1948 0120 0B       		.uleb128 0xb
 1949 0121 27       		.uleb128 0x27
 1950 0122 19       		.uleb128 0x19
 1951 0123 11       		.uleb128 0x11
 1952 0124 01       		.uleb128 0x1
 1953 0125 12       		.uleb128 0x12
 1954 0126 06       		.uleb128 0x6
ARM GAS  /tmp/cckVf1Go.s 			page 36


 1955 0127 40       		.uleb128 0x40
 1956 0128 18       		.uleb128 0x18
 1957 0129 9642     		.uleb128 0x2116
 1958 012b 19       		.uleb128 0x19
 1959 012c 01       		.uleb128 0x1
 1960 012d 13       		.uleb128 0x13
 1961 012e 00       		.byte	0
 1962 012f 00       		.byte	0
 1963 0130 16       		.uleb128 0x16
 1964 0131 0B       		.uleb128 0xb
 1965 0132 01       		.byte	0x1
 1966 0133 11       		.uleb128 0x11
 1967 0134 01       		.uleb128 0x1
 1968 0135 12       		.uleb128 0x12
 1969 0136 06       		.uleb128 0x6
 1970 0137 01       		.uleb128 0x1
 1971 0138 13       		.uleb128 0x13
 1972 0139 00       		.byte	0
 1973 013a 00       		.byte	0
 1974 013b 17       		.uleb128 0x17
 1975 013c 0B       		.uleb128 0xb
 1976 013d 01       		.byte	0x1
 1977 013e 11       		.uleb128 0x11
 1978 013f 01       		.uleb128 0x1
 1979 0140 12       		.uleb128 0x12
 1980 0141 06       		.uleb128 0x6
 1981 0142 00       		.byte	0
 1982 0143 00       		.byte	0
 1983 0144 18       		.uleb128 0x18
 1984 0145 2E       		.uleb128 0x2e
 1985 0146 01       		.byte	0x1
 1986 0147 3F       		.uleb128 0x3f
 1987 0148 19       		.uleb128 0x19
 1988 0149 03       		.uleb128 0x3
 1989 014a 0E       		.uleb128 0xe
 1990 014b 3A       		.uleb128 0x3a
 1991 014c 0B       		.uleb128 0xb
 1992 014d 3B       		.uleb128 0x3b
 1993 014e 0B       		.uleb128 0xb
 1994 014f 27       		.uleb128 0x27
 1995 0150 19       		.uleb128 0x19
 1996 0151 49       		.uleb128 0x49
 1997 0152 13       		.uleb128 0x13
 1998 0153 11       		.uleb128 0x11
 1999 0154 01       		.uleb128 0x1
 2000 0155 12       		.uleb128 0x12
 2001 0156 06       		.uleb128 0x6
 2002 0157 40       		.uleb128 0x40
 2003 0158 18       		.uleb128 0x18
 2004 0159 9642     		.uleb128 0x2116
 2005 015b 19       		.uleb128 0x19
 2006 015c 01       		.uleb128 0x1
 2007 015d 13       		.uleb128 0x13
 2008 015e 00       		.byte	0
 2009 015f 00       		.byte	0
 2010 0160 19       		.uleb128 0x19
 2011 0161 05       		.uleb128 0x5
ARM GAS  /tmp/cckVf1Go.s 			page 37


 2012 0162 00       		.byte	0
 2013 0163 03       		.uleb128 0x3
 2014 0164 0E       		.uleb128 0xe
 2015 0165 3A       		.uleb128 0x3a
 2016 0166 0B       		.uleb128 0xb
 2017 0167 3B       		.uleb128 0x3b
 2018 0168 0B       		.uleb128 0xb
 2019 0169 49       		.uleb128 0x49
 2020 016a 13       		.uleb128 0x13
 2021 016b 02       		.uleb128 0x2
 2022 016c 18       		.uleb128 0x18
 2023 016d 00       		.byte	0
 2024 016e 00       		.byte	0
 2025 016f 1A       		.uleb128 0x1a
 2026 0170 2E       		.uleb128 0x2e
 2027 0171 01       		.byte	0x1
 2028 0172 3F       		.uleb128 0x3f
 2029 0173 19       		.uleb128 0x19
 2030 0174 03       		.uleb128 0x3
 2031 0175 0E       		.uleb128 0xe
 2032 0176 3A       		.uleb128 0x3a
 2033 0177 0B       		.uleb128 0xb
 2034 0178 3B       		.uleb128 0x3b
 2035 0179 05       		.uleb128 0x5
 2036 017a 27       		.uleb128 0x27
 2037 017b 19       		.uleb128 0x19
 2038 017c 49       		.uleb128 0x49
 2039 017d 13       		.uleb128 0x13
 2040 017e 11       		.uleb128 0x11
 2041 017f 01       		.uleb128 0x1
 2042 0180 12       		.uleb128 0x12
 2043 0181 06       		.uleb128 0x6
 2044 0182 40       		.uleb128 0x40
 2045 0183 18       		.uleb128 0x18
 2046 0184 9642     		.uleb128 0x2116
 2047 0186 19       		.uleb128 0x19
 2048 0187 01       		.uleb128 0x1
 2049 0188 13       		.uleb128 0x13
 2050 0189 00       		.byte	0
 2051 018a 00       		.byte	0
 2052 018b 1B       		.uleb128 0x1b
 2053 018c 05       		.uleb128 0x5
 2054 018d 00       		.byte	0
 2055 018e 03       		.uleb128 0x3
 2056 018f 08       		.uleb128 0x8
 2057 0190 3A       		.uleb128 0x3a
 2058 0191 0B       		.uleb128 0xb
 2059 0192 3B       		.uleb128 0x3b
 2060 0193 05       		.uleb128 0x5
 2061 0194 49       		.uleb128 0x49
 2062 0195 13       		.uleb128 0x13
 2063 0196 02       		.uleb128 0x2
 2064 0197 18       		.uleb128 0x18
 2065 0198 00       		.byte	0
 2066 0199 00       		.byte	0
 2067 019a 1C       		.uleb128 0x1c
 2068 019b 05       		.uleb128 0x5
ARM GAS  /tmp/cckVf1Go.s 			page 38


 2069 019c 00       		.byte	0
 2070 019d 03       		.uleb128 0x3
 2071 019e 0E       		.uleb128 0xe
 2072 019f 3A       		.uleb128 0x3a
 2073 01a0 0B       		.uleb128 0xb
 2074 01a1 3B       		.uleb128 0x3b
 2075 01a2 05       		.uleb128 0x5
 2076 01a3 49       		.uleb128 0x49
 2077 01a4 13       		.uleb128 0x13
 2078 01a5 02       		.uleb128 0x2
 2079 01a6 18       		.uleb128 0x18
 2080 01a7 00       		.byte	0
 2081 01a8 00       		.byte	0
 2082 01a9 1D       		.uleb128 0x1d
 2083 01aa 34       		.uleb128 0x34
 2084 01ab 00       		.byte	0
 2085 01ac 03       		.uleb128 0x3
 2086 01ad 08       		.uleb128 0x8
 2087 01ae 3A       		.uleb128 0x3a
 2088 01af 0B       		.uleb128 0xb
 2089 01b0 3B       		.uleb128 0x3b
 2090 01b1 05       		.uleb128 0x5
 2091 01b2 49       		.uleb128 0x49
 2092 01b3 13       		.uleb128 0x13
 2093 01b4 02       		.uleb128 0x2
 2094 01b5 18       		.uleb128 0x18
 2095 01b6 00       		.byte	0
 2096 01b7 00       		.byte	0
 2097 01b8 1E       		.uleb128 0x1e
 2098 01b9 34       		.uleb128 0x34
 2099 01ba 00       		.byte	0
 2100 01bb 03       		.uleb128 0x3
 2101 01bc 0E       		.uleb128 0xe
 2102 01bd 3A       		.uleb128 0x3a
 2103 01be 0B       		.uleb128 0xb
 2104 01bf 3B       		.uleb128 0x3b
 2105 01c0 0B       		.uleb128 0xb
 2106 01c1 49       		.uleb128 0x49
 2107 01c2 13       		.uleb128 0x13
 2108 01c3 3F       		.uleb128 0x3f
 2109 01c4 19       		.uleb128 0x19
 2110 01c5 3C       		.uleb128 0x3c
 2111 01c6 19       		.uleb128 0x19
 2112 01c7 00       		.byte	0
 2113 01c8 00       		.byte	0
 2114 01c9 00       		.byte	0
 2115              		.section	.debug_aranges,"",%progbits
 2116 0000 6C000000 		.4byte	0x6c
 2117 0004 0200     		.2byte	0x2
 2118 0006 00000000 		.4byte	.Ldebug_info0
 2119 000a 04       		.byte	0x4
 2120 000b 00       		.byte	0
 2121 000c 0000     		.2byte	0
 2122 000e 0000     		.2byte	0
 2123 0010 00000000 		.4byte	.LFB0
 2124 0014 46000000 		.4byte	.LFE0-.LFB0
 2125 0018 00000000 		.4byte	.LFB2
ARM GAS  /tmp/cckVf1Go.s 			page 39


 2126 001c 22000000 		.4byte	.LFE2-.LFB2
 2127 0020 00000000 		.4byte	.LFB7
 2128 0024 2C000000 		.4byte	.LFE7-.LFB7
 2129 0028 00000000 		.4byte	.LFB8
 2130 002c 4E000000 		.4byte	.LFE8-.LFB8
 2131 0030 00000000 		.4byte	.LFB9
 2132 0034 42000000 		.4byte	.LFE9-.LFB9
 2133 0038 00000000 		.4byte	.LFB10
 2134 003c 2A000000 		.4byte	.LFE10-.LFB10
 2135 0040 00000000 		.4byte	.LFB11
 2136 0044 48000000 		.4byte	.LFE11-.LFB11
 2137 0048 00000000 		.4byte	.LFB12
 2138 004c 2C000000 		.4byte	.LFE12-.LFB12
 2139 0050 00000000 		.4byte	.LFB13
 2140 0054 6E000000 		.4byte	.LFE13-.LFB13
 2141 0058 00000000 		.4byte	.LFB14
 2142 005c 30000000 		.4byte	.LFE14-.LFB14
 2143 0060 00000000 		.4byte	.LFB15
 2144 0064 8A000000 		.4byte	.LFE15-.LFB15
 2145 0068 00000000 		.4byte	0
 2146 006c 00000000 		.4byte	0
 2147              		.section	.debug_ranges,"",%progbits
 2148              	.Ldebug_ranges0:
 2149 0000 00000000 		.4byte	.LFB0
 2150 0004 46000000 		.4byte	.LFE0
 2151 0008 00000000 		.4byte	.LFB2
 2152 000c 22000000 		.4byte	.LFE2
 2153 0010 00000000 		.4byte	.LFB7
 2154 0014 2C000000 		.4byte	.LFE7
 2155 0018 00000000 		.4byte	.LFB8
 2156 001c 4E000000 		.4byte	.LFE8
 2157 0020 00000000 		.4byte	.LFB9
 2158 0024 42000000 		.4byte	.LFE9
 2159 0028 00000000 		.4byte	.LFB10
 2160 002c 2A000000 		.4byte	.LFE10
 2161 0030 00000000 		.4byte	.LFB11
 2162 0034 48000000 		.4byte	.LFE11
 2163 0038 00000000 		.4byte	.LFB12
 2164 003c 2C000000 		.4byte	.LFE12
 2165 0040 00000000 		.4byte	.LFB13
 2166 0044 6E000000 		.4byte	.LFE13
 2167 0048 00000000 		.4byte	.LFB14
 2168 004c 30000000 		.4byte	.LFE14
 2169 0050 00000000 		.4byte	.LFB15
 2170 0054 8A000000 		.4byte	.LFE15
 2171 0058 00000000 		.4byte	0
 2172 005c 00000000 		.4byte	0
 2173              		.section	.debug_line,"",%progbits
 2174              	.Ldebug_line0:
 2175 0000 90020000 		.section	.debug_str,"MS",%progbits,1
 2175      02003601 
 2175      00000201 
 2175      FB0E0D00 
 2175      01010101 
 2176              	.LASF42:
 2177 0000 705F6D73 		.ascii	"p_msg\000"
 2177      6700
ARM GAS  /tmp/cckVf1Go.s 			page 40


 2178              	.LASF72:
 2179 0006 6368436F 		.ascii	"chCondInit\000"
 2179      6E64496E 
 2179      697400
 2180              	.LASF67:
 2181 0011 7264796D 		.ascii	"rdymsg\000"
 2181      736700
 2182              	.LASF16:
 2183 0018 75696E74 		.ascii	"uint64_t\000"
 2183      36345F74 
 2183      00
 2184              	.LASF5:
 2185 0021 5F5F7569 		.ascii	"__uint8_t\000"
 2185      6E74385F 
 2185      7400
 2186              	.LASF12:
 2187 002b 6C6F6E67 		.ascii	"long long unsigned int\000"
 2187      206C6F6E 
 2187      6720756E 
 2187      7369676E 
 2187      65642069 
 2188              	.LASF68:
 2189 0042 65786974 		.ascii	"exitcode\000"
 2189      636F6465 
 2189      00
 2190              	.LASF76:
 2191 004b 6368436F 		.ascii	"chCondBroadcastI\000"
 2191      6E644272 
 2191      6F616463 
 2191      61737449 
 2191      00
 2192              	.LASF29:
 2193 005c 705F7072 		.ascii	"p_prio\000"
 2193      696F00
 2194              	.LASF10:
 2195 0063 6C6F6E67 		.ascii	"long long int\000"
 2195      206C6F6E 
 2195      6720696E 
 2195      7400
 2196              	.LASF1:
 2197 0071 7369676E 		.ascii	"signed char\000"
 2197      65642063 
 2197      68617200 
 2198              	.LASF46:
 2199 007d 705F6D70 		.ascii	"p_mpool\000"
 2199      6F6F6C00 
 2200              	.LASF62:
 2201 0085 6D5F7175 		.ascii	"m_queue\000"
 2201      65756500 
 2202              	.LASF21:
 2203 008d 74736C69 		.ascii	"tslices_t\000"
 2203      6365735F 
 2203      7400
 2204              	.LASF65:
 2205 0097 436F6E64 		.ascii	"CondVar\000"
 2205      56617200 
 2206              	.LASF7:
ARM GAS  /tmp/cckVf1Go.s 			page 41


 2207 009f 6C6F6E67 		.ascii	"long int\000"
 2207      20696E74 
 2207      00
 2208              	.LASF19:
 2209 00a8 74737461 		.ascii	"tstate_t\000"
 2209      74655F74 
 2209      00
 2210              	.LASF31:
 2211 00b1 705F6E65 		.ascii	"p_newer\000"
 2211      77657200 
 2212              	.LASF8:
 2213 00b9 5F5F7569 		.ascii	"__uint32_t\000"
 2213      6E743332 
 2213      5F7400
 2214              	.LASF49:
 2215 00c4 72656761 		.ascii	"regarm_t\000"
 2215      726D5F74 
 2215      00
 2216              	.LASF73:
 2217 00cd 6368436F 		.ascii	"chCondSignal\000"
 2217      6E645369 
 2217      676E616C 
 2217      00
 2218              	.LASF34:
 2219 00da 705F7374 		.ascii	"p_stklimit\000"
 2219      6B6C696D 
 2219      697400
 2220              	.LASF0:
 2221 00e5 756E7369 		.ascii	"unsigned int\000"
 2221      676E6564 
 2221      20696E74 
 2221      00
 2222              	.LASF9:
 2223 00f2 6C6F6E67 		.ascii	"long unsigned int\000"
 2223      20756E73 
 2223      69676E65 
 2223      6420696E 
 2223      7400
 2224              	.LASF52:
 2225 0104 636F6E74 		.ascii	"context\000"
 2225      65787400 
 2226              	.LASF4:
 2227 010c 73686F72 		.ascii	"short unsigned int\000"
 2227      7420756E 
 2227      7369676E 
 2227      65642069 
 2227      6E7400
 2228              	.LASF23:
 2229 011f 6D73675F 		.ascii	"msg_t\000"
 2229      7400
 2230              	.LASF57:
 2231 0125 725F6E65 		.ascii	"r_newer\000"
 2231      77657200 
 2232              	.LASF18:
 2233 012d 746D6F64 		.ascii	"tmode_t\000"
 2233      655F7400 
 2234              	.LASF48:
ARM GAS  /tmp/cckVf1Go.s 			page 42


 2235 0135 54687265 		.ascii	"ThreadsList\000"
 2235      6164734C 
 2235      69737400 
 2236              	.LASF24:
 2237 0141 6576656E 		.ascii	"eventmask_t\000"
 2237      746D6173 
 2237      6B5F7400 
 2238              	.LASF61:
 2239 014d 4D757465 		.ascii	"Mutex\000"
 2239      7800
 2240              	.LASF50:
 2241 0153 73746B61 		.ascii	"stkalign_t\000"
 2241      6C69676E 
 2241      5F7400
 2242              	.LASF40:
 2243 015e 705F7761 		.ascii	"p_waiting\000"
 2243      6974696E 
 2243      6700
 2244              	.LASF53:
 2245 0168 73697A65 		.ascii	"sizetype\000"
 2245      74797065 
 2245      00
 2246              	.LASF81:
 2247 0171 6368436F 		.ascii	"chCondWaitTimeoutS\000"
 2247      6E645761 
 2247      69745469 
 2247      6D656F75 
 2247      745300
 2248              	.LASF32:
 2249 0184 705F6F6C 		.ascii	"p_older\000"
 2249      64657200 
 2250              	.LASF56:
 2251 018c 725F6374 		.ascii	"r_ctx\000"
 2251      7800
 2252              	.LASF47:
 2253 0192 54687265 		.ascii	"ThreadsQueue\000"
 2253      61647351 
 2253      75657565 
 2253      00
 2254              	.LASF80:
 2255 019f 74696D65 		.ascii	"time\000"
 2255      00
 2256              	.LASF59:
 2257 01a4 725F6375 		.ascii	"r_current\000"
 2257      7272656E 
 2257      7400
 2258              	.LASF58:
 2259 01ae 725F6F6C 		.ascii	"r_older\000"
 2259      64657200 
 2260              	.LASF75:
 2261 01b6 6368436F 		.ascii	"chCondBroadcast\000"
 2261      6E644272 
 2261      6F616463 
 2261      61737400 
 2262              	.LASF11:
 2263 01c6 5F5F7569 		.ascii	"__uint64_t\000"
 2263      6E743634 
ARM GAS  /tmp/cckVf1Go.s 			page 43


 2263      5F7400
 2264              	.LASF83:
 2265 01d1 2E2E2F2E 		.ascii	"../../../os/kernel/src/chcond.c\000"
 2265      2E2F2E2E 
 2265      2F6F732F 
 2265      6B65726E 
 2265      656C2F73 
 2266              	.LASF20:
 2267 01f1 74726566 		.ascii	"trefs_t\000"
 2267      735F7400 
 2268              	.LASF28:
 2269 01f9 705F7072 		.ascii	"p_prev\000"
 2269      657600
 2270              	.LASF22:
 2271 0200 74707269 		.ascii	"tprio_t\000"
 2271      6F5F7400 
 2272              	.LASF74:
 2273 0208 6368436F 		.ascii	"chCondSignalI\000"
 2273      6E645369 
 2273      676E616C 
 2273      4900
 2274              	.LASF17:
 2275 0216 5F426F6F 		.ascii	"_Bool\000"
 2275      6C00
 2276              	.LASF14:
 2277 021c 696E7433 		.ascii	"int32_t\000"
 2277      325F7400 
 2278              	.LASF2:
 2279 0224 756E7369 		.ascii	"unsigned char\000"
 2279      676E6564 
 2279      20636861 
 2279      7200
 2280              	.LASF44:
 2281 0232 705F6D74 		.ascii	"p_mtxlist\000"
 2281      786C6973 
 2281      7400
 2282              	.LASF3:
 2283 023c 73686F72 		.ascii	"short int\000"
 2283      7420696E 
 2283      7400
 2284              	.LASF35:
 2285 0246 705F7374 		.ascii	"p_state\000"
 2285      61746500 
 2286              	.LASF38:
 2287 024e 705F7072 		.ascii	"p_preempt\000"
 2287      65656D70 
 2287      7400
 2288              	.LASF55:
 2289 0258 725F7072 		.ascii	"r_prio\000"
 2289      696F00
 2290              	.LASF70:
 2291 025f 65776D61 		.ascii	"ewmask\000"
 2291      736B00
 2292              	.LASF27:
 2293 0266 705F6E65 		.ascii	"p_next\000"
 2293      787400
 2294              	.LASF36:
ARM GAS  /tmp/cckVf1Go.s 			page 44


 2295 026d 705F666C 		.ascii	"p_flags\000"
 2295      61677300 
 2296              	.LASF26:
 2297 0275 54687265 		.ascii	"Thread\000"
 2297      616400
 2298              	.LASF66:
 2299 027c 635F7175 		.ascii	"c_queue\000"
 2299      65756500 
 2300              	.LASF43:
 2301 0284 705F6570 		.ascii	"p_epending\000"
 2301      656E6469 
 2301      6E6700
 2302              	.LASF15:
 2303 028f 75696E74 		.ascii	"uint32_t\000"
 2303      33325F74 
 2303      00
 2304              	.LASF54:
 2305 0298 725F7175 		.ascii	"r_queue\000"
 2305      65756500 
 2306              	.LASF71:
 2307 02a0 63686172 		.ascii	"char\000"
 2307      00
 2308              	.LASF86:
 2309 02a5 6669666F 		.ascii	"fifo_remove\000"
 2309      5F72656D 
 2309      6F766500 
 2310              	.LASF78:
 2311 02b1 6368436F 		.ascii	"chCondWaitS\000"
 2311      6E645761 
 2311      69745300 
 2312              	.LASF64:
 2313 02bd 6D5F6E65 		.ascii	"m_next\000"
 2313      787400
 2314              	.LASF25:
 2315 02c4 73797374 		.ascii	"systime_t\000"
 2315      696D655F 
 2315      7400
 2316              	.LASF45:
 2317 02ce 705F7265 		.ascii	"p_realprio\000"
 2317      616C7072 
 2317      696F00
 2318              	.LASF6:
 2319 02d9 5F5F696E 		.ascii	"__int32_t\000"
 2319      7433325F 
 2319      7400
 2320              	.LASF85:
 2321 02e3 7072696F 		.ascii	"prio_insert\000"
 2321      5F696E73 
 2321      65727400 
 2322              	.LASF77:
 2323 02ef 6368436F 		.ascii	"chCondWait\000"
 2323      6E645761 
 2323      697400
 2324              	.LASF39:
 2325 02fa 705F7469 		.ascii	"p_time\000"
 2325      6D6500
 2326              	.LASF51:
ARM GAS  /tmp/cckVf1Go.s 			page 45


 2327 0301 696E7463 		.ascii	"intctx\000"
 2327      747800
 2328              	.LASF41:
 2329 0308 705F6D73 		.ascii	"p_msgqueue\000"
 2329      67717565 
 2329      756500
 2330              	.LASF37:
 2331 0313 705F7265 		.ascii	"p_refs\000"
 2331      667300
 2332              	.LASF60:
 2333 031a 52656164 		.ascii	"ReadyList\000"
 2333      794C6973 
 2333      7400
 2334              	.LASF87:
 2335 0324 726C6973 		.ascii	"rlist\000"
 2335      7400
 2336              	.LASF13:
 2337 032a 75696E74 		.ascii	"uint8_t\000"
 2337      385F7400 
 2338              	.LASF69:
 2339 0332 77746F62 		.ascii	"wtobjp\000"
 2339      6A7000
 2340              	.LASF33:
 2341 0339 705F6E61 		.ascii	"p_name\000"
 2341      6D6500
 2342              	.LASF79:
 2343 0340 6368436F 		.ascii	"chCondWaitTimeout\000"
 2343      6E645761 
 2343      69745469 
 2343      6D656F75 
 2343      7400
 2344              	.LASF84:
 2345 0352 2F686F6D 		.ascii	"/home/ece497/vbox-shared/mplayer/ChibiOS-RT-stable_"
 2345      652F6563 
 2345      65343937 
 2345      2F76626F 
 2345      782D7368 
 2346 0385 322E362E 		.ascii	"2.6.x/testhal/STM32F4xx/SDC\000"
 2346      782F7465 
 2346      73746861 
 2346      6C2F5354 
 2346      4D333246 
 2347              	.LASF63:
 2348 03a1 6D5F6F77 		.ascii	"m_owner\000"
 2348      6E657200 
 2349              	.LASF30:
 2350 03a9 705F6374 		.ascii	"p_ctx\000"
 2350      7800
 2351              	.LASF82:
 2352 03af 474E5520 		.ascii	"GNU C 4.8.2 -mcpu=cortex-m4 -mno-thumb-interwork -m"
 2352      4320342E 
 2352      382E3220 
 2352      2D6D6370 
 2352      753D636F 
 2353 03e2 7468756D 		.ascii	"thumb -ggdb -O0 -fomit-frame-pointer -falign-functi"
 2353      62202D67 
 2353      67646220 
ARM GAS  /tmp/cckVf1Go.s 			page 46


 2353      2D4F3020 
 2353      2D666F6D 
 2354 0415 6F6E733D 		.ascii	"ons=16 -ffunction-sections -fdata-sections -fno-com"
 2354      3136202D 
 2354      6666756E 
 2354      6374696F 
 2354      6E2D7365 
 2355 0448 6D6F6E00 		.ascii	"mon\000"
 2356              		.ident	"GCC: (Arch Repository) 4.8.2"
ARM GAS  /tmp/cckVf1Go.s 			page 47


DEFINED SYMBOLS
                            *ABS*:0000000000000000 chcond.c
     /tmp/cckVf1Go.s:19     .text.prio_insert:0000000000000000 $t
     /tmp/cckVf1Go.s:24     .text.prio_insert:0000000000000000 prio_insert
     /tmp/cckVf1Go.s:82     .text.fifo_remove:0000000000000000 $t
     /tmp/cckVf1Go.s:87     .text.fifo_remove:0000000000000000 fifo_remove
     /tmp/cckVf1Go.s:121    .rodata:0000000000000000 $d
     /tmp/cckVf1Go.s:122    .rodata:0000000000000000 .LC0
     /tmp/cckVf1Go.s:125    .text.chCondInit:0000000000000000 $t
     /tmp/cckVf1Go.s:131    .text.chCondInit:0000000000000000 chCondInit
     /tmp/cckVf1Go.s:170    .rodata:0000000000000010 .LC1
     /tmp/cckVf1Go.s:173    .text.chCondSignal:0000000000000000 $t
     /tmp/cckVf1Go.s:179    .text.chCondSignal:0000000000000000 chCondSignal
     /tmp/cckVf1Go.s:242    .rodata:0000000000000024 .LC2
     /tmp/cckVf1Go.s:245    .text.chCondSignalI:0000000000000000 $t
     /tmp/cckVf1Go.s:251    .text.chCondSignalI:0000000000000000 chCondSignalI
     /tmp/cckVf1Go.s:299    .text.chCondBroadcast:0000000000000000 $t
     /tmp/cckVf1Go.s:305    .text.chCondBroadcast:0000000000000000 chCondBroadcast
     /tmp/cckVf1Go.s:358    .text.chCondBroadcastI:0000000000000000 chCondBroadcastI
     /tmp/cckVf1Go.s:349    .rodata:0000000000000038 .LC3
     /tmp/cckVf1Go.s:352    .text.chCondBroadcastI:0000000000000000 $t
     /tmp/cckVf1Go.s:411    .text.chCondWait:0000000000000000 $t
     /tmp/cckVf1Go.s:417    .text.chCondWait:0000000000000000 chCondWait
     /tmp/cckVf1Go.s:475    .text.chCondWaitS:0000000000000000 chCondWaitS
     /tmp/cckVf1Go.s:463    .rodata:0000000000000050 .LC4
     /tmp/cckVf1Go.s:466    .rodata:0000000000000060 .LC5
     /tmp/cckVf1Go.s:469    .text.chCondWaitS:0000000000000000 $t
     /tmp/cckVf1Go.s:546    .text.chCondWaitTimeout:0000000000000000 $t
     /tmp/cckVf1Go.s:552    .text.chCondWaitTimeout:0000000000000000 chCondWaitTimeout
     /tmp/cckVf1Go.s:612    .text.chCondWaitTimeoutS:0000000000000000 chCondWaitTimeoutS
     /tmp/cckVf1Go.s:600    .rodata:0000000000000074 .LC6
     /tmp/cckVf1Go.s:603    .rodata:000000000000008c .LC7
     /tmp/cckVf1Go.s:606    .text.chCondWaitTimeoutS:0000000000000000 $t
                     .debug_frame:0000000000000010 $d

UNDEFINED SYMBOLS
chDbgPanic
dbg_check_lock
chSchWakeupS
dbg_check_unlock
chDbgCheckClassI
chSchReadyI
chSchRescheduleS
rlist
chDbgCheckClassS
chMtxUnlockS
chSchGoSleepS
chMtxLockS
chSchGoSleepTimeoutS
