ARM GAS  /tmp/ccnl3zJt.s 			page 1


   1              		.syntax unified
   2              		.cpu cortex-m4
   3              		.fpu softvfp
   4              		.eabi_attribute 20, 1
   5              		.eabi_attribute 21, 1
   6              		.eabi_attribute 23, 3
   7              		.eabi_attribute 24, 1
   8              		.eabi_attribute 25, 1
   9              		.eabi_attribute 26, 1
  10              		.eabi_attribute 30, 6
  11              		.eabi_attribute 34, 1
  12              		.eabi_attribute 18, 4
  13              		.thumb
  14              		.file	"chevents.c"
  15              		.text
  16              	.Ltext0:
  17              		.cfi_sections	.debug_frame
  18              		.section	.rodata
  19              		.align	2
  20              	.LC0:
  21 0000 22636845 		.ascii	"\"chEvtRegisterMask\"()\000"
  21      76745265 
  21      67697374 
  21      65724D61 
  21      736B2228 
  22              		.section	.text.chEvtRegisterMask,"ax",%progbits
  23              		.align	2
  24              		.p2align 4,,15
  25              		.global	chEvtRegisterMask
  26              		.thumb
  27              		.thumb_func
  28              		.type	chEvtRegisterMask, %function
  29              	chEvtRegisterMask:
  30              	.LFB7:
  31              		.file 1 "../../../os/kernel/src/chevents.c"
  32              		.loc 1 85 0
  33              		.cfi_startproc
  34              		@ args = 0, pretend = 0, frame = 16
  35              		@ frame_needed = 0, uses_anonymous_args = 0
  36 0000 00B5     		push	{lr}
  37              		.cfi_def_cfa_offset 4
  38              		.cfi_offset 14, -4
  39 0002 85B0     		sub	sp, sp, #20
  40              		.cfi_def_cfa_offset 24
  41 0004 0390     		str	r0, [sp, #12]
  42 0006 0291     		str	r1, [sp, #8]
  43 0008 0192     		str	r2, [sp, #4]
  44              		.loc 1 87 0
  45 000a 039B     		ldr	r3, [sp, #12]
  46 000c 002B     		cmp	r3, #0
  47 000e 02D0     		beq	.L2
  48              		.loc 1 87 0 is_stmt 0 discriminator 2
  49 0010 029B     		ldr	r3, [sp, #8]
  50 0012 002B     		cmp	r3, #0
  51 0014 05D1     		bne	.L3
  52              	.L2:
  53              		.loc 1 87 0 discriminator 1
ARM GAS  /tmp/ccnl3zJt.s 			page 2


  54 0016 40F20000 		movw	r0, #:lower16:.LC0
  55 001a C0F20000 		movt	r0, #:upper16:.LC0
  56 001e FFF7FEFF 		bl	chDbgPanic
  57              	.L3:
  58              	.LBB2:
  59              		.loc 1 89 0 is_stmt 1
  60 0022 2023     		movs	r3, #32
  61              	@ 89 "../../../os/kernel/src/chevents.c" 1
  62 0024 83F31188 		msr     BASEPRI, r3
  63              	@ 0 "" 2
  64              		.thumb
  65              	.LBE2:
  66 0028 FFF7FEFF 		bl	dbg_check_lock
  67              		.loc 1 90 0
  68 002c 039B     		ldr	r3, [sp, #12]
  69 002e 1A68     		ldr	r2, [r3]
  70 0030 029B     		ldr	r3, [sp, #8]
  71 0032 1A60     		str	r2, [r3]
  72              		.loc 1 91 0
  73 0034 039B     		ldr	r3, [sp, #12]
  74 0036 029A     		ldr	r2, [sp, #8]
  75 0038 1A60     		str	r2, [r3]
  76              		.loc 1 92 0
  77 003a 40F20003 		movw	r3, #:lower16:rlist
  78 003e C0F20003 		movt	r3, #:upper16:rlist
  79 0042 9A69     		ldr	r2, [r3, #24]
  80 0044 029B     		ldr	r3, [sp, #8]
  81 0046 5A60     		str	r2, [r3, #4]
  82              		.loc 1 93 0
  83 0048 029B     		ldr	r3, [sp, #8]
  84 004a 019A     		ldr	r2, [sp, #4]
  85 004c 9A60     		str	r2, [r3, #8]
  86              		.loc 1 94 0
  87 004e 029B     		ldr	r3, [sp, #8]
  88 0050 0022     		movs	r2, #0
  89 0052 DA60     		str	r2, [r3, #12]
  90              		.loc 1 95 0
  91 0054 FFF7FEFF 		bl	dbg_check_unlock
  92              	.LBB3:
  93 0058 0023     		movs	r3, #0
  94              	@ 95 "../../../os/kernel/src/chevents.c" 1
  95 005a 83F31188 		msr     BASEPRI, r3
  96              	@ 0 "" 2
  97              		.thumb
  98              	.LBE3:
  99              		.loc 1 96 0
 100 005e 05B0     		add	sp, sp, #20
 101              		@ sp needed
 102 0060 5DF804FB 		ldr	pc, [sp], #4
 103              		.cfi_endproc
 104              	.LFE7:
 105              		.size	chEvtRegisterMask, .-chEvtRegisterMask
 106 0064 AFF30080 		.section	.rodata
 106      AFF30080 
 106      AFF30080 
 107 0016 0000     		.align	2
 108              	.LC1:
ARM GAS  /tmp/ccnl3zJt.s 			page 3


 109 0018 22636845 		.ascii	"\"chEvtUnregister\"()\000"
 109      7674556E 
 109      72656769 
 109      73746572 
 109      22282900 
 110              		.section	.text.chEvtUnregister,"ax",%progbits
 111              		.align	2
 112              		.p2align 4,,15
 113              		.global	chEvtUnregister
 114              		.thumb
 115              		.thumb_func
 116              		.type	chEvtUnregister, %function
 117              	chEvtUnregister:
 118              	.LFB8:
 119              		.loc 1 111 0
 120              		.cfi_startproc
 121              		@ args = 0, pretend = 0, frame = 16
 122              		@ frame_needed = 0, uses_anonymous_args = 0
 123 0000 00B5     		push	{lr}
 124              		.cfi_def_cfa_offset 4
 125              		.cfi_offset 14, -4
 126 0002 85B0     		sub	sp, sp, #20
 127              		.cfi_def_cfa_offset 24
 128 0004 0190     		str	r0, [sp, #4]
 129 0006 0091     		str	r1, [sp]
 130              		.loc 1 114 0
 131 0008 019B     		ldr	r3, [sp, #4]
 132 000a 002B     		cmp	r3, #0
 133 000c 02D0     		beq	.L5
 134              		.loc 1 114 0 is_stmt 0 discriminator 2
 135 000e 009B     		ldr	r3, [sp]
 136 0010 002B     		cmp	r3, #0
 137 0012 05D1     		bne	.L6
 138              	.L5:
 139              		.loc 1 114 0 discriminator 1
 140 0014 40F20000 		movw	r0, #:lower16:.LC1
 141 0018 C0F20000 		movt	r0, #:upper16:.LC1
 142 001c FFF7FEFF 		bl	chDbgPanic
 143              	.L6:
 144              		.loc 1 116 0 is_stmt 1
 145 0020 019B     		ldr	r3, [sp, #4]
 146 0022 0393     		str	r3, [sp, #12]
 147              	.LBB4:
 148              		.loc 1 117 0
 149 0024 2023     		movs	r3, #32
 150              	@ 117 "../../../os/kernel/src/chevents.c" 1
 151 0026 83F31188 		msr     BASEPRI, r3
 152              	@ 0 "" 2
 153              		.thumb
 154              	.LBE4:
 155 002a FFF7FEFF 		bl	dbg_check_lock
 156              		.loc 1 118 0
 157 002e 0CE0     		b	.L7
 158              	.L10:
 159              		.loc 1 119 0
 160 0030 039B     		ldr	r3, [sp, #12]
 161 0032 1A68     		ldr	r2, [r3]
ARM GAS  /tmp/ccnl3zJt.s 			page 4


 162 0034 009B     		ldr	r3, [sp]
 163 0036 9A42     		cmp	r2, r3
 164 0038 04D1     		bne	.L8
 165              		.loc 1 120 0
 166 003a 009B     		ldr	r3, [sp]
 167 003c 1A68     		ldr	r2, [r3]
 168 003e 039B     		ldr	r3, [sp, #12]
 169 0040 1A60     		str	r2, [r3]
 170              		.loc 1 121 0
 171 0042 07E0     		b	.L9
 172              	.L8:
 173              		.loc 1 123 0
 174 0044 039B     		ldr	r3, [sp, #12]
 175 0046 1B68     		ldr	r3, [r3]
 176 0048 0393     		str	r3, [sp, #12]
 177              	.L7:
 178              		.loc 1 118 0 discriminator 1
 179 004a 039B     		ldr	r3, [sp, #12]
 180 004c 1A68     		ldr	r2, [r3]
 181 004e 019B     		ldr	r3, [sp, #4]
 182 0050 9A42     		cmp	r2, r3
 183 0052 EDD1     		bne	.L10
 184              	.L9:
 185              		.loc 1 125 0
 186 0054 FFF7FEFF 		bl	dbg_check_unlock
 187              	.LBB5:
 188 0058 0023     		movs	r3, #0
 189              	@ 125 "../../../os/kernel/src/chevents.c" 1
 190 005a 83F31188 		msr     BASEPRI, r3
 191              	@ 0 "" 2
 192              		.thumb
 193              	.LBE5:
 194              		.loc 1 126 0
 195 005e 05B0     		add	sp, sp, #20
 196              		@ sp needed
 197 0060 5DF804FB 		ldr	pc, [sp], #4
 198              		.cfi_endproc
 199              	.LFE8:
 200              		.size	chEvtUnregister, .-chEvtUnregister
 201 0064 AFF30080 		.section	.text.chEvtGetAndClearEvents,"ax",%progbits
 201      AFF30080 
 201      AFF30080 
 202              		.align	2
 203              		.p2align 4,,15
 204              		.global	chEvtGetAndClearEvents
 205              		.thumb
 206              		.thumb_func
 207              		.type	chEvtGetAndClearEvents, %function
 208              	chEvtGetAndClearEvents:
 209              	.LFB9:
 210              		.loc 1 136 0
 211              		.cfi_startproc
 212              		@ args = 0, pretend = 0, frame = 16
 213              		@ frame_needed = 0, uses_anonymous_args = 0
 214 0000 00B5     		push	{lr}
 215              		.cfi_def_cfa_offset 4
 216              		.cfi_offset 14, -4
ARM GAS  /tmp/ccnl3zJt.s 			page 5


 217 0002 85B0     		sub	sp, sp, #20
 218              		.cfi_def_cfa_offset 24
 219 0004 0190     		str	r0, [sp, #4]
 220              	.LBB6:
 221              		.loc 1 139 0
 222 0006 2023     		movs	r3, #32
 223              	@ 139 "../../../os/kernel/src/chevents.c" 1
 224 0008 83F31188 		msr     BASEPRI, r3
 225              	@ 0 "" 2
 226              		.thumb
 227              	.LBE6:
 228 000c FFF7FEFF 		bl	dbg_check_lock
 229              		.loc 1 141 0
 230 0010 40F20003 		movw	r3, #:lower16:rlist
 231 0014 C0F20003 		movt	r3, #:upper16:rlist
 232 0018 9B69     		ldr	r3, [r3, #24]
 233 001a DA6B     		ldr	r2, [r3, #60]
 234 001c 019B     		ldr	r3, [sp, #4]
 235 001e 1340     		ands	r3, r3, r2
 236 0020 0393     		str	r3, [sp, #12]
 237              		.loc 1 142 0
 238 0022 40F20003 		movw	r3, #:lower16:rlist
 239 0026 C0F20003 		movt	r3, #:upper16:rlist
 240 002a 9A69     		ldr	r2, [r3, #24]
 241 002c 40F20003 		movw	r3, #:lower16:rlist
 242 0030 C0F20003 		movt	r3, #:upper16:rlist
 243 0034 9B69     		ldr	r3, [r3, #24]
 244 0036 D96B     		ldr	r1, [r3, #60]
 245 0038 019B     		ldr	r3, [sp, #4]
 246 003a DB43     		mvns	r3, r3
 247 003c 0B40     		ands	r3, r3, r1
 248 003e D363     		str	r3, [r2, #60]
 249              		.loc 1 144 0
 250 0040 FFF7FEFF 		bl	dbg_check_unlock
 251              	.LBB7:
 252 0044 0023     		movs	r3, #0
 253              	@ 144 "../../../os/kernel/src/chevents.c" 1
 254 0046 83F31188 		msr     BASEPRI, r3
 255              	@ 0 "" 2
 256              		.thumb
 257              	.LBE7:
 258              		.loc 1 145 0
 259 004a 039B     		ldr	r3, [sp, #12]
 260              		.loc 1 146 0
 261 004c 1846     		mov	r0, r3
 262 004e 05B0     		add	sp, sp, #20
 263              		@ sp needed
 264 0050 5DF804FB 		ldr	pc, [sp], #4
 265              		.cfi_endproc
 266              	.LFE9:
 267              		.size	chEvtGetAndClearEvents, .-chEvtGetAndClearEvents
 268 0054 AFF30080 		.section	.text.chEvtAddEvents,"ax",%progbits
 268      AFF30080 
 268      AFF30080 
 269              		.align	2
 270              		.p2align 4,,15
 271              		.global	chEvtAddEvents
ARM GAS  /tmp/ccnl3zJt.s 			page 6


 272              		.thumb
 273              		.thumb_func
 274              		.type	chEvtAddEvents, %function
 275              	chEvtAddEvents:
 276              	.LFB10:
 277              		.loc 1 157 0
 278              		.cfi_startproc
 279              		@ args = 0, pretend = 0, frame = 8
 280              		@ frame_needed = 0, uses_anonymous_args = 0
 281 0000 00B5     		push	{lr}
 282              		.cfi_def_cfa_offset 4
 283              		.cfi_offset 14, -4
 284 0002 83B0     		sub	sp, sp, #12
 285              		.cfi_def_cfa_offset 16
 286 0004 0190     		str	r0, [sp, #4]
 287              	.LBB8:
 288              		.loc 1 159 0
 289 0006 2023     		movs	r3, #32
 290              	@ 159 "../../../os/kernel/src/chevents.c" 1
 291 0008 83F31188 		msr     BASEPRI, r3
 292              	@ 0 "" 2
 293              		.thumb
 294              	.LBE8:
 295 000c FFF7FEFF 		bl	dbg_check_lock
 296              		.loc 1 161 0
 297 0010 40F20003 		movw	r3, #:lower16:rlist
 298 0014 C0F20003 		movt	r3, #:upper16:rlist
 299 0018 9A69     		ldr	r2, [r3, #24]
 300 001a 40F20003 		movw	r3, #:lower16:rlist
 301 001e C0F20003 		movt	r3, #:upper16:rlist
 302 0022 9B69     		ldr	r3, [r3, #24]
 303 0024 D96B     		ldr	r1, [r3, #60]
 304 0026 019B     		ldr	r3, [sp, #4]
 305 0028 0B43     		orrs	r3, r3, r1
 306 002a D363     		str	r3, [r2, #60]
 307 002c D36B     		ldr	r3, [r2, #60]
 308 002e 0193     		str	r3, [sp, #4]
 309              		.loc 1 163 0
 310 0030 FFF7FEFF 		bl	dbg_check_unlock
 311              	.LBB9:
 312 0034 0023     		movs	r3, #0
 313              	@ 163 "../../../os/kernel/src/chevents.c" 1
 314 0036 83F31188 		msr     BASEPRI, r3
 315              	@ 0 "" 2
 316              		.thumb
 317              	.LBE9:
 318              		.loc 1 164 0
 319 003a 019B     		ldr	r3, [sp, #4]
 320              		.loc 1 165 0
 321 003c 1846     		mov	r0, r3
 322 003e 03B0     		add	sp, sp, #12
 323              		@ sp needed
 324 0040 5DF804FB 		ldr	pc, [sp], #4
 325              		.cfi_endproc
 326              	.LFE10:
 327              		.size	chEvtAddEvents, .-chEvtAddEvents
 328 0044 AFF30080 		.section	.rodata
ARM GAS  /tmp/ccnl3zJt.s 			page 7


 328      AFF30080 
 328      AFF30080 
 329              		.align	2
 330              	.LC2:
 331 002c 22636845 		.ascii	"\"chEvtBroadcastMaskI\"()\000"
 331      76744272 
 331      6F616463 
 331      6173744D 
 331      61736B49 
 332              		.section	.text.chEvtBroadcastFlagsI,"ax",%progbits
 333              		.align	2
 334              		.p2align 4,,15
 335              		.global	chEvtBroadcastFlagsI
 336              		.thumb
 337              		.thumb_func
 338              		.type	chEvtBroadcastFlagsI, %function
 339              	chEvtBroadcastFlagsI:
 340              	.LFB11:
 341              		.loc 1 184 0
 342              		.cfi_startproc
 343              		@ args = 0, pretend = 0, frame = 16
 344              		@ frame_needed = 0, uses_anonymous_args = 0
 345 0000 00B5     		push	{lr}
 346              		.cfi_def_cfa_offset 4
 347              		.cfi_offset 14, -4
 348 0002 85B0     		sub	sp, sp, #20
 349              		.cfi_def_cfa_offset 24
 350 0004 0190     		str	r0, [sp, #4]
 351 0006 0091     		str	r1, [sp]
 352              		.loc 1 187 0
 353 0008 FFF7FEFF 		bl	chDbgCheckClassI
 354              		.loc 1 188 0
 355 000c 019B     		ldr	r3, [sp, #4]
 356 000e 002B     		cmp	r3, #0
 357 0010 05D1     		bne	.L16
 358              		.loc 1 188 0 is_stmt 0 discriminator 1
 359 0012 40F20000 		movw	r0, #:lower16:.LC2
 360 0016 C0F20000 		movt	r0, #:upper16:.LC2
 361 001a FFF7FEFF 		bl	chDbgPanic
 362              	.L16:
 363              		.loc 1 190 0 is_stmt 1
 364 001e 019B     		ldr	r3, [sp, #4]
 365 0020 1B68     		ldr	r3, [r3]
 366 0022 0393     		str	r3, [sp, #12]
 367              		.loc 1 191 0
 368 0024 10E0     		b	.L17
 369              	.L18:
 370              		.loc 1 192 0
 371 0026 039B     		ldr	r3, [sp, #12]
 372 0028 DA68     		ldr	r2, [r3, #12]
 373 002a 009B     		ldr	r3, [sp]
 374 002c 1A43     		orrs	r2, r2, r3
 375 002e 039B     		ldr	r3, [sp, #12]
 376 0030 DA60     		str	r2, [r3, #12]
 377              		.loc 1 193 0
 378 0032 039B     		ldr	r3, [sp, #12]
 379 0034 5A68     		ldr	r2, [r3, #4]
ARM GAS  /tmp/ccnl3zJt.s 			page 8


 380 0036 039B     		ldr	r3, [sp, #12]
 381 0038 9B68     		ldr	r3, [r3, #8]
 382 003a 1046     		mov	r0, r2
 383 003c 1946     		mov	r1, r3
 384 003e FFF7FEFF 		bl	chEvtSignalI
 385              		.loc 1 194 0
 386 0042 039B     		ldr	r3, [sp, #12]
 387 0044 1B68     		ldr	r3, [r3]
 388 0046 0393     		str	r3, [sp, #12]
 389              	.L17:
 390              		.loc 1 191 0 discriminator 1
 391 0048 039A     		ldr	r2, [sp, #12]
 392 004a 019B     		ldr	r3, [sp, #4]
 393 004c 9A42     		cmp	r2, r3
 394 004e EAD1     		bne	.L18
 395              		.loc 1 196 0
 396 0050 05B0     		add	sp, sp, #20
 397              		@ sp needed
 398 0052 5DF804FB 		ldr	pc, [sp], #4
 399              		.cfi_endproc
 400              	.LFE11:
 401              		.size	chEvtBroadcastFlagsI, .-chEvtBroadcastFlagsI
 402 0056 00BFAFF3 		.section	.text.chEvtGetAndClearFlags,"ax",%progbits
 402      0080AFF3 
 402      0080
 403              		.align	2
 404              		.p2align 4,,15
 405              		.global	chEvtGetAndClearFlags
 406              		.thumb
 407              		.thumb_func
 408              		.type	chEvtGetAndClearFlags, %function
 409              	chEvtGetAndClearFlags:
 410              	.LFB12:
 411              		.loc 1 209 0
 412              		.cfi_startproc
 413              		@ args = 0, pretend = 0, frame = 16
 414              		@ frame_needed = 0, uses_anonymous_args = 0
 415 0000 00B5     		push	{lr}
 416              		.cfi_def_cfa_offset 4
 417              		.cfi_offset 14, -4
 418 0002 85B0     		sub	sp, sp, #20
 419              		.cfi_def_cfa_offset 24
 420 0004 0190     		str	r0, [sp, #4]
 421              	.LBB10:
 422              		.loc 1 212 0
 423 0006 2023     		movs	r3, #32
 424              	@ 212 "../../../os/kernel/src/chevents.c" 1
 425 0008 83F31188 		msr     BASEPRI, r3
 426              	@ 0 "" 2
 427              		.thumb
 428              	.LBE10:
 429 000c FFF7FEFF 		bl	dbg_check_lock
 430              		.loc 1 214 0
 431 0010 019B     		ldr	r3, [sp, #4]
 432 0012 DB68     		ldr	r3, [r3, #12]
 433 0014 0393     		str	r3, [sp, #12]
 434              		.loc 1 215 0
ARM GAS  /tmp/ccnl3zJt.s 			page 9


 435 0016 019B     		ldr	r3, [sp, #4]
 436 0018 0022     		movs	r2, #0
 437 001a DA60     		str	r2, [r3, #12]
 438              		.loc 1 217 0
 439 001c FFF7FEFF 		bl	dbg_check_unlock
 440              	.LBB11:
 441 0020 0023     		movs	r3, #0
 442              	@ 217 "../../../os/kernel/src/chevents.c" 1
 443 0022 83F31188 		msr     BASEPRI, r3
 444              	@ 0 "" 2
 445              		.thumb
 446              	.LBE11:
 447              		.loc 1 218 0
 448 0026 039B     		ldr	r3, [sp, #12]
 449              		.loc 1 219 0
 450 0028 1846     		mov	r0, r3
 451 002a 05B0     		add	sp, sp, #20
 452              		@ sp needed
 453 002c 5DF804FB 		ldr	pc, [sp], #4
 454              		.cfi_endproc
 455              	.LFE12:
 456              		.size	chEvtGetAndClearFlags, .-chEvtGetAndClearFlags
 457              		.section	.rodata
 458              		.align	2
 459              	.LC3:
 460 0044 22636845 		.ascii	"\"chEvtSignal\"()\000"
 460      76745369 
 460      676E616C 
 460      22282900 
 461              		.section	.text.chEvtSignal,"ax",%progbits
 462              		.align	2
 463              		.p2align 4,,15
 464              		.global	chEvtSignal
 465              		.thumb
 466              		.thumb_func
 467              		.type	chEvtSignal, %function
 468              	chEvtSignal:
 469              	.LFB13:
 470              		.loc 1 229 0
 471              		.cfi_startproc
 472              		@ args = 0, pretend = 0, frame = 8
 473              		@ frame_needed = 0, uses_anonymous_args = 0
 474 0000 00B5     		push	{lr}
 475              		.cfi_def_cfa_offset 4
 476              		.cfi_offset 14, -4
 477 0002 83B0     		sub	sp, sp, #12
 478              		.cfi_def_cfa_offset 16
 479 0004 0190     		str	r0, [sp, #4]
 480 0006 0091     		str	r1, [sp]
 481              		.loc 1 231 0
 482 0008 019B     		ldr	r3, [sp, #4]
 483 000a 002B     		cmp	r3, #0
 484 000c 05D1     		bne	.L22
 485              		.loc 1 231 0 is_stmt 0 discriminator 1
 486 000e 40F20000 		movw	r0, #:lower16:.LC3
 487 0012 C0F20000 		movt	r0, #:upper16:.LC3
 488 0016 FFF7FEFF 		bl	chDbgPanic
ARM GAS  /tmp/ccnl3zJt.s 			page 10


 489              	.L22:
 490              	.LBB12:
 491              		.loc 1 233 0 is_stmt 1
 492 001a 2023     		movs	r3, #32
 493              	@ 233 "../../../os/kernel/src/chevents.c" 1
 494 001c 83F31188 		msr     BASEPRI, r3
 495              	@ 0 "" 2
 496              		.thumb
 497              	.LBE12:
 498 0020 FFF7FEFF 		bl	dbg_check_lock
 499              		.loc 1 234 0
 500 0024 0198     		ldr	r0, [sp, #4]
 501 0026 0099     		ldr	r1, [sp]
 502 0028 FFF7FEFF 		bl	chEvtSignalI
 503              		.loc 1 235 0
 504 002c FFF7FEFF 		bl	chSchRescheduleS
 505              		.loc 1 236 0
 506 0030 FFF7FEFF 		bl	dbg_check_unlock
 507              	.LBB13:
 508 0034 0023     		movs	r3, #0
 509              	@ 236 "../../../os/kernel/src/chevents.c" 1
 510 0036 83F31188 		msr     BASEPRI, r3
 511              	@ 0 "" 2
 512              		.thumb
 513              	.LBE13:
 514              		.loc 1 237 0
 515 003a 03B0     		add	sp, sp, #12
 516              		@ sp needed
 517 003c 5DF804FB 		ldr	pc, [sp], #4
 518              		.cfi_endproc
 519              	.LFE13:
 520              		.size	chEvtSignal, .-chEvtSignal
 521              		.section	.rodata
 522              		.align	2
 523              	.LC4:
 524 0054 22636845 		.ascii	"\"chEvtSignalI\"()\000"
 524      76745369 
 524      676E616C 
 524      49222829 
 524      00
 525              		.section	.text.chEvtSignalI,"ax",%progbits
 526              		.align	2
 527              		.p2align 4,,15
 528              		.global	chEvtSignalI
 529              		.thumb
 530              		.thumb_func
 531              		.type	chEvtSignalI, %function
 532              	chEvtSignalI:
 533              	.LFB14:
 534              		.loc 1 251 0
 535              		.cfi_startproc
 536              		@ args = 0, pretend = 0, frame = 8
 537              		@ frame_needed = 0, uses_anonymous_args = 0
 538 0000 00B5     		push	{lr}
 539              		.cfi_def_cfa_offset 4
 540              		.cfi_offset 14, -4
 541 0002 83B0     		sub	sp, sp, #12
ARM GAS  /tmp/ccnl3zJt.s 			page 11


 542              		.cfi_def_cfa_offset 16
 543 0004 0190     		str	r0, [sp, #4]
 544 0006 0091     		str	r1, [sp]
 545              		.loc 1 253 0
 546 0008 FFF7FEFF 		bl	chDbgCheckClassI
 547              		.loc 1 254 0
 548 000c 019B     		ldr	r3, [sp, #4]
 549 000e 002B     		cmp	r3, #0
 550 0010 05D1     		bne	.L24
 551              		.loc 1 254 0 is_stmt 0 discriminator 1
 552 0012 40F20000 		movw	r0, #:lower16:.LC4
 553 0016 C0F20000 		movt	r0, #:upper16:.LC4
 554 001a FFF7FEFF 		bl	chDbgPanic
 555              	.L24:
 556              		.loc 1 256 0 is_stmt 1
 557 001e 019B     		ldr	r3, [sp, #4]
 558 0020 DA6B     		ldr	r2, [r3, #60]
 559 0022 009B     		ldr	r3, [sp]
 560 0024 1A43     		orrs	r2, r2, r3
 561 0026 019B     		ldr	r3, [sp, #4]
 562 0028 DA63     		str	r2, [r3, #60]
 563              		.loc 1 258 0
 564 002a 019B     		ldr	r3, [sp, #4]
 565 002c 93F82030 		ldrb	r3, [r3, #32]	@ zero_extendqisi2
 566 0030 082B     		cmp	r3, #8
 567 0032 06D1     		bne	.L25
 568              		.loc 1 259 0 discriminator 1
 569 0034 019B     		ldr	r3, [sp, #4]
 570 0036 DA6B     		ldr	r2, [r3, #60]
 571 0038 019B     		ldr	r3, [sp, #4]
 572 003a 9B6A     		ldr	r3, [r3, #40]
 573 003c 1340     		ands	r3, r3, r2
 574              		.loc 1 258 0 discriminator 1
 575 003e 002B     		cmp	r3, #0
 576 0040 0DD1     		bne	.L26
 577              	.L25:
 578              		.loc 1 260 0
 579 0042 019B     		ldr	r3, [sp, #4]
 580 0044 93F82030 		ldrb	r3, [r3, #32]	@ zero_extendqisi2
 581              		.loc 1 259 0
 582 0048 092B     		cmp	r3, #9
 583 004a 0ED1     		bne	.L23
 584              		.loc 1 261 0
 585 004c 019B     		ldr	r3, [sp, #4]
 586 004e DA6B     		ldr	r2, [r3, #60]
 587 0050 019B     		ldr	r3, [sp, #4]
 588 0052 9B6A     		ldr	r3, [r3, #40]
 589 0054 1A40     		ands	r2, r2, r3
 590 0056 019B     		ldr	r3, [sp, #4]
 591 0058 9B6A     		ldr	r3, [r3, #40]
 592              		.loc 1 260 0
 593 005a 9A42     		cmp	r2, r3
 594 005c 05D1     		bne	.L23
 595              	.L26:
 596              		.loc 1 262 0
 597 005e 0198     		ldr	r0, [sp, #4]
 598 0060 FFF7FEFF 		bl	chSchReadyI
ARM GAS  /tmp/ccnl3zJt.s 			page 12


 599 0064 0346     		mov	r3, r0
 600 0066 0022     		movs	r2, #0
 601 0068 9A62     		str	r2, [r3, #40]
 602              	.L23:
 603              		.loc 1 263 0
 604 006a 03B0     		add	sp, sp, #12
 605              		@ sp needed
 606 006c 5DF804FB 		ldr	pc, [sp], #4
 607              		.cfi_endproc
 608              	.LFE14:
 609              		.size	chEvtSignalI, .-chEvtSignalI
 610              		.section	.text.chEvtBroadcastFlags,"ax",%progbits
 611              		.align	2
 612              		.p2align 4,,15
 613              		.global	chEvtBroadcastFlags
 614              		.thumb
 615              		.thumb_func
 616              		.type	chEvtBroadcastFlags, %function
 617              	chEvtBroadcastFlags:
 618              	.LFB15:
 619              		.loc 1 278 0
 620              		.cfi_startproc
 621              		@ args = 0, pretend = 0, frame = 8
 622              		@ frame_needed = 0, uses_anonymous_args = 0
 623 0000 00B5     		push	{lr}
 624              		.cfi_def_cfa_offset 4
 625              		.cfi_offset 14, -4
 626 0002 83B0     		sub	sp, sp, #12
 627              		.cfi_def_cfa_offset 16
 628 0004 0190     		str	r0, [sp, #4]
 629 0006 0091     		str	r1, [sp]
 630              	.LBB14:
 631              		.loc 1 280 0
 632 0008 2023     		movs	r3, #32
 633              	@ 280 "../../../os/kernel/src/chevents.c" 1
 634 000a 83F31188 		msr     BASEPRI, r3
 635              	@ 0 "" 2
 636              		.thumb
 637              	.LBE14:
 638 000e FFF7FEFF 		bl	dbg_check_lock
 639              		.loc 1 281 0
 640 0012 0198     		ldr	r0, [sp, #4]
 641 0014 0099     		ldr	r1, [sp]
 642 0016 FFF7FEFF 		bl	chEvtBroadcastFlagsI
 643              		.loc 1 282 0
 644 001a FFF7FEFF 		bl	chSchRescheduleS
 645              		.loc 1 283 0
 646 001e FFF7FEFF 		bl	dbg_check_unlock
 647              	.LBB15:
 648 0022 0023     		movs	r3, #0
 649              	@ 283 "../../../os/kernel/src/chevents.c" 1
 650 0024 83F31188 		msr     BASEPRI, r3
 651              	@ 0 "" 2
 652              		.thumb
 653              	.LBE15:
 654              		.loc 1 284 0
 655 0028 03B0     		add	sp, sp, #12
ARM GAS  /tmp/ccnl3zJt.s 			page 13


 656              		@ sp needed
 657 002a 5DF804FB 		ldr	pc, [sp], #4
 658              		.cfi_endproc
 659              	.LFE15:
 660              		.size	chEvtBroadcastFlags, .-chEvtBroadcastFlags
 661 002e 00BF     		.section	.text.chEvtGetAndClearFlagsI,"ax",%progbits
 662              		.align	2
 663              		.p2align 4,,15
 664              		.global	chEvtGetAndClearFlagsI
 665              		.thumb
 666              		.thumb_func
 667              		.type	chEvtGetAndClearFlagsI, %function
 668              	chEvtGetAndClearFlagsI:
 669              	.LFB16:
 670              		.loc 1 297 0
 671              		.cfi_startproc
 672              		@ args = 0, pretend = 0, frame = 16
 673              		@ frame_needed = 0, uses_anonymous_args = 0
 674              		@ link register save eliminated.
 675 0000 84B0     		sub	sp, sp, #16
 676              		.cfi_def_cfa_offset 16
 677 0002 0190     		str	r0, [sp, #4]
 678              		.loc 1 300 0
 679 0004 019B     		ldr	r3, [sp, #4]
 680 0006 DB68     		ldr	r3, [r3, #12]
 681 0008 0393     		str	r3, [sp, #12]
 682              		.loc 1 301 0
 683 000a 019B     		ldr	r3, [sp, #4]
 684 000c 0022     		movs	r2, #0
 685 000e DA60     		str	r2, [r3, #12]
 686              		.loc 1 303 0
 687 0010 039B     		ldr	r3, [sp, #12]
 688              		.loc 1 304 0
 689 0012 1846     		mov	r0, r3
 690 0014 04B0     		add	sp, sp, #16
 691              		@ sp needed
 692 0016 7047     		bx	lr
 693              		.cfi_endproc
 694              	.LFE16:
 695              		.size	chEvtGetAndClearFlagsI, .-chEvtGetAndClearFlagsI
 696 0018 AFF30080 		.section	.rodata
 696      AFF30080 
 697 0065 000000   		.align	2
 698              	.LC5:
 699 0068 22636845 		.ascii	"\"chEvtDispatch\"()\000"
 699      76744469 
 699      73706174 
 699      63682228 
 699      2900
 700 007a 0000     		.align	2
 701              	.LC6:
 702 007c 63684576 		.ascii	"chEvtDispatch(), #1\000"
 702      74446973 
 702      70617463 
 702      6828292C 
 702      20233100 
 703              		.section	.text.chEvtDispatch,"ax",%progbits
ARM GAS  /tmp/ccnl3zJt.s 			page 14


 704              		.align	2
 705              		.p2align 4,,15
 706              		.global	chEvtDispatch
 707              		.thumb
 708              		.thumb_func
 709              		.type	chEvtDispatch, %function
 710              	chEvtDispatch:
 711              	.LFB17:
 712              		.loc 1 315 0
 713              		.cfi_startproc
 714              		@ args = 0, pretend = 0, frame = 16
 715              		@ frame_needed = 0, uses_anonymous_args = 0
 716 0000 00B5     		push	{lr}
 717              		.cfi_def_cfa_offset 4
 718              		.cfi_offset 14, -4
 719 0002 85B0     		sub	sp, sp, #20
 720              		.cfi_def_cfa_offset 24
 721 0004 0190     		str	r0, [sp, #4]
 722 0006 0091     		str	r1, [sp]
 723              		.loc 1 318 0
 724 0008 019B     		ldr	r3, [sp, #4]
 725 000a 002B     		cmp	r3, #0
 726 000c 05D1     		bne	.L32
 727              		.loc 1 318 0 is_stmt 0 discriminator 1
 728 000e 40F20000 		movw	r0, #:lower16:.LC5
 729 0012 C0F20000 		movt	r0, #:upper16:.LC5
 730 0016 FFF7FEFF 		bl	chDbgPanic
 731              	.L32:
 732              		.loc 1 320 0 is_stmt 1
 733 001a 0023     		movs	r3, #0
 734 001c 0393     		str	r3, [sp, #12]
 735              		.loc 1 321 0
 736 001e 27E0     		b	.L33
 737              	.L36:
 738              		.loc 1 322 0
 739 0020 0122     		movs	r2, #1
 740 0022 039B     		ldr	r3, [sp, #12]
 741 0024 02FA03F3 		lsl	r3, r2, r3
 742 0028 1A46     		mov	r2, r3
 743 002a 009B     		ldr	r3, [sp]
 744 002c 1340     		ands	r3, r3, r2
 745 002e 002B     		cmp	r3, #0
 746 0030 1BD0     		beq	.L34
 747              		.loc 1 323 0
 748 0032 039B     		ldr	r3, [sp, #12]
 749 0034 9B00     		lsls	r3, r3, #2
 750 0036 019A     		ldr	r2, [sp, #4]
 751 0038 1344     		add	r3, r3, r2
 752 003a 1B68     		ldr	r3, [r3]
 753 003c 002B     		cmp	r3, #0
 754 003e 05D1     		bne	.L35
 755              		.loc 1 323 0 is_stmt 0 discriminator 1
 756 0040 40F20000 		movw	r0, #:lower16:.LC6
 757 0044 C0F20000 		movt	r0, #:upper16:.LC6
 758 0048 FFF7FEFF 		bl	chDbgPanic
 759              	.L35:
 760              		.loc 1 326 0 is_stmt 1
ARM GAS  /tmp/ccnl3zJt.s 			page 15


 761 004c 0122     		movs	r2, #1
 762 004e 039B     		ldr	r3, [sp, #12]
 763 0050 02FA03F3 		lsl	r3, r2, r3
 764 0054 DB43     		mvns	r3, r3
 765 0056 009A     		ldr	r2, [sp]
 766 0058 1340     		ands	r3, r3, r2
 767 005a 0093     		str	r3, [sp]
 768              		.loc 1 327 0
 769 005c 039B     		ldr	r3, [sp, #12]
 770 005e 9B00     		lsls	r3, r3, #2
 771 0060 019A     		ldr	r2, [sp, #4]
 772 0062 1344     		add	r3, r3, r2
 773 0064 1B68     		ldr	r3, [r3]
 774 0066 0398     		ldr	r0, [sp, #12]
 775 0068 9847     		blx	r3
 776              	.L34:
 777              		.loc 1 329 0
 778 006a 039B     		ldr	r3, [sp, #12]
 779 006c 0133     		adds	r3, r3, #1
 780 006e 0393     		str	r3, [sp, #12]
 781              	.L33:
 782              		.loc 1 321 0 discriminator 1
 783 0070 009B     		ldr	r3, [sp]
 784 0072 002B     		cmp	r3, #0
 785 0074 D4D1     		bne	.L36
 786              		.loc 1 331 0
 787 0076 05B0     		add	sp, sp, #20
 788              		@ sp needed
 789 0078 5DF804FB 		ldr	pc, [sp], #4
 790              		.cfi_endproc
 791              	.LFE17:
 792              		.size	chEvtDispatch, .-chEvtDispatch
 793 007c AFF30080 		.section	.text.chEvtWaitOne,"ax",%progbits
 794              		.align	2
 795              		.p2align 4,,15
 796              		.global	chEvtWaitOne
 797              		.thumb
 798              		.thumb_func
 799              		.type	chEvtWaitOne, %function
 800              	chEvtWaitOne:
 801              	.LFB18:
 802              		.loc 1 350 0
 803              		.cfi_startproc
 804              		@ args = 0, pretend = 0, frame = 16
 805              		@ frame_needed = 0, uses_anonymous_args = 0
 806 0000 00B5     		push	{lr}
 807              		.cfi_def_cfa_offset 4
 808              		.cfi_offset 14, -4
 809 0002 85B0     		sub	sp, sp, #20
 810              		.cfi_def_cfa_offset 24
 811 0004 0190     		str	r0, [sp, #4]
 812              		.loc 1 351 0
 813 0006 40F20003 		movw	r3, #:lower16:rlist
 814 000a C0F20003 		movt	r3, #:upper16:rlist
 815 000e 9B69     		ldr	r3, [r3, #24]
 816 0010 0293     		str	r3, [sp, #8]
 817              	.LBB16:
ARM GAS  /tmp/ccnl3zJt.s 			page 16


 818              		.loc 1 354 0
 819 0012 2023     		movs	r3, #32
 820              	@ 354 "../../../os/kernel/src/chevents.c" 1
 821 0014 83F31188 		msr     BASEPRI, r3
 822              	@ 0 "" 2
 823              		.thumb
 824              	.LBE16:
 825 0018 FFF7FEFF 		bl	dbg_check_lock
 826              		.loc 1 356 0
 827 001c 029B     		ldr	r3, [sp, #8]
 828 001e DA6B     		ldr	r2, [r3, #60]
 829 0020 019B     		ldr	r3, [sp, #4]
 830 0022 1340     		ands	r3, r3, r2
 831 0024 0393     		str	r3, [sp, #12]
 832 0026 039B     		ldr	r3, [sp, #12]
 833 0028 002B     		cmp	r3, #0
 834 002a 0AD1     		bne	.L38
 835              		.loc 1 357 0
 836 002c 029B     		ldr	r3, [sp, #8]
 837 002e 019A     		ldr	r2, [sp, #4]
 838 0030 9A62     		str	r2, [r3, #40]
 839              		.loc 1 358 0
 840 0032 0820     		movs	r0, #8
 841 0034 FFF7FEFF 		bl	chSchGoSleepS
 842              		.loc 1 359 0
 843 0038 029B     		ldr	r3, [sp, #8]
 844 003a DA6B     		ldr	r2, [r3, #60]
 845 003c 019B     		ldr	r3, [sp, #4]
 846 003e 1340     		ands	r3, r3, r2
 847 0040 0393     		str	r3, [sp, #12]
 848              	.L38:
 849              		.loc 1 361 0
 850 0042 039B     		ldr	r3, [sp, #12]
 851 0044 5B42     		negs	r3, r3
 852 0046 039A     		ldr	r2, [sp, #12]
 853 0048 1340     		ands	r3, r3, r2
 854 004a 0393     		str	r3, [sp, #12]
 855              		.loc 1 362 0
 856 004c 029B     		ldr	r3, [sp, #8]
 857 004e DA6B     		ldr	r2, [r3, #60]
 858 0050 039B     		ldr	r3, [sp, #12]
 859 0052 DB43     		mvns	r3, r3
 860 0054 1A40     		ands	r2, r2, r3
 861 0056 029B     		ldr	r3, [sp, #8]
 862 0058 DA63     		str	r2, [r3, #60]
 863              		.loc 1 364 0
 864 005a FFF7FEFF 		bl	dbg_check_unlock
 865              	.LBB17:
 866 005e 0023     		movs	r3, #0
 867              	@ 364 "../../../os/kernel/src/chevents.c" 1
 868 0060 83F31188 		msr     BASEPRI, r3
 869              	@ 0 "" 2
 870              		.thumb
 871              	.LBE17:
 872              		.loc 1 365 0
 873 0064 039B     		ldr	r3, [sp, #12]
 874              		.loc 1 366 0
ARM GAS  /tmp/ccnl3zJt.s 			page 17


 875 0066 1846     		mov	r0, r3
 876 0068 05B0     		add	sp, sp, #20
 877              		@ sp needed
 878 006a 5DF804FB 		ldr	pc, [sp], #4
 879              		.cfi_endproc
 880              	.LFE18:
 881              		.size	chEvtWaitOne, .-chEvtWaitOne
 882 006e 00BF     		.section	.text.chEvtWaitAny,"ax",%progbits
 883              		.align	2
 884              		.p2align 4,,15
 885              		.global	chEvtWaitAny
 886              		.thumb
 887              		.thumb_func
 888              		.type	chEvtWaitAny, %function
 889              	chEvtWaitAny:
 890              	.LFB19:
 891              		.loc 1 379 0
 892              		.cfi_startproc
 893              		@ args = 0, pretend = 0, frame = 16
 894              		@ frame_needed = 0, uses_anonymous_args = 0
 895 0000 00B5     		push	{lr}
 896              		.cfi_def_cfa_offset 4
 897              		.cfi_offset 14, -4
 898 0002 85B0     		sub	sp, sp, #20
 899              		.cfi_def_cfa_offset 24
 900 0004 0190     		str	r0, [sp, #4]
 901              		.loc 1 380 0
 902 0006 40F20003 		movw	r3, #:lower16:rlist
 903 000a C0F20003 		movt	r3, #:upper16:rlist
 904 000e 9B69     		ldr	r3, [r3, #24]
 905 0010 0293     		str	r3, [sp, #8]
 906              	.LBB18:
 907              		.loc 1 383 0
 908 0012 2023     		movs	r3, #32
 909              	@ 383 "../../../os/kernel/src/chevents.c" 1
 910 0014 83F31188 		msr     BASEPRI, r3
 911              	@ 0 "" 2
 912              		.thumb
 913              	.LBE18:
 914 0018 FFF7FEFF 		bl	dbg_check_lock
 915              		.loc 1 385 0
 916 001c 029B     		ldr	r3, [sp, #8]
 917 001e DA6B     		ldr	r2, [r3, #60]
 918 0020 019B     		ldr	r3, [sp, #4]
 919 0022 1340     		ands	r3, r3, r2
 920 0024 0393     		str	r3, [sp, #12]
 921 0026 039B     		ldr	r3, [sp, #12]
 922 0028 002B     		cmp	r3, #0
 923 002a 0AD1     		bne	.L41
 924              		.loc 1 386 0
 925 002c 029B     		ldr	r3, [sp, #8]
 926 002e 019A     		ldr	r2, [sp, #4]
 927 0030 9A62     		str	r2, [r3, #40]
 928              		.loc 1 387 0
 929 0032 0820     		movs	r0, #8
 930 0034 FFF7FEFF 		bl	chSchGoSleepS
 931              		.loc 1 388 0
ARM GAS  /tmp/ccnl3zJt.s 			page 18


 932 0038 029B     		ldr	r3, [sp, #8]
 933 003a DA6B     		ldr	r2, [r3, #60]
 934 003c 019B     		ldr	r3, [sp, #4]
 935 003e 1340     		ands	r3, r3, r2
 936 0040 0393     		str	r3, [sp, #12]
 937              	.L41:
 938              		.loc 1 390 0
 939 0042 029B     		ldr	r3, [sp, #8]
 940 0044 DA6B     		ldr	r2, [r3, #60]
 941 0046 039B     		ldr	r3, [sp, #12]
 942 0048 DB43     		mvns	r3, r3
 943 004a 1A40     		ands	r2, r2, r3
 944 004c 029B     		ldr	r3, [sp, #8]
 945 004e DA63     		str	r2, [r3, #60]
 946              		.loc 1 392 0
 947 0050 FFF7FEFF 		bl	dbg_check_unlock
 948              	.LBB19:
 949 0054 0023     		movs	r3, #0
 950              	@ 392 "../../../os/kernel/src/chevents.c" 1
 951 0056 83F31188 		msr     BASEPRI, r3
 952              	@ 0 "" 2
 953              		.thumb
 954              	.LBE19:
 955              		.loc 1 393 0
 956 005a 039B     		ldr	r3, [sp, #12]
 957              		.loc 1 394 0
 958 005c 1846     		mov	r0, r3
 959 005e 05B0     		add	sp, sp, #20
 960              		@ sp needed
 961 0060 5DF804FB 		ldr	pc, [sp], #4
 962              		.cfi_endproc
 963              	.LFE19:
 964              		.size	chEvtWaitAny, .-chEvtWaitAny
 965 0064 AFF30080 		.section	.text.chEvtWaitAll,"ax",%progbits
 965      AFF30080 
 965      AFF30080 
 966              		.align	2
 967              		.p2align 4,,15
 968              		.global	chEvtWaitAll
 969              		.thumb
 970              		.thumb_func
 971              		.type	chEvtWaitAll, %function
 972              	chEvtWaitAll:
 973              	.LFB20:
 974              		.loc 1 407 0
 975              		.cfi_startproc
 976              		@ args = 0, pretend = 0, frame = 16
 977              		@ frame_needed = 0, uses_anonymous_args = 0
 978 0000 00B5     		push	{lr}
 979              		.cfi_def_cfa_offset 4
 980              		.cfi_offset 14, -4
 981 0002 85B0     		sub	sp, sp, #20
 982              		.cfi_def_cfa_offset 24
 983 0004 0190     		str	r0, [sp, #4]
 984              		.loc 1 408 0
 985 0006 40F20003 		movw	r3, #:lower16:rlist
 986 000a C0F20003 		movt	r3, #:upper16:rlist
ARM GAS  /tmp/ccnl3zJt.s 			page 19


 987 000e 9B69     		ldr	r3, [r3, #24]
 988 0010 0393     		str	r3, [sp, #12]
 989              	.LBB20:
 990              		.loc 1 410 0
 991 0012 2023     		movs	r3, #32
 992              	@ 410 "../../../os/kernel/src/chevents.c" 1
 993 0014 83F31188 		msr     BASEPRI, r3
 994              	@ 0 "" 2
 995              		.thumb
 996              	.LBE20:
 997 0018 FFF7FEFF 		bl	dbg_check_lock
 998              		.loc 1 412 0
 999 001c 039B     		ldr	r3, [sp, #12]
 1000 001e DA6B     		ldr	r2, [r3, #60]
 1001 0020 019B     		ldr	r3, [sp, #4]
 1002 0022 1A40     		ands	r2, r2, r3
 1003 0024 019B     		ldr	r3, [sp, #4]
 1004 0026 9A42     		cmp	r2, r3
 1005 0028 05D0     		beq	.L44
 1006              		.loc 1 413 0
 1007 002a 039B     		ldr	r3, [sp, #12]
 1008 002c 019A     		ldr	r2, [sp, #4]
 1009 002e 9A62     		str	r2, [r3, #40]
 1010              		.loc 1 414 0
 1011 0030 0920     		movs	r0, #9
 1012 0032 FFF7FEFF 		bl	chSchGoSleepS
 1013              	.L44:
 1014              		.loc 1 416 0
 1015 0036 039B     		ldr	r3, [sp, #12]
 1016 0038 DA6B     		ldr	r2, [r3, #60]
 1017 003a 019B     		ldr	r3, [sp, #4]
 1018 003c DB43     		mvns	r3, r3
 1019 003e 1A40     		ands	r2, r2, r3
 1020 0040 039B     		ldr	r3, [sp, #12]
 1021 0042 DA63     		str	r2, [r3, #60]
 1022              		.loc 1 418 0
 1023 0044 FFF7FEFF 		bl	dbg_check_unlock
 1024              	.LBB21:
 1025 0048 0023     		movs	r3, #0
 1026              	@ 418 "../../../os/kernel/src/chevents.c" 1
 1027 004a 83F31188 		msr     BASEPRI, r3
 1028              	@ 0 "" 2
 1029              		.thumb
 1030              	.LBE21:
 1031              		.loc 1 419 0
 1032 004e 019B     		ldr	r3, [sp, #4]
 1033              		.loc 1 420 0
 1034 0050 1846     		mov	r0, r3
 1035 0052 05B0     		add	sp, sp, #20
 1036              		@ sp needed
 1037 0054 5DF804FB 		ldr	pc, [sp], #4
 1038              		.cfi_endproc
 1039              	.LFE20:
 1040              		.size	chEvtWaitAll, .-chEvtWaitAll
 1041 0058 AFF30080 		.section	.text.chEvtWaitOneTimeout,"ax",%progbits
 1041      AFF30080 
 1042              		.align	2
ARM GAS  /tmp/ccnl3zJt.s 			page 20


 1043              		.p2align 4,,15
 1044              		.global	chEvtWaitOneTimeout
 1045              		.thumb
 1046              		.thumb_func
 1047              		.type	chEvtWaitOneTimeout, %function
 1048              	chEvtWaitOneTimeout:
 1049              	.LFB21:
 1050              		.loc 1 446 0
 1051              		.cfi_startproc
 1052              		@ args = 0, pretend = 0, frame = 16
 1053              		@ frame_needed = 0, uses_anonymous_args = 0
 1054 0000 00B5     		push	{lr}
 1055              		.cfi_def_cfa_offset 4
 1056              		.cfi_offset 14, -4
 1057 0002 85B0     		sub	sp, sp, #20
 1058              		.cfi_def_cfa_offset 24
 1059 0004 0190     		str	r0, [sp, #4]
 1060 0006 0091     		str	r1, [sp]
 1061              		.loc 1 447 0
 1062 0008 40F20003 		movw	r3, #:lower16:rlist
 1063 000c C0F20003 		movt	r3, #:upper16:rlist
 1064 0010 9B69     		ldr	r3, [r3, #24]
 1065 0012 0293     		str	r3, [sp, #8]
 1066              	.LBB22:
 1067              		.loc 1 450 0
 1068 0014 2023     		movs	r3, #32
 1069              	@ 450 "../../../os/kernel/src/chevents.c" 1
 1070 0016 83F31188 		msr     BASEPRI, r3
 1071              	@ 0 "" 2
 1072              		.thumb
 1073              	.LBE22:
 1074 001a FFF7FEFF 		bl	dbg_check_lock
 1075              		.loc 1 452 0
 1076 001e 029B     		ldr	r3, [sp, #8]
 1077 0020 DA6B     		ldr	r2, [r3, #60]
 1078 0022 019B     		ldr	r3, [sp, #4]
 1079 0024 1340     		ands	r3, r3, r2
 1080 0026 0393     		str	r3, [sp, #12]
 1081 0028 039B     		ldr	r3, [sp, #12]
 1082 002a 002B     		cmp	r3, #0
 1083 002c 1FD1     		bne	.L47
 1084              		.loc 1 453 0
 1085 002e 009B     		ldr	r3, [sp]
 1086 0030 002B     		cmp	r3, #0
 1087 0032 06D1     		bne	.L48
 1088              		.loc 1 454 0
 1089 0034 FFF7FEFF 		bl	dbg_check_unlock
 1090              	.LBB23:
 1091 0038 0023     		movs	r3, #0
 1092              	@ 454 "../../../os/kernel/src/chevents.c" 1
 1093 003a 83F31188 		msr     BASEPRI, r3
 1094              	@ 0 "" 2
 1095              		.thumb
 1096              	.LBE23:
 1097              		.loc 1 455 0
 1098 003e 0023     		movs	r3, #0
 1099 0040 27E0     		b	.L49
ARM GAS  /tmp/ccnl3zJt.s 			page 21


 1100              	.L48:
 1101              		.loc 1 457 0
 1102 0042 029B     		ldr	r3, [sp, #8]
 1103 0044 019A     		ldr	r2, [sp, #4]
 1104 0046 9A62     		str	r2, [r3, #40]
 1105              		.loc 1 458 0
 1106 0048 0820     		movs	r0, #8
 1107 004a 0099     		ldr	r1, [sp]
 1108 004c FFF7FEFF 		bl	chSchGoSleepTimeoutS
 1109 0050 0346     		mov	r3, r0
 1110 0052 002B     		cmp	r3, #0
 1111 0054 06DA     		bge	.L50
 1112              		.loc 1 459 0
 1113 0056 FFF7FEFF 		bl	dbg_check_unlock
 1114              	.LBB24:
 1115 005a 0023     		movs	r3, #0
 1116              	@ 459 "../../../os/kernel/src/chevents.c" 1
 1117 005c 83F31188 		msr     BASEPRI, r3
 1118              	@ 0 "" 2
 1119              		.thumb
 1120              	.LBE24:
 1121              		.loc 1 460 0
 1122 0060 0023     		movs	r3, #0
 1123 0062 16E0     		b	.L49
 1124              	.L50:
 1125              		.loc 1 462 0
 1126 0064 029B     		ldr	r3, [sp, #8]
 1127 0066 DA6B     		ldr	r2, [r3, #60]
 1128 0068 019B     		ldr	r3, [sp, #4]
 1129 006a 1340     		ands	r3, r3, r2
 1130 006c 0393     		str	r3, [sp, #12]
 1131              	.L47:
 1132              		.loc 1 464 0
 1133 006e 039B     		ldr	r3, [sp, #12]
 1134 0070 5B42     		negs	r3, r3
 1135 0072 039A     		ldr	r2, [sp, #12]
 1136 0074 1340     		ands	r3, r3, r2
 1137 0076 0393     		str	r3, [sp, #12]
 1138              		.loc 1 465 0
 1139 0078 029B     		ldr	r3, [sp, #8]
 1140 007a DA6B     		ldr	r2, [r3, #60]
 1141 007c 039B     		ldr	r3, [sp, #12]
 1142 007e DB43     		mvns	r3, r3
 1143 0080 1A40     		ands	r2, r2, r3
 1144 0082 029B     		ldr	r3, [sp, #8]
 1145 0084 DA63     		str	r2, [r3, #60]
 1146              		.loc 1 467 0
 1147 0086 FFF7FEFF 		bl	dbg_check_unlock
 1148              	.LBB25:
 1149 008a 0023     		movs	r3, #0
 1150              	@ 467 "../../../os/kernel/src/chevents.c" 1
 1151 008c 83F31188 		msr     BASEPRI, r3
 1152              	@ 0 "" 2
 1153              		.thumb
 1154              	.LBE25:
 1155              		.loc 1 468 0
 1156 0090 039B     		ldr	r3, [sp, #12]
ARM GAS  /tmp/ccnl3zJt.s 			page 22


 1157              	.L49:
 1158              		.loc 1 469 0
 1159 0092 1846     		mov	r0, r3
 1160 0094 05B0     		add	sp, sp, #20
 1161              		@ sp needed
 1162 0096 5DF804FB 		ldr	pc, [sp], #4
 1163              		.cfi_endproc
 1164              	.LFE21:
 1165              		.size	chEvtWaitOneTimeout, .-chEvtWaitOneTimeout
 1166 009a 00BFAFF3 		.section	.text.chEvtWaitAnyTimeout,"ax",%progbits
 1166      0080
 1167              		.align	2
 1168              		.p2align 4,,15
 1169              		.global	chEvtWaitAnyTimeout
 1170              		.thumb
 1171              		.thumb_func
 1172              		.type	chEvtWaitAnyTimeout, %function
 1173              	chEvtWaitAnyTimeout:
 1174              	.LFB22:
 1175              		.loc 1 489 0
 1176              		.cfi_startproc
 1177              		@ args = 0, pretend = 0, frame = 16
 1178              		@ frame_needed = 0, uses_anonymous_args = 0
 1179 0000 00B5     		push	{lr}
 1180              		.cfi_def_cfa_offset 4
 1181              		.cfi_offset 14, -4
 1182 0002 85B0     		sub	sp, sp, #20
 1183              		.cfi_def_cfa_offset 24
 1184 0004 0190     		str	r0, [sp, #4]
 1185 0006 0091     		str	r1, [sp]
 1186              		.loc 1 490 0
 1187 0008 40F20003 		movw	r3, #:lower16:rlist
 1188 000c C0F20003 		movt	r3, #:upper16:rlist
 1189 0010 9B69     		ldr	r3, [r3, #24]
 1190 0012 0293     		str	r3, [sp, #8]
 1191              	.LBB26:
 1192              		.loc 1 493 0
 1193 0014 2023     		movs	r3, #32
 1194              	@ 493 "../../../os/kernel/src/chevents.c" 1
 1195 0016 83F31188 		msr     BASEPRI, r3
 1196              	@ 0 "" 2
 1197              		.thumb
 1198              	.LBE26:
 1199 001a FFF7FEFF 		bl	dbg_check_lock
 1200              		.loc 1 495 0
 1201 001e 029B     		ldr	r3, [sp, #8]
 1202 0020 DA6B     		ldr	r2, [r3, #60]
 1203 0022 019B     		ldr	r3, [sp, #4]
 1204 0024 1340     		ands	r3, r3, r2
 1205 0026 0393     		str	r3, [sp, #12]
 1206 0028 039B     		ldr	r3, [sp, #12]
 1207 002a 002B     		cmp	r3, #0
 1208 002c 1FD1     		bne	.L52
 1209              		.loc 1 496 0
 1210 002e 009B     		ldr	r3, [sp]
 1211 0030 002B     		cmp	r3, #0
 1212 0032 06D1     		bne	.L53
ARM GAS  /tmp/ccnl3zJt.s 			page 23


 1213              		.loc 1 497 0
 1214 0034 FFF7FEFF 		bl	dbg_check_unlock
 1215              	.LBB27:
 1216 0038 0023     		movs	r3, #0
 1217              	@ 497 "../../../os/kernel/src/chevents.c" 1
 1218 003a 83F31188 		msr     BASEPRI, r3
 1219              	@ 0 "" 2
 1220              		.thumb
 1221              	.LBE27:
 1222              		.loc 1 498 0
 1223 003e 0023     		movs	r3, #0
 1224 0040 22E0     		b	.L54
 1225              	.L53:
 1226              		.loc 1 500 0
 1227 0042 029B     		ldr	r3, [sp, #8]
 1228 0044 019A     		ldr	r2, [sp, #4]
 1229 0046 9A62     		str	r2, [r3, #40]
 1230              		.loc 1 501 0
 1231 0048 0820     		movs	r0, #8
 1232 004a 0099     		ldr	r1, [sp]
 1233 004c FFF7FEFF 		bl	chSchGoSleepTimeoutS
 1234 0050 0346     		mov	r3, r0
 1235 0052 002B     		cmp	r3, #0
 1236 0054 06DA     		bge	.L55
 1237              		.loc 1 502 0
 1238 0056 FFF7FEFF 		bl	dbg_check_unlock
 1239              	.LBB28:
 1240 005a 0023     		movs	r3, #0
 1241              	@ 502 "../../../os/kernel/src/chevents.c" 1
 1242 005c 83F31188 		msr     BASEPRI, r3
 1243              	@ 0 "" 2
 1244              		.thumb
 1245              	.LBE28:
 1246              		.loc 1 503 0
 1247 0060 0023     		movs	r3, #0
 1248 0062 11E0     		b	.L54
 1249              	.L55:
 1250              		.loc 1 505 0
 1251 0064 029B     		ldr	r3, [sp, #8]
 1252 0066 DA6B     		ldr	r2, [r3, #60]
 1253 0068 019B     		ldr	r3, [sp, #4]
 1254 006a 1340     		ands	r3, r3, r2
 1255 006c 0393     		str	r3, [sp, #12]
 1256              	.L52:
 1257              		.loc 1 507 0
 1258 006e 029B     		ldr	r3, [sp, #8]
 1259 0070 DA6B     		ldr	r2, [r3, #60]
 1260 0072 039B     		ldr	r3, [sp, #12]
 1261 0074 DB43     		mvns	r3, r3
 1262 0076 1A40     		ands	r2, r2, r3
 1263 0078 029B     		ldr	r3, [sp, #8]
 1264 007a DA63     		str	r2, [r3, #60]
 1265              		.loc 1 509 0
 1266 007c FFF7FEFF 		bl	dbg_check_unlock
 1267              	.LBB29:
 1268 0080 0023     		movs	r3, #0
 1269              	@ 509 "../../../os/kernel/src/chevents.c" 1
ARM GAS  /tmp/ccnl3zJt.s 			page 24


 1270 0082 83F31188 		msr     BASEPRI, r3
 1271              	@ 0 "" 2
 1272              		.thumb
 1273              	.LBE29:
 1274              		.loc 1 510 0
 1275 0086 039B     		ldr	r3, [sp, #12]
 1276              	.L54:
 1277              		.loc 1 511 0
 1278 0088 1846     		mov	r0, r3
 1279 008a 05B0     		add	sp, sp, #20
 1280              		@ sp needed
 1281 008c 5DF804FB 		ldr	pc, [sp], #4
 1282              		.cfi_endproc
 1283              	.LFE22:
 1284              		.size	chEvtWaitAnyTimeout, .-chEvtWaitAnyTimeout
 1285              		.section	.text.chEvtWaitAllTimeout,"ax",%progbits
 1286              		.align	2
 1287              		.p2align 4,,15
 1288              		.global	chEvtWaitAllTimeout
 1289              		.thumb
 1290              		.thumb_func
 1291              		.type	chEvtWaitAllTimeout, %function
 1292              	chEvtWaitAllTimeout:
 1293              	.LFB23:
 1294              		.loc 1 530 0
 1295              		.cfi_startproc
 1296              		@ args = 0, pretend = 0, frame = 16
 1297              		@ frame_needed = 0, uses_anonymous_args = 0
 1298 0000 00B5     		push	{lr}
 1299              		.cfi_def_cfa_offset 4
 1300              		.cfi_offset 14, -4
 1301 0002 85B0     		sub	sp, sp, #20
 1302              		.cfi_def_cfa_offset 24
 1303 0004 0190     		str	r0, [sp, #4]
 1304 0006 0091     		str	r1, [sp]
 1305              		.loc 1 531 0
 1306 0008 40F20003 		movw	r3, #:lower16:rlist
 1307 000c C0F20003 		movt	r3, #:upper16:rlist
 1308 0010 9B69     		ldr	r3, [r3, #24]
 1309 0012 0393     		str	r3, [sp, #12]
 1310              	.LBB30:
 1311              		.loc 1 533 0
 1312 0014 2023     		movs	r3, #32
 1313              	@ 533 "../../../os/kernel/src/chevents.c" 1
 1314 0016 83F31188 		msr     BASEPRI, r3
 1315              	@ 0 "" 2
 1316              		.thumb
 1317              	.LBE30:
 1318 001a FFF7FEFF 		bl	dbg_check_lock
 1319              		.loc 1 535 0
 1320 001e 039B     		ldr	r3, [sp, #12]
 1321 0020 DA6B     		ldr	r2, [r3, #60]
 1322 0022 019B     		ldr	r3, [sp, #4]
 1323 0024 1A40     		ands	r2, r2, r3
 1324 0026 019B     		ldr	r3, [sp, #4]
 1325 0028 9A42     		cmp	r2, r3
 1326 002a 1AD0     		beq	.L57
ARM GAS  /tmp/ccnl3zJt.s 			page 25


 1327              		.loc 1 536 0
 1328 002c 009B     		ldr	r3, [sp]
 1329 002e 002B     		cmp	r3, #0
 1330 0030 06D1     		bne	.L58
 1331              		.loc 1 537 0
 1332 0032 FFF7FEFF 		bl	dbg_check_unlock
 1333              	.LBB31:
 1334 0036 0023     		movs	r3, #0
 1335              	@ 537 "../../../os/kernel/src/chevents.c" 1
 1336 0038 83F31188 		msr     BASEPRI, r3
 1337              	@ 0 "" 2
 1338              		.thumb
 1339              	.LBE31:
 1340              		.loc 1 538 0
 1341 003c 0023     		movs	r3, #0
 1342 003e 1DE0     		b	.L59
 1343              	.L58:
 1344              		.loc 1 540 0
 1345 0040 039B     		ldr	r3, [sp, #12]
 1346 0042 019A     		ldr	r2, [sp, #4]
 1347 0044 9A62     		str	r2, [r3, #40]
 1348              		.loc 1 541 0
 1349 0046 0920     		movs	r0, #9
 1350 0048 0099     		ldr	r1, [sp]
 1351 004a FFF7FEFF 		bl	chSchGoSleepTimeoutS
 1352 004e 0346     		mov	r3, r0
 1353 0050 002B     		cmp	r3, #0
 1354 0052 06DA     		bge	.L57
 1355              		.loc 1 542 0
 1356 0054 FFF7FEFF 		bl	dbg_check_unlock
 1357              	.LBB32:
 1358 0058 0023     		movs	r3, #0
 1359              	@ 542 "../../../os/kernel/src/chevents.c" 1
 1360 005a 83F31188 		msr     BASEPRI, r3
 1361              	@ 0 "" 2
 1362              		.thumb
 1363              	.LBE32:
 1364              		.loc 1 543 0
 1365 005e 0023     		movs	r3, #0
 1366 0060 0CE0     		b	.L59
 1367              	.L57:
 1368              		.loc 1 546 0
 1369 0062 039B     		ldr	r3, [sp, #12]
 1370 0064 DA6B     		ldr	r2, [r3, #60]
 1371 0066 019B     		ldr	r3, [sp, #4]
 1372 0068 DB43     		mvns	r3, r3
 1373 006a 1A40     		ands	r2, r2, r3
 1374 006c 039B     		ldr	r3, [sp, #12]
 1375 006e DA63     		str	r2, [r3, #60]
 1376              		.loc 1 548 0
 1377 0070 FFF7FEFF 		bl	dbg_check_unlock
 1378              	.LBB33:
 1379 0074 0023     		movs	r3, #0
 1380              	@ 548 "../../../os/kernel/src/chevents.c" 1
 1381 0076 83F31188 		msr     BASEPRI, r3
 1382              	@ 0 "" 2
 1383              		.thumb
ARM GAS  /tmp/ccnl3zJt.s 			page 26


 1384              	.LBE33:
 1385              		.loc 1 549 0
 1386 007a 019B     		ldr	r3, [sp, #4]
 1387              	.L59:
 1388              		.loc 1 550 0
 1389 007c 1846     		mov	r0, r3
 1390 007e 05B0     		add	sp, sp, #20
 1391              		@ sp needed
 1392 0080 5DF804FB 		ldr	pc, [sp], #4
 1393              		.cfi_endproc
 1394              	.LFE23:
 1395              		.size	chEvtWaitAllTimeout, .-chEvtWaitAllTimeout
 1396 0084 AFF30080 		.text
 1396      AFF30080 
 1396      AFF30080 
 1397              	.Letext0:
 1398              		.file 2 "/usr/arm-none-eabi/include/machine/_default_types.h"
 1399              		.file 3 "/usr/arm-none-eabi/include/stdint.h"
 1400              		.file 4 "../../../os/ports/GCC/ARMCMx/chtypes.h"
 1401              		.file 5 "../../../os/kernel/include/chlists.h"
 1402              		.file 6 "../../../os/kernel/include/chthreads.h"
 1403              		.file 7 "../../../os/ports/GCC/ARMCMx/chcore_v7m.h"
 1404              		.file 8 "../../../os/kernel/include/chschd.h"
 1405              		.file 9 "../../../os/kernel/include/chmtx.h"
 1406              		.file 10 "../../../os/kernel/include/chevents.h"