ARM GAS  /tmp/ccnl3zJt.s 			page 1


   1              		.syntax unified
   2              		.cpu cortex-m4
   3              		.fpu softvfp
   4              		.eabi_attribute 20, 1
   5              		.eabi_attribute 21, 1
   6              		.eabi_attribute 23, 3
   7              		.eabi_attribute 24, 1
   8              		.eabi_attribute 25, 1
   9              		.eabi_attribute 26, 1
  10              		.eabi_attribute 30, 6
  11              		.eabi_attribute 34, 1
  12              		.eabi_attribute 18, 4
  13              		.thumb
  14              		.file	"chevents.c"
  15              		.text
  16              	.Ltext0:
  17              		.cfi_sections	.debug_frame
  18              		.section	.rodata
  19              		.align	2
  20              	.LC0:
  21 0000 22636845 		.ascii	"\"chEvtRegisterMask\"()\000"
  21      76745265 
  21      67697374 
  21      65724D61 
  21      736B2228 
  22              		.section	.text.chEvtRegisterMask,"ax",%progbits
  23              		.align	2
  24              		.p2align 4,,15
  25              		.global	chEvtRegisterMask
  26              		.thumb
  27              		.thumb_func
  28              		.type	chEvtRegisterMask, %function
  29              	chEvtRegisterMask:
  30              	.LFB7:
  31              		.file 1 "../../../os/kernel/src/chevents.c"
  32              		.loc 1 85 0
  33              		.cfi_startproc
  34              		@ args = 0, pretend = 0, frame = 16
  35              		@ frame_needed = 0, uses_anonymous_args = 0
  36 0000 00B5     		push	{lr}
  37              		.cfi_def_cfa_offset 4
  38              		.cfi_offset 14, -4
  39 0002 85B0     		sub	sp, sp, #20
  40              		.cfi_def_cfa_offset 24
  41 0004 0390     		str	r0, [sp, #12]
  42 0006 0291     		str	r1, [sp, #8]
  43 0008 0192     		str	r2, [sp, #4]
  44              		.loc 1 87 0
  45 000a 039B     		ldr	r3, [sp, #12]
  46 000c 002B     		cmp	r3, #0
  47 000e 02D0     		beq	.L2
  48              		.loc 1 87 0 is_stmt 0 discriminator 2
  49 0010 029B     		ldr	r3, [sp, #8]
  50 0012 002B     		cmp	r3, #0
  51 0014 05D1     		bne	.L3
  52              	.L2:
  53              		.loc 1 87 0 discriminator 1
ARM GAS  /tmp/ccnl3zJt.s 			page 2


  54 0016 40F20000 		movw	r0, #:lower16:.LC0
  55 001a C0F20000 		movt	r0, #:upper16:.LC0
  56 001e FFF7FEFF 		bl	chDbgPanic
  57              	.L3:
  58              	.LBB2:
  59              		.loc 1 89 0 is_stmt 1
  60 0022 2023     		movs	r3, #32
  61              	@ 89 "../../../os/kernel/src/chevents.c" 1
  62 0024 83F31188 		msr     BASEPRI, r3
  63              	@ 0 "" 2
  64              		.thumb
  65              	.LBE2:
  66 0028 FFF7FEFF 		bl	dbg_check_lock
  67              		.loc 1 90 0
  68 002c 039B     		ldr	r3, [sp, #12]
  69 002e 1A68     		ldr	r2, [r3]
  70 0030 029B     		ldr	r3, [sp, #8]
  71 0032 1A60     		str	r2, [r3]
  72              		.loc 1 91 0
  73 0034 039B     		ldr	r3, [sp, #12]
  74 0036 029A     		ldr	r2, [sp, #8]
  75 0038 1A60     		str	r2, [r3]
  76              		.loc 1 92 0
  77 003a 40F20003 		movw	r3, #:lower16:rlist
  78 003e C0F20003 		movt	r3, #:upper16:rlist
  79 0042 9A69     		ldr	r2, [r3, #24]
  80 0044 029B     		ldr	r3, [sp, #8]
  81 0046 5A60     		str	r2, [r3, #4]
  82              		.loc 1 93 0
  83 0048 029B     		ldr	r3, [sp, #8]
  84 004a 019A     		ldr	r2, [sp, #4]
  85 004c 9A60     		str	r2, [r3, #8]
  86              		.loc 1 94 0
  87 004e 029B     		ldr	r3, [sp, #8]
  88 0050 0022     		movs	r2, #0
  89 0052 DA60     		str	r2, [r3, #12]
  90              		.loc 1 95 0
  91 0054 FFF7FEFF 		bl	dbg_check_unlock
  92              	.LBB3:
  93 0058 0023     		movs	r3, #0
  94              	@ 95 "../../../os/kernel/src/chevents.c" 1
  95 005a 83F31188 		msr     BASEPRI, r3
  96              	@ 0 "" 2
  97              		.thumb
  98              	.LBE3:
  99              		.loc 1 96 0
 100 005e 05B0     		add	sp, sp, #20
 101              		@ sp needed
 102 0060 5DF804FB 		ldr	pc, [sp], #4
 103              		.cfi_endproc
 104              	.LFE7:
 105              		.size	chEvtRegisterMask, .-chEvtRegisterMask
 106 0064 AFF30080 		.section	.rodata
 106      AFF30080 
 106      AFF30080 
 107 0016 0000     		.align	2
 108              	.LC1:
ARM GAS  /tmp/ccnl3zJt.s 			page 3


 109 0018 22636845 		.ascii	"\"chEvtUnregister\"()\000"
 109      7674556E 
 109      72656769 
 109      73746572 
 109      22282900 
 110              		.section	.text.chEvtUnregister,"ax",%progbits
 111              		.align	2
 112              		.p2align 4,,15
 113              		.global	chEvtUnregister
 114              		.thumb
 115              		.thumb_func
 116              		.type	chEvtUnregister, %function
 117              	chEvtUnregister:
 118              	.LFB8:
 119              		.loc 1 111 0
 120              		.cfi_startproc
 121              		@ args = 0, pretend = 0, frame = 16
 122              		@ frame_needed = 0, uses_anonymous_args = 0
 123 0000 00B5     		push	{lr}
 124              		.cfi_def_cfa_offset 4
 125              		.cfi_offset 14, -4
 126 0002 85B0     		sub	sp, sp, #20
 127              		.cfi_def_cfa_offset 24
 128 0004 0190     		str	r0, [sp, #4]
 129 0006 0091     		str	r1, [sp]
 130              		.loc 1 114 0
 131 0008 019B     		ldr	r3, [sp, #4]
 132 000a 002B     		cmp	r3, #0
 133 000c 02D0     		beq	.L5
 134              		.loc 1 114 0 is_stmt 0 discriminator 2
 135 000e 009B     		ldr	r3, [sp]
 136 0010 002B     		cmp	r3, #0
 137 0012 05D1     		bne	.L6
 138              	.L5:
 139              		.loc 1 114 0 discriminator 1
 140 0014 40F20000 		movw	r0, #:lower16:.LC1
 141 0018 C0F20000 		movt	r0, #:upper16:.LC1
 142 001c FFF7FEFF 		bl	chDbgPanic
 143              	.L6:
 144              		.loc 1 116 0 is_stmt 1
 145 0020 019B     		ldr	r3, [sp, #4]
 146 0022 0393     		str	r3, [sp, #12]
 147              	.LBB4:
 148              		.loc 1 117 0
 149 0024 2023     		movs	r3, #32
 150              	@ 117 "../../../os/kernel/src/chevents.c" 1
 151 0026 83F31188 		msr     BASEPRI, r3
 152              	@ 0 "" 2
 153              		.thumb
 154              	.LBE4:
 155 002a FFF7FEFF 		bl	dbg_check_lock
 156              		.loc 1 118 0
 157 002e 0CE0     		b	.L7
 158              	.L10:
 159              		.loc 1 119 0
 160 0030 039B     		ldr	r3, [sp, #12]
 161 0032 1A68     		ldr	r2, [r3]
ARM GAS  /tmp/ccnl3zJt.s 			page 4


 162 0034 009B     		ldr	r3, [sp]
 163 0036 9A42     		cmp	r2, r3
 164 0038 04D1     		bne	.L8
 165              		.loc 1 120 0
 166 003a 009B     		ldr	r3, [sp]
 167 003c 1A68     		ldr	r2, [r3]
 168 003e 039B     		ldr	r3, [sp, #12]
 169 0040 1A60     		str	r2, [r3]
 170              		.loc 1 121 0
 171 0042 07E0     		b	.L9
 172              	.L8:
 173              		.loc 1 123 0
 174 0044 039B     		ldr	r3, [sp, #12]
 175 0046 1B68     		ldr	r3, [r3]
 176 0048 0393     		str	r3, [sp, #12]
 177              	.L7:
 178              		.loc 1 118 0 discriminator 1
 179 004a 039B     		ldr	r3, [sp, #12]
 180 004c 1A68     		ldr	r2, [r3]
 181 004e 019B     		ldr	r3, [sp, #4]
 182 0050 9A42     		cmp	r2, r3
 183 0052 EDD1     		bne	.L10
 184              	.L9:
 185              		.loc 1 125 0
 186 0054 FFF7FEFF 		bl	dbg_check_unlock
 187              	.LBB5:
 188 0058 0023     		movs	r3, #0
 189              	@ 125 "../../../os/kernel/src/chevents.c" 1
 190 005a 83F31188 		msr     BASEPRI, r3
 191              	@ 0 "" 2
 192              		.thumb
 193              	.LBE5:
 194              		.loc 1 126 0
 195 005e 05B0     		add	sp, sp, #20
 196              		@ sp needed
 197 0060 5DF804FB 		ldr	pc, [sp], #4
 198              		.cfi_endproc
 199              	.LFE8:
 200              		.size	chEvtUnregister, .-chEvtUnregister
 201 0064 AFF30080 		.section	.text.chEvtGetAndClearEvents,"ax",%progbits
 201      AFF30080 
 201      AFF30080 
 202              		.align	2
 203              		.p2align 4,,15
 204              		.global	chEvtGetAndClearEvents
 205              		.thumb
 206              		.thumb_func
 207              		.type	chEvtGetAndClearEvents, %function
 208              	chEvtGetAndClearEvents:
 209              	.LFB9:
 210              		.loc 1 136 0
 211              		.cfi_startproc
 212              		@ args = 0, pretend = 0, frame = 16
 213              		@ frame_needed = 0, uses_anonymous_args = 0
 214 0000 00B5     		push	{lr}
 215              		.cfi_def_cfa_offset 4
 216              		.cfi_offset 14, -4
ARM GAS  /tmp/ccnl3zJt.s 			page 5


 217 0002 85B0     		sub	sp, sp, #20
 218              		.cfi_def_cfa_offset 24
 219 0004 0190     		str	r0, [sp, #4]
 220              	.LBB6:
 221              		.loc 1 139 0
 222 0006 2023     		movs	r3, #32
 223              	@ 139 "../../../os/kernel/src/chevents.c" 1
 224 0008 83F31188 		msr     BASEPRI, r3
 225              	@ 0 "" 2
 226              		.thumb
 227              	.LBE6:
 228 000c FFF7FEFF 		bl	dbg_check_lock
 229              		.loc 1 141 0
 230 0010 40F20003 		movw	r3, #:lower16:rlist
 231 0014 C0F20003 		movt	r3, #:upper16:rlist
 232 0018 9B69     		ldr	r3, [r3, #24]
 233 001a DA6B     		ldr	r2, [r3, #60]
 234 001c 019B     		ldr	r3, [sp, #4]
 235 001e 1340     		ands	r3, r3, r2
 236 0020 0393     		str	r3, [sp, #12]
 237              		.loc 1 142 0
 238 0022 40F20003 		movw	r3, #:lower16:rlist
 239 0026 C0F20003 		movt	r3, #:upper16:rlist
 240 002a 9A69     		ldr	r2, [r3, #24]
 241 002c 40F20003 		movw	r3, #:lower16:rlist
 242 0030 C0F20003 		movt	r3, #:upper16:rlist
 243 0034 9B69     		ldr	r3, [r3, #24]
 244 0036 D96B     		ldr	r1, [r3, #60]
 245 0038 019B     		ldr	r3, [sp, #4]
 246 003a DB43     		mvns	r3, r3
 247 003c 0B40     		ands	r3, r3, r1
 248 003e D363     		str	r3, [r2, #60]
 249              		.loc 1 144 0
 250 0040 FFF7FEFF 		bl	dbg_check_unlock
 251              	.LBB7:
 252 0044 0023     		movs	r3, #0
 253              	@ 144 "../../../os/kernel/src/chevents.c" 1
 254 0046 83F31188 		msr     BASEPRI, r3
 255              	@ 0 "" 2
 256              		.thumb
 257              	.LBE7:
 258              		.loc 1 145 0
 259 004a 039B     		ldr	r3, [sp, #12]
 260              		.loc 1 146 0
 261 004c 1846     		mov	r0, r3
 262 004e 05B0     		add	sp, sp, #20
 263              		@ sp needed
 264 0050 5DF804FB 		ldr	pc, [sp], #4
 265              		.cfi_endproc
 266              	.LFE9:
 267              		.size	chEvtGetAndClearEvents, .-chEvtGetAndClearEvents
 268 0054 AFF30080 		.section	.text.chEvtAddEvents,"ax",%progbits
 268      AFF30080 
 268      AFF30080 
 269              		.align	2
 270              		.p2align 4,,15
 271              		.global	chEvtAddEvents
ARM GAS  /tmp/ccnl3zJt.s 			page 6


 272              		.thumb
 273              		.thumb_func
 274              		.type	chEvtAddEvents, %function
 275              	chEvtAddEvents:
 276              	.LFB10:
 277              		.loc 1 157 0
 278              		.cfi_startproc
 279              		@ args = 0, pretend = 0, frame = 8
 280              		@ frame_needed = 0, uses_anonymous_args = 0
 281 0000 00B5     		push	{lr}
 282              		.cfi_def_cfa_offset 4
 283              		.cfi_offset 14, -4
 284 0002 83B0     		sub	sp, sp, #12
 285              		.cfi_def_cfa_offset 16
 286 0004 0190     		str	r0, [sp, #4]
 287              	.LBB8:
 288              		.loc 1 159 0
 289 0006 2023     		movs	r3, #32
 290              	@ 159 "../../../os/kernel/src/chevents.c" 1
 291 0008 83F31188 		msr     BASEPRI, r3
 292              	@ 0 "" 2
 293              		.thumb
 294              	.LBE8:
 295 000c FFF7FEFF 		bl	dbg_check_lock
 296              		.loc 1 161 0
 297 0010 40F20003 		movw	r3, #:lower16:rlist
 298 0014 C0F20003 		movt	r3, #:upper16:rlist
 299 0018 9A69     		ldr	r2, [r3, #24]
 300 001a 40F20003 		movw	r3, #:lower16:rlist
 301 001e C0F20003 		movt	r3, #:upper16:rlist
 302 0022 9B69     		ldr	r3, [r3, #24]
 303 0024 D96B     		ldr	r1, [r3, #60]
 304 0026 019B     		ldr	r3, [sp, #4]
 305 0028 0B43     		orrs	r3, r3, r1
 306 002a D363     		str	r3, [r2, #60]
 307 002c D36B     		ldr	r3, [r2, #60]
 308 002e 0193     		str	r3, [sp, #4]
 309              		.loc 1 163 0
 310 0030 FFF7FEFF 		bl	dbg_check_unlock
 311              	.LBB9:
 312 0034 0023     		movs	r3, #0
 313              	@ 163 "../../../os/kernel/src/chevents.c" 1
 314 0036 83F31188 		msr     BASEPRI, r3
 315              	@ 0 "" 2
 316              		.thumb
 317              	.LBE9:
 318              		.loc 1 164 0
 319 003a 019B     		ldr	r3, [sp, #4]
 320              		.loc 1 165 0
 321 003c 1846     		mov	r0, r3
 322 003e 03B0     		add	sp, sp, #12
 323              		@ sp needed
 324 0040 5DF804FB 		ldr	pc, [sp], #4
 325              		.cfi_endproc
 326              	.LFE10:
 327              		.size	chEvtAddEvents, .-chEvtAddEvents
 328 0044 AFF30080 		.section	.rodata
ARM GAS  /tmp/ccnl3zJt.s 			page 7


 328      AFF30080 
 328      AFF30080 
 329              		.align	2
 330              	.LC2:
 331 002c 22636845 		.ascii	"\"chEvtBroadcastMaskI\"()\000"
 331      76744272 
 331      6F616463 
 331      6173744D 
 331      61736B49 
 332              		.section	.text.chEvtBroadcastFlagsI,"ax",%progbits
 333              		.align	2
 334              		.p2align 4,,15
 335              		.global	chEvtBroadcastFlagsI
 336              		.thumb
 337              		.thumb_func
 338              		.type	chEvtBroadcastFlagsI, %function
 339              	chEvtBroadcastFlagsI:
 340              	.LFB11:
 341              		.loc 1 184 0
 342              		.cfi_startproc
 343              		@ args = 0, pretend = 0, frame = 16
 344              		@ frame_needed = 0, uses_anonymous_args = 0
 345 0000 00B5     		push	{lr}
 346              		.cfi_def_cfa_offset 4
 347              		.cfi_offset 14, -4
 348 0002 85B0     		sub	sp, sp, #20
 349              		.cfi_def_cfa_offset 24
 350 0004 0190     		str	r0, [sp, #4]
 351 0006 0091     		str	r1, [sp]
 352              		.loc 1 187 0
 353 0008 FFF7FEFF 		bl	chDbgCheckClassI
 354              		.loc 1 188 0
 355 000c 019B     		ldr	r3, [sp, #4]
 356 000e 002B     		cmp	r3, #0
 357 0010 05D1     		bne	.L16
 358              		.loc 1 188 0 is_stmt 0 discriminator 1
 359 0012 40F20000 		movw	r0, #:lower16:.LC2
 360 0016 C0F20000 		movt	r0, #:upper16:.LC2
 361 001a FFF7FEFF 		bl	chDbgPanic
 362              	.L16:
 363              		.loc 1 190 0 is_stmt 1
 364 001e 019B     		ldr	r3, [sp, #4]
 365 0020 1B68     		ldr	r3, [r3]
 366 0022 0393     		str	r3, [sp, #12]
 367              		.loc 1 191 0
 368 0024 10E0     		b	.L17
 369              	.L18:
 370              		.loc 1 192 0
 371 0026 039B     		ldr	r3, [sp, #12]
 372 0028 DA68     		ldr	r2, [r3, #12]
 373 002a 009B     		ldr	r3, [sp]
 374 002c 1A43     		orrs	r2, r2, r3
 375 002e 039B     		ldr	r3, [sp, #12]
 376 0030 DA60     		str	r2, [r3, #12]
 377              		.loc 1 193 0
 378 0032 039B     		ldr	r3, [sp, #12]
 379 0034 5A68     		ldr	r2, [r3, #4]
ARM GAS  /tmp/ccnl3zJt.s 			page 8


 380 0036 039B     		ldr	r3, [sp, #12]
 381 0038 9B68     		ldr	r3, [r3, #8]
 382 003a 1046     		mov	r0, r2
 383 003c 1946     		mov	r1, r3
 384 003e FFF7FEFF 		bl	chEvtSignalI
 385              		.loc 1 194 0
 386 0042 039B     		ldr	r3, [sp, #12]
 387 0044 1B68     		ldr	r3, [r3]
 388 0046 0393     		str	r3, [sp, #12]
 389              	.L17:
 390              		.loc 1 191 0 discriminator 1
 391 0048 039A     		ldr	r2, [sp, #12]
 392 004a 019B     		ldr	r3, [sp, #4]
 393 004c 9A42     		cmp	r2, r3
 394 004e EAD1     		bne	.L18
 395              		.loc 1 196 0
 396 0050 05B0     		add	sp, sp, #20
 397              		@ sp needed
 398 0052 5DF804FB 		ldr	pc, [sp], #4
 399              		.cfi_endproc
 400              	.LFE11:
 401              		.size	chEvtBroadcastFlagsI, .-chEvtBroadcastFlagsI
 402 0056 00BFAFF3 		.section	.text.chEvtGetAndClearFlags,"ax",%progbits
 402      0080AFF3 
 402      0080
 403              		.align	2
 404              		.p2align 4,,15
 405              		.global	chEvtGetAndClearFlags
 406              		.thumb
 407              		.thumb_func
 408              		.type	chEvtGetAndClearFlags, %function
 409              	chEvtGetAndClearFlags:
 410              	.LFB12:
 411              		.loc 1 209 0
 412              		.cfi_startproc
 413              		@ args = 0, pretend = 0, frame = 16
 414              		@ frame_needed = 0, uses_anonymous_args = 0
 415 0000 00B5     		push	{lr}
 416              		.cfi_def_cfa_offset 4
 417              		.cfi_offset 14, -4
 418 0002 85B0     		sub	sp, sp, #20
 419              		.cfi_def_cfa_offset 24
 420 0004 0190     		str	r0, [sp, #4]
 421              	.LBB10:
 422              		.loc 1 212 0
 423 0006 2023     		movs	r3, #32
 424              	@ 212 "../../../os/kernel/src/chevents.c" 1
 425 0008 83F31188 		msr     BASEPRI, r3
 426              	@ 0 "" 2
 427              		.thumb
 428              	.LBE10:
 429 000c FFF7FEFF 		bl	dbg_check_lock
 430              		.loc 1 214 0
 431 0010 019B     		ldr	r3, [sp, #4]
 432 0012 DB68     		ldr	r3, [r3, #12]
 433 0014 0393     		str	r3, [sp, #12]
 434              		.loc 1 215 0
ARM GAS  /tmp/ccnl3zJt.s 			page 9


 435 0016 019B     		ldr	r3, [sp, #4]
 436 0018 0022     		movs	r2, #0
 437 001a DA60     		str	r2, [r3, #12]
 438              		.loc 1 217 0
 439 001c FFF7FEFF 		bl	dbg_check_unlock
 440              	.LBB11:
 441 0020 0023     		movs	r3, #0
 442              	@ 217 "../../../os/kernel/src/chevents.c" 1
 443 0022 83F31188 		msr     BASEPRI, r3
 444              	@ 0 "" 2
 445              		.thumb
 446              	.LBE11:
 447              		.loc 1 218 0
 448 0026 039B     		ldr	r3, [sp, #12]
 449              		.loc 1 219 0
 450 0028 1846     		mov	r0, r3
 451 002a 05B0     		add	sp, sp, #20
 452              		@ sp needed
 453 002c 5DF804FB 		ldr	pc, [sp], #4
 454              		.cfi_endproc
 455              	.LFE12:
 456              		.size	chEvtGetAndClearFlags, .-chEvtGetAndClearFlags
 457              		.section	.rodata
 458              		.align	2
 459              	.LC3:
 460 0044 22636845 		.ascii	"\"chEvtSignal\"()\000"
 460      76745369 
 460      676E616C 
 460      22282900 
 461              		.section	.text.chEvtSignal,"ax",%progbits
 462              		.align	2
 463              		.p2align 4,,15
 464              		.global	chEvtSignal
 465              		.thumb
 466              		.thumb_func
 467              		.type	chEvtSignal, %function
 468              	chEvtSignal:
 469              	.LFB13:
 470              		.loc 1 229 0
 471              		.cfi_startproc
 472              		@ args = 0, pretend = 0, frame = 8
 473              		@ frame_needed = 0, uses_anonymous_args = 0
 474 0000 00B5     		push	{lr}
 475              		.cfi_def_cfa_offset 4
 476              		.cfi_offset 14, -4
 477 0002 83B0     		sub	sp, sp, #12
 478              		.cfi_def_cfa_offset 16
 479 0004 0190     		str	r0, [sp, #4]
 480 0006 0091     		str	r1, [sp]
 481              		.loc 1 231 0
 482 0008 019B     		ldr	r3, [sp, #4]
 483 000a 002B     		cmp	r3, #0
 484 000c 05D1     		bne	.L22
 485              		.loc 1 231 0 is_stmt 0 discriminator 1
 486 000e 40F20000 		movw	r0, #:lower16:.LC3
 487 0012 C0F20000 		movt	r0, #:upper16:.LC3
 488 0016 FFF7FEFF 		bl	chDbgPanic
ARM GAS  /tmp/ccnl3zJt.s 			page 10


 489              	.L22:
 490              	.LBB12:
 491              		.loc 1 233 0 is_stmt 1
 492 001a 2023     		movs	r3, #32
 493              	@ 233 "../../../os/kernel/src/chevents.c" 1
 494 001c 83F31188 		msr     BASEPRI, r3
 495              	@ 0 "" 2
 496              		.thumb
 497              	.LBE12:
 498 0020 FFF7FEFF 		bl	dbg_check_lock
 499              		.loc 1 234 0
 500 0024 0198     		ldr	r0, [sp, #4]
 501 0026 0099     		ldr	r1, [sp]
 502 0028 FFF7FEFF 		bl	chEvtSignalI
 503              		.loc 1 235 0
 504 002c FFF7FEFF 		bl	chSchRescheduleS
 505              		.loc 1 236 0
 506 0030 FFF7FEFF 		bl	dbg_check_unlock
 507              	.LBB13:
 508 0034 0023     		movs	r3, #0
 509              	@ 236 "../../../os/kernel/src/chevents.c" 1
 510 0036 83F31188 		msr     BASEPRI, r3
 511              	@ 0 "" 2
 512              		.thumb
 513              	.LBE13:
 514              		.loc 1 237 0
 515 003a 03B0     		add	sp, sp, #12
 516              		@ sp needed
 517 003c 5DF804FB 		ldr	pc, [sp], #4
 518              		.cfi_endproc
 519              	.LFE13:
 520              		.size	chEvtSignal, .-chEvtSignal
 521              		.section	.rodata
 522              		.align	2
 523              	.LC4:
 524 0054 22636845 		.ascii	"\"chEvtSignalI\"()\000"
 524      76745369 
 524      676E616C 
 524      49222829 
 524      00
 525              		.section	.text.chEvtSignalI,"ax",%progbits
 526              		.align	2
 527              		.p2align 4,,15
 528              		.global	chEvtSignalI
 529              		.thumb
 530              		.thumb_func
 531              		.type	chEvtSignalI, %function
 532              	chEvtSignalI:
 533              	.LFB14:
 534              		.loc 1 251 0
 535              		.cfi_startproc
 536              		@ args = 0, pretend = 0, frame = 8
 537              		@ frame_needed = 0, uses_anonymous_args = 0
 538 0000 00B5     		push	{lr}
 539              		.cfi_def_cfa_offset 4
 540              		.cfi_offset 14, -4
 541 0002 83B0     		sub	sp, sp, #12
ARM GAS  /tmp/ccnl3zJt.s 			page 11


 542              		.cfi_def_cfa_offset 16
 543 0004 0190     		str	r0, [sp, #4]
 544 0006 0091     		str	r1, [sp]
 545              		.loc 1 253 0
 546 0008 FFF7FEFF 		bl	chDbgCheckClassI
 547              		.loc 1 254 0
 548 000c 019B     		ldr	r3, [sp, #4]
 549 000e 002B     		cmp	r3, #0
 550 0010 05D1     		bne	.L24
 551              		.loc 1 254 0 is_stmt 0 discriminator 1
 552 0012 40F20000 		movw	r0, #:lower16:.LC4
 553 0016 C0F20000 		movt	r0, #:upper16:.LC4
 554 001a FFF7FEFF 		bl	chDbgPanic
 555              	.L24:
 556              		.loc 1 256 0 is_stmt 1
 557 001e 019B     		ldr	r3, [sp, #4]
 558 0020 DA6B     		ldr	r2, [r3, #60]
 559 0022 009B     		ldr	r3, [sp]
 560 0024 1A43     		orrs	r2, r2, r3
 561 0026 019B     		ldr	r3, [sp, #4]
 562 0028 DA63     		str	r2, [r3, #60]
 563              		.loc 1 258 0
 564 002a 019B     		ldr	r3, [sp, #4]
 565 002c 93F82030 		ldrb	r3, [r3, #32]	@ zero_extendqisi2
 566 0030 082B     		cmp	r3, #8
 567 0032 06D1     		bne	.L25
 568              		.loc 1 259 0 discriminator 1
 569 0034 019B     		ldr	r3, [sp, #4]
 570 0036 DA6B     		ldr	r2, [r3, #60]
 571 0038 019B     		ldr	r3, [sp, #4]
 572 003a 9B6A     		ldr	r3, [r3, #40]
 573 003c 1340     		ands	r3, r3, r2
 574              		.loc 1 258 0 discriminator 1
 575 003e 002B     		cmp	r3, #0
 576 0040 0DD1     		bne	.L26
 577              	.L25:
 578              		.loc 1 260 0
 579 0042 019B     		ldr	r3, [sp, #4]
 580 0044 93F82030 		ldrb	r3, [r3, #32]	@ zero_extendqisi2
 581              		.loc 1 259 0
 582 0048 092B     		cmp	r3, #9
 583 004a 0ED1     		bne	.L23
 584              		.loc 1 261 0
 585 004c 019B     		ldr	r3, [sp, #4]
 586 004e DA6B     		ldr	r2, [r3, #60]
 587 0050 019B     		ldr	r3, [sp, #4]
 588 0052 9B6A     		ldr	r3, [r3, #40]
 589 0054 1A40     		ands	r2, r2, r3
 590 0056 019B     		ldr	r3, [sp, #4]
 591 0058 9B6A     		ldr	r3, [r3, #40]
 592              		.loc 1 260 0
 593 005a 9A42     		cmp	r2, r3
 594 005c 05D1     		bne	.L23
 595              	.L26:
 596              		.loc 1 262 0
 597 005e 0198     		ldr	r0, [sp, #4]
 598 0060 FFF7FEFF 		bl	chSchReadyI
ARM GAS  /tmp/ccnl3zJt.s 			page 12


 599 0064 0346     		mov	r3, r0
 600 0066 0022     		movs	r2, #0
 601 0068 9A62     		str	r2, [r3, #40]
 602              	.L23:
 603              		.loc 1 263 0
 604 006a 03B0     		add	sp, sp, #12
 605              		@ sp needed
 606 006c 5DF804FB 		ldr	pc, [sp], #4
 607              		.cfi_endproc
 608              	.LFE14:
 609              		.size	chEvtSignalI, .-chEvtSignalI
 610              		.section	.text.chEvtBroadcastFlags,"ax",%progbits
 611              		.align	2
 612              		.p2align 4,,15
 613              		.global	chEvtBroadcastFlags
 614              		.thumb
 615              		.thumb_func
 616              		.type	chEvtBroadcastFlags, %function
 617              	chEvtBroadcastFlags:
 618              	.LFB15:
 619              		.loc 1 278 0
 620              		.cfi_startproc
 621              		@ args = 0, pretend = 0, frame = 8
 622              		@ frame_needed = 0, uses_anonymous_args = 0
 623 0000 00B5     		push	{lr}
 624              		.cfi_def_cfa_offset 4
 625              		.cfi_offset 14, -4
 626 0002 83B0     		sub	sp, sp, #12
 627              		.cfi_def_cfa_offset 16
 628 0004 0190     		str	r0, [sp, #4]
 629 0006 0091     		str	r1, [sp]
 630              	.LBB14:
 631              		.loc 1 280 0
 632 0008 2023     		movs	r3, #32
 633              	@ 280 "../../../os/kernel/src/chevents.c" 1
 634 000a 83F31188 		msr     BASEPRI, r3
 635              	@ 0 "" 2
 636              		.thumb
 637              	.LBE14:
 638 000e FFF7FEFF 		bl	dbg_check_lock
 639              		.loc 1 281 0
 640 0012 0198     		ldr	r0, [sp, #4]
 641 0014 0099     		ldr	r1, [sp]
 642 0016 FFF7FEFF 		bl	chEvtBroadcastFlagsI
 643              		.loc 1 282 0
 644 001a FFF7FEFF 		bl	chSchRescheduleS
 645              		.loc 1 283 0
 646 001e FFF7FEFF 		bl	dbg_check_unlock
 647              	.LBB15:
 648 0022 0023     		movs	r3, #0
 649              	@ 283 "../../../os/kernel/src/chevents.c" 1
 650 0024 83F31188 		msr     BASEPRI, r3
 651              	@ 0 "" 2
 652              		.thumb
 653              	.LBE15:
 654              		.loc 1 284 0
 655 0028 03B0     		add	sp, sp, #12
ARM GAS  /tmp/ccnl3zJt.s 			page 13


 656              		@ sp needed
 657 002a 5DF804FB 		ldr	pc, [sp], #4
 658              		.cfi_endproc
 659              	.LFE15:
 660              		.size	chEvtBroadcastFlags, .-chEvtBroadcastFlags
 661 002e 00BF     		.section	.text.chEvtGetAndClearFlagsI,"ax",%progbits
 662              		.align	2
 663              		.p2align 4,,15
 664              		.global	chEvtGetAndClearFlagsI
 665              		.thumb
 666              		.thumb_func
 667              		.type	chEvtGetAndClearFlagsI, %function
 668              	chEvtGetAndClearFlagsI:
 669              	.LFB16:
 670              		.loc 1 297 0
 671              		.cfi_startproc
 672              		@ args = 0, pretend = 0, frame = 16
 673              		@ frame_needed = 0, uses_anonymous_args = 0
 674              		@ link register save eliminated.
 675 0000 84B0     		sub	sp, sp, #16
 676              		.cfi_def_cfa_offset 16
 677 0002 0190     		str	r0, [sp, #4]
 678              		.loc 1 300 0
 679 0004 019B     		ldr	r3, [sp, #4]
 680 0006 DB68     		ldr	r3, [r3, #12]
 681 0008 0393     		str	r3, [sp, #12]
 682              		.loc 1 301 0
 683 000a 019B     		ldr	r3, [sp, #4]
 684 000c 0022     		movs	r2, #0
 685 000e DA60     		str	r2, [r3, #12]
 686              		.loc 1 303 0
 687 0010 039B     		ldr	r3, [sp, #12]
 688              		.loc 1 304 0
 689 0012 1846     		mov	r0, r3
 690 0014 04B0     		add	sp, sp, #16
 691              		@ sp needed
 692 0016 7047     		bx	lr
 693              		.cfi_endproc
 694              	.LFE16:
 695              		.size	chEvtGetAndClearFlagsI, .-chEvtGetAndClearFlagsI
 696 0018 AFF30080 		.section	.rodata
 696      AFF30080 
 697 0065 000000   		.align	2
 698              	.LC5:
 699 0068 22636845 		.ascii	"\"chEvtDispatch\"()\000"
 699      76744469 
 699      73706174 
 699      63682228 
 699      2900
 700 007a 0000     		.align	2
 701              	.LC6:
 702 007c 63684576 		.ascii	"chEvtDispatch(), #1\000"
 702      74446973 
 702      70617463 
 702      6828292C 
 702      20233100 
 703              		.section	.text.chEvtDispatch,"ax",%progbits
ARM GAS  /tmp/ccnl3zJt.s 			page 14


 704              		.align	2
 705              		.p2align 4,,15
 706              		.global	chEvtDispatch
 707              		.thumb
 708              		.thumb_func
 709              		.type	chEvtDispatch, %function
 710              	chEvtDispatch:
 711              	.LFB17:
 712              		.loc 1 315 0
 713              		.cfi_startproc
 714              		@ args = 0, pretend = 0, frame = 16
 715              		@ frame_needed = 0, uses_anonymous_args = 0
 716 0000 00B5     		push	{lr}
 717              		.cfi_def_cfa_offset 4
 718              		.cfi_offset 14, -4
 719 0002 85B0     		sub	sp, sp, #20
 720              		.cfi_def_cfa_offset 24
 721 0004 0190     		str	r0, [sp, #4]
 722 0006 0091     		str	r1, [sp]
 723              		.loc 1 318 0
 724 0008 019B     		ldr	r3, [sp, #4]
 725 000a 002B     		cmp	r3, #0
 726 000c 05D1     		bne	.L32
 727              		.loc 1 318 0 is_stmt 0 discriminator 1
 728 000e 40F20000 		movw	r0, #:lower16:.LC5
 729 0012 C0F20000 		movt	r0, #:upper16:.LC5
 730 0016 FFF7FEFF 		bl	chDbgPanic
 731              	.L32:
 732              		.loc 1 320 0 is_stmt 1
 733 001a 0023     		movs	r3, #0
 734 001c 0393     		str	r3, [sp, #12]
 735              		.loc 1 321 0
 736 001e 27E0     		b	.L33
 737              	.L36:
 738              		.loc 1 322 0
 739 0020 0122     		movs	r2, #1
 740 0022 039B     		ldr	r3, [sp, #12]
 741 0024 02FA03F3 		lsl	r3, r2, r3
 742 0028 1A46     		mov	r2, r3
 743 002a 009B     		ldr	r3, [sp]
 744 002c 1340     		ands	r3, r3, r2
 745 002e 002B     		cmp	r3, #0
 746 0030 1BD0     		beq	.L34
 747              		.loc 1 323 0
 748 0032 039B     		ldr	r3, [sp, #12]
 749 0034 9B00     		lsls	r3, r3, #2
 750 0036 019A     		ldr	r2, [sp, #4]
 751 0038 1344     		add	r3, r3, r2
 752 003a 1B68     		ldr	r3, [r3]
 753 003c 002B     		cmp	r3, #0
 754 003e 05D1     		bne	.L35
 755              		.loc 1 323 0 is_stmt 0 discriminator 1
 756 0040 40F20000 		movw	r0, #:lower16:.LC6
 757 0044 C0F20000 		movt	r0, #:upper16:.LC6
 758 0048 FFF7FEFF 		bl	chDbgPanic
 759              	.L35:
 760              		.loc 1 326 0 is_stmt 1
ARM GAS  /tmp/ccnl3zJt.s 			page 15


 761 004c 0122     		movs	r2, #1
 762 004e 039B     		ldr	r3, [sp, #12]
 763 0050 02FA03F3 		lsl	r3, r2, r3
 764 0054 DB43     		mvns	r3, r3
 765 0056 009A     		ldr	r2, [sp]
 766 0058 1340     		ands	r3, r3, r2
 767 005a 0093     		str	r3, [sp]
 768              		.loc 1 327 0
 769 005c 039B     		ldr	r3, [sp, #12]
 770 005e 9B00     		lsls	r3, r3, #2
 771 0060 019A     		ldr	r2, [sp, #4]
 772 0062 1344     		add	r3, r3, r2
 773 0064 1B68     		ldr	r3, [r3]
 774 0066 0398     		ldr	r0, [sp, #12]
 775 0068 9847     		blx	r3
 776              	.L34:
 777              		.loc 1 329 0
 778 006a 039B     		ldr	r3, [sp, #12]
 779 006c 0133     		adds	r3, r3, #1
 780 006e 0393     		str	r3, [sp, #12]
 781              	.L33:
 782              		.loc 1 321 0 discriminator 1
 783 0070 009B     		ldr	r3, [sp]
 784 0072 002B     		cmp	r3, #0
 785 0074 D4D1     		bne	.L36
 786              		.loc 1 331 0
 787 0076 05B0     		add	sp, sp, #20
 788              		@ sp needed
 789 0078 5DF804FB 		ldr	pc, [sp], #4
 790              		.cfi_endproc
 791              	.LFE17:
 792              		.size	chEvtDispatch, .-chEvtDispatch
 793 007c AFF30080 		.section	.text.chEvtWaitOne,"ax",%progbits
 794              		.align	2
 795              		.p2align 4,,15
 796              		.global	chEvtWaitOne
 797              		.thumb
 798              		.thumb_func
 799              		.type	chEvtWaitOne, %function
 800              	chEvtWaitOne:
 801              	.LFB18:
 802              		.loc 1 350 0
 803              		.cfi_startproc
 804              		@ args = 0, pretend = 0, frame = 16
 805              		@ frame_needed = 0, uses_anonymous_args = 0
 806 0000 00B5     		push	{lr}
 807              		.cfi_def_cfa_offset 4
 808              		.cfi_offset 14, -4
 809 0002 85B0     		sub	sp, sp, #20
 810              		.cfi_def_cfa_offset 24
 811 0004 0190     		str	r0, [sp, #4]
 812              		.loc 1 351 0
 813 0006 40F20003 		movw	r3, #:lower16:rlist
 814 000a C0F20003 		movt	r3, #:upper16:rlist
 815 000e 9B69     		ldr	r3, [r3, #24]
 816 0010 0293     		str	r3, [sp, #8]
 817              	.LBB16:
ARM GAS  /tmp/ccnl3zJt.s 			page 16


 818              		.loc 1 354 0
 819 0012 2023     		movs	r3, #32
 820              	@ 354 "../../../os/kernel/src/chevents.c" 1
 821 0014 83F31188 		msr     BASEPRI, r3
 822              	@ 0 "" 2
 823              		.thumb
 824              	.LBE16:
 825 0018 FFF7FEFF 		bl	dbg_check_lock
 826              		.loc 1 356 0
 827 001c 029B     		ldr	r3, [sp, #8]
 828 001e DA6B     		ldr	r2, [r3, #60]
 829 0020 019B     		ldr	r3, [sp, #4]
 830 0022 1340     		ands	r3, r3, r2
 831 0024 0393     		str	r3, [sp, #12]
 832 0026 039B     		ldr	r3, [sp, #12]
 833 0028 002B     		cmp	r3, #0
 834 002a 0AD1     		bne	.L38
 835              		.loc 1 357 0
 836 002c 029B     		ldr	r3, [sp, #8]
 837 002e 019A     		ldr	r2, [sp, #4]
 838 0030 9A62     		str	r2, [r3, #40]
 839              		.loc 1 358 0
 840 0032 0820     		movs	r0, #8
 841 0034 FFF7FEFF 		bl	chSchGoSleepS
 842              		.loc 1 359 0
 843 0038 029B     		ldr	r3, [sp, #8]
 844 003a DA6B     		ldr	r2, [r3, #60]
 845 003c 019B     		ldr	r3, [sp, #4]
 846 003e 1340     		ands	r3, r3, r2
 847 0040 0393     		str	r3, [sp, #12]
 848              	.L38:
 849              		.loc 1 361 0
 850 0042 039B     		ldr	r3, [sp, #12]
 851 0044 5B42     		negs	r3, r3
 852 0046 039A     		ldr	r2, [sp, #12]
 853 0048 1340     		ands	r3, r3, r2
 854 004a 0393     		str	r3, [sp, #12]
 855              		.loc 1 362 0
 856 004c 029B     		ldr	r3, [sp, #8]
 857 004e DA6B     		ldr	r2, [r3, #60]
 858 0050 039B     		ldr	r3, [sp, #12]
 859 0052 DB43     		mvns	r3, r3
 860 0054 1A40     		ands	r2, r2, r3
 861 0056 029B     		ldr	r3, [sp, #8]
 862 0058 DA63     		str	r2, [r3, #60]
 863              		.loc 1 364 0
 864 005a FFF7FEFF 		bl	dbg_check_unlock
 865              	.LBB17:
 866 005e 0023     		movs	r3, #0
 867              	@ 364 "../../../os/kernel/src/chevents.c" 1
 868 0060 83F31188 		msr     BASEPRI, r3
 869              	@ 0 "" 2
 870              		.thumb
 871              	.LBE17:
 872              		.loc 1 365 0
 873 0064 039B     		ldr	r3, [sp, #12]
 874              		.loc 1 366 0
ARM GAS  /tmp/ccnl3zJt.s 			page 17


 875 0066 1846     		mov	r0, r3
 876 0068 05B0     		add	sp, sp, #20
 877              		@ sp needed
 878 006a 5DF804FB 		ldr	pc, [sp], #4
 879              		.cfi_endproc
 880              	.LFE18:
 881              		.size	chEvtWaitOne, .-chEvtWaitOne
 882 006e 00BF     		.section	.text.chEvtWaitAny,"ax",%progbits
 883              		.align	2
 884              		.p2align 4,,15
 885              		.global	chEvtWaitAny
 886              		.thumb
 887              		.thumb_func
 888              		.type	chEvtWaitAny, %function
 889              	chEvtWaitAny:
 890              	.LFB19:
 891              		.loc 1 379 0
 892              		.cfi_startproc
 893              		@ args = 0, pretend = 0, frame = 16
 894              		@ frame_needed = 0, uses_anonymous_args = 0
 895 0000 00B5     		push	{lr}
 896              		.cfi_def_cfa_offset 4
 897              		.cfi_offset 14, -4
 898 0002 85B0     		sub	sp, sp, #20
 899              		.cfi_def_cfa_offset 24
 900 0004 0190     		str	r0, [sp, #4]
 901              		.loc 1 380 0
 902 0006 40F20003 		movw	r3, #:lower16:rlist
 903 000a C0F20003 		movt	r3, #:upper16:rlist
 904 000e 9B69     		ldr	r3, [r3, #24]
 905 0010 0293     		str	r3, [sp, #8]
 906              	.LBB18:
 907              		.loc 1 383 0
 908 0012 2023     		movs	r3, #32
 909              	@ 383 "../../../os/kernel/src/chevents.c" 1
 910 0014 83F31188 		msr     BASEPRI, r3
 911              	@ 0 "" 2
 912              		.thumb
 913              	.LBE18:
 914 0018 FFF7FEFF 		bl	dbg_check_lock
 915              		.loc 1 385 0
 916 001c 029B     		ldr	r3, [sp, #8]
 917 001e DA6B     		ldr	r2, [r3, #60]
 918 0020 019B     		ldr	r3, [sp, #4]
 919 0022 1340     		ands	r3, r3, r2
 920 0024 0393     		str	r3, [sp, #12]
 921 0026 039B     		ldr	r3, [sp, #12]
 922 0028 002B     		cmp	r3, #0
 923 002a 0AD1     		bne	.L41
 924              		.loc 1 386 0
 925 002c 029B     		ldr	r3, [sp, #8]
 926 002e 019A     		ldr	r2, [sp, #4]
 927 0030 9A62     		str	r2, [r3, #40]
 928              		.loc 1 387 0
 929 0032 0820     		movs	r0, #8
 930 0034 FFF7FEFF 		bl	chSchGoSleepS
 931              		.loc 1 388 0
ARM GAS  /tmp/ccnl3zJt.s 			page 18


 932 0038 029B     		ldr	r3, [sp, #8]
 933 003a DA6B     		ldr	r2, [r3, #60]
 934 003c 019B     		ldr	r3, [sp, #4]
 935 003e 1340     		ands	r3, r3, r2
 936 0040 0393     		str	r3, [sp, #12]
 937              	.L41:
 938              		.loc 1 390 0
 939 0042 029B     		ldr	r3, [sp, #8]
 940 0044 DA6B     		ldr	r2, [r3, #60]
 941 0046 039B     		ldr	r3, [sp, #12]
 942 0048 DB43     		mvns	r3, r3
 943 004a 1A40     		ands	r2, r2, r3
 944 004c 029B     		ldr	r3, [sp, #8]
 945 004e DA63     		str	r2, [r3, #60]
 946              		.loc 1 392 0
 947 0050 FFF7FEFF 		bl	dbg_check_unlock
 948              	.LBB19:
 949 0054 0023     		movs	r3, #0
 950              	@ 392 "../../../os/kernel/src/chevents.c" 1
 951 0056 83F31188 		msr     BASEPRI, r3
 952              	@ 0 "" 2
 953              		.thumb
 954              	.LBE19:
 955              		.loc 1 393 0
 956 005a 039B     		ldr	r3, [sp, #12]
 957              		.loc 1 394 0
 958 005c 1846     		mov	r0, r3
 959 005e 05B0     		add	sp, sp, #20
 960              		@ sp needed
 961 0060 5DF804FB 		ldr	pc, [sp], #4
 962              		.cfi_endproc
 963              	.LFE19:
 964              		.size	chEvtWaitAny, .-chEvtWaitAny
 965 0064 AFF30080 		.section	.text.chEvtWaitAll,"ax",%progbits
 965      AFF30080 
 965      AFF30080 
 966              		.align	2
 967              		.p2align 4,,15
 968              		.global	chEvtWaitAll
 969              		.thumb
 970              		.thumb_func
 971              		.type	chEvtWaitAll, %function
 972              	chEvtWaitAll:
 973              	.LFB20:
 974              		.loc 1 407 0
 975              		.cfi_startproc
 976              		@ args = 0, pretend = 0, frame = 16
 977              		@ frame_needed = 0, uses_anonymous_args = 0
 978 0000 00B5     		push	{lr}
 979              		.cfi_def_cfa_offset 4
 980              		.cfi_offset 14, -4
 981 0002 85B0     		sub	sp, sp, #20
 982              		.cfi_def_cfa_offset 24
 983 0004 0190     		str	r0, [sp, #4]
 984              		.loc 1 408 0
 985 0006 40F20003 		movw	r3, #:lower16:rlist
 986 000a C0F20003 		movt	r3, #:upper16:rlist
ARM GAS  /tmp/ccnl3zJt.s 			page 19


 987 000e 9B69     		ldr	r3, [r3, #24]
 988 0010 0393     		str	r3, [sp, #12]
 989              	.LBB20:
 990              		.loc 1 410 0
 991 0012 2023     		movs	r3, #32
 992              	@ 410 "../../../os/kernel/src/chevents.c" 1
 993 0014 83F31188 		msr     BASEPRI, r3
 994              	@ 0 "" 2
 995              		.thumb
 996              	.LBE20:
 997 0018 FFF7FEFF 		bl	dbg_check_lock
 998              		.loc 1 412 0
 999 001c 039B     		ldr	r3, [sp, #12]
 1000 001e DA6B     		ldr	r2, [r3, #60]
 1001 0020 019B     		ldr	r3, [sp, #4]
 1002 0022 1A40     		ands	r2, r2, r3
 1003 0024 019B     		ldr	r3, [sp, #4]
 1004 0026 9A42     		cmp	r2, r3
 1005 0028 05D0     		beq	.L44
 1006              		.loc 1 413 0
 1007 002a 039B     		ldr	r3, [sp, #12]
 1008 002c 019A     		ldr	r2, [sp, #4]
 1009 002e 9A62     		str	r2, [r3, #40]
 1010              		.loc 1 414 0
 1011 0030 0920     		movs	r0, #9
 1012 0032 FFF7FEFF 		bl	chSchGoSleepS
 1013              	.L44:
 1014              		.loc 1 416 0
 1015 0036 039B     		ldr	r3, [sp, #12]
 1016 0038 DA6B     		ldr	r2, [r3, #60]
 1017 003a 019B     		ldr	r3, [sp, #4]
 1018 003c DB43     		mvns	r3, r3
 1019 003e 1A40     		ands	r2, r2, r3
 1020 0040 039B     		ldr	r3, [sp, #12]
 1021 0042 DA63     		str	r2, [r3, #60]
 1022              		.loc 1 418 0
 1023 0044 FFF7FEFF 		bl	dbg_check_unlock
 1024              	.LBB21:
 1025 0048 0023     		movs	r3, #0
 1026              	@ 418 "../../../os/kernel/src/chevents.c" 1
 1027 004a 83F31188 		msr     BASEPRI, r3
 1028              	@ 0 "" 2
 1029              		.thumb
 1030              	.LBE21:
 1031              		.loc 1 419 0
 1032 004e 019B     		ldr	r3, [sp, #4]
 1033              		.loc 1 420 0
 1034 0050 1846     		mov	r0, r3
 1035 0052 05B0     		add	sp, sp, #20
 1036              		@ sp needed
 1037 0054 5DF804FB 		ldr	pc, [sp], #4
 1038              		.cfi_endproc
 1039              	.LFE20:
 1040              		.size	chEvtWaitAll, .-chEvtWaitAll
 1041 0058 AFF30080 		.section	.text.chEvtWaitOneTimeout,"ax",%progbits
 1041      AFF30080 
 1042              		.align	2
ARM GAS  /tmp/ccnl3zJt.s 			page 20


 1043              		.p2align 4,,15
 1044              		.global	chEvtWaitOneTimeout
 1045              		.thumb
 1046              		.thumb_func
 1047              		.type	chEvtWaitOneTimeout, %function
 1048              	chEvtWaitOneTimeout:
 1049              	.LFB21:
 1050              		.loc 1 446 0
 1051              		.cfi_startproc
 1052              		@ args = 0, pretend = 0, frame = 16
 1053              		@ frame_needed = 0, uses_anonymous_args = 0
 1054 0000 00B5     		push	{lr}
 1055              		.cfi_def_cfa_offset 4
 1056              		.cfi_offset 14, -4
 1057 0002 85B0     		sub	sp, sp, #20
 1058              		.cfi_def_cfa_offset 24
 1059 0004 0190     		str	r0, [sp, #4]
 1060 0006 0091     		str	r1, [sp]
 1061              		.loc 1 447 0
 1062 0008 40F20003 		movw	r3, #:lower16:rlist
 1063 000c C0F20003 		movt	r3, #:upper16:rlist
 1064 0010 9B69     		ldr	r3, [r3, #24]
 1065 0012 0293     		str	r3, [sp, #8]
 1066              	.LBB22:
 1067              		.loc 1 450 0
 1068 0014 2023     		movs	r3, #32
 1069              	@ 450 "../../../os/kernel/src/chevents.c" 1
 1070 0016 83F31188 		msr     BASEPRI, r3
 1071              	@ 0 "" 2
 1072              		.thumb
 1073              	.LBE22:
 1074 001a FFF7FEFF 		bl	dbg_check_lock
 1075              		.loc 1 452 0
 1076 001e 029B     		ldr	r3, [sp, #8]
 1077 0020 DA6B     		ldr	r2, [r3, #60]
 1078 0022 019B     		ldr	r3, [sp, #4]
 1079 0024 1340     		ands	r3, r3, r2
 1080 0026 0393     		str	r3, [sp, #12]
 1081 0028 039B     		ldr	r3, [sp, #12]
 1082 002a 002B     		cmp	r3, #0
 1083 002c 1FD1     		bne	.L47
 1084              		.loc 1 453 0
 1085 002e 009B     		ldr	r3, [sp]
 1086 0030 002B     		cmp	r3, #0
 1087 0032 06D1     		bne	.L48
 1088              		.loc 1 454 0
 1089 0034 FFF7FEFF 		bl	dbg_check_unlock
 1090              	.LBB23:
 1091 0038 0023     		movs	r3, #0
 1092              	@ 454 "../../../os/kernel/src/chevents.c" 1
 1093 003a 83F31188 		msr     BASEPRI, r3
 1094              	@ 0 "" 2
 1095              		.thumb
 1096              	.LBE23:
 1097              		.loc 1 455 0
 1098 003e 0023     		movs	r3, #0
 1099 0040 27E0     		b	.L49
ARM GAS  /tmp/ccnl3zJt.s 			page 21


 1100              	.L48:
 1101              		.loc 1 457 0
 1102 0042 029B     		ldr	r3, [sp, #8]
 1103 0044 019A     		ldr	r2, [sp, #4]
 1104 0046 9A62     		str	r2, [r3, #40]
 1105              		.loc 1 458 0
 1106 0048 0820     		movs	r0, #8
 1107 004a 0099     		ldr	r1, [sp]
 1108 004c FFF7FEFF 		bl	chSchGoSleepTimeoutS
 1109 0050 0346     		mov	r3, r0
 1110 0052 002B     		cmp	r3, #0
 1111 0054 06DA     		bge	.L50
 1112              		.loc 1 459 0
 1113 0056 FFF7FEFF 		bl	dbg_check_unlock
 1114              	.LBB24:
 1115 005a 0023     		movs	r3, #0
 1116              	@ 459 "../../../os/kernel/src/chevents.c" 1
 1117 005c 83F31188 		msr     BASEPRI, r3
 1118              	@ 0 "" 2
 1119              		.thumb
 1120              	.LBE24:
 1121              		.loc 1 460 0
 1122 0060 0023     		movs	r3, #0
 1123 0062 16E0     		b	.L49
 1124              	.L50:
 1125              		.loc 1 462 0
 1126 0064 029B     		ldr	r3, [sp, #8]
 1127 0066 DA6B     		ldr	r2, [r3, #60]
 1128 0068 019B     		ldr	r3, [sp, #4]
 1129 006a 1340     		ands	r3, r3, r2
 1130 006c 0393     		str	r3, [sp, #12]
 1131              	.L47:
 1132              		.loc 1 464 0
 1133 006e 039B     		ldr	r3, [sp, #12]
 1134 0070 5B42     		negs	r3, r3
 1135 0072 039A     		ldr	r2, [sp, #12]
 1136 0074 1340     		ands	r3, r3, r2
 1137 0076 0393     		str	r3, [sp, #12]
 1138              		.loc 1 465 0
 1139 0078 029B     		ldr	r3, [sp, #8]
 1140 007a DA6B     		ldr	r2, [r3, #60]
 1141 007c 039B     		ldr	r3, [sp, #12]
 1142 007e DB43     		mvns	r3, r3
 1143 0080 1A40     		ands	r2, r2, r3
 1144 0082 029B     		ldr	r3, [sp, #8]
 1145 0084 DA63     		str	r2, [r3, #60]
 1146              		.loc 1 467 0
 1147 0086 FFF7FEFF 		bl	dbg_check_unlock
 1148              	.LBB25:
 1149 008a 0023     		movs	r3, #0
 1150              	@ 467 "../../../os/kernel/src/chevents.c" 1
 1151 008c 83F31188 		msr     BASEPRI, r3
 1152              	@ 0 "" 2
 1153              		.thumb
 1154              	.LBE25:
 1155              		.loc 1 468 0
 1156 0090 039B     		ldr	r3, [sp, #12]
ARM GAS  /tmp/ccnl3zJt.s 			page 22


 1157              	.L49:
 1158              		.loc 1 469 0
 1159 0092 1846     		mov	r0, r3
 1160 0094 05B0     		add	sp, sp, #20
 1161              		@ sp needed
 1162 0096 5DF804FB 		ldr	pc, [sp], #4
 1163              		.cfi_endproc
 1164              	.LFE21:
 1165              		.size	chEvtWaitOneTimeout, .-chEvtWaitOneTimeout
 1166 009a 00BFAFF3 		.section	.text.chEvtWaitAnyTimeout,"ax",%progbits
 1166      0080
 1167              		.align	2
 1168              		.p2align 4,,15
 1169              		.global	chEvtWaitAnyTimeout
 1170              		.thumb
 1171              		.thumb_func
 1172              		.type	chEvtWaitAnyTimeout, %function
 1173              	chEvtWaitAnyTimeout:
 1174              	.LFB22:
 1175              		.loc 1 489 0
 1176              		.cfi_startproc
 1177              		@ args = 0, pretend = 0, frame = 16
 1178              		@ frame_needed = 0, uses_anonymous_args = 0
 1179 0000 00B5     		push	{lr}
 1180              		.cfi_def_cfa_offset 4
 1181              		.cfi_offset 14, -4
 1182 0002 85B0     		sub	sp, sp, #20
 1183              		.cfi_def_cfa_offset 24
 1184 0004 0190     		str	r0, [sp, #4]
 1185 0006 0091     		str	r1, [sp]
 1186              		.loc 1 490 0
 1187 0008 40F20003 		movw	r3, #:lower16:rlist
 1188 000c C0F20003 		movt	r3, #:upper16:rlist
 1189 0010 9B69     		ldr	r3, [r3, #24]
 1190 0012 0293     		str	r3, [sp, #8]
 1191              	.LBB26:
 1192              		.loc 1 493 0
 1193 0014 2023     		movs	r3, #32
 1194              	@ 493 "../../../os/kernel/src/chevents.c" 1
 1195 0016 83F31188 		msr     BASEPRI, r3
 1196              	@ 0 "" 2
 1197              		.thumb
 1198              	.LBE26:
 1199 001a FFF7FEFF 		bl	dbg_check_lock
 1200              		.loc 1 495 0
 1201 001e 029B     		ldr	r3, [sp, #8]
 1202 0020 DA6B     		ldr	r2, [r3, #60]
 1203 0022 019B     		ldr	r3, [sp, #4]
 1204 0024 1340     		ands	r3, r3, r2
 1205 0026 0393     		str	r3, [sp, #12]
 1206 0028 039B     		ldr	r3, [sp, #12]
 1207 002a 002B     		cmp	r3, #0
 1208 002c 1FD1     		bne	.L52
 1209              		.loc 1 496 0
 1210 002e 009B     		ldr	r3, [sp]
 1211 0030 002B     		cmp	r3, #0
 1212 0032 06D1     		bne	.L53
ARM GAS  /tmp/ccnl3zJt.s 			page 23


 1213              		.loc 1 497 0
 1214 0034 FFF7FEFF 		bl	dbg_check_unlock
 1215              	.LBB27:
 1216 0038 0023     		movs	r3, #0
 1217              	@ 497 "../../../os/kernel/src/chevents.c" 1
 1218 003a 83F31188 		msr     BASEPRI, r3
 1219              	@ 0 "" 2
 1220              		.thumb
 1221              	.LBE27:
 1222              		.loc 1 498 0
 1223 003e 0023     		movs	r3, #0
 1224 0040 22E0     		b	.L54
 1225              	.L53:
 1226              		.loc 1 500 0
 1227 0042 029B     		ldr	r3, [sp, #8]
 1228 0044 019A     		ldr	r2, [sp, #4]
 1229 0046 9A62     		str	r2, [r3, #40]
 1230              		.loc 1 501 0
 1231 0048 0820     		movs	r0, #8
 1232 004a 0099     		ldr	r1, [sp]
 1233 004c FFF7FEFF 		bl	chSchGoSleepTimeoutS
 1234 0050 0346     		mov	r3, r0
 1235 0052 002B     		cmp	r3, #0
 1236 0054 06DA     		bge	.L55
 1237              		.loc 1 502 0
 1238 0056 FFF7FEFF 		bl	dbg_check_unlock
 1239              	.LBB28:
 1240 005a 0023     		movs	r3, #0
 1241              	@ 502 "../../../os/kernel/src/chevents.c" 1
 1242 005c 83F31188 		msr     BASEPRI, r3
 1243              	@ 0 "" 2
 1244              		.thumb
 1245              	.LBE28:
 1246              		.loc 1 503 0
 1247 0060 0023     		movs	r3, #0
 1248 0062 11E0     		b	.L54
 1249              	.L55:
 1250              		.loc 1 505 0
 1251 0064 029B     		ldr	r3, [sp, #8]
 1252 0066 DA6B     		ldr	r2, [r3, #60]
 1253 0068 019B     		ldr	r3, [sp, #4]
 1254 006a 1340     		ands	r3, r3, r2
 1255 006c 0393     		str	r3, [sp, #12]
 1256              	.L52:
 1257              		.loc 1 507 0
 1258 006e 029B     		ldr	r3, [sp, #8]
 1259 0070 DA6B     		ldr	r2, [r3, #60]
 1260 0072 039B     		ldr	r3, [sp, #12]
 1261 0074 DB43     		mvns	r3, r3
 1262 0076 1A40     		ands	r2, r2, r3
 1263 0078 029B     		ldr	r3, [sp, #8]
 1264 007a DA63     		str	r2, [r3, #60]
 1265              		.loc 1 509 0
 1266 007c FFF7FEFF 		bl	dbg_check_unlock
 1267              	.LBB29:
 1268 0080 0023     		movs	r3, #0
 1269              	@ 509 "../../../os/kernel/src/chevents.c" 1
ARM GAS  /tmp/ccnl3zJt.s 			page 24


 1270 0082 83F31188 		msr     BASEPRI, r3
 1271              	@ 0 "" 2
 1272              		.thumb
 1273              	.LBE29:
 1274              		.loc 1 510 0
 1275 0086 039B     		ldr	r3, [sp, #12]
 1276              	.L54:
 1277              		.loc 1 511 0
 1278 0088 1846     		mov	r0, r3
 1279 008a 05B0     		add	sp, sp, #20
 1280              		@ sp needed
 1281 008c 5DF804FB 		ldr	pc, [sp], #4
 1282              		.cfi_endproc
 1283              	.LFE22:
 1284              		.size	chEvtWaitAnyTimeout, .-chEvtWaitAnyTimeout
 1285              		.section	.text.chEvtWaitAllTimeout,"ax",%progbits
 1286              		.align	2
 1287              		.p2align 4,,15
 1288              		.global	chEvtWaitAllTimeout
 1289              		.thumb
 1290              		.thumb_func
 1291              		.type	chEvtWaitAllTimeout, %function
 1292              	chEvtWaitAllTimeout:
 1293              	.LFB23:
 1294              		.loc 1 530 0
 1295              		.cfi_startproc
 1296              		@ args = 0, pretend = 0, frame = 16
 1297              		@ frame_needed = 0, uses_anonymous_args = 0
 1298 0000 00B5     		push	{lr}
 1299              		.cfi_def_cfa_offset 4
 1300              		.cfi_offset 14, -4
 1301 0002 85B0     		sub	sp, sp, #20
 1302              		.cfi_def_cfa_offset 24
 1303 0004 0190     		str	r0, [sp, #4]
 1304 0006 0091     		str	r1, [sp]
 1305              		.loc 1 531 0
 1306 0008 40F20003 		movw	r3, #:lower16:rlist
 1307 000c C0F20003 		movt	r3, #:upper16:rlist
 1308 0010 9B69     		ldr	r3, [r3, #24]
 1309 0012 0393     		str	r3, [sp, #12]
 1310              	.LBB30:
 1311              		.loc 1 533 0
 1312 0014 2023     		movs	r3, #32
 1313              	@ 533 "../../../os/kernel/src/chevents.c" 1
 1314 0016 83F31188 		msr     BASEPRI, r3
 1315              	@ 0 "" 2
 1316              		.thumb
 1317              	.LBE30:
 1318 001a FFF7FEFF 		bl	dbg_check_lock
 1319              		.loc 1 535 0
 1320 001e 039B     		ldr	r3, [sp, #12]
 1321 0020 DA6B     		ldr	r2, [r3, #60]
 1322 0022 019B     		ldr	r3, [sp, #4]
 1323 0024 1A40     		ands	r2, r2, r3
 1324 0026 019B     		ldr	r3, [sp, #4]
 1325 0028 9A42     		cmp	r2, r3
 1326 002a 1AD0     		beq	.L57
ARM GAS  /tmp/ccnl3zJt.s 			page 25


 1327              		.loc 1 536 0
 1328 002c 009B     		ldr	r3, [sp]
 1329 002e 002B     		cmp	r3, #0
 1330 0030 06D1     		bne	.L58
 1331              		.loc 1 537 0
 1332 0032 FFF7FEFF 		bl	dbg_check_unlock
 1333              	.LBB31:
 1334 0036 0023     		movs	r3, #0
 1335              	@ 537 "../../../os/kernel/src/chevents.c" 1
 1336 0038 83F31188 		msr     BASEPRI, r3
 1337              	@ 0 "" 2
 1338              		.thumb
 1339              	.LBE31:
 1340              		.loc 1 538 0
 1341 003c 0023     		movs	r3, #0
 1342 003e 1DE0     		b	.L59
 1343              	.L58:
 1344              		.loc 1 540 0
 1345 0040 039B     		ldr	r3, [sp, #12]
 1346 0042 019A     		ldr	r2, [sp, #4]
 1347 0044 9A62     		str	r2, [r3, #40]
 1348              		.loc 1 541 0
 1349 0046 0920     		movs	r0, #9
 1350 0048 0099     		ldr	r1, [sp]
 1351 004a FFF7FEFF 		bl	chSchGoSleepTimeoutS
 1352 004e 0346     		mov	r3, r0
 1353 0050 002B     		cmp	r3, #0
 1354 0052 06DA     		bge	.L57
 1355              		.loc 1 542 0
 1356 0054 FFF7FEFF 		bl	dbg_check_unlock
 1357              	.LBB32:
 1358 0058 0023     		movs	r3, #0
 1359              	@ 542 "../../../os/kernel/src/chevents.c" 1
 1360 005a 83F31188 		msr     BASEPRI, r3
 1361              	@ 0 "" 2
 1362              		.thumb
 1363              	.LBE32:
 1364              		.loc 1 543 0
 1365 005e 0023     		movs	r3, #0
 1366 0060 0CE0     		b	.L59
 1367              	.L57:
 1368              		.loc 1 546 0
 1369 0062 039B     		ldr	r3, [sp, #12]
 1370 0064 DA6B     		ldr	r2, [r3, #60]
 1371 0066 019B     		ldr	r3, [sp, #4]
 1372 0068 DB43     		mvns	r3, r3
 1373 006a 1A40     		ands	r2, r2, r3
 1374 006c 039B     		ldr	r3, [sp, #12]
 1375 006e DA63     		str	r2, [r3, #60]
 1376              		.loc 1 548 0
 1377 0070 FFF7FEFF 		bl	dbg_check_unlock
 1378              	.LBB33:
 1379 0074 0023     		movs	r3, #0
 1380              	@ 548 "../../../os/kernel/src/chevents.c" 1
 1381 0076 83F31188 		msr     BASEPRI, r3
 1382              	@ 0 "" 2
 1383              		.thumb
ARM GAS  /tmp/ccnl3zJt.s 			page 26


 1384              	.LBE33:
 1385              		.loc 1 549 0
 1386 007a 019B     		ldr	r3, [sp, #4]
 1387              	.L59:
 1388              		.loc 1 550 0
 1389 007c 1846     		mov	r0, r3
 1390 007e 05B0     		add	sp, sp, #20
 1391              		@ sp needed
 1392 0080 5DF804FB 		ldr	pc, [sp], #4
 1393              		.cfi_endproc
 1394              	.LFE23:
 1395              		.size	chEvtWaitAllTimeout, .-chEvtWaitAllTimeout
 1396 0084 AFF30080 		.text
 1396      AFF30080 
 1396      AFF30080 
 1397              	.Letext0:
 1398              		.file 2 "/usr/arm-none-eabi/include/machine/_default_types.h"
 1399              		.file 3 "/usr/arm-none-eabi/include/stdint.h"
 1400              		.file 4 "../../../os/ports/GCC/ARMCMx/chtypes.h"
 1401              		.file 5 "../../../os/kernel/include/chlists.h"
 1402              		.file 6 "../../../os/kernel/include/chthreads.h"
 1403              		.file 7 "../../../os/ports/GCC/ARMCMx/chcore_v7m.h"
 1404              		.file 8 "../../../os/kernel/include/chschd.h"
 1405              		.file 9 "../../../os/kernel/include/chmtx.h"
 1406              		.file 10 "../../../os/kernel/include/chevents.h"
 1407              		.section	.debug_info,"",%progbits
 1408              	.Ldebug_info0:
 1409 0000 520C0000 		.4byte	0xc52
 1410 0004 0400     		.2byte	0x4
 1411 0006 00000000 		.4byte	.Ldebug_abbrev0
 1412 000a 04       		.byte	0x4
 1413 000b 01       		.uleb128 0x1
 1414 000c 9E040000 		.4byte	.LASF101
 1415 0010 01       		.byte	0x1
 1416 0011 92010000 		.4byte	.LASF102
 1417 0015 2B040000 		.4byte	.LASF103
 1418 0019 00000000 		.4byte	.Ldebug_ranges0+0
 1419 001d 00000000 		.4byte	0
 1420 0021 00000000 		.4byte	.Ldebug_line0
 1421 0025 02       		.uleb128 0x2
 1422 0026 04       		.byte	0x4
 1423 0027 05       		.byte	0x5
 1424 0028 696E7400 		.ascii	"int\000"
 1425 002c 03       		.uleb128 0x3
 1426 002d 04       		.byte	0x4
 1427 002e 07       		.byte	0x7
 1428 002f 5C010000 		.4byte	.LASF0
 1429 0033 03       		.uleb128 0x3
 1430 0034 01       		.byte	0x1
 1431 0035 06       		.byte	0x6
 1432 0036 8C000000 		.4byte	.LASF1
 1433 003a 04       		.uleb128 0x4
 1434 003b 16000000 		.4byte	.LASF5
 1435 003f 02       		.byte	0x2
 1436 0040 1C       		.byte	0x1c
 1437 0041 45000000 		.4byte	0x45
 1438 0045 03       		.uleb128 0x3
ARM GAS  /tmp/ccnl3zJt.s 			page 27


 1439 0046 01       		.byte	0x1
 1440 0047 08       		.byte	0x8
 1441 0048 D9020000 		.4byte	.LASF2
 1442 004c 03       		.uleb128 0x3
 1443 004d 02       		.byte	0x2
 1444 004e 05       		.byte	0x5
 1445 004f 13030000 		.4byte	.LASF3
 1446 0053 03       		.uleb128 0x3
 1447 0054 02       		.byte	0x2
 1448 0055 07       		.byte	0x7
 1449 0056 BC010000 		.4byte	.LASF4
 1450 005a 04       		.uleb128 0x4
 1451 005b A7030000 		.4byte	.LASF6
 1452 005f 02       		.byte	0x2
 1453 0060 37       		.byte	0x37
 1454 0061 65000000 		.4byte	0x65
 1455 0065 03       		.uleb128 0x3
 1456 0066 04       		.byte	0x4
 1457 0067 05       		.byte	0x5
 1458 0068 C6000000 		.4byte	.LASF7
 1459 006c 04       		.uleb128 0x4
 1460 006d 02010000 		.4byte	.LASF8
 1461 0071 02       		.byte	0x2
 1462 0072 38       		.byte	0x38
 1463 0073 77000000 		.4byte	0x77
 1464 0077 03       		.uleb128 0x3
 1465 0078 04       		.byte	0x4
 1466 0079 07       		.byte	0x7
 1467 007a 69010000 		.4byte	.LASF9
 1468 007e 03       		.uleb128 0x3
 1469 007f 08       		.byte	0x8
 1470 0080 05       		.byte	0x5
 1471 0081 7E000000 		.4byte	.LASF10
 1472 0085 04       		.uleb128 0x4
 1473 0086 A0020000 		.4byte	.LASF11
 1474 008a 02       		.byte	0x2
 1475 008b 4E       		.byte	0x4e
 1476 008c 90000000 		.4byte	0x90
 1477 0090 03       		.uleb128 0x3
 1478 0091 08       		.byte	0x8
 1479 0092 07       		.byte	0x7
 1480 0093 34000000 		.4byte	.LASF12
 1481 0097 04       		.uleb128 0x4
 1482 0098 ED030000 		.4byte	.LASF13
 1483 009c 03       		.byte	0x3
 1484 009d 2A       		.byte	0x2a
 1485 009e 3A000000 		.4byte	0x3a
 1486 00a2 04       		.uleb128 0x4
 1487 00a3 D1020000 		.4byte	.LASF14
 1488 00a7 03       		.byte	0x3
 1489 00a8 41       		.byte	0x41
 1490 00a9 5A000000 		.4byte	0x5a
 1491 00ad 04       		.uleb128 0x4
 1492 00ae 75030000 		.4byte	.LASF15
 1493 00b2 03       		.byte	0x3
 1494 00b3 42       		.byte	0x42
 1495 00b4 6C000000 		.4byte	0x6c
ARM GAS  /tmp/ccnl3zJt.s 			page 28


 1496 00b8 04       		.uleb128 0x4
 1497 00b9 0D000000 		.4byte	.LASF16
 1498 00bd 03       		.byte	0x3
 1499 00be 4E       		.byte	0x4e
 1500 00bf 85000000 		.4byte	0x85
 1501 00c3 03       		.uleb128 0x3
 1502 00c4 01       		.byte	0x1
 1503 00c5 02       		.byte	0x2
 1504 00c6 CB020000 		.4byte	.LASF17
 1505 00ca 04       		.uleb128 0x4
 1506 00cb 07020000 		.4byte	.LASF18
 1507 00cf 04       		.byte	0x4
 1508 00d0 2C       		.byte	0x2c
 1509 00d1 97000000 		.4byte	0x97
 1510 00d5 04       		.uleb128 0x4
 1511 00d6 CF000000 		.4byte	.LASF19
 1512 00da 04       		.byte	0x4
 1513 00db 2D       		.byte	0x2d
 1514 00dc 97000000 		.4byte	0x97
 1515 00e0 04       		.uleb128 0x4
 1516 00e1 B4020000 		.4byte	.LASF20
 1517 00e5 04       		.byte	0x4
 1518 00e6 2E       		.byte	0x2e
 1519 00e7 97000000 		.4byte	0x97
 1520 00eb 04       		.uleb128 0x4
 1521 00ec BC000000 		.4byte	.LASF21
 1522 00f0 04       		.byte	0x4
 1523 00f1 2F       		.byte	0x2f
 1524 00f2 97000000 		.4byte	0x97
 1525 00f6 04       		.uleb128 0x4
 1526 00f7 C3020000 		.4byte	.LASF22
 1527 00fb 04       		.byte	0x4
 1528 00fc 30       		.byte	0x30
 1529 00fd AD000000 		.4byte	0xad
 1530 0101 04       		.uleb128 0x4
 1531 0102 E1010000 		.4byte	.LASF23
 1532 0106 04       		.byte	0x4
 1533 0107 31       		.byte	0x31
 1534 0108 A2000000 		.4byte	0xa2
 1535 010c 04       		.uleb128 0x4
 1536 010d 2F010000 		.4byte	.LASF24
 1537 0111 04       		.byte	0x4
 1538 0112 32       		.byte	0x32
 1539 0113 A2000000 		.4byte	0xa2
 1540 0117 04       		.uleb128 0x4
 1541 0118 1B020000 		.4byte	.LASF25
 1542 011c 04       		.byte	0x4
 1543 011d 33       		.byte	0x33
 1544 011e AD000000 		.4byte	0xad
 1545 0122 04       		.uleb128 0x4
 1546 0123 CA030000 		.4byte	.LASF26
 1547 0127 04       		.byte	0x4
 1548 0128 34       		.byte	0x34
 1549 0129 AD000000 		.4byte	0xad
 1550 012d 04       		.uleb128 0x4
 1551 012e 92030000 		.4byte	.LASF27
 1552 0132 04       		.byte	0x4
ARM GAS  /tmp/ccnl3zJt.s 			page 29


 1553 0133 35       		.byte	0x35
 1554 0134 AD000000 		.4byte	0xad
 1555 0138 04       		.uleb128 0x4
 1556 0139 63030000 		.4byte	.LASF28
 1557 013d 05       		.byte	0x5
 1558 013e 2A       		.byte	0x2a
 1559 013f 43010000 		.4byte	0x143
 1560 0143 05       		.uleb128 0x5
 1561 0144 63030000 		.4byte	.LASF28
 1562 0148 4C       		.byte	0x4c
 1563 0149 06       		.byte	0x6
 1564 014a 5E       		.byte	0x5e
 1565 014b 4C020000 		.4byte	0x24c
 1566 014f 06       		.uleb128 0x6
 1567 0150 54030000 		.4byte	.LASF29
 1568 0154 06       		.byte	0x6
 1569 0155 5F       		.byte	0x5f
 1570 0156 6D020000 		.4byte	0x26d
 1571 015a 00       		.byte	0
 1572 015b 06       		.uleb128 0x6
 1573 015c BC020000 		.4byte	.LASF30
 1574 0160 06       		.byte	0x6
 1575 0161 61       		.byte	0x61
 1576 0162 6D020000 		.4byte	0x26d
 1577 0166 04       		.byte	0x4
 1578 0167 06       		.uleb128 0x6
 1579 0168 77000000 		.4byte	.LASF31
 1580 016c 06       		.byte	0x6
 1581 016d 63       		.byte	0x63
 1582 016e F6000000 		.4byte	0xf6
 1583 0172 08       		.byte	0x8
 1584 0173 06       		.uleb128 0x6
 1585 0174 98040000 		.4byte	.LASF32
 1586 0178 06       		.byte	0x6
 1587 0179 64       		.byte	0x64
 1588 017a 32030000 		.4byte	0x332
 1589 017e 0C       		.byte	0xc
 1590 017f 06       		.uleb128 0x6
 1591 0180 FA000000 		.4byte	.LASF33
 1592 0184 06       		.byte	0x6
 1593 0185 66       		.byte	0x66
 1594 0186 6D020000 		.4byte	0x26d
 1595 018a 10       		.byte	0x10
 1596 018b 06       		.uleb128 0x6
 1597 018c 59020000 		.4byte	.LASF34
 1598 0190 06       		.byte	0x6
 1599 0191 67       		.byte	0x67
 1600 0192 6D020000 		.4byte	0x26d
 1601 0196 14       		.byte	0x14
 1602 0197 06       		.uleb128 0x6
 1603 0198 24040000 		.4byte	.LASF35
 1604 019c 06       		.byte	0x6
 1605 019d 6E       		.byte	0x6e
 1606 019e C0040000 		.4byte	0x4c0
 1607 01a2 18       		.byte	0x18
 1608 01a3 06       		.uleb128 0x6
 1609 01a4 51010000 		.4byte	.LASF36
ARM GAS  /tmp/ccnl3zJt.s 			page 30


 1610 01a8 06       		.byte	0x6
 1611 01a9 74       		.byte	0x74
 1612 01aa D2040000 		.4byte	0x4d2
 1613 01ae 1C       		.byte	0x1c
 1614 01af 06       		.uleb128 0x6
 1615 01b0 1D030000 		.4byte	.LASF37
 1616 01b4 06       		.byte	0x6
 1617 01b5 79       		.byte	0x79
 1618 01b6 D5000000 		.4byte	0xd5
 1619 01ba 20       		.byte	0x20
 1620 01bb 06       		.uleb128 0x6
 1621 01bc 5B030000 		.4byte	.LASF38
 1622 01c0 06       		.byte	0x6
 1623 01c1 7D       		.byte	0x7d
 1624 01c2 CA000000 		.4byte	0xca
 1625 01c6 21       		.byte	0x21
 1626 01c7 06       		.uleb128 0x6
 1627 01c8 D6030000 		.4byte	.LASF39
 1628 01cc 06       		.byte	0x6
 1629 01cd 82       		.byte	0x82
 1630 01ce E0000000 		.4byte	0xe0
 1631 01d2 22       		.byte	0x22
 1632 01d3 06       		.uleb128 0x6
 1633 01d4 25030000 		.4byte	.LASF40
 1634 01d8 06       		.byte	0x6
 1635 01d9 88       		.byte	0x88
 1636 01da EB000000 		.4byte	0xeb
 1637 01de 23       		.byte	0x23
 1638 01df 06       		.uleb128 0x6
 1639 01e0 B1030000 		.4byte	.LASF41
 1640 01e4 06       		.byte	0x6
 1641 01e5 8F       		.byte	0x8f
 1642 01e6 5A030000 		.4byte	0x35a
 1643 01ea 24       		.byte	0x24
 1644 01eb 07       		.uleb128 0x7
 1645 01ec 705F7500 		.ascii	"p_u\000"
 1646 01f0 06       		.byte	0x6
 1647 01f1 B4       		.byte	0xb4
 1648 01f2 8B040000 		.4byte	0x48b
 1649 01f6 28       		.byte	0x28
 1650 01f7 06       		.uleb128 0x6
 1651 01f8 38020000 		.4byte	.LASF42
 1652 01fc 06       		.byte	0x6
 1653 01fd B9       		.byte	0xb9
 1654 01fe 93020000 		.4byte	0x293
 1655 0202 2C       		.byte	0x2c
 1656 0203 06       		.uleb128 0x6
 1657 0204 BF030000 		.4byte	.LASF43
 1658 0208 06       		.byte	0x6
 1659 0209 BF       		.byte	0xbf
 1660 020a 73020000 		.4byte	0x273
 1661 020e 30       		.byte	0x30
 1662 020f 06       		.uleb128 0x6
 1663 0210 00000000 		.4byte	.LASF44
 1664 0214 06       		.byte	0x6
 1665 0215 C3       		.byte	0xc3
 1666 0216 01010000 		.4byte	0x101
ARM GAS  /tmp/ccnl3zJt.s 			page 31


 1667 021a 38       		.byte	0x38
 1668 021b 06       		.uleb128 0x6
 1669 021c 6A030000 		.4byte	.LASF45
 1670 0220 06       		.byte	0x6
 1671 0221 C9       		.byte	0xc9
 1672 0222 17010000 		.4byte	0x117
 1673 0226 3C       		.byte	0x3c
 1674 0227 06       		.uleb128 0x6
 1675 0228 09030000 		.4byte	.LASF46
 1676 022c 06       		.byte	0x6
 1677 022d D0       		.byte	0xd0
 1678 022e D8040000 		.4byte	0x4d8
 1679 0232 40       		.byte	0x40
 1680 0233 06       		.uleb128 0x6
 1681 0234 9C030000 		.4byte	.LASF47
 1682 0238 06       		.byte	0x6
 1683 0239 D4       		.byte	0xd4
 1684 023a F6000000 		.4byte	0xf6
 1685 023e 44       		.byte	0x44
 1686 023f 06       		.uleb128 0x6
 1687 0240 AC000000 		.4byte	.LASF48
 1688 0244 06       		.byte	0x6
 1689 0245 DA       		.byte	0xda
 1690 0246 A9020000 		.4byte	0x2a9
 1691 024a 48       		.byte	0x48
 1692 024b 00       		.byte	0
 1693 024c 08       		.uleb128 0x8
 1694 024d 08       		.byte	0x8
 1695 024e 05       		.byte	0x5
 1696 024f 61       		.byte	0x61
 1697 0250 6D020000 		.4byte	0x26d
 1698 0254 06       		.uleb128 0x6
 1699 0255 54030000 		.4byte	.LASF29
 1700 0259 05       		.byte	0x5
 1701 025a 62       		.byte	0x62
 1702 025b 6D020000 		.4byte	0x26d
 1703 025f 00       		.byte	0
 1704 0260 06       		.uleb128 0x6
 1705 0261 BC020000 		.4byte	.LASF30
 1706 0265 05       		.byte	0x5
 1707 0266 64       		.byte	0x64
 1708 0267 6D020000 		.4byte	0x26d
 1709 026b 04       		.byte	0x4
 1710 026c 00       		.byte	0
 1711 026d 09       		.uleb128 0x9
 1712 026e 04       		.byte	0x4
 1713 026f 38010000 		.4byte	0x138
 1714 0273 04       		.uleb128 0x4
 1715 0274 67020000 		.4byte	.LASF49
 1716 0278 05       		.byte	0x5
 1717 0279 66       		.byte	0x66
 1718 027a 4C020000 		.4byte	0x24c
 1719 027e 08       		.uleb128 0x8
 1720 027f 04       		.byte	0x4
 1721 0280 05       		.byte	0x5
 1722 0281 6B       		.byte	0x6b
 1723 0282 93020000 		.4byte	0x293
ARM GAS  /tmp/ccnl3zJt.s 			page 32


 1724 0286 06       		.uleb128 0x6
 1725 0287 54030000 		.4byte	.LASF29
 1726 028b 05       		.byte	0x5
 1727 028c 6D       		.byte	0x6d
 1728 028d 6D020000 		.4byte	0x26d
 1729 0291 00       		.byte	0
 1730 0292 00       		.byte	0
 1731 0293 04       		.uleb128 0x4
 1732 0294 0F020000 		.4byte	.LASF50
 1733 0298 05       		.byte	0x5
 1734 0299 70       		.byte	0x70
 1735 029a 7E020000 		.4byte	0x27e
 1736 029e 04       		.uleb128 0x4
 1737 029f 12010000 		.4byte	.LASF51
 1738 02a3 07       		.byte	0x7
 1739 02a4 E5       		.byte	0xe5
 1740 02a5 A9020000 		.4byte	0x2a9
 1741 02a9 0A       		.uleb128 0xa
 1742 02aa 04       		.byte	0x4
 1743 02ab 04       		.uleb128 0x4
 1744 02ac 2D020000 		.4byte	.LASF52
 1745 02b0 07       		.byte	0x7
 1746 02b1 EB       		.byte	0xeb
 1747 02b2 B8000000 		.4byte	0xb8
 1748 02b6 0B       		.uleb128 0xb
 1749 02b7 B8030000 		.4byte	.LASF53
 1750 02bb 24       		.byte	0x24
 1751 02bc 07       		.byte	0x7
 1752 02bd 0C01     		.2byte	0x10c
 1753 02bf 32030000 		.4byte	0x332
 1754 02c3 0C       		.uleb128 0xc
 1755 02c4 723400   		.ascii	"r4\000"
 1756 02c7 07       		.byte	0x7
 1757 02c8 1F01     		.2byte	0x11f
 1758 02ca 9E020000 		.4byte	0x29e
 1759 02ce 00       		.byte	0
 1760 02cf 0C       		.uleb128 0xc
 1761 02d0 723500   		.ascii	"r5\000"
 1762 02d3 07       		.byte	0x7
 1763 02d4 2001     		.2byte	0x120
 1764 02d6 9E020000 		.4byte	0x29e
 1765 02da 04       		.byte	0x4
 1766 02db 0C       		.uleb128 0xc
 1767 02dc 723600   		.ascii	"r6\000"
 1768 02df 07       		.byte	0x7
 1769 02e0 2101     		.2byte	0x121
 1770 02e2 9E020000 		.4byte	0x29e
 1771 02e6 08       		.byte	0x8
 1772 02e7 0C       		.uleb128 0xc
 1773 02e8 723700   		.ascii	"r7\000"
 1774 02eb 07       		.byte	0x7
 1775 02ec 2201     		.2byte	0x122
 1776 02ee 9E020000 		.4byte	0x29e
 1777 02f2 0C       		.byte	0xc
 1778 02f3 0C       		.uleb128 0xc
 1779 02f4 723800   		.ascii	"r8\000"
 1780 02f7 07       		.byte	0x7
ARM GAS  /tmp/ccnl3zJt.s 			page 33


 1781 02f8 2301     		.2byte	0x123
 1782 02fa 9E020000 		.4byte	0x29e
 1783 02fe 10       		.byte	0x10
 1784 02ff 0C       		.uleb128 0xc
 1785 0300 723900   		.ascii	"r9\000"
 1786 0303 07       		.byte	0x7
 1787 0304 2401     		.2byte	0x124
 1788 0306 9E020000 		.4byte	0x29e
 1789 030a 14       		.byte	0x14
 1790 030b 0C       		.uleb128 0xc
 1791 030c 72313000 		.ascii	"r10\000"
 1792 0310 07       		.byte	0x7
 1793 0311 2501     		.2byte	0x125
 1794 0313 9E020000 		.4byte	0x29e
 1795 0317 18       		.byte	0x18
 1796 0318 0C       		.uleb128 0xc
 1797 0319 72313100 		.ascii	"r11\000"
 1798 031d 07       		.byte	0x7
 1799 031e 2601     		.2byte	0x126
 1800 0320 9E020000 		.4byte	0x29e
 1801 0324 1C       		.byte	0x1c
 1802 0325 0C       		.uleb128 0xc
 1803 0326 6C7200   		.ascii	"lr\000"
 1804 0329 07       		.byte	0x7
 1805 032a 2701     		.2byte	0x127
 1806 032c 9E020000 		.4byte	0x29e
 1807 0330 20       		.byte	0x20
 1808 0331 00       		.byte	0
 1809 0332 0B       		.uleb128 0xb
 1810 0333 B4010000 		.4byte	.LASF54
 1811 0337 04       		.byte	0x4
 1812 0338 07       		.byte	0x7
 1813 0339 3101     		.2byte	0x131
 1814 033b 4D030000 		.4byte	0x34d
 1815 033f 0C       		.uleb128 0xc
 1816 0340 72313300 		.ascii	"r13\000"
 1817 0344 07       		.byte	0x7
 1818 0345 3201     		.2byte	0x132
 1819 0347 4D030000 		.4byte	0x34d
 1820 034b 00       		.byte	0
 1821 034c 00       		.byte	0
 1822 034d 09       		.uleb128 0x9
 1823 034e 04       		.byte	0x4
 1824 034f B6020000 		.4byte	0x2b6
 1825 0353 03       		.uleb128 0x3
 1826 0354 04       		.byte	0x4
 1827 0355 07       		.byte	0x7
 1828 0356 42020000 		.4byte	.LASF55
 1829 035a 0D       		.uleb128 0xd
 1830 035b 2D010000 		.4byte	0x12d
 1831 035f 08       		.uleb128 0x8
 1832 0360 1C       		.byte	0x1c
 1833 0361 08       		.byte	0x8
 1834 0362 5E       		.byte	0x5e
 1835 0363 B0030000 		.4byte	0x3b0
 1836 0367 06       		.uleb128 0x6
 1837 0368 7E030000 		.4byte	.LASF56
ARM GAS  /tmp/ccnl3zJt.s 			page 34


 1838 036c 08       		.byte	0x8
 1839 036d 5F       		.byte	0x5f
 1840 036e 73020000 		.4byte	0x273
 1841 0372 00       		.byte	0
 1842 0373 06       		.uleb128 0x6
 1843 0374 2F030000 		.4byte	.LASF57
 1844 0378 08       		.byte	0x8
 1845 0379 60       		.byte	0x60
 1846 037a F6000000 		.4byte	0xf6
 1847 037e 08       		.byte	0x8
 1848 037f 06       		.uleb128 0x6
 1849 0380 61020000 		.4byte	.LASF58
 1850 0384 08       		.byte	0x8
 1851 0385 62       		.byte	0x62
 1852 0386 32030000 		.4byte	0x332
 1853 038a 0C       		.byte	0xc
 1854 038b 06       		.uleb128 0x6
 1855 038c E7010000 		.4byte	.LASF59
 1856 0390 08       		.byte	0x8
 1857 0391 65       		.byte	0x65
 1858 0392 6D020000 		.4byte	0x26d
 1859 0396 10       		.byte	0x10
 1860 0397 06       		.uleb128 0x6
 1861 0398 90020000 		.4byte	.LASF60
 1862 039c 08       		.byte	0x8
 1863 039d 66       		.byte	0x66
 1864 039e 6D020000 		.4byte	0x26d
 1865 03a2 14       		.byte	0x14
 1866 03a3 06       		.uleb128 0x6
 1867 03a4 86020000 		.4byte	.LASF61
 1868 03a8 08       		.byte	0x8
 1869 03a9 69       		.byte	0x69
 1870 03aa 6D020000 		.4byte	0x26d
 1871 03ae 18       		.byte	0x18
 1872 03af 00       		.byte	0
 1873 03b0 04       		.uleb128 0x4
 1874 03b1 DD030000 		.4byte	.LASF62
 1875 03b5 08       		.byte	0x8
 1876 03b6 6B       		.byte	0x6b
 1877 03b7 5F030000 		.4byte	0x35f
 1878 03bb 05       		.uleb128 0x5
 1879 03bc 27020000 		.4byte	.LASF63
 1880 03c0 10       		.byte	0x10
 1881 03c1 09       		.byte	0x9
 1882 03c2 2C       		.byte	0x2c
 1883 03c3 EC030000 		.4byte	0x3ec
 1884 03c7 06       		.uleb128 0x6
 1885 03c8 B4000000 		.4byte	.LASF64
 1886 03cc 09       		.byte	0x9
 1887 03cd 2D       		.byte	0x2d
 1888 03ce 73020000 		.4byte	0x273
 1889 03d2 00       		.byte	0
 1890 03d3 06       		.uleb128 0x6
 1891 03d4 90040000 		.4byte	.LASF65
 1892 03d8 09       		.byte	0x9
 1893 03d9 2F       		.byte	0x2f
 1894 03da 6D020000 		.4byte	0x26d
ARM GAS  /tmp/ccnl3zJt.s 			page 35


 1895 03de 08       		.byte	0x8
 1896 03df 06       		.uleb128 0x6
 1897 03e0 8B030000 		.4byte	.LASF66
 1898 03e4 09       		.byte	0x9
 1899 03e5 31       		.byte	0x31
 1900 03e6 EC030000 		.4byte	0x3ec
 1901 03ea 0C       		.byte	0xc
 1902 03eb 00       		.byte	0
 1903 03ec 09       		.uleb128 0x9
 1904 03ed 04       		.byte	0x4
 1905 03ee BB030000 		.4byte	0x3bb
 1906 03f2 04       		.uleb128 0x4
 1907 03f3 27020000 		.4byte	.LASF63
 1908 03f7 09       		.byte	0x9
 1909 03f8 33       		.byte	0x33
 1910 03f9 BB030000 		.4byte	0x3bb
 1911 03fd 04       		.uleb128 0x4
 1912 03fe FB030000 		.4byte	.LASF67
 1913 0402 0A       		.byte	0xa
 1914 0403 2C       		.byte	0x2c
 1915 0404 08040000 		.4byte	0x408
 1916 0408 05       		.uleb128 0x5
 1917 0409 FB030000 		.4byte	.LASF67
 1918 040d 10       		.byte	0x10
 1919 040e 0A       		.byte	0xa
 1920 040f 31       		.byte	0x31
 1921 0410 45040000 		.4byte	0x445
 1922 0414 06       		.uleb128 0x6
 1923 0415 EF010000 		.4byte	.LASF68
 1924 0419 0A       		.byte	0xa
 1925 041a 32       		.byte	0x32
 1926 041b 45040000 		.4byte	0x445
 1927 041f 00       		.byte	0
 1928 0420 06       		.uleb128 0x6
 1929 0421 F4020000 		.4byte	.LASF69
 1930 0425 0A       		.byte	0xa
 1931 0426 35       		.byte	0x35
 1932 0427 6D020000 		.4byte	0x26d
 1933 042b 04       		.byte	0x4
 1934 042c 06       		.uleb128 0x6
 1935 042d 98020000 		.4byte	.LASF70
 1936 0431 0A       		.byte	0xa
 1937 0432 37       		.byte	0x37
 1938 0433 17010000 		.4byte	0x117
 1939 0437 08       		.byte	0x8
 1940 0438 06       		.uleb128 0x6
 1941 0439 00030000 		.4byte	.LASF71
 1942 043d 0A       		.byte	0xa
 1943 043e 3A       		.byte	0x3a
 1944 043f 22010000 		.4byte	0x122
 1945 0443 0C       		.byte	0xc
 1946 0444 00       		.byte	0
 1947 0445 09       		.uleb128 0x9
 1948 0446 04       		.byte	0x4
 1949 0447 FD030000 		.4byte	0x3fd
 1950 044b 05       		.uleb128 0x5
 1951 044c 39010000 		.4byte	.LASF72
ARM GAS  /tmp/ccnl3zJt.s 			page 36


 1952 0450 04       		.byte	0x4
 1953 0451 0A       		.byte	0xa
 1954 0452 41       		.byte	0x41
 1955 0453 64040000 		.4byte	0x464
 1956 0457 06       		.uleb128 0x6
 1957 0458 2C000000 		.4byte	.LASF73
 1958 045c 0A       		.byte	0xa
 1959 045d 42       		.byte	0x42
 1960 045e 45040000 		.4byte	0x445
 1961 0462 00       		.byte	0
 1962 0463 00       		.byte	0
 1963 0464 04       		.uleb128 0x4
 1964 0465 39010000 		.4byte	.LASF72
 1965 0469 0A       		.byte	0xa
 1966 046a 45       		.byte	0x45
 1967 046b 4B040000 		.4byte	0x44b
 1968 046f 04       		.uleb128 0x4
 1969 0470 45010000 		.4byte	.LASF74
 1970 0474 0A       		.byte	0xa
 1971 0475 4A       		.byte	0x4a
 1972 0476 7A040000 		.4byte	0x47a
 1973 047a 09       		.uleb128 0x9
 1974 047b 04       		.byte	0x4
 1975 047c 80040000 		.4byte	0x480
 1976 0480 0E       		.uleb128 0xe
 1977 0481 8B040000 		.4byte	0x48b
 1978 0485 0F       		.uleb128 0xf
 1979 0486 0C010000 		.4byte	0x10c
 1980 048a 00       		.byte	0
 1981 048b 10       		.uleb128 0x10
 1982 048c 04       		.byte	0x4
 1983 048d 06       		.byte	0x6
 1984 048e 96       		.byte	0x96
 1985 048f C0040000 		.4byte	0x4c0
 1986 0493 11       		.uleb128 0x11
 1987 0494 06000000 		.4byte	.LASF75
 1988 0498 06       		.byte	0x6
 1989 0499 9D       		.byte	0x9d
 1990 049a 01010000 		.4byte	0x101
 1991 049e 11       		.uleb128 0x11
 1992 049f 5A000000 		.4byte	.LASF76
 1993 04a3 06       		.byte	0x6
 1994 04a4 A4       		.byte	0xa4
 1995 04a5 01010000 		.4byte	0x101
 1996 04a9 11       		.uleb128 0x11
 1997 04aa 1D040000 		.4byte	.LASF77
 1998 04ae 06       		.byte	0x6
 1999 04af AB       		.byte	0xab
 2000 04b0 A9020000 		.4byte	0x2a9
 2001 04b4 11       		.uleb128 0x11
 2002 04b5 4D030000 		.4byte	.LASF78
 2003 04b9 06       		.byte	0x6
 2004 04ba B2       		.byte	0xb2
 2005 04bb 17010000 		.4byte	0x117
 2006 04bf 00       		.byte	0
 2007 04c0 09       		.uleb128 0x9
 2008 04c1 04       		.byte	0x4
ARM GAS  /tmp/ccnl3zJt.s 			page 37


 2009 04c2 C6040000 		.4byte	0x4c6
 2010 04c6 12       		.uleb128 0x12
 2011 04c7 CB040000 		.4byte	0x4cb
 2012 04cb 03       		.uleb128 0x3
 2013 04cc 01       		.byte	0x1
 2014 04cd 08       		.byte	0x8
 2015 04ce 86030000 		.4byte	.LASF79
 2016 04d2 09       		.uleb128 0x9
 2017 04d3 04       		.byte	0x4
 2018 04d4 AB020000 		.4byte	0x2ab
 2019 04d8 09       		.uleb128 0x9
 2020 04d9 04       		.byte	0x4
 2021 04da F2030000 		.4byte	0x3f2
 2022 04de 13       		.uleb128 0x13
 2023 04df CF010000 		.4byte	.LASF81
 2024 04e3 01       		.byte	0x1
 2025 04e4 55       		.byte	0x55
 2026 04e5 00000000 		.4byte	.LFB7
 2027 04e9 64000000 		.4byte	.LFE7-.LFB7
 2028 04ed 01       		.uleb128 0x1
 2029 04ee 9C       		.byte	0x9c
 2030 04ef 50050000 		.4byte	0x550
 2031 04f3 14       		.uleb128 0x14
 2032 04f4 65737000 		.ascii	"esp\000"
 2033 04f8 01       		.byte	0x1
 2034 04f9 55       		.byte	0x55
 2035 04fa 50050000 		.4byte	0x550
 2036 04fe 02       		.uleb128 0x2
 2037 04ff 91       		.byte	0x91
 2038 0500 74       		.sleb128 -12
 2039 0501 14       		.uleb128 0x14
 2040 0502 656C7000 		.ascii	"elp\000"
 2041 0506 01       		.byte	0x1
 2042 0507 55       		.byte	0x55
 2043 0508 45040000 		.4byte	0x445
 2044 050c 02       		.uleb128 0x2
 2045 050d 91       		.byte	0x91
 2046 050e 70       		.sleb128 -16
 2047 050f 15       		.uleb128 0x15
 2048 0510 0D010000 		.4byte	.LASF80
 2049 0514 01       		.byte	0x1
 2050 0515 55       		.byte	0x55
 2051 0516 17010000 		.4byte	0x117
 2052 051a 02       		.uleb128 0x2
 2053 051b 91       		.byte	0x91
 2054 051c 6C       		.sleb128 -20
 2055 051d 16       		.uleb128 0x16
 2056 051e 22000000 		.4byte	.LBB2
 2057 0522 06000000 		.4byte	.LBE2-.LBB2
 2058 0526 38050000 		.4byte	0x538
 2059 052a 17       		.uleb128 0x17
 2060 052b 746D7000 		.ascii	"tmp\000"
 2061 052f 01       		.byte	0x1
 2062 0530 59       		.byte	0x59
 2063 0531 AD000000 		.4byte	0xad
 2064 0535 01       		.uleb128 0x1
 2065 0536 53       		.byte	0x53
ARM GAS  /tmp/ccnl3zJt.s 			page 38


 2066 0537 00       		.byte	0
 2067 0538 18       		.uleb128 0x18
 2068 0539 58000000 		.4byte	.LBB3
 2069 053d 06000000 		.4byte	.LBE3-.LBB3
 2070 0541 17       		.uleb128 0x17
 2071 0542 746D7000 		.ascii	"tmp\000"
 2072 0546 01       		.byte	0x1
 2073 0547 5F       		.byte	0x5f
 2074 0548 AD000000 		.4byte	0xad
 2075 054c 01       		.uleb128 0x1
 2076 054d 53       		.byte	0x53
 2077 054e 00       		.byte	0
 2078 054f 00       		.byte	0
 2079 0550 09       		.uleb128 0x9
 2080 0551 04       		.byte	0x4
 2081 0552 64040000 		.4byte	0x464
 2082 0556 13       		.uleb128 0x13
 2083 0557 F7010000 		.4byte	.LASF82
 2084 055b 01       		.byte	0x1
 2085 055c 6F       		.byte	0x6f
 2086 055d 00000000 		.4byte	.LFB8
 2087 0561 64000000 		.4byte	.LFE8-.LFB8
 2088 0565 01       		.uleb128 0x1
 2089 0566 9C       		.byte	0x9c
 2090 0567 C6050000 		.4byte	0x5c6
 2091 056b 14       		.uleb128 0x14
 2092 056c 65737000 		.ascii	"esp\000"
 2093 0570 01       		.byte	0x1
 2094 0571 6F       		.byte	0x6f
 2095 0572 50050000 		.4byte	0x550
 2096 0576 02       		.uleb128 0x2
 2097 0577 91       		.byte	0x91
 2098 0578 6C       		.sleb128 -20
 2099 0579 14       		.uleb128 0x14
 2100 057a 656C7000 		.ascii	"elp\000"
 2101 057e 01       		.byte	0x1
 2102 057f 6F       		.byte	0x6f
 2103 0580 45040000 		.4byte	0x445
 2104 0584 02       		.uleb128 0x2
 2105 0585 91       		.byte	0x91
 2106 0586 68       		.sleb128 -24
 2107 0587 17       		.uleb128 0x17
 2108 0588 7000     		.ascii	"p\000"
 2109 058a 01       		.byte	0x1
 2110 058b 70       		.byte	0x70
 2111 058c 45040000 		.4byte	0x445
 2112 0590 02       		.uleb128 0x2
 2113 0591 91       		.byte	0x91
 2114 0592 74       		.sleb128 -12
 2115 0593 16       		.uleb128 0x16
 2116 0594 24000000 		.4byte	.LBB4
 2117 0598 06000000 		.4byte	.LBE4-.LBB4
 2118 059c AE050000 		.4byte	0x5ae
 2119 05a0 17       		.uleb128 0x17
 2120 05a1 746D7000 		.ascii	"tmp\000"
 2121 05a5 01       		.byte	0x1
 2122 05a6 75       		.byte	0x75
ARM GAS  /tmp/ccnl3zJt.s 			page 39


 2123 05a7 AD000000 		.4byte	0xad
 2124 05ab 01       		.uleb128 0x1
 2125 05ac 53       		.byte	0x53
 2126 05ad 00       		.byte	0
 2127 05ae 18       		.uleb128 0x18
 2128 05af 58000000 		.4byte	.LBB5
 2129 05b3 06000000 		.4byte	.LBE5-.LBB5
 2130 05b7 17       		.uleb128 0x17
 2131 05b8 746D7000 		.ascii	"tmp\000"
 2132 05bc 01       		.byte	0x1
 2133 05bd 7D       		.byte	0x7d
 2134 05be AD000000 		.4byte	0xad
 2135 05c2 01       		.uleb128 0x1
 2136 05c3 53       		.byte	0x53
 2137 05c4 00       		.byte	0
 2138 05c5 00       		.byte	0
 2139 05c6 19       		.uleb128 0x19
 2140 05c7 7B010000 		.4byte	.LASF83
 2141 05cb 01       		.byte	0x1
 2142 05cc 88       		.byte	0x88
 2143 05cd 17010000 		.4byte	0x117
 2144 05d1 00000000 		.4byte	.LFB9
 2145 05d5 54000000 		.4byte	.LFE9-.LFB9
 2146 05d9 01       		.uleb128 0x1
 2147 05da 9C       		.byte	0x9c
 2148 05db 2C060000 		.4byte	0x62c
 2149 05df 15       		.uleb128 0x15
 2150 05e0 0D010000 		.4byte	.LASF80
 2151 05e4 01       		.byte	0x1
 2152 05e5 88       		.byte	0x88
 2153 05e6 17010000 		.4byte	0x117
 2154 05ea 02       		.uleb128 0x2
 2155 05eb 91       		.byte	0x91
 2156 05ec 6C       		.sleb128 -20
 2157 05ed 17       		.uleb128 0x17
 2158 05ee 6D00     		.ascii	"m\000"
 2159 05f0 01       		.byte	0x1
 2160 05f1 89       		.byte	0x89
 2161 05f2 17010000 		.4byte	0x117
 2162 05f6 02       		.uleb128 0x2
 2163 05f7 91       		.byte	0x91
 2164 05f8 74       		.sleb128 -12
 2165 05f9 16       		.uleb128 0x16
 2166 05fa 06000000 		.4byte	.LBB6
 2167 05fe 06000000 		.4byte	.LBE6-.LBB6
 2168 0602 14060000 		.4byte	0x614
 2169 0606 17       		.uleb128 0x17
 2170 0607 746D7000 		.ascii	"tmp\000"
 2171 060b 01       		.byte	0x1
 2172 060c 8B       		.byte	0x8b
 2173 060d AD000000 		.4byte	0xad
 2174 0611 01       		.uleb128 0x1
 2175 0612 53       		.byte	0x53
 2176 0613 00       		.byte	0
 2177 0614 18       		.uleb128 0x18
 2178 0615 44000000 		.4byte	.LBB7
 2179 0619 06000000 		.4byte	.LBE7-.LBB7
ARM GAS  /tmp/ccnl3zJt.s 			page 40


 2180 061d 17       		.uleb128 0x17
 2181 061e 746D7000 		.ascii	"tmp\000"
 2182 0622 01       		.byte	0x1
 2183 0623 90       		.byte	0x90
 2184 0624 AD000000 		.4byte	0xad
 2185 0628 01       		.uleb128 0x1
 2186 0629 53       		.byte	0x53
 2187 062a 00       		.byte	0
 2188 062b 00       		.byte	0
 2189 062c 19       		.uleb128 0x19
 2190 062d 4B000000 		.4byte	.LASF84
 2191 0631 01       		.byte	0x1
 2192 0632 9D       		.byte	0x9d
 2193 0633 17010000 		.4byte	0x117
 2194 0637 00000000 		.4byte	.LFB10
 2195 063b 44000000 		.4byte	.LFE10-.LFB10
 2196 063f 01       		.uleb128 0x1
 2197 0640 9C       		.byte	0x9c
 2198 0641 86060000 		.4byte	0x686
 2199 0645 15       		.uleb128 0x15
 2200 0646 0D010000 		.4byte	.LASF80
 2201 064a 01       		.byte	0x1
 2202 064b 9D       		.byte	0x9d
 2203 064c 17010000 		.4byte	0x117
 2204 0650 02       		.uleb128 0x2
 2205 0651 91       		.byte	0x91
 2206 0652 74       		.sleb128 -12
 2207 0653 16       		.uleb128 0x16
 2208 0654 06000000 		.4byte	.LBB8
 2209 0658 06000000 		.4byte	.LBE8-.LBB8
 2210 065c 6E060000 		.4byte	0x66e
 2211 0660 17       		.uleb128 0x17
 2212 0661 746D7000 		.ascii	"tmp\000"
 2213 0665 01       		.byte	0x1
 2214 0666 9F       		.byte	0x9f
 2215 0667 AD000000 		.4byte	0xad
 2216 066b 01       		.uleb128 0x1
 2217 066c 53       		.byte	0x53
 2218 066d 00       		.byte	0
 2219 066e 18       		.uleb128 0x18
 2220 066f 34000000 		.4byte	.LBB9
 2221 0673 06000000 		.4byte	.LBE9-.LBB9
 2222 0677 17       		.uleb128 0x17
 2223 0678 746D7000 		.ascii	"tmp\000"
 2224 067c 01       		.byte	0x1
 2225 067d A3       		.byte	0xa3
 2226 067e AD000000 		.4byte	0xad
 2227 0682 01       		.uleb128 0x1
 2228 0683 53       		.byte	0x53
 2229 0684 00       		.byte	0
 2230 0685 00       		.byte	0
 2231 0686 13       		.uleb128 0x13
 2232 0687 E5000000 		.4byte	.LASF85
 2233 068b 01       		.byte	0x1
 2234 068c B8       		.byte	0xb8
 2235 068d 00000000 		.4byte	.LFB11
 2236 0691 56000000 		.4byte	.LFE11-.LFB11
ARM GAS  /tmp/ccnl3zJt.s 			page 41


 2237 0695 01       		.uleb128 0x1
 2238 0696 9C       		.byte	0x9c
 2239 0697 C6060000 		.4byte	0x6c6
 2240 069b 14       		.uleb128 0x14
 2241 069c 65737000 		.ascii	"esp\000"
 2242 06a0 01       		.byte	0x1
 2243 06a1 B8       		.byte	0xb8
 2244 06a2 50050000 		.4byte	0x550
 2245 06a6 02       		.uleb128 0x2
 2246 06a7 91       		.byte	0x91
 2247 06a8 6C       		.sleb128 -20
 2248 06a9 15       		.uleb128 0x15
 2249 06aa F5030000 		.4byte	.LASF86
 2250 06ae 01       		.byte	0x1
 2251 06af B8       		.byte	0xb8
 2252 06b0 22010000 		.4byte	0x122
 2253 06b4 02       		.uleb128 0x2
 2254 06b5 91       		.byte	0x91
 2255 06b6 68       		.sleb128 -24
 2256 06b7 17       		.uleb128 0x17
 2257 06b8 656C7000 		.ascii	"elp\000"
 2258 06bc 01       		.byte	0x1
 2259 06bd B9       		.byte	0xb9
 2260 06be 45040000 		.4byte	0x445
 2261 06c2 02       		.uleb128 0x2
 2262 06c3 91       		.byte	0x91
 2263 06c4 74       		.sleb128 -12
 2264 06c5 00       		.byte	0
 2265 06c6 19       		.uleb128 0x19
 2266 06c7 7A040000 		.4byte	.LASF87
 2267 06cb 01       		.byte	0x1
 2268 06cc D1       		.byte	0xd1
 2269 06cd 22010000 		.4byte	0x122
 2270 06d1 00000000 		.4byte	.LFB12
 2271 06d5 30000000 		.4byte	.LFE12-.LFB12
 2272 06d9 01       		.uleb128 0x1
 2273 06da 9C       		.byte	0x9c
 2274 06db 2E070000 		.4byte	0x72e
 2275 06df 14       		.uleb128 0x14
 2276 06e0 656C7000 		.ascii	"elp\000"
 2277 06e4 01       		.byte	0x1
 2278 06e5 D1       		.byte	0xd1
 2279 06e6 45040000 		.4byte	0x445
 2280 06ea 02       		.uleb128 0x2
 2281 06eb 91       		.byte	0x91
 2282 06ec 6C       		.sleb128 -20
 2283 06ed 1A       		.uleb128 0x1a
 2284 06ee F5030000 		.4byte	.LASF86
 2285 06f2 01       		.byte	0x1
 2286 06f3 D2       		.byte	0xd2
 2287 06f4 22010000 		.4byte	0x122
 2288 06f8 02       		.uleb128 0x2
 2289 06f9 91       		.byte	0x91
 2290 06fa 74       		.sleb128 -12
 2291 06fb 16       		.uleb128 0x16
 2292 06fc 06000000 		.4byte	.LBB10
 2293 0700 06000000 		.4byte	.LBE10-.LBB10
ARM GAS  /tmp/ccnl3zJt.s 			page 42


 2294 0704 16070000 		.4byte	0x716
 2295 0708 17       		.uleb128 0x17
 2296 0709 746D7000 		.ascii	"tmp\000"
 2297 070d 01       		.byte	0x1
 2298 070e D4       		.byte	0xd4
 2299 070f AD000000 		.4byte	0xad
 2300 0713 01       		.uleb128 0x1
 2301 0714 53       		.byte	0x53
 2302 0715 00       		.byte	0
 2303 0716 18       		.uleb128 0x18
 2304 0717 20000000 		.4byte	.LBB11
 2305 071b 06000000 		.4byte	.LBE11-.LBB11
 2306 071f 17       		.uleb128 0x17
 2307 0720 746D7000 		.ascii	"tmp\000"
 2308 0724 01       		.byte	0x1
 2309 0725 D9       		.byte	0xd9
 2310 0726 AD000000 		.4byte	0xad
 2311 072a 01       		.uleb128 0x1
 2312 072b 53       		.byte	0x53
 2313 072c 00       		.byte	0
 2314 072d 00       		.byte	0
 2315 072e 13       		.uleb128 0x13
 2316 072f 20000000 		.4byte	.LASF88
 2317 0733 01       		.byte	0x1
 2318 0734 E5       		.byte	0xe5
 2319 0735 00000000 		.4byte	.LFB13
 2320 0739 40000000 		.4byte	.LFE13-.LFB13
 2321 073d 01       		.uleb128 0x1
 2322 073e 9C       		.byte	0x9c
 2323 073f 91070000 		.4byte	0x791
 2324 0743 14       		.uleb128 0x14
 2325 0744 747000   		.ascii	"tp\000"
 2326 0747 01       		.byte	0x1
 2327 0748 E5       		.byte	0xe5
 2328 0749 6D020000 		.4byte	0x26d
 2329 074d 02       		.uleb128 0x2
 2330 074e 91       		.byte	0x91
 2331 074f 74       		.sleb128 -12
 2332 0750 15       		.uleb128 0x15
 2333 0751 0D010000 		.4byte	.LASF80
 2334 0755 01       		.byte	0x1
 2335 0756 E5       		.byte	0xe5
 2336 0757 17010000 		.4byte	0x117
 2337 075b 02       		.uleb128 0x2
 2338 075c 91       		.byte	0x91
 2339 075d 70       		.sleb128 -16
 2340 075e 16       		.uleb128 0x16
 2341 075f 1A000000 		.4byte	.LBB12
 2342 0763 06000000 		.4byte	.LBE12-.LBB12
 2343 0767 79070000 		.4byte	0x779
 2344 076b 17       		.uleb128 0x17
 2345 076c 746D7000 		.ascii	"tmp\000"
 2346 0770 01       		.byte	0x1
 2347 0771 E9       		.byte	0xe9
 2348 0772 AD000000 		.4byte	0xad
 2349 0776 01       		.uleb128 0x1
 2350 0777 53       		.byte	0x53
ARM GAS  /tmp/ccnl3zJt.s 			page 43


 2351 0778 00       		.byte	0
 2352 0779 18       		.uleb128 0x18
 2353 077a 34000000 		.4byte	.LBB13
 2354 077e 06000000 		.4byte	.LBE13-.LBB13
 2355 0782 17       		.uleb128 0x17
 2356 0783 746D7000 		.ascii	"tmp\000"
 2357 0787 01       		.byte	0x1
 2358 0788 EC       		.byte	0xec
 2359 0789 AD000000 		.4byte	0xad
 2360 078d 01       		.uleb128 0x1
 2361 078e 53       		.byte	0x53
 2362 078f 00       		.byte	0
 2363 0790 00       		.byte	0
 2364 0791 13       		.uleb128 0x13
 2365 0792 3B050000 		.4byte	.LASF89
 2366 0796 01       		.byte	0x1
 2367 0797 FB       		.byte	0xfb
 2368 0798 00000000 		.4byte	.LFB14
 2369 079c 70000000 		.4byte	.LFE14-.LFB14
 2370 07a0 01       		.uleb128 0x1
 2371 07a1 9C       		.byte	0x9c
 2372 07a2 C2070000 		.4byte	0x7c2
 2373 07a6 14       		.uleb128 0x14
 2374 07a7 747000   		.ascii	"tp\000"
 2375 07aa 01       		.byte	0x1
 2376 07ab FB       		.byte	0xfb
 2377 07ac 6D020000 		.4byte	0x26d
 2378 07b0 02       		.uleb128 0x2
 2379 07b1 91       		.byte	0x91
 2380 07b2 74       		.sleb128 -12
 2381 07b3 15       		.uleb128 0x15
 2382 07b4 0D010000 		.4byte	.LASF80
 2383 07b8 01       		.byte	0x1
 2384 07b9 FB       		.byte	0xfb
 2385 07ba 17010000 		.4byte	0x117
 2386 07be 02       		.uleb128 0x2
 2387 07bf 91       		.byte	0x91
 2388 07c0 70       		.sleb128 -16
 2389 07c1 00       		.byte	0
 2390 07c2 1B       		.uleb128 0x1b
 2391 07c3 1B010000 		.4byte	.LASF90
 2392 07c7 01       		.byte	0x1
 2393 07c8 1601     		.2byte	0x116
 2394 07ca 00000000 		.4byte	.LFB15
 2395 07ce 2E000000 		.4byte	.LFE15-.LFB15
 2396 07d2 01       		.uleb128 0x1
 2397 07d3 9C       		.byte	0x9c
 2398 07d4 2B080000 		.4byte	0x82b
 2399 07d8 1C       		.uleb128 0x1c
 2400 07d9 65737000 		.ascii	"esp\000"
 2401 07dd 01       		.byte	0x1
 2402 07de 1601     		.2byte	0x116
 2403 07e0 50050000 		.4byte	0x550
 2404 07e4 02       		.uleb128 0x2
 2405 07e5 91       		.byte	0x91
 2406 07e6 74       		.sleb128 -12
 2407 07e7 1D       		.uleb128 0x1d
ARM GAS  /tmp/ccnl3zJt.s 			page 44


 2408 07e8 F5030000 		.4byte	.LASF86
 2409 07ec 01       		.byte	0x1
 2410 07ed 1601     		.2byte	0x116
 2411 07ef 22010000 		.4byte	0x122
 2412 07f3 02       		.uleb128 0x2
 2413 07f4 91       		.byte	0x91
 2414 07f5 70       		.sleb128 -16
 2415 07f6 16       		.uleb128 0x16
 2416 07f7 08000000 		.4byte	.LBB14
 2417 07fb 06000000 		.4byte	.LBE14-.LBB14
 2418 07ff 12080000 		.4byte	0x812
 2419 0803 1E       		.uleb128 0x1e
 2420 0804 746D7000 		.ascii	"tmp\000"
 2421 0808 01       		.byte	0x1
 2422 0809 1801     		.2byte	0x118
 2423 080b AD000000 		.4byte	0xad
 2424 080f 01       		.uleb128 0x1
 2425 0810 53       		.byte	0x53
 2426 0811 00       		.byte	0
 2427 0812 18       		.uleb128 0x18
 2428 0813 22000000 		.4byte	.LBB15
 2429 0817 06000000 		.4byte	.LBE15-.LBB15
 2430 081b 1E       		.uleb128 0x1e
 2431 081c 746D7000 		.ascii	"tmp\000"
 2432 0820 01       		.byte	0x1
 2433 0821 1B01     		.2byte	0x11b
 2434 0823 AD000000 		.4byte	0xad
 2435 0827 01       		.uleb128 0x1
 2436 0828 53       		.byte	0x53
 2437 0829 00       		.byte	0
 2438 082a 00       		.byte	0
 2439 082b 1F       		.uleb128 0x1f
 2440 082c 36030000 		.4byte	.LASF91
 2441 0830 01       		.byte	0x1
 2442 0831 2901     		.2byte	0x129
 2443 0833 22010000 		.4byte	0x122
 2444 0837 00000000 		.4byte	.LFB16
 2445 083b 18000000 		.4byte	.LFE16-.LFB16
 2446 083f 01       		.uleb128 0x1
 2447 0840 9C       		.byte	0x9c
 2448 0841 64080000 		.4byte	0x864
 2449 0845 1C       		.uleb128 0x1c
 2450 0846 656C7000 		.ascii	"elp\000"
 2451 084a 01       		.byte	0x1
 2452 084b 2901     		.2byte	0x129
 2453 084d 45040000 		.4byte	0x445
 2454 0851 02       		.uleb128 0x2
 2455 0852 91       		.byte	0x91
 2456 0853 74       		.sleb128 -12
 2457 0854 20       		.uleb128 0x20
 2458 0855 F5030000 		.4byte	.LASF86
 2459 0859 01       		.byte	0x1
 2460 085a 2A01     		.2byte	0x12a
 2461 085c 22010000 		.4byte	0x122
 2462 0860 02       		.uleb128 0x2
 2463 0861 91       		.byte	0x91
 2464 0862 7C       		.sleb128 -4
ARM GAS  /tmp/ccnl3zJt.s 			page 45


 2465 0863 00       		.byte	0
 2466 0864 1B       		.uleb128 0x1b
 2467 0865 4B020000 		.4byte	.LASF92
 2468 0869 01       		.byte	0x1
 2469 086a 3B01     		.2byte	0x13b
 2470 086c 00000000 		.4byte	.LFB17
 2471 0870 7C000000 		.4byte	.LFE17-.LFB17
 2472 0874 01       		.uleb128 0x1
 2473 0875 9C       		.byte	0x9c
 2474 0876 A8080000 		.4byte	0x8a8
 2475 087a 1D       		.uleb128 0x1d
 2476 087b AB020000 		.4byte	.LASF93
 2477 087f 01       		.byte	0x1
 2478 0880 3B01     		.2byte	0x13b
 2479 0882 A8080000 		.4byte	0x8a8
 2480 0886 02       		.uleb128 0x2
 2481 0887 91       		.byte	0x91
 2482 0888 6C       		.sleb128 -20
 2483 0889 1D       		.uleb128 0x1d
 2484 088a 0D010000 		.4byte	.LASF80
 2485 088e 01       		.byte	0x1
 2486 088f 3B01     		.2byte	0x13b
 2487 0891 17010000 		.4byte	0x117
 2488 0895 02       		.uleb128 0x2
 2489 0896 91       		.byte	0x91
 2490 0897 68       		.sleb128 -24
 2491 0898 1E       		.uleb128 0x1e
 2492 0899 65696400 		.ascii	"eid\000"
 2493 089d 01       		.byte	0x1
 2494 089e 3C01     		.2byte	0x13c
 2495 08a0 0C010000 		.4byte	0x10c
 2496 08a4 02       		.uleb128 0x2
 2497 08a5 91       		.byte	0x91
 2498 08a6 74       		.sleb128 -12
 2499 08a7 00       		.byte	0
 2500 08a8 09       		.uleb128 0x9
 2501 08a9 04       		.byte	0x4
 2502 08aa AE080000 		.4byte	0x8ae
 2503 08ae 12       		.uleb128 0x12
 2504 08af 6F040000 		.4byte	0x46f
 2505 08b3 21       		.uleb128 0x21
 2506 08b4 E7020000 		.4byte	.LASF94
 2507 08b8 01       		.byte	0x1
 2508 08b9 5E01     		.2byte	0x15e
 2509 08bb 17010000 		.4byte	0x117
 2510 08bf 00000000 		.4byte	.LFB18
 2511 08c3 6E000000 		.4byte	.LFE18-.LFB18
 2512 08c7 01       		.uleb128 0x1
 2513 08c8 9C       		.byte	0x9c
 2514 08c9 2D090000 		.4byte	0x92d
 2515 08cd 1D       		.uleb128 0x1d
 2516 08ce 0D010000 		.4byte	.LASF80
 2517 08d2 01       		.byte	0x1
 2518 08d3 5E01     		.2byte	0x15e
 2519 08d5 17010000 		.4byte	0x117
 2520 08d9 02       		.uleb128 0x2
 2521 08da 91       		.byte	0x91
ARM GAS  /tmp/ccnl3zJt.s 			page 46


 2522 08db 6C       		.sleb128 -20
 2523 08dc 1E       		.uleb128 0x1e
 2524 08dd 63747000 		.ascii	"ctp\000"
 2525 08e1 01       		.byte	0x1
 2526 08e2 5F01     		.2byte	0x15f
 2527 08e4 6D020000 		.4byte	0x26d
 2528 08e8 02       		.uleb128 0x2
 2529 08e9 91       		.byte	0x91
 2530 08ea 70       		.sleb128 -16
 2531 08eb 1E       		.uleb128 0x1e
 2532 08ec 6D00     		.ascii	"m\000"
 2533 08ee 01       		.byte	0x1
 2534 08ef 6001     		.2byte	0x160
 2535 08f1 17010000 		.4byte	0x117
 2536 08f5 02       		.uleb128 0x2
 2537 08f6 91       		.byte	0x91
 2538 08f7 74       		.sleb128 -12
 2539 08f8 16       		.uleb128 0x16
 2540 08f9 12000000 		.4byte	.LBB16
 2541 08fd 06000000 		.4byte	.LBE16-.LBB16
 2542 0901 14090000 		.4byte	0x914
 2543 0905 1E       		.uleb128 0x1e
 2544 0906 746D7000 		.ascii	"tmp\000"
 2545 090a 01       		.byte	0x1
 2546 090b 6201     		.2byte	0x162
 2547 090d AD000000 		.4byte	0xad
 2548 0911 01       		.uleb128 0x1
 2549 0912 53       		.byte	0x53
 2550 0913 00       		.byte	0
 2551 0914 18       		.uleb128 0x18
 2552 0915 5E000000 		.4byte	.LBB17
 2553 0919 06000000 		.4byte	.LBE17-.LBB17
 2554 091d 1E       		.uleb128 0x1e
 2555 091e 746D7000 		.ascii	"tmp\000"
 2556 0922 01       		.byte	0x1
 2557 0923 6C01     		.2byte	0x16c
 2558 0925 AD000000 		.4byte	0xad
 2559 0929 01       		.uleb128 0x1
 2560 092a 53       		.byte	0x53
 2561 092b 00       		.byte	0
 2562 092c 00       		.byte	0
 2563 092d 21       		.uleb128 0x21
 2564 092e D8000000 		.4byte	.LASF95
 2565 0932 01       		.byte	0x1
 2566 0933 7B01     		.2byte	0x17b
 2567 0935 17010000 		.4byte	0x117
 2568 0939 00000000 		.4byte	.LFB19
 2569 093d 64000000 		.4byte	.LFE19-.LFB19
 2570 0941 01       		.uleb128 0x1
 2571 0942 9C       		.byte	0x9c
 2572 0943 A7090000 		.4byte	0x9a7
 2573 0947 1D       		.uleb128 0x1d
 2574 0948 0D010000 		.4byte	.LASF80
 2575 094c 01       		.byte	0x1
 2576 094d 7B01     		.2byte	0x17b
 2577 094f 17010000 		.4byte	0x117
 2578 0953 02       		.uleb128 0x2
ARM GAS  /tmp/ccnl3zJt.s 			page 47


 2579 0954 91       		.byte	0x91
 2580 0955 6C       		.sleb128 -20
 2581 0956 1E       		.uleb128 0x1e
 2582 0957 63747000 		.ascii	"ctp\000"
 2583 095b 01       		.byte	0x1
 2584 095c 7C01     		.2byte	0x17c
 2585 095e 6D020000 		.4byte	0x26d
 2586 0962 02       		.uleb128 0x2
 2587 0963 91       		.byte	0x91
 2588 0964 70       		.sleb128 -16
 2589 0965 1E       		.uleb128 0x1e
 2590 0966 6D00     		.ascii	"m\000"
 2591 0968 01       		.byte	0x1
 2592 0969 7D01     		.2byte	0x17d
 2593 096b 17010000 		.4byte	0x117
 2594 096f 02       		.uleb128 0x2
 2595 0970 91       		.byte	0x91
 2596 0971 74       		.sleb128 -12
 2597 0972 16       		.uleb128 0x16
 2598 0973 12000000 		.4byte	.LBB18
 2599 0977 06000000 		.4byte	.LBE18-.LBB18
 2600 097b 8E090000 		.4byte	0x98e
 2601 097f 1E       		.uleb128 0x1e
 2602 0980 746D7000 		.ascii	"tmp\000"
 2603 0984 01       		.byte	0x1
 2604 0985 7F01     		.2byte	0x17f
 2605 0987 AD000000 		.4byte	0xad
 2606 098b 01       		.uleb128 0x1
 2607 098c 53       		.byte	0x53
 2608 098d 00       		.byte	0
 2609 098e 18       		.uleb128 0x18
 2610 098f 54000000 		.4byte	.LBB19
 2611 0993 06000000 		.4byte	.LBE19-.LBB19
 2612 0997 1E       		.uleb128 0x1e
 2613 0998 746D7000 		.ascii	"tmp\000"
 2614 099c 01       		.byte	0x1
 2615 099d 8801     		.2byte	0x188
 2616 099f AD000000 		.4byte	0xad
 2617 09a3 01       		.uleb128 0x1
 2618 09a4 53       		.byte	0x53
 2619 09a5 00       		.byte	0
 2620 09a6 00       		.byte	0
 2621 09a7 21       		.uleb128 0x21
 2622 09a8 79020000 		.4byte	.LASF96
 2623 09ac 01       		.byte	0x1
 2624 09ad 9701     		.2byte	0x197
 2625 09af 17010000 		.4byte	0x117
 2626 09b3 00000000 		.4byte	.LFB20
 2627 09b7 58000000 		.4byte	.LFE20-.LFB20
 2628 09bb 01       		.uleb128 0x1
 2629 09bc 9C       		.byte	0x9c
 2630 09bd 140A0000 		.4byte	0xa14
 2631 09c1 1D       		.uleb128 0x1d
 2632 09c2 0D010000 		.4byte	.LASF80
 2633 09c6 01       		.byte	0x1
 2634 09c7 9701     		.2byte	0x197
 2635 09c9 17010000 		.4byte	0x117
ARM GAS  /tmp/ccnl3zJt.s 			page 48


 2636 09cd 02       		.uleb128 0x2
 2637 09ce 91       		.byte	0x91
 2638 09cf 6C       		.sleb128 -20
 2639 09d0 1E       		.uleb128 0x1e
 2640 09d1 63747000 		.ascii	"ctp\000"
 2641 09d5 01       		.byte	0x1
 2642 09d6 9801     		.2byte	0x198
 2643 09d8 6D020000 		.4byte	0x26d
 2644 09dc 02       		.uleb128 0x2
 2645 09dd 91       		.byte	0x91
 2646 09de 74       		.sleb128 -12
 2647 09df 16       		.uleb128 0x16
 2648 09e0 12000000 		.4byte	.LBB20
 2649 09e4 06000000 		.4byte	.LBE20-.LBB20
 2650 09e8 FB090000 		.4byte	0x9fb
 2651 09ec 1E       		.uleb128 0x1e
 2652 09ed 746D7000 		.ascii	"tmp\000"
 2653 09f1 01       		.byte	0x1
 2654 09f2 9A01     		.2byte	0x19a
 2655 09f4 AD000000 		.4byte	0xad
 2656 09f8 01       		.uleb128 0x1
 2657 09f9 53       		.byte	0x53
 2658 09fa 00       		.byte	0
 2659 09fb 18       		.uleb128 0x18
 2660 09fc 48000000 		.4byte	.LBB21
 2661 0a00 06000000 		.4byte	.LBE21-.LBB21
 2662 0a04 1E       		.uleb128 0x1e
 2663 0a05 746D7000 		.ascii	"tmp\000"
 2664 0a09 01       		.byte	0x1
 2665 0a0a A201     		.2byte	0x1a2
 2666 0a0c AD000000 		.4byte	0xad
 2667 0a10 01       		.uleb128 0x1
 2668 0a11 53       		.byte	0x53
 2669 0a12 00       		.byte	0
 2670 0a13 00       		.byte	0
 2671 0a14 21       		.uleb128 0x21
 2672 0a15 09040000 		.4byte	.LASF97
 2673 0a19 01       		.byte	0x1
 2674 0a1a BE01     		.2byte	0x1be
 2675 0a1c 17010000 		.4byte	0x117
 2676 0a20 00000000 		.4byte	.LFB21
 2677 0a24 9A000000 		.4byte	.LFE21-.LFB21
 2678 0a28 01       		.uleb128 0x1
 2679 0a29 9C       		.byte	0x9c
 2680 0a2a D50A0000 		.4byte	0xad5
 2681 0a2e 1D       		.uleb128 0x1d
 2682 0a2f 0D010000 		.4byte	.LASF80
 2683 0a33 01       		.byte	0x1
 2684 0a34 BE01     		.2byte	0x1be
 2685 0a36 17010000 		.4byte	0x117
 2686 0a3a 02       		.uleb128 0x2
 2687 0a3b 91       		.byte	0x91
 2688 0a3c 6C       		.sleb128 -20
 2689 0a3d 1D       		.uleb128 0x1d
 2690 0a3e 74020000 		.4byte	.LASF98
 2691 0a42 01       		.byte	0x1
 2692 0a43 BE01     		.2byte	0x1be
ARM GAS  /tmp/ccnl3zJt.s 			page 49


 2693 0a45 2D010000 		.4byte	0x12d
 2694 0a49 02       		.uleb128 0x2
 2695 0a4a 91       		.byte	0x91
 2696 0a4b 68       		.sleb128 -24
 2697 0a4c 1E       		.uleb128 0x1e
 2698 0a4d 63747000 		.ascii	"ctp\000"
 2699 0a51 01       		.byte	0x1
 2700 0a52 BF01     		.2byte	0x1bf
 2701 0a54 6D020000 		.4byte	0x26d
 2702 0a58 02       		.uleb128 0x2
 2703 0a59 91       		.byte	0x91
 2704 0a5a 70       		.sleb128 -16
 2705 0a5b 1E       		.uleb128 0x1e
 2706 0a5c 6D00     		.ascii	"m\000"
 2707 0a5e 01       		.byte	0x1
 2708 0a5f C001     		.2byte	0x1c0
 2709 0a61 17010000 		.4byte	0x117
 2710 0a65 02       		.uleb128 0x2
 2711 0a66 91       		.byte	0x91
 2712 0a67 74       		.sleb128 -12
 2713 0a68 16       		.uleb128 0x16
 2714 0a69 14000000 		.4byte	.LBB22
 2715 0a6d 06000000 		.4byte	.LBE22-.LBB22
 2716 0a71 840A0000 		.4byte	0xa84
 2717 0a75 1E       		.uleb128 0x1e
 2718 0a76 746D7000 		.ascii	"tmp\000"
 2719 0a7a 01       		.byte	0x1
 2720 0a7b C201     		.2byte	0x1c2
 2721 0a7d AD000000 		.4byte	0xad
 2722 0a81 01       		.uleb128 0x1
 2723 0a82 53       		.byte	0x53
 2724 0a83 00       		.byte	0
 2725 0a84 16       		.uleb128 0x16
 2726 0a85 38000000 		.4byte	.LBB23
 2727 0a89 06000000 		.4byte	.LBE23-.LBB23
 2728 0a8d A00A0000 		.4byte	0xaa0
 2729 0a91 1E       		.uleb128 0x1e
 2730 0a92 746D7000 		.ascii	"tmp\000"
 2731 0a96 01       		.byte	0x1
 2732 0a97 C601     		.2byte	0x1c6
 2733 0a99 AD000000 		.4byte	0xad
 2734 0a9d 01       		.uleb128 0x1
 2735 0a9e 53       		.byte	0x53
 2736 0a9f 00       		.byte	0
 2737 0aa0 16       		.uleb128 0x16
 2738 0aa1 5A000000 		.4byte	.LBB24
 2739 0aa5 06000000 		.4byte	.LBE24-.LBB24
 2740 0aa9 BC0A0000 		.4byte	0xabc
 2741 0aad 1E       		.uleb128 0x1e
 2742 0aae 746D7000 		.ascii	"tmp\000"
 2743 0ab2 01       		.byte	0x1
 2744 0ab3 CB01     		.2byte	0x1cb
 2745 0ab5 AD000000 		.4byte	0xad
 2746 0ab9 01       		.uleb128 0x1
 2747 0aba 53       		.byte	0x53
 2748 0abb 00       		.byte	0
 2749 0abc 18       		.uleb128 0x18
ARM GAS  /tmp/ccnl3zJt.s 			page 50


 2750 0abd 8A000000 		.4byte	.LBB25
 2751 0ac1 06000000 		.4byte	.LBE25-.LBB25
 2752 0ac5 1E       		.uleb128 0x1e
 2753 0ac6 746D7000 		.ascii	"tmp\000"
 2754 0aca 01       		.byte	0x1
 2755 0acb D301     		.2byte	0x1d3
 2756 0acd AD000000 		.4byte	0xad
 2757 0ad1 01       		.uleb128 0x1
 2758 0ad2 53       		.byte	0x53
 2759 0ad3 00       		.byte	0
 2760 0ad4 00       		.byte	0
 2761 0ad5 21       		.uleb128 0x21
 2762 0ad6 63000000 		.4byte	.LASF99
 2763 0ada 01       		.byte	0x1
 2764 0adb E901     		.2byte	0x1e9
 2765 0add 17010000 		.4byte	0x117
 2766 0ae1 00000000 		.4byte	.LFB22
 2767 0ae5 90000000 		.4byte	.LFE22-.LFB22
 2768 0ae9 01       		.uleb128 0x1
 2769 0aea 9C       		.byte	0x9c
 2770 0aeb 960B0000 		.4byte	0xb96
 2771 0aef 1D       		.uleb128 0x1d
 2772 0af0 0D010000 		.4byte	.LASF80
 2773 0af4 01       		.byte	0x1
 2774 0af5 E901     		.2byte	0x1e9
 2775 0af7 17010000 		.4byte	0x117
 2776 0afb 02       		.uleb128 0x2
 2777 0afc 91       		.byte	0x91
 2778 0afd 6C       		.sleb128 -20
 2779 0afe 1D       		.uleb128 0x1d
 2780 0aff 74020000 		.4byte	.LASF98
 2781 0b03 01       		.byte	0x1
 2782 0b04 E901     		.2byte	0x1e9
 2783 0b06 2D010000 		.4byte	0x12d
 2784 0b0a 02       		.uleb128 0x2
 2785 0b0b 91       		.byte	0x91
 2786 0b0c 68       		.sleb128 -24
 2787 0b0d 1E       		.uleb128 0x1e
 2788 0b0e 63747000 		.ascii	"ctp\000"
 2789 0b12 01       		.byte	0x1
 2790 0b13 EA01     		.2byte	0x1ea
 2791 0b15 6D020000 		.4byte	0x26d
 2792 0b19 02       		.uleb128 0x2
 2793 0b1a 91       		.byte	0x91
 2794 0b1b 70       		.sleb128 -16
 2795 0b1c 1E       		.uleb128 0x1e
 2796 0b1d 6D00     		.ascii	"m\000"
 2797 0b1f 01       		.byte	0x1
 2798 0b20 EB01     		.2byte	0x1eb
 2799 0b22 17010000 		.4byte	0x117
 2800 0b26 02       		.uleb128 0x2
 2801 0b27 91       		.byte	0x91
 2802 0b28 74       		.sleb128 -12
 2803 0b29 16       		.uleb128 0x16
 2804 0b2a 14000000 		.4byte	.LBB26
 2805 0b2e 06000000 		.4byte	.LBE26-.LBB26
 2806 0b32 450B0000 		.4byte	0xb45
ARM GAS  /tmp/ccnl3zJt.s 			page 51


 2807 0b36 1E       		.uleb128 0x1e
 2808 0b37 746D7000 		.ascii	"tmp\000"
 2809 0b3b 01       		.byte	0x1
 2810 0b3c ED01     		.2byte	0x1ed
 2811 0b3e AD000000 		.4byte	0xad
 2812 0b42 01       		.uleb128 0x1
 2813 0b43 53       		.byte	0x53
 2814 0b44 00       		.byte	0
 2815 0b45 16       		.uleb128 0x16
 2816 0b46 38000000 		.4byte	.LBB27
 2817 0b4a 06000000 		.4byte	.LBE27-.LBB27
 2818 0b4e 610B0000 		.4byte	0xb61
 2819 0b52 1E       		.uleb128 0x1e
 2820 0b53 746D7000 		.ascii	"tmp\000"
 2821 0b57 01       		.byte	0x1
 2822 0b58 F101     		.2byte	0x1f1
 2823 0b5a AD000000 		.4byte	0xad
 2824 0b5e 01       		.uleb128 0x1
 2825 0b5f 53       		.byte	0x53
 2826 0b60 00       		.byte	0
 2827 0b61 16       		.uleb128 0x16
 2828 0b62 5A000000 		.4byte	.LBB28
 2829 0b66 06000000 		.4byte	.LBE28-.LBB28
 2830 0b6a 7D0B0000 		.4byte	0xb7d
 2831 0b6e 1E       		.uleb128 0x1e
 2832 0b6f 746D7000 		.ascii	"tmp\000"
 2833 0b73 01       		.byte	0x1
 2834 0b74 F601     		.2byte	0x1f6
 2835 0b76 AD000000 		.4byte	0xad
 2836 0b7a 01       		.uleb128 0x1
 2837 0b7b 53       		.byte	0x53
 2838 0b7c 00       		.byte	0
 2839 0b7d 18       		.uleb128 0x18
 2840 0b7e 80000000 		.4byte	.LBB29
 2841 0b82 06000000 		.4byte	.LBE29-.LBB29
 2842 0b86 1E       		.uleb128 0x1e
 2843 0b87 746D7000 		.ascii	"tmp\000"
 2844 0b8b 01       		.byte	0x1
 2845 0b8c FD01     		.2byte	0x1fd
 2846 0b8e AD000000 		.4byte	0xad
 2847 0b92 01       		.uleb128 0x1
 2848 0b93 53       		.byte	0x53
 2849 0b94 00       		.byte	0
 2850 0b95 00       		.byte	0
 2851 0b96 21       		.uleb128 0x21
 2852 0b97 98000000 		.4byte	.LASF100
 2853 0b9b 01       		.byte	0x1
 2854 0b9c 1202     		.2byte	0x212
 2855 0b9e 17010000 		.4byte	0x117
 2856 0ba2 00000000 		.4byte	.LFB23
 2857 0ba6 84000000 		.4byte	.LFE23-.LFB23
 2858 0baa 01       		.uleb128 0x1
 2859 0bab 9C       		.byte	0x9c
 2860 0bac 4A0C0000 		.4byte	0xc4a
 2861 0bb0 1D       		.uleb128 0x1d
 2862 0bb1 0D010000 		.4byte	.LASF80
 2863 0bb5 01       		.byte	0x1
ARM GAS  /tmp/ccnl3zJt.s 			page 52


 2864 0bb6 1202     		.2byte	0x212
 2865 0bb8 17010000 		.4byte	0x117
 2866 0bbc 02       		.uleb128 0x2
 2867 0bbd 91       		.byte	0x91
 2868 0bbe 6C       		.sleb128 -20
 2869 0bbf 1D       		.uleb128 0x1d
 2870 0bc0 74020000 		.4byte	.LASF98
 2871 0bc4 01       		.byte	0x1
 2872 0bc5 1202     		.2byte	0x212
 2873 0bc7 2D010000 		.4byte	0x12d
 2874 0bcb 02       		.uleb128 0x2
 2875 0bcc 91       		.byte	0x91
 2876 0bcd 68       		.sleb128 -24
 2877 0bce 1E       		.uleb128 0x1e
 2878 0bcf 63747000 		.ascii	"ctp\000"
 2879 0bd3 01       		.byte	0x1
 2880 0bd4 1302     		.2byte	0x213
 2881 0bd6 6D020000 		.4byte	0x26d
 2882 0bda 02       		.uleb128 0x2
 2883 0bdb 91       		.byte	0x91
 2884 0bdc 74       		.sleb128 -12
 2885 0bdd 16       		.uleb128 0x16
 2886 0bde 14000000 		.4byte	.LBB30
 2887 0be2 06000000 		.4byte	.LBE30-.LBB30
 2888 0be6 F90B0000 		.4byte	0xbf9
 2889 0bea 1E       		.uleb128 0x1e
 2890 0beb 746D7000 		.ascii	"tmp\000"
 2891 0bef 01       		.byte	0x1
 2892 0bf0 1502     		.2byte	0x215
 2893 0bf2 AD000000 		.4byte	0xad
 2894 0bf6 01       		.uleb128 0x1
 2895 0bf7 53       		.byte	0x53
 2896 0bf8 00       		.byte	0
 2897 0bf9 16       		.uleb128 0x16
 2898 0bfa 36000000 		.4byte	.LBB31
 2899 0bfe 06000000 		.4byte	.LBE31-.LBB31
 2900 0c02 150C0000 		.4byte	0xc15
 2901 0c06 1E       		.uleb128 0x1e
 2902 0c07 746D7000 		.ascii	"tmp\000"
 2903 0c0b 01       		.byte	0x1
 2904 0c0c 1902     		.2byte	0x219
 2905 0c0e AD000000 		.4byte	0xad
 2906 0c12 01       		.uleb128 0x1
 2907 0c13 53       		.byte	0x53
 2908 0c14 00       		.byte	0
 2909 0c15 16       		.uleb128 0x16
 2910 0c16 58000000 		.4byte	.LBB32
 2911 0c1a 06000000 		.4byte	.LBE32-.LBB32
 2912 0c1e 310C0000 		.4byte	0xc31
 2913 0c22 1E       		.uleb128 0x1e
 2914 0c23 746D7000 		.ascii	"tmp\000"
 2915 0c27 01       		.byte	0x1
 2916 0c28 1E02     		.2byte	0x21e
 2917 0c2a AD000000 		.4byte	0xad
 2918 0c2e 01       		.uleb128 0x1
 2919 0c2f 53       		.byte	0x53
 2920 0c30 00       		.byte	0
ARM GAS  /tmp/ccnl3zJt.s 			page 53


 2921 0c31 18       		.uleb128 0x18
 2922 0c32 74000000 		.4byte	.LBB33
 2923 0c36 06000000 		.4byte	.LBE33-.LBB33
 2924 0c3a 1E       		.uleb128 0x1e
 2925 0c3b 746D7000 		.ascii	"tmp\000"
 2926 0c3f 01       		.byte	0x1
 2927 0c40 2402     		.2byte	0x224
 2928 0c42 AD000000 		.4byte	0xad
 2929 0c46 01       		.uleb128 0x1
 2930 0c47 53       		.byte	0x53
 2931 0c48 00       		.byte	0
 2932 0c49 00       		.byte	0
 2933 0c4a 22       		.uleb128 0x22
 2934 0c4b E7030000 		.4byte	.LASF104
 2935 0c4f 08       		.byte	0x8
 2936 0c50 6F       		.byte	0x6f
 2937 0c51 B0030000 		.4byte	0x3b0
 2938 0c55 00       		.byte	0
 2939              		.section	.debug_abbrev,"",%progbits
 2940              	.Ldebug_abbrev0:
 2941 0000 01       		.uleb128 0x1
 2942 0001 11       		.uleb128 0x11
 2943 0002 01       		.byte	0x1
 2944 0003 25       		.uleb128 0x25
 2945 0004 0E       		.uleb128 0xe
 2946 0005 13       		.uleb128 0x13
 2947 0006 0B       		.uleb128 0xb
 2948 0007 03       		.uleb128 0x3
 2949 0008 0E       		.uleb128 0xe
 2950 0009 1B       		.uleb128 0x1b
 2951 000a 0E       		.uleb128 0xe
 2952 000b 55       		.uleb128 0x55
 2953 000c 17       		.uleb128 0x17
 2954 000d 11       		.uleb128 0x11
 2955 000e 01       		.uleb128 0x1
 2956 000f 10       		.uleb128 0x10
 2957 0010 17       		.uleb128 0x17
 2958 0011 00       		.byte	0
 2959 0012 00       		.byte	0
 2960 0013 02       		.uleb128 0x2
 2961 0014 24       		.uleb128 0x24
 2962 0015 00       		.byte	0
 2963 0016 0B       		.uleb128 0xb
 2964 0017 0B       		.uleb128 0xb
 2965 0018 3E       		.uleb128 0x3e
 2966 0019 0B       		.uleb128 0xb
 2967 001a 03       		.uleb128 0x3
 2968 001b 08       		.uleb128 0x8
 2969 001c 00       		.byte	0
 2970 001d 00       		.byte	0
 2971 001e 03       		.uleb128 0x3
 2972 001f 24       		.uleb128 0x24
 2973 0020 00       		.byte	0
 2974 0021 0B       		.uleb128 0xb
 2975 0022 0B       		.uleb128 0xb
 2976 0023 3E       		.uleb128 0x3e
 2977 0024 0B       		.uleb128 0xb
ARM GAS  /tmp/ccnl3zJt.s 			page 54


 2978 0025 03       		.uleb128 0x3
 2979 0026 0E       		.uleb128 0xe
 2980 0027 00       		.byte	0
 2981 0028 00       		.byte	0
 2982 0029 04       		.uleb128 0x4
 2983 002a 16       		.uleb128 0x16
 2984 002b 00       		.byte	0
 2985 002c 03       		.uleb128 0x3
 2986 002d 0E       		.uleb128 0xe
 2987 002e 3A       		.uleb128 0x3a
 2988 002f 0B       		.uleb128 0xb
 2989 0030 3B       		.uleb128 0x3b
 2990 0031 0B       		.uleb128 0xb
 2991 0032 49       		.uleb128 0x49
 2992 0033 13       		.uleb128 0x13
 2993 0034 00       		.byte	0
 2994 0035 00       		.byte	0
 2995 0036 05       		.uleb128 0x5
 2996 0037 13       		.uleb128 0x13
 2997 0038 01       		.byte	0x1
 2998 0039 03       		.uleb128 0x3
 2999 003a 0E       		.uleb128 0xe
 3000 003b 0B       		.uleb128 0xb
 3001 003c 0B       		.uleb128 0xb
 3002 003d 3A       		.uleb128 0x3a
 3003 003e 0B       		.uleb128 0xb
 3004 003f 3B       		.uleb128 0x3b
 3005 0040 0B       		.uleb128 0xb
 3006 0041 01       		.uleb128 0x1
 3007 0042 13       		.uleb128 0x13
 3008 0043 00       		.byte	0
 3009 0044 00       		.byte	0
 3010 0045 06       		.uleb128 0x6
 3011 0046 0D       		.uleb128 0xd
 3012 0047 00       		.byte	0
 3013 0048 03       		.uleb128 0x3
 3014 0049 0E       		.uleb128 0xe
 3015 004a 3A       		.uleb128 0x3a
 3016 004b 0B       		.uleb128 0xb
 3017 004c 3B       		.uleb128 0x3b
 3018 004d 0B       		.uleb128 0xb
 3019 004e 49       		.uleb128 0x49
 3020 004f 13       		.uleb128 0x13
 3021 0050 38       		.uleb128 0x38
 3022 0051 0B       		.uleb128 0xb
 3023 0052 00       		.byte	0
 3024 0053 00       		.byte	0
 3025 0054 07       		.uleb128 0x7
 3026 0055 0D       		.uleb128 0xd
 3027 0056 00       		.byte	0
 3028 0057 03       		.uleb128 0x3
 3029 0058 08       		.uleb128 0x8
 3030 0059 3A       		.uleb128 0x3a
 3031 005a 0B       		.uleb128 0xb
 3032 005b 3B       		.uleb128 0x3b
 3033 005c 0B       		.uleb128 0xb
 3034 005d 49       		.uleb128 0x49
ARM GAS  /tmp/ccnl3zJt.s 			page 55


 3035 005e 13       		.uleb128 0x13
 3036 005f 38       		.uleb128 0x38
 3037 0060 0B       		.uleb128 0xb
 3038 0061 00       		.byte	0
 3039 0062 00       		.byte	0
 3040 0063 08       		.uleb128 0x8
 3041 0064 13       		.uleb128 0x13
 3042 0065 01       		.byte	0x1
 3043 0066 0B       		.uleb128 0xb
 3044 0067 0B       		.uleb128 0xb
 3045 0068 3A       		.uleb128 0x3a
 3046 0069 0B       		.uleb128 0xb
 3047 006a 3B       		.uleb128 0x3b
 3048 006b 0B       		.uleb128 0xb
 3049 006c 01       		.uleb128 0x1
 3050 006d 13       		.uleb128 0x13
 3051 006e 00       		.byte	0
 3052 006f 00       		.byte	0
 3053 0070 09       		.uleb128 0x9
 3054 0071 0F       		.uleb128 0xf
 3055 0072 00       		.byte	0
 3056 0073 0B       		.uleb128 0xb
 3057 0074 0B       		.uleb128 0xb
 3058 0075 49       		.uleb128 0x49
 3059 0076 13       		.uleb128 0x13
 3060 0077 00       		.byte	0
 3061 0078 00       		.byte	0
 3062 0079 0A       		.uleb128 0xa
 3063 007a 0F       		.uleb128 0xf
 3064 007b 00       		.byte	0
 3065 007c 0B       		.uleb128 0xb
 3066 007d 0B       		.uleb128 0xb
 3067 007e 00       		.byte	0
 3068 007f 00       		.byte	0
 3069 0080 0B       		.uleb128 0xb
 3070 0081 13       		.uleb128 0x13
 3071 0082 01       		.byte	0x1
 3072 0083 03       		.uleb128 0x3
 3073 0084 0E       		.uleb128 0xe
 3074 0085 0B       		.uleb128 0xb
 3075 0086 0B       		.uleb128 0xb
 3076 0087 3A       		.uleb128 0x3a
 3077 0088 0B       		.uleb128 0xb
 3078 0089 3B       		.uleb128 0x3b
 3079 008a 05       		.uleb128 0x5
 3080 008b 01       		.uleb128 0x1
 3081 008c 13       		.uleb128 0x13
 3082 008d 00       		.byte	0
 3083 008e 00       		.byte	0
 3084 008f 0C       		.uleb128 0xc
 3085 0090 0D       		.uleb128 0xd
 3086 0091 00       		.byte	0
 3087 0092 03       		.uleb128 0x3
 3088 0093 08       		.uleb128 0x8
 3089 0094 3A       		.uleb128 0x3a
 3090 0095 0B       		.uleb128 0xb
 3091 0096 3B       		.uleb128 0x3b
ARM GAS  /tmp/ccnl3zJt.s 			page 56


 3092 0097 05       		.uleb128 0x5
 3093 0098 49       		.uleb128 0x49
 3094 0099 13       		.uleb128 0x13
 3095 009a 38       		.uleb128 0x38
 3096 009b 0B       		.uleb128 0xb
 3097 009c 00       		.byte	0
 3098 009d 00       		.byte	0
 3099 009e 0D       		.uleb128 0xd
 3100 009f 35       		.uleb128 0x35
 3101 00a0 00       		.byte	0
 3102 00a1 49       		.uleb128 0x49
 3103 00a2 13       		.uleb128 0x13
 3104 00a3 00       		.byte	0
 3105 00a4 00       		.byte	0
 3106 00a5 0E       		.uleb128 0xe
 3107 00a6 15       		.uleb128 0x15
 3108 00a7 01       		.byte	0x1
 3109 00a8 27       		.uleb128 0x27
 3110 00a9 19       		.uleb128 0x19
 3111 00aa 01       		.uleb128 0x1
 3112 00ab 13       		.uleb128 0x13
 3113 00ac 00       		.byte	0
 3114 00ad 00       		.byte	0
 3115 00ae 0F       		.uleb128 0xf
 3116 00af 05       		.uleb128 0x5
 3117 00b0 00       		.byte	0
 3118 00b1 49       		.uleb128 0x49
 3119 00b2 13       		.uleb128 0x13
 3120 00b3 00       		.byte	0
 3121 00b4 00       		.byte	0
 3122 00b5 10       		.uleb128 0x10
 3123 00b6 17       		.uleb128 0x17
 3124 00b7 01       		.byte	0x1
 3125 00b8 0B       		.uleb128 0xb
 3126 00b9 0B       		.uleb128 0xb
 3127 00ba 3A       		.uleb128 0x3a
 3128 00bb 0B       		.uleb128 0xb
 3129 00bc 3B       		.uleb128 0x3b
 3130 00bd 0B       		.uleb128 0xb
 3131 00be 01       		.uleb128 0x1
 3132 00bf 13       		.uleb128 0x13
 3133 00c0 00       		.byte	0
 3134 00c1 00       		.byte	0
 3135 00c2 11       		.uleb128 0x11
 3136 00c3 0D       		.uleb128 0xd
 3137 00c4 00       		.byte	0
 3138 00c5 03       		.uleb128 0x3
 3139 00c6 0E       		.uleb128 0xe
 3140 00c7 3A       		.uleb128 0x3a
 3141 00c8 0B       		.uleb128 0xb
 3142 00c9 3B       		.uleb128 0x3b
 3143 00ca 0B       		.uleb128 0xb
 3144 00cb 49       		.uleb128 0x49
 3145 00cc 13       		.uleb128 0x13
 3146 00cd 00       		.byte	0
 3147 00ce 00       		.byte	0
 3148 00cf 12       		.uleb128 0x12
ARM GAS  /tmp/ccnl3zJt.s 			page 57


 3149 00d0 26       		.uleb128 0x26
 3150 00d1 00       		.byte	0
 3151 00d2 49       		.uleb128 0x49
 3152 00d3 13       		.uleb128 0x13
 3153 00d4 00       		.byte	0
 3154 00d5 00       		.byte	0
 3155 00d6 13       		.uleb128 0x13
 3156 00d7 2E       		.uleb128 0x2e
 3157 00d8 01       		.byte	0x1
 3158 00d9 3F       		.uleb128 0x3f
 3159 00da 19       		.uleb128 0x19
 3160 00db 03       		.uleb128 0x3
 3161 00dc 0E       		.uleb128 0xe
 3162 00dd 3A       		.uleb128 0x3a
 3163 00de 0B       		.uleb128 0xb
 3164 00df 3B       		.uleb128 0x3b
 3165 00e0 0B       		.uleb128 0xb
 3166 00e1 27       		.uleb128 0x27
 3167 00e2 19       		.uleb128 0x19
 3168 00e3 11       		.uleb128 0x11
 3169 00e4 01       		.uleb128 0x1
 3170 00e5 12       		.uleb128 0x12
 3171 00e6 06       		.uleb128 0x6
 3172 00e7 40       		.uleb128 0x40
 3173 00e8 18       		.uleb128 0x18
 3174 00e9 9642     		.uleb128 0x2116
 3175 00eb 19       		.uleb128 0x19
 3176 00ec 01       		.uleb128 0x1
 3177 00ed 13       		.uleb128 0x13
 3178 00ee 00       		.byte	0
 3179 00ef 00       		.byte	0
 3180 00f0 14       		.uleb128 0x14
 3181 00f1 05       		.uleb128 0x5
 3182 00f2 00       		.byte	0
 3183 00f3 03       		.uleb128 0x3
 3184 00f4 08       		.uleb128 0x8
 3185 00f5 3A       		.uleb128 0x3a
 3186 00f6 0B       		.uleb128 0xb
 3187 00f7 3B       		.uleb128 0x3b
 3188 00f8 0B       		.uleb128 0xb
 3189 00f9 49       		.uleb128 0x49
 3190 00fa 13       		.uleb128 0x13
 3191 00fb 02       		.uleb128 0x2
 3192 00fc 18       		.uleb128 0x18
 3193 00fd 00       		.byte	0
 3194 00fe 00       		.byte	0
 3195 00ff 15       		.uleb128 0x15
 3196 0100 05       		.uleb128 0x5
 3197 0101 00       		.byte	0
 3198 0102 03       		.uleb128 0x3
 3199 0103 0E       		.uleb128 0xe
 3200 0104 3A       		.uleb128 0x3a
 3201 0105 0B       		.uleb128 0xb
 3202 0106 3B       		.uleb128 0x3b
 3203 0107 0B       		.uleb128 0xb
 3204 0108 49       		.uleb128 0x49
 3205 0109 13       		.uleb128 0x13
ARM GAS  /tmp/ccnl3zJt.s 			page 58


 3206 010a 02       		.uleb128 0x2
 3207 010b 18       		.uleb128 0x18
 3208 010c 00       		.byte	0
 3209 010d 00       		.byte	0
 3210 010e 16       		.uleb128 0x16
 3211 010f 0B       		.uleb128 0xb
 3212 0110 01       		.byte	0x1
 3213 0111 11       		.uleb128 0x11
 3214 0112 01       		.uleb128 0x1
 3215 0113 12       		.uleb128 0x12
 3216 0114 06       		.uleb128 0x6
 3217 0115 01       		.uleb128 0x1
 3218 0116 13       		.uleb128 0x13
 3219 0117 00       		.byte	0
 3220 0118 00       		.byte	0
 3221 0119 17       		.uleb128 0x17
 3222 011a 34       		.uleb128 0x34
 3223 011b 00       		.byte	0
 3224 011c 03       		.uleb128 0x3
 3225 011d 08       		.uleb128 0x8
 3226 011e 3A       		.uleb128 0x3a
 3227 011f 0B       		.uleb128 0xb
 3228 0120 3B       		.uleb128 0x3b
 3229 0121 0B       		.uleb128 0xb
 3230 0122 49       		.uleb128 0x49
 3231 0123 13       		.uleb128 0x13
 3232 0124 02       		.uleb128 0x2
 3233 0125 18       		.uleb128 0x18
 3234 0126 00       		.byte	0
 3235 0127 00       		.byte	0
 3236 0128 18       		.uleb128 0x18
 3237 0129 0B       		.uleb128 0xb
 3238 012a 01       		.byte	0x1
 3239 012b 11       		.uleb128 0x11
 3240 012c 01       		.uleb128 0x1
 3241 012d 12       		.uleb128 0x12
 3242 012e 06       		.uleb128 0x6
 3243 012f 00       		.byte	0
 3244 0130 00       		.byte	0
 3245 0131 19       		.uleb128 0x19
 3246 0132 2E       		.uleb128 0x2e
 3247 0133 01       		.byte	0x1
 3248 0134 3F       		.uleb128 0x3f
 3249 0135 19       		.uleb128 0x19
 3250 0136 03       		.uleb128 0x3
 3251 0137 0E       		.uleb128 0xe
 3252 0138 3A       		.uleb128 0x3a
 3253 0139 0B       		.uleb128 0xb
 3254 013a 3B       		.uleb128 0x3b
 3255 013b 0B       		.uleb128 0xb
 3256 013c 27       		.uleb128 0x27
 3257 013d 19       		.uleb128 0x19
 3258 013e 49       		.uleb128 0x49
 3259 013f 13       		.uleb128 0x13
 3260 0140 11       		.uleb128 0x11
 3261 0141 01       		.uleb128 0x1
 3262 0142 12       		.uleb128 0x12
ARM GAS  /tmp/ccnl3zJt.s 			page 59


 3263 0143 06       		.uleb128 0x6
 3264 0144 40       		.uleb128 0x40
 3265 0145 18       		.uleb128 0x18
 3266 0146 9642     		.uleb128 0x2116
 3267 0148 19       		.uleb128 0x19
 3268 0149 01       		.uleb128 0x1
 3269 014a 13       		.uleb128 0x13
 3270 014b 00       		.byte	0
 3271 014c 00       		.byte	0
 3272 014d 1A       		.uleb128 0x1a
 3273 014e 34       		.uleb128 0x34
 3274 014f 00       		.byte	0
 3275 0150 03       		.uleb128 0x3
 3276 0151 0E       		.uleb128 0xe
 3277 0152 3A       		.uleb128 0x3a
 3278 0153 0B       		.uleb128 0xb
 3279 0154 3B       		.uleb128 0x3b
 3280 0155 0B       		.uleb128 0xb
 3281 0156 49       		.uleb128 0x49
 3282 0157 13       		.uleb128 0x13
 3283 0158 02       		.uleb128 0x2
 3284 0159 18       		.uleb128 0x18
 3285 015a 00       		.byte	0
 3286 015b 00       		.byte	0
 3287 015c 1B       		.uleb128 0x1b
 3288 015d 2E       		.uleb128 0x2e
 3289 015e 01       		.byte	0x1
 3290 015f 3F       		.uleb128 0x3f
 3291 0160 19       		.uleb128 0x19
 3292 0161 03       		.uleb128 0x3
 3293 0162 0E       		.uleb128 0xe
 3294 0163 3A       		.uleb128 0x3a
 3295 0164 0B       		.uleb128 0xb
 3296 0165 3B       		.uleb128 0x3b
 3297 0166 05       		.uleb128 0x5
 3298 0167 27       		.uleb128 0x27
 3299 0168 19       		.uleb128 0x19
 3300 0169 11       		.uleb128 0x11
 3301 016a 01       		.uleb128 0x1
 3302 016b 12       		.uleb128 0x12
 3303 016c 06       		.uleb128 0x6
 3304 016d 40       		.uleb128 0x40
 3305 016e 18       		.uleb128 0x18
 3306 016f 9642     		.uleb128 0x2116
 3307 0171 19       		.uleb128 0x19
 3308 0172 01       		.uleb128 0x1
 3309 0173 13       		.uleb128 0x13
 3310 0174 00       		.byte	0
 3311 0175 00       		.byte	0
 3312 0176 1C       		.uleb128 0x1c
 3313 0177 05       		.uleb128 0x5
 3314 0178 00       		.byte	0
 3315 0179 03       		.uleb128 0x3
 3316 017a 08       		.uleb128 0x8
 3317 017b 3A       		.uleb128 0x3a
 3318 017c 0B       		.uleb128 0xb
 3319 017d 3B       		.uleb128 0x3b
ARM GAS  /tmp/ccnl3zJt.s 			page 60


 3320 017e 05       		.uleb128 0x5
 3321 017f 49       		.uleb128 0x49
 3322 0180 13       		.uleb128 0x13
 3323 0181 02       		.uleb128 0x2
 3324 0182 18       		.uleb128 0x18
 3325 0183 00       		.byte	0
 3326 0184 00       		.byte	0
 3327 0185 1D       		.uleb128 0x1d
 3328 0186 05       		.uleb128 0x5
 3329 0187 00       		.byte	0
 3330 0188 03       		.uleb128 0x3
 3331 0189 0E       		.uleb128 0xe
 3332 018a 3A       		.uleb128 0x3a
 3333 018b 0B       		.uleb128 0xb
 3334 018c 3B       		.uleb128 0x3b
 3335 018d 05       		.uleb128 0x5
 3336 018e 49       		.uleb128 0x49
 3337 018f 13       		.uleb128 0x13
 3338 0190 02       		.uleb128 0x2
 3339 0191 18       		.uleb128 0x18
 3340 0192 00       		.byte	0
 3341 0193 00       		.byte	0
 3342 0194 1E       		.uleb128 0x1e
 3343 0195 34       		.uleb128 0x34
 3344 0196 00       		.byte	0
 3345 0197 03       		.uleb128 0x3
 3346 0198 08       		.uleb128 0x8
 3347 0199 3A       		.uleb128 0x3a
 3348 019a 0B       		.uleb128 0xb
 3349 019b 3B       		.uleb128 0x3b
 3350 019c 05       		.uleb128 0x5
 3351 019d 49       		.uleb128 0x49
 3352 019e 13       		.uleb128 0x13
 3353 019f 02       		.uleb128 0x2
 3354 01a0 18       		.uleb128 0x18
 3355 01a1 00       		.byte	0
 3356 01a2 00       		.byte	0
 3357 01a3 1F       		.uleb128 0x1f
 3358 01a4 2E       		.uleb128 0x2e
 3359 01a5 01       		.byte	0x1
 3360 01a6 3F       		.uleb128 0x3f
 3361 01a7 19       		.uleb128 0x19
 3362 01a8 03       		.uleb128 0x3
 3363 01a9 0E       		.uleb128 0xe
 3364 01aa 3A       		.uleb128 0x3a
 3365 01ab 0B       		.uleb128 0xb
 3366 01ac 3B       		.uleb128 0x3b
 3367 01ad 05       		.uleb128 0x5
 3368 01ae 27       		.uleb128 0x27
 3369 01af 19       		.uleb128 0x19
 3370 01b0 49       		.uleb128 0x49
 3371 01b1 13       		.uleb128 0x13
 3372 01b2 11       		.uleb128 0x11
 3373 01b3 01       		.uleb128 0x1
 3374 01b4 12       		.uleb128 0x12
 3375 01b5 06       		.uleb128 0x6
 3376 01b6 40       		.uleb128 0x40
ARM GAS  /tmp/ccnl3zJt.s 			page 61


 3377 01b7 18       		.uleb128 0x18
 3378 01b8 9742     		.uleb128 0x2117
 3379 01ba 19       		.uleb128 0x19
 3380 01bb 01       		.uleb128 0x1
 3381 01bc 13       		.uleb128 0x13
 3382 01bd 00       		.byte	0
 3383 01be 00       		.byte	0
 3384 01bf 20       		.uleb128 0x20
 3385 01c0 34       		.uleb128 0x34
 3386 01c1 00       		.byte	0
 3387 01c2 03       		.uleb128 0x3
 3388 01c3 0E       		.uleb128 0xe
 3389 01c4 3A       		.uleb128 0x3a
 3390 01c5 0B       		.uleb128 0xb
 3391 01c6 3B       		.uleb128 0x3b
 3392 01c7 05       		.uleb128 0x5
 3393 01c8 49       		.uleb128 0x49
 3394 01c9 13       		.uleb128 0x13
 3395 01ca 02       		.uleb128 0x2
 3396 01cb 18       		.uleb128 0x18
 3397 01cc 00       		.byte	0
 3398 01cd 00       		.byte	0
 3399 01ce 21       		.uleb128 0x21
 3400 01cf 2E       		.uleb128 0x2e
 3401 01d0 01       		.byte	0x1
 3402 01d1 3F       		.uleb128 0x3f
 3403 01d2 19       		.uleb128 0x19
 3404 01d3 03       		.uleb128 0x3
 3405 01d4 0E       		.uleb128 0xe
 3406 01d5 3A       		.uleb128 0x3a
 3407 01d6 0B       		.uleb128 0xb
 3408 01d7 3B       		.uleb128 0x3b
 3409 01d8 05       		.uleb128 0x5
 3410 01d9 27       		.uleb128 0x27
 3411 01da 19       		.uleb128 0x19
 3412 01db 49       		.uleb128 0x49
 3413 01dc 13       		.uleb128 0x13
 3414 01dd 11       		.uleb128 0x11
 3415 01de 01       		.uleb128 0x1
 3416 01df 12       		.uleb128 0x12
 3417 01e0 06       		.uleb128 0x6
 3418 01e1 40       		.uleb128 0x40
 3419 01e2 18       		.uleb128 0x18
 3420 01e3 9642     		.uleb128 0x2116
 3421 01e5 19       		.uleb128 0x19
 3422 01e6 01       		.uleb128 0x1
 3423 01e7 13       		.uleb128 0x13
 3424 01e8 00       		.byte	0
 3425 01e9 00       		.byte	0
 3426 01ea 22       		.uleb128 0x22
 3427 01eb 34       		.uleb128 0x34
 3428 01ec 00       		.byte	0
 3429 01ed 03       		.uleb128 0x3
 3430 01ee 0E       		.uleb128 0xe
 3431 01ef 3A       		.uleb128 0x3a
 3432 01f0 0B       		.uleb128 0xb
 3433 01f1 3B       		.uleb128 0x3b
ARM GAS  /tmp/ccnl3zJt.s 			page 62


 3434 01f2 0B       		.uleb128 0xb
 3435 01f3 49       		.uleb128 0x49
 3436 01f4 13       		.uleb128 0x13
 3437 01f5 3F       		.uleb128 0x3f
 3438 01f6 19       		.uleb128 0x19
 3439 01f7 3C       		.uleb128 0x3c
 3440 01f8 19       		.uleb128 0x19
 3441 01f9 00       		.byte	0
 3442 01fa 00       		.byte	0
 3443 01fb 00       		.byte	0
 3444              		.section	.debug_aranges,"",%progbits
 3445 0000 9C000000 		.4byte	0x9c
 3446 0004 0200     		.2byte	0x2
 3447 0006 00000000 		.4byte	.Ldebug_info0
 3448 000a 04       		.byte	0x4
 3449 000b 00       		.byte	0
 3450 000c 0000     		.2byte	0
 3451 000e 0000     		.2byte	0
 3452 0010 00000000 		.4byte	.LFB7
 3453 0014 64000000 		.4byte	.LFE7-.LFB7
 3454 0018 00000000 		.4byte	.LFB8
 3455 001c 64000000 		.4byte	.LFE8-.LFB8
 3456 0020 00000000 		.4byte	.LFB9
 3457 0024 54000000 		.4byte	.LFE9-.LFB9
 3458 0028 00000000 		.4byte	.LFB10
 3459 002c 44000000 		.4byte	.LFE10-.LFB10
 3460 0030 00000000 		.4byte	.LFB11
 3461 0034 56000000 		.4byte	.LFE11-.LFB11
 3462 0038 00000000 		.4byte	.LFB12
 3463 003c 30000000 		.4byte	.LFE12-.LFB12
 3464 0040 00000000 		.4byte	.LFB13
 3465 0044 40000000 		.4byte	.LFE13-.LFB13
 3466 0048 00000000 		.4byte	.LFB14
 3467 004c 70000000 		.4byte	.LFE14-.LFB14
 3468 0050 00000000 		.4byte	.LFB15
 3469 0054 2E000000 		.4byte	.LFE15-.LFB15
 3470 0058 00000000 		.4byte	.LFB16
 3471 005c 18000000 		.4byte	.LFE16-.LFB16
 3472 0060 00000000 		.4byte	.LFB17
 3473 0064 7C000000 		.4byte	.LFE17-.LFB17
 3474 0068 00000000 		.4byte	.LFB18
 3475 006c 6E000000 		.4byte	.LFE18-.LFB18
 3476 0070 00000000 		.4byte	.LFB19
 3477 0074 64000000 		.4byte	.LFE19-.LFB19
 3478 0078 00000000 		.4byte	.LFB20
 3479 007c 58000000 		.4byte	.LFE20-.LFB20
 3480 0080 00000000 		.4byte	.LFB21
 3481 0084 9A000000 		.4byte	.LFE21-.LFB21
 3482 0088 00000000 		.4byte	.LFB22
 3483 008c 90000000 		.4byte	.LFE22-.LFB22
 3484 0090 00000000 		.4byte	.LFB23
 3485 0094 84000000 		.4byte	.LFE23-.LFB23
 3486 0098 00000000 		.4byte	0
 3487 009c 00000000 		.4byte	0
 3488              		.section	.debug_ranges,"",%progbits
 3489              	.Ldebug_ranges0:
 3490 0000 00000000 		.4byte	.LFB7
ARM GAS  /tmp/ccnl3zJt.s 			page 63


 3491 0004 64000000 		.4byte	.LFE7
 3492 0008 00000000 		.4byte	.LFB8
 3493 000c 64000000 		.4byte	.LFE8
 3494 0010 00000000 		.4byte	.LFB9
 3495 0014 54000000 		.4byte	.LFE9
 3496 0018 00000000 		.4byte	.LFB10
 3497 001c 44000000 		.4byte	.LFE10
 3498 0020 00000000 		.4byte	.LFB11
 3499 0024 56000000 		.4byte	.LFE11
 3500 0028 00000000 		.4byte	.LFB12
 3501 002c 30000000 		.4byte	.LFE12
 3502 0030 00000000 		.4byte	.LFB13
 3503 0034 40000000 		.4byte	.LFE13
 3504 0038 00000000 		.4byte	.LFB14
 3505 003c 70000000 		.4byte	.LFE14
 3506 0040 00000000 		.4byte	.LFB15
 3507 0044 2E000000 		.4byte	.LFE15
 3508 0048 00000000 		.4byte	.LFB16
 3509 004c 18000000 		.4byte	.LFE16
 3510 0050 00000000 		.4byte	.LFB17
 3511 0054 7C000000 		.4byte	.LFE17
 3512 0058 00000000 		.4byte	.LFB18
 3513 005c 6E000000 		.4byte	.LFE18
 3514 0060 00000000 		.4byte	.LFB19
 3515 0064 64000000 		.4byte	.LFE19
 3516 0068 00000000 		.4byte	.LFB20
 3517 006c 58000000 		.4byte	.LFE20
 3518 0070 00000000 		.4byte	.LFB21
 3519 0074 9A000000 		.4byte	.LFE21
 3520 0078 00000000 		.4byte	.LFB22
 3521 007c 90000000 		.4byte	.LFE22
 3522 0080 00000000 		.4byte	.LFB23
 3523 0084 84000000 		.4byte	.LFE23
 3524 0088 00000000 		.4byte	0
 3525 008c 00000000 		.4byte	0
 3526              		.section	.debug_line,"",%progbits
 3527              	.Ldebug_line0:
 3528 0000 33030000 		.section	.debug_str,"MS",%progbits,1
 3528      02002C01 
 3528      00000201 
 3528      FB0E0D00 
 3528      01010101 
 3529              	.LASF44:
 3530 0000 705F6D73 		.ascii	"p_msg\000"
 3530      6700
 3531              	.LASF75:
 3532 0006 7264796D 		.ascii	"rdymsg\000"
 3532      736700
 3533              	.LASF16:
 3534 000d 75696E74 		.ascii	"uint64_t\000"
 3534      36345F74 
 3534      00
 3535              	.LASF5:
 3536 0016 5F5F7569 		.ascii	"__uint8_t\000"
 3536      6E74385F 
 3536      7400
 3537              	.LASF88:
ARM GAS  /tmp/ccnl3zJt.s 			page 64


 3538 0020 63684576 		.ascii	"chEvtSignal\000"
 3538      74536967 
 3538      6E616C00 
 3539              	.LASF73:
 3540 002c 65735F6E 		.ascii	"es_next\000"
 3540      65787400 
 3541              	.LASF12:
 3542 0034 6C6F6E67 		.ascii	"long long unsigned int\000"
 3542      206C6F6E 
 3542      6720756E 
 3542      7369676E 
 3542      65642069 
 3543              	.LASF84:
 3544 004b 63684576 		.ascii	"chEvtAddEvents\000"
 3544      74416464 
 3544      4576656E 
 3544      747300
 3545              	.LASF76:
 3546 005a 65786974 		.ascii	"exitcode\000"
 3546      636F6465 
 3546      00
 3547              	.LASF99:
 3548 0063 63684576 		.ascii	"chEvtWaitAnyTimeout\000"
 3548      74576169 
 3548      74416E79 
 3548      54696D65 
 3548      6F757400 
 3549              	.LASF31:
 3550 0077 705F7072 		.ascii	"p_prio\000"
 3550      696F00
 3551              	.LASF10:
 3552 007e 6C6F6E67 		.ascii	"long long int\000"
 3552      206C6F6E 
 3552      6720696E 
 3552      7400
 3553              	.LASF1:
 3554 008c 7369676E 		.ascii	"signed char\000"
 3554      65642063 
 3554      68617200 
 3555              	.LASF100:
 3556 0098 63684576 		.ascii	"chEvtWaitAllTimeout\000"
 3556      74576169 
 3556      74416C6C 
 3556      54696D65 
 3556      6F757400 
 3557              	.LASF48:
 3558 00ac 705F6D70 		.ascii	"p_mpool\000"
 3558      6F6F6C00 
 3559              	.LASF64:
 3560 00b4 6D5F7175 		.ascii	"m_queue\000"
 3560      65756500 
 3561              	.LASF21:
 3562 00bc 74736C69 		.ascii	"tslices_t\000"
 3562      6365735F 
 3562      7400
 3563              	.LASF7:
 3564 00c6 6C6F6E67 		.ascii	"long int\000"
ARM GAS  /tmp/ccnl3zJt.s 			page 65


 3564      20696E74 
 3564      00
 3565              	.LASF19:
 3566 00cf 74737461 		.ascii	"tstate_t\000"
 3566      74655F74 
 3566      00
 3567              	.LASF95:
 3568 00d8 63684576 		.ascii	"chEvtWaitAny\000"
 3568      74576169 
 3568      74416E79 
 3568      00
 3569              	.LASF85:
 3570 00e5 63684576 		.ascii	"chEvtBroadcastFlagsI\000"
 3570      7442726F 
 3570      61646361 
 3570      7374466C 
 3570      61677349 
 3571              	.LASF33:
 3572 00fa 705F6E65 		.ascii	"p_newer\000"
 3572      77657200 
 3573              	.LASF8:
 3574 0102 5F5F7569 		.ascii	"__uint32_t\000"
 3574      6E743332 
 3574      5F7400
 3575              	.LASF80:
 3576 010d 6D61736B 		.ascii	"mask\000"
 3576      00
 3577              	.LASF51:
 3578 0112 72656761 		.ascii	"regarm_t\000"
 3578      726D5F74 
 3578      00
 3579              	.LASF90:
 3580 011b 63684576 		.ascii	"chEvtBroadcastFlags\000"
 3580      7442726F 
 3580      61646361 
 3580      7374466C 
 3580      61677300 
 3581              	.LASF24:
 3582 012f 6576656E 		.ascii	"eventid_t\000"
 3582      7469645F 
 3582      7400
 3583              	.LASF72:
 3584 0139 4576656E 		.ascii	"EventSource\000"
 3584      74536F75 
 3584      72636500 
 3585              	.LASF74:
 3586 0145 65766861 		.ascii	"evhandler_t\000"
 3586      6E646C65 
 3586      725F7400 
 3587              	.LASF36:
 3588 0151 705F7374 		.ascii	"p_stklimit\000"
 3588      6B6C696D 
 3588      697400
 3589              	.LASF0:
 3590 015c 756E7369 		.ascii	"unsigned int\000"
 3590      676E6564 
 3590      20696E74 
ARM GAS  /tmp/ccnl3zJt.s 			page 66


 3590      00
 3591              	.LASF9:
 3592 0169 6C6F6E67 		.ascii	"long unsigned int\000"
 3592      20756E73 
 3592      69676E65 
 3592      6420696E 
 3592      7400
 3593              	.LASF83:
 3594 017b 63684576 		.ascii	"chEvtGetAndClearEvents\000"
 3594      74476574 
 3594      416E6443 
 3594      6C656172 
 3594      4576656E 
 3595              	.LASF102:
 3596 0192 2E2E2F2E 		.ascii	"../../../os/kernel/src/chevents.c\000"
 3596      2E2F2E2E 
 3596      2F6F732F 
 3596      6B65726E 
 3596      656C2F73 
 3597              	.LASF54:
 3598 01b4 636F6E74 		.ascii	"context\000"
 3598      65787400 
 3599              	.LASF4:
 3600 01bc 73686F72 		.ascii	"short unsigned int\000"
 3600      7420756E 
 3600      7369676E 
 3600      65642069 
 3600      6E7400
 3601              	.LASF81:
 3602 01cf 63684576 		.ascii	"chEvtRegisterMask\000"
 3602      74526567 
 3602      69737465 
 3602      724D6173 
 3602      6B00
 3603              	.LASF23:
 3604 01e1 6D73675F 		.ascii	"msg_t\000"
 3604      7400
 3605              	.LASF59:
 3606 01e7 725F6E65 		.ascii	"r_newer\000"
 3606      77657200 
 3607              	.LASF68:
 3608 01ef 656C5F6E 		.ascii	"el_next\000"
 3608      65787400 
 3609              	.LASF82:
 3610 01f7 63684576 		.ascii	"chEvtUnregister\000"
 3610      74556E72 
 3610      65676973 
 3610      74657200 
 3611              	.LASF18:
 3612 0207 746D6F64 		.ascii	"tmode_t\000"
 3612      655F7400 
 3613              	.LASF50:
 3614 020f 54687265 		.ascii	"ThreadsList\000"
 3614      6164734C 
 3614      69737400 
 3615              	.LASF25:
 3616 021b 6576656E 		.ascii	"eventmask_t\000"
ARM GAS  /tmp/ccnl3zJt.s 			page 67


 3616      746D6173 
 3616      6B5F7400 
 3617              	.LASF63:
 3618 0227 4D757465 		.ascii	"Mutex\000"
 3618      7800
 3619              	.LASF52:
 3620 022d 73746B61 		.ascii	"stkalign_t\000"
 3620      6C69676E 
 3620      5F7400
 3621              	.LASF42:
 3622 0238 705F7761 		.ascii	"p_waiting\000"
 3622      6974696E 
 3622      6700
 3623              	.LASF55:
 3624 0242 73697A65 		.ascii	"sizetype\000"
 3624      74797065 
 3624      00
 3625              	.LASF92:
 3626 024b 63684576 		.ascii	"chEvtDispatch\000"
 3626      74446973 
 3626      70617463 
 3626      6800
 3627              	.LASF34:
 3628 0259 705F6F6C 		.ascii	"p_older\000"
 3628      64657200 
 3629              	.LASF58:
 3630 0261 725F6374 		.ascii	"r_ctx\000"
 3630      7800
 3631              	.LASF49:
 3632 0267 54687265 		.ascii	"ThreadsQueue\000"
 3632      61647351 
 3632      75657565 
 3632      00
 3633              	.LASF98:
 3634 0274 74696D65 		.ascii	"time\000"
 3634      00
 3635              	.LASF96:
 3636 0279 63684576 		.ascii	"chEvtWaitAll\000"
 3636      74576169 
 3636      74416C6C 
 3636      00
 3637              	.LASF61:
 3638 0286 725F6375 		.ascii	"r_current\000"
 3638      7272656E 
 3638      7400
 3639              	.LASF60:
 3640 0290 725F6F6C 		.ascii	"r_older\000"
 3640      64657200 
 3641              	.LASF70:
 3642 0298 656C5F6D 		.ascii	"el_mask\000"
 3642      61736B00 
 3643              	.LASF11:
 3644 02a0 5F5F7569 		.ascii	"__uint64_t\000"
 3644      6E743634 
 3644      5F7400
 3645              	.LASF93:
 3646 02ab 68616E64 		.ascii	"handlers\000"
ARM GAS  /tmp/ccnl3zJt.s 			page 68


 3646      6C657273 
 3646      00
 3647              	.LASF20:
 3648 02b4 74726566 		.ascii	"trefs_t\000"
 3648      735F7400 
 3649              	.LASF30:
 3650 02bc 705F7072 		.ascii	"p_prev\000"
 3650      657600
 3651              	.LASF22:
 3652 02c3 74707269 		.ascii	"tprio_t\000"
 3652      6F5F7400 
 3653              	.LASF17:
 3654 02cb 5F426F6F 		.ascii	"_Bool\000"
 3654      6C00
 3655              	.LASF14:
 3656 02d1 696E7433 		.ascii	"int32_t\000"
 3656      325F7400 
 3657              	.LASF2:
 3658 02d9 756E7369 		.ascii	"unsigned char\000"
 3658      676E6564 
 3658      20636861 
 3658      7200
 3659              	.LASF94:
 3660 02e7 63684576 		.ascii	"chEvtWaitOne\000"
 3660      74576169 
 3660      744F6E65 
 3660      00
 3661              	.LASF69:
 3662 02f4 656C5F6C 		.ascii	"el_listener\000"
 3662      69737465 
 3662      6E657200 
 3663              	.LASF71:
 3664 0300 656C5F66 		.ascii	"el_flags\000"
 3664      6C616773 
 3664      00
 3665              	.LASF46:
 3666 0309 705F6D74 		.ascii	"p_mtxlist\000"
 3666      786C6973 
 3666      7400
 3667              	.LASF3:
 3668 0313 73686F72 		.ascii	"short int\000"
 3668      7420696E 
 3668      7400
 3669              	.LASF37:
 3670 031d 705F7374 		.ascii	"p_state\000"
 3670      61746500 
 3671              	.LASF40:
 3672 0325 705F7072 		.ascii	"p_preempt\000"
 3672      65656D70 
 3672      7400
 3673              	.LASF57:
 3674 032f 725F7072 		.ascii	"r_prio\000"
 3674      696F00
 3675              	.LASF91:
 3676 0336 63684576 		.ascii	"chEvtGetAndClearFlagsI\000"
 3676      74476574 
 3676      416E6443 
ARM GAS  /tmp/ccnl3zJt.s 			page 69


 3676      6C656172 
 3676      466C6167 
 3677              	.LASF78:
 3678 034d 65776D61 		.ascii	"ewmask\000"
 3678      736B00
 3679              	.LASF29:
 3680 0354 705F6E65 		.ascii	"p_next\000"
 3680      787400
 3681              	.LASF38:
 3682 035b 705F666C 		.ascii	"p_flags\000"
 3682      61677300 
 3683              	.LASF28:
 3684 0363 54687265 		.ascii	"Thread\000"
 3684      616400
 3685              	.LASF45:
 3686 036a 705F6570 		.ascii	"p_epending\000"
 3686      656E6469 
 3686      6E6700
 3687              	.LASF15:
 3688 0375 75696E74 		.ascii	"uint32_t\000"
 3688      33325F74 
 3688      00
 3689              	.LASF56:
 3690 037e 725F7175 		.ascii	"r_queue\000"
 3690      65756500 
 3691              	.LASF79:
 3692 0386 63686172 		.ascii	"char\000"
 3692      00
 3693              	.LASF66:
 3694 038b 6D5F6E65 		.ascii	"m_next\000"
 3694      787400
 3695              	.LASF27:
 3696 0392 73797374 		.ascii	"systime_t\000"
 3696      696D655F 
 3696      7400
 3697              	.LASF47:
 3698 039c 705F7265 		.ascii	"p_realprio\000"
 3698      616C7072 
 3698      696F00
 3699              	.LASF6:
 3700 03a7 5F5F696E 		.ascii	"__int32_t\000"
 3700      7433325F 
 3700      7400
 3701              	.LASF41:
 3702 03b1 705F7469 		.ascii	"p_time\000"
 3702      6D6500
 3703              	.LASF53:
 3704 03b8 696E7463 		.ascii	"intctx\000"
 3704      747800
 3705              	.LASF43:
 3706 03bf 705F6D73 		.ascii	"p_msgqueue\000"
 3706      67717565 
 3706      756500
 3707              	.LASF26:
 3708 03ca 666C6167 		.ascii	"flagsmask_t\000"
 3708      736D6173 
 3708      6B5F7400 
ARM GAS  /tmp/ccnl3zJt.s 			page 70


 3709              	.LASF39:
 3710 03d6 705F7265 		.ascii	"p_refs\000"
 3710      667300
 3711              	.LASF62:
 3712 03dd 52656164 		.ascii	"ReadyList\000"
 3712      794C6973 
 3712      7400
 3713              	.LASF104:
 3714 03e7 726C6973 		.ascii	"rlist\000"
 3714      7400
 3715              	.LASF13:
 3716 03ed 75696E74 		.ascii	"uint8_t\000"
 3716      385F7400 
 3717              	.LASF86:
 3718 03f5 666C6167 		.ascii	"flags\000"
 3718      7300
 3719              	.LASF67:
 3720 03fb 4576656E 		.ascii	"EventListener\000"
 3720      744C6973 
 3720      74656E65 
 3720      7200
 3721              	.LASF97:
 3722 0409 63684576 		.ascii	"chEvtWaitOneTimeout\000"
 3722      74576169 
 3722      744F6E65 
 3722      54696D65 
 3722      6F757400 
 3723              	.LASF77:
 3724 041d 77746F62 		.ascii	"wtobjp\000"
 3724      6A7000
 3725              	.LASF35:
 3726 0424 705F6E61 		.ascii	"p_name\000"
 3726      6D6500
 3727              	.LASF103:
 3728 042b 2F686F6D 		.ascii	"/home/ece497/vbox-shared/mplayer/ChibiOS-RT-stable_"
 3728      652F6563 
 3728      65343937 
 3728      2F76626F 
 3728      782D7368 
 3729 045e 322E362E 		.ascii	"2.6.x/testhal/STM32F4xx/SDC\000"
 3729      782F7465 
 3729      73746861 
 3729      6C2F5354 
 3729      4D333246 
 3730              	.LASF87:
 3731 047a 63684576 		.ascii	"chEvtGetAndClearFlags\000"
 3731      74476574 
 3731      416E6443 
 3731      6C656172 
 3731      466C6167 
 3732              	.LASF65:
 3733 0490 6D5F6F77 		.ascii	"m_owner\000"
 3733      6E657200 
 3734              	.LASF32:
 3735 0498 705F6374 		.ascii	"p_ctx\000"
 3735      7800
 3736              	.LASF101:
ARM GAS  /tmp/ccnl3zJt.s 			page 71


 3737 049e 474E5520 		.ascii	"GNU C 4.8.2 -mcpu=cortex-m4 -mno-thumb-interwork -m"
 3737      4320342E 
 3737      382E3220 
 3737      2D6D6370 
 3737      753D636F 
 3738 04d1 7468756D 		.ascii	"thumb -ggdb -O0 -fomit-frame-pointer -falign-functi"
 3738      62202D67 
 3738      67646220 
 3738      2D4F3020 
 3738      2D666F6D 
 3739 0504 6F6E733D 		.ascii	"ons=16 -ffunction-sections -fdata-sections -fno-com"
 3739      3136202D 
 3739      6666756E 
 3739      6374696F 
 3739      6E2D7365 
 3740 0537 6D6F6E00 		.ascii	"mon\000"
 3741              	.LASF89:
 3742 053b 63684576 		.ascii	"chEvtSignalI\000"
 3742      74536967 
 3742      6E616C49 
 3742      00
 3743              		.ident	"GCC: (Arch Repository) 4.8.2"
ARM GAS  /tmp/ccnl3zJt.s 			page 72


DEFINED SYMBOLS
                            *ABS*:0000000000000000 chevents.c
     /tmp/ccnl3zJt.s:19     .rodata:0000000000000000 $d
     /tmp/ccnl3zJt.s:20     .rodata:0000000000000000 .LC0
     /tmp/ccnl3zJt.s:23     .text.chEvtRegisterMask:0000000000000000 $t
     /tmp/ccnl3zJt.s:29     .text.chEvtRegisterMask:0000000000000000 chEvtRegisterMask
     /tmp/ccnl3zJt.s:108    .rodata:0000000000000018 .LC1
     /tmp/ccnl3zJt.s:111    .text.chEvtUnregister:0000000000000000 $t
     /tmp/ccnl3zJt.s:117    .text.chEvtUnregister:0000000000000000 chEvtUnregister
     /tmp/ccnl3zJt.s:202    .text.chEvtGetAndClearEvents:0000000000000000 $t
     /tmp/ccnl3zJt.s:208    .text.chEvtGetAndClearEvents:0000000000000000 chEvtGetAndClearEvents
     /tmp/ccnl3zJt.s:269    .text.chEvtAddEvents:0000000000000000 $t
     /tmp/ccnl3zJt.s:275    .text.chEvtAddEvents:0000000000000000 chEvtAddEvents
     /tmp/ccnl3zJt.s:330    .rodata:000000000000002c .LC2
     /tmp/ccnl3zJt.s:333    .text.chEvtBroadcastFlagsI:0000000000000000 $t
     /tmp/ccnl3zJt.s:339    .text.chEvtBroadcastFlagsI:0000000000000000 chEvtBroadcastFlagsI
     /tmp/ccnl3zJt.s:532    .text.chEvtSignalI:0000000000000000 chEvtSignalI
     /tmp/ccnl3zJt.s:403    .text.chEvtGetAndClearFlags:0000000000000000 $t
     /tmp/ccnl3zJt.s:409    .text.chEvtGetAndClearFlags:0000000000000000 chEvtGetAndClearFlags
     /tmp/ccnl3zJt.s:459    .rodata:0000000000000044 .LC3
     /tmp/ccnl3zJt.s:462    .text.chEvtSignal:0000000000000000 $t
     /tmp/ccnl3zJt.s:468    .text.chEvtSignal:0000000000000000 chEvtSignal
     /tmp/ccnl3zJt.s:523    .rodata:0000000000000054 .LC4
     /tmp/ccnl3zJt.s:526    .text.chEvtSignalI:0000000000000000 $t
     /tmp/ccnl3zJt.s:611    .text.chEvtBroadcastFlags:0000000000000000 $t
     /tmp/ccnl3zJt.s:617    .text.chEvtBroadcastFlags:0000000000000000 chEvtBroadcastFlags
     /tmp/ccnl3zJt.s:662    .text.chEvtGetAndClearFlagsI:0000000000000000 $t
     /tmp/ccnl3zJt.s:668    .text.chEvtGetAndClearFlagsI:0000000000000000 chEvtGetAndClearFlagsI
     /tmp/ccnl3zJt.s:698    .rodata:0000000000000068 .LC5
     /tmp/ccnl3zJt.s:701    .rodata:000000000000007c .LC6
     /tmp/ccnl3zJt.s:704    .text.chEvtDispatch:0000000000000000 $t
     /tmp/ccnl3zJt.s:710    .text.chEvtDispatch:0000000000000000 chEvtDispatch
     /tmp/ccnl3zJt.s:794    .text.chEvtWaitOne:0000000000000000 $t
     /tmp/ccnl3zJt.s:800    .text.chEvtWaitOne:0000000000000000 chEvtWaitOne
     /tmp/ccnl3zJt.s:883    .text.chEvtWaitAny:0000000000000000 $t
     /tmp/ccnl3zJt.s:889    .text.chEvtWaitAny:0000000000000000 chEvtWaitAny
     /tmp/ccnl3zJt.s:966    .text.chEvtWaitAll:0000000000000000 $t
     /tmp/ccnl3zJt.s:972    .text.chEvtWaitAll:0000000000000000 chEvtWaitAll
     /tmp/ccnl3zJt.s:1042   .text.chEvtWaitOneTimeout:0000000000000000 $t
     /tmp/ccnl3zJt.s:1048   .text.chEvtWaitOneTimeout:0000000000000000 chEvtWaitOneTimeout
     /tmp/ccnl3zJt.s:1167   .text.chEvtWaitAnyTimeout:0000000000000000 $t
     /tmp/ccnl3zJt.s:1173   .text.chEvtWaitAnyTimeout:0000000000000000 chEvtWaitAnyTimeout
     /tmp/ccnl3zJt.s:1286   .text.chEvtWaitAllTimeout:0000000000000000 $t
     /tmp/ccnl3zJt.s:1292   .text.chEvtWaitAllTimeout:0000000000000000 chEvtWaitAllTimeout
                     .debug_frame:0000000000000010 $d

UNDEFINED SYMBOLS
chDbgPanic
dbg_check_lock
rlist
dbg_check_unlock
chDbgCheckClassI
chSchRescheduleS
chSchReadyI
chSchGoSleepS
chSchGoSleepTimeoutS
