ARM GAS  /tmp/ccUOyUQK.s 			page 1


   1              		.syntax unified
   2              		.cpu cortex-m4
   3              		.fpu softvfp
   4              		.eabi_attribute 20, 1
   5              		.eabi_attribute 21, 1
   6              		.eabi_attribute 23, 3
   7              		.eabi_attribute 24, 1
   8              		.eabi_attribute 25, 1
   9              		.eabi_attribute 26, 1
  10              		.eabi_attribute 30, 6
  11              		.eabi_attribute 34, 1
  12              		.eabi_attribute 18, 4
  13              		.thumb
  14              		.file	"chheap.c"
  15              		.text
  16              	.Ltext0:
  17              		.cfi_sections	.debug_frame
  18              		.section	.bss.default_heap,"aw",%nobits
  19              		.align	3
  20              		.type	default_heap, %object
  21              		.size	default_heap, 32
  22              	default_heap:
  23 0000 00000000 		.space	32
  23      00000000 
  23      00000000 
  23      00000000 
  23      00000000 
  24              		.section	.text._heap_init,"ax",%progbits
  25              		.align	2
  26              		.p2align 4,,15
  27              		.global	_heap_init
  28              		.thumb
  29              		.thumb_func
  30              		.type	_heap_init, %function
  31              	_heap_init:
  32              	.LFB7:
  33              		.file 1 "../../../os/kernel/src/chheap.c"
  34              		.loc 1 75 0
  35              		.cfi_startproc
  36              		@ args = 0, pretend = 0, frame = 0
  37              		@ frame_needed = 0, uses_anonymous_args = 0
  38 0000 08B5     		push	{r3, lr}
  39              		.cfi_def_cfa_offset 8
  40              		.cfi_offset 3, -8
  41              		.cfi_offset 14, -4
  42              		.loc 1 76 0
  43 0002 40F20003 		movw	r3, #:lower16:default_heap
  44 0006 C0F20003 		movt	r3, #:upper16:default_heap
  45 000a 40F20002 		movw	r2, #:lower16:chCoreAlloc
  46 000e C0F20002 		movt	r2, #:upper16:chCoreAlloc
  47 0012 1A60     		str	r2, [r3]
  48              		.loc 1 77 0
  49 0014 40F20003 		movw	r3, #:lower16:default_heap
  50 0018 C0F20003 		movt	r3, #:upper16:default_heap
  51 001c 0022     		movs	r2, #0
  52 001e 9A60     		str	r2, [r3, #8]
  53              		.loc 1 78 0
ARM GAS  /tmp/ccUOyUQK.s 			page 2


  54 0020 40F20003 		movw	r3, #:lower16:default_heap
  55 0024 C0F20003 		movt	r3, #:upper16:default_heap
  56 0028 0022     		movs	r2, #0
  57 002a DA60     		str	r2, [r3, #12]
  58              		.loc 1 80 0
  59 002c 0148     		ldr	r0, .L2
  60 002e FFF7FEFF 		bl	chMtxInit
  61              		.loc 1 84 0
  62 0032 08BD     		pop	{r3, pc}
  63              	.L3:
  64              		.align	2
  65              	.L2:
  66 0034 10000000 		.word	default_heap+16
  67              		.cfi_endproc
  68              	.LFE7:
  69              		.size	_heap_init, .-_heap_init
  70 0038 AFF30080 		.section	.rodata
  70      AFF30080 
  71              		.align	2
  72              	.LC0:
  73 0000 22636848 		.ascii	"\"chHeapInit\"()\000"
  73      65617049 
  73      6E697422 
  73      282900
  74              		.section	.text.chHeapInit,"ax",%progbits
  75              		.align	2
  76              		.p2align 4,,15
  77              		.global	chHeapInit
  78              		.thumb
  79              		.thumb_func
  80              		.type	chHeapInit, %function
  81              	chHeapInit:
  82              	.LFB8:
  83              		.loc 1 99 0
  84              		.cfi_startproc
  85              		@ args = 0, pretend = 0, frame = 24
  86              		@ frame_needed = 0, uses_anonymous_args = 0
  87 0000 00B5     		push	{lr}
  88              		.cfi_def_cfa_offset 4
  89              		.cfi_offset 14, -4
  90 0002 87B0     		sub	sp, sp, #28
  91              		.cfi_def_cfa_offset 32
  92 0004 0390     		str	r0, [sp, #12]
  93 0006 0291     		str	r1, [sp, #8]
  94 0008 0192     		str	r2, [sp, #4]
  95              		.loc 1 102 0
  96 000a 029B     		ldr	r3, [sp, #8]
  97 000c 03F00703 		and	r3, r3, #7
  98 0010 002B     		cmp	r3, #0
  99 0012 04D1     		bne	.L5
 100              		.loc 1 102 0 is_stmt 0 discriminator 2
 101 0014 019B     		ldr	r3, [sp, #4]
 102 0016 03F00703 		and	r3, r3, #7
 103 001a 002B     		cmp	r3, #0
 104 001c 05D0     		beq	.L6
 105              	.L5:
 106              		.loc 1 102 0 discriminator 1
ARM GAS  /tmp/ccUOyUQK.s 			page 3


 107 001e 40F20000 		movw	r0, #:lower16:.LC0
 108 0022 C0F20000 		movt	r0, #:upper16:.LC0
 109 0026 FFF7FEFF 		bl	chDbgPanic
 110              	.L6:
 111              		.loc 1 104 0 is_stmt 1
 112 002a 039B     		ldr	r3, [sp, #12]
 113 002c 0022     		movs	r2, #0
 114 002e 1A60     		str	r2, [r3]
 115              		.loc 1 105 0
 116 0030 029B     		ldr	r3, [sp, #8]
 117 0032 0593     		str	r3, [sp, #20]
 118 0034 039B     		ldr	r3, [sp, #12]
 119 0036 059A     		ldr	r2, [sp, #20]
 120 0038 9A60     		str	r2, [r3, #8]
 121              		.loc 1 106 0
 122 003a 039B     		ldr	r3, [sp, #12]
 123 003c 0022     		movs	r2, #0
 124 003e DA60     		str	r2, [r3, #12]
 125              		.loc 1 107 0
 126 0040 059B     		ldr	r3, [sp, #20]
 127 0042 0022     		movs	r2, #0
 128 0044 1A60     		str	r2, [r3]
 129              		.loc 1 108 0
 130 0046 019B     		ldr	r3, [sp, #4]
 131 0048 A3F10802 		sub	r2, r3, #8
 132 004c 059B     		ldr	r3, [sp, #20]
 133 004e 5A60     		str	r2, [r3, #4]
 134              		.loc 1 110 0
 135 0050 039B     		ldr	r3, [sp, #12]
 136 0052 1033     		adds	r3, r3, #16
 137 0054 1846     		mov	r0, r3
 138 0056 FFF7FEFF 		bl	chMtxInit
 139              		.loc 1 114 0
 140 005a 07B0     		add	sp, sp, #28
 141              		@ sp needed
 142 005c 5DF804FB 		ldr	pc, [sp], #4
 143              		.cfi_endproc
 144              	.LFE8:
 145              		.size	chHeapInit, .-chHeapInit
 146              		.section	.text.chHeapAlloc,"ax",%progbits
 147              		.align	2
 148              		.p2align 4,,15
 149              		.global	chHeapAlloc
 150              		.thumb
 151              		.thumb_func
 152              		.type	chHeapAlloc, %function
 153              	chHeapAlloc:
 154              	.LFB9:
 155              		.loc 1 132 0
 156              		.cfi_startproc
 157              		@ args = 0, pretend = 0, frame = 24
 158              		@ frame_needed = 0, uses_anonymous_args = 0
 159 0000 00B5     		push	{lr}
 160              		.cfi_def_cfa_offset 4
 161              		.cfi_offset 14, -4
 162 0002 87B0     		sub	sp, sp, #28
 163              		.cfi_def_cfa_offset 32
ARM GAS  /tmp/ccUOyUQK.s 			page 4


 164 0004 0190     		str	r0, [sp, #4]
 165 0006 0091     		str	r1, [sp]
 166              		.loc 1 135 0
 167 0008 019B     		ldr	r3, [sp, #4]
 168 000a 002B     		cmp	r3, #0
 169 000c 04D1     		bne	.L8
 170              		.loc 1 136 0
 171 000e 40F20003 		movw	r3, #:lower16:default_heap
 172 0012 C0F20003 		movt	r3, #:upper16:default_heap
 173 0016 0193     		str	r3, [sp, #4]
 174              	.L8:
 175              		.loc 1 138 0
 176 0018 009B     		ldr	r3, [sp]
 177 001a 0733     		adds	r3, r3, #7
 178 001c 23F00703 		bic	r3, r3, #7
 179 0020 0093     		str	r3, [sp]
 180              		.loc 1 139 0
 181 0022 019B     		ldr	r3, [sp, #4]
 182 0024 0833     		adds	r3, r3, #8
 183 0026 0593     		str	r3, [sp, #20]
 184              		.loc 1 140 0
 185 0028 019B     		ldr	r3, [sp, #4]
 186 002a 1033     		adds	r3, r3, #16
 187 002c 1846     		mov	r0, r3
 188 002e FFF7FEFF 		bl	chMtxLock
 189              		.loc 1 142 0
 190 0032 33E0     		b	.L9
 191              	.L14:
 192              		.loc 1 143 0
 193 0034 059B     		ldr	r3, [sp, #20]
 194 0036 1B68     		ldr	r3, [r3]
 195 0038 0493     		str	r3, [sp, #16]
 196              		.loc 1 144 0
 197 003a 049B     		ldr	r3, [sp, #16]
 198 003c 5A68     		ldr	r2, [r3, #4]
 199 003e 009B     		ldr	r3, [sp]
 200 0040 9A42     		cmp	r2, r3
 201 0042 29D3     		bcc	.L10
 202              		.loc 1 145 0
 203 0044 049B     		ldr	r3, [sp, #16]
 204 0046 5A68     		ldr	r2, [r3, #4]
 205 0048 009B     		ldr	r3, [sp]
 206 004a 0833     		adds	r3, r3, #8
 207 004c 9A42     		cmp	r2, r3
 208 004e 04D2     		bcs	.L11
 209              		.loc 1 149 0
 210 0050 049B     		ldr	r3, [sp, #16]
 211 0052 1A68     		ldr	r2, [r3]
 212 0054 059B     		ldr	r3, [sp, #20]
 213 0056 1A60     		str	r2, [r3]
 214 0058 16E0     		b	.L12
 215              	.L11:
 216              		.loc 1 153 0
 217 005a 009B     		ldr	r3, [sp]
 218 005c 0833     		adds	r3, r3, #8
 219 005e 049A     		ldr	r2, [sp, #16]
 220 0060 1344     		add	r3, r3, r2
ARM GAS  /tmp/ccUOyUQK.s 			page 5


 221 0062 0393     		str	r3, [sp, #12]
 222              		.loc 1 154 0
 223 0064 049B     		ldr	r3, [sp, #16]
 224 0066 1A68     		ldr	r2, [r3]
 225 0068 039B     		ldr	r3, [sp, #12]
 226 006a 1A60     		str	r2, [r3]
 227              		.loc 1 155 0
 228 006c 049B     		ldr	r3, [sp, #16]
 229 006e 5A68     		ldr	r2, [r3, #4]
 230 0070 009B     		ldr	r3, [sp]
 231 0072 D31A     		subs	r3, r2, r3
 232 0074 A3F10802 		sub	r2, r3, #8
 233 0078 039B     		ldr	r3, [sp, #12]
 234 007a 5A60     		str	r2, [r3, #4]
 235              		.loc 1 156 0
 236 007c 059B     		ldr	r3, [sp, #20]
 237 007e 039A     		ldr	r2, [sp, #12]
 238 0080 1A60     		str	r2, [r3]
 239              		.loc 1 157 0
 240 0082 049B     		ldr	r3, [sp, #16]
 241 0084 009A     		ldr	r2, [sp]
 242 0086 5A60     		str	r2, [r3, #4]
 243              	.L12:
 244              		.loc 1 159 0
 245 0088 049B     		ldr	r3, [sp, #16]
 246 008a 019A     		ldr	r2, [sp, #4]
 247 008c 1A60     		str	r2, [r3]
 248              		.loc 1 161 0
 249 008e FFF7FEFF 		bl	chMtxUnlock
 250              		.loc 1 162 0
 251 0092 049B     		ldr	r3, [sp, #16]
 252 0094 0833     		adds	r3, r3, #8
 253 0096 21E0     		b	.L13
 254              	.L10:
 255              		.loc 1 164 0
 256 0098 049B     		ldr	r3, [sp, #16]
 257 009a 0593     		str	r3, [sp, #20]
 258              	.L9:
 259              		.loc 1 142 0 discriminator 1
 260 009c 059B     		ldr	r3, [sp, #20]
 261 009e 1B68     		ldr	r3, [r3]
 262 00a0 002B     		cmp	r3, #0
 263 00a2 C7D1     		bne	.L14
 264              		.loc 1 167 0
 265 00a4 FFF7FEFF 		bl	chMtxUnlock
 266              		.loc 1 171 0
 267 00a8 019B     		ldr	r3, [sp, #4]
 268 00aa 1B68     		ldr	r3, [r3]
 269 00ac 002B     		cmp	r3, #0
 270 00ae 14D0     		beq	.L15
 271              		.loc 1 172 0
 272 00b0 019B     		ldr	r3, [sp, #4]
 273 00b2 1B68     		ldr	r3, [r3]
 274 00b4 009A     		ldr	r2, [sp]
 275 00b6 0832     		adds	r2, r2, #8
 276 00b8 1046     		mov	r0, r2
 277 00ba 9847     		blx	r3
ARM GAS  /tmp/ccUOyUQK.s 			page 6


 278 00bc 0490     		str	r0, [sp, #16]
 279              		.loc 1 173 0
 280 00be 049B     		ldr	r3, [sp, #16]
 281 00c0 002B     		cmp	r3, #0
 282 00c2 0AD0     		beq	.L15
 283              		.loc 1 174 0
 284 00c4 049B     		ldr	r3, [sp, #16]
 285 00c6 019A     		ldr	r2, [sp, #4]
 286 00c8 1A60     		str	r2, [r3]
 287              		.loc 1 175 0
 288 00ca 049B     		ldr	r3, [sp, #16]
 289 00cc 009A     		ldr	r2, [sp]
 290 00ce 5A60     		str	r2, [r3, #4]
 291              		.loc 1 176 0
 292 00d0 049B     		ldr	r3, [sp, #16]
 293 00d2 0833     		adds	r3, r3, #8
 294 00d4 0493     		str	r3, [sp, #16]
 295              		.loc 1 177 0
 296 00d6 049B     		ldr	r3, [sp, #16]
 297 00d8 00E0     		b	.L13
 298              	.L15:
 299              		.loc 1 180 0
 300 00da 0023     		movs	r3, #0
 301              	.L13:
 302              		.loc 1 181 0
 303 00dc 1846     		mov	r0, r3
 304 00de 07B0     		add	sp, sp, #28
 305              		@ sp needed
 306 00e0 5DF804FB 		ldr	pc, [sp], #4
 307              		.cfi_endproc
 308              	.LFE9:
 309              		.size	chHeapAlloc, .-chHeapAlloc
 310 00e4 AFF30080 		.section	.rodata
 310      AFF30080 
 310      AFF30080 
 311 000f 00       		.align	2
 312              	.LC1:
 313 0010 22636848 		.ascii	"\"chHeapFree\"()\000"
 313      65617046 
 313      72656522 
 313      282900
 314 001f 00       		.align	2
 315              	.LC2:
 316 0020 63684865 		.ascii	"chHeapFree(), #1\000"
 316      61704672 
 316      65652829 
 316      2C202331 
 316      00
 317 0031 000000   		.section	.text.chHeapFree,"ax",%progbits
 318              		.align	2
 319              		.p2align 4,,15
 320              		.global	chHeapFree
 321              		.thumb
 322              		.thumb_func
 323              		.type	chHeapFree, %function
 324              	chHeapFree:
 325              	.LFB10:
ARM GAS  /tmp/ccUOyUQK.s 			page 7


 326              		.loc 1 194 0
 327              		.cfi_startproc
 328              		@ args = 0, pretend = 0, frame = 24
 329              		@ frame_needed = 0, uses_anonymous_args = 0
 330 0000 00B5     		push	{lr}
 331              		.cfi_def_cfa_offset 4
 332              		.cfi_offset 14, -4
 333 0002 87B0     		sub	sp, sp, #28
 334              		.cfi_def_cfa_offset 32
 335 0004 0190     		str	r0, [sp, #4]
 336              		.loc 1 198 0
 337 0006 019B     		ldr	r3, [sp, #4]
 338 0008 002B     		cmp	r3, #0
 339 000a 05D1     		bne	.L17
 340              		.loc 1 198 0 is_stmt 0 discriminator 1
 341 000c 40F20000 		movw	r0, #:lower16:.LC1
 342 0010 C0F20000 		movt	r0, #:upper16:.LC1
 343 0014 FFF7FEFF 		bl	chDbgPanic
 344              	.L17:
 345              		.loc 1 200 0 is_stmt 1
 346 0018 019B     		ldr	r3, [sp, #4]
 347 001a 083B     		subs	r3, r3, #8
 348 001c 0493     		str	r3, [sp, #16]
 349              		.loc 1 201 0
 350 001e 049B     		ldr	r3, [sp, #16]
 351 0020 1B68     		ldr	r3, [r3]
 352 0022 0393     		str	r3, [sp, #12]
 353              		.loc 1 202 0
 354 0024 039B     		ldr	r3, [sp, #12]
 355 0026 0833     		adds	r3, r3, #8
 356 0028 0593     		str	r3, [sp, #20]
 357              		.loc 1 203 0
 358 002a 039B     		ldr	r3, [sp, #12]
 359 002c 1033     		adds	r3, r3, #16
 360 002e 1846     		mov	r0, r3
 361 0030 FFF7FEFF 		bl	chMtxLock
 362              	.L25:
 363              		.loc 1 206 0
 364 0034 049A     		ldr	r2, [sp, #16]
 365 0036 059B     		ldr	r3, [sp, #20]
 366 0038 9A42     		cmp	r2, r3
 367 003a 0DD3     		bcc	.L18
 368              		.loc 1 206 0 is_stmt 0 discriminator 1
 369 003c 059B     		ldr	r3, [sp, #20]
 370 003e 5B68     		ldr	r3, [r3, #4]
 371 0040 0833     		adds	r3, r3, #8
 372 0042 059A     		ldr	r2, [sp, #20]
 373 0044 1A44     		add	r2, r2, r3
 374 0046 049B     		ldr	r3, [sp, #16]
 375 0048 9A42     		cmp	r2, r3
 376 004a 05D9     		bls	.L18
 377 004c 40F20000 		movw	r0, #:lower16:.LC2
 378 0050 C0F20000 		movt	r0, #:upper16:.LC2
 379 0054 FFF7FEFF 		bl	chDbgPanic
 380              	.L18:
 381              		.loc 1 210 0 is_stmt 1
 382 0058 039B     		ldr	r3, [sp, #12]
ARM GAS  /tmp/ccUOyUQK.s 			page 8


 383 005a 03F10802 		add	r2, r3, #8
 384 005e 059B     		ldr	r3, [sp, #20]
 385 0060 9A42     		cmp	r2, r3
 386 0062 03D0     		beq	.L19
 387              		.loc 1 210 0 is_stmt 0 discriminator 2
 388 0064 049A     		ldr	r2, [sp, #16]
 389 0066 059B     		ldr	r3, [sp, #20]
 390 0068 9A42     		cmp	r2, r3
 391 006a 3ED9     		bls	.L20
 392              	.L19:
 393              		.loc 1 211 0 is_stmt 1 discriminator 1
 394 006c 059B     		ldr	r3, [sp, #20]
 395 006e 1B68     		ldr	r3, [r3]
 396              		.loc 1 210 0 discriminator 1
 397 0070 002B     		cmp	r3, #0
 398 0072 04D0     		beq	.L21
 399              		.loc 1 211 0
 400 0074 059B     		ldr	r3, [sp, #20]
 401 0076 1A68     		ldr	r2, [r3]
 402 0078 049B     		ldr	r3, [sp, #16]
 403 007a 9A42     		cmp	r2, r3
 404 007c 35D9     		bls	.L20
 405              	.L21:
 406              		.loc 1 213 0
 407 007e 059B     		ldr	r3, [sp, #20]
 408 0080 1A68     		ldr	r2, [r3]
 409 0082 049B     		ldr	r3, [sp, #16]
 410 0084 1A60     		str	r2, [r3]
 411              		.loc 1 214 0
 412 0086 059B     		ldr	r3, [sp, #20]
 413 0088 049A     		ldr	r2, [sp, #16]
 414 008a 1A60     		str	r2, [r3]
 415              		.loc 1 216 0
 416 008c 049B     		ldr	r3, [sp, #16]
 417 008e 5B68     		ldr	r3, [r3, #4]
 418 0090 0833     		adds	r3, r3, #8
 419 0092 049A     		ldr	r2, [sp, #16]
 420 0094 1A44     		add	r2, r2, r3
 421 0096 049B     		ldr	r3, [sp, #16]
 422 0098 1B68     		ldr	r3, [r3]
 423 009a 9A42     		cmp	r2, r3
 424 009c 0ED1     		bne	.L22
 425              		.loc 1 218 0
 426 009e 049B     		ldr	r3, [sp, #16]
 427 00a0 5A68     		ldr	r2, [r3, #4]
 428 00a2 049B     		ldr	r3, [sp, #16]
 429 00a4 1B68     		ldr	r3, [r3]
 430 00a6 5B68     		ldr	r3, [r3, #4]
 431 00a8 1344     		add	r3, r3, r2
 432 00aa 03F10802 		add	r2, r3, #8
 433 00ae 049B     		ldr	r3, [sp, #16]
 434 00b0 5A60     		str	r2, [r3, #4]
 435              		.loc 1 219 0
 436 00b2 049B     		ldr	r3, [sp, #16]
 437 00b4 1B68     		ldr	r3, [r3]
 438 00b6 1A68     		ldr	r2, [r3]
 439 00b8 049B     		ldr	r3, [sp, #16]
ARM GAS  /tmp/ccUOyUQK.s 			page 9


 440 00ba 1A60     		str	r2, [r3]
 441              	.L22:
 442              		.loc 1 221 0
 443 00bc 059B     		ldr	r3, [sp, #20]
 444 00be 5B68     		ldr	r3, [r3, #4]
 445 00c0 0833     		adds	r3, r3, #8
 446 00c2 059A     		ldr	r2, [sp, #20]
 447 00c4 1A44     		add	r2, r2, r3
 448 00c6 049B     		ldr	r3, [sp, #16]
 449 00c8 9A42     		cmp	r2, r3
 450 00ca 0DD1     		bne	.L23
 451              		.loc 1 223 0
 452 00cc 059B     		ldr	r3, [sp, #20]
 453 00ce 5A68     		ldr	r2, [r3, #4]
 454 00d0 049B     		ldr	r3, [sp, #16]
 455 00d2 5B68     		ldr	r3, [r3, #4]
 456 00d4 1344     		add	r3, r3, r2
 457 00d6 03F10802 		add	r2, r3, #8
 458 00da 059B     		ldr	r3, [sp, #20]
 459 00dc 5A60     		str	r2, [r3, #4]
 460              		.loc 1 224 0
 461 00de 049B     		ldr	r3, [sp, #16]
 462 00e0 1A68     		ldr	r2, [r3]
 463 00e2 059B     		ldr	r3, [sp, #20]
 464 00e4 1A60     		str	r2, [r3]
 465              		.loc 1 226 0
 466 00e6 04E0     		b	.L24
 467              	.L23:
 468 00e8 03E0     		b	.L24
 469              	.L20:
 470              		.loc 1 228 0
 471 00ea 059B     		ldr	r3, [sp, #20]
 472 00ec 1B68     		ldr	r3, [r3]
 473 00ee 0593     		str	r3, [sp, #20]
 474              		.loc 1 229 0
 475 00f0 A0E7     		b	.L25
 476              	.L24:
 477              		.loc 1 231 0
 478 00f2 FFF7FEFF 		bl	chMtxUnlock
 479              		.loc 1 232 0
 480 00f6 00BF     		nop
 481              		.loc 1 233 0
 482 00f8 07B0     		add	sp, sp, #28
 483              		@ sp needed
 484 00fa 5DF804FB 		ldr	pc, [sp], #4
 485              		.cfi_endproc
 486              	.LFE10:
 487              		.size	chHeapFree, .-chHeapFree
 488 00fe 00BF     		.section	.text.chHeapStatus,"ax",%progbits
 489              		.align	2
 490              		.p2align 4,,15
 491              		.global	chHeapStatus
 492              		.thumb
 493              		.thumb_func
 494              		.type	chHeapStatus, %function
 495              	chHeapStatus:
 496              	.LFB11:
ARM GAS  /tmp/ccUOyUQK.s 			page 10


 497              		.loc 1 250 0
 498              		.cfi_startproc
 499              		@ args = 0, pretend = 0, frame = 24
 500              		@ frame_needed = 0, uses_anonymous_args = 0
 501 0000 00B5     		push	{lr}
 502              		.cfi_def_cfa_offset 4
 503              		.cfi_offset 14, -4
 504 0002 87B0     		sub	sp, sp, #28
 505              		.cfi_def_cfa_offset 32
 506 0004 0190     		str	r0, [sp, #4]
 507 0006 0091     		str	r1, [sp]
 508              		.loc 1 254 0
 509 0008 019B     		ldr	r3, [sp, #4]
 510 000a 002B     		cmp	r3, #0
 511 000c 04D1     		bne	.L28
 512              		.loc 1 255 0
 513 000e 40F20003 		movw	r3, #:lower16:default_heap
 514 0012 C0F20003 		movt	r3, #:upper16:default_heap
 515 0016 0193     		str	r3, [sp, #4]
 516              	.L28:
 517              		.loc 1 257 0
 518 0018 019B     		ldr	r3, [sp, #4]
 519 001a 1033     		adds	r3, r3, #16
 520 001c 1846     		mov	r0, r3
 521 001e FFF7FEFF 		bl	chMtxLock
 522              		.loc 1 259 0
 523 0022 0023     		movs	r3, #0
 524 0024 0393     		str	r3, [sp, #12]
 525              		.loc 1 260 0
 526 0026 0023     		movs	r3, #0
 527 0028 0493     		str	r3, [sp, #16]
 528 002a 019B     		ldr	r3, [sp, #4]
 529 002c 0833     		adds	r3, r3, #8
 530 002e 0593     		str	r3, [sp, #20]
 531 0030 0BE0     		b	.L29
 532              	.L30:
 533              		.loc 1 261 0 discriminator 2
 534 0032 059B     		ldr	r3, [sp, #20]
 535 0034 1B68     		ldr	r3, [r3]
 536 0036 5B68     		ldr	r3, [r3, #4]
 537 0038 039A     		ldr	r2, [sp, #12]
 538 003a 1344     		add	r3, r3, r2
 539 003c 0393     		str	r3, [sp, #12]
 540              		.loc 1 260 0 discriminator 2
 541 003e 049B     		ldr	r3, [sp, #16]
 542 0040 0133     		adds	r3, r3, #1
 543 0042 0493     		str	r3, [sp, #16]
 544 0044 059B     		ldr	r3, [sp, #20]
 545 0046 1B68     		ldr	r3, [r3]
 546 0048 0593     		str	r3, [sp, #20]
 547              	.L29:
 548              		.loc 1 260 0 is_stmt 0 discriminator 1
 549 004a 059B     		ldr	r3, [sp, #20]
 550 004c 1B68     		ldr	r3, [r3]
 551 004e 002B     		cmp	r3, #0
 552 0050 EFD1     		bne	.L30
 553              		.loc 1 262 0 is_stmt 1
ARM GAS  /tmp/ccUOyUQK.s 			page 11


 554 0052 009B     		ldr	r3, [sp]
 555 0054 002B     		cmp	r3, #0
 556 0056 02D0     		beq	.L31
 557              		.loc 1 263 0
 558 0058 009B     		ldr	r3, [sp]
 559 005a 039A     		ldr	r2, [sp, #12]
 560 005c 1A60     		str	r2, [r3]
 561              	.L31:
 562              		.loc 1 265 0
 563 005e FFF7FEFF 		bl	chMtxUnlock
 564              		.loc 1 266 0
 565 0062 049B     		ldr	r3, [sp, #16]
 566              		.loc 1 267 0
 567 0064 1846     		mov	r0, r3
 568 0066 07B0     		add	sp, sp, #28
 569              		@ sp needed
 570 0068 5DF804FB 		ldr	pc, [sp], #4
 571              		.cfi_endproc
 572              	.LFE11:
 573              		.size	chHeapStatus, .-chHeapStatus
 574 006c AFF30080 		.text
 575              	.Letext0:
 576              		.file 2 "/usr/lib/gcc/arm-none-eabi/4.8.2/include/stddef.h"
 577              		.file 3 "/usr/arm-none-eabi/include/machine/_default_types.h"
 578              		.file 4 "/usr/arm-none-eabi/include/stdint.h"
 579              		.file 5 "../../../os/ports/GCC/ARMCMx/chtypes.h"
 580              		.file 6 "../../../os/kernel/include/chlists.h"
 581              		.file 7 "../../../os/kernel/include/chthreads.h"
 582              		.file 8 "../../../os/ports/GCC/ARMCMx/chcore_v7m.h"
 583              		.file 9 "../../../os/kernel/include/chmtx.h"
 584              		.file 10 "../../../os/kernel/include/chmemcore.h"
 585              		.file 11 "../../../os/kernel/include/chheap.h"