ARM GAS  /tmp/ccAGJi2D.s 			page 1


   1              		.syntax unified
   2              		.cpu cortex-m4
   3              		.fpu softvfp
   4              		.eabi_attribute 20, 1
   5              		.eabi_attribute 21, 1
   6              		.eabi_attribute 23, 3
   7              		.eabi_attribute 24, 1
   8              		.eabi_attribute 25, 1
   9              		.eabi_attribute 26, 1
  10              		.eabi_attribute 30, 6
  11              		.eabi_attribute 34, 1
  12              		.eabi_attribute 18, 4
  13              		.thumb
  14              		.file	"chmemcore.c"
  15              		.text
  16              	.Ltext0:
  17              		.cfi_sections	.debug_frame
  18              		.section	.bss.nextmem,"aw",%nobits
  19              		.align	2
  20              		.type	nextmem, %object
  21              		.size	nextmem, 4
  22              	nextmem:
  23 0000 00000000 		.space	4
  24              		.section	.bss.endmem,"aw",%nobits
  25              		.align	2
  26              		.type	endmem, %object
  27              		.size	endmem, 4
  28              	endmem:
  29 0000 00000000 		.space	4
  30              		.section	.text._core_init,"ax",%progbits
  31              		.align	2
  32              		.p2align 4,,15
  33              		.global	_core_init
  34              		.thumb
  35              		.thumb_func
  36              		.type	_core_init, %function
  37              	_core_init:
  38              	.LFB7:
  39              		.file 1 "../../../os/kernel/src/chmemcore.c"
  40              		.loc 1 66 0
  41              		.cfi_startproc
  42              		@ args = 0, pretend = 0, frame = 0
  43              		@ frame_needed = 0, uses_anonymous_args = 0
  44              		@ link register save eliminated.
  45              		.loc 1 70 0
  46 0000 40F20003 		movw	r3, #:lower16:__heap_base__
  47 0004 C0F20003 		movt	r3, #:upper16:__heap_base__
  48 0008 0733     		adds	r3, r3, #7
  49 000a 23F00703 		bic	r3, r3, #7
  50 000e 1A46     		mov	r2, r3
  51 0010 40F20003 		movw	r3, #:lower16:nextmem
  52 0014 C0F20003 		movt	r3, #:upper16:nextmem
  53 0018 1A60     		str	r2, [r3]
  54              		.loc 1 71 0
  55 001a 40F20003 		movw	r3, #:lower16:__heap_end__
  56 001e C0F20003 		movt	r3, #:upper16:__heap_end__
  57 0022 23F00703 		bic	r3, r3, #7
ARM GAS  /tmp/ccAGJi2D.s 			page 2


  58 0026 1A46     		mov	r2, r3
  59 0028 40F20003 		movw	r3, #:lower16:endmem
  60 002c C0F20003 		movt	r3, #:upper16:endmem
  61 0030 1A60     		str	r2, [r3]
  62              		.loc 1 77 0
  63 0032 7047     		bx	lr
  64              		.cfi_endproc
  65              	.LFE7:
  66              		.size	_core_init, .-_core_init
  67 0034 AFF30080 		.section	.text.chCoreAlloc,"ax",%progbits
  67      AFF30080 
  67      AFF30080 
  68              		.align	2
  69              		.p2align 4,,15
  70              		.global	chCoreAlloc
  71              		.thumb
  72              		.thumb_func
  73              		.type	chCoreAlloc, %function
  74              	chCoreAlloc:
  75              	.LFB8:
  76              		.loc 1 91 0
  77              		.cfi_startproc
  78              		@ args = 0, pretend = 0, frame = 16
  79              		@ frame_needed = 0, uses_anonymous_args = 0
  80 0000 00B5     		push	{lr}
  81              		.cfi_def_cfa_offset 4
  82              		.cfi_offset 14, -4
  83 0002 85B0     		sub	sp, sp, #20
  84              		.cfi_def_cfa_offset 24
  85 0004 0190     		str	r0, [sp, #4]
  86              	.LBB2:
  87              		.loc 1 94 0
  88 0006 2023     		movs	r3, #32
  89              	@ 94 "../../../os/kernel/src/chmemcore.c" 1
  90 0008 83F31188 		msr     BASEPRI, r3
  91              	@ 0 "" 2
  92              		.thumb
  93              	.LBE2:
  94 000c FFF7FEFF 		bl	dbg_check_lock
  95              		.loc 1 95 0
  96 0010 0198     		ldr	r0, [sp, #4]
  97 0012 FFF7FEFF 		bl	chCoreAllocI
  98 0016 0390     		str	r0, [sp, #12]
  99              		.loc 1 96 0
 100 0018 FFF7FEFF 		bl	dbg_check_unlock
 101              	.LBB3:
 102 001c 0023     		movs	r3, #0
 103              	@ 96 "../../../os/kernel/src/chmemcore.c" 1
 104 001e 83F31188 		msr     BASEPRI, r3
 105              	@ 0 "" 2
 106              		.thumb
 107              	.LBE3:
 108              		.loc 1 97 0
 109 0022 039B     		ldr	r3, [sp, #12]
 110              		.loc 1 98 0
 111 0024 1846     		mov	r0, r3
 112 0026 05B0     		add	sp, sp, #20
ARM GAS  /tmp/ccAGJi2D.s 			page 3


 113              		@ sp needed
 114 0028 5DF804FB 		ldr	pc, [sp], #4
 115              		.cfi_endproc
 116              	.LFE8:
 117              		.size	chCoreAlloc, .-chCoreAlloc
 118 002c AFF30080 		.section	.text.chCoreAllocI,"ax",%progbits
 119              		.align	2
 120              		.p2align 4,,15
 121              		.global	chCoreAllocI
 122              		.thumb
 123              		.thumb_func
 124              		.type	chCoreAllocI, %function
 125              	chCoreAllocI:
 126              	.LFB9:
 127              		.loc 1 112 0
 128              		.cfi_startproc
 129              		@ args = 0, pretend = 0, frame = 16
 130              		@ frame_needed = 0, uses_anonymous_args = 0
 131 0000 00B5     		push	{lr}
 132              		.cfi_def_cfa_offset 4
 133              		.cfi_offset 14, -4
 134 0002 85B0     		sub	sp, sp, #20
 135              		.cfi_def_cfa_offset 24
 136 0004 0190     		str	r0, [sp, #4]
 137              		.loc 1 115 0
 138 0006 FFF7FEFF 		bl	chDbgCheckClassI
 139              		.loc 1 117 0
 140 000a 019B     		ldr	r3, [sp, #4]
 141 000c 0733     		adds	r3, r3, #7
 142 000e 23F00703 		bic	r3, r3, #7
 143 0012 0193     		str	r3, [sp, #4]
 144              		.loc 1 118 0
 145 0014 40F20003 		movw	r3, #:lower16:endmem
 146 0018 C0F20003 		movt	r3, #:upper16:endmem
 147 001c 1B68     		ldr	r3, [r3]
 148 001e 1A46     		mov	r2, r3
 149 0020 40F20003 		movw	r3, #:lower16:nextmem
 150 0024 C0F20003 		movt	r3, #:upper16:nextmem
 151 0028 1B68     		ldr	r3, [r3]
 152 002a D31A     		subs	r3, r2, r3
 153 002c 1A46     		mov	r2, r3
 154 002e 019B     		ldr	r3, [sp, #4]
 155 0030 9A42     		cmp	r2, r3
 156 0032 01D2     		bcs	.L5
 157              		.loc 1 119 0
 158 0034 0023     		movs	r3, #0
 159 0036 12E0     		b	.L6
 160              	.L5:
 161              		.loc 1 120 0
 162 0038 40F20003 		movw	r3, #:lower16:nextmem
 163 003c C0F20003 		movt	r3, #:upper16:nextmem
 164 0040 1B68     		ldr	r3, [r3]
 165 0042 0393     		str	r3, [sp, #12]
 166              		.loc 1 121 0
 167 0044 40F20003 		movw	r3, #:lower16:nextmem
 168 0048 C0F20003 		movt	r3, #:upper16:nextmem
 169 004c 1A68     		ldr	r2, [r3]
ARM GAS  /tmp/ccAGJi2D.s 			page 4


 170 004e 019B     		ldr	r3, [sp, #4]
 171 0050 1A44     		add	r2, r2, r3
 172 0052 40F20003 		movw	r3, #:lower16:nextmem
 173 0056 C0F20003 		movt	r3, #:upper16:nextmem
 174 005a 1A60     		str	r2, [r3]
 175              		.loc 1 122 0
 176 005c 039B     		ldr	r3, [sp, #12]
 177              	.L6:
 178              		.loc 1 123 0
 179 005e 1846     		mov	r0, r3
 180 0060 05B0     		add	sp, sp, #20
 181              		@ sp needed
 182 0062 5DF804FB 		ldr	pc, [sp], #4
 183              		.cfi_endproc
 184              	.LFE9:
 185              		.size	chCoreAllocI, .-chCoreAllocI
 186 0066 00BFAFF3 		.section	.text.chCoreStatus,"ax",%progbits
 186      0080AFF3 
 186      0080
 187              		.align	2
 188              		.p2align 4,,15
 189              		.global	chCoreStatus
 190              		.thumb
 191              		.thumb_func
 192              		.type	chCoreStatus, %function
 193              	chCoreStatus:
 194              	.LFB10:
 195              		.loc 1 132 0
 196              		.cfi_startproc
 197              		@ args = 0, pretend = 0, frame = 0
 198              		@ frame_needed = 0, uses_anonymous_args = 0
 199              		@ link register save eliminated.
 200              		.loc 1 134 0
 201 0000 40F20003 		movw	r3, #:lower16:endmem
 202 0004 C0F20003 		movt	r3, #:upper16:endmem
 203 0008 1B68     		ldr	r3, [r3]
 204 000a 1A46     		mov	r2, r3
 205 000c 40F20003 		movw	r3, #:lower16:nextmem
 206 0010 C0F20003 		movt	r3, #:upper16:nextmem
 207 0014 1B68     		ldr	r3, [r3]
 208 0016 D31A     		subs	r3, r2, r3
 209              		.loc 1 135 0
 210 0018 1846     		mov	r0, r3
 211 001a 7047     		bx	lr
 212              		.cfi_endproc
 213              	.LFE10:
 214              		.size	chCoreStatus, .-chCoreStatus
 215 001c AFF30080 		.text
 216              	.Letext0:
 217              		.file 2 "/usr/lib/gcc/arm-none-eabi/4.8.2/include/stddef.h"
 218              		.file 3 "/usr/arm-none-eabi/include/machine/_default_types.h"
 219              		.file 4 "/usr/arm-none-eabi/include/stdint.h"