ARM GAS  /tmp/ccbhHlsY.s 			page 1


   1              		.syntax unified
   2              		.cpu cortex-m4
   3              		.fpu softvfp
   4              		.eabi_attribute 20, 1
   5              		.eabi_attribute 21, 1
   6              		.eabi_attribute 23, 3
   7              		.eabi_attribute 24, 1
   8              		.eabi_attribute 25, 1
   9              		.eabi_attribute 26, 1
  10              		.eabi_attribute 30, 6
  11              		.eabi_attribute 34, 1
  12              		.eabi_attribute 18, 4
  13              		.thumb
  14              		.file	"chschd.c"
  15              		.text
  16              	.Ltext0:
  17              		.cfi_sections	.debug_frame
  18              		.section	.text.fifo_remove,"ax",%progbits
  19              		.align	2
  20              		.p2align 4,,15
  21              		.thumb
  22              		.thumb_func
  23              		.type	fifo_remove, %function
  24              	fifo_remove:
  25              	.LFB2:
  26              		.file 1 "../../../os/kernel/include/chinline.h"
  27              		.loc 1 59 0
  28              		.cfi_startproc
  29              		@ args = 0, pretend = 0, frame = 16
  30              		@ frame_needed = 0, uses_anonymous_args = 0
  31              		@ link register save eliminated.
  32 0000 84B0     		sub	sp, sp, #16
  33              		.cfi_def_cfa_offset 16
  34 0002 0190     		str	r0, [sp, #4]
  35              		.loc 1 60 0
  36 0004 019B     		ldr	r3, [sp, #4]
  37 0006 1B68     		ldr	r3, [r3]
  38 0008 0393     		str	r3, [sp, #12]
  39              		.loc 1 62 0
  40 000a 039B     		ldr	r3, [sp, #12]
  41 000c 1A68     		ldr	r2, [r3]
  42 000e 019B     		ldr	r3, [sp, #4]
  43 0010 1A60     		str	r2, [r3]
  44 0012 019B     		ldr	r3, [sp, #4]
  45 0014 1B68     		ldr	r3, [r3]
  46 0016 019A     		ldr	r2, [sp, #4]
  47 0018 5A60     		str	r2, [r3, #4]
  48              		.loc 1 63 0
  49 001a 039B     		ldr	r3, [sp, #12]
  50              		.loc 1 64 0
  51 001c 1846     		mov	r0, r3
  52 001e 04B0     		add	sp, sp, #16
  53              		@ sp needed
  54 0020 7047     		bx	lr
  55              		.cfi_endproc
  56              	.LFE2:
  57              		.size	fifo_remove, .-fifo_remove
ARM GAS  /tmp/ccbhHlsY.s 			page 2


  58 0022 00BFAFF3 		.section	.text.dequeue,"ax",%progbits
  58      0080AFF3 
  58      0080AFF3 
  58      0080
  59              		.align	2
  60              		.p2align 4,,15
  61              		.thumb
  62              		.thumb_func
  63              		.type	dequeue, %function
  64              	dequeue:
  65              	.LFB4:
  66              		.loc 1 73 0
  67              		.cfi_startproc
  68              		@ args = 0, pretend = 0, frame = 8
  69              		@ frame_needed = 0, uses_anonymous_args = 0
  70              		@ link register save eliminated.
  71 0000 82B0     		sub	sp, sp, #8
  72              		.cfi_def_cfa_offset 8
  73 0002 0190     		str	r0, [sp, #4]
  74              		.loc 1 75 0
  75 0004 019B     		ldr	r3, [sp, #4]
  76 0006 5B68     		ldr	r3, [r3, #4]
  77 0008 019A     		ldr	r2, [sp, #4]
  78 000a 1268     		ldr	r2, [r2]
  79 000c 1A60     		str	r2, [r3]
  80              		.loc 1 76 0
  81 000e 019B     		ldr	r3, [sp, #4]
  82 0010 1B68     		ldr	r3, [r3]
  83 0012 019A     		ldr	r2, [sp, #4]
  84 0014 5268     		ldr	r2, [r2, #4]
  85 0016 5A60     		str	r2, [r3, #4]
  86              		.loc 1 77 0
  87 0018 019B     		ldr	r3, [sp, #4]
  88              		.loc 1 78 0
  89 001a 1846     		mov	r0, r3
  90 001c 02B0     		add	sp, sp, #8
  91              		@ sp needed
  92 001e 7047     		bx	lr
  93              		.cfi_endproc
  94              	.LFE4:
  95              		.size	dequeue, .-dequeue
  96              		.global	rlist
  97              		.section	.bss.rlist,"aw",%nobits
  98              		.align	2
  99              		.type	rlist, %object
 100              		.size	rlist, 28
 101              	rlist:
 102 0000 00000000 		.space	28
 102      00000000 
 102      00000000 
 102      00000000 
 102      00000000 
 103              		.section	.text._scheduler_init,"ax",%progbits
 104              		.align	2
 105              		.p2align 4,,15
 106              		.global	_scheduler_init
 107              		.thumb
ARM GAS  /tmp/ccbhHlsY.s 			page 3


 108              		.thumb_func
 109              		.type	_scheduler_init, %function
 110              	_scheduler_init:
 111              	.LFB7:
 112              		.file 2 "../../../os/kernel/src/chschd.c"
 113              		.loc 2 55 0
 114              		.cfi_startproc
 115              		@ args = 0, pretend = 0, frame = 0
 116              		@ frame_needed = 0, uses_anonymous_args = 0
 117              		@ link register save eliminated.
 118              		.loc 2 57 0
 119 0000 40F20003 		movw	r3, #:lower16:rlist
 120 0004 C0F20003 		movt	r3, #:upper16:rlist
 121 0008 40F20002 		movw	r2, #:lower16:rlist
 122 000c C0F20002 		movt	r2, #:upper16:rlist
 123 0010 5A60     		str	r2, [r3, #4]
 124 0012 40F20003 		movw	r3, #:lower16:rlist
 125 0016 C0F20003 		movt	r3, #:upper16:rlist
 126 001a 5A68     		ldr	r2, [r3, #4]
 127 001c 40F20003 		movw	r3, #:lower16:rlist
 128 0020 C0F20003 		movt	r3, #:upper16:rlist
 129 0024 1A60     		str	r2, [r3]
 130              		.loc 2 58 0
 131 0026 40F20003 		movw	r3, #:lower16:rlist
 132 002a C0F20003 		movt	r3, #:upper16:rlist
 133 002e 0022     		movs	r2, #0
 134 0030 9A60     		str	r2, [r3, #8]
 135              		.loc 2 60 0
 136 0032 40F20003 		movw	r3, #:lower16:rlist
 137 0036 C0F20003 		movt	r3, #:upper16:rlist
 138 003a 40F20002 		movw	r2, #:lower16:rlist
 139 003e C0F20002 		movt	r2, #:upper16:rlist
 140 0042 5A61     		str	r2, [r3, #20]
 141 0044 40F20003 		movw	r3, #:lower16:rlist
 142 0048 C0F20003 		movt	r3, #:upper16:rlist
 143 004c 5A69     		ldr	r2, [r3, #20]
 144 004e 40F20003 		movw	r3, #:lower16:rlist
 145 0052 C0F20003 		movt	r3, #:upper16:rlist
 146 0056 1A61     		str	r2, [r3, #16]
 147              		.loc 2 62 0
 148 0058 7047     		bx	lr
 149              		.cfi_endproc
 150              	.LFE7:
 151              		.size	_scheduler_init, .-_scheduler_init
 152 005a 00BFAFF3 		.section	.rodata
 152      0080
 153              		.align	2
 154              	.LC0:
 155 0000 63685363 		.ascii	"chSchReadyI(), #1\000"
 155      68526561 
 155      64794928 
 155      292C2023 
 155      3100
 156              		.section	.text.chSchReadyI,"ax",%progbits
 157              		.align	2
 158              		.p2align 4,,15
 159              		.global	chSchReadyI
ARM GAS  /tmp/ccbhHlsY.s 			page 4


 160              		.thumb
 161              		.thumb_func
 162              		.type	chSchReadyI, %function
 163              	chSchReadyI:
 164              	.LFB8:
 165              		.loc 2 81 0
 166              		.cfi_startproc
 167              		@ args = 0, pretend = 0, frame = 16
 168              		@ frame_needed = 0, uses_anonymous_args = 0
 169 0000 00B5     		push	{lr}
 170              		.cfi_def_cfa_offset 4
 171              		.cfi_offset 14, -4
 172 0002 85B0     		sub	sp, sp, #20
 173              		.cfi_def_cfa_offset 24
 174 0004 0190     		str	r0, [sp, #4]
 175              		.loc 2 84 0
 176 0006 FFF7FEFF 		bl	chDbgCheckClassI
 177              		.loc 2 87 0
 178 000a 019B     		ldr	r3, [sp, #4]
 179 000c 93F82030 		ldrb	r3, [r3, #32]	@ zero_extendqisi2
 180 0010 002B     		cmp	r3, #0
 181 0012 04D0     		beq	.L7
 182              		.loc 2 87 0 is_stmt 0 discriminator 2
 183 0014 019B     		ldr	r3, [sp, #4]
 184 0016 93F82030 		ldrb	r3, [r3, #32]	@ zero_extendqisi2
 185 001a 0E2B     		cmp	r3, #14
 186 001c 05D1     		bne	.L8
 187              	.L7:
 188              		.loc 2 87 0 discriminator 1
 189 001e 40F20000 		movw	r0, #:lower16:.LC0
 190 0022 C0F20000 		movt	r0, #:upper16:.LC0
 191 0026 FFF7FEFF 		bl	chDbgPanic
 192              	.L8:
 193              		.loc 2 92 0 is_stmt 1
 194 002a 019B     		ldr	r3, [sp, #4]
 195 002c 0022     		movs	r2, #0
 196 002e 83F82020 		strb	r2, [r3, #32]
 197              		.loc 2 93 0
 198 0032 40F20003 		movw	r3, #:lower16:rlist
 199 0036 C0F20003 		movt	r3, #:upper16:rlist
 200 003a 0393     		str	r3, [sp, #12]
 201              	.L9:
 202              		.loc 2 95 0 discriminator 1
 203 003c 039B     		ldr	r3, [sp, #12]
 204 003e 1B68     		ldr	r3, [r3]
 205 0040 0393     		str	r3, [sp, #12]
 206              		.loc 2 96 0 discriminator 1
 207 0042 039B     		ldr	r3, [sp, #12]
 208 0044 9A68     		ldr	r2, [r3, #8]
 209 0046 019B     		ldr	r3, [sp, #4]
 210 0048 9B68     		ldr	r3, [r3, #8]
 211 004a 9A42     		cmp	r2, r3
 212 004c F6D2     		bcs	.L9
 213              		.loc 2 98 0
 214 004e 019B     		ldr	r3, [sp, #4]
 215 0050 039A     		ldr	r2, [sp, #12]
 216 0052 1A60     		str	r2, [r3]
ARM GAS  /tmp/ccbhHlsY.s 			page 5


 217              		.loc 2 99 0
 218 0054 039B     		ldr	r3, [sp, #12]
 219 0056 5A68     		ldr	r2, [r3, #4]
 220 0058 019B     		ldr	r3, [sp, #4]
 221 005a 5A60     		str	r2, [r3, #4]
 222              		.loc 2 100 0
 223 005c 019B     		ldr	r3, [sp, #4]
 224 005e 5B68     		ldr	r3, [r3, #4]
 225 0060 039A     		ldr	r2, [sp, #12]
 226 0062 0199     		ldr	r1, [sp, #4]
 227 0064 5160     		str	r1, [r2, #4]
 228 0066 039A     		ldr	r2, [sp, #12]
 229 0068 5268     		ldr	r2, [r2, #4]
 230 006a 1A60     		str	r2, [r3]
 231              		.loc 2 101 0
 232 006c 019B     		ldr	r3, [sp, #4]
 233              		.loc 2 102 0
 234 006e 1846     		mov	r0, r3
 235 0070 05B0     		add	sp, sp, #20
 236              		@ sp needed
 237 0072 5DF804FB 		ldr	pc, [sp], #4
 238              		.cfi_endproc
 239              	.LFE8:
 240              		.size	chSchReadyI, .-chSchReadyI
 241 0076 00BFAFF3 		.section	.rodata
 241      0080AFF3 
 241      0080
 242 0012 0000     		.align	2
 243              	.LC1:
 244 0014 73746163 		.ascii	"stack overflow\000"
 244      6B206F76 
 244      6572666C 
 244      6F7700
 245 0023 00       		.section	.text.chSchGoSleepS,"ax",%progbits
 246              		.align	2
 247              		.p2align 4,,15
 248              		.global	chSchGoSleepS
 249              		.thumb
 250              		.thumb_func
 251              		.type	chSchGoSleepS, %function
 252              	chSchGoSleepS:
 253              	.LFB9:
 254              		.loc 2 115 0
 255              		.cfi_startproc
 256              		@ args = 0, pretend = 0, frame = 16
 257              		@ frame_needed = 0, uses_anonymous_args = 0
 258 0000 00B5     		push	{lr}
 259              		.cfi_def_cfa_offset 4
 260              		.cfi_offset 14, -4
 261 0002 85B0     		sub	sp, sp, #20
 262              		.cfi_def_cfa_offset 24
 263 0004 0346     		mov	r3, r0
 264 0006 8DF80730 		strb	r3, [sp, #7]
 265              		.loc 2 118 0
 266 000a FFF7FEFF 		bl	chDbgCheckClassS
 267              		.loc 2 120 0
 268 000e 40F20003 		movw	r3, #:lower16:rlist
ARM GAS  /tmp/ccbhHlsY.s 			page 6


 269 0012 C0F20003 		movt	r3, #:upper16:rlist
 270 0016 9B69     		ldr	r3, [r3, #24]
 271 0018 0393     		str	r3, [sp, #12]
 272 001a 039B     		ldr	r3, [sp, #12]
 273 001c 9DF80720 		ldrb	r2, [sp, #7]
 274 0020 83F82020 		strb	r2, [r3, #32]
 275              		.loc 2 124 0
 276 0024 039B     		ldr	r3, [sp, #12]
 277 0026 1422     		movs	r2, #20
 278 0028 83F82320 		strb	r2, [r3, #35]
 279              		.loc 2 126 0
 280 002c 40F20000 		movw	r0, #:lower16:rlist
 281 0030 C0F20000 		movt	r0, #:upper16:rlist
 282 0034 FFF7FEFF 		bl	fifo_remove
 283 0038 0246     		mov	r2, r0
 284 003a 40F20003 		movw	r3, #:lower16:rlist
 285 003e C0F20003 		movt	r3, #:upper16:rlist
 286 0042 9A61     		str	r2, [r3, #24]
 287              		.loc 2 127 0
 288 0044 40F20003 		movw	r3, #:lower16:rlist
 289 0048 C0F20003 		movt	r3, #:upper16:rlist
 290 004c 9B69     		ldr	r3, [r3, #24]
 291 004e 0122     		movs	r2, #1
 292 0050 83F82020 		strb	r2, [r3, #32]
 293              		.loc 2 128 0
 294 0054 0398     		ldr	r0, [sp, #12]
 295 0056 FFF7FEFF 		bl	dbg_trace
 296              	.LBB2:
 297 005a 6B46     		mov	r3, sp
 298 005c A3F12402 		sub	r2, r3, #36
 299 0060 039B     		ldr	r3, [sp, #12]
 300 0062 DB69     		ldr	r3, [r3, #28]
 301 0064 9A42     		cmp	r2, r3
 302 0066 05D2     		bcs	.L12
 303              		.loc 2 128 0 is_stmt 0 discriminator 1
 304 0068 40F20000 		movw	r0, #:lower16:.LC1
 305 006c C0F20000 		movt	r0, #:upper16:.LC1
 306 0070 FFF7FEFF 		bl	chDbgPanic
 307              	.L12:
 308              		.loc 2 128 0 discriminator 2
 309 0074 40F20003 		movw	r3, #:lower16:rlist
 310 0078 C0F20003 		movt	r3, #:upper16:rlist
 311 007c 9B69     		ldr	r3, [r3, #24]
 312 007e 1846     		mov	r0, r3
 313 0080 0399     		ldr	r1, [sp, #12]
 314 0082 FFF7FEFF 		bl	_port_switch
 315              	.LBE2:
 316              		.loc 2 129 0 is_stmt 1 discriminator 2
 317 0086 05B0     		add	sp, sp, #20
 318              		@ sp needed
 319 0088 5DF804FB 		ldr	pc, [sp], #4
 320              		.cfi_endproc
 321              	.LFE9:
 322              		.size	chSchGoSleepS, .-chSchGoSleepS
 323 008c AFF30080 		.section	.text.wakeup,"ax",%progbits
 324              		.align	2
 325              		.p2align 4,,15
ARM GAS  /tmp/ccbhHlsY.s 			page 7


 326              		.thumb
 327              		.thumb_func
 328              		.type	wakeup, %function
 329              	wakeup:
 330              	.LFB10:
 331              		.loc 2 136 0
 332              		.cfi_startproc
 333              		@ args = 0, pretend = 0, frame = 16
 334              		@ frame_needed = 0, uses_anonymous_args = 0
 335 0000 00B5     		push	{lr}
 336              		.cfi_def_cfa_offset 4
 337              		.cfi_offset 14, -4
 338 0002 85B0     		sub	sp, sp, #20
 339              		.cfi_def_cfa_offset 24
 340 0004 0190     		str	r0, [sp, #4]
 341              		.loc 2 137 0
 342 0006 019B     		ldr	r3, [sp, #4]
 343 0008 0393     		str	r3, [sp, #12]
 344              	.LBB3:
 345              		.loc 2 139 0
 346 000a 2023     		movs	r3, #32
 347              	@ 139 "../../../os/kernel/src/chschd.c" 1
 348 000c 83F31188 		msr     BASEPRI, r3
 349              	@ 0 "" 2
 350              		.thumb
 351              	.LBE3:
 352 0010 FFF7FEFF 		bl	dbg_check_lock_from_isr
 353              		.loc 2 140 0
 354 0014 039B     		ldr	r3, [sp, #12]
 355 0016 93F82030 		ldrb	r3, [r3, #32]	@ zero_extendqisi2
 356 001a 0D2B     		cmp	r3, #13
 357 001c 2CD8     		bhi	.L14
 358 001e 01A2     		adr	r2, .L16
 359 0020 52F823F0 		ldr	pc, [r2, r3, lsl #2]
 360              		.p2align 2
 361              	.L16:
 362 0024 5D000000 		.word	.L15+1
 363 0028 79000000 		.word	.L14+1
 364 002c 79000000 		.word	.L14+1
 365 0030 69000000 		.word	.L17+1
 366 0034 79000000 		.word	.L14+1
 367 0038 73000000 		.word	.L18+1
 368 003c 79000000 		.word	.L14+1
 369 0040 79000000 		.word	.L14+1
 370 0044 79000000 		.word	.L14+1
 371 0048 79000000 		.word	.L14+1
 372 004c 79000000 		.word	.L14+1
 373 0050 79000000 		.word	.L14+1
 374 0054 79000000 		.word	.L14+1
 375 0058 73000000 		.word	.L18+1
 376              	.L15:
 377              		.loc 2 144 0
 378 005c FFF7FEFF 		bl	dbg_check_unlock_from_isr
 379              	.LBB4:
 380 0060 0023     		movs	r3, #0
 381              	@ 144 "../../../os/kernel/src/chschd.c" 1
 382 0062 83F31188 		msr     BASEPRI, r3
ARM GAS  /tmp/ccbhHlsY.s 			page 8


 383              	@ 0 "" 2
 384              		.thumb
 385              	.LBE4:
 386              		.loc 2 145 0
 387 0066 13E0     		b	.L13
 388              	.L17:
 389              		.loc 2 150 0
 390 0068 039B     		ldr	r3, [sp, #12]
 391 006a 9B6A     		ldr	r3, [r3, #40]
 392 006c 9A68     		ldr	r2, [r3, #8]
 393 006e 0132     		adds	r2, r2, #1
 394 0070 9A60     		str	r2, [r3, #8]
 395              	.L18:
 396              		.loc 2 160 0
 397 0072 0398     		ldr	r0, [sp, #12]
 398 0074 FFF7FEFF 		bl	dequeue
 399              	.L14:
 400              		.loc 2 163 0
 401 0078 039B     		ldr	r3, [sp, #12]
 402 007a 4FF0FF32 		mov	r2, #-1
 403 007e 9A62     		str	r2, [r3, #40]
 404              		.loc 2 164 0
 405 0080 0398     		ldr	r0, [sp, #12]
 406 0082 FFF7FEFF 		bl	chSchReadyI
 407              		.loc 2 165 0
 408 0086 FFF7FEFF 		bl	dbg_check_unlock_from_isr
 409              	.LBB5:
 410 008a 0023     		movs	r3, #0
 411              	@ 165 "../../../os/kernel/src/chschd.c" 1
 412 008c 83F31188 		msr     BASEPRI, r3
 413              	@ 0 "" 2
 414              		.thumb
 415              	.L13:
 416              	.LBE5:
 417              		.loc 2 166 0
 418 0090 05B0     		add	sp, sp, #20
 419              		@ sp needed
 420 0092 5DF804FB 		ldr	pc, [sp], #4
 421              		.cfi_endproc
 422              	.LFE10:
 423              		.size	wakeup, .-wakeup
 424 0096 00BFAFF3 		.section	.text.chSchGoSleepTimeoutS,"ax",%progbits
 424      0080AFF3 
 424      0080
 425              		.align	2
 426              		.p2align 4,,15
 427              		.global	chSchGoSleepTimeoutS
 428              		.thumb
 429              		.thumb_func
 430              		.type	chSchGoSleepTimeoutS, %function
 431              	chSchGoSleepTimeoutS:
 432              	.LFB11:
 433              		.loc 2 189 0
 434              		.cfi_startproc
 435              		@ args = 0, pretend = 0, frame = 32
 436              		@ frame_needed = 0, uses_anonymous_args = 0
 437 0000 00B5     		push	{lr}
ARM GAS  /tmp/ccbhHlsY.s 			page 9


 438              		.cfi_def_cfa_offset 4
 439              		.cfi_offset 14, -4
 440 0002 89B0     		sub	sp, sp, #36
 441              		.cfi_def_cfa_offset 40
 442 0004 0346     		mov	r3, r0
 443 0006 0091     		str	r1, [sp]
 444 0008 8DF80730 		strb	r3, [sp, #7]
 445              		.loc 2 191 0
 446 000c FFF7FEFF 		bl	chDbgCheckClassS
 447              		.loc 2 193 0
 448 0010 009B     		ldr	r3, [sp]
 449 0012 B3F1FF3F 		cmp	r3, #-1
 450 0016 1BD0     		beq	.L21
 451              	.LBB6:
 452              		.loc 2 196 0
 453 0018 40F20003 		movw	r3, #:lower16:rlist
 454 001c C0F20003 		movt	r3, #:upper16:rlist
 455 0020 9B69     		ldr	r3, [r3, #24]
 456 0022 03AA     		add	r2, sp, #12
 457 0024 1046     		mov	r0, r2
 458 0026 0099     		ldr	r1, [sp]
 459 0028 40F20002 		movw	r2, #:lower16:wakeup
 460 002c C0F20002 		movt	r2, #:upper16:wakeup
 461 0030 FFF7FEFF 		bl	chVTSetI
 462              		.loc 2 197 0
 463 0034 9DF80730 		ldrb	r3, [sp, #7]	@ zero_extendqisi2
 464 0038 1846     		mov	r0, r3
 465 003a FFF7FEFF 		bl	chSchGoSleepS
 466              		.loc 2 198 0
 467 003e 069B     		ldr	r3, [sp, #24]
 468 0040 002B     		cmp	r3, #0
 469 0042 04D0     		beq	.L22
 470              		.loc 2 199 0
 471 0044 03AB     		add	r3, sp, #12
 472 0046 1846     		mov	r0, r3
 473 0048 FFF7FEFF 		bl	chVTResetI
 474              	.LBE6:
 475 004c 05E0     		b	.L23
 476              	.L22:
 477 004e 04E0     		b	.L23
 478              	.L21:
 479              		.loc 2 202 0
 480 0050 9DF80730 		ldrb	r3, [sp, #7]	@ zero_extendqisi2
 481 0054 1846     		mov	r0, r3
 482 0056 FFF7FEFF 		bl	chSchGoSleepS
 483              	.L23:
 484              		.loc 2 203 0
 485 005a 40F20003 		movw	r3, #:lower16:rlist
 486 005e C0F20003 		movt	r3, #:upper16:rlist
 487 0062 9B69     		ldr	r3, [r3, #24]
 488 0064 9B6A     		ldr	r3, [r3, #40]
 489              		.loc 2 204 0
 490 0066 1846     		mov	r0, r3
 491 0068 09B0     		add	sp, sp, #36
 492              		@ sp needed
 493 006a 5DF804FB 		ldr	pc, [sp], #4
 494              		.cfi_endproc
ARM GAS  /tmp/ccbhHlsY.s 			page 10


 495              	.LFE11:
 496              		.size	chSchGoSleepTimeoutS, .-chSchGoSleepTimeoutS
 497 006e 00BF     		.section	.text.chSchWakeupS,"ax",%progbits
 498              		.align	2
 499              		.p2align 4,,15
 500              		.global	chSchWakeupS
 501              		.thumb
 502              		.thumb_func
 503              		.type	chSchWakeupS, %function
 504              	chSchWakeupS:
 505              	.LFB12:
 506              		.loc 2 225 0
 507              		.cfi_startproc
 508              		@ args = 0, pretend = 0, frame = 16
 509              		@ frame_needed = 0, uses_anonymous_args = 0
 510 0000 00B5     		push	{lr}
 511              		.cfi_def_cfa_offset 4
 512              		.cfi_offset 14, -4
 513 0002 85B0     		sub	sp, sp, #20
 514              		.cfi_def_cfa_offset 24
 515 0004 0190     		str	r0, [sp, #4]
 516 0006 0091     		str	r1, [sp]
 517              		.loc 2 227 0
 518 0008 FFF7FEFF 		bl	chDbgCheckClassS
 519              		.loc 2 229 0
 520 000c 019B     		ldr	r3, [sp, #4]
 521 000e 009A     		ldr	r2, [sp]
 522 0010 9A62     		str	r2, [r3, #40]
 523              		.loc 2 234 0
 524 0012 019B     		ldr	r3, [sp, #4]
 525 0014 9A68     		ldr	r2, [r3, #8]
 526 0016 40F20003 		movw	r3, #:lower16:rlist
 527 001a C0F20003 		movt	r3, #:upper16:rlist
 528 001e 9B69     		ldr	r3, [r3, #24]
 529 0020 9B68     		ldr	r3, [r3, #8]
 530 0022 9A42     		cmp	r2, r3
 531 0024 03D8     		bhi	.L26
 532              		.loc 2 235 0
 533 0026 0198     		ldr	r0, [sp, #4]
 534 0028 FFF7FEFF 		bl	chSchReadyI
 535 002c 26E0     		b	.L25
 536              	.L26:
 537              	.LBB7:
 538              		.loc 2 237 0
 539 002e 40F20003 		movw	r3, #:lower16:rlist
 540 0032 C0F20003 		movt	r3, #:upper16:rlist
 541 0036 9B69     		ldr	r3, [r3, #24]
 542 0038 1846     		mov	r0, r3
 543 003a FFF7FEFF 		bl	chSchReadyI
 544 003e 0390     		str	r0, [sp, #12]
 545              		.loc 2 238 0
 546 0040 40F20003 		movw	r3, #:lower16:rlist
 547 0044 C0F20003 		movt	r3, #:upper16:rlist
 548 0048 019A     		ldr	r2, [sp, #4]
 549 004a 9A61     		str	r2, [r3, #24]
 550              		.loc 2 239 0
 551 004c 019B     		ldr	r3, [sp, #4]
ARM GAS  /tmp/ccbhHlsY.s 			page 11


 552 004e 0122     		movs	r2, #1
 553 0050 83F82020 		strb	r2, [r3, #32]
 554              		.loc 2 240 0
 555 0054 0398     		ldr	r0, [sp, #12]
 556 0056 FFF7FEFF 		bl	dbg_trace
 557              	.LBB8:
 558 005a 6B46     		mov	r3, sp
 559 005c A3F12402 		sub	r2, r3, #36
 560 0060 039B     		ldr	r3, [sp, #12]
 561 0062 DB69     		ldr	r3, [r3, #28]
 562 0064 9A42     		cmp	r2, r3
 563 0066 05D2     		bcs	.L28
 564              		.loc 2 240 0 is_stmt 0 discriminator 1
 565 0068 40F20000 		movw	r0, #:lower16:.LC1
 566 006c C0F20000 		movt	r0, #:upper16:.LC1
 567 0070 FFF7FEFF 		bl	chDbgPanic
 568              	.L28:
 569              		.loc 2 240 0 discriminator 2
 570 0074 0198     		ldr	r0, [sp, #4]
 571 0076 0399     		ldr	r1, [sp, #12]
 572 0078 FFF7FEFF 		bl	_port_switch
 573              	.L25:
 574              	.LBE8:
 575              	.LBE7:
 576              		.loc 2 242 0 is_stmt 1
 577 007c 05B0     		add	sp, sp, #20
 578              		@ sp needed
 579 007e 5DF804FB 		ldr	pc, [sp], #4
 580              		.cfi_endproc
 581              	.LFE12:
 582              		.size	chSchWakeupS, .-chSchWakeupS
 583 0082 00BFAFF3 		.section	.text.chSchRescheduleS,"ax",%progbits
 583      0080AFF3 
 583      0080AFF3 
 583      0080
 584              		.align	2
 585              		.p2align 4,,15
 586              		.global	chSchRescheduleS
 587              		.thumb
 588              		.thumb_func
 589              		.type	chSchRescheduleS, %function
 590              	chSchRescheduleS:
 591              	.LFB13:
 592              		.loc 2 253 0
 593              		.cfi_startproc
 594              		@ args = 0, pretend = 0, frame = 0
 595              		@ frame_needed = 0, uses_anonymous_args = 0
 596 0000 08B5     		push	{r3, lr}
 597              		.cfi_def_cfa_offset 8
 598              		.cfi_offset 3, -8
 599              		.cfi_offset 14, -4
 600              		.loc 2 255 0
 601 0002 FFF7FEFF 		bl	chDbgCheckClassS
 602              		.loc 2 257 0
 603 0006 40F20003 		movw	r3, #:lower16:rlist
 604 000a C0F20003 		movt	r3, #:upper16:rlist
 605 000e 1B68     		ldr	r3, [r3]
ARM GAS  /tmp/ccbhHlsY.s 			page 12


 606 0010 9A68     		ldr	r2, [r3, #8]
 607 0012 40F20003 		movw	r3, #:lower16:rlist
 608 0016 C0F20003 		movt	r3, #:upper16:rlist
 609 001a 9B69     		ldr	r3, [r3, #24]
 610 001c 9B68     		ldr	r3, [r3, #8]
 611 001e 9A42     		cmp	r2, r3
 612 0020 01D9     		bls	.L29
 613              		.loc 2 258 0
 614 0022 FFF7FEFF 		bl	chSchDoRescheduleAhead
 615              	.L29:
 616              		.loc 2 259 0
 617 0026 08BD     		pop	{r3, pc}
 618              		.cfi_endproc
 619              	.LFE13:
 620              		.size	chSchRescheduleS, .-chSchRescheduleS
 621 0028 AFF30080 		.section	.text.chSchDoRescheduleBehind,"ax",%progbits
 621      AFF30080 
 622              		.align	2
 623              		.p2align 4,,15
 624              		.global	chSchDoRescheduleBehind
 625              		.thumb
 626              		.thumb_func
 627              		.type	chSchDoRescheduleBehind, %function
 628              	chSchDoRescheduleBehind:
 629              	.LFB14:
 630              		.loc 2 304 0
 631              		.cfi_startproc
 632              		@ args = 0, pretend = 0, frame = 8
 633              		@ frame_needed = 0, uses_anonymous_args = 0
 634 0000 00B5     		push	{lr}
 635              		.cfi_def_cfa_offset 4
 636              		.cfi_offset 14, -4
 637 0002 83B0     		sub	sp, sp, #12
 638              		.cfi_def_cfa_offset 16
 639              		.loc 2 307 0
 640 0004 40F20003 		movw	r3, #:lower16:rlist
 641 0008 C0F20003 		movt	r3, #:upper16:rlist
 642 000c 9B69     		ldr	r3, [r3, #24]
 643 000e 0193     		str	r3, [sp, #4]
 644              		.loc 2 309 0
 645 0010 40F20000 		movw	r0, #:lower16:rlist
 646 0014 C0F20000 		movt	r0, #:upper16:rlist
 647 0018 FFF7FEFF 		bl	fifo_remove
 648 001c 0246     		mov	r2, r0
 649 001e 40F20003 		movw	r3, #:lower16:rlist
 650 0022 C0F20003 		movt	r3, #:upper16:rlist
 651 0026 9A61     		str	r2, [r3, #24]
 652              		.loc 2 310 0
 653 0028 40F20003 		movw	r3, #:lower16:rlist
 654 002c C0F20003 		movt	r3, #:upper16:rlist
 655 0030 9B69     		ldr	r3, [r3, #24]
 656 0032 0122     		movs	r2, #1
 657 0034 83F82020 		strb	r2, [r3, #32]
 658              		.loc 2 312 0
 659 0038 019B     		ldr	r3, [sp, #4]
 660 003a 1422     		movs	r2, #20
 661 003c 83F82320 		strb	r2, [r3, #35]
ARM GAS  /tmp/ccbhHlsY.s 			page 13


 662              		.loc 2 314 0
 663 0040 0198     		ldr	r0, [sp, #4]
 664 0042 FFF7FEFF 		bl	chSchReadyI
 665              		.loc 2 315 0
 666 0046 0198     		ldr	r0, [sp, #4]
 667 0048 FFF7FEFF 		bl	dbg_trace
 668              	.LBB9:
 669 004c 6B46     		mov	r3, sp
 670 004e A3F12402 		sub	r2, r3, #36
 671 0052 019B     		ldr	r3, [sp, #4]
 672 0054 DB69     		ldr	r3, [r3, #28]
 673 0056 9A42     		cmp	r2, r3
 674 0058 05D2     		bcs	.L32
 675              		.loc 2 315 0 is_stmt 0 discriminator 1
 676 005a 40F20000 		movw	r0, #:lower16:.LC1
 677 005e C0F20000 		movt	r0, #:upper16:.LC1
 678 0062 FFF7FEFF 		bl	chDbgPanic
 679              	.L32:
 680              		.loc 2 315 0 discriminator 2
 681 0066 40F20003 		movw	r3, #:lower16:rlist
 682 006a C0F20003 		movt	r3, #:upper16:rlist
 683 006e 9B69     		ldr	r3, [r3, #24]
 684 0070 1846     		mov	r0, r3
 685 0072 0199     		ldr	r1, [sp, #4]
 686 0074 FFF7FEFF 		bl	_port_switch
 687              	.LBE9:
 688              		.loc 2 316 0 is_stmt 1 discriminator 2
 689 0078 03B0     		add	sp, sp, #12
 690              		@ sp needed
 691 007a 5DF804FB 		ldr	pc, [sp], #4
 692              		.cfi_endproc
 693              	.LFE14:
 694              		.size	chSchDoRescheduleBehind, .-chSchDoRescheduleBehind
 695 007e 00BF     		.section	.text.chSchDoRescheduleAhead,"ax",%progbits
 696              		.align	2
 697              		.p2align 4,,15
 698              		.global	chSchDoRescheduleAhead
 699              		.thumb
 700              		.thumb_func
 701              		.type	chSchDoRescheduleAhead, %function
 702              	chSchDoRescheduleAhead:
 703              	.LFB15:
 704              		.loc 2 329 0
 705              		.cfi_startproc
 706              		@ args = 0, pretend = 0, frame = 8
 707              		@ frame_needed = 0, uses_anonymous_args = 0
 708 0000 00B5     		push	{lr}
 709              		.cfi_def_cfa_offset 4
 710              		.cfi_offset 14, -4
 711 0002 83B0     		sub	sp, sp, #12
 712              		.cfi_def_cfa_offset 16
 713              		.loc 2 332 0
 714 0004 40F20003 		movw	r3, #:lower16:rlist
 715 0008 C0F20003 		movt	r3, #:upper16:rlist
 716 000c 9B69     		ldr	r3, [r3, #24]
 717 000e 0093     		str	r3, [sp]
 718              		.loc 2 334 0
ARM GAS  /tmp/ccbhHlsY.s 			page 14


 719 0010 40F20000 		movw	r0, #:lower16:rlist
 720 0014 C0F20000 		movt	r0, #:upper16:rlist
 721 0018 FFF7FEFF 		bl	fifo_remove
 722 001c 0246     		mov	r2, r0
 723 001e 40F20003 		movw	r3, #:lower16:rlist
 724 0022 C0F20003 		movt	r3, #:upper16:rlist
 725 0026 9A61     		str	r2, [r3, #24]
 726              		.loc 2 335 0
 727 0028 40F20003 		movw	r3, #:lower16:rlist
 728 002c C0F20003 		movt	r3, #:upper16:rlist
 729 0030 9B69     		ldr	r3, [r3, #24]
 730 0032 0122     		movs	r2, #1
 731 0034 83F82020 		strb	r2, [r3, #32]
 732              		.loc 2 337 0
 733 0038 009B     		ldr	r3, [sp]
 734 003a 0022     		movs	r2, #0
 735 003c 83F82020 		strb	r2, [r3, #32]
 736              		.loc 2 338 0
 737 0040 40F20003 		movw	r3, #:lower16:rlist
 738 0044 C0F20003 		movt	r3, #:upper16:rlist
 739 0048 0193     		str	r3, [sp, #4]
 740              	.L34:
 741              		.loc 2 340 0 discriminator 1
 742 004a 019B     		ldr	r3, [sp, #4]
 743 004c 1B68     		ldr	r3, [r3]
 744 004e 0193     		str	r3, [sp, #4]
 745              		.loc 2 341 0 discriminator 1
 746 0050 019B     		ldr	r3, [sp, #4]
 747 0052 9A68     		ldr	r2, [r3, #8]
 748 0054 009B     		ldr	r3, [sp]
 749 0056 9B68     		ldr	r3, [r3, #8]
 750 0058 9A42     		cmp	r2, r3
 751 005a F6D8     		bhi	.L34
 752              		.loc 2 343 0
 753 005c 009B     		ldr	r3, [sp]
 754 005e 019A     		ldr	r2, [sp, #4]
 755 0060 1A60     		str	r2, [r3]
 756              		.loc 2 344 0
 757 0062 019B     		ldr	r3, [sp, #4]
 758 0064 5A68     		ldr	r2, [r3, #4]
 759 0066 009B     		ldr	r3, [sp]
 760 0068 5A60     		str	r2, [r3, #4]
 761              		.loc 2 345 0
 762 006a 009B     		ldr	r3, [sp]
 763 006c 5B68     		ldr	r3, [r3, #4]
 764 006e 019A     		ldr	r2, [sp, #4]
 765 0070 0099     		ldr	r1, [sp]
 766 0072 5160     		str	r1, [r2, #4]
 767 0074 019A     		ldr	r2, [sp, #4]
 768 0076 5268     		ldr	r2, [r2, #4]
 769 0078 1A60     		str	r2, [r3]
 770              		.loc 2 347 0
 771 007a 0098     		ldr	r0, [sp]
 772 007c FFF7FEFF 		bl	dbg_trace
 773              	.LBB10:
 774 0080 6B46     		mov	r3, sp
 775 0082 A3F12402 		sub	r2, r3, #36
ARM GAS  /tmp/ccbhHlsY.s 			page 15


 776 0086 009B     		ldr	r3, [sp]
 777 0088 DB69     		ldr	r3, [r3, #28]
 778 008a 9A42     		cmp	r2, r3
 779 008c 05D2     		bcs	.L35
 780              		.loc 2 347 0 is_stmt 0 discriminator 1
 781 008e 40F20000 		movw	r0, #:lower16:.LC1
 782 0092 C0F20000 		movt	r0, #:upper16:.LC1
 783 0096 FFF7FEFF 		bl	chDbgPanic
 784              	.L35:
 785              		.loc 2 347 0 discriminator 2
 786 009a 40F20003 		movw	r3, #:lower16:rlist
 787 009e C0F20003 		movt	r3, #:upper16:rlist
 788 00a2 9B69     		ldr	r3, [r3, #24]
 789 00a4 1846     		mov	r0, r3
 790 00a6 0099     		ldr	r1, [sp]
 791 00a8 FFF7FEFF 		bl	_port_switch
 792              	.LBE10:
 793              		.loc 2 348 0 is_stmt 1 discriminator 2
 794 00ac 03B0     		add	sp, sp, #12
 795              		@ sp needed
 796 00ae 5DF804FB 		ldr	pc, [sp], #4
 797              		.cfi_endproc
 798              	.LFE15:
 799              		.size	chSchDoRescheduleAhead, .-chSchDoRescheduleAhead
 800 00b2 00BFAFF3 		.section	.text.chSchDoReschedule,"ax",%progbits
 800      0080AFF3 
 800      0080AFF3 
 800      0080
 801              		.align	2
 802              		.p2align 4,,15
 803              		.global	chSchDoReschedule
 804              		.thumb
 805              		.thumb_func
 806              		.type	chSchDoReschedule, %function
 807              	chSchDoReschedule:
 808              	.LFB16:
 809              		.loc 2 362 0
 810              		.cfi_startproc
 811              		@ args = 0, pretend = 0, frame = 0
 812              		@ frame_needed = 0, uses_anonymous_args = 0
 813 0000 08B5     		push	{r3, lr}
 814              		.cfi_def_cfa_offset 8
 815              		.cfi_offset 3, -8
 816              		.cfi_offset 14, -4
 817              		.loc 2 367 0
 818 0002 40F20003 		movw	r3, #:lower16:rlist
 819 0006 C0F20003 		movt	r3, #:upper16:rlist
 820 000a 9B69     		ldr	r3, [r3, #24]
 821 000c 93F82330 		ldrb	r3, [r3, #35]	@ zero_extendqisi2
 822 0010 002B     		cmp	r3, #0
 823 0012 02D1     		bne	.L37
 824              		.loc 2 370 0
 825 0014 FFF7FEFF 		bl	chSchDoRescheduleBehind
 826 0018 01E0     		b	.L36
 827              	.L37:
 828              		.loc 2 375 0
 829 001a FFF7FEFF 		bl	chSchDoRescheduleAhead
ARM GAS  /tmp/ccbhHlsY.s 			page 16


 830              	.L36:
 831              		.loc 2 382 0
 832 001e 08BD     		pop	{r3, pc}
 833              		.cfi_endproc
 834              	.LFE16:
 835              		.size	chSchDoReschedule, .-chSchDoReschedule
 836              		.text
 837              	.Letext0:
 838              		.file 3 "/usr/arm-none-eabi/include/machine/_default_types.h"
 839              		.file 4 "/usr/arm-none-eabi/include/stdint.h"
 840              		.file 5 "../../../os/ports/GCC/ARMCMx/chtypes.h"
 841              		.file 6 "../../../os/kernel/include/chlists.h"
 842              		.file 7 "../../../os/kernel/include/chthreads.h"
 843              		.file 8 "../../../os/ports/GCC/ARMCMx/chcore_v7m.h"
 844              		.file 9 "../../../os/kernel/include/chvt.h"
 845              		.file 10 "../../../os/kernel/include/chschd.h"
 846              		.file 11 "../../../os/kernel/include/chsem.h"
 847              		.file 12 "../../../os/kernel/include/chmtx.h"