ARM GAS  /tmp/ccK3byhT.s 			page 1


   1              		.syntax unified
   2              		.cpu cortex-m4
   3              		.fpu softvfp
   4              		.eabi_attribute 20, 1
   5              		.eabi_attribute 21, 1
   6              		.eabi_attribute 23, 3
   7              		.eabi_attribute 24, 1
   8              		.eabi_attribute 25, 1
   9              		.eabi_attribute 26, 1
  10              		.eabi_attribute 30, 6
  11              		.eabi_attribute 34, 1
  12              		.eabi_attribute 18, 4
  13              		.thumb
  14              		.file	"chvt.c"
  15              		.text
  16              	.Ltext0:
  17              		.cfi_sections	.debug_frame
  18              		.global	vtlist
  19              		.section	.bss.vtlist,"aw",%nobits
  20              		.align	2
  21              		.type	vtlist, %object
  22              		.size	vtlist, 16
  23              	vtlist:
  24 0000 00000000 		.space	16
  24      00000000 
  24      00000000 
  24      00000000 
  25              		.section	.text._vt_init,"ax",%progbits
  26              		.align	2
  27              		.p2align 4,,15
  28              		.global	_vt_init
  29              		.thumb
  30              		.thumb_func
  31              		.type	_vt_init, %function
  32              	_vt_init:
  33              	.LFB7:
  34              		.file 1 "../../../os/kernel/src/chvt.c"
  35              		.loc 1 50 0
  36              		.cfi_startproc
  37              		@ args = 0, pretend = 0, frame = 0
  38              		@ frame_needed = 0, uses_anonymous_args = 0
  39              		@ link register save eliminated.
  40              		.loc 1 52 0
  41 0000 40F20003 		movw	r3, #:lower16:vtlist
  42 0004 C0F20003 		movt	r3, #:upper16:vtlist
  43 0008 40F20002 		movw	r2, #:lower16:vtlist
  44 000c C0F20002 		movt	r2, #:upper16:vtlist
  45 0010 5A60     		str	r2, [r3, #4]
  46 0012 40F20003 		movw	r3, #:lower16:vtlist
  47 0016 C0F20003 		movt	r3, #:upper16:vtlist
  48 001a 5A68     		ldr	r2, [r3, #4]
  49 001c 40F20003 		movw	r3, #:lower16:vtlist
  50 0020 C0F20003 		movt	r3, #:upper16:vtlist
  51 0024 1A60     		str	r2, [r3]
  52              		.loc 1 53 0
  53 0026 40F20003 		movw	r3, #:lower16:vtlist
  54 002a C0F20003 		movt	r3, #:upper16:vtlist
ARM GAS  /tmp/ccK3byhT.s 			page 2


  55 002e 4FF0FF32 		mov	r2, #-1
  56 0032 9A60     		str	r2, [r3, #8]
  57              		.loc 1 54 0
  58 0034 40F20003 		movw	r3, #:lower16:vtlist
  59 0038 C0F20003 		movt	r3, #:upper16:vtlist
  60 003c 0022     		movs	r2, #0
  61 003e DA60     		str	r2, [r3, #12]
  62              		.loc 1 55 0
  63 0040 7047     		bx	lr
  64              		.cfi_endproc
  65              	.LFE7:
  66              		.size	_vt_init, .-_vt_init
  67 0042 00BFAFF3 		.section	.rodata
  67      0080AFF3 
  67      0080AFF3 
  67      0080
  68              		.align	2
  69              	.LC0:
  70 0000 22636856 		.ascii	"\"chVTSetI\"()\000"
  70      54536574 
  70      49222829 
  70      00
  71              		.section	.text.chVTSetI,"ax",%progbits
  72              		.align	2
  73              		.p2align 4,,15
  74              		.global	chVTSetI
  75              		.thumb
  76              		.thumb_func
  77              		.type	chVTSetI, %function
  78              	chVTSetI:
  79              	.LFB8:
  80              		.loc 1 76 0
  81              		.cfi_startproc
  82              		@ args = 0, pretend = 0, frame = 24
  83              		@ frame_needed = 0, uses_anonymous_args = 0
  84 0000 00B5     		push	{lr}
  85              		.cfi_def_cfa_offset 4
  86              		.cfi_offset 14, -4
  87 0002 87B0     		sub	sp, sp, #28
  88              		.cfi_def_cfa_offset 32
  89 0004 0390     		str	r0, [sp, #12]
  90 0006 0291     		str	r1, [sp, #8]
  91 0008 0192     		str	r2, [sp, #4]
  92 000a 0093     		str	r3, [sp]
  93              		.loc 1 79 0
  94 000c FFF7FEFF 		bl	chDbgCheckClassI
  95              		.loc 1 80 0
  96 0010 039B     		ldr	r3, [sp, #12]
  97 0012 002B     		cmp	r3, #0
  98 0014 05D0     		beq	.L3
  99              		.loc 1 80 0 is_stmt 0 discriminator 2
 100 0016 019B     		ldr	r3, [sp, #4]
 101 0018 002B     		cmp	r3, #0
 102 001a 02D0     		beq	.L3
 103              		.loc 1 80 0 discriminator 1
 104 001c 029B     		ldr	r3, [sp, #8]
 105 001e 002B     		cmp	r3, #0
ARM GAS  /tmp/ccK3byhT.s 			page 3


 106 0020 05D1     		bne	.L4
 107              	.L3:
 108 0022 40F20000 		movw	r0, #:lower16:.LC0
 109 0026 C0F20000 		movt	r0, #:upper16:.LC0
 110 002a FFF7FEFF 		bl	chDbgPanic
 111              	.L4:
 112              		.loc 1 83 0 is_stmt 1
 113 002e 039B     		ldr	r3, [sp, #12]
 114 0030 009A     		ldr	r2, [sp]
 115 0032 1A61     		str	r2, [r3, #16]
 116              		.loc 1 84 0
 117 0034 039B     		ldr	r3, [sp, #12]
 118 0036 019A     		ldr	r2, [sp, #4]
 119 0038 DA60     		str	r2, [r3, #12]
 120              		.loc 1 85 0
 121 003a 40F20003 		movw	r3, #:lower16:vtlist
 122 003e C0F20003 		movt	r3, #:upper16:vtlist
 123 0042 1B68     		ldr	r3, [r3]
 124 0044 0593     		str	r3, [sp, #20]
 125              		.loc 1 86 0
 126 0046 07E0     		b	.L5
 127              	.L6:
 128              		.loc 1 87 0
 129 0048 059B     		ldr	r3, [sp, #20]
 130 004a 9B68     		ldr	r3, [r3, #8]
 131 004c 029A     		ldr	r2, [sp, #8]
 132 004e D31A     		subs	r3, r2, r3
 133 0050 0293     		str	r3, [sp, #8]
 134              		.loc 1 88 0
 135 0052 059B     		ldr	r3, [sp, #20]
 136 0054 1B68     		ldr	r3, [r3]
 137 0056 0593     		str	r3, [sp, #20]
 138              	.L5:
 139              		.loc 1 86 0 discriminator 1
 140 0058 059B     		ldr	r3, [sp, #20]
 141 005a 9A68     		ldr	r2, [r3, #8]
 142 005c 029B     		ldr	r3, [sp, #8]
 143 005e 9A42     		cmp	r2, r3
 144 0060 F2D3     		bcc	.L6
 145              		.loc 1 91 0
 146 0062 039B     		ldr	r3, [sp, #12]
 147 0064 059A     		ldr	r2, [sp, #20]
 148 0066 1A60     		str	r2, [r3]
 149 0068 039B     		ldr	r3, [sp, #12]
 150 006a 1B68     		ldr	r3, [r3]
 151 006c 5A68     		ldr	r2, [r3, #4]
 152 006e 039B     		ldr	r3, [sp, #12]
 153 0070 5A60     		str	r2, [r3, #4]
 154              		.loc 1 92 0
 155 0072 039B     		ldr	r3, [sp, #12]
 156 0074 5B68     		ldr	r3, [r3, #4]
 157 0076 059A     		ldr	r2, [sp, #20]
 158 0078 0399     		ldr	r1, [sp, #12]
 159 007a 5160     		str	r1, [r2, #4]
 160 007c 059A     		ldr	r2, [sp, #20]
 161 007e 5268     		ldr	r2, [r2, #4]
 162 0080 1A60     		str	r2, [r3]
ARM GAS  /tmp/ccK3byhT.s 			page 4


 163              		.loc 1 93 0
 164 0082 039B     		ldr	r3, [sp, #12]
 165 0084 029A     		ldr	r2, [sp, #8]
 166 0086 9A60     		str	r2, [r3, #8]
 167              		.loc 1 94 0
 168 0088 059A     		ldr	r2, [sp, #20]
 169 008a 40F20003 		movw	r3, #:lower16:vtlist
 170 008e C0F20003 		movt	r3, #:upper16:vtlist
 171 0092 9A42     		cmp	r2, r3
 172 0094 05D0     		beq	.L2
 173              		.loc 1 95 0
 174 0096 059B     		ldr	r3, [sp, #20]
 175 0098 9A68     		ldr	r2, [r3, #8]
 176 009a 029B     		ldr	r3, [sp, #8]
 177 009c D21A     		subs	r2, r2, r3
 178 009e 059B     		ldr	r3, [sp, #20]
 179 00a0 9A60     		str	r2, [r3, #8]
 180              	.L2:
 181              		.loc 1 96 0
 182 00a2 07B0     		add	sp, sp, #28
 183              		@ sp needed
 184 00a4 5DF804FB 		ldr	pc, [sp], #4
 185              		.cfi_endproc
 186              	.LFE8:
 187              		.size	chVTSetI, .-chVTSetI
 188 00a8 AFF30080 		.section	.rodata
 188      AFF30080 
 189 000d 000000   		.align	2
 190              	.LC1:
 191 0010 22636856 		.ascii	"\"chVTResetI\"()\000"
 191      54526573 
 191      65744922 
 191      282900
 192 001f 00       		.align	2
 193              	.LC2:
 194 0020 63685654 		.ascii	"chVTResetI(), #1\000"
 194      52657365 
 194      74492829 
 194      2C202331 
 194      00
 195 0031 000000   		.section	.text.chVTResetI,"ax",%progbits
 196              		.align	2
 197              		.p2align 4,,15
 198              		.global	chVTResetI
 199              		.thumb
 200              		.thumb_func
 201              		.type	chVTResetI, %function
 202              	chVTResetI:
 203              	.LFB9:
 204              		.loc 1 106 0
 205              		.cfi_startproc
 206              		@ args = 0, pretend = 0, frame = 8
 207              		@ frame_needed = 0, uses_anonymous_args = 0
 208 0000 00B5     		push	{lr}
 209              		.cfi_def_cfa_offset 4
 210              		.cfi_offset 14, -4
 211 0002 83B0     		sub	sp, sp, #12
ARM GAS  /tmp/ccK3byhT.s 			page 5


 212              		.cfi_def_cfa_offset 16
 213 0004 0190     		str	r0, [sp, #4]
 214              		.loc 1 108 0
 215 0006 FFF7FEFF 		bl	chDbgCheckClassI
 216              		.loc 1 109 0
 217 000a 019B     		ldr	r3, [sp, #4]
 218 000c 002B     		cmp	r3, #0
 219 000e 05D1     		bne	.L9
 220              		.loc 1 109 0 is_stmt 0 discriminator 1
 221 0010 40F20000 		movw	r0, #:lower16:.LC1
 222 0014 C0F20000 		movt	r0, #:upper16:.LC1
 223 0018 FFF7FEFF 		bl	chDbgPanic
 224              	.L9:
 225              		.loc 1 110 0 is_stmt 1
 226 001c 019B     		ldr	r3, [sp, #4]
 227 001e DB68     		ldr	r3, [r3, #12]
 228 0020 002B     		cmp	r3, #0
 229 0022 05D1     		bne	.L10
 230              		.loc 1 110 0 is_stmt 0 discriminator 1
 231 0024 40F20000 		movw	r0, #:lower16:.LC2
 232 0028 C0F20000 		movt	r0, #:upper16:.LC2
 233 002c FFF7FEFF 		bl	chDbgPanic
 234              	.L10:
 235              		.loc 1 114 0 is_stmt 1
 236 0030 019B     		ldr	r3, [sp, #4]
 237 0032 1A68     		ldr	r2, [r3]
 238 0034 40F20003 		movw	r3, #:lower16:vtlist
 239 0038 C0F20003 		movt	r3, #:upper16:vtlist
 240 003c 9A42     		cmp	r2, r3
 241 003e 08D0     		beq	.L11
 242              		.loc 1 115 0
 243 0040 019B     		ldr	r3, [sp, #4]
 244 0042 1B68     		ldr	r3, [r3]
 245 0044 019A     		ldr	r2, [sp, #4]
 246 0046 1268     		ldr	r2, [r2]
 247 0048 9168     		ldr	r1, [r2, #8]
 248 004a 019A     		ldr	r2, [sp, #4]
 249 004c 9268     		ldr	r2, [r2, #8]
 250 004e 0A44     		add	r2, r2, r1
 251 0050 9A60     		str	r2, [r3, #8]
 252              	.L11:
 253              		.loc 1 116 0
 254 0052 019B     		ldr	r3, [sp, #4]
 255 0054 5B68     		ldr	r3, [r3, #4]
 256 0056 019A     		ldr	r2, [sp, #4]
 257 0058 1268     		ldr	r2, [r2]
 258 005a 1A60     		str	r2, [r3]
 259              		.loc 1 117 0
 260 005c 019B     		ldr	r3, [sp, #4]
 261 005e 1B68     		ldr	r3, [r3]
 262 0060 019A     		ldr	r2, [sp, #4]
 263 0062 5268     		ldr	r2, [r2, #4]
 264 0064 5A60     		str	r2, [r3, #4]
 265              		.loc 1 118 0
 266 0066 019B     		ldr	r3, [sp, #4]
 267 0068 0022     		movs	r2, #0
 268 006a DA60     		str	r2, [r3, #12]
ARM GAS  /tmp/ccK3byhT.s 			page 6


 269              		.loc 1 119 0
 270 006c 03B0     		add	sp, sp, #12
 271              		@ sp needed
 272 006e 5DF804FB 		ldr	pc, [sp], #4
 273              		.cfi_endproc
 274              	.LFE9:
 275              		.size	chVTResetI, .-chVTResetI
 276 0072 00BFAFF3 		.text
 276      0080AFF3 
 276      0080AFF3 
 276      0080
 277              	.Letext0:
 278              		.file 2 "/usr/arm-none-eabi/include/machine/_default_types.h"
 279              		.file 3 "/usr/arm-none-eabi/include/stdint.h"
 280              		.file 4 "../../../os/ports/GCC/ARMCMx/chtypes.h"
 281              		.file 5 "../../../os/kernel/include/chvt.h"