ARM GAS  /tmp/ccTpDEeS.s 			page 1


   1              		.syntax unified
   2              		.cpu cortex-m4
   3              		.fpu softvfp
   4              		.eabi_attribute 20, 1
   5              		.eabi_attribute 21, 1
   6              		.eabi_attribute 23, 3
   7              		.eabi_attribute 24, 1
   8              		.eabi_attribute 25, 1
   9              		.eabi_attribute 26, 1
  10              		.eabi_attribute 30, 6
  11              		.eabi_attribute 34, 1
  12              		.eabi_attribute 18, 4
  13              		.thumb
  14              		.file	"hal.c"
  15              		.text
  16              	.Ltext0:
  17              		.cfi_sections	.debug_frame
  18              		.section	.text.halInit,"ax",%progbits
  19              		.align	2
  20              		.p2align 4,,15
  21              		.global	halInit
  22              		.thumb
  23              		.thumb_func
  24              		.type	halInit, %function
  25              	halInit:
  26              	.LFB118:
  27              		.file 1 "../../../os/hal/src/hal.c"
  28              		.loc 1 68 0
  29              		.cfi_startproc
  30              		@ args = 0, pretend = 0, frame = 0
  31              		@ frame_needed = 0, uses_anonymous_args = 0
  32 0000 08B5     		push	{r3, lr}
  33              		.cfi_def_cfa_offset 8
  34              		.cfi_offset 3, -8
  35              		.cfi_offset 14, -4
  36              		.loc 1 70 0
  37 0002 FFF7FEFF 		bl	hal_lld_init
  38              		.loc 1 76 0
  39 0006 40F20000 		movw	r0, #:lower16:pal_default_config
  40 000a C0F20000 		movt	r0, #:upper16:pal_default_config
  41 000e FFF7FEFF 		bl	_pal_lld_init
  42              		.loc 1 103 0
  43 0012 FFF7FEFF 		bl	sdInit
  44              		.loc 1 106 0
  45 0016 FFF7FEFF 		bl	sdcInit
  46              		.loc 1 127 0
  47 001a FFF7FEFF 		bl	boardInit
  48              		.loc 1 128 0
  49 001e 08BD     		pop	{r3, pc}
  50              		.cfi_endproc
  51              	.LFE118:
  52              		.size	halInit, .-halInit
  53              		.section	.text.halIsCounterWithin,"ax",%progbits
  54              		.align	2
  55              		.p2align 4,,15
  56              		.global	halIsCounterWithin
  57              		.thumb
ARM GAS  /tmp/ccTpDEeS.s 			page 2


  58              		.thumb_func
  59              		.type	halIsCounterWithin, %function
  60              	halIsCounterWithin:
  61              	.LFB119:
  62              		.loc 1 174 0
  63              		.cfi_startproc
  64              		@ args = 0, pretend = 0, frame = 16
  65              		@ frame_needed = 0, uses_anonymous_args = 0
  66              		@ link register save eliminated.
  67 0000 84B0     		sub	sp, sp, #16
  68              		.cfi_def_cfa_offset 16
  69 0002 0190     		str	r0, [sp, #4]
  70 0004 0091     		str	r1, [sp]
  71              		.loc 1 175 0
  72 0006 4FF48053 		mov	r3, #4096
  73 000a CEF20003 		movt	r3, 57344
  74 000e 5B68     		ldr	r3, [r3, #4]
  75 0010 0393     		str	r3, [sp, #12]
  76              		.loc 1 177 0
  77 0012 009A     		ldr	r2, [sp]
  78 0014 019B     		ldr	r3, [sp, #4]
  79 0016 9A42     		cmp	r2, r3
  80 0018 0ED9     		bls	.L3
  81              		.loc 1 177 0 is_stmt 0 discriminator 1
  82 001a 039A     		ldr	r2, [sp, #12]
  83 001c 019B     		ldr	r3, [sp, #4]
  84 001e 9A42     		cmp	r2, r3
  85 0020 05D3     		bcc	.L4
  86 0022 039A     		ldr	r2, [sp, #12]
  87 0024 009B     		ldr	r3, [sp]
  88 0026 9A42     		cmp	r2, r3
  89 0028 01D2     		bcs	.L4
  90              		.loc 1 177 0 discriminator 3
  91 002a 0123     		movs	r3, #1
  92 002c 00E0     		b	.L5
  93              	.L4:
  94              		.loc 1 177 0 discriminator 2
  95 002e 0023     		movs	r3, #0
  96              	.L5:
  97              		.loc 1 177 0 discriminator 4
  98 0030 03F00103 		and	r3, r3, #1
  99 0034 DBB2     		uxtb	r3, r3
 100 0036 0DE0     		b	.L6
 101              	.L3:
 102              		.loc 1 178 0 is_stmt 1
 103 0038 039A     		ldr	r2, [sp, #12]
 104 003a 019B     		ldr	r3, [sp, #4]
 105 003c 9A42     		cmp	r2, r3
 106 003e 03D2     		bcs	.L7
 107              		.loc 1 178 0 is_stmt 0 discriminator 2
 108 0040 039A     		ldr	r2, [sp, #12]
 109 0042 009B     		ldr	r3, [sp]
 110 0044 9A42     		cmp	r2, r3
 111 0046 01D2     		bcs	.L8
 112              	.L7:
 113              		.loc 1 178 0 discriminator 1
 114 0048 0123     		movs	r3, #1
ARM GAS  /tmp/ccTpDEeS.s 			page 3


 115 004a 00E0     		b	.L9
 116              	.L8:
 117              		.loc 1 178 0 discriminator 3
 118 004c 0023     		movs	r3, #0
 119              	.L9:
 120              		.loc 1 177 0 is_stmt 1
 121 004e 03F00103 		and	r3, r3, #1
 122 0052 DBB2     		uxtb	r3, r3
 123              	.L6:
 124              		.loc 1 179 0 discriminator 2
 125 0054 1846     		mov	r0, r3
 126 0056 04B0     		add	sp, sp, #16
 127              		@ sp needed
 128 0058 7047     		bx	lr
 129              		.cfi_endproc
 130              	.LFE119:
 131              		.size	halIsCounterWithin, .-halIsCounterWithin
 132 005a 00BFAFF3 		.section	.text.halPolledDelay,"ax",%progbits
 132      0080
 133              		.align	2
 134              		.p2align 4,,15
 135              		.global	halPolledDelay
 136              		.thumb
 137              		.thumb_func
 138              		.type	halPolledDelay, %function
 139              	halPolledDelay:
 140              	.LFB120:
 141              		.loc 1 193 0
 142              		.cfi_startproc
 143              		@ args = 0, pretend = 0, frame = 16
 144              		@ frame_needed = 0, uses_anonymous_args = 0
 145 0000 00B5     		push	{lr}
 146              		.cfi_def_cfa_offset 4
 147              		.cfi_offset 14, -4
 148 0002 85B0     		sub	sp, sp, #20
 149              		.cfi_def_cfa_offset 24
 150 0004 0190     		str	r0, [sp, #4]
 151              		.loc 1 194 0
 152 0006 4FF48053 		mov	r3, #4096
 153 000a CEF20003 		movt	r3, 57344
 154 000e 5B68     		ldr	r3, [r3, #4]
 155 0010 0393     		str	r3, [sp, #12]
 156              		.loc 1 195 0
 157 0012 039A     		ldr	r2, [sp, #12]
 158 0014 019B     		ldr	r3, [sp, #4]
 159 0016 1344     		add	r3, r3, r2
 160 0018 0293     		str	r3, [sp, #8]
 161              		.loc 1 196 0
 162 001a 00BF     		nop
 163              	.L12:
 164              		.loc 1 196 0 is_stmt 0 discriminator 1
 165 001c 0398     		ldr	r0, [sp, #12]
 166 001e 0299     		ldr	r1, [sp, #8]
 167 0020 FFF7FEFF 		bl	halIsCounterWithin
 168 0024 0346     		mov	r3, r0
 169 0026 002B     		cmp	r3, #0
 170 0028 F8D1     		bne	.L12
ARM GAS  /tmp/ccTpDEeS.s 			page 4


 171              		.loc 1 198 0 is_stmt 1
 172 002a 05B0     		add	sp, sp, #20
 173              		@ sp needed
 174 002c 5DF804FB 		ldr	pc, [sp], #4
 175              		.cfi_endproc
 176              	.LFE120:
 177              		.size	halPolledDelay, .-halPolledDelay
 178              		.text
 179              	.Letext0:
 180              		.file 2 "/usr/arm-none-eabi/include/machine/_default_types.h"
 181              		.file 3 "/usr/arm-none-eabi/include/stdint.h"
 182              		.file 4 "../../../os/ports/GCC/ARMCMx/chtypes.h"
 183              		.file 5 "../../../os/ports/common/ARMCMx/nvic.h"
 184              		.file 6 "../../../os/hal/platforms/STM32F4xx/hal_lld.h"
 185              		.file 7 "../../../os/hal/platforms/STM32/GPIOv2/pal_lld.h"
 186              		.file 8 "../../../os/ports/common/ARMCMx/CMSIS/include/core_cm4.h"