ARM GAS  /tmp/ccN64Vaw.s 			page 1


   1              		.syntax unified
   2              		.cpu cortex-m4
   3              		.fpu softvfp
   4              		.eabi_attribute 20, 1
   5              		.eabi_attribute 21, 1
   6              		.eabi_attribute 23, 3
   7              		.eabi_attribute 24, 1
   8              		.eabi_attribute 25, 1
   9              		.eabi_attribute 26, 1
  10              		.eabi_attribute 30, 6
  11              		.eabi_attribute 34, 1
  12              		.eabi_attribute 18, 4
  13              		.thumb
  14              		.file	"main.c"
  15              		.text
  16              	.Ltext0:
  17              		.cfi_sections	.debug_frame
  18              		.section	.text.chprintf,"ax",%progbits
  19              		.align	2
  20              		.p2align 4,,15
  21              		.thumb
  22              		.thumb_func
  23              		.type	chprintf, %function
  24              	chprintf:
  25              	.LFB118:
  26              		.file 1 "../../../os/various/chprintf.h"
  27              		.loc 1 69 0
  28              		.cfi_startproc
  29              		@ args = 4, pretend = 12, frame = 16
  30              		@ frame_needed = 0, uses_anonymous_args = 1
  31 0000 0EB4     		push	{r1, r2, r3}
  32              		.cfi_def_cfa_offset 12
  33              		.cfi_offset 1, -12
  34              		.cfi_offset 2, -8
  35              		.cfi_offset 3, -4
  36 0002 00B5     		push	{lr}
  37              		.cfi_def_cfa_offset 16
  38              		.cfi_offset 14, -16
  39 0004 84B0     		sub	sp, sp, #16
  40              		.cfi_def_cfa_offset 32
  41 0006 0190     		str	r0, [sp, #4]
  42              		.loc 1 72 0
  43 0008 06AB     		add	r3, sp, #24
  44 000a 0393     		str	r3, [sp, #12]
  45              		.loc 1 73 0
  46 000c 0198     		ldr	r0, [sp, #4]
  47 000e 0599     		ldr	r1, [sp, #20]
  48 0010 039A     		ldr	r2, [sp, #12]
  49 0012 FFF7FEFF 		bl	chvprintf
  50              		.loc 1 75 0
  51 0016 04B0     		add	sp, sp, #16
  52              		@ sp needed
  53 0018 5DF804EB 		ldr	lr, [sp], #4
  54 001c 03B0     		add	sp, sp, #12
  55 001e 7047     		bx	lr
  56              		.cfi_endproc
  57              	.LFE118:
ARM GAS  /tmp/ccN64Vaw.s 			page 2


  58              		.size	chprintf, .-chprintf
  59              		.section	.bss.outbuf,"aw",%nobits
  60              		.align	2
  61              		.type	outbuf, %object
  62              		.size	outbuf, 4097
  63              	outbuf:
  64 0000 00000000 		.space	4097
  64      00000000 
  64      00000000 
  64      00000000 
  64      00000000 
  65 1001 000000   		.section	.bss.inbuf,"aw",%nobits
  66              		.align	2
  67              		.type	inbuf, %object
  68              		.size	inbuf, 4097
  69              	inbuf:
  70 0000 00000000 		.space	4097
  70      00000000 
  70      00000000 
  70      00000000 
  70      00000000 
  71 1001 000000   		.section	.bss.SDC_FS,"aw",%nobits
  72              		.align	2
  73              		.type	SDC_FS, %object
  74              		.size	SDC_FS, 560
  75              	SDC_FS:
  76 0000 00000000 		.space	560
  76      00000000 
  76      00000000 
  76      00000000 
  76      00000000 
  77              		.section	.bss.fs_ready,"aw",%nobits
  78              		.type	fs_ready, %object
  79              		.size	fs_ready, 1
  80              	fs_ready:
  81 0000 00       		.space	1
  82              		.section	.rodata
  83              		.align	2
  84              	.LC0:
  85 0000 22626164 		.ascii	"\"badblocks\"()\000"
  85      626C6F63 
  85      6B732228 
  85      2900
  86              		.section	.text.badblocks,"ax",%progbits
  87              		.align	2
  88              		.p2align 4,,15
  89              		.global	badblocks
  90              		.thumb
  91              		.thumb_func
  92              		.type	badblocks, %function
  93              	badblocks:
  94              	.LFB119:
  95              		.file 2 "main.c"
  96              		.loc 2 51 0
  97              		.cfi_startproc
  98              		@ args = 0, pretend = 0, frame = 24
  99              		@ frame_needed = 0, uses_anonymous_args = 0
ARM GAS  /tmp/ccN64Vaw.s 			page 3


 100 0000 00B5     		push	{lr}
 101              		.cfi_def_cfa_offset 4
 102              		.cfi_offset 14, -4
 103 0002 87B0     		sub	sp, sp, #28
 104              		.cfi_def_cfa_offset 32
 105 0004 0390     		str	r0, [sp, #12]
 106 0006 0291     		str	r1, [sp, #8]
 107 0008 0192     		str	r2, [sp, #4]
 108 000a 8DF80330 		strb	r3, [sp, #3]
 109              		.loc 2 52 0
 110 000e 0023     		movs	r3, #0
 111 0010 0593     		str	r3, [sp, #20]
 112              		.loc 2 53 0
 113 0012 0023     		movs	r3, #0
 114 0014 0493     		str	r3, [sp, #16]
 115              		.loc 2 55 0
 116 0016 019B     		ldr	r3, [sp, #4]
 117 0018 082B     		cmp	r3, #8
 118 001a 05D9     		bls	.L3
 119              		.loc 2 55 0 is_stmt 0 discriminator 1
 120 001c 40F20000 		movw	r0, #:lower16:.LC0
 121 0020 C0F20000 		movt	r0, #:upper16:.LC0
 122 0024 FFF7FEFF 		bl	chDbgPanic
 123              	.L3:
 124              		.loc 2 58 0 is_stmt 1
 125 0028 0023     		movs	r3, #0
 126 002a 0493     		str	r3, [sp, #16]
 127 002c 0BE0     		b	.L4
 128              	.L5:
 129              		.loc 2 59 0 discriminator 2
 130 002e 40F20003 		movw	r3, #:lower16:outbuf
 131 0032 C0F20003 		movt	r3, #:upper16:outbuf
 132 0036 049A     		ldr	r2, [sp, #16]
 133 0038 1344     		add	r3, r3, r2
 134 003a 9DF80320 		ldrb	r2, [sp, #3]
 135 003e 1A70     		strb	r2, [r3]
 136              		.loc 2 58 0 discriminator 2
 137 0040 049B     		ldr	r3, [sp, #16]
 138 0042 0133     		adds	r3, r3, #1
 139 0044 0493     		str	r3, [sp, #16]
 140              	.L4:
 141              		.loc 2 58 0 is_stmt 0 discriminator 1
 142 0046 019B     		ldr	r3, [sp, #4]
 143 0048 5A02     		lsls	r2, r3, #9
 144 004a 049B     		ldr	r3, [sp, #16]
 145 004c 9A42     		cmp	r2, r3
 146 004e EED8     		bhi	.L5
 147              		.loc 2 62 0 is_stmt 1
 148 0050 039B     		ldr	r3, [sp, #12]
 149 0052 0593     		str	r3, [sp, #20]
 150              		.loc 2 63 0
 151 0054 13E0     		b	.L6
 152              	.L9:
 153              		.loc 2 64 0
 154 0056 40F20000 		movw	r0, #:lower16:SDCD1
 155 005a C0F20000 		movt	r0, #:upper16:SDCD1
 156 005e 0599     		ldr	r1, [sp, #20]
ARM GAS  /tmp/ccN64Vaw.s 			page 4


 157 0060 40F20002 		movw	r2, #:lower16:outbuf
 158 0064 C0F20002 		movt	r2, #:upper16:outbuf
 159 0068 019B     		ldr	r3, [sp, #4]
 160 006a FFF7FEFF 		bl	sdcWrite
 161 006e 0346     		mov	r3, r0
 162 0070 002B     		cmp	r3, #0
 163 0072 00D0     		beq	.L7
 164              		.loc 2 65 0
 165 0074 35E0     		b	.L8
 166              	.L7:
 167              		.loc 2 66 0
 168 0076 059A     		ldr	r2, [sp, #20]
 169 0078 019B     		ldr	r3, [sp, #4]
 170 007a 1344     		add	r3, r3, r2
 171 007c 0593     		str	r3, [sp, #20]
 172              	.L6:
 173              		.loc 2 63 0 discriminator 1
 174 007e 059A     		ldr	r2, [sp, #20]
 175 0080 029B     		ldr	r3, [sp, #8]
 176 0082 9A42     		cmp	r2, r3
 177 0084 E7D3     		bcc	.L9
 178              		.loc 2 70 0
 179 0086 039B     		ldr	r3, [sp, #12]
 180 0088 0593     		str	r3, [sp, #20]
 181              		.loc 2 71 0
 182 008a 24E0     		b	.L10
 183              	.L13:
 184              		.loc 2 72 0
 185 008c 40F20000 		movw	r0, #:lower16:SDCD1
 186 0090 C0F20000 		movt	r0, #:upper16:SDCD1
 187 0094 0599     		ldr	r1, [sp, #20]
 188 0096 40F20002 		movw	r2, #:lower16:inbuf
 189 009a C0F20002 		movt	r2, #:upper16:inbuf
 190 009e 019B     		ldr	r3, [sp, #4]
 191 00a0 FFF7FEFF 		bl	sdcRead
 192 00a4 0346     		mov	r3, r0
 193 00a6 002B     		cmp	r3, #0
 194 00a8 00D0     		beq	.L11
 195              		.loc 2 73 0
 196 00aa 1AE0     		b	.L8
 197              	.L11:
 198              		.loc 2 74 0
 199 00ac 019B     		ldr	r3, [sp, #4]
 200 00ae 5B02     		lsls	r3, r3, #9
 201 00b0 40F20000 		movw	r0, #:lower16:inbuf
 202 00b4 C0F20000 		movt	r0, #:upper16:inbuf
 203 00b8 40F20001 		movw	r1, #:lower16:outbuf
 204 00bc C0F20001 		movt	r1, #:upper16:outbuf
 205 00c0 1A46     		mov	r2, r3
 206 00c2 FFF7FEFF 		bl	memcmp
 207 00c6 0346     		mov	r3, r0
 208 00c8 002B     		cmp	r3, #0
 209 00ca 00D0     		beq	.L12
 210              		.loc 2 75 0
 211 00cc 09E0     		b	.L8
 212              	.L12:
 213              		.loc 2 76 0
ARM GAS  /tmp/ccN64Vaw.s 			page 5


 214 00ce 059A     		ldr	r2, [sp, #20]
 215 00d0 019B     		ldr	r3, [sp, #4]
 216 00d2 1344     		add	r3, r3, r2
 217 00d4 0593     		str	r3, [sp, #20]
 218              	.L10:
 219              		.loc 2 71 0 discriminator 1
 220 00d6 059A     		ldr	r2, [sp, #20]
 221 00d8 029B     		ldr	r3, [sp, #8]
 222 00da 9A42     		cmp	r2, r3
 223 00dc D6D3     		bcc	.L13
 224              		.loc 2 78 0
 225 00de 0023     		movs	r3, #0
 226 00e0 00E0     		b	.L14
 227              	.L8:
 228              		.loc 2 81 0
 229 00e2 0123     		movs	r3, #1
 230              	.L14:
 231              		.loc 2 82 0
 232 00e4 1846     		mov	r0, r3
 233 00e6 07B0     		add	sp, sp, #28
 234              		@ sp needed
 235 00e8 5DF804FB 		ldr	pc, [sp], #4
 236              		.cfi_endproc
 237              	.LFE119:
 238              		.size	badblocks, .-badblocks
 239 00ec AFF30080 		.section	.text.fillbuffer,"ax",%progbits
 240              		.align	2
 241              		.p2align 4,,15
 242              		.global	fillbuffer
 243              		.thumb
 244              		.thumb_func
 245              		.type	fillbuffer, %function
 246              	fillbuffer:
 247              	.LFB120:
 248              		.loc 2 87 0
 249              		.cfi_startproc
 250              		@ args = 0, pretend = 0, frame = 16
 251              		@ frame_needed = 0, uses_anonymous_args = 0
 252              		@ link register save eliminated.
 253 0000 84B0     		sub	sp, sp, #16
 254              		.cfi_def_cfa_offset 16
 255 0002 0346     		mov	r3, r0
 256 0004 0091     		str	r1, [sp]
 257 0006 8DF80730 		strb	r3, [sp, #7]
 258              		.loc 2 88 0
 259 000a 0023     		movs	r3, #0
 260 000c 0393     		str	r3, [sp, #12]
 261              		.loc 2 89 0
 262 000e 0023     		movs	r3, #0
 263 0010 0393     		str	r3, [sp, #12]
 264 0012 08E0     		b	.L16
 265              	.L17:
 266              		.loc 2 90 0 discriminator 2
 267 0014 009A     		ldr	r2, [sp]
 268 0016 039B     		ldr	r3, [sp, #12]
 269 0018 1344     		add	r3, r3, r2
 270 001a 9DF80720 		ldrb	r2, [sp, #7]
ARM GAS  /tmp/ccN64Vaw.s 			page 6


 271 001e 1A70     		strb	r2, [r3]
 272              		.loc 2 89 0 discriminator 2
 273 0020 039B     		ldr	r3, [sp, #12]
 274 0022 0133     		adds	r3, r3, #1
 275 0024 0393     		str	r3, [sp, #12]
 276              	.L16:
 277              		.loc 2 89 0 is_stmt 0 discriminator 1
 278 0026 039B     		ldr	r3, [sp, #12]
 279 0028 B3F5805F 		cmp	r3, #4096
 280 002c F2D3     		bcc	.L17
 281              		.loc 2 91 0 is_stmt 1
 282 002e 04B0     		add	sp, sp, #16
 283              		@ sp needed
 284 0030 7047     		bx	lr
 285              		.cfi_endproc
 286              	.LFE120:
 287              		.size	fillbuffer, .-fillbuffer
 288 0032 00BFAFF3 		.section	.text.fillbuffers,"ax",%progbits
 288      0080AFF3 
 288      0080AFF3 
 288      0080
 289              		.align	2
 290              		.p2align 4,,15
 291              		.global	fillbuffers
 292              		.thumb
 293              		.thumb_func
 294              		.type	fillbuffers, %function
 295              	fillbuffers:
 296              	.LFB121:
 297              		.loc 2 96 0
 298              		.cfi_startproc
 299              		@ args = 0, pretend = 0, frame = 8
 300              		@ frame_needed = 0, uses_anonymous_args = 0
 301 0000 00B5     		push	{lr}
 302              		.cfi_def_cfa_offset 4
 303              		.cfi_offset 14, -4
 304 0002 83B0     		sub	sp, sp, #12
 305              		.cfi_def_cfa_offset 16
 306 0004 0346     		mov	r3, r0
 307 0006 8DF80730 		strb	r3, [sp, #7]
 308              		.loc 2 97 0
 309 000a 9DF80730 		ldrb	r3, [sp, #7]	@ zero_extendqisi2
 310 000e 1846     		mov	r0, r3
 311 0010 40F20001 		movw	r1, #:lower16:inbuf
 312 0014 C0F20001 		movt	r1, #:upper16:inbuf
 313 0018 FFF7FEFF 		bl	fillbuffer
 314              		.loc 2 98 0
 315 001c 9DF80730 		ldrb	r3, [sp, #7]	@ zero_extendqisi2
 316 0020 1846     		mov	r0, r3
 317 0022 40F20001 		movw	r1, #:lower16:outbuf
 318 0026 C0F20001 		movt	r1, #:upper16:outbuf
 319 002a FFF7FEFF 		bl	fillbuffer
 320              		.loc 2 99 0
 321 002e 03B0     		add	sp, sp, #12
 322              		@ sp needed
 323 0030 5DF804FB 		ldr	pc, [sp], #4
 324              		.cfi_endproc
ARM GAS  /tmp/ccN64Vaw.s 			page 7


 325              	.LFE121:
 326              		.size	fillbuffers, .-fillbuffers
 327 0034 AFF30080 		.section	.rodata
 327      AFF30080 
 327      AFF30080 
 328 000e 0000     		.align	2
 329              	.LC1:
 330 0010 54727969 		.ascii	"Trying to connect SDIO... \000"
 330      6E672074 
 330      6F20636F 
 330      6E6E6563 
 330      74205344 
 331 002b 00       		.align	2
 332              	.LC2:
 333 002c 4F4B0D0A 		.ascii	"OK\015\012\000"
 333      00
 334 0031 000000   		.align	2
 335              	.LC3:
 336 0034 2A2A2A20 		.ascii	"*** Card CSD content is: \000"
 336      43617264 
 336      20435344 
 336      20636F6E 
 336      74656E74 
 337 004e 0000     		.align	2
 338              	.LC4:
 339 0050 25582025 		.ascii	"%X %X %X %X \015\012\000"
 339      58202558 
 339      20255820 
 339      0D0A00
 340 005f 00       		.align	2
 341              	.LC5:
 342 0060 53696E67 		.ascii	"Single aligned read...\000"
 342      6C652061 
 342      6C69676E 
 342      65642072 
 342      6561642E 
 343 0077 00       		.align	2
 344              	.LC6:
 345 0078 204F4B0D 		.ascii	" OK\015\012\000"
 345      0A00
 346 007e 0000     		.align	2
 347              	.LC7:
 348 0080 53696E67 		.ascii	"Single unaligned read...\000"
 348      6C652075 
 348      6E616C69 
 348      676E6564 
 348      20726561 
 349 0099 000000   		.align	2
 350              	.LC8:
 351 009c 4D756C74 		.ascii	"Multiple aligned reads...\000"
 351      69706C65 
 351      20616C69 
 351      676E6564 
 351      20726561 
 352 00b6 0000     		.align	2
 353              	.LC9:
 354 00b8 4D756C74 		.ascii	"Multiple unaligned reads...\000"
ARM GAS  /tmp/ccN64Vaw.s 			page 8


 354      69706C65 
 354      20756E61 
 354      6C69676E 
 354      65642072 
 355              		.align	2
 356              	.LC11:
 357 00d4 52656769 		.ascii	"Register working area for filesystem... \000"
 357      73746572 
 357      20776F72 
 357      6B696E67 
 357      20617265 
 358 00fd 000000   		.align	2
 359              	.LC12:
 360 0100 4D6F756E 		.ascii	"Mount filesystem... \000"
 360      74206669 
 360      6C657379 
 360      7374656D 
 360      2E2E2E20 
 361 0115 000000   		.align	2
 362              	.LC13:
 363 0118 2F00     		.ascii	"/\000"
 364 011a 0000     		.align	2
 365              	.LC14:
 366 011c 46533A20 		.ascii	"FS: %lu free clusters, %lu sectors per cluster, %lu"
 366      256C7520 
 366      66726565 
 366      20636C75 
 366      73746572 
 367 014f 20627974 		.ascii	" bytes free\015\012\000"
 367      65732066 
 367      7265650D 
 367      0A00
 368 015d 000000   		.align	2
 369              	.LC15:
 370 0160 43726561 		.ascii	"Create file \"chtest.txt\"... \000"
 370      74652066 
 370      696C6520 
 370      22636874 
 370      6573742E 
 371 017d 000000   		.align	2
 372              	.LC16:
 373 0180 303A6368 		.ascii	"0:chtest.txt\000"
 373      74657374 
 373      2E747874 
 373      00
 374 018d 000000   		.align	2
 375              	.LC17:
 376 0190 57726974 		.ascii	"Write some data in it... \000"
 376      6520736F 
 376      6D652064 
 376      61746120 
 376      696E2069 
 377 01aa 0000     		.align	2
 378              	.LC18:
 379 01ac 436C6F73 		.ascii	"Close file \"chtest.txt\"... \000"
 379      65206669 
 379      6C652022 
ARM GAS  /tmp/ccN64Vaw.s 			page 9


 379      63687465 
 379      73742E74 
 380              		.align	2
 381              	.LC19:
 382 01c8 43686563 		.ascii	"Check file size \"chtest.txt\"... \000"
 382      6B206669 
 382      6C652073 
 382      697A6520 
 382      22636874 
 383 01e9 000000   		.align	2
 384              	.LC20:
 385 01ec 43686563 		.ascii	"Check file content \"chtest.txt\"... \000"
 385      6B206669 
 385      6C652063 
 385      6F6E7465 
 385      6E742022 
 386              		.align	2
 387              	.LC21:
 388 0210 556D6F75 		.ascii	"Umount filesystem... \000"
 388      6E742066 
 388      696C6573 
 388      79737465 
 388      6D2E2E2E 
 389 0226 0000     		.align	2
 390              	.LC22:
 391 0228 44697363 		.ascii	"Disconnecting from SDIO...\000"
 391      6F6E6E65 
 391      6374696E 
 391      67206672 
 391      6F6D2053 
 392 0243 00       		.align	2
 393              	.LC23:
 394 0244 2D2D2D2D 		.ascii	"---------------------------------------------------"
 394      2D2D2D2D 
 394      2D2D2D2D 
 394      2D2D2D2D 
 394      2D2D2D2D 
 395 0277 2D2D2D0D 		.ascii	"---\015\012\000"
 395      0A00
 396 027d 000000   		.align	2
 397              	.LC24:
 398 0280 416C6C20 		.ascii	"All tests passed successfully.\015\012\000"
 398      74657374 
 398      73207061 
 398      73736564 
 398      20737563 
 399 02a1 000000   		.align	2
 400              	.LC10:
 401 02a4 54686973 		.ascii	"This is test file\015\012\000"
 401      20697320 
 401      74657374 
 401      2066696C 
 401      650D0A00 
 402              		.section	.text.cmd_sdiotest,"ax",%progbits
 403              		.align	2
 404              		.p2align 4,,15
 405              		.global	cmd_sdiotest
ARM GAS  /tmp/ccN64Vaw.s 			page 10


 406              		.thumb
 407              		.thumb_func
 408              		.type	cmd_sdiotest, %function
 409              	cmd_sdiotest:
 410              	.LFB122:
 411              		.loc 2 104 0
 412              		.cfi_startproc
 413              		@ args = 0, pretend = 0, frame = 664
 414              		@ frame_needed = 0, uses_anonymous_args = 0
 415 0000 30B5     		push	{r4, r5, lr}
 416              		.cfi_def_cfa_offset 12
 417              		.cfi_offset 4, -12
 418              		.cfi_offset 5, -8
 419              		.cfi_offset 14, -4
 420 0002 ADF5297D 		sub	sp, sp, #676
 421              		.cfi_def_cfa_offset 688
 422 0006 05AB     		add	r3, sp, #20
 423 0008 1860     		str	r0, [r3]
 424 000a 04AB     		add	r3, sp, #16
 425 000c 1960     		str	r1, [r3]
 426 000e 03AB     		add	r3, sp, #12
 427 0010 1A60     		str	r2, [r3]
 428              		.loc 2 107 0
 429 0012 0023     		movs	r3, #0
 430 0014 A793     		str	r3, [sp, #668]
 431              		.loc 2 109 0
 432 0016 05AB     		add	r3, sp, #20
 433 0018 1868     		ldr	r0, [r3]
 434 001a 40F20001 		movw	r1, #:lower16:.LC1
 435 001e C0F20001 		movt	r1, #:upper16:.LC1
 436 0022 FFF7FEFF 		bl	chprintf
 437              		.loc 2 110 0
 438 0026 6420     		movs	r0, #100
 439 0028 FFF7FEFF 		bl	chThdSleep
 440              		.loc 2 112 0
 441 002c 40F20000 		movw	r0, #:lower16:SDCD1
 442 0030 C0F20000 		movt	r0, #:upper16:SDCD1
 443 0034 FFF7FEFF 		bl	sdcConnect
 444 0038 0346     		mov	r3, r0
 445 003a 83F00103 		eor	r3, r3, #1
 446 003e DBB2     		uxtb	r3, r3
 447 0040 002B     		cmp	r3, #0
 448 0042 00F0D782 		beq	.L20
 449              	.LBB2:
 450              		.loc 2 114 0
 451 0046 05AB     		add	r3, sp, #20
 452 0048 1868     		ldr	r0, [r3]
 453 004a 40F20001 		movw	r1, #:lower16:.LC2
 454 004e C0F20001 		movt	r1, #:upper16:.LC2
 455 0052 FFF7FEFF 		bl	chprintf
 456              		.loc 2 115 0
 457 0056 05AB     		add	r3, sp, #20
 458 0058 1868     		ldr	r0, [r3]
 459 005a 40F20001 		movw	r1, #:lower16:.LC3
 460 005e C0F20001 		movt	r1, #:upper16:.LC3
 461 0062 FFF7FEFF 		bl	chprintf
 462              		.loc 2 116 0
ARM GAS  /tmp/ccN64Vaw.s 			page 11


 463 0066 40F20003 		movw	r3, #:lower16:SDCD1
 464 006a C0F20003 		movt	r3, #:upper16:SDCD1
 465 006e 5A6A     		ldr	r2, [r3, #36]
 466 0070 40F20003 		movw	r3, #:lower16:SDCD1
 467 0074 C0F20003 		movt	r3, #:upper16:SDCD1
 468 0078 1C6A     		ldr	r4, [r3, #32]
 469 007a 40F20003 		movw	r3, #:lower16:SDCD1
 470 007e C0F20003 		movt	r3, #:upper16:SDCD1
 471 0082 D869     		ldr	r0, [r3, #28]
 472 0084 40F20003 		movw	r3, #:lower16:SDCD1
 473 0088 C0F20003 		movt	r3, #:upper16:SDCD1
 474 008c 9969     		ldr	r1, [r3, #24]
 475 008e 05AB     		add	r3, sp, #20
 476 0090 0090     		str	r0, [sp]
 477 0092 0191     		str	r1, [sp, #4]
 478 0094 1868     		ldr	r0, [r3]
 479 0096 40F20001 		movw	r1, #:lower16:.LC4
 480 009a C0F20001 		movt	r1, #:upper16:.LC4
 481 009e 2346     		mov	r3, r4
 482 00a0 FFF7FEFF 		bl	chprintf
 483              		.loc 2 119 0
 484 00a4 05AB     		add	r3, sp, #20
 485 00a6 1868     		ldr	r0, [r3]
 486 00a8 40F20001 		movw	r1, #:lower16:.LC5
 487 00ac C0F20001 		movt	r1, #:upper16:.LC5
 488 00b0 FFF7FEFF 		bl	chprintf
 489              		.loc 2 120 0
 490 00b4 6420     		movs	r0, #100
 491 00b6 FFF7FEFF 		bl	chThdSleep
 492              		.loc 2 121 0
 493 00ba 40F20000 		movw	r0, #:lower16:SDCD1
 494 00be C0F20000 		movt	r0, #:upper16:SDCD1
 495 00c2 0021     		movs	r1, #0
 496 00c4 40F20002 		movw	r2, #:lower16:inbuf
 497 00c8 C0F20002 		movt	r2, #:upper16:inbuf
 498 00cc 0123     		movs	r3, #1
 499 00ce FFF7FEFF 		bl	sdcRead
 500 00d2 0346     		mov	r3, r0
 501 00d4 002B     		cmp	r3, #0
 502 00d6 01D0     		beq	.L21
 503              		.loc 2 122 0
 504 00d8 FFF7FEFF 		bl	port_halt
 505              	.L21:
 506              		.loc 2 123 0
 507 00dc 05AB     		add	r3, sp, #20
 508 00de 1868     		ldr	r0, [r3]
 509 00e0 40F20001 		movw	r1, #:lower16:.LC6
 510 00e4 C0F20001 		movt	r1, #:upper16:.LC6
 511 00e8 FFF7FEFF 		bl	chprintf
 512              		.loc 2 124 0
 513 00ec 6420     		movs	r0, #100
 514 00ee FFF7FEFF 		bl	chThdSleep
 515              		.loc 2 127 0
 516 00f2 05AB     		add	r3, sp, #20
 517 00f4 1868     		ldr	r0, [r3]
 518 00f6 40F20001 		movw	r1, #:lower16:.LC7
 519 00fa C0F20001 		movt	r1, #:upper16:.LC7
ARM GAS  /tmp/ccN64Vaw.s 			page 12


 520 00fe FFF7FEFF 		bl	chprintf
 521              		.loc 2 128 0
 522 0102 6420     		movs	r0, #100
 523 0104 FFF7FEFF 		bl	chThdSleep
 524              		.loc 2 129 0
 525 0108 40F20000 		movw	r0, #:lower16:SDCD1
 526 010c C0F20000 		movt	r0, #:upper16:SDCD1
 527 0110 0021     		movs	r1, #0
 528 0112 C64A     		ldr	r2, .L52
 529 0114 0123     		movs	r3, #1
 530 0116 FFF7FEFF 		bl	sdcRead
 531 011a 0346     		mov	r3, r0
 532 011c 002B     		cmp	r3, #0
 533 011e 01D0     		beq	.L22
 534              		.loc 2 130 0
 535 0120 FFF7FEFF 		bl	port_halt
 536              	.L22:
 537              		.loc 2 131 0
 538 0124 40F20000 		movw	r0, #:lower16:SDCD1
 539 0128 C0F20000 		movt	r0, #:upper16:SDCD1
 540 012c 0021     		movs	r1, #0
 541 012e C04A     		ldr	r2, .L52+4
 542 0130 0123     		movs	r3, #1
 543 0132 FFF7FEFF 		bl	sdcRead
 544 0136 0346     		mov	r3, r0
 545 0138 002B     		cmp	r3, #0
 546 013a 01D0     		beq	.L23
 547              		.loc 2 132 0
 548 013c FFF7FEFF 		bl	port_halt
 549              	.L23:
 550              		.loc 2 133 0
 551 0140 40F20000 		movw	r0, #:lower16:SDCD1
 552 0144 C0F20000 		movt	r0, #:upper16:SDCD1
 553 0148 0021     		movs	r1, #0
 554 014a BA4A     		ldr	r2, .L52+8
 555 014c 0123     		movs	r3, #1
 556 014e FFF7FEFF 		bl	sdcRead
 557 0152 0346     		mov	r3, r0
 558 0154 002B     		cmp	r3, #0
 559 0156 01D0     		beq	.L24
 560              		.loc 2 134 0
 561 0158 FFF7FEFF 		bl	port_halt
 562              	.L24:
 563              		.loc 2 135 0
 564 015c 05AB     		add	r3, sp, #20
 565 015e 1868     		ldr	r0, [r3]
 566 0160 40F20001 		movw	r1, #:lower16:.LC6
 567 0164 C0F20001 		movt	r1, #:upper16:.LC6
 568 0168 FFF7FEFF 		bl	chprintf
 569              		.loc 2 136 0
 570 016c 6420     		movs	r0, #100
 571 016e FFF7FEFF 		bl	chThdSleep
 572              		.loc 2 139 0
 573 0172 05AB     		add	r3, sp, #20
 574 0174 1868     		ldr	r0, [r3]
 575 0176 40F20001 		movw	r1, #:lower16:.LC8
 576 017a C0F20001 		movt	r1, #:upper16:.LC8
ARM GAS  /tmp/ccN64Vaw.s 			page 13


 577 017e FFF7FEFF 		bl	chprintf
 578              		.loc 2 140 0
 579 0182 6420     		movs	r0, #100
 580 0184 FFF7FEFF 		bl	chThdSleep
 581              		.loc 2 141 0
 582 0188 5520     		movs	r0, #85
 583 018a FFF7FEFF 		bl	fillbuffers
 584              		.loc 2 143 0
 585 018e 40F20000 		movw	r0, #:lower16:SDCD1
 586 0192 C0F20000 		movt	r0, #:upper16:SDCD1
 587 0196 0021     		movs	r1, #0
 588 0198 40F20002 		movw	r2, #:lower16:inbuf
 589 019c C0F20002 		movt	r2, #:upper16:inbuf
 590 01a0 0823     		movs	r3, #8
 591 01a2 FFF7FEFF 		bl	sdcRead
 592 01a6 0346     		mov	r3, r0
 593 01a8 002B     		cmp	r3, #0
 594 01aa 01D0     		beq	.L25
 595              		.loc 2 144 0
 596 01ac FFF7FEFF 		bl	port_halt
 597              	.L25:
 598              		.loc 2 145 0
 599 01b0 0023     		movs	r3, #0
 600 01b2 A793     		str	r3, [sp, #668]
 601 01b4 24E0     		b	.L26
 602              	.L29:
 603              		.loc 2 146 0
 604 01b6 40F20000 		movw	r0, #:lower16:SDCD1
 605 01ba C0F20000 		movt	r0, #:upper16:SDCD1
 606 01be 0021     		movs	r1, #0
 607 01c0 40F20002 		movw	r2, #:lower16:outbuf
 608 01c4 C0F20002 		movt	r2, #:upper16:outbuf
 609 01c8 0823     		movs	r3, #8
 610 01ca FFF7FEFF 		bl	sdcRead
 611 01ce 0346     		mov	r3, r0
 612 01d0 002B     		cmp	r3, #0
 613 01d2 01D0     		beq	.L27
 614              		.loc 2 147 0
 615 01d4 FFF7FEFF 		bl	port_halt
 616              	.L27:
 617              		.loc 2 148 0
 618 01d8 40F20000 		movw	r0, #:lower16:inbuf
 619 01dc C0F20000 		movt	r0, #:upper16:inbuf
 620 01e0 40F20001 		movw	r1, #:lower16:outbuf
 621 01e4 C0F20001 		movt	r1, #:upper16:outbuf
 622 01e8 4FF48052 		mov	r2, #4096
 623 01ec FFF7FEFF 		bl	memcmp
 624 01f0 0346     		mov	r3, r0
 625 01f2 002B     		cmp	r3, #0
 626 01f4 01D0     		beq	.L28
 627              		.loc 2 149 0
 628 01f6 FFF7FEFF 		bl	port_halt
 629              	.L28:
 630              		.loc 2 145 0
 631 01fa A79B     		ldr	r3, [sp, #668]
 632 01fc 0133     		adds	r3, r3, #1
 633 01fe A793     		str	r3, [sp, #668]
ARM GAS  /tmp/ccN64Vaw.s 			page 14


 634              	.L26:
 635              		.loc 2 145 0 is_stmt 0 discriminator 1
 636 0200 A79B     		ldr	r3, [sp, #668]
 637 0202 B3F57A7F 		cmp	r3, #1000
 638 0206 D6D3     		bcc	.L29
 639              		.loc 2 151 0 is_stmt 1
 640 0208 05AB     		add	r3, sp, #20
 641 020a 1868     		ldr	r0, [r3]
 642 020c 40F20001 		movw	r1, #:lower16:.LC6
 643 0210 C0F20001 		movt	r1, #:upper16:.LC6
 644 0214 FFF7FEFF 		bl	chprintf
 645              		.loc 2 152 0
 646 0218 6420     		movs	r0, #100
 647 021a FFF7FEFF 		bl	chThdSleep
 648              		.loc 2 155 0
 649 021e 05AB     		add	r3, sp, #20
 650 0220 1868     		ldr	r0, [r3]
 651 0222 40F20001 		movw	r1, #:lower16:.LC9
 652 0226 C0F20001 		movt	r1, #:upper16:.LC9
 653 022a FFF7FEFF 		bl	chprintf
 654              		.loc 2 156 0
 655 022e 6420     		movs	r0, #100
 656 0230 FFF7FEFF 		bl	chThdSleep
 657              		.loc 2 157 0
 658 0234 5520     		movs	r0, #85
 659 0236 FFF7FEFF 		bl	fillbuffers
 660              		.loc 2 159 0
 661 023a 40F20000 		movw	r0, #:lower16:SDCD1
 662 023e C0F20000 		movt	r0, #:upper16:SDCD1
 663 0242 0021     		movs	r1, #0
 664 0244 794A     		ldr	r2, .L52
 665 0246 0823     		movs	r3, #8
 666 0248 FFF7FEFF 		bl	sdcRead
 667 024c 0346     		mov	r3, r0
 668 024e 002B     		cmp	r3, #0
 669 0250 01D0     		beq	.L30
 670              		.loc 2 160 0
 671 0252 FFF7FEFF 		bl	port_halt
 672              	.L30:
 673              		.loc 2 161 0
 674 0256 0023     		movs	r3, #0
 675 0258 A793     		str	r3, [sp, #668]
 676 025a 21E0     		b	.L31
 677              	.L34:
 678              		.loc 2 162 0
 679 025c 40F20000 		movw	r0, #:lower16:SDCD1
 680 0260 C0F20000 		movt	r0, #:upper16:SDCD1
 681 0264 0021     		movs	r1, #0
 682 0266 744A     		ldr	r2, .L52+12
 683 0268 0823     		movs	r3, #8
 684 026a FFF7FEFF 		bl	sdcRead
 685 026e 0346     		mov	r3, r0
 686 0270 002B     		cmp	r3, #0
 687 0272 01D0     		beq	.L32
 688              		.loc 2 163 0
 689 0274 FFF7FEFF 		bl	port_halt
 690              	.L32:
ARM GAS  /tmp/ccN64Vaw.s 			page 15


 691              		.loc 2 164 0
 692 0278 40F20000 		movw	r0, #:lower16:inbuf
 693 027c C0F20000 		movt	r0, #:upper16:inbuf
 694 0280 40F20001 		movw	r1, #:lower16:outbuf
 695 0284 C0F20001 		movt	r1, #:upper16:outbuf
 696 0288 4FF48052 		mov	r2, #4096
 697 028c FFF7FEFF 		bl	memcmp
 698 0290 0346     		mov	r3, r0
 699 0292 002B     		cmp	r3, #0
 700 0294 01D0     		beq	.L33
 701              		.loc 2 165 0
 702 0296 FFF7FEFF 		bl	port_halt
 703              	.L33:
 704              		.loc 2 161 0
 705 029a A79B     		ldr	r3, [sp, #668]
 706 029c 0133     		adds	r3, r3, #1
 707 029e A793     		str	r3, [sp, #668]
 708              	.L31:
 709              		.loc 2 161 0 is_stmt 0 discriminator 1
 710 02a0 A79B     		ldr	r3, [sp, #668]
 711 02a2 B3F57A7F 		cmp	r3, #1000
 712 02a6 D9D3     		bcc	.L34
 713              		.loc 2 167 0 is_stmt 1
 714 02a8 05AB     		add	r3, sp, #20
 715 02aa 1868     		ldr	r0, [r3]
 716 02ac 40F20001 		movw	r1, #:lower16:.LC6
 717 02b0 C0F20001 		movt	r1, #:upper16:.LC6
 718 02b4 FFF7FEFF 		bl	chprintf
 719              		.loc 2 168 0
 720 02b8 6420     		movs	r0, #100
 721 02ba FFF7FEFF 		bl	chThdSleep
 722              		.loc 2 215 0
 723 02be 40F20003 		movw	r3, #:lower16:.LC10
 724 02c2 C0F20003 		movt	r3, #:upper16:.LC10
 725 02c6 9DAC     		add	r4, sp, #628
 726 02c8 1D46     		mov	r5, r3
 727 02ca 0FCD     		ldmia	r5!, {r0, r1, r2, r3}
 728 02cc 0FC4     		stmia	r4!, {r0, r1, r2, r3}
 729 02ce 2B68     		ldr	r3, [r5]
 730 02d0 2360     		str	r3, [r4]
 731              		.loc 2 217 0
 732 02d2 05AB     		add	r3, sp, #20
 733 02d4 1868     		ldr	r0, [r3]
 734 02d6 40F20001 		movw	r1, #:lower16:.LC11
 735 02da C0F20001 		movt	r1, #:upper16:.LC11
 736 02de FFF7FEFF 		bl	chprintf
 737              		.loc 2 218 0
 738 02e2 6420     		movs	r0, #100
 739 02e4 FFF7FEFF 		bl	chThdSleep
 740              		.loc 2 219 0
 741 02e8 0020     		movs	r0, #0
 742 02ea 40F20001 		movw	r1, #:lower16:SDC_FS
 743 02ee C0F20001 		movt	r1, #:upper16:SDC_FS
 744 02f2 FFF7FEFF 		bl	f_mount
 745 02f6 0346     		mov	r3, r0
 746 02f8 8DF89B32 		strb	r3, [sp, #667]
 747              		.loc 2 220 0
ARM GAS  /tmp/ccN64Vaw.s 			page 16


 748 02fc 9DF89B32 		ldrb	r3, [sp, #667]	@ zero_extendqisi2
 749 0300 002B     		cmp	r3, #0
 750 0302 02D0     		beq	.L35
 751              		.loc 2 221 0
 752 0304 FFF7FEFF 		bl	port_halt
 753 0308 0DE0     		b	.L36
 754              	.L35:
 755              		.loc 2 224 0
 756 030a 40F20003 		movw	r3, #:lower16:fs_ready
 757 030e C0F20003 		movt	r3, #:upper16:fs_ready
 758 0312 0122     		movs	r2, #1
 759 0314 1A70     		strb	r2, [r3]
 760              		.loc 2 225 0
 761 0316 05AB     		add	r3, sp, #20
 762 0318 1868     		ldr	r0, [r3]
 763 031a 40F20001 		movw	r1, #:lower16:.LC2
 764 031e C0F20001 		movt	r1, #:upper16:.LC2
 765 0322 FFF7FEFF 		bl	chprintf
 766              	.L36:
 767              		.loc 2 242 0
 768 0326 05AB     		add	r3, sp, #20
 769 0328 1868     		ldr	r0, [r3]
 770 032a 40F20001 		movw	r1, #:lower16:.LC12
 771 032e C0F20001 		movt	r1, #:upper16:.LC12
 772 0332 FFF7FEFF 		bl	chprintf
 773              		.loc 2 243 0
 774 0336 6420     		movs	r0, #100
 775 0338 FFF7FEFF 		bl	chThdSleep
 776              		.loc 2 244 0
 777 033c A5AA     		add	r2, sp, #660
 778 033e A4AB     		add	r3, sp, #656
 779 0340 40F20000 		movw	r0, #:lower16:.LC13
 780 0344 C0F20000 		movt	r0, #:upper16:.LC13
 781 0348 1146     		mov	r1, r2
 782 034a 1A46     		mov	r2, r3
 783 034c FFF7FEFF 		bl	f_getfree
 784 0350 0346     		mov	r3, r0
 785 0352 8DF89B32 		strb	r3, [sp, #667]
 786              		.loc 2 245 0
 787 0356 9DF89B32 		ldrb	r3, [sp, #667]	@ zero_extendqisi2
 788 035a 002B     		cmp	r3, #0
 789 035c 01D0     		beq	.L37
 790              		.loc 2 246 0
 791 035e FFF7FEFF 		bl	port_halt
 792              	.L37:
 793              		.loc 2 248 0
 794 0362 05AB     		add	r3, sp, #20
 795 0364 1868     		ldr	r0, [r3]
 796 0366 40F20001 		movw	r1, #:lower16:.LC2
 797 036a C0F20001 		movt	r1, #:upper16:.LC2
 798 036e FFF7FEFF 		bl	chprintf
 799              		.loc 2 249 0
 800 0372 A59A     		ldr	r2, [sp, #660]
 801              		.loc 2 251 0
 802 0374 40F20003 		movw	r3, #:lower16:SDC_FS
 803 0378 C0F20003 		movt	r3, #:upper16:SDC_FS
 804 037c 9B78     		ldrb	r3, [r3, #2]	@ zero_extendqisi2
ARM GAS  /tmp/ccN64Vaw.s 			page 17


 805              		.loc 2 249 0
 806 037e 1C46     		mov	r4, r3
 807              		.loc 2 252 0
 808 0380 40F20003 		movw	r3, #:lower16:SDC_FS
 809 0384 C0F20003 		movt	r3, #:upper16:SDC_FS
 810 0388 9B78     		ldrb	r3, [r3, #2]	@ zero_extendqisi2
 811 038a A599     		ldr	r1, [sp, #660]
 812 038c 01FB03F3 		mul	r3, r1, r3
 813              		.loc 2 249 0
 814 0390 5902     		lsls	r1, r3, #9
 815 0392 05AB     		add	r3, sp, #20
 816 0394 0091     		str	r1, [sp]
 817 0396 1868     		ldr	r0, [r3]
 818 0398 40F20001 		movw	r1, #:lower16:.LC14
 819 039c C0F20001 		movt	r1, #:upper16:.LC14
 820 03a0 2346     		mov	r3, r4
 821 03a2 FFF7FEFF 		bl	chprintf
 822              		.loc 2 255 0
 823 03a6 05AB     		add	r3, sp, #20
 824 03a8 1868     		ldr	r0, [r3]
 825 03aa 40F20001 		movw	r1, #:lower16:.LC15
 826 03ae C0F20001 		movt	r1, #:upper16:.LC15
 827 03b2 FFF7FEFF 		bl	chprintf
 828              		.loc 2 256 0
 829 03b6 6420     		movs	r0, #100
 830 03b8 FFF7FEFF 		bl	chThdSleep
 831              		.loc 2 257 0
 832 03bc 0FAB     		add	r3, sp, #60
 833 03be 1846     		mov	r0, r3
 834 03c0 40F20001 		movw	r1, #:lower16:.LC16
 835 03c4 C0F20001 		movt	r1, #:upper16:.LC16
 836 03c8 1222     		movs	r2, #18
 837 03ca FFF7FEFF 		bl	f_open
 838 03ce 0346     		mov	r3, r0
 839 03d0 8DF89B32 		strb	r3, [sp, #667]
 840              		.loc 2 258 0
 841 03d4 9DF89B32 		ldrb	r3, [sp, #667]	@ zero_extendqisi2
 842 03d8 002B     		cmp	r3, #0
 843 03da 01D0     		beq	.L38
 844              		.loc 2 259 0
 845 03dc FFF7FEFF 		bl	port_halt
 846              	.L38:
 847              		.loc 2 261 0
 848 03e0 05AB     		add	r3, sp, #20
 849 03e2 1868     		ldr	r0, [r3]
 850 03e4 40F20001 		movw	r1, #:lower16:.LC2
 851 03e8 C0F20001 		movt	r1, #:upper16:.LC2
 852 03ec FFF7FEFF 		bl	chprintf
 853              		.loc 2 262 0
 854 03f0 05AB     		add	r3, sp, #20
 855 03f2 1868     		ldr	r0, [r3]
 856 03f4 40F20001 		movw	r1, #:lower16:.LC17
 857 03f8 C0F20001 		movt	r1, #:upper16:.LC17
 858 03fc FFF7FEFF 		bl	chprintf
 859              		.loc 2 263 0
 860 0400 6420     		movs	r0, #100
 861 0402 FFF7FEFF 		bl	chThdSleep
ARM GAS  /tmp/ccN64Vaw.s 			page 18


 862              		.loc 2 264 0
 863 0406 0FA9     		add	r1, sp, #60
 864 0408 9DAA     		add	r2, sp, #628
 865 040a A3AB     		add	r3, sp, #652
 866 040c 0846     		mov	r0, r1
 867 040e 1146     		mov	r1, r2
 868 0410 1422     		movs	r2, #20
 869 0412 FFF7FEFF 		bl	f_write
 870 0416 0346     		mov	r3, r0
 871 0418 8DF89B32 		strb	r3, [sp, #667]
 872              		.loc 2 265 0
 873 041c 9DF89B32 		ldrb	r3, [sp, #667]	@ zero_extendqisi2
 874 0420 002B     		cmp	r3, #0
 875 0422 0BD0     		beq	.L39
 876              		.loc 2 266 0
 877 0424 FFF7FEFF 		bl	port_halt
 878 0428 10E0     		b	.L40
 879              	.L53:
 880 042a 00BF     		.align	2
 881              	.L52:
 882 042c 01000000 		.word	inbuf+1
 883 0430 02000000 		.word	inbuf+2
 884 0434 03000000 		.word	inbuf+3
 885 0438 01000000 		.word	outbuf+1
 886              	.L39:
 887              		.loc 2 269 0
 888 043c 05AB     		add	r3, sp, #20
 889 043e 1868     		ldr	r0, [r3]
 890 0440 40F20001 		movw	r1, #:lower16:.LC2
 891 0444 C0F20001 		movt	r1, #:upper16:.LC2
 892 0448 FFF7FEFF 		bl	chprintf
 893              	.L40:
 894              		.loc 2 271 0
 895 044c 05AB     		add	r3, sp, #20
 896 044e 1868     		ldr	r0, [r3]
 897 0450 40F20001 		movw	r1, #:lower16:.LC18
 898 0454 C0F20001 		movt	r1, #:upper16:.LC18
 899 0458 FFF7FEFF 		bl	chprintf
 900              		.loc 2 272 0
 901 045c 0FAB     		add	r3, sp, #60
 902 045e 1846     		mov	r0, r3
 903 0460 FFF7FEFF 		bl	f_close
 904 0464 0346     		mov	r3, r0
 905 0466 8DF89B32 		strb	r3, [sp, #667]
 906              		.loc 2 273 0
 907 046a 9DF89B32 		ldrb	r3, [sp, #667]	@ zero_extendqisi2
 908 046e 002B     		cmp	r3, #0
 909 0470 02D0     		beq	.L41
 910              		.loc 2 274 0
 911 0472 FFF7FEFF 		bl	port_halt
 912 0476 07E0     		b	.L42
 913              	.L41:
 914              		.loc 2 277 0
 915 0478 05AB     		add	r3, sp, #20
 916 047a 1868     		ldr	r0, [r3]
 917 047c 40F20001 		movw	r1, #:lower16:.LC2
 918 0480 C0F20001 		movt	r1, #:upper16:.LC2
ARM GAS  /tmp/ccN64Vaw.s 			page 19


 919 0484 FFF7FEFF 		bl	chprintf
 920              	.L42:
 921              		.loc 2 279 0
 922 0488 05AB     		add	r3, sp, #20
 923 048a 1868     		ldr	r0, [r3]
 924 048c 40F20001 		movw	r1, #:lower16:.LC19
 925 0490 C0F20001 		movt	r1, #:upper16:.LC19
 926 0494 FFF7FEFF 		bl	chprintf
 927              		.loc 2 280 0
 928 0498 07AB     		add	r3, sp, #28
 929 049a 40F20000 		movw	r0, #:lower16:.LC16
 930 049e C0F20000 		movt	r0, #:upper16:.LC16
 931 04a2 1946     		mov	r1, r3
 932 04a4 FFF7FEFF 		bl	f_stat
 933 04a8 0346     		mov	r3, r0
 934 04aa 8DF89B32 		strb	r3, [sp, #667]
 935              		.loc 2 281 0
 936 04ae 6420     		movs	r0, #100
 937 04b0 FFF7FEFF 		bl	chThdSleep
 938              		.loc 2 282 0
 939 04b4 9DF89B32 		ldrb	r3, [sp, #667]	@ zero_extendqisi2
 940 04b8 002B     		cmp	r3, #0
 941 04ba 02D0     		beq	.L43
 942              		.loc 2 283 0
 943 04bc FFF7FEFF 		bl	port_halt
 944 04c0 0EE0     		b	.L44
 945              	.L43:
 946              		.loc 2 286 0
 947 04c2 07AB     		add	r3, sp, #28
 948 04c4 1B68     		ldr	r3, [r3]
 949 04c6 142B     		cmp	r3, #20
 950 04c8 08D1     		bne	.L45
 951              		.loc 2 287 0
 952 04ca 05AB     		add	r3, sp, #20
 953 04cc 1868     		ldr	r0, [r3]
 954 04ce 40F20001 		movw	r1, #:lower16:.LC2
 955 04d2 C0F20001 		movt	r1, #:upper16:.LC2
 956 04d6 FFF7FEFF 		bl	chprintf
 957 04da 01E0     		b	.L44
 958              	.L45:
 959              		.loc 2 289 0
 960 04dc FFF7FEFF 		bl	port_halt
 961              	.L44:
 962              		.loc 2 292 0
 963 04e0 05AB     		add	r3, sp, #20
 964 04e2 1868     		ldr	r0, [r3]
 965 04e4 40F20001 		movw	r1, #:lower16:.LC20
 966 04e8 C0F20001 		movt	r1, #:upper16:.LC20
 967 04ec FFF7FEFF 		bl	chprintf
 968              		.loc 2 293 0
 969 04f0 0FAB     		add	r3, sp, #60
 970 04f2 1846     		mov	r0, r3
 971 04f4 40F20001 		movw	r1, #:lower16:.LC16
 972 04f8 C0F20001 		movt	r1, #:upper16:.LC16
 973 04fc 0122     		movs	r2, #1
 974 04fe FFF7FEFF 		bl	f_open
 975 0502 0346     		mov	r3, r0
ARM GAS  /tmp/ccN64Vaw.s 			page 20


 976 0504 8DF89B32 		strb	r3, [sp, #667]
 977              		.loc 2 294 0
 978 0508 6420     		movs	r0, #100
 979 050a FFF7FEFF 		bl	chThdSleep
 980              		.loc 2 295 0
 981 050e 9DF89B32 		ldrb	r3, [sp, #667]	@ zero_extendqisi2
 982 0512 002B     		cmp	r3, #0
 983 0514 01D0     		beq	.L46
 984              		.loc 2 296 0
 985 0516 FFF7FEFF 		bl	port_halt
 986              	.L46:
 987              		.loc 2 299 0
 988 051a 0FA9     		add	r1, sp, #60
 989 051c 98AA     		add	r2, sp, #608
 990 051e A2AB     		add	r3, sp, #648
 991 0520 0846     		mov	r0, r1
 992 0522 1146     		mov	r1, r2
 993 0524 1422     		movs	r2, #20
 994 0526 FFF7FEFF 		bl	f_read
 995 052a 0346     		mov	r3, r0
 996 052c 8DF89B32 		strb	r3, [sp, #667]
 997              		.loc 2 300 0
 998 0530 9DF89B32 		ldrb	r3, [sp, #667]	@ zero_extendqisi2
 999 0534 002B     		cmp	r3, #0
 1000 0536 02D0     		beq	.L47
 1001              		.loc 2 301 0
 1002 0538 FFF7FEFF 		bl	port_halt
 1003 053c 14E0     		b	.L48
 1004              	.L47:
 1005              		.loc 2 304 0
 1006 053e 9DAA     		add	r2, sp, #628
 1007 0540 98AB     		add	r3, sp, #608
 1008 0542 1046     		mov	r0, r2
 1009 0544 1946     		mov	r1, r3
 1010 0546 1422     		movs	r2, #20
 1011 0548 FFF7FEFF 		bl	memcmp
 1012 054c 0346     		mov	r3, r0
 1013 054e 002B     		cmp	r3, #0
 1014 0550 02D0     		beq	.L49
 1015              		.loc 2 305 0
 1016 0552 FFF7FEFF 		bl	port_halt
 1017 0556 07E0     		b	.L48
 1018              	.L49:
 1019              		.loc 2 308 0
 1020 0558 05AB     		add	r3, sp, #20
 1021 055a 1868     		ldr	r0, [r3]
 1022 055c 40F20001 		movw	r1, #:lower16:.LC2
 1023 0560 C0F20001 		movt	r1, #:upper16:.LC2
 1024 0564 FFF7FEFF 		bl	chprintf
 1025              	.L48:
 1026              		.loc 2 312 0
 1027 0568 05AB     		add	r3, sp, #20
 1028 056a 1868     		ldr	r0, [r3]
 1029 056c 40F20001 		movw	r1, #:lower16:.LC21
 1030 0570 C0F20001 		movt	r1, #:upper16:.LC21
 1031 0574 FFF7FEFF 		bl	chprintf
 1032              		.loc 2 313 0
ARM GAS  /tmp/ccN64Vaw.s 			page 21


 1033 0578 0020     		movs	r0, #0
 1034 057a 0021     		movs	r1, #0
 1035 057c FFF7FEFF 		bl	f_mount
 1036              		.loc 2 314 0
 1037 0580 05AB     		add	r3, sp, #20
 1038 0582 1868     		ldr	r0, [r3]
 1039 0584 40F20001 		movw	r1, #:lower16:.LC2
 1040 0588 C0F20001 		movt	r1, #:upper16:.LC2
 1041 058c FFF7FEFF 		bl	chprintf
 1042              		.loc 2 316 0
 1043 0590 05AB     		add	r3, sp, #20
 1044 0592 1868     		ldr	r0, [r3]
 1045 0594 40F20001 		movw	r1, #:lower16:.LC22
 1046 0598 C0F20001 		movt	r1, #:upper16:.LC22
 1047 059c FFF7FEFF 		bl	chprintf
 1048              		.loc 2 317 0
 1049 05a0 6420     		movs	r0, #100
 1050 05a2 FFF7FEFF 		bl	chThdSleep
 1051              		.loc 2 318 0
 1052 05a6 40F20000 		movw	r0, #:lower16:SDCD1
 1053 05aa C0F20000 		movt	r0, #:upper16:SDCD1
 1054 05ae FFF7FEFF 		bl	sdcDisconnect
 1055 05b2 0346     		mov	r3, r0
 1056 05b4 002B     		cmp	r3, #0
 1057 05b6 01D0     		beq	.L50
 1058              		.loc 2 319 0
 1059 05b8 FFF7FEFF 		bl	port_halt
 1060              	.L50:
 1061              		.loc 2 320 0
 1062 05bc 05AB     		add	r3, sp, #20
 1063 05be 1868     		ldr	r0, [r3]
 1064 05c0 40F20001 		movw	r1, #:lower16:.LC6
 1065 05c4 C0F20001 		movt	r1, #:upper16:.LC6
 1066 05c8 FFF7FEFF 		bl	chprintf
 1067              		.loc 2 321 0
 1068 05cc 05AB     		add	r3, sp, #20
 1069 05ce 1868     		ldr	r0, [r3]
 1070 05d0 40F20001 		movw	r1, #:lower16:.LC23
 1071 05d4 C0F20001 		movt	r1, #:upper16:.LC23
 1072 05d8 FFF7FEFF 		bl	chprintf
 1073              		.loc 2 322 0
 1074 05dc 05AB     		add	r3, sp, #20
 1075 05de 1868     		ldr	r0, [r3]
 1076 05e0 40F20001 		movw	r1, #:lower16:.LC24
 1077 05e4 C0F20001 		movt	r1, #:upper16:.LC24
 1078 05e8 FFF7FEFF 		bl	chprintf
 1079              		.loc 2 323 0
 1080 05ec 6420     		movs	r0, #100
 1081 05ee FFF7FEFF 		bl	chThdSleep
 1082              	.LBE2:
 1083 05f2 01E0     		b	.L19
 1084              	.L20:
 1085              		.loc 2 326 0
 1086 05f4 FFF7FEFF 		bl	port_halt
 1087              	.L19:
 1088              		.loc 2 328 0
 1089 05f8 0DF5297D 		add	sp, sp, #676
ARM GAS  /tmp/ccN64Vaw.s 			page 22


 1090              		@ sp needed
 1091 05fc 30BD     		pop	{r4, r5, pc}
 1092              		.cfi_endproc
 1093              	.LFE122:
 1094              		.size	cmd_sdiotest, .-cmd_sdiotest
 1095 05fe 00BF     		.section	.rodata.sdccfg,"a",%progbits
 1096              		.align	2
 1097              		.type	sdccfg, %object
 1098              		.size	sdccfg, 4
 1099              	sdccfg:
 1100 0000 00000000 		.space	4
 1101              		.section	.data.ser_cfg,"aw",%progbits
 1102              		.align	2
 1103              		.type	ser_cfg, %object
 1104              		.size	ser_cfg, 12
 1105              	ser_cfg:
 1106 0000 00960000 		.word	38400
 1107 0004 0000     		.short	0
 1108 0006 0000     		.short	0
 1109 0008 0000     		.short	0
 1110 000a 0000     		.space	2
 1111              		.section	.rodata
 1112              		.align	2
 1113              	.LC25:
 1114 02b8 7364696F 		.ascii	"sdiotest\000"
 1114      74657374 
 1114      00
 1115              		.section	.rodata.commands,"a",%progbits
 1116              		.align	2
 1117              		.type	commands, %object
 1118              		.size	commands, 16
 1119              	commands:
 1120 0000 B8020000 		.word	.LC25
 1121 0004 00000000 		.word	cmd_sdiotest
 1122 0008 00000000 		.word	0
 1123 000c 00000000 		.word	0
 1124              		.section	.rodata.shell_cfg1,"a",%progbits
 1125              		.align	2
 1126              		.type	shell_cfg1, %object
 1127              		.size	shell_cfg1, 8
 1128              	shell_cfg1:
 1129 0000 00000000 		.word	SD2
 1130 0004 00000000 		.word	commands
 1131              		.section	.rodata
 1132 02c1 000000   		.align	2
 1133              	.LC26:
 1134 02c4 68656C6C 		.ascii	"hello\000"
 1134      6F00
 1135 02ca 0000     		.section	.text.main,"ax",%progbits
 1136              		.align	2
 1137              		.p2align 4,,15
 1138              		.global	main
 1139              		.thumb
 1140              		.thumb_func
 1141              		.type	main, %function
 1142              	main:
 1143              	.LFB123:
ARM GAS  /tmp/ccN64Vaw.s 			page 23


 1144              		.loc 2 359 0
 1145              		.cfi_startproc
 1146              		@ args = 0, pretend = 0, frame = 0
 1147              		@ frame_needed = 0, uses_anonymous_args = 0
 1148 0000 08B5     		push	{r3, lr}
 1149              		.cfi_def_cfa_offset 8
 1150              		.cfi_offset 3, -8
 1151              		.cfi_offset 14, -4
 1152              		.loc 2 360 0
 1153 0002 FFF7FEFF 		bl	halInit
 1154              		.loc 2 361 0
 1155 0006 FFF7FEFF 		bl	chSysInit
 1156              		.loc 2 364 0
 1157 000a 40F20000 		movw	r0, #:lower16:SD2
 1158 000e C0F20000 		movt	r0, #:upper16:SD2
 1159 0012 40F20001 		movw	r1, #:lower16:ser_cfg
 1160 0016 C0F20001 		movt	r1, #:upper16:ser_cfg
 1161 001a FFF7FEFF 		bl	sdStart
 1162              		.loc 2 365 0
 1163 001e 4FF44060 		mov	r0, #3072
 1164 0022 C4F20200 		movt	r0, 16386
 1165 0026 0421     		movs	r1, #4
 1166 0028 40F28232 		movw	r2, #898
 1167 002c FFF7FEFF 		bl	_pal_lld_setgroupmode
 1168              		.loc 2 366 0
 1169 0030 4FF44060 		mov	r0, #3072
 1170 0034 C4F20200 		movt	r0, 16386
 1171 0038 0821     		movs	r1, #8
 1172 003a 40F28232 		movw	r2, #898
 1173 003e FFF7FEFF 		bl	_pal_lld_setgroupmode
 1174              		.loc 2 367 0
 1175 0042 40F20000 		movw	r0, #:lower16:SD2
 1176 0046 C0F20000 		movt	r0, #:upper16:SD2
 1177 004a 40F20001 		movw	r1, #:lower16:.LC26
 1178 004e C0F20001 		movt	r1, #:upper16:.LC26
 1179 0052 FFF7FEFF 		bl	chprintf
 1180              		.loc 2 369 0
 1181 0056 FFF7FEFF 		bl	shellInit
 1182              		.loc 2 371 0
 1183 005a 40F20000 		movw	r0, #:lower16:shell_cfg1
 1184 005e C0F20000 		movt	r0, #:upper16:shell_cfg1
 1185 0062 40F20001 		movw	r1, #:lower16:waShell.7318
 1186 0066 C0F20001 		movt	r1, #:upper16:waShell.7318
 1187 006a 4FF40B62 		mov	r2, #2224
 1188 006e 4023     		movs	r3, #64
 1189 0070 FFF7FEFF 		bl	shellCreateStatic
 1190              		.loc 2 376 0
 1191 0074 40F20000 		movw	r0, #:lower16:SDCD1
 1192 0078 C0F20000 		movt	r0, #:upper16:SDCD1
 1193 007c 40F20001 		movw	r1, #:lower16:sdccfg
 1194 0080 C0F20001 		movt	r1, #:upper16:sdccfg
 1195 0084 FFF7FEFF 		bl	sdcStart
 1196              	.L55:
 1197              		.loc 2 383 0 discriminator 1
 1198 0088 4FF48063 		mov	r3, #1024
 1199 008c C4F20203 		movt	r3, 16386
 1200 0090 4FF48062 		mov	r2, #1024
ARM GAS  /tmp/ccN64Vaw.s 			page 24


 1201 0094 C4F20202 		movt	r2, 16386
 1202 0098 5269     		ldr	r2, [r2, #20]
 1203 009a 82F48052 		eor	r2, r2, #4096
 1204 009e 5A61     		str	r2, [r3, #20]
 1205              		.loc 2 384 0 discriminator 1
 1206 00a0 6420     		movs	r0, #100
 1207 00a2 FFF7FEFF 		bl	chThdSleep
 1208              		.loc 2 385 0 discriminator 1
 1209 00a6 EFE7     		b	.L55
 1210              		.cfi_endproc
 1211              	.LFE123:
 1212              		.size	main, .-main
 1213 00a8 AFF30080 		.section	.bss.waShell.7318,"aw",%nobits
 1213      AFF30080 
 1214              		.align	3
 1215              		.type	waShell.7318, %object
 1216              		.size	waShell.7318, 2224
 1217              	waShell.7318:
 1218 0000 00000000 		.space	2224
 1218      00000000 
 1218      00000000 
 1218      00000000 
 1218      00000000 
 1219              		.text
 1220              	.Letext0:
 1221              		.file 3 "/usr/lib/gcc/arm-none-eabi/4.8.2/include/stddef.h"
 1222              		.file 4 "/usr/arm-none-eabi/include/machine/_default_types.h"
 1223              		.file 5 "/usr/arm-none-eabi/include/stdint.h"
 1224              		.file 6 "../../../os/ports/GCC/ARMCMx/chtypes.h"
 1225              		.file 7 "../../../os/kernel/include/chlists.h"
 1226              		.file 8 "../../../os/kernel/include/chthreads.h"
 1227              		.file 9 "../../../os/ports/GCC/ARMCMx/chcore_v7m.h"
 1228              		.file 10 "../../../os/kernel/include/chmtx.h"
 1229              		.file 11 "../../../os/kernel/include/chevents.h"
 1230              		.file 12 "../../../os/kernel/include/chqueues.h"
 1231              		.file 13 "../../../os/kernel/include/chstreams.h"
 1232              		.file 14 "../../../os/hal/platforms/STM32F4xx/stm32f4xx.h"
 1233              		.file 15 "../../../os/hal/platforms/STM32F4xx/stm32_dma.h"
 1234              		.file 16 "../../../os/hal/include/io_block.h"
 1235              		.file 17 "../../../os/hal/platforms/STM32/GPIOv2/pal_lld.h"
 1236              		.file 18 "../../../os/hal/include/serial.h"
 1237              		.file 19 "../../../os/hal/platforms/STM32/USARTv1/serial_lld.h"
 1238              		.file 20 "../../../os/hal/platforms/STM32/sdc_lld.h"
 1239              		.file 21 "../../../os/various/shell.h"
 1240              		.file 22 "/usr/lib/gcc/arm-none-eabi/4.8.2/include/stdarg.h"
 1241              		.file 23 "<built-in>"
 1242              		.file 24 "../../../ext/fatfs/src/integer.h"
 1243              		.file 25 "../../../ext/fatfs/src/ff.h"
 1244              		.file 26 "../../../os/ports/common/ARMCMx/CMSIS/include/core_cm4.h"
 1245              		.section	.debug_info,"",%progbits
 1246              	.Ldebug_info0:
 1247 0000 0C150000 		.4byte	0x150c
 1248 0004 0400     		.2byte	0x4
 1249 0006 00000000 		.4byte	.Ldebug_abbrev0
 1250 000a 04       		.byte	0x4
 1251 000b 01       		.uleb128 0x1
 1252 000c B1090000 		.4byte	.LASF281
ARM GAS  /tmp/ccN64Vaw.s 			page 25


 1253 0010 01       		.byte	0x1
 1254 0011 71050000 		.4byte	.LASF282
 1255 0015 7A080000 		.4byte	.LASF283
 1256 0019 00000000 		.4byte	.Ldebug_ranges0+0
 1257 001d 00000000 		.4byte	0
 1258 0021 00000000 		.4byte	.Ldebug_line0
 1259 0025 02       		.uleb128 0x2
 1260 0026 04       		.byte	0x4
 1261 0027 05       		.byte	0x5
 1262 0028 696E7400 		.ascii	"int\000"
 1263 002c 03       		.uleb128 0x3
 1264 002d 0D000000 		.4byte	.LASF2
 1265 0031 03       		.byte	0x3
 1266 0032 D4       		.byte	0xd4
 1267 0033 37000000 		.4byte	0x37
 1268 0037 04       		.uleb128 0x4
 1269 0038 04       		.byte	0x4
 1270 0039 07       		.byte	0x7
 1271 003a 13060000 		.4byte	.LASF0
 1272 003e 04       		.uleb128 0x4
 1273 003f 01       		.byte	0x1
 1274 0040 06       		.byte	0x6
 1275 0041 01020000 		.4byte	.LASF1
 1276 0045 03       		.uleb128 0x3
 1277 0046 22010000 		.4byte	.LASF3
 1278 004a 04       		.byte	0x4
 1279 004b 1C       		.byte	0x1c
 1280 004c 50000000 		.4byte	0x50
 1281 0050 04       		.uleb128 0x4
 1282 0051 01       		.byte	0x1
 1283 0052 08       		.byte	0x8
 1284 0053 6D020000 		.4byte	.LASF4
 1285 0057 04       		.uleb128 0x4
 1286 0058 02       		.byte	0x2
 1287 0059 05       		.byte	0x5
 1288 005a D4080000 		.4byte	.LASF5
 1289 005e 03       		.uleb128 0x3
 1290 005f 44030000 		.4byte	.LASF6
 1291 0063 04       		.byte	0x4
 1292 0064 26       		.byte	0x26
 1293 0065 69000000 		.4byte	0x69
 1294 0069 04       		.uleb128 0x4
 1295 006a 02       		.byte	0x2
 1296 006b 07       		.byte	0x7
 1297 006c 730A0000 		.4byte	.LASF7
 1298 0070 03       		.uleb128 0x3
 1299 0071 B30A0000 		.4byte	.LASF8
 1300 0075 04       		.byte	0x4
 1301 0076 37       		.byte	0x37
 1302 0077 7B000000 		.4byte	0x7b
 1303 007b 04       		.uleb128 0x4
 1304 007c 04       		.byte	0x4
 1305 007d 05       		.byte	0x5
 1306 007e 6F010000 		.4byte	.LASF9
 1307 0082 03       		.uleb128 0x3
 1308 0083 26050000 		.4byte	.LASF10
 1309 0087 04       		.byte	0x4
ARM GAS  /tmp/ccN64Vaw.s 			page 26


 1310 0088 38       		.byte	0x38
 1311 0089 8D000000 		.4byte	0x8d
 1312 008d 04       		.uleb128 0x4
 1313 008e 04       		.byte	0x4
 1314 008f 07       		.byte	0x7
 1315 0090 7C040000 		.4byte	.LASF11
 1316 0094 04       		.uleb128 0x4
 1317 0095 08       		.byte	0x8
 1318 0096 05       		.byte	0x5
 1319 0097 37050000 		.4byte	.LASF12
 1320 009b 03       		.uleb128 0x3
 1321 009c 71040000 		.4byte	.LASF13
 1322 00a0 04       		.byte	0x4
 1323 00a1 4E       		.byte	0x4e
 1324 00a2 A6000000 		.4byte	0xa6
 1325 00a6 04       		.uleb128 0x4
 1326 00a7 08       		.byte	0x8
 1327 00a8 07       		.byte	0x7
 1328 00a9 64070000 		.4byte	.LASF14
 1329 00ad 04       		.uleb128 0x4
 1330 00ae 04       		.byte	0x4
 1331 00af 07       		.byte	0x7
 1332 00b0 1B000000 		.4byte	.LASF15
 1333 00b4 05       		.uleb128 0x5
 1334 00b5 04       		.byte	0x4
 1335 00b6 06       		.uleb128 0x6
 1336 00b7 04       		.byte	0x4
 1337 00b8 BC000000 		.4byte	0xbc
 1338 00bc 04       		.uleb128 0x4
 1339 00bd 01       		.byte	0x1
 1340 00be 08       		.byte	0x8
 1341 00bf 08030000 		.4byte	.LASF16
 1342 00c3 06       		.uleb128 0x6
 1343 00c4 04       		.byte	0x4
 1344 00c5 C9000000 		.4byte	0xc9
 1345 00c9 07       		.uleb128 0x7
 1346 00ca BC000000 		.4byte	0xbc
 1347 00ce 03       		.uleb128 0x3
 1348 00cf 17020000 		.4byte	.LASF17
 1349 00d3 05       		.byte	0x5
 1350 00d4 2A       		.byte	0x2a
 1351 00d5 45000000 		.4byte	0x45
 1352 00d9 03       		.uleb128 0x3
 1353 00da 83070000 		.4byte	.LASF18
 1354 00de 05       		.byte	0x5
 1355 00df 36       		.byte	0x36
 1356 00e0 5E000000 		.4byte	0x5e
 1357 00e4 03       		.uleb128 0x3
 1358 00e5 60000000 		.4byte	.LASF19
 1359 00e9 05       		.byte	0x5
 1360 00ea 41       		.byte	0x41
 1361 00eb 70000000 		.4byte	0x70
 1362 00ef 03       		.uleb128 0x3
 1363 00f0 A8090000 		.4byte	.LASF20
 1364 00f4 05       		.byte	0x5
 1365 00f5 42       		.byte	0x42
 1366 00f6 82000000 		.4byte	0x82
ARM GAS  /tmp/ccN64Vaw.s 			page 27


 1367 00fa 03       		.uleb128 0x3
 1368 00fb DE080000 		.4byte	.LASF21
 1369 00ff 05       		.byte	0x5
 1370 0100 4E       		.byte	0x4e
 1371 0101 9B000000 		.4byte	0x9b
 1372 0105 03       		.uleb128 0x3
 1373 0106 21090000 		.4byte	.LASF22
 1374 010a 06       		.byte	0x6
 1375 010b 2B       		.byte	0x2b
 1376 010c 10010000 		.4byte	0x110
 1377 0110 04       		.uleb128 0x4
 1378 0111 01       		.byte	0x1
 1379 0112 02       		.byte	0x2
 1380 0113 EE020000 		.4byte	.LASF23
 1381 0117 03       		.uleb128 0x3
 1382 0118 1C080000 		.4byte	.LASF24
 1383 011c 06       		.byte	0x6
 1384 011d 2C       		.byte	0x2c
 1385 011e CE000000 		.4byte	0xce
 1386 0122 03       		.uleb128 0x3
 1387 0123 8E010000 		.4byte	.LASF25
 1388 0127 06       		.byte	0x6
 1389 0128 2D       		.byte	0x2d
 1390 0129 CE000000 		.4byte	0xce
 1391 012d 03       		.uleb128 0x3
 1392 012e 65090000 		.4byte	.LASF26
 1393 0132 06       		.byte	0x6
 1394 0133 2E       		.byte	0x2e
 1395 0134 CE000000 		.4byte	0xce
 1396 0138 03       		.uleb128 0x3
 1397 0139 9C070000 		.4byte	.LASF27
 1398 013d 06       		.byte	0x6
 1399 013e 2F       		.byte	0x2f
 1400 013f CE000000 		.4byte	0xce
 1401 0143 03       		.uleb128 0x3
 1402 0144 48000000 		.4byte	.LASF28
 1403 0148 06       		.byte	0x6
 1404 0149 30       		.byte	0x30
 1405 014a EF000000 		.4byte	0xef
 1406 014e 03       		.uleb128 0x3
 1407 014f 8C070000 		.4byte	.LASF29
 1408 0153 06       		.byte	0x6
 1409 0154 31       		.byte	0x31
 1410 0155 E4000000 		.4byte	0xe4
 1411 0159 03       		.uleb128 0x3
 1412 015a 25020000 		.4byte	.LASF30
 1413 015e 06       		.byte	0x6
 1414 015f 33       		.byte	0x33
 1415 0160 EF000000 		.4byte	0xef
 1416 0164 03       		.uleb128 0x3
 1417 0165 7F060000 		.4byte	.LASF31
 1418 0169 06       		.byte	0x6
 1419 016a 34       		.byte	0x34
 1420 016b EF000000 		.4byte	0xef
 1421 016f 03       		.uleb128 0x3
 1422 0170 2A000000 		.4byte	.LASF32
 1423 0174 06       		.byte	0x6
ARM GAS  /tmp/ccN64Vaw.s 			page 28


 1424 0175 35       		.byte	0x35
 1425 0176 EF000000 		.4byte	0xef
 1426 017a 03       		.uleb128 0x3
 1427 017b 38090000 		.4byte	.LASF33
 1428 017f 07       		.byte	0x7
 1429 0180 2A       		.byte	0x2a
 1430 0181 85010000 		.4byte	0x185
 1431 0185 08       		.uleb128 0x8
 1432 0186 38090000 		.4byte	.LASF33
 1433 018a 4C       		.byte	0x4c
 1434 018b 08       		.byte	0x8
 1435 018c 5E       		.byte	0x5e
 1436 018d 8E020000 		.4byte	0x28e
 1437 0191 09       		.uleb128 0x9
 1438 0192 78010000 		.4byte	.LASF34
 1439 0196 08       		.byte	0x8
 1440 0197 5F       		.byte	0x5f
 1441 0198 AF020000 		.4byte	0x2af
 1442 019c 00       		.byte	0
 1443 019d 09       		.uleb128 0x9
 1444 019e 87010000 		.4byte	.LASF35
 1445 01a2 08       		.byte	0x8
 1446 01a3 61       		.byte	0x61
 1447 01a4 AF020000 		.4byte	0x2af
 1448 01a8 04       		.byte	0x4
 1449 01a9 09       		.uleb128 0x9
 1450 01aa 3D030000 		.4byte	.LASF36
 1451 01ae 08       		.byte	0x8
 1452 01af 63       		.byte	0x63
 1453 01b0 43010000 		.4byte	0x143
 1454 01b4 08       		.byte	0x8
 1455 01b5 09       		.uleb128 0x9
 1456 01b6 39000000 		.4byte	.LASF37
 1457 01ba 08       		.byte	0x8
 1458 01bb 64       		.byte	0x64
 1459 01bc 72030000 		.4byte	0x372
 1460 01c0 0C       		.byte	0xc
 1461 01c1 09       		.uleb128 0x9
 1462 01c2 67010000 		.4byte	.LASF38
 1463 01c6 08       		.byte	0x8
 1464 01c7 66       		.byte	0x66
 1465 01c8 AF020000 		.4byte	0x2af
 1466 01cc 10       		.byte	0x10
 1467 01cd 09       		.uleb128 0x9
 1468 01ce 7B070000 		.4byte	.LASF39
 1469 01d2 08       		.byte	0x8
 1470 01d3 67       		.byte	0x67
 1471 01d4 AF020000 		.4byte	0x2af
 1472 01d8 14       		.byte	0x14
 1473 01d9 09       		.uleb128 0x9
 1474 01da D70A0000 		.4byte	.LASF40
 1475 01de 08       		.byte	0x8
 1476 01df 6E       		.byte	0x6e
 1477 01e0 C3000000 		.4byte	0xc3
 1478 01e4 18       		.byte	0x18
 1479 01e5 09       		.uleb128 0x9
 1480 01e6 970A0000 		.4byte	.LASF41
ARM GAS  /tmp/ccN64Vaw.s 			page 29


 1481 01ea 08       		.byte	0x8
 1482 01eb 74       		.byte	0x74
 1483 01ec 86040000 		.4byte	0x486
 1484 01f0 1C       		.byte	0x1c
 1485 01f1 09       		.uleb128 0x9
 1486 01f2 2E0B0000 		.4byte	.LASF42
 1487 01f6 08       		.byte	0x8
 1488 01f7 79       		.byte	0x79
 1489 01f8 22010000 		.4byte	0x122
 1490 01fc 20       		.byte	0x20
 1491 01fd 09       		.uleb128 0x9
 1492 01fe FC050000 		.4byte	.LASF43
 1493 0202 08       		.byte	0x8
 1494 0203 7D       		.byte	0x7d
 1495 0204 17010000 		.4byte	0x117
 1496 0208 21       		.byte	0x21
 1497 0209 09       		.uleb128 0x9
 1498 020a 55060000 		.4byte	.LASF44
 1499 020e 08       		.byte	0x8
 1500 020f 82       		.byte	0x82
 1501 0210 2D010000 		.4byte	0x12d
 1502 0214 22       		.byte	0x22
 1503 0215 09       		.uleb128 0x9
 1504 0216 0D020000 		.4byte	.LASF45
 1505 021a 08       		.byte	0x8
 1506 021b 88       		.byte	0x88
 1507 021c 38010000 		.4byte	0x138
 1508 0220 23       		.byte	0x23
 1509 0221 09       		.uleb128 0x9
 1510 0222 A5060000 		.4byte	.LASF46
 1511 0226 08       		.byte	0x8
 1512 0227 8F       		.byte	0x8f
 1513 0228 98030000 		.4byte	0x398
 1514 022c 24       		.byte	0x24
 1515 022d 0A       		.uleb128 0xa
 1516 022e 705F7500 		.ascii	"p_u\000"
 1517 0232 08       		.byte	0x8
 1518 0233 B4       		.byte	0xb4
 1519 0234 51040000 		.4byte	0x451
 1520 0238 28       		.byte	0x28
 1521 0239 09       		.uleb128 0x9
 1522 023a D4050000 		.4byte	.LASF47
 1523 023e 08       		.byte	0x8
 1524 023f B9       		.byte	0xb9
 1525 0240 D5020000 		.4byte	0x2d5
 1526 0244 2C       		.byte	0x2c
 1527 0245 09       		.uleb128 0x9
 1528 0246 55000000 		.4byte	.LASF48
 1529 024a 08       		.byte	0x8
 1530 024b BF       		.byte	0xbf
 1531 024c B5020000 		.4byte	0x2b5
 1532 0250 30       		.byte	0x30
 1533 0251 09       		.uleb128 0x9
 1534 0252 1C0B0000 		.4byte	.LASF49
 1535 0256 08       		.byte	0x8
 1536 0257 C3       		.byte	0xc3
 1537 0258 4E010000 		.4byte	0x14e
ARM GAS  /tmp/ccN64Vaw.s 			page 30


 1538 025c 38       		.byte	0x38
 1539 025d 09       		.uleb128 0x9
 1540 025e 1C040000 		.4byte	.LASF50
 1541 0262 08       		.byte	0x8
 1542 0263 C9       		.byte	0xc9
 1543 0264 59010000 		.4byte	0x159
 1544 0268 3C       		.byte	0x3c
 1545 0269 09       		.uleb128 0x9
 1546 026a 9C010000 		.4byte	.LASF51
 1547 026e 08       		.byte	0x8
 1548 026f D0       		.byte	0xd0
 1549 0270 8C040000 		.4byte	0x48c
 1550 0274 40       		.byte	0x40
 1551 0275 09       		.uleb128 0x9
 1552 0276 F9060000 		.4byte	.LASF52
 1553 027a 08       		.byte	0x8
 1554 027b D4       		.byte	0xd4
 1555 027c 43010000 		.4byte	0x143
 1556 0280 44       		.byte	0x44
 1557 0281 09       		.uleb128 0x9
 1558 0282 3B060000 		.4byte	.LASF53
 1559 0286 08       		.byte	0x8
 1560 0287 DA       		.byte	0xda
 1561 0288 B4000000 		.4byte	0xb4
 1562 028c 48       		.byte	0x48
 1563 028d 00       		.byte	0
 1564 028e 0B       		.uleb128 0xb
 1565 028f 08       		.byte	0x8
 1566 0290 07       		.byte	0x7
 1567 0291 61       		.byte	0x61
 1568 0292 AF020000 		.4byte	0x2af
 1569 0296 09       		.uleb128 0x9
 1570 0297 78010000 		.4byte	.LASF34
 1571 029b 07       		.byte	0x7
 1572 029c 62       		.byte	0x62
 1573 029d AF020000 		.4byte	0x2af
 1574 02a1 00       		.byte	0
 1575 02a2 09       		.uleb128 0x9
 1576 02a3 87010000 		.4byte	.LASF35
 1577 02a7 07       		.byte	0x7
 1578 02a8 64       		.byte	0x64
 1579 02a9 AF020000 		.4byte	0x2af
 1580 02ad 04       		.byte	0x4
 1581 02ae 00       		.byte	0
 1582 02af 06       		.uleb128 0x6
 1583 02b0 04       		.byte	0x4
 1584 02b1 7A010000 		.4byte	0x17a
 1585 02b5 03       		.uleb128 0x3
 1586 02b6 4E0A0000 		.4byte	.LASF54
 1587 02ba 07       		.byte	0x7
 1588 02bb 66       		.byte	0x66
 1589 02bc 8E020000 		.4byte	0x28e
 1590 02c0 0B       		.uleb128 0xb
 1591 02c1 04       		.byte	0x4
 1592 02c2 07       		.byte	0x7
 1593 02c3 6B       		.byte	0x6b
 1594 02c4 D5020000 		.4byte	0x2d5
ARM GAS  /tmp/ccN64Vaw.s 			page 31


 1595 02c8 09       		.uleb128 0x9
 1596 02c9 78010000 		.4byte	.LASF34
 1597 02cd 07       		.byte	0x7
 1598 02ce 6D       		.byte	0x6d
 1599 02cf AF020000 		.4byte	0x2af
 1600 02d3 00       		.byte	0
 1601 02d4 00       		.byte	0
 1602 02d5 03       		.uleb128 0x3
 1603 02d6 68060000 		.4byte	.LASF55
 1604 02da 07       		.byte	0x7
 1605 02db 70       		.byte	0x70
 1606 02dc C0020000 		.4byte	0x2c0
 1607 02e0 03       		.uleb128 0x3
 1608 02e1 C0010000 		.4byte	.LASF56
 1609 02e5 09       		.byte	0x9
 1610 02e6 E5       		.byte	0xe5
 1611 02e7 B4000000 		.4byte	0xb4
 1612 02eb 03       		.uleb128 0x3
 1613 02ec 88030000 		.4byte	.LASF57
 1614 02f0 09       		.byte	0x9
 1615 02f1 EB       		.byte	0xeb
 1616 02f2 FA000000 		.4byte	0xfa
 1617 02f6 0C       		.uleb128 0xc
 1618 02f7 0F040000 		.4byte	.LASF58
 1619 02fb 24       		.byte	0x24
 1620 02fc 09       		.byte	0x9
 1621 02fd 0C01     		.2byte	0x10c
 1622 02ff 72030000 		.4byte	0x372
 1623 0303 0D       		.uleb128 0xd
 1624 0304 723400   		.ascii	"r4\000"
 1625 0307 09       		.byte	0x9
 1626 0308 1F01     		.2byte	0x11f
 1627 030a E0020000 		.4byte	0x2e0
 1628 030e 00       		.byte	0
 1629 030f 0D       		.uleb128 0xd
 1630 0310 723500   		.ascii	"r5\000"
 1631 0313 09       		.byte	0x9
 1632 0314 2001     		.2byte	0x120
 1633 0316 E0020000 		.4byte	0x2e0
 1634 031a 04       		.byte	0x4
 1635 031b 0D       		.uleb128 0xd
 1636 031c 723600   		.ascii	"r6\000"
 1637 031f 09       		.byte	0x9
 1638 0320 2101     		.2byte	0x121
 1639 0322 E0020000 		.4byte	0x2e0
 1640 0326 08       		.byte	0x8
 1641 0327 0D       		.uleb128 0xd
 1642 0328 723700   		.ascii	"r7\000"
 1643 032b 09       		.byte	0x9
 1644 032c 2201     		.2byte	0x122
 1645 032e E0020000 		.4byte	0x2e0
 1646 0332 0C       		.byte	0xc
 1647 0333 0D       		.uleb128 0xd
 1648 0334 723800   		.ascii	"r8\000"
 1649 0337 09       		.byte	0x9
 1650 0338 2301     		.2byte	0x123
 1651 033a E0020000 		.4byte	0x2e0
ARM GAS  /tmp/ccN64Vaw.s 			page 32


 1652 033e 10       		.byte	0x10
 1653 033f 0D       		.uleb128 0xd
 1654 0340 723900   		.ascii	"r9\000"
 1655 0343 09       		.byte	0x9
 1656 0344 2401     		.2byte	0x124
 1657 0346 E0020000 		.4byte	0x2e0
 1658 034a 14       		.byte	0x14
 1659 034b 0D       		.uleb128 0xd
 1660 034c 72313000 		.ascii	"r10\000"
 1661 0350 09       		.byte	0x9
 1662 0351 2501     		.2byte	0x125
 1663 0353 E0020000 		.4byte	0x2e0
 1664 0357 18       		.byte	0x18
 1665 0358 0D       		.uleb128 0xd
 1666 0359 72313100 		.ascii	"r11\000"
 1667 035d 09       		.byte	0x9
 1668 035e 2601     		.2byte	0x126
 1669 0360 E0020000 		.4byte	0x2e0
 1670 0364 1C       		.byte	0x1c
 1671 0365 0D       		.uleb128 0xd
 1672 0366 6C7200   		.ascii	"lr\000"
 1673 0369 09       		.byte	0x9
 1674 036a 2701     		.2byte	0x127
 1675 036c E0020000 		.4byte	0x2e0
 1676 0370 20       		.byte	0x20
 1677 0371 00       		.byte	0
 1678 0372 0C       		.uleb128 0xc
 1679 0373 31020000 		.4byte	.LASF59
 1680 0377 04       		.byte	0x4
 1681 0378 09       		.byte	0x9
 1682 0379 3101     		.2byte	0x131
 1683 037b 8D030000 		.4byte	0x38d
 1684 037f 0D       		.uleb128 0xd
 1685 0380 72313300 		.ascii	"r13\000"
 1686 0384 09       		.byte	0x9
 1687 0385 3201     		.2byte	0x132
 1688 0387 8D030000 		.4byte	0x38d
 1689 038b 00       		.byte	0
 1690 038c 00       		.byte	0
 1691 038d 06       		.uleb128 0x6
 1692 038e 04       		.byte	0x4
 1693 038f F6020000 		.4byte	0x2f6
 1694 0393 0E       		.uleb128 0xe
 1695 0394 EF000000 		.4byte	0xef
 1696 0398 0E       		.uleb128 0xe
 1697 0399 6F010000 		.4byte	0x16f
 1698 039d 08       		.uleb128 0x8
 1699 039e 31050000 		.4byte	.LASF60
 1700 03a2 10       		.byte	0x10
 1701 03a3 0A       		.byte	0xa
 1702 03a4 2C       		.byte	0x2c
 1703 03a5 CE030000 		.4byte	0x3ce
 1704 03a9 09       		.uleb128 0x9
 1705 03aa 55050000 		.4byte	.LASF61
 1706 03ae 0A       		.byte	0xa
 1707 03af 2D       		.byte	0x2d
 1708 03b0 B5020000 		.4byte	0x2b5
ARM GAS  /tmp/ccN64Vaw.s 			page 33


 1709 03b4 00       		.byte	0
 1710 03b5 09       		.uleb128 0x9
 1711 03b6 11010000 		.4byte	.LASF62
 1712 03ba 0A       		.byte	0xa
 1713 03bb 2F       		.byte	0x2f
 1714 03bc AF020000 		.4byte	0x2af
 1715 03c0 08       		.byte	0x8
 1716 03c1 09       		.uleb128 0x9
 1717 03c2 EB0A0000 		.4byte	.LASF63
 1718 03c6 0A       		.byte	0xa
 1719 03c7 31       		.byte	0x31
 1720 03c8 CE030000 		.4byte	0x3ce
 1721 03cc 0C       		.byte	0xc
 1722 03cd 00       		.byte	0
 1723 03ce 06       		.uleb128 0x6
 1724 03cf 04       		.byte	0x4
 1725 03d0 9D030000 		.4byte	0x39d
 1726 03d4 03       		.uleb128 0x3
 1727 03d5 31050000 		.4byte	.LASF60
 1728 03d9 0A       		.byte	0xa
 1729 03da 33       		.byte	0x33
 1730 03db 9D030000 		.4byte	0x39d
 1731 03df 03       		.uleb128 0x3
 1732 03e0 82090000 		.4byte	.LASF64
 1733 03e4 0B       		.byte	0xb
 1734 03e5 2C       		.byte	0x2c
 1735 03e6 EA030000 		.4byte	0x3ea
 1736 03ea 08       		.uleb128 0x8
 1737 03eb 82090000 		.4byte	.LASF64
 1738 03ef 10       		.byte	0x10
 1739 03f0 0B       		.byte	0xb
 1740 03f1 31       		.byte	0x31
 1741 03f2 27040000 		.4byte	0x427
 1742 03f6 09       		.uleb128 0x9
 1743 03f7 9D040000 		.4byte	.LASF65
 1744 03fb 0B       		.byte	0xb
 1745 03fc 32       		.byte	0x32
 1746 03fd 27040000 		.4byte	0x427
 1747 0401 00       		.byte	0
 1748 0402 09       		.uleb128 0x9
 1749 0403 220B0000 		.4byte	.LASF66
 1750 0407 0B       		.byte	0xb
 1751 0408 35       		.byte	0x35
 1752 0409 AF020000 		.4byte	0x2af
 1753 040d 04       		.byte	0x4
 1754 040e 09       		.uleb128 0x9
 1755 040f CA0A0000 		.4byte	.LASF67
 1756 0413 0B       		.byte	0xb
 1757 0414 37       		.byte	0x37
 1758 0415 59010000 		.4byte	0x159
 1759 0419 08       		.byte	0x8
 1760 041a 09       		.uleb128 0x9
 1761 041b A8000000 		.4byte	.LASF68
 1762 041f 0B       		.byte	0xb
 1763 0420 3A       		.byte	0x3a
 1764 0421 64010000 		.4byte	0x164
 1765 0425 0C       		.byte	0xc
ARM GAS  /tmp/ccN64Vaw.s 			page 34


 1766 0426 00       		.byte	0
 1767 0427 06       		.uleb128 0x6
 1768 0428 04       		.byte	0x4
 1769 0429 DF030000 		.4byte	0x3df
 1770 042d 08       		.uleb128 0x8
 1771 042e 65040000 		.4byte	.LASF69
 1772 0432 04       		.byte	0x4
 1773 0433 0B       		.byte	0xb
 1774 0434 41       		.byte	0x41
 1775 0435 46040000 		.4byte	0x446
 1776 0439 09       		.uleb128 0x9
 1777 043a 53040000 		.4byte	.LASF70
 1778 043e 0B       		.byte	0xb
 1779 043f 42       		.byte	0x42
 1780 0440 27040000 		.4byte	0x427
 1781 0444 00       		.byte	0
 1782 0445 00       		.byte	0
 1783 0446 03       		.uleb128 0x3
 1784 0447 65040000 		.4byte	.LASF69
 1785 044b 0B       		.byte	0xb
 1786 044c 45       		.byte	0x45
 1787 044d 2D040000 		.4byte	0x42d
 1788 0451 0F       		.uleb128 0xf
 1789 0452 04       		.byte	0x4
 1790 0453 08       		.byte	0x8
 1791 0454 96       		.byte	0x96
 1792 0455 86040000 		.4byte	0x486
 1793 0459 10       		.uleb128 0x10
 1794 045a 6C0A0000 		.4byte	.LASF71
 1795 045e 08       		.byte	0x8
 1796 045f 9D       		.byte	0x9d
 1797 0460 4E010000 		.4byte	0x14e
 1798 0464 10       		.uleb128 0x10
 1799 0465 19010000 		.4byte	.LASF72
 1800 0469 08       		.byte	0x8
 1801 046a A4       		.byte	0xa4
 1802 046b 4E010000 		.4byte	0x14e
 1803 046f 10       		.uleb128 0x10
 1804 0470 66030000 		.4byte	.LASF73
 1805 0474 08       		.byte	0x8
 1806 0475 AB       		.byte	0xab
 1807 0476 B4000000 		.4byte	0xb4
 1808 047a 10       		.uleb128 0x10
 1809 047b 37010000 		.4byte	.LASF74
 1810 047f 08       		.byte	0x8
 1811 0480 B2       		.byte	0xb2
 1812 0481 59010000 		.4byte	0x159
 1813 0485 00       		.byte	0
 1814 0486 06       		.uleb128 0x6
 1815 0487 04       		.byte	0x4
 1816 0488 EB020000 		.4byte	0x2eb
 1817 048c 06       		.uleb128 0x6
 1818 048d 04       		.byte	0x4
 1819 048e D4030000 		.4byte	0x3d4
 1820 0492 06       		.uleb128 0x6
 1821 0493 04       		.byte	0x4
 1822 0494 98040000 		.4byte	0x498
ARM GAS  /tmp/ccN64Vaw.s 			page 35


 1823 0498 11       		.uleb128 0x11
 1824 0499 4E010000 		.4byte	0x14e
 1825 049d A7040000 		.4byte	0x4a7
 1826 04a1 12       		.uleb128 0x12
 1827 04a2 B4000000 		.4byte	0xb4
 1828 04a6 00       		.byte	0
 1829 04a7 03       		.uleb128 0x3
 1830 04a8 4F030000 		.4byte	.LASF75
 1831 04ac 0C       		.byte	0xc
 1832 04ad 37       		.byte	0x37
 1833 04ae B2040000 		.4byte	0x4b2
 1834 04b2 08       		.uleb128 0x8
 1835 04b3 4F030000 		.4byte	.LASF75
 1836 04b7 24       		.byte	0x24
 1837 04b8 0C       		.byte	0xc
 1838 04b9 45       		.byte	0x45
 1839 04ba 1F050000 		.4byte	0x51f
 1840 04be 09       		.uleb128 0x9
 1841 04bf E6070000 		.4byte	.LASF76
 1842 04c3 0C       		.byte	0xc
 1843 04c4 46       		.byte	0x46
 1844 04c5 B5020000 		.4byte	0x2b5
 1845 04c9 00       		.byte	0
 1846 04ca 09       		.uleb128 0x9
 1847 04cb 5B040000 		.4byte	.LASF77
 1848 04cf 0C       		.byte	0xc
 1849 04d0 47       		.byte	0x47
 1850 04d1 2C000000 		.4byte	0x2c
 1851 04d5 08       		.byte	0x8
 1852 04d6 09       		.uleb128 0x9
 1853 04d7 4A010000 		.4byte	.LASF78
 1854 04db 0C       		.byte	0xc
 1855 04dc 48       		.byte	0x48
 1856 04dd 41050000 		.4byte	0x541
 1857 04e1 0C       		.byte	0xc
 1858 04e2 09       		.uleb128 0x9
 1859 04e3 2C010000 		.4byte	.LASF79
 1860 04e7 0C       		.byte	0xc
 1861 04e8 49       		.byte	0x49
 1862 04e9 41050000 		.4byte	0x541
 1863 04ed 10       		.byte	0x10
 1864 04ee 09       		.uleb128 0x9
 1865 04ef BF040000 		.4byte	.LASF80
 1866 04f3 0C       		.byte	0xc
 1867 04f4 4B       		.byte	0x4b
 1868 04f5 41050000 		.4byte	0x541
 1869 04f9 14       		.byte	0x14
 1870 04fa 09       		.uleb128 0x9
 1871 04fb 7F010000 		.4byte	.LASF81
 1872 04ff 0C       		.byte	0xc
 1873 0500 4C       		.byte	0x4c
 1874 0501 41050000 		.4byte	0x541
 1875 0505 18       		.byte	0x18
 1876 0506 09       		.uleb128 0x9
 1877 0507 5E010000 		.4byte	.LASF82
 1878 050b 0C       		.byte	0xc
 1879 050c 4D       		.byte	0x4d
ARM GAS  /tmp/ccN64Vaw.s 			page 36


 1880 050d 1F050000 		.4byte	0x51f
 1881 0511 1C       		.byte	0x1c
 1882 0512 09       		.uleb128 0x9
 1883 0513 8F020000 		.4byte	.LASF83
 1884 0517 0C       		.byte	0xc
 1885 0518 4E       		.byte	0x4e
 1886 0519 B4000000 		.4byte	0xb4
 1887 051d 20       		.byte	0x20
 1888 051e 00       		.byte	0
 1889 051f 03       		.uleb128 0x3
 1890 0520 CA050000 		.4byte	.LASF84
 1891 0524 0C       		.byte	0xc
 1892 0525 3A       		.byte	0x3a
 1893 0526 2A050000 		.4byte	0x52a
 1894 052a 06       		.uleb128 0x6
 1895 052b 04       		.byte	0x4
 1896 052c 30050000 		.4byte	0x530
 1897 0530 13       		.uleb128 0x13
 1898 0531 3B050000 		.4byte	0x53b
 1899 0535 12       		.uleb128 0x12
 1900 0536 3B050000 		.4byte	0x53b
 1901 053a 00       		.byte	0
 1902 053b 06       		.uleb128 0x6
 1903 053c 04       		.byte	0x4
 1904 053d A7040000 		.4byte	0x4a7
 1905 0541 06       		.uleb128 0x6
 1906 0542 04       		.byte	0x4
 1907 0543 CE000000 		.4byte	0xce
 1908 0547 03       		.uleb128 0x3
 1909 0548 8C0A0000 		.4byte	.LASF85
 1910 054c 0C       		.byte	0xc
 1911 054d 82       		.byte	0x82
 1912 054e A7040000 		.4byte	0x4a7
 1913 0552 03       		.uleb128 0x3
 1914 0553 A1030000 		.4byte	.LASF86
 1915 0557 0C       		.byte	0xc
 1916 0558 F5       		.byte	0xf5
 1917 0559 A7040000 		.4byte	0x4a7
 1918 055d 08       		.uleb128 0x8
 1919 055e F0070000 		.4byte	.LASF87
 1920 0562 10       		.byte	0x10
 1921 0563 0D       		.byte	0xd
 1922 0564 48       		.byte	0x48
 1923 0565 9A050000 		.4byte	0x59a
 1924 0569 09       		.uleb128 0x9
 1925 056a 87000000 		.4byte	.LASF88
 1926 056e 0D       		.byte	0xd
 1927 056f 49       		.byte	0x49
 1928 0570 BE050000 		.4byte	0x5be
 1929 0574 00       		.byte	0
 1930 0575 09       		.uleb128 0x9
 1931 0576 04060000 		.4byte	.LASF89
 1932 057a 0D       		.byte	0xd
 1933 057b 49       		.byte	0x49
 1934 057c DD050000 		.4byte	0x5dd
 1935 0580 04       		.byte	0x4
 1936 0581 0A       		.uleb128 0xa
ARM GAS  /tmp/ccN64Vaw.s 			page 37


 1937 0582 70757400 		.ascii	"put\000"
 1938 0586 0D       		.byte	0xd
 1939 0587 49       		.byte	0x49
 1940 0588 F7050000 		.4byte	0x5f7
 1941 058c 08       		.byte	0x8
 1942 058d 0A       		.uleb128 0xa
 1943 058e 67657400 		.ascii	"get\000"
 1944 0592 0D       		.byte	0xd
 1945 0593 49       		.byte	0x49
 1946 0594 92040000 		.4byte	0x492
 1947 0598 0C       		.byte	0xc
 1948 0599 00       		.byte	0
 1949 059a 11       		.uleb128 0x11
 1950 059b 2C000000 		.4byte	0x2c
 1951 059f B3050000 		.4byte	0x5b3
 1952 05a3 12       		.uleb128 0x12
 1953 05a4 B4000000 		.4byte	0xb4
 1954 05a8 12       		.uleb128 0x12
 1955 05a9 B3050000 		.4byte	0x5b3
 1956 05ad 12       		.uleb128 0x12
 1957 05ae 2C000000 		.4byte	0x2c
 1958 05b2 00       		.byte	0
 1959 05b3 06       		.uleb128 0x6
 1960 05b4 04       		.byte	0x4
 1961 05b5 B9050000 		.4byte	0x5b9
 1962 05b9 07       		.uleb128 0x7
 1963 05ba CE000000 		.4byte	0xce
 1964 05be 06       		.uleb128 0x6
 1965 05bf 04       		.byte	0x4
 1966 05c0 9A050000 		.4byte	0x59a
 1967 05c4 11       		.uleb128 0x11
 1968 05c5 2C000000 		.4byte	0x2c
 1969 05c9 DD050000 		.4byte	0x5dd
 1970 05cd 12       		.uleb128 0x12
 1971 05ce B4000000 		.4byte	0xb4
 1972 05d2 12       		.uleb128 0x12
 1973 05d3 41050000 		.4byte	0x541
 1974 05d7 12       		.uleb128 0x12
 1975 05d8 2C000000 		.4byte	0x2c
 1976 05dc 00       		.byte	0
 1977 05dd 06       		.uleb128 0x6
 1978 05de 04       		.byte	0x4
 1979 05df C4050000 		.4byte	0x5c4
 1980 05e3 11       		.uleb128 0x11
 1981 05e4 4E010000 		.4byte	0x14e
 1982 05e8 F7050000 		.4byte	0x5f7
 1983 05ec 12       		.uleb128 0x12
 1984 05ed B4000000 		.4byte	0xb4
 1985 05f1 12       		.uleb128 0x12
 1986 05f2 CE000000 		.4byte	0xce
 1987 05f6 00       		.byte	0
 1988 05f7 06       		.uleb128 0x6
 1989 05f8 04       		.byte	0x4
 1990 05f9 E3050000 		.4byte	0x5e3
 1991 05fd 0B       		.uleb128 0xb
 1992 05fe 04       		.byte	0x4
 1993 05ff 0D       		.byte	0xd
ARM GAS  /tmp/ccN64Vaw.s 			page 38


 1994 0600 51       		.byte	0x51
 1995 0601 12060000 		.4byte	0x612
 1996 0605 0A       		.uleb128 0xa
 1997 0606 766D7400 		.ascii	"vmt\000"
 1998 060a 0D       		.byte	0xd
 1999 060b 53       		.byte	0x53
 2000 060c 12060000 		.4byte	0x612
 2001 0610 00       		.byte	0
 2002 0611 00       		.byte	0
 2003 0612 06       		.uleb128 0x6
 2004 0613 04       		.byte	0x4
 2005 0614 18060000 		.4byte	0x618
 2006 0618 07       		.uleb128 0x7
 2007 0619 5D050000 		.4byte	0x55d
 2008 061d 03       		.uleb128 0x3
 2009 061e 8D000000 		.4byte	.LASF90
 2010 0622 0D       		.byte	0xd
 2011 0623 55       		.byte	0x55
 2012 0624 FD050000 		.4byte	0x5fd
 2013 0628 07       		.uleb128 0x7
 2014 0629 93030000 		.4byte	0x393
 2015 062d 14       		.uleb128 0x14
 2016 062e EF000000 		.4byte	0xef
 2017 0632 3D060000 		.4byte	0x63d
 2018 0636 15       		.uleb128 0x15
 2019 0637 AD000000 		.4byte	0xad
 2020 063b 01       		.byte	0x1
 2021 063c 00       		.byte	0
 2022 063d 14       		.uleb128 0x14
 2023 063e EF000000 		.4byte	0xef
 2024 0642 4D060000 		.4byte	0x64d
 2025 0646 15       		.uleb128 0x15
 2026 0647 AD000000 		.4byte	0xad
 2027 064b 03       		.byte	0x3
 2028 064c 00       		.byte	0
 2029 064d 0E       		.uleb128 0xe
 2030 064e D9000000 		.4byte	0xd9
 2031 0652 0E       		.uleb128 0xe
 2032 0653 E4000000 		.4byte	0xe4
 2033 0657 16       		.uleb128 0x16
 2034 0658 18       		.byte	0x18
 2035 0659 0E       		.byte	0xe
 2036 065a B102     		.2byte	0x2b1
 2037 065c AE060000 		.4byte	0x6ae
 2038 0660 0D       		.uleb128 0xd
 2039 0661 435200   		.ascii	"CR\000"
 2040 0664 0E       		.byte	0xe
 2041 0665 B302     		.2byte	0x2b3
 2042 0667 93030000 		.4byte	0x393
 2043 066b 00       		.byte	0
 2044 066c 17       		.uleb128 0x17
 2045 066d C50A0000 		.4byte	.LASF91
 2046 0671 0E       		.byte	0xe
 2047 0672 B402     		.2byte	0x2b4
 2048 0674 93030000 		.4byte	0x393
 2049 0678 04       		.byte	0x4
 2050 0679 0D       		.uleb128 0xd
ARM GAS  /tmp/ccN64Vaw.s 			page 39


 2051 067a 50415200 		.ascii	"PAR\000"
 2052 067e 0E       		.byte	0xe
 2053 067f B502     		.2byte	0x2b5
 2054 0681 93030000 		.4byte	0x393
 2055 0685 08       		.byte	0x8
 2056 0686 17       		.uleb128 0x17
 2057 0687 57080000 		.4byte	.LASF92
 2058 068b 0E       		.byte	0xe
 2059 068c B602     		.2byte	0x2b6
 2060 068e 93030000 		.4byte	0x393
 2061 0692 0C       		.byte	0xc
 2062 0693 17       		.uleb128 0x17
 2063 0694 00000000 		.4byte	.LASF93
 2064 0698 0E       		.byte	0xe
 2065 0699 B702     		.2byte	0x2b7
 2066 069b 93030000 		.4byte	0x393
 2067 069f 10       		.byte	0x10
 2068 06a0 0D       		.uleb128 0xd
 2069 06a1 46435200 		.ascii	"FCR\000"
 2070 06a5 0E       		.byte	0xe
 2071 06a6 B802     		.2byte	0x2b8
 2072 06a8 93030000 		.4byte	0x393
 2073 06ac 14       		.byte	0x14
 2074 06ad 00       		.byte	0
 2075 06ae 18       		.uleb128 0x18
 2076 06af 8B060000 		.4byte	.LASF94
 2077 06b3 0E       		.byte	0xe
 2078 06b4 B902     		.2byte	0x2b9
 2079 06b6 57060000 		.4byte	0x657
 2080 06ba 16       		.uleb128 0x16
 2081 06bb 84       		.byte	0x84
 2082 06bc 0E       		.byte	0xe
 2083 06bd C704     		.2byte	0x4c7
 2084 06bf C8070000 		.4byte	0x7c8
 2085 06c3 17       		.uleb128 0x17
 2086 06c4 5B0A0000 		.4byte	.LASF95
 2087 06c8 0E       		.byte	0xe
 2088 06c9 C904     		.2byte	0x4c9
 2089 06cb 93030000 		.4byte	0x393
 2090 06cf 00       		.byte	0
 2091 06d0 17       		.uleb128 0x17
 2092 06d1 860A0000 		.4byte	.LASF96
 2093 06d5 0E       		.byte	0xe
 2094 06d6 CA04     		.2byte	0x4ca
 2095 06d8 93030000 		.4byte	0x393
 2096 06dc 04       		.byte	0x4
 2097 06dd 0D       		.uleb128 0xd
 2098 06de 41524700 		.ascii	"ARG\000"
 2099 06e2 0E       		.byte	0xe
 2100 06e3 CB04     		.2byte	0x4cb
 2101 06e5 93030000 		.4byte	0x393
 2102 06e9 08       		.byte	0x8
 2103 06ea 0D       		.uleb128 0xd
 2104 06eb 434D4400 		.ascii	"CMD\000"
 2105 06ef 0E       		.byte	0xe
 2106 06f0 CC04     		.2byte	0x4cc
 2107 06f2 93030000 		.4byte	0x393
ARM GAS  /tmp/ccN64Vaw.s 			page 40


 2108 06f6 0C       		.byte	0xc
 2109 06f7 17       		.uleb128 0x17
 2110 06f8 5C070000 		.4byte	.LASF97
 2111 06fc 0E       		.byte	0xe
 2112 06fd CD04     		.2byte	0x4cd
 2113 06ff 28060000 		.4byte	0x628
 2114 0703 10       		.byte	0x10
 2115 0704 17       		.uleb128 0x17
 2116 0705 DB000000 		.4byte	.LASF98
 2117 0709 0E       		.byte	0xe
 2118 070a CE04     		.2byte	0x4ce
 2119 070c 28060000 		.4byte	0x628
 2120 0710 14       		.byte	0x14
 2121 0711 17       		.uleb128 0x17
 2122 0712 E1000000 		.4byte	.LASF99
 2123 0716 0E       		.byte	0xe
 2124 0717 CF04     		.2byte	0x4cf
 2125 0719 28060000 		.4byte	0x628
 2126 071d 18       		.byte	0x18
 2127 071e 17       		.uleb128 0x17
 2128 071f E7000000 		.4byte	.LASF100
 2129 0723 0E       		.byte	0xe
 2130 0724 D004     		.2byte	0x4d0
 2131 0726 28060000 		.4byte	0x628
 2132 072a 1C       		.byte	0x1c
 2133 072b 17       		.uleb128 0x17
 2134 072c ED000000 		.4byte	.LASF101
 2135 0730 0E       		.byte	0xe
 2136 0731 D104     		.2byte	0x4d1
 2137 0733 28060000 		.4byte	0x628
 2138 0737 20       		.byte	0x20
 2139 0738 17       		.uleb128 0x17
 2140 0739 14000000 		.4byte	.LASF102
 2141 073d 0E       		.byte	0xe
 2142 073e D204     		.2byte	0x4d2
 2143 0740 93030000 		.4byte	0x393
 2144 0744 24       		.byte	0x24
 2145 0745 17       		.uleb128 0x17
 2146 0746 50000000 		.4byte	.LASF103
 2147 074a 0E       		.byte	0xe
 2148 074b D304     		.2byte	0x4d3
 2149 074d 93030000 		.4byte	0x393
 2150 0751 28       		.byte	0x28
 2151 0752 17       		.uleb128 0x17
 2152 0753 98050000 		.4byte	.LASF104
 2153 0757 0E       		.byte	0xe
 2154 0758 D404     		.2byte	0x4d4
 2155 075a 93030000 		.4byte	0x393
 2156 075e 2C       		.byte	0x2c
 2157 075f 17       		.uleb128 0x17
 2158 0760 61060000 		.4byte	.LASF105
 2159 0764 0E       		.byte	0xe
 2160 0765 D504     		.2byte	0x4d5
 2161 0767 28060000 		.4byte	0x628
 2162 076b 30       		.byte	0x30
 2163 076c 0D       		.uleb128 0xd
 2164 076d 53544100 		.ascii	"STA\000"
ARM GAS  /tmp/ccN64Vaw.s 			page 41


 2165 0771 0E       		.byte	0xe
 2166 0772 D604     		.2byte	0x4d6
 2167 0774 28060000 		.4byte	0x628
 2168 0778 34       		.byte	0x34
 2169 0779 0D       		.uleb128 0xd
 2170 077a 49435200 		.ascii	"ICR\000"
 2171 077e 0E       		.byte	0xe
 2172 077f D704     		.2byte	0x4d7
 2173 0781 93030000 		.4byte	0x393
 2174 0785 38       		.byte	0x38
 2175 0786 17       		.uleb128 0x17
 2176 0787 C9080000 		.4byte	.LASF106
 2177 078b 0E       		.byte	0xe
 2178 078c D804     		.2byte	0x4d8
 2179 078e 93030000 		.4byte	0x393
 2180 0792 3C       		.byte	0x3c
 2181 0793 17       		.uleb128 0x17
 2182 0794 59020000 		.4byte	.LASF107
 2183 0798 0E       		.byte	0xe
 2184 0799 D904     		.2byte	0x4d9
 2185 079b 2D060000 		.4byte	0x62d
 2186 079f 40       		.byte	0x40
 2187 07a0 17       		.uleb128 0x17
 2188 07a1 03010000 		.4byte	.LASF108
 2189 07a5 0E       		.byte	0xe
 2190 07a6 DA04     		.2byte	0x4da
 2191 07a8 28060000 		.4byte	0x628
 2192 07ac 48       		.byte	0x48
 2193 07ad 17       		.uleb128 0x17
 2194 07ae 63020000 		.4byte	.LASF109
 2195 07b2 0E       		.byte	0xe
 2196 07b3 DB04     		.2byte	0x4db
 2197 07b5 C8070000 		.4byte	0x7c8
 2198 07b9 4C       		.byte	0x4c
 2199 07ba 17       		.uleb128 0x17
 2200 07bb E9040000 		.4byte	.LASF110
 2201 07bf 0E       		.byte	0xe
 2202 07c0 DC04     		.2byte	0x4dc
 2203 07c2 93030000 		.4byte	0x393
 2204 07c6 80       		.byte	0x80
 2205 07c7 00       		.byte	0
 2206 07c8 14       		.uleb128 0x14
 2207 07c9 EF000000 		.4byte	0xef
 2208 07cd D8070000 		.4byte	0x7d8
 2209 07d1 15       		.uleb128 0x15
 2210 07d2 AD000000 		.4byte	0xad
 2211 07d6 0C       		.byte	0xc
 2212 07d7 00       		.byte	0
 2213 07d8 18       		.uleb128 0x18
 2214 07d9 ED030000 		.4byte	.LASF111
 2215 07dd 0E       		.byte	0xe
 2216 07de DD04     		.2byte	0x4dd
 2217 07e0 BA060000 		.4byte	0x6ba
 2218 07e4 16       		.uleb128 0x16
 2219 07e5 1C       		.byte	0x1c
 2220 07e6 0E       		.byte	0xe
 2221 07e7 2905     		.2byte	0x529
ARM GAS  /tmp/ccN64Vaw.s 			page 42


 2222 07e9 A2080000 		.4byte	0x8a2
 2223 07ed 0D       		.uleb128 0xd
 2224 07ee 535200   		.ascii	"SR\000"
 2225 07f1 0E       		.byte	0xe
 2226 07f2 2B05     		.2byte	0x52b
 2227 07f4 4D060000 		.4byte	0x64d
 2228 07f8 00       		.byte	0
 2229 07f9 17       		.uleb128 0x17
 2230 07fa 59020000 		.4byte	.LASF107
 2231 07fe 0E       		.byte	0xe
 2232 07ff 2C05     		.2byte	0x52c
 2233 0801 D9000000 		.4byte	0xd9
 2234 0805 02       		.byte	0x2
 2235 0806 0D       		.uleb128 0xd
 2236 0807 445200   		.ascii	"DR\000"
 2237 080a 0E       		.byte	0xe
 2238 080b 2D05     		.2byte	0x52d
 2239 080d 4D060000 		.4byte	0x64d
 2240 0811 04       		.byte	0x4
 2241 0812 17       		.uleb128 0x17
 2242 0813 63020000 		.4byte	.LASF109
 2243 0817 0E       		.byte	0xe
 2244 0818 2E05     		.2byte	0x52e
 2245 081a D9000000 		.4byte	0xd9
 2246 081e 06       		.byte	0x6
 2247 081f 0D       		.uleb128 0xd
 2248 0820 42525200 		.ascii	"BRR\000"
 2249 0824 0E       		.byte	0xe
 2250 0825 2F05     		.2byte	0x52f
 2251 0827 4D060000 		.4byte	0x64d
 2252 082b 08       		.byte	0x8
 2253 082c 17       		.uleb128 0x17
 2254 082d F4020000 		.4byte	.LASF112
 2255 0831 0E       		.byte	0xe
 2256 0832 3005     		.2byte	0x530
 2257 0834 D9000000 		.4byte	0xd9
 2258 0838 0A       		.byte	0xa
 2259 0839 0D       		.uleb128 0xd
 2260 083a 43523100 		.ascii	"CR1\000"
 2261 083e 0E       		.byte	0xe
 2262 083f 3105     		.2byte	0x531
 2263 0841 4D060000 		.4byte	0x64d
 2264 0845 0C       		.byte	0xc
 2265 0846 17       		.uleb128 0x17
 2266 0847 7B020000 		.4byte	.LASF113
 2267 084b 0E       		.byte	0xe
 2268 084c 3205     		.2byte	0x532
 2269 084e D9000000 		.4byte	0xd9
 2270 0852 0E       		.byte	0xe
 2271 0853 0D       		.uleb128 0xd
 2272 0854 43523200 		.ascii	"CR2\000"
 2273 0858 0E       		.byte	0xe
 2274 0859 3305     		.2byte	0x533
 2275 085b 4D060000 		.4byte	0x64d
 2276 085f 10       		.byte	0x10
 2277 0860 17       		.uleb128 0x17
 2278 0861 85020000 		.4byte	.LASF114
ARM GAS  /tmp/ccN64Vaw.s 			page 43


 2279 0865 0E       		.byte	0xe
 2280 0866 3405     		.2byte	0x534
 2281 0868 D9000000 		.4byte	0xd9
 2282 086c 12       		.byte	0x12
 2283 086d 0D       		.uleb128 0xd
 2284 086e 43523300 		.ascii	"CR3\000"
 2285 0872 0E       		.byte	0xe
 2286 0873 3505     		.2byte	0x535
 2287 0875 4D060000 		.4byte	0x64d
 2288 0879 14       		.byte	0x14
 2289 087a 17       		.uleb128 0x17
 2290 087b FE020000 		.4byte	.LASF115
 2291 087f 0E       		.byte	0xe
 2292 0880 3605     		.2byte	0x536
 2293 0882 D9000000 		.4byte	0xd9
 2294 0886 16       		.byte	0x16
 2295 0887 17       		.uleb128 0x17
 2296 0888 78050000 		.4byte	.LASF116
 2297 088c 0E       		.byte	0xe
 2298 088d 3705     		.2byte	0x537
 2299 088f 4D060000 		.4byte	0x64d
 2300 0893 18       		.byte	0x18
 2301 0894 17       		.uleb128 0x17
 2302 0895 96020000 		.4byte	.LASF117
 2303 0899 0E       		.byte	0xe
 2304 089a 3805     		.2byte	0x538
 2305 089c D9000000 		.4byte	0xd9
 2306 08a0 1A       		.byte	0x1a
 2307 08a1 00       		.byte	0
 2308 08a2 18       		.uleb128 0x18
 2309 08a3 93030000 		.4byte	.LASF118
 2310 08a7 0E       		.byte	0xe
 2311 08a8 3905     		.2byte	0x539
 2312 08aa E4070000 		.4byte	0x7e4
 2313 08ae 0B       		.uleb128 0xb
 2314 08af 0C       		.byte	0xc
 2315 08b0 0F       		.byte	0xf
 2316 08b1 DA       		.byte	0xda
 2317 08b2 F3080000 		.4byte	0x8f3
 2318 08b6 09       		.uleb128 0x9
 2319 08b7 AD030000 		.4byte	.LASF119
 2320 08bb 0F       		.byte	0xf
 2321 08bc DB       		.byte	0xdb
 2322 08bd F3080000 		.4byte	0x8f3
 2323 08c1 00       		.byte	0
 2324 08c2 09       		.uleb128 0x9
 2325 08c3 D20A0000 		.4byte	.LASF120
 2326 08c7 0F       		.byte	0xf
 2327 08c8 DC       		.byte	0xdc
 2328 08c9 F9080000 		.4byte	0x8f9
 2329 08cd 04       		.byte	0x4
 2330 08ce 09       		.uleb128 0x9
 2331 08cf 18030000 		.4byte	.LASF121
 2332 08d3 0F       		.byte	0xf
 2333 08d4 DD       		.byte	0xdd
 2334 08d5 CE000000 		.4byte	0xce
 2335 08d9 08       		.byte	0x8
ARM GAS  /tmp/ccN64Vaw.s 			page 44


 2336 08da 09       		.uleb128 0x9
 2337 08db 09060000 		.4byte	.LASF122
 2338 08df 0F       		.byte	0xf
 2339 08e0 DF       		.byte	0xdf
 2340 08e1 CE000000 		.4byte	0xce
 2341 08e5 09       		.byte	0x9
 2342 08e6 09       		.uleb128 0x9
 2343 08e7 BB070000 		.4byte	.LASF123
 2344 08eb 0F       		.byte	0xf
 2345 08ec E0       		.byte	0xe0
 2346 08ed CE000000 		.4byte	0xce
 2347 08f1 0A       		.byte	0xa
 2348 08f2 00       		.byte	0
 2349 08f3 06       		.uleb128 0x6
 2350 08f4 04       		.byte	0x4
 2351 08f5 AE060000 		.4byte	0x6ae
 2352 08f9 06       		.uleb128 0x6
 2353 08fa 04       		.byte	0x4
 2354 08fb 93030000 		.4byte	0x393
 2355 08ff 03       		.uleb128 0x3
 2356 0900 AC040000 		.4byte	.LASF124
 2357 0904 0F       		.byte	0xf
 2358 0905 E1       		.byte	0xe1
 2359 0906 AE080000 		.4byte	0x8ae
 2360 090a 11       		.uleb128 0x11
 2361 090b 4E010000 		.4byte	0x14e
 2362 090f 23090000 		.4byte	0x923
 2363 0913 12       		.uleb128 0x12
 2364 0914 B4000000 		.4byte	0xb4
 2365 0918 12       		.uleb128 0x12
 2366 0919 CE000000 		.4byte	0xce
 2367 091d 12       		.uleb128 0x12
 2368 091e 6F010000 		.4byte	0x16f
 2369 0922 00       		.byte	0
 2370 0923 06       		.uleb128 0x6
 2371 0924 04       		.byte	0x4
 2372 0925 0A090000 		.4byte	0x90a
 2373 0929 11       		.uleb128 0x11
 2374 092a 4E010000 		.4byte	0x14e
 2375 092e 3D090000 		.4byte	0x93d
 2376 0932 12       		.uleb128 0x12
 2377 0933 B4000000 		.4byte	0xb4
 2378 0937 12       		.uleb128 0x12
 2379 0938 6F010000 		.4byte	0x16f
 2380 093c 00       		.byte	0
 2381 093d 06       		.uleb128 0x6
 2382 093e 04       		.byte	0x4
 2383 093f 29090000 		.4byte	0x929
 2384 0943 11       		.uleb128 0x11
 2385 0944 2C000000 		.4byte	0x2c
 2386 0948 61090000 		.4byte	0x961
 2387 094c 12       		.uleb128 0x12
 2388 094d B4000000 		.4byte	0xb4
 2389 0951 12       		.uleb128 0x12
 2390 0952 B3050000 		.4byte	0x5b3
 2391 0956 12       		.uleb128 0x12
 2392 0957 2C000000 		.4byte	0x2c
ARM GAS  /tmp/ccN64Vaw.s 			page 45


 2393 095b 12       		.uleb128 0x12
 2394 095c 6F010000 		.4byte	0x16f
 2395 0960 00       		.byte	0
 2396 0961 06       		.uleb128 0x6
 2397 0962 04       		.byte	0x4
 2398 0963 43090000 		.4byte	0x943
 2399 0967 11       		.uleb128 0x11
 2400 0968 2C000000 		.4byte	0x2c
 2401 096c 85090000 		.4byte	0x985
 2402 0970 12       		.uleb128 0x12
 2403 0971 B4000000 		.4byte	0xb4
 2404 0975 12       		.uleb128 0x12
 2405 0976 41050000 		.4byte	0x541
 2406 097a 12       		.uleb128 0x12
 2407 097b 2C000000 		.4byte	0x2c
 2408 097f 12       		.uleb128 0x12
 2409 0980 6F010000 		.4byte	0x16f
 2410 0984 00       		.byte	0
 2411 0985 06       		.uleb128 0x6
 2412 0986 04       		.byte	0x4
 2413 0987 67090000 		.4byte	0x967
 2414 098b 19       		.uleb128 0x19
 2415 098c 01       		.byte	0x1
 2416 098d 10       		.byte	0x10
 2417 098e 33       		.byte	0x33
 2418 098f CA090000 		.4byte	0x9ca
 2419 0993 1A       		.uleb128 0x1a
 2420 0994 CA020000 		.4byte	.LASF125
 2421 0998 00       		.sleb128 0
 2422 0999 1A       		.uleb128 0x1a
 2423 099a 130B0000 		.4byte	.LASF126
 2424 099e 01       		.sleb128 1
 2425 099f 1A       		.uleb128 0x1a
 2426 09a0 16070000 		.4byte	.LASF127
 2427 09a4 02       		.sleb128 2
 2428 09a5 1A       		.uleb128 0x1a
 2429 09a6 2C070000 		.4byte	.LASF128
 2430 09aa 03       		.sleb128 3
 2431 09ab 1A       		.uleb128 0x1a
 2432 09ac 02090000 		.4byte	.LASF129
 2433 09b0 04       		.sleb128 4
 2434 09b1 1A       		.uleb128 0x1a
 2435 09b2 5C030000 		.4byte	.LASF130
 2436 09b6 05       		.sleb128 5
 2437 09b7 1A       		.uleb128 0x1a
 2438 09b8 9C090000 		.4byte	.LASF131
 2439 09bc 06       		.sleb128 6
 2440 09bd 1A       		.uleb128 0x1a
 2441 09be F3040000 		.4byte	.LASF132
 2442 09c2 07       		.sleb128 7
 2443 09c3 1A       		.uleb128 0x1a
 2444 09c4 50070000 		.4byte	.LASF133
 2445 09c8 08       		.sleb128 8
 2446 09c9 00       		.byte	0
 2447 09ca 03       		.uleb128 0x3
 2448 09cb 7C000000 		.4byte	.LASF134
 2449 09cf 10       		.byte	0x10
ARM GAS  /tmp/ccN64Vaw.s 			page 46


 2450 09d0 3D       		.byte	0x3d
 2451 09d1 8B090000 		.4byte	0x98b
 2452 09d5 0B       		.uleb128 0xb
 2453 09d6 08       		.byte	0x8
 2454 09d7 10       		.byte	0x10
 2455 09d8 42       		.byte	0x42
 2456 09d9 F6090000 		.4byte	0x9f6
 2457 09dd 09       		.uleb128 0x9
 2458 09de 44040000 		.4byte	.LASF135
 2459 09e2 10       		.byte	0x10
 2460 09e3 43       		.byte	0x43
 2461 09e4 EF000000 		.4byte	0xef
 2462 09e8 00       		.byte	0
 2463 09e9 09       		.uleb128 0x9
 2464 09ea 33060000 		.4byte	.LASF136
 2465 09ee 10       		.byte	0x10
 2466 09ef 44       		.byte	0x44
 2467 09f0 EF000000 		.4byte	0xef
 2468 09f4 04       		.byte	0x4
 2469 09f5 00       		.byte	0
 2470 09f6 03       		.uleb128 0x3
 2471 09f7 D1060000 		.4byte	.LASF137
 2472 09fb 10       		.byte	0x10
 2473 09fc 45       		.byte	0x45
 2474 09fd D5090000 		.4byte	0x9d5
 2475 0a01 11       		.uleb128 0x11
 2476 0a02 05010000 		.4byte	0x105
 2477 0a06 100A0000 		.4byte	0xa10
 2478 0a0a 12       		.uleb128 0x12
 2479 0a0b B4000000 		.4byte	0xb4
 2480 0a0f 00       		.byte	0
 2481 0a10 06       		.uleb128 0x6
 2482 0a11 04       		.byte	0x4
 2483 0a12 010A0000 		.4byte	0xa01
 2484 0a16 11       		.uleb128 0x11
 2485 0a17 05010000 		.4byte	0x105
 2486 0a1b 340A0000 		.4byte	0xa34
 2487 0a1f 12       		.uleb128 0x12
 2488 0a20 B4000000 		.4byte	0xb4
 2489 0a24 12       		.uleb128 0x12
 2490 0a25 EF000000 		.4byte	0xef
 2491 0a29 12       		.uleb128 0x12
 2492 0a2a 41050000 		.4byte	0x541
 2493 0a2e 12       		.uleb128 0x12
 2494 0a2f EF000000 		.4byte	0xef
 2495 0a33 00       		.byte	0
 2496 0a34 06       		.uleb128 0x6
 2497 0a35 04       		.byte	0x4
 2498 0a36 160A0000 		.4byte	0xa16
 2499 0a3a 11       		.uleb128 0x11
 2500 0a3b 05010000 		.4byte	0x105
 2501 0a3f 580A0000 		.4byte	0xa58
 2502 0a43 12       		.uleb128 0x12
 2503 0a44 B4000000 		.4byte	0xb4
 2504 0a48 12       		.uleb128 0x12
 2505 0a49 EF000000 		.4byte	0xef
 2506 0a4d 12       		.uleb128 0x12
ARM GAS  /tmp/ccN64Vaw.s 			page 47


 2507 0a4e B3050000 		.4byte	0x5b3
 2508 0a52 12       		.uleb128 0x12
 2509 0a53 EF000000 		.4byte	0xef
 2510 0a57 00       		.byte	0
 2511 0a58 06       		.uleb128 0x6
 2512 0a59 04       		.byte	0x4
 2513 0a5a 3A0A0000 		.4byte	0xa3a
 2514 0a5e 11       		.uleb128 0x11
 2515 0a5f 05010000 		.4byte	0x105
 2516 0a63 720A0000 		.4byte	0xa72
 2517 0a67 12       		.uleb128 0x12
 2518 0a68 B4000000 		.4byte	0xb4
 2519 0a6c 12       		.uleb128 0x12
 2520 0a6d 720A0000 		.4byte	0xa72
 2521 0a71 00       		.byte	0
 2522 0a72 06       		.uleb128 0x6
 2523 0a73 04       		.byte	0x4
 2524 0a74 F6090000 		.4byte	0x9f6
 2525 0a78 06       		.uleb128 0x6
 2526 0a79 04       		.byte	0x4
 2527 0a7a 5E0A0000 		.4byte	0xa5e
 2528 0a7e 0B       		.uleb128 0xb
 2529 0a7f 04       		.byte	0x4
 2530 0a80 11       		.byte	0x11
 2531 0a81 96       		.byte	0x96
 2532 0a82 9F0A0000 		.4byte	0xa9f
 2533 0a86 0A       		.uleb128 0xa
 2534 0a87 73657400 		.ascii	"set\000"
 2535 0a8b 11       		.byte	0x11
 2536 0a8c 97       		.byte	0x97
 2537 0a8d D9000000 		.4byte	0xd9
 2538 0a91 00       		.byte	0
 2539 0a92 09       		.uleb128 0x9
 2540 0a93 4D040000 		.4byte	.LASF138
 2541 0a97 11       		.byte	0x11
 2542 0a98 98       		.byte	0x98
 2543 0a99 D9000000 		.4byte	0xd9
 2544 0a9d 02       		.byte	0x2
 2545 0a9e 00       		.byte	0
 2546 0a9f 0F       		.uleb128 0xf
 2547 0aa0 04       		.byte	0x4
 2548 0aa1 11       		.byte	0x11
 2549 0aa2 94       		.byte	0x94
 2550 0aa3 BA0A0000 		.4byte	0xaba
 2551 0aa7 1B       		.uleb128 0x1b
 2552 0aa8 5700     		.ascii	"W\000"
 2553 0aaa 11       		.byte	0x11
 2554 0aab 95       		.byte	0x95
 2555 0aac EF000000 		.4byte	0xef
 2556 0ab0 1B       		.uleb128 0x1b
 2557 0ab1 4800     		.ascii	"H\000"
 2558 0ab3 11       		.byte	0x11
 2559 0ab4 99       		.byte	0x99
 2560 0ab5 7E0A0000 		.4byte	0xa7e
 2561 0ab9 00       		.byte	0
 2562 0aba 0B       		.uleb128 0xb
 2563 0abb 28       		.byte	0x28
ARM GAS  /tmp/ccN64Vaw.s 			page 48


 2564 0abc 11       		.byte	0x11
 2565 0abd 8C       		.byte	0x8c
 2566 0abe 3B0B0000 		.4byte	0xb3b
 2567 0ac2 09       		.uleb128 0x9
 2568 0ac3 F6050000 		.4byte	.LASF139
 2569 0ac7 11       		.byte	0x11
 2570 0ac8 8E       		.byte	0x8e
 2571 0ac9 93030000 		.4byte	0x393
 2572 0acd 00       		.byte	0
 2573 0ace 09       		.uleb128 0x9
 2574 0acf DF070000 		.4byte	.LASF140
 2575 0ad3 11       		.byte	0x11
 2576 0ad4 8F       		.byte	0x8f
 2577 0ad5 93030000 		.4byte	0x393
 2578 0ad9 04       		.byte	0x4
 2579 0ada 09       		.uleb128 0x9
 2580 0adb FF040000 		.4byte	.LASF141
 2581 0adf 11       		.byte	0x11
 2582 0ae0 90       		.byte	0x90
 2583 0ae1 93030000 		.4byte	0x393
 2584 0ae5 08       		.byte	0x8
 2585 0ae6 09       		.uleb128 0x9
 2586 0ae7 3E010000 		.4byte	.LASF142
 2587 0aeb 11       		.byte	0x11
 2588 0aec 91       		.byte	0x91
 2589 0aed 93030000 		.4byte	0x393
 2590 0af1 0C       		.byte	0xc
 2591 0af2 0A       		.uleb128 0xa
 2592 0af3 49445200 		.ascii	"IDR\000"
 2593 0af7 11       		.byte	0x11
 2594 0af8 92       		.byte	0x92
 2595 0af9 93030000 		.4byte	0x393
 2596 0afd 10       		.byte	0x10
 2597 0afe 0A       		.uleb128 0xa
 2598 0aff 4F445200 		.ascii	"ODR\000"
 2599 0b03 11       		.byte	0x11
 2600 0b04 93       		.byte	0x93
 2601 0b05 93030000 		.4byte	0x393
 2602 0b09 14       		.byte	0x14
 2603 0b0a 09       		.uleb128 0x9
 2604 0b0b 33090000 		.4byte	.LASF143
 2605 0b0f 11       		.byte	0x11
 2606 0b10 9A       		.byte	0x9a
 2607 0b11 3B0B0000 		.4byte	0xb3b
 2608 0b15 18       		.byte	0x18
 2609 0b16 09       		.uleb128 0x9
 2610 0b17 D9040000 		.4byte	.LASF144
 2611 0b1b 11       		.byte	0x11
 2612 0b1c 9B       		.byte	0x9b
 2613 0b1d 93030000 		.4byte	0x393
 2614 0b21 1C       		.byte	0x1c
 2615 0b22 09       		.uleb128 0x9
 2616 0b23 B6070000 		.4byte	.LASF145
 2617 0b27 11       		.byte	0x11
 2618 0b28 9C       		.byte	0x9c
 2619 0b29 93030000 		.4byte	0x393
 2620 0b2d 20       		.byte	0x20
ARM GAS  /tmp/ccN64Vaw.s 			page 49


 2621 0b2e 09       		.uleb128 0x9
 2622 0b2f B1070000 		.4byte	.LASF146
 2623 0b33 11       		.byte	0x11
 2624 0b34 9D       		.byte	0x9d
 2625 0b35 93030000 		.4byte	0x393
 2626 0b39 24       		.byte	0x24
 2627 0b3a 00       		.byte	0
 2628 0b3b 0E       		.uleb128 0xe
 2629 0b3c 9F0A0000 		.4byte	0xa9f
 2630 0b40 03       		.uleb128 0x3
 2631 0b41 45090000 		.4byte	.LASF147
 2632 0b45 11       		.byte	0x11
 2633 0b46 9E       		.byte	0x9e
 2634 0b47 BA0A0000 		.4byte	0xaba
 2635 0b4b 03       		.uleb128 0x3
 2636 0b4c BF030000 		.4byte	.LASF148
 2637 0b50 11       		.byte	0x11
 2638 0b51 F0       		.byte	0xf0
 2639 0b52 EF000000 		.4byte	0xef
 2640 0b56 19       		.uleb128 0x19
 2641 0b57 01       		.byte	0x1
 2642 0b58 12       		.byte	0x12
 2643 0b59 64       		.byte	0x64
 2644 0b5a 710B0000 		.4byte	0xb71
 2645 0b5e 1A       		.uleb128 0x1a
 2646 0b5f D5020000 		.4byte	.LASF149
 2647 0b63 00       		.sleb128 0
 2648 0b64 1A       		.uleb128 0x1a
 2649 0b65 BD0A0000 		.4byte	.LASF150
 2650 0b69 01       		.sleb128 1
 2651 0b6a 1A       		.uleb128 0x1a
 2652 0b6b 47080000 		.4byte	.LASF151
 2653 0b6f 02       		.sleb128 2
 2654 0b70 00       		.byte	0
 2655 0b71 03       		.uleb128 0x3
 2656 0b72 2A080000 		.4byte	.LASF152
 2657 0b76 12       		.byte	0x12
 2658 0b77 68       		.byte	0x68
 2659 0b78 560B0000 		.4byte	0xb56
 2660 0b7c 03       		.uleb128 0x3
 2661 0b7d D2070000 		.4byte	.LASF153
 2662 0b81 12       		.byte	0x12
 2663 0b82 6D       		.byte	0x6d
 2664 0b83 870B0000 		.4byte	0xb87
 2665 0b87 08       		.uleb128 0x8
 2666 0b88 D2070000 		.4byte	.LASF153
 2667 0b8c 78       		.byte	0x78
 2668 0b8d 12       		.byte	0x12
 2669 0b8e 87       		.byte	0x87
 2670 0b8f F20B0000 		.4byte	0xbf2
 2671 0b93 0A       		.uleb128 0xa
 2672 0b94 766D7400 		.ascii	"vmt\000"
 2673 0b98 12       		.byte	0x12
 2674 0b99 89       		.byte	0x89
 2675 0b9a A30C0000 		.4byte	0xca3
 2676 0b9e 00       		.byte	0
 2677 0b9f 09       		.uleb128 0x9
ARM GAS  /tmp/ccN64Vaw.s 			page 50


 2678 0ba0 DE050000 		.4byte	.LASF154
 2679 0ba4 12       		.byte	0x12
 2680 0ba5 8A       		.byte	0x8a
 2681 0ba6 46040000 		.4byte	0x446
 2682 0baa 04       		.byte	0x4
 2683 0bab 09       		.uleb128 0x9
 2684 0bac BE000000 		.4byte	.LASF155
 2685 0bb0 12       		.byte	0x12
 2686 0bb1 8A       		.byte	0x8a
 2687 0bb2 710B0000 		.4byte	0xb71
 2688 0bb6 08       		.byte	0x8
 2689 0bb7 09       		.uleb128 0x9
 2690 0bb8 FB080000 		.4byte	.LASF156
 2691 0bbc 12       		.byte	0x12
 2692 0bbd 8A       		.byte	0x8a
 2693 0bbe 47050000 		.4byte	0x547
 2694 0bc2 0C       		.byte	0xc
 2695 0bc3 09       		.uleb128 0x9
 2696 0bc4 B9010000 		.4byte	.LASF157
 2697 0bc8 12       		.byte	0x12
 2698 0bc9 8A       		.byte	0x8a
 2699 0bca 52050000 		.4byte	0x552
 2700 0bce 30       		.byte	0x30
 2701 0bcf 0A       		.uleb128 0xa
 2702 0bd0 696200   		.ascii	"ib\000"
 2703 0bd3 12       		.byte	0x12
 2704 0bd4 8A       		.byte	0x8a
 2705 0bd5 AE0C0000 		.4byte	0xcae
 2706 0bd9 54       		.byte	0x54
 2707 0bda 0A       		.uleb128 0xa
 2708 0bdb 6F6200   		.ascii	"ob\000"
 2709 0bde 12       		.byte	0x12
 2710 0bdf 8A       		.byte	0x8a
 2711 0be0 AE0C0000 		.4byte	0xcae
 2712 0be4 64       		.byte	0x64
 2713 0be5 09       		.uleb128 0x9
 2714 0be6 FB010000 		.4byte	.LASF158
 2715 0bea 12       		.byte	0x12
 2716 0beb 8A       		.byte	0x8a
 2717 0bec BE0C0000 		.4byte	0xcbe
 2718 0bf0 74       		.byte	0x74
 2719 0bf1 00       		.byte	0
 2720 0bf2 0B       		.uleb128 0xb
 2721 0bf3 0C       		.byte	0xc
 2722 0bf4 13       		.byte	0x13
 2723 0bf5 D7       		.byte	0xd7
 2724 0bf6 2B0C0000 		.4byte	0xc2b
 2725 0bfa 09       		.uleb128 0x9
 2726 0bfb 16040000 		.4byte	.LASF159
 2727 0bff 13       		.byte	0x13
 2728 0c00 DB       		.byte	0xdb
 2729 0c01 EF000000 		.4byte	0xef
 2730 0c05 00       		.byte	0
 2731 0c06 0A       		.uleb128 0xa
 2732 0c07 63723100 		.ascii	"cr1\000"
 2733 0c0b 13       		.byte	0x13
 2734 0c0c E0       		.byte	0xe0
ARM GAS  /tmp/ccN64Vaw.s 			page 51


 2735 0c0d D9000000 		.4byte	0xd9
 2736 0c11 04       		.byte	0x4
 2737 0c12 0A       		.uleb128 0xa
 2738 0c13 63723200 		.ascii	"cr2\000"
 2739 0c17 13       		.byte	0x13
 2740 0c18 E4       		.byte	0xe4
 2741 0c19 D9000000 		.4byte	0xd9
 2742 0c1d 06       		.byte	0x6
 2743 0c1e 0A       		.uleb128 0xa
 2744 0c1f 63723300 		.ascii	"cr3\000"
 2745 0c23 13       		.byte	0x13
 2746 0c24 E8       		.byte	0xe8
 2747 0c25 D9000000 		.4byte	0xd9
 2748 0c29 08       		.byte	0x8
 2749 0c2a 00       		.byte	0
 2750 0c2b 03       		.uleb128 0x3
 2751 0c2c 68000000 		.4byte	.LASF160
 2752 0c30 13       		.byte	0x13
 2753 0c31 E9       		.byte	0xe9
 2754 0c32 F20B0000 		.4byte	0xbf2
 2755 0c36 08       		.uleb128 0x8
 2756 0c37 7D050000 		.4byte	.LASF161
 2757 0c3b 20       		.byte	0x20
 2758 0c3c 12       		.byte	0x12
 2759 0c3d 7C       		.byte	0x7c
 2760 0c3e A30C0000 		.4byte	0xca3
 2761 0c42 09       		.uleb128 0x9
 2762 0c43 87000000 		.4byte	.LASF88
 2763 0c47 12       		.byte	0x12
 2764 0c48 7D       		.byte	0x7d
 2765 0c49 BE050000 		.4byte	0x5be
 2766 0c4d 00       		.byte	0
 2767 0c4e 09       		.uleb128 0x9
 2768 0c4f 04060000 		.4byte	.LASF89
 2769 0c53 12       		.byte	0x12
 2770 0c54 7D       		.byte	0x7d
 2771 0c55 DD050000 		.4byte	0x5dd
 2772 0c59 04       		.byte	0x4
 2773 0c5a 0A       		.uleb128 0xa
 2774 0c5b 70757400 		.ascii	"put\000"
 2775 0c5f 12       		.byte	0x12
 2776 0c60 7D       		.byte	0x7d
 2777 0c61 F7050000 		.4byte	0x5f7
 2778 0c65 08       		.byte	0x8
 2779 0c66 0A       		.uleb128 0xa
 2780 0c67 67657400 		.ascii	"get\000"
 2781 0c6b 12       		.byte	0x12
 2782 0c6c 7D       		.byte	0x7d
 2783 0c6d 92040000 		.4byte	0x492
 2784 0c71 0C       		.byte	0xc
 2785 0c72 09       		.uleb128 0x9
 2786 0c73 CA000000 		.4byte	.LASF162
 2787 0c77 12       		.byte	0x12
 2788 0c78 7D       		.byte	0x7d
 2789 0c79 23090000 		.4byte	0x923
 2790 0c7d 10       		.byte	0x10
 2791 0c7e 09       		.uleb128 0x9
ARM GAS  /tmp/ccN64Vaw.s 			page 52


 2792 0c7f 83030000 		.4byte	.LASF163
 2793 0c83 12       		.byte	0x12
 2794 0c84 7D       		.byte	0x7d
 2795 0c85 3D090000 		.4byte	0x93d
 2796 0c89 14       		.byte	0x14
 2797 0c8a 09       		.uleb128 0x9
 2798 0c8b 75000000 		.4byte	.LASF164
 2799 0c8f 12       		.byte	0x12
 2800 0c90 7D       		.byte	0x7d
 2801 0c91 61090000 		.4byte	0x961
 2802 0c95 18       		.byte	0x18
 2803 0c96 09       		.uleb128 0x9
 2804 0c97 44010000 		.4byte	.LASF165
 2805 0c9b 12       		.byte	0x12
 2806 0c9c 7D       		.byte	0x7d
 2807 0c9d 85090000 		.4byte	0x985
 2808 0ca1 1C       		.byte	0x1c
 2809 0ca2 00       		.byte	0
 2810 0ca3 06       		.uleb128 0x6
 2811 0ca4 04       		.byte	0x4
 2812 0ca5 A90C0000 		.4byte	0xca9
 2813 0ca9 07       		.uleb128 0x7
 2814 0caa 360C0000 		.4byte	0xc36
 2815 0cae 14       		.uleb128 0x14
 2816 0caf CE000000 		.4byte	0xce
 2817 0cb3 BE0C0000 		.4byte	0xcbe
 2818 0cb7 15       		.uleb128 0x15
 2819 0cb8 AD000000 		.4byte	0xad
 2820 0cbc 0F       		.byte	0xf
 2821 0cbd 00       		.byte	0
 2822 0cbe 06       		.uleb128 0x6
 2823 0cbf 04       		.byte	0x4
 2824 0cc0 A2080000 		.4byte	0x8a2
 2825 0cc4 03       		.uleb128 0x3
 2826 0cc5 C7040000 		.4byte	.LASF166
 2827 0cc9 14       		.byte	0x14
 2828 0cca BF       		.byte	0xbf
 2829 0ccb EF000000 		.4byte	0xef
 2830 0ccf 03       		.uleb128 0x3
 2831 0cd0 28090000 		.4byte	.LASF167
 2832 0cd4 14       		.byte	0x14
 2833 0cd5 C4       		.byte	0xc4
 2834 0cd6 EF000000 		.4byte	0xef
 2835 0cda 03       		.uleb128 0x3
 2836 0cdb 92070000 		.4byte	.LASF168
 2837 0cdf 14       		.byte	0x14
 2838 0ce0 C9       		.byte	0xc9
 2839 0ce1 E50C0000 		.4byte	0xce5
 2840 0ce5 08       		.uleb128 0x8
 2841 0ce6 92070000 		.4byte	.LASF168
 2842 0cea 4C       		.byte	0x4c
 2843 0ceb 14       		.byte	0x14
 2844 0cec E5       		.byte	0xe5
 2845 0ced 910D0000 		.4byte	0xd91
 2846 0cf1 0A       		.uleb128 0xa
 2847 0cf2 766D7400 		.ascii	"vmt\000"
 2848 0cf6 14       		.byte	0x14
ARM GAS  /tmp/ccN64Vaw.s 			page 53


 2849 0cf7 E9       		.byte	0xe9
 2850 0cf8 1E0E0000 		.4byte	0xe1e
 2851 0cfc 00       		.byte	0
 2852 0cfd 09       		.uleb128 0x9
 2853 0cfe BE000000 		.4byte	.LASF155
 2854 0d02 14       		.byte	0x14
 2855 0d03 EA       		.byte	0xea
 2856 0d04 CA090000 		.4byte	0x9ca
 2857 0d08 04       		.byte	0x4
 2858 0d09 0A       		.uleb128 0xa
 2859 0d0a 63696400 		.ascii	"cid\000"
 2860 0d0e 14       		.byte	0x14
 2861 0d0f EA       		.byte	0xea
 2862 0d10 3D060000 		.4byte	0x63d
 2863 0d14 08       		.byte	0x8
 2864 0d15 0A       		.uleb128 0xa
 2865 0d16 63736400 		.ascii	"csd\000"
 2866 0d1a 14       		.byte	0x14
 2867 0d1b EA       		.byte	0xea
 2868 0d1c 3D060000 		.4byte	0x63d
 2869 0d20 18       		.byte	0x18
 2870 0d21 09       		.uleb128 0x9
 2871 0d22 34030000 		.4byte	.LASF169
 2872 0d26 14       		.byte	0x14
 2873 0d27 EA       		.byte	0xea
 2874 0d28 EF000000 		.4byte	0xef
 2875 0d2c 28       		.byte	0x28
 2876 0d2d 09       		.uleb128 0x9
 2877 0d2e B7000000 		.4byte	.LASF170
 2878 0d32 14       		.byte	0x14
 2879 0d33 EE       		.byte	0xee
 2880 0d34 290E0000 		.4byte	0xe29
 2881 0d38 2C       		.byte	0x2c
 2882 0d39 09       		.uleb128 0x9
 2883 0d3a F3000000 		.4byte	.LASF171
 2884 0d3e 14       		.byte	0x14
 2885 0d3f F2       		.byte	0xf2
 2886 0d40 C40C0000 		.4byte	0xcc4
 2887 0d44 30       		.byte	0x30
 2888 0d45 09       		.uleb128 0x9
 2889 0d46 77030000 		.4byte	.LASF172
 2890 0d4a 14       		.byte	0x14
 2891 0d4b F6       		.byte	0xf6
 2892 0d4c CF0C0000 		.4byte	0xccf
 2893 0d50 34       		.byte	0x34
 2894 0d51 0A       		.uleb128 0xa
 2895 0d52 72636100 		.ascii	"rca\000"
 2896 0d56 14       		.byte	0x14
 2897 0d57 FA       		.byte	0xfa
 2898 0d58 EF000000 		.4byte	0xef
 2899 0d5c 38       		.byte	0x38
 2900 0d5d 09       		.uleb128 0x9
 2901 0d5e 50080000 		.4byte	.LASF173
 2902 0d62 14       		.byte	0x14
 2903 0d63 FF       		.byte	0xff
 2904 0d64 AF020000 		.4byte	0x2af
 2905 0d68 3C       		.byte	0x3c
ARM GAS  /tmp/ccN64Vaw.s 			page 54


 2906 0d69 17       		.uleb128 0x17
 2907 0d6a C2050000 		.4byte	.LASF174
 2908 0d6e 14       		.byte	0x14
 2909 0d6f 0301     		.2byte	0x103
 2910 0d71 EF000000 		.4byte	0xef
 2911 0d75 40       		.byte	0x40
 2912 0d76 0D       		.uleb128 0xd
 2913 0d77 646D6100 		.ascii	"dma\000"
 2914 0d7b 14       		.byte	0x14
 2915 0d7c 0701     		.2byte	0x107
 2916 0d7e 340E0000 		.4byte	0xe34
 2917 0d82 44       		.byte	0x44
 2918 0d83 17       		.uleb128 0x17
 2919 0d84 32010000 		.4byte	.LASF175
 2920 0d88 14       		.byte	0x14
 2921 0d89 0D01     		.2byte	0x10d
 2922 0d8b 3F0E0000 		.4byte	0xe3f
 2923 0d8f 48       		.byte	0x48
 2924 0d90 00       		.byte	0
 2925 0d91 0B       		.uleb128 0xb
 2926 0d92 04       		.byte	0x4
 2927 0d93 14       		.byte	0x14
 2928 0d94 CF       		.byte	0xcf
 2929 0d95 A60D0000 		.4byte	0xda6
 2930 0d99 09       		.uleb128 0x9
 2931 0d9a 24080000 		.4byte	.LASF176
 2932 0d9e 14       		.byte	0x14
 2933 0d9f D0       		.byte	0xd0
 2934 0da0 EF000000 		.4byte	0xef
 2935 0da4 00       		.byte	0
 2936 0da5 00       		.byte	0
 2937 0da6 03       		.uleb128 0x3
 2938 0da7 F20A0000 		.4byte	.LASF177
 2939 0dab 14       		.byte	0x14
 2940 0dac D1       		.byte	0xd1
 2941 0dad 910D0000 		.4byte	0xd91
 2942 0db1 08       		.uleb128 0x8
 2943 0db2 02040000 		.4byte	.LASF178
 2944 0db6 20       		.byte	0x20
 2945 0db7 14       		.byte	0x14
 2946 0db8 DE       		.byte	0xde
 2947 0db9 1E0E0000 		.4byte	0xe1e
 2948 0dbd 09       		.uleb128 0x9
 2949 0dbe CF000000 		.4byte	.LASF179
 2950 0dc2 14       		.byte	0x14
 2951 0dc3 DF       		.byte	0xdf
 2952 0dc4 100A0000 		.4byte	0xa10
 2953 0dc8 00       		.byte	0
 2954 0dc9 09       		.uleb128 0x9
 2955 0dca EE010000 		.4byte	.LASF180
 2956 0dce 14       		.byte	0x14
 2957 0dcf DF       		.byte	0xdf
 2958 0dd0 100A0000 		.4byte	0xa10
 2959 0dd4 04       		.byte	0x4
 2960 0dd5 09       		.uleb128 0x9
 2961 0dd6 45050000 		.4byte	.LASF181
 2962 0dda 14       		.byte	0x14
ARM GAS  /tmp/ccN64Vaw.s 			page 55


 2963 0ddb DF       		.byte	0xdf
 2964 0ddc 100A0000 		.4byte	0xa10
 2965 0de0 08       		.byte	0x8
 2966 0de1 09       		.uleb128 0x9
 2967 0de2 21070000 		.4byte	.LASF182
 2968 0de6 14       		.byte	0x14
 2969 0de7 DF       		.byte	0xdf
 2970 0de8 100A0000 		.4byte	0xa10
 2971 0dec 0C       		.byte	0xc
 2972 0ded 09       		.uleb128 0x9
 2973 0dee 04060000 		.4byte	.LASF89
 2974 0df2 14       		.byte	0x14
 2975 0df3 DF       		.byte	0xdf
 2976 0df4 340A0000 		.4byte	0xa34
 2977 0df8 10       		.byte	0x10
 2978 0df9 09       		.uleb128 0x9
 2979 0dfa 87000000 		.4byte	.LASF88
 2980 0dfe 14       		.byte	0x14
 2981 0dff DF       		.byte	0xdf
 2982 0e00 580A0000 		.4byte	0xa58
 2983 0e04 14       		.byte	0x14
 2984 0e05 09       		.uleb128 0x9
 2985 0e06 CC030000 		.4byte	.LASF183
 2986 0e0a 14       		.byte	0x14
 2987 0e0b DF       		.byte	0xdf
 2988 0e0c 100A0000 		.4byte	0xa10
 2989 0e10 18       		.byte	0x18
 2990 0e11 09       		.uleb128 0x9
 2991 0e12 3F000000 		.4byte	.LASF184
 2992 0e16 14       		.byte	0x14
 2993 0e17 DF       		.byte	0xdf
 2994 0e18 780A0000 		.4byte	0xa78
 2995 0e1c 1C       		.byte	0x1c
 2996 0e1d 00       		.byte	0
 2997 0e1e 06       		.uleb128 0x6
 2998 0e1f 04       		.byte	0x4
 2999 0e20 240E0000 		.4byte	0xe24
 3000 0e24 07       		.uleb128 0x7
 3001 0e25 B10D0000 		.4byte	0xdb1
 3002 0e29 06       		.uleb128 0x6
 3003 0e2a 04       		.byte	0x4
 3004 0e2b 2F0E0000 		.4byte	0xe2f
 3005 0e2f 07       		.uleb128 0x7
 3006 0e30 A60D0000 		.4byte	0xda6
 3007 0e34 06       		.uleb128 0x6
 3008 0e35 04       		.byte	0x4
 3009 0e36 3A0E0000 		.4byte	0xe3a
 3010 0e3a 07       		.uleb128 0x7
 3011 0e3b FF080000 		.4byte	0x8ff
 3012 0e3f 06       		.uleb128 0x6
 3013 0e40 04       		.byte	0x4
 3014 0e41 D8070000 		.4byte	0x7d8
 3015 0e45 03       		.uleb128 0x3
 3016 0e46 B4030000 		.4byte	.LASF185
 3017 0e4a 15       		.byte	0x15
 3018 0e4b 2D       		.byte	0x2d
 3019 0e4c 500E0000 		.4byte	0xe50
ARM GAS  /tmp/ccN64Vaw.s 			page 56


 3020 0e50 06       		.uleb128 0x6
 3021 0e51 04       		.byte	0x4
 3022 0e52 560E0000 		.4byte	0xe56
 3023 0e56 13       		.uleb128 0x13
 3024 0e57 6B0E0000 		.4byte	0xe6b
 3025 0e5b 12       		.uleb128 0x12
 3026 0e5c 6B0E0000 		.4byte	0xe6b
 3027 0e60 12       		.uleb128 0x12
 3028 0e61 25000000 		.4byte	0x25
 3029 0e65 12       		.uleb128 0x12
 3030 0e66 710E0000 		.4byte	0xe71
 3031 0e6a 00       		.byte	0
 3032 0e6b 06       		.uleb128 0x6
 3033 0e6c 04       		.byte	0x4
 3034 0e6d 1D060000 		.4byte	0x61d
 3035 0e71 06       		.uleb128 0x6
 3036 0e72 04       		.byte	0x4
 3037 0e73 B6000000 		.4byte	0xb6
 3038 0e77 0B       		.uleb128 0xb
 3039 0e78 08       		.byte	0x8
 3040 0e79 15       		.byte	0x15
 3041 0e7a 32       		.byte	0x32
 3042 0e7b 980E0000 		.4byte	0xe98
 3043 0e7f 09       		.uleb128 0x9
 3044 0e80 14080000 		.4byte	.LASF186
 3045 0e84 15       		.byte	0x15
 3046 0e85 33       		.byte	0x33
 3047 0e86 C3000000 		.4byte	0xc3
 3048 0e8a 00       		.byte	0
 3049 0e8b 09       		.uleb128 0x9
 3050 0e8c B6050000 		.4byte	.LASF187
 3051 0e90 15       		.byte	0x15
 3052 0e91 34       		.byte	0x34
 3053 0e92 450E0000 		.4byte	0xe45
 3054 0e96 04       		.byte	0x4
 3055 0e97 00       		.byte	0
 3056 0e98 03       		.uleb128 0x3
 3057 0e99 14090000 		.4byte	.LASF188
 3058 0e9d 15       		.byte	0x15
 3059 0e9e 35       		.byte	0x35
 3060 0e9f 770E0000 		.4byte	0xe77
 3061 0ea3 0B       		.uleb128 0xb
 3062 0ea4 08       		.byte	0x8
 3063 0ea5 15       		.byte	0x15
 3064 0ea6 3A       		.byte	0x3a
 3065 0ea7 C40E0000 		.4byte	0xec4
 3066 0eab 09       		.uleb128 0x9
 3067 0eac E4050000 		.4byte	.LASF189
 3068 0eb0 15       		.byte	0x15
 3069 0eb1 3B       		.byte	0x3b
 3070 0eb2 6B0E0000 		.4byte	0xe6b
 3071 0eb6 00       		.byte	0
 3072 0eb7 09       		.uleb128 0x9
 3073 0eb8 76090000 		.4byte	.LASF190
 3074 0ebc 15       		.byte	0x15
 3075 0ebd 3D       		.byte	0x3d
 3076 0ebe C40E0000 		.4byte	0xec4
ARM GAS  /tmp/ccN64Vaw.s 			page 57


 3077 0ec2 04       		.byte	0x4
 3078 0ec3 00       		.byte	0
 3079 0ec4 06       		.uleb128 0x6
 3080 0ec5 04       		.byte	0x4
 3081 0ec6 CA0E0000 		.4byte	0xeca
 3082 0eca 07       		.uleb128 0x7
 3083 0ecb 980E0000 		.4byte	0xe98
 3084 0ecf 03       		.uleb128 0x3
 3085 0ed0 27040000 		.4byte	.LASF191
 3086 0ed4 15       		.byte	0x15
 3087 0ed5 3F       		.byte	0x3f
 3088 0ed6 A30E0000 		.4byte	0xea3
 3089 0eda 03       		.uleb128 0x3
 3090 0edb DF020000 		.4byte	.LASF192
 3091 0edf 16       		.byte	0x16
 3092 0ee0 28       		.byte	0x28
 3093 0ee1 E50E0000 		.4byte	0xee5
 3094 0ee5 08       		.uleb128 0x8
 3095 0ee6 8E040000 		.4byte	.LASF193
 3096 0eea 04       		.byte	0x4
 3097 0eeb 17       		.byte	0x17
 3098 0eec 00       		.byte	0
 3099 0eed FC0E0000 		.4byte	0xefc
 3100 0ef1 1C       		.uleb128 0x1c
 3101 0ef2 98040000 		.4byte	.LASF194
 3102 0ef6 B4000000 		.4byte	0xb4
 3103 0efa 00       		.byte	0
 3104 0efb 00       		.byte	0
 3105 0efc 03       		.uleb128 0x3
 3106 0efd 4D050000 		.4byte	.LASF195
 3107 0f01 16       		.byte	0x16
 3108 0f02 62       		.byte	0x62
 3109 0f03 DA0E0000 		.4byte	0xeda
 3110 0f07 03       		.uleb128 0x3
 3111 0f08 7E030000 		.4byte	.LASF196
 3112 0f0c 18       		.byte	0x18
 3113 0f0d 11       		.byte	0x11
 3114 0f0e 37000000 		.4byte	0x37
 3115 0f12 03       		.uleb128 0x3
 3116 0f13 B1050000 		.4byte	.LASF197
 3117 0f17 18       		.byte	0x18
 3118 0f18 16       		.byte	0x16
 3119 0f19 50000000 		.4byte	0x50
 3120 0f1d 03       		.uleb128 0x3
 3121 0f1e F4060000 		.4byte	.LASF198
 3122 0f22 18       		.byte	0x18
 3123 0f23 1B       		.byte	0x1b
 3124 0f24 69000000 		.4byte	0x69
 3125 0f28 03       		.uleb128 0x3
 3126 0f29 AC060000 		.4byte	.LASF199
 3127 0f2d 18       		.byte	0x18
 3128 0f2e 21       		.byte	0x21
 3129 0f2f 8D000000 		.4byte	0x8d
 3130 0f33 03       		.uleb128 0x3
 3131 0f34 C4000000 		.4byte	.LASF200
 3132 0f38 19       		.byte	0x19
 3133 0f39 42       		.byte	0x42
ARM GAS  /tmp/ccN64Vaw.s 			page 58


 3134 0f3a BC000000 		.4byte	0xbc
 3135 0f3e 1D       		.uleb128 0x1d
 3136 0f3f 3002     		.2byte	0x230
 3137 0f41 19       		.byte	0x19
 3138 0f42 4D       		.byte	0x4d
 3139 0f43 1F100000 		.4byte	0x101f
 3140 0f47 09       		.uleb128 0x9
 3141 0f48 A8020000 		.4byte	.LASF201
 3142 0f4c 19       		.byte	0x19
 3143 0f4d 4E       		.byte	0x4e
 3144 0f4e 120F0000 		.4byte	0xf12
 3145 0f52 00       		.byte	0
 3146 0f53 0A       		.uleb128 0xa
 3147 0f54 64727600 		.ascii	"drv\000"
 3148 0f58 19       		.byte	0x19
 3149 0f59 4F       		.byte	0x4f
 3150 0f5a 120F0000 		.4byte	0xf12
 3151 0f5e 01       		.byte	0x1
 3152 0f5f 09       		.uleb128 0x9
 3153 0f60 AB050000 		.4byte	.LASF202
 3154 0f64 19       		.byte	0x19
 3155 0f65 50       		.byte	0x50
 3156 0f66 120F0000 		.4byte	0xf12
 3157 0f6a 02       		.byte	0x2
 3158 0f6b 09       		.uleb128 0x9
 3159 0f6c 9E060000 		.4byte	.LASF203
 3160 0f70 19       		.byte	0x19
 3161 0f71 51       		.byte	0x51
 3162 0f72 120F0000 		.4byte	0xf12
 3163 0f76 03       		.byte	0x3
 3164 0f77 09       		.uleb128 0x9
 3165 0f78 E50A0000 		.4byte	.LASF204
 3166 0f7c 19       		.byte	0x19
 3167 0f7d 52       		.byte	0x52
 3168 0f7e 120F0000 		.4byte	0xf12
 3169 0f82 04       		.byte	0x4
 3170 0f83 09       		.uleb128 0x9
 3171 0f84 4C060000 		.4byte	.LASF205
 3172 0f88 19       		.byte	0x19
 3173 0f89 53       		.byte	0x53
 3174 0f8a 120F0000 		.4byte	0xf12
 3175 0f8e 05       		.byte	0x5
 3176 0f8f 0A       		.uleb128 0xa
 3177 0f90 696400   		.ascii	"id\000"
 3178 0f93 19       		.byte	0x19
 3179 0f94 54       		.byte	0x54
 3180 0f95 1D0F0000 		.4byte	0xf1d
 3181 0f99 06       		.byte	0x6
 3182 0f9a 09       		.uleb128 0x9
 3183 0f9b 46070000 		.4byte	.LASF206
 3184 0f9f 19       		.byte	0x19
 3185 0fa0 55       		.byte	0x55
 3186 0fa1 1D0F0000 		.4byte	0xf1d
 3187 0fa5 08       		.byte	0x8
 3188 0fa6 09       		.uleb128 0x9
 3189 0fa7 74060000 		.4byte	.LASF207
 3190 0fab 19       		.byte	0x19
ARM GAS  /tmp/ccN64Vaw.s 			page 59


 3191 0fac 5D       		.byte	0x5d
 3192 0fad 280F0000 		.4byte	0xf28
 3193 0fb1 0C       		.byte	0xc
 3194 0fb2 09       		.uleb128 0x9
 3195 0fb3 53010000 		.4byte	.LASF208
 3196 0fb7 19       		.byte	0x19
 3197 0fb8 5E       		.byte	0x5e
 3198 0fb9 280F0000 		.4byte	0xf28
 3199 0fbd 10       		.byte	0x10
 3200 0fbe 09       		.uleb128 0x9
 3201 0fbf 3B070000 		.4byte	.LASF209
 3202 0fc3 19       		.byte	0x19
 3203 0fc4 5F       		.byte	0x5f
 3204 0fc5 280F0000 		.4byte	0xf28
 3205 0fc9 14       		.byte	0x14
 3206 0fca 09       		.uleb128 0x9
 3207 0fcb 2B030000 		.4byte	.LASF210
 3208 0fcf 19       		.byte	0x19
 3209 0fd0 64       		.byte	0x64
 3210 0fd1 280F0000 		.4byte	0xf28
 3211 0fd5 18       		.byte	0x18
 3212 0fd6 09       		.uleb128 0x9
 3213 0fd7 B1000000 		.4byte	.LASF211
 3214 0fdb 19       		.byte	0x19
 3215 0fdc 65       		.byte	0x65
 3216 0fdd 280F0000 		.4byte	0xf28
 3217 0fe1 1C       		.byte	0x1c
 3218 0fe2 09       		.uleb128 0x9
 3219 0fe3 D1040000 		.4byte	.LASF212
 3220 0fe7 19       		.byte	0x19
 3221 0fe8 66       		.byte	0x66
 3222 0fe9 280F0000 		.4byte	0xf28
 3223 0fed 20       		.byte	0x20
 3224 0fee 09       		.uleb128 0x9
 3225 0fef A0020000 		.4byte	.LASF213
 3226 0ff3 19       		.byte	0x19
 3227 0ff4 67       		.byte	0x67
 3228 0ff5 280F0000 		.4byte	0xf28
 3229 0ff9 24       		.byte	0x24
 3230 0ffa 09       		.uleb128 0x9
 3231 0ffb 52090000 		.4byte	.LASF214
 3232 0fff 19       		.byte	0x19
 3233 1000 68       		.byte	0x68
 3234 1001 280F0000 		.4byte	0xf28
 3235 1005 28       		.byte	0x28
 3236 1006 09       		.uleb128 0x9
 3237 1007 05000000 		.4byte	.LASF215
 3238 100b 19       		.byte	0x19
 3239 100c 69       		.byte	0x69
 3240 100d 280F0000 		.4byte	0xf28
 3241 1011 2C       		.byte	0x2c
 3242 1012 0A       		.uleb128 0xa
 3243 1013 77696E00 		.ascii	"win\000"
 3244 1017 19       		.byte	0x19
 3245 1018 6A       		.byte	0x6a
 3246 1019 1F100000 		.4byte	0x101f
 3247 101d 30       		.byte	0x30
ARM GAS  /tmp/ccN64Vaw.s 			page 60


 3248 101e 00       		.byte	0
 3249 101f 14       		.uleb128 0x14
 3250 1020 120F0000 		.4byte	0xf12
 3251 1024 30100000 		.4byte	0x1030
 3252 1028 1E       		.uleb128 0x1e
 3253 1029 AD000000 		.4byte	0xad
 3254 102d FF01     		.2byte	0x1ff
 3255 102f 00       		.byte	0
 3256 1030 03       		.uleb128 0x3
 3257 1031 EF080000 		.4byte	.LASF216
 3258 1035 19       		.byte	0x19
 3259 1036 6B       		.byte	0x6b
 3260 1037 3E0F0000 		.4byte	0xf3e
 3261 103b 1D       		.uleb128 0x1d
 3262 103c 2402     		.2byte	0x224
 3263 103e 19       		.byte	0x19
 3264 103f 71       		.byte	0x71
 3265 1040 D3100000 		.4byte	0x10d3
 3266 1044 0A       		.uleb128 0xa
 3267 1045 667300   		.ascii	"fs\000"
 3268 1048 19       		.byte	0x19
 3269 1049 72       		.byte	0x72
 3270 104a D3100000 		.4byte	0x10d3
 3271 104e 00       		.byte	0
 3272 104f 0A       		.uleb128 0xa
 3273 1050 696400   		.ascii	"id\000"
 3274 1053 19       		.byte	0x19
 3275 1054 73       		.byte	0x73
 3276 1055 1D0F0000 		.4byte	0xf1d
 3277 1059 04       		.byte	0x4
 3278 105a 09       		.uleb128 0x9
 3279 105b 5C060000 		.4byte	.LASF217
 3280 105f 19       		.byte	0x19
 3281 1060 74       		.byte	0x74
 3282 1061 120F0000 		.4byte	0xf12
 3283 1065 06       		.byte	0x6
 3284 1066 09       		.uleb128 0x9
 3285 1067 21050000 		.4byte	.LASF218
 3286 106b 19       		.byte	0x19
 3287 106c 75       		.byte	0x75
 3288 106d 120F0000 		.4byte	0xf12
 3289 1071 07       		.byte	0x7
 3290 1072 09       		.uleb128 0x9
 3291 1073 34000000 		.4byte	.LASF219
 3292 1077 19       		.byte	0x19
 3293 1078 76       		.byte	0x76
 3294 1079 280F0000 		.4byte	0xf28
 3295 107d 08       		.byte	0x8
 3296 107e 09       		.uleb128 0x9
 3297 107f B1000000 		.4byte	.LASF211
 3298 1083 19       		.byte	0x19
 3299 1084 77       		.byte	0x77
 3300 1085 280F0000 		.4byte	0xf28
 3301 1089 0C       		.byte	0xc
 3302 108a 09       		.uleb128 0x9
 3303 108b CB070000 		.4byte	.LASF220
 3304 108f 19       		.byte	0x19
ARM GAS  /tmp/ccN64Vaw.s 			page 61


 3305 1090 78       		.byte	0x78
 3306 1091 280F0000 		.4byte	0xf28
 3307 1095 10       		.byte	0x10
 3308 1096 09       		.uleb128 0x9
 3309 1097 E8010000 		.4byte	.LASF221
 3310 109b 19       		.byte	0x19
 3311 109c 79       		.byte	0x79
 3312 109d 280F0000 		.4byte	0xf28
 3313 10a1 14       		.byte	0x14
 3314 10a2 09       		.uleb128 0x9
 3315 10a3 F5080000 		.4byte	.LASF222
 3316 10a7 19       		.byte	0x19
 3317 10a8 7A       		.byte	0x7a
 3318 10a9 280F0000 		.4byte	0xf28
 3319 10ad 18       		.byte	0x18
 3320 10ae 09       		.uleb128 0x9
 3321 10af 39020000 		.4byte	.LASF223
 3322 10b3 19       		.byte	0x19
 3323 10b4 7C       		.byte	0x7c
 3324 10b5 280F0000 		.4byte	0xf28
 3325 10b9 1C       		.byte	0x1c
 3326 10ba 09       		.uleb128 0x9
 3327 10bb 34080000 		.4byte	.LASF224
 3328 10bf 19       		.byte	0x19
 3329 10c0 7D       		.byte	0x7d
 3330 10c1 D9100000 		.4byte	0x10d9
 3331 10c5 20       		.byte	0x20
 3332 10c6 0A       		.uleb128 0xa
 3333 10c7 62756600 		.ascii	"buf\000"
 3334 10cb 19       		.byte	0x19
 3335 10cc 86       		.byte	0x86
 3336 10cd 1F100000 		.4byte	0x101f
 3337 10d1 24       		.byte	0x24
 3338 10d2 00       		.byte	0
 3339 10d3 06       		.uleb128 0x6
 3340 10d4 04       		.byte	0x4
 3341 10d5 30100000 		.4byte	0x1030
 3342 10d9 06       		.uleb128 0x6
 3343 10da 04       		.byte	0x4
 3344 10db 120F0000 		.4byte	0xf12
 3345 10df 1F       		.uleb128 0x1f
 3346 10e0 46494C00 		.ascii	"FIL\000"
 3347 10e4 19       		.byte	0x19
 3348 10e5 88       		.byte	0x88
 3349 10e6 3B100000 		.4byte	0x103b
 3350 10ea 0B       		.uleb128 0xb
 3351 10eb 20       		.byte	0x20
 3352 10ec 19       		.byte	0x19
 3353 10ed A1       		.byte	0xa1
 3354 10ee 47110000 		.4byte	0x1147
 3355 10f2 09       		.uleb128 0x9
 3356 10f3 B1000000 		.4byte	.LASF211
 3357 10f7 19       		.byte	0x19
 3358 10f8 A2       		.byte	0xa2
 3359 10f9 280F0000 		.4byte	0xf28
 3360 10fd 00       		.byte	0
 3361 10fe 09       		.uleb128 0x9
ARM GAS  /tmp/ccN64Vaw.s 			page 62


 3362 10ff 3F090000 		.4byte	.LASF225
 3363 1103 19       		.byte	0x19
 3364 1104 A3       		.byte	0xa3
 3365 1105 1D0F0000 		.4byte	0xf1d
 3366 1109 04       		.byte	0x4
 3367 110a 09       		.uleb128 0x9
 3368 110b 0B010000 		.4byte	.LASF226
 3369 110f 19       		.byte	0x19
 3370 1110 A4       		.byte	0xa4
 3371 1111 1D0F0000 		.4byte	0xf1d
 3372 1115 06       		.byte	0x6
 3373 1116 09       		.uleb128 0x9
 3374 1117 E1060000 		.4byte	.LASF227
 3375 111b 19       		.byte	0x19
 3376 111c A5       		.byte	0xa5
 3377 111d 120F0000 		.4byte	0xf12
 3378 1121 08       		.byte	0x8
 3379 1122 09       		.uleb128 0x9
 3380 1123 6B050000 		.4byte	.LASF228
 3381 1127 19       		.byte	0x19
 3382 1128 A6       		.byte	0xa6
 3383 1129 47110000 		.4byte	0x1147
 3384 112d 09       		.byte	0x9
 3385 112e 09       		.uleb128 0x9
 3386 112f FC000000 		.4byte	.LASF229
 3387 1133 19       		.byte	0x19
 3388 1134 A8       		.byte	0xa8
 3389 1135 57110000 		.4byte	0x1157
 3390 1139 18       		.byte	0x18
 3391 113a 09       		.uleb128 0x9
 3392 113b EF050000 		.4byte	.LASF230
 3393 113f 19       		.byte	0x19
 3394 1140 A9       		.byte	0xa9
 3395 1141 070F0000 		.4byte	0xf07
 3396 1145 1C       		.byte	0x1c
 3397 1146 00       		.byte	0
 3398 1147 14       		.uleb128 0x14
 3399 1148 330F0000 		.4byte	0xf33
 3400 114c 57110000 		.4byte	0x1157
 3401 1150 15       		.uleb128 0x15
 3402 1151 AD000000 		.4byte	0xad
 3403 1155 0C       		.byte	0xc
 3404 1156 00       		.byte	0
 3405 1157 06       		.uleb128 0x6
 3406 1158 04       		.byte	0x4
 3407 1159 330F0000 		.4byte	0xf33
 3408 115d 03       		.uleb128 0x3
 3409 115e 0B0B0000 		.4byte	.LASF231
 3410 1162 19       		.byte	0x19
 3411 1163 AB       		.byte	0xab
 3412 1164 EA100000 		.4byte	0x10ea
 3413 1168 19       		.uleb128 0x19
 3414 1169 01       		.byte	0x1
 3415 116a 19       		.byte	0x19
 3416 116b B1       		.byte	0xb1
 3417 116c E9110000 		.4byte	0x11e9
 3418 1170 1A       		.uleb128 0x1a
ARM GAS  /tmp/ccN64Vaw.s 			page 63


 3419 1171 1F020000 		.4byte	.LASF232
 3420 1175 00       		.sleb128 0
 3421 1176 1A       		.uleb128 0x1a
 3422 1177 90090000 		.4byte	.LASF233
 3423 117b 01       		.sleb128 1
 3424 117c 1A       		.uleb128 0x1a
 3425 117d DD010000 		.4byte	.LASF234
 3426 1181 02       		.sleb128 2
 3427 1182 1A       		.uleb128 0x1a
 3428 1183 B0020000 		.4byte	.LASF235
 3429 1187 03       		.sleb128 3
 3430 1188 1A       		.uleb128 0x1a
 3431 1189 E9060000 		.4byte	.LASF236
 3432 118d 04       		.sleb128 4
 3433 118e 1A       		.uleb128 0x1a
 3434 118f E2030000 		.4byte	.LASF237
 3435 1193 05       		.sleb128 5
 3436 1194 1A       		.uleb128 0x1a
 3437 1195 07050000 		.4byte	.LASF238
 3438 1199 06       		.sleb128 6
 3439 119a 1A       		.uleb128 0x1a
 3440 119b 6D030000 		.4byte	.LASF239
 3441 119f 07       		.sleb128 7
 3442 11a0 1A       		.uleb128 0x1a
 3443 11a1 D4010000 		.4byte	.LASF240
 3444 11a5 08       		.sleb128 8
 3445 11a6 1A       		.uleb128 0x1a
 3446 11a7 04070000 		.4byte	.LASF241
 3447 11ab 09       		.sleb128 9
 3448 11ac 1A       		.uleb128 0x1a
 3449 11ad A6010000 		.4byte	.LASF242
 3450 11b1 0A       		.sleb128 10
 3451 11b2 1A       		.uleb128 0x1a
 3452 11b3 33040000 		.4byte	.LASF243
 3453 11b7 0B       		.sleb128 11
 3454 11b8 1A       		.uleb128 0x1a
 3455 11b9 B2060000 		.4byte	.LASF244
 3456 11bd 0C       		.sleb128 12
 3457 11be 1A       		.uleb128 0x1a
 3458 11bf A20A0000 		.4byte	.LASF245
 3459 11c3 0D       		.sleb128 13
 3460 11c4 1A       		.uleb128 0x1a
 3461 11c5 C1060000 		.4byte	.LASF246
 3462 11c9 0E       		.sleb128 14
 3463 11ca 1A       		.uleb128 0x1a
 3464 11cb A6070000 		.4byte	.LASF247
 3465 11cf 0F       		.sleb128 15
 3466 11d0 1A       		.uleb128 0x1a
 3467 11d1 17050000 		.4byte	.LASF248
 3468 11d5 10       		.sleb128 16
 3469 11d6 1A       		.uleb128 0x1a
 3470 11d7 20060000 		.4byte	.LASF249
 3471 11db 11       		.sleb128 17
 3472 11dc 1A       		.uleb128 0x1a
 3473 11dd 42020000 		.4byte	.LASF250
 3474 11e1 12       		.sleb128 18
 3475 11e2 1A       		.uleb128 0x1a
ARM GAS  /tmp/ccN64Vaw.s 			page 64


 3476 11e3 65080000 		.4byte	.LASF251
 3477 11e7 13       		.sleb128 19
 3478 11e8 00       		.byte	0
 3479 11e9 03       		.uleb128 0x3
 3480 11ea FA030000 		.4byte	.LASF252
 3481 11ee 19       		.byte	0x19
 3482 11ef C6       		.byte	0xc6
 3483 11f0 68110000 		.4byte	0x1168
 3484 11f4 20       		.uleb128 0x20
 3485 11f5 D9030000 		.4byte	.LASF284
 3486 11f9 01       		.byte	0x1
 3487 11fa 45       		.byte	0x45
 3488 11fb 00000000 		.4byte	.LFB118
 3489 11ff 20000000 		.4byte	.LFE118-.LFB118
 3490 1203 01       		.uleb128 0x1
 3491 1204 9C       		.byte	0x9c
 3492 1205 34120000 		.4byte	0x1234
 3493 1209 21       		.uleb128 0x21
 3494 120a 63687000 		.ascii	"chp\000"
 3495 120e 01       		.byte	0x1
 3496 120f 45       		.byte	0x45
 3497 1210 6B0E0000 		.4byte	0xe6b
 3498 1214 02       		.uleb128 0x2
 3499 1215 91       		.byte	0x91
 3500 1216 64       		.sleb128 -28
 3501 1217 21       		.uleb128 0x21
 3502 1218 666D7400 		.ascii	"fmt\000"
 3503 121c 01       		.byte	0x1
 3504 121d 45       		.byte	0x45
 3505 121e C3000000 		.4byte	0xc3
 3506 1222 02       		.uleb128 0x2
 3507 1223 91       		.byte	0x91
 3508 1224 74       		.sleb128 -12
 3509 1225 22       		.uleb128 0x22
 3510 1226 23       		.uleb128 0x23
 3511 1227 617000   		.ascii	"ap\000"
 3512 122a 01       		.byte	0x1
 3513 122b 46       		.byte	0x46
 3514 122c FC0E0000 		.4byte	0xefc
 3515 1230 02       		.uleb128 0x2
 3516 1231 91       		.byte	0x91
 3517 1232 6C       		.sleb128 -20
 3518 1233 00       		.byte	0
 3519 1234 24       		.uleb128 0x24
 3520 1235 5B090000 		.4byte	.LASF268
 3521 1239 02       		.byte	0x2
 3522 123a 33       		.byte	0x33
 3523 123b 05010000 		.4byte	0x105
 3524 123f 00000000 		.4byte	.LFB119
 3525 1243 EC000000 		.4byte	.LFE119-.LFB119
 3526 1247 01       		.uleb128 0x1
 3527 1248 9C       		.byte	0x9c
 3528 1249 AB120000 		.4byte	0x12ab
 3529 124d 25       		.uleb128 0x25
 3530 124e 24000000 		.4byte	.LASF253
 3531 1252 02       		.byte	0x2
 3532 1253 33       		.byte	0x33
ARM GAS  /tmp/ccN64Vaw.s 			page 65


 3533 1254 EF000000 		.4byte	0xef
 3534 1258 02       		.uleb128 0x2
 3535 1259 91       		.byte	0x91
 3536 125a 6C       		.sleb128 -20
 3537 125b 21       		.uleb128 0x21
 3538 125c 656E6400 		.ascii	"end\000"
 3539 1260 02       		.byte	0x2
 3540 1261 33       		.byte	0x33
 3541 1262 EF000000 		.4byte	0xef
 3542 1266 02       		.uleb128 0x2
 3543 1267 91       		.byte	0x91
 3544 1268 68       		.sleb128 -24
 3545 1269 25       		.uleb128 0x25
 3546 126a 1F030000 		.4byte	.LASF254
 3547 126e 02       		.byte	0x2
 3548 126f 33       		.byte	0x33
 3549 1270 EF000000 		.4byte	0xef
 3550 1274 02       		.uleb128 0x2
 3551 1275 91       		.byte	0x91
 3552 1276 64       		.sleb128 -28
 3553 1277 25       		.uleb128 0x25
 3554 1278 E7080000 		.4byte	.LASF255
 3555 127c 02       		.byte	0x2
 3556 127d 33       		.byte	0x33
 3557 127e CE000000 		.4byte	0xce
 3558 1282 02       		.uleb128 0x2
 3559 1283 91       		.byte	0x91
 3560 1284 63       		.sleb128 -29
 3561 1285 26       		.uleb128 0x26
 3562 1286 43060000 		.4byte	.LASF256
 3563 128a 02       		.byte	0x2
 3564 128b 34       		.byte	0x34
 3565 128c EF000000 		.4byte	0xef
 3566 1290 02       		.uleb128 0x2
 3567 1291 91       		.byte	0x91
 3568 1292 74       		.sleb128 -12
 3569 1293 23       		.uleb128 0x23
 3570 1294 6900     		.ascii	"i\000"
 3571 1296 02       		.byte	0x2
 3572 1297 35       		.byte	0x35
 3573 1298 EF000000 		.4byte	0xef
 3574 129c 02       		.uleb128 0x2
 3575 129d 91       		.byte	0x91
 3576 129e 70       		.sleb128 -16
 3577 129f 27       		.uleb128 0x27
 3578 12a0 DE040000 		.4byte	.LASF285
 3579 12a4 02       		.byte	0x2
 3580 12a5 50       		.byte	0x50
 3581 12a6 E2000000 		.4byte	.L8
 3582 12aa 00       		.byte	0
 3583 12ab 28       		.uleb128 0x28
 3584 12ac 610A0000 		.4byte	.LASF257
 3585 12b0 02       		.byte	0x2
 3586 12b1 57       		.byte	0x57
 3587 12b2 00000000 		.4byte	.LFB120
 3588 12b6 32000000 		.4byte	.LFE120-.LFB120
 3589 12ba 01       		.uleb128 0x1
ARM GAS  /tmp/ccN64Vaw.s 			page 66


 3590 12bb 9C       		.byte	0x9c
 3591 12bc E7120000 		.4byte	0x12e7
 3592 12c0 25       		.uleb128 0x25
 3593 12c1 E7080000 		.4byte	.LASF255
 3594 12c5 02       		.byte	0x2
 3595 12c6 57       		.byte	0x57
 3596 12c7 CE000000 		.4byte	0xce
 3597 12cb 02       		.uleb128 0x2
 3598 12cc 91       		.byte	0x91
 3599 12cd 77       		.sleb128 -9
 3600 12ce 21       		.uleb128 0x21
 3601 12cf 6200     		.ascii	"b\000"
 3602 12d1 02       		.byte	0x2
 3603 12d2 57       		.byte	0x57
 3604 12d3 41050000 		.4byte	0x541
 3605 12d7 02       		.uleb128 0x2
 3606 12d8 91       		.byte	0x91
 3607 12d9 70       		.sleb128 -16
 3608 12da 23       		.uleb128 0x23
 3609 12db 6900     		.ascii	"i\000"
 3610 12dd 02       		.byte	0x2
 3611 12de 58       		.byte	0x58
 3612 12df EF000000 		.4byte	0xef
 3613 12e3 02       		.uleb128 0x2
 3614 12e4 91       		.byte	0x91
 3615 12e5 7C       		.sleb128 -4
 3616 12e6 00       		.byte	0
 3617 12e7 29       		.uleb128 0x29
 3618 12e8 08080000 		.4byte	.LASF258
 3619 12ec 02       		.byte	0x2
 3620 12ed 60       		.byte	0x60
 3621 12ee 00000000 		.4byte	.LFB121
 3622 12f2 34000000 		.4byte	.LFE121-.LFB121
 3623 12f6 01       		.uleb128 0x1
 3624 12f7 9C       		.byte	0x9c
 3625 12f8 0B130000 		.4byte	0x130b
 3626 12fc 25       		.uleb128 0x25
 3627 12fd E7080000 		.4byte	.LASF255
 3628 1301 02       		.byte	0x2
 3629 1302 60       		.byte	0x60
 3630 1303 CE000000 		.4byte	0xce
 3631 1307 02       		.uleb128 0x2
 3632 1308 91       		.byte	0x91
 3633 1309 77       		.sleb128 -9
 3634 130a 00       		.byte	0
 3635 130b 29       		.uleb128 0x29
 3636 130c BD020000 		.4byte	.LASF259
 3637 1310 02       		.byte	0x2
 3638 1311 68       		.byte	0x68
 3639 1312 00000000 		.4byte	.LFB122
 3640 1316 FE050000 		.4byte	.LFE122-.LFB122
 3641 131a 01       		.uleb128 0x1
 3642 131b 9C       		.byte	0x9c
 3643 131c E6130000 		.4byte	0x13e6
 3644 1320 21       		.uleb128 0x21
 3645 1321 63687000 		.ascii	"chp\000"
 3646 1325 02       		.byte	0x2
ARM GAS  /tmp/ccN64Vaw.s 			page 67


 3647 1326 68       		.byte	0x68
 3648 1327 6B0E0000 		.4byte	0xe6b
 3649 132b 03       		.uleb128 0x3
 3650 132c 91       		.byte	0x91
 3651 132d E47A     		.sleb128 -668
 3652 132f 25       		.uleb128 0x25
 3653 1330 E4040000 		.4byte	.LASF260
 3654 1334 02       		.byte	0x2
 3655 1335 68       		.byte	0x68
 3656 1336 25000000 		.4byte	0x25
 3657 133a 03       		.uleb128 0x3
 3658 133b 91       		.byte	0x91
 3659 133c E07A     		.sleb128 -672
 3660 133e 25       		.uleb128 0x25
 3661 133f EE040000 		.4byte	.LASF261
 3662 1343 02       		.byte	0x2
 3663 1344 68       		.byte	0x68
 3664 1345 710E0000 		.4byte	0xe71
 3665 1349 03       		.uleb128 0x3
 3666 134a 91       		.byte	0x91
 3667 134b DC7A     		.sleb128 -676
 3668 134d 23       		.uleb128 0x23
 3669 134e 6900     		.ascii	"i\000"
 3670 1350 02       		.byte	0x2
 3671 1351 6B       		.byte	0x6b
 3672 1352 EF000000 		.4byte	0xef
 3673 1356 02       		.uleb128 0x2
 3674 1357 91       		.byte	0x91
 3675 1358 6C       		.sleb128 -20
 3676 1359 2A       		.uleb128 0x2a
 3677 135a 46000000 		.4byte	.LBB2
 3678 135e AC050000 		.4byte	.LBE2-.LBB2
 3679 1362 23       		.uleb128 0x23
 3680 1363 65727200 		.ascii	"err\000"
 3681 1367 02       		.byte	0x2
 3682 1368 D0       		.byte	0xd0
 3683 1369 E9110000 		.4byte	0x11e9
 3684 136d 02       		.uleb128 0x2
 3685 136e 91       		.byte	0x91
 3686 136f 6B       		.sleb128 -21
 3687 1370 26       		.uleb128 0x26
 3688 1371 5C080000 		.4byte	.LASF262
 3689 1375 02       		.byte	0x2
 3690 1376 D1       		.byte	0xd1
 3691 1377 EF000000 		.4byte	0xef
 3692 137b 02       		.uleb128 0x2
 3693 137c 91       		.byte	0x91
 3694 137d 64       		.sleb128 -28
 3695 137e 23       		.uleb128 0x23
 3696 137f 66737000 		.ascii	"fsp\000"
 3697 1383 02       		.byte	0x2
 3698 1384 D2       		.byte	0xd2
 3699 1385 D3100000 		.4byte	0x10d3
 3700 1389 02       		.uleb128 0x2
 3701 138a 91       		.byte	0x91
 3702 138b 60       		.sleb128 -32
 3703 138c 26       		.uleb128 0x26
ARM GAS  /tmp/ccN64Vaw.s 			page 68


 3704 138d 0D030000 		.4byte	.LASF263
 3705 1391 02       		.byte	0x2
 3706 1392 D3       		.byte	0xd3
 3707 1393 DF100000 		.4byte	0x10df
 3708 1397 03       		.uleb128 0x3
 3709 1398 91       		.byte	0x91
 3710 1399 8C7B     		.sleb128 -628
 3711 139b 26       		.uleb128 0x26
 3712 139c 5D050000 		.4byte	.LASF264
 3713 13a0 02       		.byte	0x2
 3714 13a1 D4       		.byte	0xd4
 3715 13a2 EF000000 		.4byte	0xef
 3716 13a6 02       		.uleb128 0x2
 3717 13a7 91       		.byte	0x91
 3718 13a8 5C       		.sleb128 -36
 3719 13a9 26       		.uleb128 0x26
 3720 13aa C9010000 		.4byte	.LASF265
 3721 13ae 02       		.byte	0x2
 3722 13af D5       		.byte	0xd5
 3723 13b0 EF000000 		.4byte	0xef
 3724 13b4 02       		.uleb128 0x2
 3725 13b5 91       		.byte	0x91
 3726 13b6 58       		.sleb128 -40
 3727 13b7 26       		.uleb128 0x26
 3728 13b8 360B0000 		.4byte	.LASF266
 3729 13bc 02       		.byte	0x2
 3730 13bd D6       		.byte	0xd6
 3731 13be 5D110000 		.4byte	0x115d
 3732 13c2 03       		.uleb128 0x3
 3733 13c3 91       		.byte	0x91
 3734 13c4 EC7A     		.sleb128 -660
 3735 13c6 26       		.uleb128 0x26
 3736 13c7 3C080000 		.4byte	.LASF267
 3737 13cb 02       		.byte	0x2
 3738 13cc D7       		.byte	0xd7
 3739 13cd E6130000 		.4byte	0x13e6
 3740 13d1 02       		.uleb128 0x2
 3741 13d2 91       		.byte	0x91
 3742 13d3 44       		.sleb128 -60
 3743 13d4 2B       		.uleb128 0x2b
 3744 13d5 62756600 		.ascii	"buf\000"
 3745 13d9 02       		.byte	0x2
 3746 13da 2A01     		.2byte	0x12a
 3747 13dc E6130000 		.4byte	0x13e6
 3748 13e0 03       		.uleb128 0x3
 3749 13e1 91       		.byte	0x91
 3750 13e2 B07F     		.sleb128 -80
 3751 13e4 00       		.byte	0
 3752 13e5 00       		.byte	0
 3753 13e6 14       		.uleb128 0x14
 3754 13e7 CE000000 		.4byte	0xce
 3755 13eb F6130000 		.4byte	0x13f6
 3756 13ef 15       		.uleb128 0x15
 3757 13f0 AD000000 		.4byte	0xad
 3758 13f4 13       		.byte	0x13
 3759 13f5 00       		.byte	0
 3760 13f6 2C       		.uleb128 0x2c
ARM GAS  /tmp/ccN64Vaw.s 			page 69


 3761 13f7 97010000 		.4byte	.LASF269
 3762 13fb 02       		.byte	0x2
 3763 13fc 6701     		.2byte	0x167
 3764 13fe 25000000 		.4byte	0x25
 3765 1402 00000000 		.4byte	.LFB123
 3766 1406 A8000000 		.4byte	.LFE123-.LFB123
 3767 140a 01       		.uleb128 0x1
 3768 140b 9C       		.byte	0x9c
 3769 140c 23140000 		.4byte	0x1423
 3770 1410 2D       		.uleb128 0x2d
 3771 1411 D1030000 		.4byte	.LASF270
 3772 1415 02       		.byte	0x2
 3773 1416 7201     		.2byte	0x172
 3774 1418 23140000 		.4byte	0x1423
 3775 141c 05       		.uleb128 0x5
 3776 141d 03       		.byte	0x3
 3777 141e 00000000 		.4byte	waShell.7318
 3778 1422 00       		.byte	0
 3779 1423 14       		.uleb128 0x14
 3780 1424 EB020000 		.4byte	0x2eb
 3781 1428 34140000 		.4byte	0x1434
 3782 142c 1E       		.uleb128 0x1e
 3783 142d AD000000 		.4byte	0xad
 3784 1431 1501     		.2byte	0x115
 3785 1433 00       		.byte	0
 3786 1434 14       		.uleb128 0x14
 3787 1435 CE000000 		.4byte	0xce
 3788 1439 45140000 		.4byte	0x1445
 3789 143d 1E       		.uleb128 0x1e
 3790 143e AD000000 		.4byte	0xad
 3791 1442 0010     		.2byte	0x1000
 3792 1444 00       		.byte	0
 3793 1445 26       		.uleb128 0x26
 3794 1446 A5040000 		.4byte	.LASF271
 3795 144a 02       		.byte	0x2
 3796 144b 1D       		.byte	0x1d
 3797 144c 34140000 		.4byte	0x1434
 3798 1450 05       		.uleb128 0x5
 3799 1451 03       		.byte	0x3
 3800 1452 00000000 		.4byte	outbuf
 3801 1456 26       		.uleb128 0x26
 3802 1457 A2000000 		.4byte	.LASF272
 3803 145b 02       		.byte	0x2
 3804 145c 1E       		.byte	0x1e
 3805 145d 34140000 		.4byte	0x1434
 3806 1461 05       		.uleb128 0x5
 3807 1462 03       		.byte	0x3
 3808 1463 00000000 		.4byte	inbuf
 3809 1467 26       		.uleb128 0x26
 3810 1468 DE0A0000 		.4byte	.LASF273
 3811 146c 02       		.byte	0x2
 3812 146d 21       		.byte	0x21
 3813 146e 30100000 		.4byte	0x1030
 3814 1472 05       		.uleb128 0x5
 3815 1473 03       		.byte	0x3
 3816 1474 00000000 		.4byte	SDC_FS
 3817 1478 26       		.uleb128 0x26
ARM GAS  /tmp/ccN64Vaw.s 			page 70


 3818 1479 6D090000 		.4byte	.LASF274
 3819 147d 02       		.byte	0x2
 3820 147e 24       		.byte	0x24
 3821 147f 05010000 		.4byte	0x105
 3822 1483 05       		.uleb128 0x5
 3823 1484 03       		.byte	0x3
 3824 1485 00000000 		.4byte	fs_ready
 3825 1489 2D       		.uleb128 0x2d
 3826 148a 040B0000 		.4byte	.LASF275
 3827 148e 02       		.byte	0x2
 3828 148f 4E01     		.2byte	0x14e
 3829 1491 2F0E0000 		.4byte	0xe2f
 3830 1495 05       		.uleb128 0x5
 3831 1496 03       		.byte	0x3
 3832 1497 00000000 		.4byte	sdccfg
 3833 149b 2D       		.uleb128 0x2d
 3834 149c FC0A0000 		.4byte	.LASF276
 3835 14a0 02       		.byte	0x2
 3836 14a1 5501     		.2byte	0x155
 3837 14a3 2B0C0000 		.4byte	0xc2b
 3838 14a7 05       		.uleb128 0x5
 3839 14a8 03       		.byte	0x3
 3840 14a9 00000000 		.4byte	ser_cfg
 3841 14ad 14       		.uleb128 0x14
 3842 14ae 980E0000 		.4byte	0xe98
 3843 14b2 BD140000 		.4byte	0x14bd
 3844 14b6 15       		.uleb128 0x15
 3845 14b7 AD000000 		.4byte	0xad
 3846 14bb 01       		.byte	0x1
 3847 14bc 00       		.byte	0
 3848 14bd 2D       		.uleb128 0x2d
 3849 14be C2070000 		.4byte	.LASF277
 3850 14c2 02       		.byte	0x2
 3851 14c3 5B01     		.2byte	0x15b
 3852 14c5 CF140000 		.4byte	0x14cf
 3853 14c9 05       		.uleb128 0x5
 3854 14ca 03       		.byte	0x3
 3855 14cb 00000000 		.4byte	commands
 3856 14cf 07       		.uleb128 0x7
 3857 14d0 AD140000 		.4byte	0x14ad
 3858 14d4 2D       		.uleb128 0x2d
 3859 14d5 8D050000 		.4byte	.LASF278
 3860 14d9 02       		.byte	0x2
 3861 14da 5F01     		.2byte	0x15f
 3862 14dc E6140000 		.4byte	0x14e6
 3863 14e0 05       		.uleb128 0x5
 3864 14e1 03       		.byte	0x3
 3865 14e2 00000000 		.4byte	shell_cfg1
 3866 14e6 07       		.uleb128 0x7
 3867 14e7 CF0E0000 		.4byte	0xecf
 3868 14eb 2E       		.uleb128 0x2e
 3869 14ec 9E050000 		.4byte	.LASF279
 3870 14f0 1A       		.byte	0x1a
 3871 14f1 9806     		.2byte	0x698
 3872 14f3 52060000 		.4byte	0x652
 3873 14f7 2F       		.uleb128 0x2f
 3874 14f8 53443200 		.ascii	"SD2\000"
ARM GAS  /tmp/ccN64Vaw.s 			page 71


 3875 14fc 13       		.byte	0x13
 3876 14fd 1201     		.2byte	0x112
 3877 14ff 7C0B0000 		.4byte	0xb7c
 3878 1503 2E       		.uleb128 0x2e
 3879 1504 CE080000 		.4byte	.LASF280
 3880 1508 14       		.byte	0x14
 3881 1509 1A01     		.2byte	0x11a
 3882 150b DA0C0000 		.4byte	0xcda
 3883 150f 00       		.byte	0
 3884              		.section	.debug_abbrev,"",%progbits
 3885              	.Ldebug_abbrev0:
 3886 0000 01       		.uleb128 0x1
 3887 0001 11       		.uleb128 0x11
 3888 0002 01       		.byte	0x1
 3889 0003 25       		.uleb128 0x25
 3890 0004 0E       		.uleb128 0xe
 3891 0005 13       		.uleb128 0x13
 3892 0006 0B       		.uleb128 0xb
 3893 0007 03       		.uleb128 0x3
 3894 0008 0E       		.uleb128 0xe
 3895 0009 1B       		.uleb128 0x1b
 3896 000a 0E       		.uleb128 0xe
 3897 000b 55       		.uleb128 0x55
 3898 000c 17       		.uleb128 0x17
 3899 000d 11       		.uleb128 0x11
 3900 000e 01       		.uleb128 0x1
 3901 000f 10       		.uleb128 0x10
 3902 0010 17       		.uleb128 0x17
 3903 0011 00       		.byte	0
 3904 0012 00       		.byte	0
 3905 0013 02       		.uleb128 0x2
 3906 0014 24       		.uleb128 0x24
 3907 0015 00       		.byte	0
 3908 0016 0B       		.uleb128 0xb
 3909 0017 0B       		.uleb128 0xb
 3910 0018 3E       		.uleb128 0x3e
 3911 0019 0B       		.uleb128 0xb
 3912 001a 03       		.uleb128 0x3
 3913 001b 08       		.uleb128 0x8
 3914 001c 00       		.byte	0
 3915 001d 00       		.byte	0
 3916 001e 03       		.uleb128 0x3
 3917 001f 16       		.uleb128 0x16
 3918 0020 00       		.byte	0
 3919 0021 03       		.uleb128 0x3
 3920 0022 0E       		.uleb128 0xe
 3921 0023 3A       		.uleb128 0x3a
 3922 0024 0B       		.uleb128 0xb
 3923 0025 3B       		.uleb128 0x3b
 3924 0026 0B       		.uleb128 0xb
 3925 0027 49       		.uleb128 0x49
 3926 0028 13       		.uleb128 0x13
 3927 0029 00       		.byte	0
 3928 002a 00       		.byte	0
 3929 002b 04       		.uleb128 0x4
 3930 002c 24       		.uleb128 0x24
 3931 002d 00       		.byte	0
ARM GAS  /tmp/ccN64Vaw.s 			page 72


 3932 002e 0B       		.uleb128 0xb
 3933 002f 0B       		.uleb128 0xb
 3934 0030 3E       		.uleb128 0x3e
 3935 0031 0B       		.uleb128 0xb
 3936 0032 03       		.uleb128 0x3
 3937 0033 0E       		.uleb128 0xe
 3938 0034 00       		.byte	0
 3939 0035 00       		.byte	0
 3940 0036 05       		.uleb128 0x5
 3941 0037 0F       		.uleb128 0xf
 3942 0038 00       		.byte	0
 3943 0039 0B       		.uleb128 0xb
 3944 003a 0B       		.uleb128 0xb
 3945 003b 00       		.byte	0
 3946 003c 00       		.byte	0
 3947 003d 06       		.uleb128 0x6
 3948 003e 0F       		.uleb128 0xf
 3949 003f 00       		.byte	0
 3950 0040 0B       		.uleb128 0xb
 3951 0041 0B       		.uleb128 0xb
 3952 0042 49       		.uleb128 0x49
 3953 0043 13       		.uleb128 0x13
 3954 0044 00       		.byte	0
 3955 0045 00       		.byte	0
 3956 0046 07       		.uleb128 0x7
 3957 0047 26       		.uleb128 0x26
 3958 0048 00       		.byte	0
 3959 0049 49       		.uleb128 0x49
 3960 004a 13       		.uleb128 0x13
 3961 004b 00       		.byte	0
 3962 004c 00       		.byte	0
 3963 004d 08       		.uleb128 0x8
 3964 004e 13       		.uleb128 0x13
 3965 004f 01       		.byte	0x1
 3966 0050 03       		.uleb128 0x3
 3967 0051 0E       		.uleb128 0xe
 3968 0052 0B       		.uleb128 0xb
 3969 0053 0B       		.uleb128 0xb
 3970 0054 3A       		.uleb128 0x3a
 3971 0055 0B       		.uleb128 0xb
 3972 0056 3B       		.uleb128 0x3b
 3973 0057 0B       		.uleb128 0xb
 3974 0058 01       		.uleb128 0x1
 3975 0059 13       		.uleb128 0x13
 3976 005a 00       		.byte	0
 3977 005b 00       		.byte	0
 3978 005c 09       		.uleb128 0x9
 3979 005d 0D       		.uleb128 0xd
 3980 005e 00       		.byte	0
 3981 005f 03       		.uleb128 0x3
 3982 0060 0E       		.uleb128 0xe
 3983 0061 3A       		.uleb128 0x3a
 3984 0062 0B       		.uleb128 0xb
 3985 0063 3B       		.uleb128 0x3b
 3986 0064 0B       		.uleb128 0xb
 3987 0065 49       		.uleb128 0x49
 3988 0066 13       		.uleb128 0x13
ARM GAS  /tmp/ccN64Vaw.s 			page 73


 3989 0067 38       		.uleb128 0x38
 3990 0068 0B       		.uleb128 0xb
 3991 0069 00       		.byte	0
 3992 006a 00       		.byte	0
 3993 006b 0A       		.uleb128 0xa
 3994 006c 0D       		.uleb128 0xd
 3995 006d 00       		.byte	0
 3996 006e 03       		.uleb128 0x3
 3997 006f 08       		.uleb128 0x8
 3998 0070 3A       		.uleb128 0x3a
 3999 0071 0B       		.uleb128 0xb
 4000 0072 3B       		.uleb128 0x3b
 4001 0073 0B       		.uleb128 0xb
 4002 0074 49       		.uleb128 0x49
 4003 0075 13       		.uleb128 0x13
 4004 0076 38       		.uleb128 0x38
 4005 0077 0B       		.uleb128 0xb
 4006 0078 00       		.byte	0
 4007 0079 00       		.byte	0
 4008 007a 0B       		.uleb128 0xb
 4009 007b 13       		.uleb128 0x13
 4010 007c 01       		.byte	0x1
 4011 007d 0B       		.uleb128 0xb
 4012 007e 0B       		.uleb128 0xb
 4013 007f 3A       		.uleb128 0x3a
 4014 0080 0B       		.uleb128 0xb
 4015 0081 3B       		.uleb128 0x3b
 4016 0082 0B       		.uleb128 0xb
 4017 0083 01       		.uleb128 0x1
 4018 0084 13       		.uleb128 0x13
 4019 0085 00       		.byte	0
 4020 0086 00       		.byte	0
 4021 0087 0C       		.uleb128 0xc
 4022 0088 13       		.uleb128 0x13
 4023 0089 01       		.byte	0x1
 4024 008a 03       		.uleb128 0x3
 4025 008b 0E       		.uleb128 0xe
 4026 008c 0B       		.uleb128 0xb
 4027 008d 0B       		.uleb128 0xb
 4028 008e 3A       		.uleb128 0x3a
 4029 008f 0B       		.uleb128 0xb
 4030 0090 3B       		.uleb128 0x3b
 4031 0091 05       		.uleb128 0x5
 4032 0092 01       		.uleb128 0x1
 4033 0093 13       		.uleb128 0x13
 4034 0094 00       		.byte	0
 4035 0095 00       		.byte	0
 4036 0096 0D       		.uleb128 0xd
 4037 0097 0D       		.uleb128 0xd
 4038 0098 00       		.byte	0
 4039 0099 03       		.uleb128 0x3
 4040 009a 08       		.uleb128 0x8
 4041 009b 3A       		.uleb128 0x3a
 4042 009c 0B       		.uleb128 0xb
 4043 009d 3B       		.uleb128 0x3b
 4044 009e 05       		.uleb128 0x5
 4045 009f 49       		.uleb128 0x49
ARM GAS  /tmp/ccN64Vaw.s 			page 74


 4046 00a0 13       		.uleb128 0x13
 4047 00a1 38       		.uleb128 0x38
 4048 00a2 0B       		.uleb128 0xb
 4049 00a3 00       		.byte	0
 4050 00a4 00       		.byte	0
 4051 00a5 0E       		.uleb128 0xe
 4052 00a6 35       		.uleb128 0x35
 4053 00a7 00       		.byte	0
 4054 00a8 49       		.uleb128 0x49
 4055 00a9 13       		.uleb128 0x13
 4056 00aa 00       		.byte	0
 4057 00ab 00       		.byte	0
 4058 00ac 0F       		.uleb128 0xf
 4059 00ad 17       		.uleb128 0x17
 4060 00ae 01       		.byte	0x1
 4061 00af 0B       		.uleb128 0xb
 4062 00b0 0B       		.uleb128 0xb
 4063 00b1 3A       		.uleb128 0x3a
 4064 00b2 0B       		.uleb128 0xb
 4065 00b3 3B       		.uleb128 0x3b
 4066 00b4 0B       		.uleb128 0xb
 4067 00b5 01       		.uleb128 0x1
 4068 00b6 13       		.uleb128 0x13
 4069 00b7 00       		.byte	0
 4070 00b8 00       		.byte	0
 4071 00b9 10       		.uleb128 0x10
 4072 00ba 0D       		.uleb128 0xd
 4073 00bb 00       		.byte	0
 4074 00bc 03       		.uleb128 0x3
 4075 00bd 0E       		.uleb128 0xe
 4076 00be 3A       		.uleb128 0x3a
 4077 00bf 0B       		.uleb128 0xb
 4078 00c0 3B       		.uleb128 0x3b
 4079 00c1 0B       		.uleb128 0xb
 4080 00c2 49       		.uleb128 0x49
 4081 00c3 13       		.uleb128 0x13
 4082 00c4 00       		.byte	0
 4083 00c5 00       		.byte	0
 4084 00c6 11       		.uleb128 0x11
 4085 00c7 15       		.uleb128 0x15
 4086 00c8 01       		.byte	0x1
 4087 00c9 27       		.uleb128 0x27
 4088 00ca 19       		.uleb128 0x19
 4089 00cb 49       		.uleb128 0x49
 4090 00cc 13       		.uleb128 0x13
 4091 00cd 01       		.uleb128 0x1
 4092 00ce 13       		.uleb128 0x13
 4093 00cf 00       		.byte	0
 4094 00d0 00       		.byte	0
 4095 00d1 12       		.uleb128 0x12
 4096 00d2 05       		.uleb128 0x5
 4097 00d3 00       		.byte	0
 4098 00d4 49       		.uleb128 0x49
 4099 00d5 13       		.uleb128 0x13
 4100 00d6 00       		.byte	0
 4101 00d7 00       		.byte	0
 4102 00d8 13       		.uleb128 0x13
ARM GAS  /tmp/ccN64Vaw.s 			page 75


 4103 00d9 15       		.uleb128 0x15
 4104 00da 01       		.byte	0x1
 4105 00db 27       		.uleb128 0x27
 4106 00dc 19       		.uleb128 0x19
 4107 00dd 01       		.uleb128 0x1
 4108 00de 13       		.uleb128 0x13
 4109 00df 00       		.byte	0
 4110 00e0 00       		.byte	0
 4111 00e1 14       		.uleb128 0x14
 4112 00e2 01       		.uleb128 0x1
 4113 00e3 01       		.byte	0x1
 4114 00e4 49       		.uleb128 0x49
 4115 00e5 13       		.uleb128 0x13
 4116 00e6 01       		.uleb128 0x1
 4117 00e7 13       		.uleb128 0x13
 4118 00e8 00       		.byte	0
 4119 00e9 00       		.byte	0
 4120 00ea 15       		.uleb128 0x15
 4121 00eb 21       		.uleb128 0x21
 4122 00ec 00       		.byte	0
 4123 00ed 49       		.uleb128 0x49
 4124 00ee 13       		.uleb128 0x13
 4125 00ef 2F       		.uleb128 0x2f
 4126 00f0 0B       		.uleb128 0xb
 4127 00f1 00       		.byte	0
 4128 00f2 00       		.byte	0
 4129 00f3 16       		.uleb128 0x16
 4130 00f4 13       		.uleb128 0x13
 4131 00f5 01       		.byte	0x1
 4132 00f6 0B       		.uleb128 0xb
 4133 00f7 0B       		.uleb128 0xb
 4134 00f8 3A       		.uleb128 0x3a
 4135 00f9 0B       		.uleb128 0xb
 4136 00fa 3B       		.uleb128 0x3b
 4137 00fb 05       		.uleb128 0x5
 4138 00fc 01       		.uleb128 0x1
 4139 00fd 13       		.uleb128 0x13
 4140 00fe 00       		.byte	0
 4141 00ff 00       		.byte	0
 4142 0100 17       		.uleb128 0x17
 4143 0101 0D       		.uleb128 0xd
 4144 0102 00       		.byte	0
 4145 0103 03       		.uleb128 0x3
 4146 0104 0E       		.uleb128 0xe
 4147 0105 3A       		.uleb128 0x3a
 4148 0106 0B       		.uleb128 0xb
 4149 0107 3B       		.uleb128 0x3b
 4150 0108 05       		.uleb128 0x5
 4151 0109 49       		.uleb128 0x49
 4152 010a 13       		.uleb128 0x13
 4153 010b 38       		.uleb128 0x38
 4154 010c 0B       		.uleb128 0xb
 4155 010d 00       		.byte	0
 4156 010e 00       		.byte	0
 4157 010f 18       		.uleb128 0x18
 4158 0110 16       		.uleb128 0x16
 4159 0111 00       		.byte	0
ARM GAS  /tmp/ccN64Vaw.s 			page 76


 4160 0112 03       		.uleb128 0x3
 4161 0113 0E       		.uleb128 0xe
 4162 0114 3A       		.uleb128 0x3a
 4163 0115 0B       		.uleb128 0xb
 4164 0116 3B       		.uleb128 0x3b
 4165 0117 05       		.uleb128 0x5
 4166 0118 49       		.uleb128 0x49
 4167 0119 13       		.uleb128 0x13
 4168 011a 00       		.byte	0
 4169 011b 00       		.byte	0
 4170 011c 19       		.uleb128 0x19
 4171 011d 04       		.uleb128 0x4
 4172 011e 01       		.byte	0x1
 4173 011f 0B       		.uleb128 0xb
 4174 0120 0B       		.uleb128 0xb
 4175 0121 3A       		.uleb128 0x3a
 4176 0122 0B       		.uleb128 0xb
 4177 0123 3B       		.uleb128 0x3b
 4178 0124 0B       		.uleb128 0xb
 4179 0125 01       		.uleb128 0x1
 4180 0126 13       		.uleb128 0x13
 4181 0127 00       		.byte	0
 4182 0128 00       		.byte	0
 4183 0129 1A       		.uleb128 0x1a
 4184 012a 28       		.uleb128 0x28
 4185 012b 00       		.byte	0
 4186 012c 03       		.uleb128 0x3
 4187 012d 0E       		.uleb128 0xe
 4188 012e 1C       		.uleb128 0x1c
 4189 012f 0D       		.uleb128 0xd
 4190 0130 00       		.byte	0
 4191 0131 00       		.byte	0
 4192 0132 1B       		.uleb128 0x1b
 4193 0133 0D       		.uleb128 0xd
 4194 0134 00       		.byte	0
 4195 0135 03       		.uleb128 0x3
 4196 0136 08       		.uleb128 0x8
 4197 0137 3A       		.uleb128 0x3a
 4198 0138 0B       		.uleb128 0xb
 4199 0139 3B       		.uleb128 0x3b
 4200 013a 0B       		.uleb128 0xb
 4201 013b 49       		.uleb128 0x49
 4202 013c 13       		.uleb128 0x13
 4203 013d 00       		.byte	0
 4204 013e 00       		.byte	0
 4205 013f 1C       		.uleb128 0x1c
 4206 0140 0D       		.uleb128 0xd
 4207 0141 00       		.byte	0
 4208 0142 03       		.uleb128 0x3
 4209 0143 0E       		.uleb128 0xe
 4210 0144 49       		.uleb128 0x49
 4211 0145 13       		.uleb128 0x13
 4212 0146 38       		.uleb128 0x38
 4213 0147 0B       		.uleb128 0xb
 4214 0148 34       		.uleb128 0x34
 4215 0149 19       		.uleb128 0x19
 4216 014a 00       		.byte	0
ARM GAS  /tmp/ccN64Vaw.s 			page 77


 4217 014b 00       		.byte	0
 4218 014c 1D       		.uleb128 0x1d
 4219 014d 13       		.uleb128 0x13
 4220 014e 01       		.byte	0x1
 4221 014f 0B       		.uleb128 0xb
 4222 0150 05       		.uleb128 0x5
 4223 0151 3A       		.uleb128 0x3a
 4224 0152 0B       		.uleb128 0xb
 4225 0153 3B       		.uleb128 0x3b
 4226 0154 0B       		.uleb128 0xb
 4227 0155 01       		.uleb128 0x1
 4228 0156 13       		.uleb128 0x13
 4229 0157 00       		.byte	0
 4230 0158 00       		.byte	0
 4231 0159 1E       		.uleb128 0x1e
 4232 015a 21       		.uleb128 0x21
 4233 015b 00       		.byte	0
 4234 015c 49       		.uleb128 0x49
 4235 015d 13       		.uleb128 0x13
 4236 015e 2F       		.uleb128 0x2f
 4237 015f 05       		.uleb128 0x5
 4238 0160 00       		.byte	0
 4239 0161 00       		.byte	0
 4240 0162 1F       		.uleb128 0x1f
 4241 0163 16       		.uleb128 0x16
 4242 0164 00       		.byte	0
 4243 0165 03       		.uleb128 0x3
 4244 0166 08       		.uleb128 0x8
 4245 0167 3A       		.uleb128 0x3a
 4246 0168 0B       		.uleb128 0xb
 4247 0169 3B       		.uleb128 0x3b
 4248 016a 0B       		.uleb128 0xb
 4249 016b 49       		.uleb128 0x49
 4250 016c 13       		.uleb128 0x13
 4251 016d 00       		.byte	0
 4252 016e 00       		.byte	0
 4253 016f 20       		.uleb128 0x20
 4254 0170 2E       		.uleb128 0x2e
 4255 0171 01       		.byte	0x1
 4256 0172 03       		.uleb128 0x3
 4257 0173 0E       		.uleb128 0xe
 4258 0174 3A       		.uleb128 0x3a
 4259 0175 0B       		.uleb128 0xb
 4260 0176 3B       		.uleb128 0x3b
 4261 0177 0B       		.uleb128 0xb
 4262 0178 27       		.uleb128 0x27
 4263 0179 19       		.uleb128 0x19
 4264 017a 11       		.uleb128 0x11
 4265 017b 01       		.uleb128 0x1
 4266 017c 12       		.uleb128 0x12
 4267 017d 06       		.uleb128 0x6
 4268 017e 40       		.uleb128 0x40
 4269 017f 18       		.uleb128 0x18
 4270 0180 9642     		.uleb128 0x2116
 4271 0182 19       		.uleb128 0x19
 4272 0183 01       		.uleb128 0x1
 4273 0184 13       		.uleb128 0x13
ARM GAS  /tmp/ccN64Vaw.s 			page 78


 4274 0185 00       		.byte	0
 4275 0186 00       		.byte	0
 4276 0187 21       		.uleb128 0x21
 4277 0188 05       		.uleb128 0x5
 4278 0189 00       		.byte	0
 4279 018a 03       		.uleb128 0x3
 4280 018b 08       		.uleb128 0x8
 4281 018c 3A       		.uleb128 0x3a
 4282 018d 0B       		.uleb128 0xb
 4283 018e 3B       		.uleb128 0x3b
 4284 018f 0B       		.uleb128 0xb
 4285 0190 49       		.uleb128 0x49
 4286 0191 13       		.uleb128 0x13
 4287 0192 02       		.uleb128 0x2
 4288 0193 18       		.uleb128 0x18
 4289 0194 00       		.byte	0
 4290 0195 00       		.byte	0
 4291 0196 22       		.uleb128 0x22
 4292 0197 18       		.uleb128 0x18
 4293 0198 00       		.byte	0
 4294 0199 00       		.byte	0
 4295 019a 00       		.byte	0
 4296 019b 23       		.uleb128 0x23
 4297 019c 34       		.uleb128 0x34
 4298 019d 00       		.byte	0
 4299 019e 03       		.uleb128 0x3
 4300 019f 08       		.uleb128 0x8
 4301 01a0 3A       		.uleb128 0x3a
 4302 01a1 0B       		.uleb128 0xb
 4303 01a2 3B       		.uleb128 0x3b
 4304 01a3 0B       		.uleb128 0xb
 4305 01a4 49       		.uleb128 0x49
 4306 01a5 13       		.uleb128 0x13
 4307 01a6 02       		.uleb128 0x2
 4308 01a7 18       		.uleb128 0x18
 4309 01a8 00       		.byte	0
 4310 01a9 00       		.byte	0
 4311 01aa 24       		.uleb128 0x24
 4312 01ab 2E       		.uleb128 0x2e
 4313 01ac 01       		.byte	0x1
 4314 01ad 3F       		.uleb128 0x3f
 4315 01ae 19       		.uleb128 0x19
 4316 01af 03       		.uleb128 0x3
 4317 01b0 0E       		.uleb128 0xe
 4318 01b1 3A       		.uleb128 0x3a
 4319 01b2 0B       		.uleb128 0xb
 4320 01b3 3B       		.uleb128 0x3b
 4321 01b4 0B       		.uleb128 0xb
 4322 01b5 27       		.uleb128 0x27
 4323 01b6 19       		.uleb128 0x19
 4324 01b7 49       		.uleb128 0x49
 4325 01b8 13       		.uleb128 0x13
 4326 01b9 11       		.uleb128 0x11
 4327 01ba 01       		.uleb128 0x1
 4328 01bb 12       		.uleb128 0x12
 4329 01bc 06       		.uleb128 0x6
 4330 01bd 40       		.uleb128 0x40
ARM GAS  /tmp/ccN64Vaw.s 			page 79


 4331 01be 18       		.uleb128 0x18
 4332 01bf 9642     		.uleb128 0x2116
 4333 01c1 19       		.uleb128 0x19
 4334 01c2 01       		.uleb128 0x1
 4335 01c3 13       		.uleb128 0x13
 4336 01c4 00       		.byte	0
 4337 01c5 00       		.byte	0
 4338 01c6 25       		.uleb128 0x25
 4339 01c7 05       		.uleb128 0x5
 4340 01c8 00       		.byte	0
 4341 01c9 03       		.uleb128 0x3
 4342 01ca 0E       		.uleb128 0xe
 4343 01cb 3A       		.uleb128 0x3a
 4344 01cc 0B       		.uleb128 0xb
 4345 01cd 3B       		.uleb128 0x3b
 4346 01ce 0B       		.uleb128 0xb
 4347 01cf 49       		.uleb128 0x49
 4348 01d0 13       		.uleb128 0x13
 4349 01d1 02       		.uleb128 0x2
 4350 01d2 18       		.uleb128 0x18
 4351 01d3 00       		.byte	0
 4352 01d4 00       		.byte	0
 4353 01d5 26       		.uleb128 0x26
 4354 01d6 34       		.uleb128 0x34
 4355 01d7 00       		.byte	0
 4356 01d8 03       		.uleb128 0x3
 4357 01d9 0E       		.uleb128 0xe
 4358 01da 3A       		.uleb128 0x3a
 4359 01db 0B       		.uleb128 0xb
 4360 01dc 3B       		.uleb128 0x3b
 4361 01dd 0B       		.uleb128 0xb
 4362 01de 49       		.uleb128 0x49
 4363 01df 13       		.uleb128 0x13
 4364 01e0 02       		.uleb128 0x2
 4365 01e1 18       		.uleb128 0x18
 4366 01e2 00       		.byte	0
 4367 01e3 00       		.byte	0
 4368 01e4 27       		.uleb128 0x27
 4369 01e5 0A       		.uleb128 0xa
 4370 01e6 00       		.byte	0
 4371 01e7 03       		.uleb128 0x3
 4372 01e8 0E       		.uleb128 0xe
 4373 01e9 3A       		.uleb128 0x3a
 4374 01ea 0B       		.uleb128 0xb
 4375 01eb 3B       		.uleb128 0x3b
 4376 01ec 0B       		.uleb128 0xb
 4377 01ed 11       		.uleb128 0x11
 4378 01ee 01       		.uleb128 0x1
 4379 01ef 00       		.byte	0
 4380 01f0 00       		.byte	0
 4381 01f1 28       		.uleb128 0x28
 4382 01f2 2E       		.uleb128 0x2e
 4383 01f3 01       		.byte	0x1
 4384 01f4 3F       		.uleb128 0x3f
 4385 01f5 19       		.uleb128 0x19
 4386 01f6 03       		.uleb128 0x3
 4387 01f7 0E       		.uleb128 0xe
ARM GAS  /tmp/ccN64Vaw.s 			page 80


 4388 01f8 3A       		.uleb128 0x3a
 4389 01f9 0B       		.uleb128 0xb
 4390 01fa 3B       		.uleb128 0x3b
 4391 01fb 0B       		.uleb128 0xb
 4392 01fc 27       		.uleb128 0x27
 4393 01fd 19       		.uleb128 0x19
 4394 01fe 11       		.uleb128 0x11
 4395 01ff 01       		.uleb128 0x1
 4396 0200 12       		.uleb128 0x12
 4397 0201 06       		.uleb128 0x6
 4398 0202 40       		.uleb128 0x40
 4399 0203 18       		.uleb128 0x18
 4400 0204 9742     		.uleb128 0x2117
 4401 0206 19       		.uleb128 0x19
 4402 0207 01       		.uleb128 0x1
 4403 0208 13       		.uleb128 0x13
 4404 0209 00       		.byte	0
 4405 020a 00       		.byte	0
 4406 020b 29       		.uleb128 0x29
 4407 020c 2E       		.uleb128 0x2e
 4408 020d 01       		.byte	0x1
 4409 020e 3F       		.uleb128 0x3f
 4410 020f 19       		.uleb128 0x19
 4411 0210 03       		.uleb128 0x3
 4412 0211 0E       		.uleb128 0xe
 4413 0212 3A       		.uleb128 0x3a
 4414 0213 0B       		.uleb128 0xb
 4415 0214 3B       		.uleb128 0x3b
 4416 0215 0B       		.uleb128 0xb
 4417 0216 27       		.uleb128 0x27
 4418 0217 19       		.uleb128 0x19
 4419 0218 11       		.uleb128 0x11
 4420 0219 01       		.uleb128 0x1
 4421 021a 12       		.uleb128 0x12
 4422 021b 06       		.uleb128 0x6
 4423 021c 40       		.uleb128 0x40
 4424 021d 18       		.uleb128 0x18
 4425 021e 9642     		.uleb128 0x2116
 4426 0220 19       		.uleb128 0x19
 4427 0221 01       		.uleb128 0x1
 4428 0222 13       		.uleb128 0x13
 4429 0223 00       		.byte	0
 4430 0224 00       		.byte	0
 4431 0225 2A       		.uleb128 0x2a
 4432 0226 0B       		.uleb128 0xb
 4433 0227 01       		.byte	0x1
 4434 0228 11       		.uleb128 0x11
 4435 0229 01       		.uleb128 0x1
 4436 022a 12       		.uleb128 0x12
 4437 022b 06       		.uleb128 0x6
 4438 022c 00       		.byte	0
 4439 022d 00       		.byte	0
 4440 022e 2B       		.uleb128 0x2b
 4441 022f 34       		.uleb128 0x34
 4442 0230 00       		.byte	0
 4443 0231 03       		.uleb128 0x3
 4444 0232 08       		.uleb128 0x8
ARM GAS  /tmp/ccN64Vaw.s 			page 81


 4445 0233 3A       		.uleb128 0x3a
 4446 0234 0B       		.uleb128 0xb
 4447 0235 3B       		.uleb128 0x3b
 4448 0236 05       		.uleb128 0x5
 4449 0237 49       		.uleb128 0x49
 4450 0238 13       		.uleb128 0x13
 4451 0239 02       		.uleb128 0x2
 4452 023a 18       		.uleb128 0x18
 4453 023b 00       		.byte	0
 4454 023c 00       		.byte	0
 4455 023d 2C       		.uleb128 0x2c
 4456 023e 2E       		.uleb128 0x2e
 4457 023f 01       		.byte	0x1
 4458 0240 3F       		.uleb128 0x3f
 4459 0241 19       		.uleb128 0x19
 4460 0242 03       		.uleb128 0x3
 4461 0243 0E       		.uleb128 0xe
 4462 0244 3A       		.uleb128 0x3a
 4463 0245 0B       		.uleb128 0xb
 4464 0246 3B       		.uleb128 0x3b
 4465 0247 05       		.uleb128 0x5
 4466 0248 27       		.uleb128 0x27
 4467 0249 19       		.uleb128 0x19
 4468 024a 49       		.uleb128 0x49
 4469 024b 13       		.uleb128 0x13
 4470 024c 11       		.uleb128 0x11
 4471 024d 01       		.uleb128 0x1
 4472 024e 12       		.uleb128 0x12
 4473 024f 06       		.uleb128 0x6
 4474 0250 40       		.uleb128 0x40
 4475 0251 18       		.uleb128 0x18
 4476 0252 9642     		.uleb128 0x2116
 4477 0254 19       		.uleb128 0x19
 4478 0255 01       		.uleb128 0x1
 4479 0256 13       		.uleb128 0x13
 4480 0257 00       		.byte	0
 4481 0258 00       		.byte	0
 4482 0259 2D       		.uleb128 0x2d
 4483 025a 34       		.uleb128 0x34
 4484 025b 00       		.byte	0
 4485 025c 03       		.uleb128 0x3
 4486 025d 0E       		.uleb128 0xe
 4487 025e 3A       		.uleb128 0x3a
 4488 025f 0B       		.uleb128 0xb
 4489 0260 3B       		.uleb128 0x3b
 4490 0261 05       		.uleb128 0x5
 4491 0262 49       		.uleb128 0x49
 4492 0263 13       		.uleb128 0x13
 4493 0264 02       		.uleb128 0x2
 4494 0265 18       		.uleb128 0x18
 4495 0266 00       		.byte	0
 4496 0267 00       		.byte	0
 4497 0268 2E       		.uleb128 0x2e
 4498 0269 34       		.uleb128 0x34
 4499 026a 00       		.byte	0
 4500 026b 03       		.uleb128 0x3
 4501 026c 0E       		.uleb128 0xe
ARM GAS  /tmp/ccN64Vaw.s 			page 82


 4502 026d 3A       		.uleb128 0x3a
 4503 026e 0B       		.uleb128 0xb
 4504 026f 3B       		.uleb128 0x3b
 4505 0270 05       		.uleb128 0x5
 4506 0271 49       		.uleb128 0x49
 4507 0272 13       		.uleb128 0x13
 4508 0273 3F       		.uleb128 0x3f
 4509 0274 19       		.uleb128 0x19
 4510 0275 3C       		.uleb128 0x3c
 4511 0276 19       		.uleb128 0x19
 4512 0277 00       		.byte	0
 4513 0278 00       		.byte	0
 4514 0279 2F       		.uleb128 0x2f
 4515 027a 34       		.uleb128 0x34
 4516 027b 00       		.byte	0
 4517 027c 03       		.uleb128 0x3
 4518 027d 08       		.uleb128 0x8
 4519 027e 3A       		.uleb128 0x3a
 4520 027f 0B       		.uleb128 0xb
 4521 0280 3B       		.uleb128 0x3b
 4522 0281 05       		.uleb128 0x5
 4523 0282 49       		.uleb128 0x49
 4524 0283 13       		.uleb128 0x13
 4525 0284 3F       		.uleb128 0x3f
 4526 0285 19       		.uleb128 0x19
 4527 0286 3C       		.uleb128 0x3c
 4528 0287 19       		.uleb128 0x19
 4529 0288 00       		.byte	0
 4530 0289 00       		.byte	0
 4531 028a 00       		.byte	0
 4532              		.section	.debug_aranges,"",%progbits
 4533 0000 44000000 		.4byte	0x44
 4534 0004 0200     		.2byte	0x2
 4535 0006 00000000 		.4byte	.Ldebug_info0
 4536 000a 04       		.byte	0x4
 4537 000b 00       		.byte	0
 4538 000c 0000     		.2byte	0
 4539 000e 0000     		.2byte	0
 4540 0010 00000000 		.4byte	.LFB118
 4541 0014 20000000 		.4byte	.LFE118-.LFB118
 4542 0018 00000000 		.4byte	.LFB119
 4543 001c EC000000 		.4byte	.LFE119-.LFB119
 4544 0020 00000000 		.4byte	.LFB120
 4545 0024 32000000 		.4byte	.LFE120-.LFB120
 4546 0028 00000000 		.4byte	.LFB121
 4547 002c 34000000 		.4byte	.LFE121-.LFB121
 4548 0030 00000000 		.4byte	.LFB122
 4549 0034 FE050000 		.4byte	.LFE122-.LFB122
 4550 0038 00000000 		.4byte	.LFB123
 4551 003c A8000000 		.4byte	.LFE123-.LFB123
 4552 0040 00000000 		.4byte	0
 4553 0044 00000000 		.4byte	0
 4554              		.section	.debug_ranges,"",%progbits
 4555              	.Ldebug_ranges0:
 4556 0000 00000000 		.4byte	.LFB118
 4557 0004 20000000 		.4byte	.LFE118
 4558 0008 00000000 		.4byte	.LFB119
ARM GAS  /tmp/ccN64Vaw.s 			page 83


 4559 000c EC000000 		.4byte	.LFE119
 4560 0010 00000000 		.4byte	.LFB120
 4561 0014 32000000 		.4byte	.LFE120
 4562 0018 00000000 		.4byte	.LFB121
 4563 001c 34000000 		.4byte	.LFE121
 4564 0020 00000000 		.4byte	.LFB122
 4565 0024 FE050000 		.4byte	.LFE122
 4566 0028 00000000 		.4byte	.LFB123
 4567 002c A8000000 		.4byte	.LFE123
 4568 0030 00000000 		.4byte	0
 4569 0034 00000000 		.4byte	0
 4570              		.section	.debug_line,"",%progbits
 4571              	.Ldebug_line0:
 4572 0000 71040000 		.section	.debug_str,"MS",%progbits,1
 4572      02001303 
 4572      00000201 
 4572      FB0E0D00 
 4572      01010101 
 4573              	.LASF93:
 4574 0000 4D314152 		.ascii	"M1AR\000"
 4574      00
 4575              	.LASF215:
 4576 0005 77696E73 		.ascii	"winsect\000"
 4576      65637400 
 4577              	.LASF2:
 4578 000d 73697A65 		.ascii	"size_t\000"
 4578      5F7400
 4579              	.LASF102:
 4580 0014 4454494D 		.ascii	"DTIMER\000"
 4580      455200
 4581              	.LASF15:
 4582 001b 73697A65 		.ascii	"sizetype\000"
 4582      74797065 
 4582      00
 4583              	.LASF253:
 4584 0024 73746172 		.ascii	"start\000"
 4584      7400
 4585              	.LASF32:
 4586 002a 73797374 		.ascii	"systime_t\000"
 4586      696D655F 
 4586      7400
 4587              	.LASF219:
 4588 0034 66707472 		.ascii	"fptr\000"
 4588      00
 4589              	.LASF37:
 4590 0039 705F6374 		.ascii	"p_ctx\000"
 4590      7800
 4591              	.LASF184:
 4592 003f 6765745F 		.ascii	"get_info\000"
 4592      696E666F 
 4592      00
 4593              	.LASF28:
 4594 0048 74707269 		.ascii	"tprio_t\000"
 4594      6F5F7400 
 4595              	.LASF103:
 4596 0050 444C454E 		.ascii	"DLEN\000"
 4596      00
ARM GAS  /tmp/ccN64Vaw.s 			page 84


 4597              	.LASF48:
 4598 0055 705F6D73 		.ascii	"p_msgqueue\000"
 4598      67717565 
 4598      756500
 4599              	.LASF19:
 4600 0060 696E7433 		.ascii	"int32_t\000"
 4600      325F7400 
 4601              	.LASF160:
 4602 0068 53657269 		.ascii	"SerialConfig\000"
 4602      616C436F 
 4602      6E666967 
 4602      00
 4603              	.LASF164:
 4604 0075 77726974 		.ascii	"writet\000"
 4604      657400
 4605              	.LASF134:
 4606 007c 626C6B73 		.ascii	"blkstate_t\000"
 4606      74617465 
 4606      5F7400
 4607              	.LASF88:
 4608 0087 77726974 		.ascii	"write\000"
 4608      6500
 4609              	.LASF90:
 4610 008d 42617365 		.ascii	"BaseSequentialStream\000"
 4610      53657175 
 4610      656E7469 
 4610      616C5374 
 4610      7265616D 
 4611              	.LASF272:
 4612 00a2 696E6275 		.ascii	"inbuf\000"
 4612      6600
 4613              	.LASF68:
 4614 00a8 656C5F66 		.ascii	"el_flags\000"
 4614      6C616773 
 4614      00
 4615              	.LASF211:
 4616 00b1 6673697A 		.ascii	"fsize\000"
 4616      6500
 4617              	.LASF170:
 4618 00b7 636F6E66 		.ascii	"config\000"
 4618      696700
 4619              	.LASF155:
 4620 00be 73746174 		.ascii	"state\000"
 4620      6500
 4621              	.LASF200:
 4622 00c4 54434841 		.ascii	"TCHAR\000"
 4622      5200
 4623              	.LASF162:
 4624 00ca 70757474 		.ascii	"putt\000"
 4624      00
 4625              	.LASF179:
 4626 00cf 69735F69 		.ascii	"is_inserted\000"
 4626      6E736572 
 4626      74656400 
 4627              	.LASF98:
 4628 00db 52455350 		.ascii	"RESP1\000"
 4628      3100
ARM GAS  /tmp/ccN64Vaw.s 			page 85


 4629              	.LASF99:
 4630 00e1 52455350 		.ascii	"RESP2\000"
 4630      3200
 4631              	.LASF100:
 4632 00e7 52455350 		.ascii	"RESP3\000"
 4632      3300
 4633              	.LASF101:
 4634 00ed 52455350 		.ascii	"RESP4\000"
 4634      3400
 4635              	.LASF171:
 4636 00f3 63617264 		.ascii	"cardmode\000"
 4636      6D6F6465 
 4636      00
 4637              	.LASF229:
 4638 00fc 6C666E61 		.ascii	"lfname\000"
 4638      6D6500
 4639              	.LASF108:
 4640 0103 4649464F 		.ascii	"FIFOCNT\000"
 4640      434E5400 
 4641              	.LASF226:
 4642 010b 6674696D 		.ascii	"ftime\000"
 4642      6500
 4643              	.LASF62:
 4644 0111 6D5F6F77 		.ascii	"m_owner\000"
 4644      6E657200 
 4645              	.LASF72:
 4646 0119 65786974 		.ascii	"exitcode\000"
 4646      636F6465 
 4646      00
 4647              	.LASF3:
 4648 0122 5F5F7569 		.ascii	"__uint8_t\000"
 4648      6E74385F 
 4648      7400
 4649              	.LASF79:
 4650 012c 715F746F 		.ascii	"q_top\000"
 4650      7000
 4651              	.LASF175:
 4652 0132 7364696F 		.ascii	"sdio\000"
 4652      00
 4653              	.LASF74:
 4654 0137 65776D61 		.ascii	"ewmask\000"
 4654      736B00
 4655              	.LASF142:
 4656 013e 50555044 		.ascii	"PUPDR\000"
 4656      5200
 4657              	.LASF165:
 4658 0144 72656164 		.ascii	"readt\000"
 4658      7400
 4659              	.LASF78:
 4660 014a 715F6275 		.ascii	"q_buffer\000"
 4660      66666572 
 4660      00
 4661              	.LASF208:
 4662 0153 66726565 		.ascii	"free_clust\000"
 4662      5F636C75 
 4662      737400
 4663              	.LASF82:
ARM GAS  /tmp/ccN64Vaw.s 			page 86


 4664 015e 715F6E6F 		.ascii	"q_notify\000"
 4664      74696679 
 4664      00
 4665              	.LASF38:
 4666 0167 705F6E65 		.ascii	"p_newer\000"
 4666      77657200 
 4667              	.LASF9:
 4668 016f 6C6F6E67 		.ascii	"long int\000"
 4668      20696E74 
 4668      00
 4669              	.LASF34:
 4670 0178 705F6E65 		.ascii	"p_next\000"
 4670      787400
 4671              	.LASF81:
 4672 017f 715F7264 		.ascii	"q_rdptr\000"
 4672      70747200 
 4673              	.LASF35:
 4674 0187 705F7072 		.ascii	"p_prev\000"
 4674      657600
 4675              	.LASF25:
 4676 018e 74737461 		.ascii	"tstate_t\000"
 4676      74655F74 
 4676      00
 4677              	.LASF269:
 4678 0197 6D61696E 		.ascii	"main\000"
 4678      00
 4679              	.LASF51:
 4680 019c 705F6D74 		.ascii	"p_mtxlist\000"
 4680      786C6973 
 4680      7400
 4681              	.LASF242:
 4682 01a6 46525F57 		.ascii	"FR_WRITE_PROTECTED\000"
 4682      52495445 
 4682      5F50524F 
 4682      54454354 
 4682      454400
 4683              	.LASF157:
 4684 01b9 6F717565 		.ascii	"oqueue\000"
 4684      756500
 4685              	.LASF56:
 4686 01c0 72656761 		.ascii	"regarm_t\000"
 4686      726D5F74 
 4686      00
 4687              	.LASF265:
 4688 01c9 62797465 		.ascii	"bytes_read\000"
 4688      735F7265 
 4688      616400
 4689              	.LASF240:
 4690 01d4 46525F45 		.ascii	"FR_EXIST\000"
 4690      58495354 
 4690      00
 4691              	.LASF234:
 4692 01dd 46525F49 		.ascii	"FR_INT_ERR\000"
 4692      4E545F45 
 4692      525200
 4693              	.LASF221:
 4694 01e8 636C7573 		.ascii	"clust\000"
ARM GAS  /tmp/ccN64Vaw.s 			page 87


 4694      7400
 4695              	.LASF180:
 4696 01ee 69735F70 		.ascii	"is_protected\000"
 4696      726F7465 
 4696      63746564 
 4696      00
 4697              	.LASF158:
 4698 01fb 75736172 		.ascii	"usart\000"
 4698      7400
 4699              	.LASF1:
 4700 0201 7369676E 		.ascii	"signed char\000"
 4700      65642063 
 4700      68617200 
 4701              	.LASF45:
 4702 020d 705F7072 		.ascii	"p_preempt\000"
 4702      65656D70 
 4702      7400
 4703              	.LASF17:
 4704 0217 75696E74 		.ascii	"uint8_t\000"
 4704      385F7400 
 4705              	.LASF232:
 4706 021f 46525F4F 		.ascii	"FR_OK\000"
 4706      4B00
 4707              	.LASF30:
 4708 0225 6576656E 		.ascii	"eventmask_t\000"
 4708      746D6173 
 4708      6B5F7400 
 4709              	.LASF59:
 4710 0231 636F6E74 		.ascii	"context\000"
 4710      65787400 
 4711              	.LASF223:
 4712 0239 6469725F 		.ascii	"dir_sect\000"
 4712      73656374 
 4712      00
 4713              	.LASF250:
 4714 0242 46525F54 		.ascii	"FR_TOO_MANY_OPEN_FILES\000"
 4714      4F4F5F4D 
 4714      414E595F 
 4714      4F50454E 
 4714      5F46494C 
 4715              	.LASF107:
 4716 0259 52455345 		.ascii	"RESERVED0\000"
 4716      52564544 
 4716      3000
 4717              	.LASF109:
 4718 0263 52455345 		.ascii	"RESERVED1\000"
 4718      52564544 
 4718      3100
 4719              	.LASF4:
 4720 026d 756E7369 		.ascii	"unsigned char\000"
 4720      676E6564 
 4720      20636861 
 4720      7200
 4721              	.LASF113:
 4722 027b 52455345 		.ascii	"RESERVED3\000"
 4722      52564544 
 4722      3300
ARM GAS  /tmp/ccN64Vaw.s 			page 88


 4723              	.LASF114:
 4724 0285 52455345 		.ascii	"RESERVED4\000"
 4724      52564544 
 4724      3400
 4725              	.LASF83:
 4726 028f 715F6C69 		.ascii	"q_link\000"
 4726      6E6B00
 4727              	.LASF117:
 4728 0296 52455345 		.ascii	"RESERVED6\000"
 4728      52564544 
 4728      3600
 4729              	.LASF213:
 4730 02a0 64697262 		.ascii	"dirbase\000"
 4730      61736500 
 4731              	.LASF201:
 4732 02a8 66735F74 		.ascii	"fs_type\000"
 4732      79706500 
 4733              	.LASF235:
 4734 02b0 46525F4E 		.ascii	"FR_NOT_READY\000"
 4734      4F545F52 
 4734      45414459 
 4734      00
 4735              	.LASF259:
 4736 02bd 636D645F 		.ascii	"cmd_sdiotest\000"
 4736      7364696F 
 4736      74657374 
 4736      00
 4737              	.LASF125:
 4738 02ca 424C4B5F 		.ascii	"BLK_UNINIT\000"
 4738      554E494E 
 4738      495400
 4739              	.LASF149:
 4740 02d5 53445F55 		.ascii	"SD_UNINIT\000"
 4740      4E494E49 
 4740      5400
 4741              	.LASF192:
 4742 02df 5F5F676E 		.ascii	"__gnuc_va_list\000"
 4742      75635F76 
 4742      615F6C69 
 4742      737400
 4743              	.LASF23:
 4744 02ee 5F426F6F 		.ascii	"_Bool\000"
 4744      6C00
 4745              	.LASF112:
 4746 02f4 52455345 		.ascii	"RESERVED2\000"
 4746      52564544 
 4746      3200
 4747              	.LASF115:
 4748 02fe 52455345 		.ascii	"RESERVED5\000"
 4748      52564544 
 4748      3500
 4749              	.LASF16:
 4750 0308 63686172 		.ascii	"char\000"
 4750      00
 4751              	.LASF263:
 4752 030d 46696C65 		.ascii	"FileObject\000"
 4752      4F626A65 
ARM GAS  /tmp/ccN64Vaw.s 			page 89


 4752      637400
 4753              	.LASF121:
 4754 0318 69736869 		.ascii	"ishift\000"
 4754      667400
 4755              	.LASF254:
 4756 031f 626C6F63 		.ascii	"blockatonce\000"
 4756      6B61746F 
 4756      6E636500 
 4757              	.LASF210:
 4758 032b 6E5F6661 		.ascii	"n_fatent\000"
 4758      74656E74 
 4758      00
 4759              	.LASF169:
 4760 0334 63617061 		.ascii	"capacity\000"
 4760      63697479 
 4760      00
 4761              	.LASF36:
 4762 033d 705F7072 		.ascii	"p_prio\000"
 4762      696F00
 4763              	.LASF6:
 4764 0344 5F5F7569 		.ascii	"__uint16_t\000"
 4764      6E743136 
 4764      5F7400
 4765              	.LASF75:
 4766 034f 47656E65 		.ascii	"GenericQueue\000"
 4766      72696351 
 4766      75657565 
 4766      00
 4767              	.LASF130:
 4768 035c 424C4B5F 		.ascii	"BLK_READY\000"
 4768      52454144 
 4768      5900
 4769              	.LASF73:
 4770 0366 77746F62 		.ascii	"wtobjp\000"
 4770      6A7000
 4771              	.LASF239:
 4772 036d 46525F44 		.ascii	"FR_DENIED\000"
 4772      454E4945 
 4772      4400
 4773              	.LASF172:
 4774 0377 6572726F 		.ascii	"errors\000"
 4774      727300
 4775              	.LASF196:
 4776 037e 55494E54 		.ascii	"UINT\000"
 4776      00
 4777              	.LASF163:
 4778 0383 67657474 		.ascii	"gett\000"
 4778      00
 4779              	.LASF57:
 4780 0388 73746B61 		.ascii	"stkalign_t\000"
 4780      6C69676E 
 4780      5F7400
 4781              	.LASF118:
 4782 0393 55534152 		.ascii	"USART_TypeDef\000"
 4782      545F5479 
 4782      70654465 
 4782      6600
ARM GAS  /tmp/ccN64Vaw.s 			page 90


 4783              	.LASF86:
 4784 03a1 4F757470 		.ascii	"OutputQueue\000"
 4784      75745175 
 4784      65756500 
 4785              	.LASF119:
 4786 03ad 73747265 		.ascii	"stream\000"
 4786      616D00
 4787              	.LASF185:
 4788 03b4 7368656C 		.ascii	"shellcmd_t\000"
 4788      6C636D64 
 4788      5F7400
 4789              	.LASF148:
 4790 03bf 696F706F 		.ascii	"ioportmask_t\000"
 4790      72746D61 
 4790      736B5F74 
 4790      00
 4791              	.LASF183:
 4792 03cc 73796E63 		.ascii	"sync\000"
 4792      00
 4793              	.LASF270:
 4794 03d1 77615368 		.ascii	"waShell\000"
 4794      656C6C00 
 4795              	.LASF284:
 4796 03d9 63687072 		.ascii	"chprintf\000"
 4796      696E7466 
 4796      00
 4797              	.LASF237:
 4798 03e2 46525F4E 		.ascii	"FR_NO_PATH\000"
 4798      4F5F5041 
 4798      544800
 4799              	.LASF111:
 4800 03ed 5344494F 		.ascii	"SDIO_TypeDef\000"
 4800      5F547970 
 4800      65446566 
 4800      00
 4801              	.LASF252:
 4802 03fa 46524553 		.ascii	"FRESULT\000"
 4802      554C5400 
 4803              	.LASF178:
 4804 0402 53444344 		.ascii	"SDCDriverVMT\000"
 4804      72697665 
 4804      72564D54 
 4804      00
 4805              	.LASF58:
 4806 040f 696E7463 		.ascii	"intctx\000"
 4806      747800
 4807              	.LASF159:
 4808 0416 73706565 		.ascii	"speed\000"
 4808      6400
 4809              	.LASF50:
 4810 041c 705F6570 		.ascii	"p_epending\000"
 4810      656E6469 
 4810      6E6700
 4811              	.LASF191:
 4812 0427 5368656C 		.ascii	"ShellConfig\000"
 4812      6C436F6E 
 4812      66696700 
ARM GAS  /tmp/ccN64Vaw.s 			page 91


 4813              	.LASF243:
 4814 0433 46525F49 		.ascii	"FR_INVALID_DRIVE\000"
 4814      4E56414C 
 4814      49445F44 
 4814      52495645 
 4814      00
 4815              	.LASF135:
 4816 0444 626C6B5F 		.ascii	"blk_size\000"
 4816      73697A65 
 4816      00
 4817              	.LASF138:
 4818 044d 636C6561 		.ascii	"clear\000"
 4818      7200
 4819              	.LASF70:
 4820 0453 65735F6E 		.ascii	"es_next\000"
 4820      65787400 
 4821              	.LASF77:
 4822 045b 715F636F 		.ascii	"q_counter\000"
 4822      756E7465 
 4822      7200
 4823              	.LASF69:
 4824 0465 4576656E 		.ascii	"EventSource\000"
 4824      74536F75 
 4824      72636500 
 4825              	.LASF13:
 4826 0471 5F5F7569 		.ascii	"__uint64_t\000"
 4826      6E743634 
 4826      5F7400
 4827              	.LASF11:
 4828 047c 6C6F6E67 		.ascii	"long unsigned int\000"
 4828      20756E73 
 4828      69676E65 
 4828      6420696E 
 4828      7400
 4829              	.LASF193:
 4830 048e 5F5F7661 		.ascii	"__va_list\000"
 4830      5F6C6973 
 4830      7400
 4831              	.LASF194:
 4832 0498 5F5F6170 		.ascii	"__ap\000"
 4832      00
 4833              	.LASF65:
 4834 049d 656C5F6E 		.ascii	"el_next\000"
 4834      65787400 
 4835              	.LASF271:
 4836 04a5 6F757462 		.ascii	"outbuf\000"
 4836      756600
 4837              	.LASF124:
 4838 04ac 73746D33 		.ascii	"stm32_dma_stream_t\000"
 4838      325F646D 
 4838      615F7374 
 4838      7265616D 
 4838      5F7400
 4839              	.LASF80:
 4840 04bf 715F7772 		.ascii	"q_wrptr\000"
 4840      70747200 
 4841              	.LASF166:
ARM GAS  /tmp/ccN64Vaw.s 			page 92


 4842 04c7 7364636D 		.ascii	"sdcmode_t\000"
 4842      6F64655F 
 4842      7400
 4843              	.LASF212:
 4844 04d1 66617462 		.ascii	"fatbase\000"
 4844      61736500 
 4845              	.LASF144:
 4846 04d9 4C434B52 		.ascii	"LCKR\000"
 4846      00
 4847              	.LASF285:
 4848 04de 4552524F 		.ascii	"ERROR\000"
 4848      5200
 4849              	.LASF260:
 4850 04e4 61726763 		.ascii	"argc\000"
 4850      00
 4851              	.LASF110:
 4852 04e9 4649464F 		.ascii	"FIFO\000"
 4852      00
 4853              	.LASF261:
 4854 04ee 61726776 		.ascii	"argv\000"
 4854      00
 4855              	.LASF132:
 4856 04f3 424C4B5F 		.ascii	"BLK_WRITING\000"
 4856      57524954 
 4856      494E4700 
 4857              	.LASF141:
 4858 04ff 4F535045 		.ascii	"OSPEEDR\000"
 4858      45445200 
 4859              	.LASF238:
 4860 0507 46525F49 		.ascii	"FR_INVALID_NAME\000"
 4860      4E56414C 
 4860      49445F4E 
 4860      414D4500 
 4861              	.LASF248:
 4862 0517 46525F4C 		.ascii	"FR_LOCKED\000"
 4862      4F434B45 
 4862      4400
 4863              	.LASF218:
 4864 0521 70616431 		.ascii	"pad1\000"
 4864      00
 4865              	.LASF10:
 4866 0526 5F5F7569 		.ascii	"__uint32_t\000"
 4866      6E743332 
 4866      5F7400
 4867              	.LASF60:
 4868 0531 4D757465 		.ascii	"Mutex\000"
 4868      7800
 4869              	.LASF12:
 4870 0537 6C6F6E67 		.ascii	"long long int\000"
 4870      206C6F6E 
 4870      6720696E 
 4870      7400
 4871              	.LASF181:
 4872 0545 636F6E6E 		.ascii	"connect\000"
 4872      65637400 
 4873              	.LASF195:
 4874 054d 76615F6C 		.ascii	"va_list\000"
ARM GAS  /tmp/ccN64Vaw.s 			page 93


 4874      69737400 
 4875              	.LASF61:
 4876 0555 6D5F7175 		.ascii	"m_queue\000"
 4876      65756500 
 4877              	.LASF264:
 4878 055d 62797465 		.ascii	"bytes_written\000"
 4878      735F7772 
 4878      69747465 
 4878      6E00
 4879              	.LASF228:
 4880 056b 666E616D 		.ascii	"fname\000"
 4880      6500
 4881              	.LASF282:
 4882 0571 6D61696E 		.ascii	"main.c\000"
 4882      2E6300
 4883              	.LASF116:
 4884 0578 47545052 		.ascii	"GTPR\000"
 4884      00
 4885              	.LASF161:
 4886 057d 53657269 		.ascii	"SerialDriverVMT\000"
 4886      616C4472 
 4886      69766572 
 4886      564D5400 
 4887              	.LASF278:
 4888 058d 7368656C 		.ascii	"shell_cfg1\000"
 4888      6C5F6366 
 4888      673100
 4889              	.LASF104:
 4890 0598 44435452 		.ascii	"DCTRL\000"
 4890      4C00
 4891              	.LASF279:
 4892 059e 49544D5F 		.ascii	"ITM_RxBuffer\000"
 4892      52784275 
 4892      66666572 
 4892      00
 4893              	.LASF202:
 4894 05ab 6373697A 		.ascii	"csize\000"
 4894      6500
 4895              	.LASF197:
 4896 05b1 42595445 		.ascii	"BYTE\000"
 4896      00
 4897              	.LASF187:
 4898 05b6 73635F66 		.ascii	"sc_function\000"
 4898      756E6374 
 4898      696F6E00 
 4899              	.LASF174:
 4900 05c2 646D616D 		.ascii	"dmamode\000"
 4900      6F646500 
 4901              	.LASF84:
 4902 05ca 716E6F74 		.ascii	"qnotify_t\000"
 4902      6966795F 
 4902      7400
 4903              	.LASF47:
 4904 05d4 705F7761 		.ascii	"p_waiting\000"
 4904      6974696E 
 4904      6700
 4905              	.LASF154:
ARM GAS  /tmp/ccN64Vaw.s 			page 94


 4906 05de 6576656E 		.ascii	"event\000"
 4906      7400
 4907              	.LASF189:
 4908 05e4 73635F63 		.ascii	"sc_channel\000"
 4908      68616E6E 
 4908      656C00
 4909              	.LASF230:
 4910 05ef 6C667369 		.ascii	"lfsize\000"
 4910      7A6500
 4911              	.LASF139:
 4912 05f6 4D4F4445 		.ascii	"MODER\000"
 4912      5200
 4913              	.LASF43:
 4914 05fc 705F666C 		.ascii	"p_flags\000"
 4914      61677300 
 4915              	.LASF89:
 4916 0604 72656164 		.ascii	"read\000"
 4916      00
 4917              	.LASF122:
 4918 0609 73656C66 		.ascii	"selfindex\000"
 4918      696E6465 
 4918      7800
 4919              	.LASF0:
 4920 0613 756E7369 		.ascii	"unsigned int\000"
 4920      676E6564 
 4920      20696E74 
 4920      00
 4921              	.LASF249:
 4922 0620 46525F4E 		.ascii	"FR_NOT_ENOUGH_CORE\000"
 4922      4F545F45 
 4922      4E4F5547 
 4922      485F434F 
 4922      524500
 4923              	.LASF136:
 4924 0633 626C6B5F 		.ascii	"blk_num\000"
 4924      6E756D00 
 4925              	.LASF53:
 4926 063b 705F6D70 		.ascii	"p_mpool\000"
 4926      6F6F6C00 
 4927              	.LASF256:
 4928 0643 706F7369 		.ascii	"position\000"
 4928      74696F6E 
 4928      00
 4929              	.LASF205:
 4930 064c 6673695F 		.ascii	"fsi_flag\000"
 4930      666C6167 
 4930      00
 4931              	.LASF44:
 4932 0655 705F7265 		.ascii	"p_refs\000"
 4932      667300
 4933              	.LASF217:
 4934 065c 666C6167 		.ascii	"flag\000"
 4934      00
 4935              	.LASF105:
 4936 0661 44434F55 		.ascii	"DCOUNT\000"
 4936      4E5400
 4937              	.LASF55:
ARM GAS  /tmp/ccN64Vaw.s 			page 95


 4938 0668 54687265 		.ascii	"ThreadsList\000"
 4938      6164734C 
 4938      69737400 
 4939              	.LASF207:
 4940 0674 6C617374 		.ascii	"last_clust\000"
 4940      5F636C75 
 4940      737400
 4941              	.LASF31:
 4942 067f 666C6167 		.ascii	"flagsmask_t\000"
 4942      736D6173 
 4942      6B5F7400 
 4943              	.LASF94:
 4944 068b 444D415F 		.ascii	"DMA_Stream_TypeDef\000"
 4944      53747265 
 4944      616D5F54 
 4944      79706544 
 4944      656600
 4945              	.LASF203:
 4946 069e 6E5F6661 		.ascii	"n_fats\000"
 4946      747300
 4947              	.LASF46:
 4948 06a5 705F7469 		.ascii	"p_time\000"
 4948      6D6500
 4949              	.LASF199:
 4950 06ac 44574F52 		.ascii	"DWORD\000"
 4950      4400
 4951              	.LASF244:
 4952 06b2 46525F4E 		.ascii	"FR_NOT_ENABLED\000"
 4952      4F545F45 
 4952      4E41424C 
 4952      454400
 4953              	.LASF246:
 4954 06c1 46525F4D 		.ascii	"FR_MKFS_ABORTED\000"
 4954      4B46535F 
 4954      41424F52 
 4954      54454400 
 4955              	.LASF137:
 4956 06d1 426C6F63 		.ascii	"BlockDeviceInfo\000"
 4956      6B446576 
 4956      69636549 
 4956      6E666F00 
 4957              	.LASF227:
 4958 06e1 66617474 		.ascii	"fattrib\000"
 4958      72696200 
 4959              	.LASF236:
 4960 06e9 46525F4E 		.ascii	"FR_NO_FILE\000"
 4960      4F5F4649 
 4960      4C4500
 4961              	.LASF198:
 4962 06f4 574F5244 		.ascii	"WORD\000"
 4962      00
 4963              	.LASF52:
 4964 06f9 705F7265 		.ascii	"p_realprio\000"
 4964      616C7072 
 4964      696F00
 4965              	.LASF241:
 4966 0704 46525F49 		.ascii	"FR_INVALID_OBJECT\000"
ARM GAS  /tmp/ccN64Vaw.s 			page 96


 4966      4E56414C 
 4966      49445F4F 
 4966      424A4543 
 4966      5400
 4967              	.LASF127:
 4968 0716 424C4B5F 		.ascii	"BLK_ACTIVE\000"
 4968      41435449 
 4968      564500
 4969              	.LASF182:
 4970 0721 64697363 		.ascii	"disconnect\000"
 4970      6F6E6E65 
 4970      637400
 4971              	.LASF128:
 4972 072c 424C4B5F 		.ascii	"BLK_CONNECTING\000"
 4972      434F4E4E 
 4972      45435449 
 4972      4E4700
 4973              	.LASF209:
 4974 073b 6673695F 		.ascii	"fsi_sector\000"
 4974      73656374 
 4974      6F7200
 4975              	.LASF206:
 4976 0746 6E5F726F 		.ascii	"n_rootdir\000"
 4976      6F746469 
 4976      7200
 4977              	.LASF133:
 4978 0750 424C4B5F 		.ascii	"BLK_SYNCING\000"
 4978      53594E43 
 4978      494E4700 
 4979              	.LASF97:
 4980 075c 52455350 		.ascii	"RESPCMD\000"
 4980      434D4400 
 4981              	.LASF14:
 4982 0764 6C6F6E67 		.ascii	"long long unsigned int\000"
 4982      206C6F6E 
 4982      6720756E 
 4982      7369676E 
 4982      65642069 
 4983              	.LASF39:
 4984 077b 705F6F6C 		.ascii	"p_older\000"
 4984      64657200 
 4985              	.LASF18:
 4986 0783 75696E74 		.ascii	"uint16_t\000"
 4986      31365F74 
 4986      00
 4987              	.LASF29:
 4988 078c 6D73675F 		.ascii	"msg_t\000"
 4988      7400
 4989              	.LASF168:
 4990 0792 53444344 		.ascii	"SDCDriver\000"
 4990      72697665 
 4990      7200
 4991              	.LASF27:
 4992 079c 74736C69 		.ascii	"tslices_t\000"
 4992      6365735F 
 4992      7400
 4993              	.LASF247:
ARM GAS  /tmp/ccN64Vaw.s 			page 97


 4994 07a6 46525F54 		.ascii	"FR_TIMEOUT\000"
 4994      494D454F 
 4994      555400
 4995              	.LASF146:
 4996 07b1 41465248 		.ascii	"AFRH\000"
 4996      00
 4997              	.LASF145:
 4998 07b6 4146524C 		.ascii	"AFRL\000"
 4998      00
 4999              	.LASF123:
 5000 07bb 76656374 		.ascii	"vector\000"
 5000      6F7200
 5001              	.LASF277:
 5002 07c2 636F6D6D 		.ascii	"commands\000"
 5002      616E6473 
 5002      00
 5003              	.LASF220:
 5004 07cb 73636C75 		.ascii	"sclust\000"
 5004      737400
 5005              	.LASF153:
 5006 07d2 53657269 		.ascii	"SerialDriver\000"
 5006      616C4472 
 5006      69766572 
 5006      00
 5007              	.LASF140:
 5008 07df 4F545950 		.ascii	"OTYPER\000"
 5008      455200
 5009              	.LASF76:
 5010 07e6 715F7761 		.ascii	"q_waiting\000"
 5010      6974696E 
 5010      6700
 5011              	.LASF87:
 5012 07f0 42617365 		.ascii	"BaseSequentialStreamVMT\000"
 5012      53657175 
 5012      656E7469 
 5012      616C5374 
 5012      7265616D 
 5013              	.LASF258:
 5014 0808 66696C6C 		.ascii	"fillbuffers\000"
 5014      62756666 
 5014      65727300 
 5015              	.LASF186:
 5016 0814 73635F6E 		.ascii	"sc_name\000"
 5016      616D6500 
 5017              	.LASF24:
 5018 081c 746D6F64 		.ascii	"tmode_t\000"
 5018      655F7400 
 5019              	.LASF176:
 5020 0824 64756D6D 		.ascii	"dummy\000"
 5020      7900
 5021              	.LASF152:
 5022 082a 73647374 		.ascii	"sdstate_t\000"
 5022      6174655F 
 5022      7400
 5023              	.LASF224:
 5024 0834 6469725F 		.ascii	"dir_ptr\000"
 5024      70747200 
ARM GAS  /tmp/ccN64Vaw.s 			page 98


 5025              	.LASF267:
 5026 083c 74657374 		.ascii	"teststring\000"
 5026      73747269 
 5026      6E6700
 5027              	.LASF151:
 5028 0847 53445F52 		.ascii	"SD_READY\000"
 5028      45414459 
 5028      00
 5029              	.LASF173:
 5030 0850 74687265 		.ascii	"thread\000"
 5030      616400
 5031              	.LASF92:
 5032 0857 4D304152 		.ascii	"M0AR\000"
 5032      00
 5033              	.LASF262:
 5034 085c 636C7573 		.ascii	"clusters\000"
 5034      74657273 
 5034      00
 5035              	.LASF251:
 5036 0865 46525F49 		.ascii	"FR_INVALID_PARAMETER\000"
 5036      4E56414C 
 5036      49445F50 
 5036      4152414D 
 5036      45544552 
 5037              	.LASF283:
 5038 087a 2F686F6D 		.ascii	"/home/ece497/vbox-shared/mplayer/ChibiOS-RT-stable_"
 5038      652F6563 
 5038      65343937 
 5038      2F76626F 
 5038      782D7368 
 5039 08ad 322E362E 		.ascii	"2.6.x/testhal/STM32F4xx/SDC\000"
 5039      782F7465 
 5039      73746861 
 5039      6C2F5354 
 5039      4D333246 
 5040              	.LASF106:
 5041 08c9 4D41534B 		.ascii	"MASK\000"
 5041      00
 5042              	.LASF280:
 5043 08ce 53444344 		.ascii	"SDCD1\000"
 5043      3100
 5044              	.LASF5:
 5045 08d4 73686F72 		.ascii	"short int\000"
 5045      7420696E 
 5045      7400
 5046              	.LASF21:
 5047 08de 75696E74 		.ascii	"uint64_t\000"
 5047      36345F74 
 5047      00
 5048              	.LASF255:
 5049 08e7 70617474 		.ascii	"pattern\000"
 5049      65726E00 
 5050              	.LASF216:
 5051 08ef 46415446 		.ascii	"FATFS\000"
 5051      5300
 5052              	.LASF222:
 5053 08f5 64736563 		.ascii	"dsect\000"
ARM GAS  /tmp/ccN64Vaw.s 			page 99


 5053      7400
 5054              	.LASF156:
 5055 08fb 69717565 		.ascii	"iqueue\000"
 5055      756500
 5056              	.LASF129:
 5057 0902 424C4B5F 		.ascii	"BLK_DISCONNECTING\000"
 5057      44495343 
 5057      4F4E4E45 
 5057      4354494E 
 5057      4700
 5058              	.LASF188:
 5059 0914 5368656C 		.ascii	"ShellCommand\000"
 5059      6C436F6D 
 5059      6D616E64 
 5059      00
 5060              	.LASF22:
 5061 0921 626F6F6C 		.ascii	"bool_t\000"
 5061      5F7400
 5062              	.LASF167:
 5063 0928 73646366 		.ascii	"sdcflags_t\000"
 5063      6C616773 
 5063      5F7400
 5064              	.LASF143:
 5065 0933 42535252 		.ascii	"BSRR\000"
 5065      00
 5066              	.LASF33:
 5067 0938 54687265 		.ascii	"Thread\000"
 5067      616400
 5068              	.LASF225:
 5069 093f 66646174 		.ascii	"fdate\000"
 5069      6500
 5070              	.LASF147:
 5071 0945 4750494F 		.ascii	"GPIO_TypeDef\000"
 5071      5F547970 
 5071      65446566 
 5071      00
 5072              	.LASF214:
 5073 0952 64617461 		.ascii	"database\000"
 5073      62617365 
 5073      00
 5074              	.LASF268:
 5075 095b 62616462 		.ascii	"badblocks\000"
 5075      6C6F636B 
 5075      7300
 5076              	.LASF26:
 5077 0965 74726566 		.ascii	"trefs_t\000"
 5077      735F7400 
 5078              	.LASF274:
 5079 096d 66735F72 		.ascii	"fs_ready\000"
 5079      65616479 
 5079      00
 5080              	.LASF190:
 5081 0976 73635F63 		.ascii	"sc_commands\000"
 5081      6F6D6D61 
 5081      6E647300 
 5082              	.LASF64:
 5083 0982 4576656E 		.ascii	"EventListener\000"
ARM GAS  /tmp/ccN64Vaw.s 			page 100


 5083      744C6973 
 5083      74656E65 
 5083      7200
 5084              	.LASF233:
 5085 0990 46525F44 		.ascii	"FR_DISK_ERR\000"
 5085      49534B5F 
 5085      45525200 
 5086              	.LASF131:
 5087 099c 424C4B5F 		.ascii	"BLK_READING\000"
 5087      52454144 
 5087      494E4700 
 5088              	.LASF20:
 5089 09a8 75696E74 		.ascii	"uint32_t\000"
 5089      33325F74 
 5089      00
 5090              	.LASF281:
 5091 09b1 474E5520 		.ascii	"GNU C 4.8.2 -mcpu=cortex-m4 -mno-thumb-interwork -m"
 5091      4320342E 
 5091      382E3220 
 5091      2D6D6370 
 5091      753D636F 
 5092 09e4 7468756D 		.ascii	"thumb -ggdb -O0 -fomit-frame-pointer -falign-functi"
 5092      62202D67 
 5092      67646220 
 5092      2D4F3020 
 5092      2D666F6D 
 5093 0a17 6F6E733D 		.ascii	"ons=16 -ffunction-sections -fdata-sections -fno-com"
 5093      3136202D 
 5093      6666756E 
 5093      6374696F 
 5093      6E2D7365 
 5094 0a4a 6D6F6E00 		.ascii	"mon\000"
 5095              	.LASF54:
 5096 0a4e 54687265 		.ascii	"ThreadsQueue\000"
 5096      61647351 
 5096      75657565 
 5096      00
 5097              	.LASF95:
 5098 0a5b 504F5745 		.ascii	"POWER\000"
 5098      5200
 5099              	.LASF257:
 5100 0a61 66696C6C 		.ascii	"fillbuffer\000"
 5100      62756666 
 5100      657200
 5101              	.LASF71:
 5102 0a6c 7264796D 		.ascii	"rdymsg\000"
 5102      736700
 5103              	.LASF7:
 5104 0a73 73686F72 		.ascii	"short unsigned int\000"
 5104      7420756E 
 5104      7369676E 
 5104      65642069 
 5104      6E7400
 5105              	.LASF96:
 5106 0a86 434C4B43 		.ascii	"CLKCR\000"
 5106      5200
 5107              	.LASF85:
ARM GAS  /tmp/ccN64Vaw.s 			page 101


 5108 0a8c 496E7075 		.ascii	"InputQueue\000"
 5108      74517565 
 5108      756500
 5109              	.LASF41:
 5110 0a97 705F7374 		.ascii	"p_stklimit\000"
 5110      6B6C696D 
 5110      697400
 5111              	.LASF245:
 5112 0aa2 46525F4E 		.ascii	"FR_NO_FILESYSTEM\000"
 5112      4F5F4649 
 5112      4C455359 
 5112      5354454D 
 5112      00
 5113              	.LASF8:
 5114 0ab3 5F5F696E 		.ascii	"__int32_t\000"
 5114      7433325F 
 5114      7400
 5115              	.LASF150:
 5116 0abd 53445F53 		.ascii	"SD_STOP\000"
 5116      544F5000 
 5117              	.LASF91:
 5118 0ac5 4E445452 		.ascii	"NDTR\000"
 5118      00
 5119              	.LASF67:
 5120 0aca 656C5F6D 		.ascii	"el_mask\000"
 5120      61736B00 
 5121              	.LASF120:
 5122 0ad2 69666372 		.ascii	"ifcr\000"
 5122      00
 5123              	.LASF40:
 5124 0ad7 705F6E61 		.ascii	"p_name\000"
 5124      6D6500
 5125              	.LASF273:
 5126 0ade 5344435F 		.ascii	"SDC_FS\000"
 5126      465300
 5127              	.LASF204:
 5128 0ae5 77666C61 		.ascii	"wflag\000"
 5128      6700
 5129              	.LASF63:
 5130 0aeb 6D5F6E65 		.ascii	"m_next\000"
 5130      787400
 5131              	.LASF177:
 5132 0af2 53444343 		.ascii	"SDCConfig\000"
 5132      6F6E6669 
 5132      6700
 5133              	.LASF276:
 5134 0afc 7365725F 		.ascii	"ser_cfg\000"
 5134      63666700 
 5135              	.LASF275:
 5136 0b04 73646363 		.ascii	"sdccfg\000"
 5136      666700
 5137              	.LASF231:
 5138 0b0b 46494C49 		.ascii	"FILINFO\000"
 5138      4E464F00 
 5139              	.LASF126:
 5140 0b13 424C4B5F 		.ascii	"BLK_STOP\000"
 5140      53544F50 
ARM GAS  /tmp/ccN64Vaw.s 			page 102


 5140      00
 5141              	.LASF49:
 5142 0b1c 705F6D73 		.ascii	"p_msg\000"
 5142      6700
 5143              	.LASF66:
 5144 0b22 656C5F6C 		.ascii	"el_listener\000"
 5144      69737465 
 5144      6E657200 
 5145              	.LASF42:
 5146 0b2e 705F7374 		.ascii	"p_state\000"
 5146      61746500 
 5147              	.LASF266:
 5148 0b36 66696C69 		.ascii	"filinfo\000"
 5148      6E666F00 
 5149              		.ident	"GCC: (Arch Repository) 4.8.2"
ARM GAS  /tmp/ccN64Vaw.s 			page 103


DEFINED SYMBOLS
                            *ABS*:0000000000000000 main.c
     /tmp/ccN64Vaw.s:19     .text.chprintf:0000000000000000 $t
     /tmp/ccN64Vaw.s:24     .text.chprintf:0000000000000000 chprintf
     /tmp/ccN64Vaw.s:60     .bss.outbuf:0000000000000000 $d
     /tmp/ccN64Vaw.s:63     .bss.outbuf:0000000000000000 outbuf
     /tmp/ccN64Vaw.s:66     .bss.inbuf:0000000000000000 $d
     /tmp/ccN64Vaw.s:69     .bss.inbuf:0000000000000000 inbuf
     /tmp/ccN64Vaw.s:72     .bss.SDC_FS:0000000000000000 $d
     /tmp/ccN64Vaw.s:75     .bss.SDC_FS:0000000000000000 SDC_FS
     /tmp/ccN64Vaw.s:80     .bss.fs_ready:0000000000000000 fs_ready
     /tmp/ccN64Vaw.s:81     .bss.fs_ready:0000000000000000 $d
     /tmp/ccN64Vaw.s:83     .rodata:0000000000000000 $d
     /tmp/ccN64Vaw.s:84     .rodata:0000000000000000 .LC0
     /tmp/ccN64Vaw.s:87     .text.badblocks:0000000000000000 $t
     /tmp/ccN64Vaw.s:93     .text.badblocks:0000000000000000 badblocks
     /tmp/ccN64Vaw.s:240    .text.fillbuffer:0000000000000000 $t
     /tmp/ccN64Vaw.s:246    .text.fillbuffer:0000000000000000 fillbuffer
     /tmp/ccN64Vaw.s:289    .text.fillbuffers:0000000000000000 $t
     /tmp/ccN64Vaw.s:295    .text.fillbuffers:0000000000000000 fillbuffers
     /tmp/ccN64Vaw.s:329    .rodata:0000000000000010 .LC1
     /tmp/ccN64Vaw.s:332    .rodata:000000000000002c .LC2
     /tmp/ccN64Vaw.s:335    .rodata:0000000000000034 .LC3
     /tmp/ccN64Vaw.s:338    .rodata:0000000000000050 .LC4
     /tmp/ccN64Vaw.s:341    .rodata:0000000000000060 .LC5
     /tmp/ccN64Vaw.s:344    .rodata:0000000000000078 .LC6
     /tmp/ccN64Vaw.s:347    .rodata:0000000000000080 .LC7
     /tmp/ccN64Vaw.s:350    .rodata:000000000000009c .LC8
     /tmp/ccN64Vaw.s:353    .rodata:00000000000000b8 .LC9
     /tmp/ccN64Vaw.s:356    .rodata:00000000000000d4 .LC11
     /tmp/ccN64Vaw.s:359    .rodata:0000000000000100 .LC12
     /tmp/ccN64Vaw.s:362    .rodata:0000000000000118 .LC13
     /tmp/ccN64Vaw.s:365    .rodata:000000000000011c .LC14
     /tmp/ccN64Vaw.s:369    .rodata:0000000000000160 .LC15
     /tmp/ccN64Vaw.s:372    .rodata:0000000000000180 .LC16
     /tmp/ccN64Vaw.s:375    .rodata:0000000000000190 .LC17
     /tmp/ccN64Vaw.s:378    .rodata:00000000000001ac .LC18
     /tmp/ccN64Vaw.s:381    .rodata:00000000000001c8 .LC19
     /tmp/ccN64Vaw.s:384    .rodata:00000000000001ec .LC20
     /tmp/ccN64Vaw.s:387    .rodata:0000000000000210 .LC21
     /tmp/ccN64Vaw.s:390    .rodata:0000000000000228 .LC22
     /tmp/ccN64Vaw.s:393    .rodata:0000000000000244 .LC23
     /tmp/ccN64Vaw.s:397    .rodata:0000000000000280 .LC24
     /tmp/ccN64Vaw.s:400    .rodata:00000000000002a4 .LC10
     /tmp/ccN64Vaw.s:403    .text.cmd_sdiotest:0000000000000000 $t
     /tmp/ccN64Vaw.s:409    .text.cmd_sdiotest:0000000000000000 cmd_sdiotest
     /tmp/ccN64Vaw.s:882    .text.cmd_sdiotest:000000000000042c $d
     /tmp/ccN64Vaw.s:888    .text.cmd_sdiotest:000000000000043c $t
     /tmp/ccN64Vaw.s:1096   .rodata.sdccfg:0000000000000000 $d
     /tmp/ccN64Vaw.s:1099   .rodata.sdccfg:0000000000000000 sdccfg
     /tmp/ccN64Vaw.s:1102   .data.ser_cfg:0000000000000000 $d
     /tmp/ccN64Vaw.s:1105   .data.ser_cfg:0000000000000000 ser_cfg
     /tmp/ccN64Vaw.s:1116   .rodata.commands:0000000000000000 $d
     /tmp/ccN64Vaw.s:1119   .rodata.commands:0000000000000000 commands
     /tmp/ccN64Vaw.s:1125   .rodata.shell_cfg1:0000000000000000 $d
     /tmp/ccN64Vaw.s:1128   .rodata.shell_cfg1:0000000000000000 shell_cfg1
     /tmp/ccN64Vaw.s:1133   .rodata:00000000000002c4 .LC26
ARM GAS  /tmp/ccN64Vaw.s 			page 104


     /tmp/ccN64Vaw.s:1136   .text.main:0000000000000000 $t
     /tmp/ccN64Vaw.s:1142   .text.main:0000000000000000 main
     /tmp/ccN64Vaw.s:1217   .bss.waShell.7318:0000000000000000 waShell.7318
     /tmp/ccN64Vaw.s:1214   .bss.waShell.7318:0000000000000000 $d
                     .debug_frame:0000000000000010 $d

UNDEFINED SYMBOLS
chvprintf
chDbgPanic
SDCD1
sdcWrite
sdcRead
memcmp
chThdSleep
sdcConnect
port_halt
f_mount
f_getfree
f_open
f_write
f_close
f_stat
f_read
sdcDisconnect
SD2
halInit
chSysInit
sdStart
_pal_lld_setgroupmode
shellInit
shellCreateStatic
sdcStart
