ARM GAS  /tmp/ccN64Vaw.s 			page 1


   1              		.syntax unified
   2              		.cpu cortex-m4
   3              		.fpu softvfp
   4              		.eabi_attribute 20, 1
   5              		.eabi_attribute 21, 1
   6              		.eabi_attribute 23, 3
   7              		.eabi_attribute 24, 1
   8              		.eabi_attribute 25, 1
   9              		.eabi_attribute 26, 1
  10              		.eabi_attribute 30, 6
  11              		.eabi_attribute 34, 1
  12              		.eabi_attribute 18, 4
  13              		.thumb
  14              		.file	"main.c"
  15              		.text
  16              	.Ltext0:
  17              		.cfi_sections	.debug_frame
  18              		.section	.text.chprintf,"ax",%progbits
  19              		.align	2
  20              		.p2align 4,,15
  21              		.thumb
  22              		.thumb_func
  23              		.type	chprintf, %function
  24              	chprintf:
  25              	.LFB118:
  26              		.file 1 "../../../os/various/chprintf.h"
  27              		.loc 1 69 0
  28              		.cfi_startproc
  29              		@ args = 4, pretend = 12, frame = 16
  30              		@ frame_needed = 0, uses_anonymous_args = 1
  31 0000 0EB4     		push	{r1, r2, r3}
  32              		.cfi_def_cfa_offset 12
  33              		.cfi_offset 1, -12
  34              		.cfi_offset 2, -8
  35              		.cfi_offset 3, -4
  36 0002 00B5     		push	{lr}
  37              		.cfi_def_cfa_offset 16
  38              		.cfi_offset 14, -16
  39 0004 84B0     		sub	sp, sp, #16
  40              		.cfi_def_cfa_offset 32
  41 0006 0190     		str	r0, [sp, #4]
  42              		.loc 1 72 0
  43 0008 06AB     		add	r3, sp, #24
  44 000a 0393     		str	r3, [sp, #12]
  45              		.loc 1 73 0
  46 000c 0198     		ldr	r0, [sp, #4]
  47 000e 0599     		ldr	r1, [sp, #20]
  48 0010 039A     		ldr	r2, [sp, #12]
  49 0012 FFF7FEFF 		bl	chvprintf
  50              		.loc 1 75 0
  51 0016 04B0     		add	sp, sp, #16
  52              		@ sp needed
  53 0018 5DF804EB 		ldr	lr, [sp], #4
  54 001c 03B0     		add	sp, sp, #12
  55 001e 7047     		bx	lr
  56              		.cfi_endproc
  57              	.LFE118:
ARM GAS  /tmp/ccN64Vaw.s 			page 2


  58              		.size	chprintf, .-chprintf
  59              		.section	.bss.outbuf,"aw",%nobits
  60              		.align	2
  61              		.type	outbuf, %object
  62              		.size	outbuf, 4097
  63              	outbuf:
  64 0000 00000000 		.space	4097
  64      00000000 
  64      00000000 
  64      00000000 
  64      00000000 
  65 1001 000000   		.section	.bss.inbuf,"aw",%nobits
  66              		.align	2
  67              		.type	inbuf, %object
  68              		.size	inbuf, 4097
  69              	inbuf:
  70 0000 00000000 		.space	4097
  70      00000000 
  70      00000000 
  70      00000000 
  70      00000000 
  71 1001 000000   		.section	.bss.SDC_FS,"aw",%nobits
  72              		.align	2
  73              		.type	SDC_FS, %object
  74              		.size	SDC_FS, 560
  75              	SDC_FS:
  76 0000 00000000 		.space	560
  76      00000000 
  76      00000000 
  76      00000000 
  76      00000000 
  77              		.section	.bss.fs_ready,"aw",%nobits
  78              		.type	fs_ready, %object
  79              		.size	fs_ready, 1
  80              	fs_ready:
  81 0000 00       		.space	1
  82              		.section	.rodata
  83              		.align	2
  84              	.LC0:
  85 0000 22626164 		.ascii	"\"badblocks\"()\000"
  85      626C6F63 
  85      6B732228 
  85      2900
  86              		.section	.text.badblocks,"ax",%progbits
  87              		.align	2
  88              		.p2align 4,,15
  89              		.global	badblocks
  90              		.thumb
  91              		.thumb_func
  92              		.type	badblocks, %function
  93              	badblocks:
  94              	.LFB119:
  95              		.file 2 "main.c"
  96              		.loc 2 51 0
  97              		.cfi_startproc
  98              		@ args = 0, pretend = 0, frame = 24
  99              		@ frame_needed = 0, uses_anonymous_args = 0
ARM GAS  /tmp/ccN64Vaw.s 			page 3


 100 0000 00B5     		push	{lr}
 101              		.cfi_def_cfa_offset 4
 102              		.cfi_offset 14, -4
 103 0002 87B0     		sub	sp, sp, #28
 104              		.cfi_def_cfa_offset 32
 105 0004 0390     		str	r0, [sp, #12]
 106 0006 0291     		str	r1, [sp, #8]
 107 0008 0192     		str	r2, [sp, #4]
 108 000a 8DF80330 		strb	r3, [sp, #3]
 109              		.loc 2 52 0
 110 000e 0023     		movs	r3, #0
 111 0010 0593     		str	r3, [sp, #20]
 112              		.loc 2 53 0
 113 0012 0023     		movs	r3, #0
 114 0014 0493     		str	r3, [sp, #16]
 115              		.loc 2 55 0
 116 0016 019B     		ldr	r3, [sp, #4]
 117 0018 082B     		cmp	r3, #8
 118 001a 05D9     		bls	.L3
 119              		.loc 2 55 0 is_stmt 0 discriminator 1
 120 001c 40F20000 		movw	r0, #:lower16:.LC0
 121 0020 C0F20000 		movt	r0, #:upper16:.LC0
 122 0024 FFF7FEFF 		bl	chDbgPanic
 123              	.L3:
 124              		.loc 2 58 0 is_stmt 1
 125 0028 0023     		movs	r3, #0
 126 002a 0493     		str	r3, [sp, #16]
 127 002c 0BE0     		b	.L4
 128              	.L5:
 129              		.loc 2 59 0 discriminator 2
 130 002e 40F20003 		movw	r3, #:lower16:outbuf
 131 0032 C0F20003 		movt	r3, #:upper16:outbuf
 132 0036 049A     		ldr	r2, [sp, #16]
 133 0038 1344     		add	r3, r3, r2
 134 003a 9DF80320 		ldrb	r2, [sp, #3]
 135 003e 1A70     		strb	r2, [r3]
 136              		.loc 2 58 0 discriminator 2
 137 0040 049B     		ldr	r3, [sp, #16]
 138 0042 0133     		adds	r3, r3, #1
 139 0044 0493     		str	r3, [sp, #16]
 140              	.L4:
 141              		.loc 2 58 0 is_stmt 0 discriminator 1
 142 0046 019B     		ldr	r3, [sp, #4]
 143 0048 5A02     		lsls	r2, r3, #9
 144 004a 049B     		ldr	r3, [sp, #16]
 145 004c 9A42     		cmp	r2, r3
 146 004e EED8     		bhi	.L5
 147              		.loc 2 62 0 is_stmt 1
 148 0050 039B     		ldr	r3, [sp, #12]
 149 0052 0593     		str	r3, [sp, #20]
 150              		.loc 2 63 0
 151 0054 13E0     		b	.L6
 152              	.L9:
 153              		.loc 2 64 0
 154 0056 40F20000 		movw	r0, #:lower16:SDCD1
 155 005a C0F20000 		movt	r0, #:upper16:SDCD1
 156 005e 0599     		ldr	r1, [sp, #20]
ARM GAS  /tmp/ccN64Vaw.s 			page 4


 157 0060 40F20002 		movw	r2, #:lower16:outbuf
 158 0064 C0F20002 		movt	r2, #:upper16:outbuf
 159 0068 019B     		ldr	r3, [sp, #4]
 160 006a FFF7FEFF 		bl	sdcWrite
 161 006e 0346     		mov	r3, r0
 162 0070 002B     		cmp	r3, #0
 163 0072 00D0     		beq	.L7
 164              		.loc 2 65 0
 165 0074 35E0     		b	.L8
 166              	.L7:
 167              		.loc 2 66 0
 168 0076 059A     		ldr	r2, [sp, #20]
 169 0078 019B     		ldr	r3, [sp, #4]
 170 007a 1344     		add	r3, r3, r2
 171 007c 0593     		str	r3, [sp, #20]
 172              	.L6:
 173              		.loc 2 63 0 discriminator 1
 174 007e 059A     		ldr	r2, [sp, #20]
 175 0080 029B     		ldr	r3, [sp, #8]
 176 0082 9A42     		cmp	r2, r3
 177 0084 E7D3     		bcc	.L9
 178              		.loc 2 70 0
 179 0086 039B     		ldr	r3, [sp, #12]
 180 0088 0593     		str	r3, [sp, #20]
 181              		.loc 2 71 0
 182 008a 24E0     		b	.L10
 183              	.L13:
 184              		.loc 2 72 0
 185 008c 40F20000 		movw	r0, #:lower16:SDCD1
 186 0090 C0F20000 		movt	r0, #:upper16:SDCD1
 187 0094 0599     		ldr	r1, [sp, #20]
 188 0096 40F20002 		movw	r2, #:lower16:inbuf
 189 009a C0F20002 		movt	r2, #:upper16:inbuf
 190 009e 019B     		ldr	r3, [sp, #4]
 191 00a0 FFF7FEFF 		bl	sdcRead
 192 00a4 0346     		mov	r3, r0
 193 00a6 002B     		cmp	r3, #0
 194 00a8 00D0     		beq	.L11
 195              		.loc 2 73 0
 196 00aa 1AE0     		b	.L8
 197              	.L11:
 198              		.loc 2 74 0
 199 00ac 019B     		ldr	r3, [sp, #4]
 200 00ae 5B02     		lsls	r3, r3, #9
 201 00b0 40F20000 		movw	r0, #:lower16:inbuf
 202 00b4 C0F20000 		movt	r0, #:upper16:inbuf
 203 00b8 40F20001 		movw	r1, #:lower16:outbuf
 204 00bc C0F20001 		movt	r1, #:upper16:outbuf
 205 00c0 1A46     		mov	r2, r3
 206 00c2 FFF7FEFF 		bl	memcmp
 207 00c6 0346     		mov	r3, r0
 208 00c8 002B     		cmp	r3, #0
 209 00ca 00D0     		beq	.L12
 210              		.loc 2 75 0
 211 00cc 09E0     		b	.L8
 212              	.L12:
 213              		.loc 2 76 0
ARM GAS  /tmp/ccN64Vaw.s 			page 5


 214 00ce 059A     		ldr	r2, [sp, #20]
 215 00d0 019B     		ldr	r3, [sp, #4]
 216 00d2 1344     		add	r3, r3, r2
 217 00d4 0593     		str	r3, [sp, #20]
 218              	.L10:
 219              		.loc 2 71 0 discriminator 1
 220 00d6 059A     		ldr	r2, [sp, #20]
 221 00d8 029B     		ldr	r3, [sp, #8]
 222 00da 9A42     		cmp	r2, r3
 223 00dc D6D3     		bcc	.L13
 224              		.loc 2 78 0
 225 00de 0023     		movs	r3, #0
 226 00e0 00E0     		b	.L14
 227              	.L8:
 228              		.loc 2 81 0
 229 00e2 0123     		movs	r3, #1
 230              	.L14:
 231              		.loc 2 82 0
 232 00e4 1846     		mov	r0, r3
 233 00e6 07B0     		add	sp, sp, #28
 234              		@ sp needed
 235 00e8 5DF804FB 		ldr	pc, [sp], #4
 236              		.cfi_endproc
 237              	.LFE119:
 238              		.size	badblocks, .-badblocks
 239 00ec AFF30080 		.section	.text.fillbuffer,"ax",%progbits
 240              		.align	2
 241              		.p2align 4,,15
 242              		.global	fillbuffer
 243              		.thumb
 244              		.thumb_func
 245              		.type	fillbuffer, %function
 246              	fillbuffer:
 247              	.LFB120:
 248              		.loc 2 87 0
 249              		.cfi_startproc
 250              		@ args = 0, pretend = 0, frame = 16
 251              		@ frame_needed = 0, uses_anonymous_args = 0
 252              		@ link register save eliminated.
 253 0000 84B0     		sub	sp, sp, #16
 254              		.cfi_def_cfa_offset 16
 255 0002 0346     		mov	r3, r0
 256 0004 0091     		str	r1, [sp]
 257 0006 8DF80730 		strb	r3, [sp, #7]
 258              		.loc 2 88 0
 259 000a 0023     		movs	r3, #0
 260 000c 0393     		str	r3, [sp, #12]
 261              		.loc 2 89 0
 262 000e 0023     		movs	r3, #0
 263 0010 0393     		str	r3, [sp, #12]
 264 0012 08E0     		b	.L16
 265              	.L17:
 266              		.loc 2 90 0 discriminator 2
 267 0014 009A     		ldr	r2, [sp]
 268 0016 039B     		ldr	r3, [sp, #12]
 269 0018 1344     		add	r3, r3, r2
 270 001a 9DF80720 		ldrb	r2, [sp, #7]
ARM GAS  /tmp/ccN64Vaw.s 			page 6


 271 001e 1A70     		strb	r2, [r3]
 272              		.loc 2 89 0 discriminator 2
 273 0020 039B     		ldr	r3, [sp, #12]
 274 0022 0133     		adds	r3, r3, #1
 275 0024 0393     		str	r3, [sp, #12]
 276              	.L16:
 277              		.loc 2 89 0 is_stmt 0 discriminator 1
 278 0026 039B     		ldr	r3, [sp, #12]
 279 0028 B3F5805F 		cmp	r3, #4096
 280 002c F2D3     		bcc	.L17
 281              		.loc 2 91 0 is_stmt 1
 282 002e 04B0     		add	sp, sp, #16
 283              		@ sp needed
 284 0030 7047     		bx	lr
 285              		.cfi_endproc
 286              	.LFE120:
 287              		.size	fillbuffer, .-fillbuffer
 288 0032 00BFAFF3 		.section	.text.fillbuffers,"ax",%progbits
 288      0080AFF3 
 288      0080AFF3 
 288      0080
 289              		.align	2
 290              		.p2align 4,,15
 291              		.global	fillbuffers
 292              		.thumb
 293              		.thumb_func
 294              		.type	fillbuffers, %function
 295              	fillbuffers:
 296              	.LFB121:
 297              		.loc 2 96 0
 298              		.cfi_startproc
 299              		@ args = 0, pretend = 0, frame = 8
 300              		@ frame_needed = 0, uses_anonymous_args = 0
 301 0000 00B5     		push	{lr}
 302              		.cfi_def_cfa_offset 4
 303              		.cfi_offset 14, -4
 304 0002 83B0     		sub	sp, sp, #12
 305              		.cfi_def_cfa_offset 16
 306 0004 0346     		mov	r3, r0
 307 0006 8DF80730 		strb	r3, [sp, #7]
 308              		.loc 2 97 0
 309 000a 9DF80730 		ldrb	r3, [sp, #7]	@ zero_extendqisi2
 310 000e 1846     		mov	r0, r3
 311 0010 40F20001 		movw	r1, #:lower16:inbuf
 312 0014 C0F20001 		movt	r1, #:upper16:inbuf
 313 0018 FFF7FEFF 		bl	fillbuffer
 314              		.loc 2 98 0
 315 001c 9DF80730 		ldrb	r3, [sp, #7]	@ zero_extendqisi2
 316 0020 1846     		mov	r0, r3
 317 0022 40F20001 		movw	r1, #:lower16:outbuf
 318 0026 C0F20001 		movt	r1, #:upper16:outbuf
 319 002a FFF7FEFF 		bl	fillbuffer
 320              		.loc 2 99 0
 321 002e 03B0     		add	sp, sp, #12
 322              		@ sp needed
 323 0030 5DF804FB 		ldr	pc, [sp], #4
 324              		.cfi_endproc
ARM GAS  /tmp/ccN64Vaw.s 			page 7


 325              	.LFE121:
 326              		.size	fillbuffers, .-fillbuffers
 327 0034 AFF30080 		.section	.rodata
 327      AFF30080 
 327      AFF30080 
 328 000e 0000     		.align	2
 329              	.LC1:
 330 0010 54727969 		.ascii	"Trying to connect SDIO... \000"
 330      6E672074 
 330      6F20636F 
 330      6E6E6563 
 330      74205344 
 331 002b 00       		.align	2
 332              	.LC2:
 333 002c 4F4B0D0A 		.ascii	"OK\015\012\000"
 333      00
 334 0031 000000   		.align	2
 335              	.LC3:
 336 0034 2A2A2A20 		.ascii	"*** Card CSD content is: \000"
 336      43617264 
 336      20435344 
 336      20636F6E 
 336      74656E74 
 337 004e 0000     		.align	2
 338              	.LC4:
 339 0050 25582025 		.ascii	"%X %X %X %X \015\012\000"
 339      58202558 
 339      20255820 
 339      0D0A00
 340 005f 00       		.align	2
 341              	.LC5:
 342 0060 53696E67 		.ascii	"Single aligned read...\000"
 342      6C652061 
 342      6C69676E 
 342      65642072 
 342      6561642E 
 343 0077 00       		.align	2
 344              	.LC6:
 345 0078 204F4B0D 		.ascii	" OK\015\012\000"
 345      0A00
 346 007e 0000     		.align	2
 347              	.LC7:
 348 0080 53696E67 		.ascii	"Single unaligned read...\000"
 348      6C652075 
 348      6E616C69 
 348      676E6564 
 348      20726561 
 349 0099 000000   		.align	2
 350              	.LC8:
 351 009c 4D756C74 		.ascii	"Multiple aligned reads...\000"
 351      69706C65 
 351      20616C69 
 351      676E6564 
 351      20726561 
 352 00b6 0000     		.align	2
 353              	.LC9:
 354 00b8 4D756C74 		.ascii	"Multiple unaligned reads...\000"
ARM GAS  /tmp/ccN64Vaw.s 			page 8


 354      69706C65 
 354      20756E61 
 354      6C69676E 
 354      65642072 
 355              		.align	2
 356              	.LC11:
 357 00d4 52656769 		.ascii	"Register working area for filesystem... \000"
 357      73746572 
 357      20776F72 
 357      6B696E67 
 357      20617265 
 358 00fd 000000   		.align	2
 359              	.LC12:
 360 0100 4D6F756E 		.ascii	"Mount filesystem... \000"
 360      74206669 
 360      6C657379 
 360      7374656D 
 360      2E2E2E20 
 361 0115 000000   		.align	2
 362              	.LC13:
 363 0118 2F00     		.ascii	"/\000"
 364 011a 0000     		.align	2
 365              	.LC14:
 366 011c 46533A20 		.ascii	"FS: %lu free clusters, %lu sectors per cluster, %lu"
 366      256C7520 
 366      66726565 
 366      20636C75 
 366      73746572 
 367 014f 20627974 		.ascii	" bytes free\015\012\000"
 367      65732066 
 367      7265650D 
 367      0A00
 368 015d 000000   		.align	2
 369              	.LC15:
 370 0160 43726561 		.ascii	"Create file \"chtest.txt\"... \000"
 370      74652066 
 370      696C6520 
 370      22636874 
 370      6573742E 
 371 017d 000000   		.align	2
 372              	.LC16:
 373 0180 303A6368 		.ascii	"0:chtest.txt\000"
 373      74657374 
 373      2E747874 
 373      00
 374 018d 000000   		.align	2
 375              	.LC17:
 376 0190 57726974 		.ascii	"Write some data in it... \000"
 376      6520736F 
 376      6D652064 
 376      61746120 
 376      696E2069 
 377 01aa 0000     		.align	2
 378              	.LC18:
 379 01ac 436C6F73 		.ascii	"Close file \"chtest.txt\"... \000"
 379      65206669 
 379      6C652022 
ARM GAS  /tmp/ccN64Vaw.s 			page 9


 379      63687465 
 379      73742E74 
 380              		.align	2
 381              	.LC19:
 382 01c8 43686563 		.ascii	"Check file size \"chtest.txt\"... \000"
 382      6B206669 
 382      6C652073 
 382      697A6520 
 382      22636874 
 383 01e9 000000   		.align	2
 384              	.LC20:
 385 01ec 43686563 		.ascii	"Check file content \"chtest.txt\"... \000"
 385      6B206669 
 385      6C652063 
 385      6F6E7465 
 385      6E742022 
 386              		.align	2
 387              	.LC21:
 388 0210 556D6F75 		.ascii	"Umount filesystem... \000"
 388      6E742066 
 388      696C6573 
 388      79737465 
 388      6D2E2E2E 
 389 0226 0000     		.align	2
 390              	.LC22:
 391 0228 44697363 		.ascii	"Disconnecting from SDIO...\000"
 391      6F6E6E65 
 391      6374696E 
 391      67206672 
 391      6F6D2053 
 392 0243 00       		.align	2
 393              	.LC23:
 394 0244 2D2D2D2D 		.ascii	"---------------------------------------------------"
 394      2D2D2D2D 
 394      2D2D2D2D 
 394      2D2D2D2D 
 394      2D2D2D2D 
 395 0277 2D2D2D0D 		.ascii	"---\015\012\000"
 395      0A00
 396 027d 000000   		.align	2
 397              	.LC24:
 398 0280 416C6C20 		.ascii	"All tests passed successfully.\015\012\000"
 398      74657374 
 398      73207061 
 398      73736564 
 398      20737563 
 399 02a1 000000   		.align	2
 400              	.LC10:
 401 02a4 54686973 		.ascii	"This is test file\015\012\000"
 401      20697320 
 401      74657374 
 401      2066696C 
 401      650D0A00 
 402              		.section	.text.cmd_sdiotest,"ax",%progbits
 403              		.align	2
 404              		.p2align 4,,15
 405              		.global	cmd_sdiotest
ARM GAS  /tmp/ccN64Vaw.s 			page 10


 406              		.thumb
 407              		.thumb_func
 408              		.type	cmd_sdiotest, %function
 409              	cmd_sdiotest:
 410              	.LFB122:
 411              		.loc 2 104 0
 412              		.cfi_startproc
 413              		@ args = 0, pretend = 0, frame = 664
 414              		@ frame_needed = 0, uses_anonymous_args = 0
 415 0000 30B5     		push	{r4, r5, lr}
 416              		.cfi_def_cfa_offset 12
 417              		.cfi_offset 4, -12
 418              		.cfi_offset 5, -8
 419              		.cfi_offset 14, -4
 420 0002 ADF5297D 		sub	sp, sp, #676
 421              		.cfi_def_cfa_offset 688
 422 0006 05AB     		add	r3, sp, #20
 423 0008 1860     		str	r0, [r3]
 424 000a 04AB     		add	r3, sp, #16
 425 000c 1960     		str	r1, [r3]
 426 000e 03AB     		add	r3, sp, #12
 427 0010 1A60     		str	r2, [r3]
 428              		.loc 2 107 0
 429 0012 0023     		movs	r3, #0
 430 0014 A793     		str	r3, [sp, #668]
 431              		.loc 2 109 0
 432 0016 05AB     		add	r3, sp, #20
 433 0018 1868     		ldr	r0, [r3]
 434 001a 40F20001 		movw	r1, #:lower16:.LC1
 435 001e C0F20001 		movt	r1, #:upper16:.LC1
 436 0022 FFF7FEFF 		bl	chprintf
 437              		.loc 2 110 0
 438 0026 6420     		movs	r0, #100
 439 0028 FFF7FEFF 		bl	chThdSleep
 440              		.loc 2 112 0
 441 002c 40F20000 		movw	r0, #:lower16:SDCD1
 442 0030 C0F20000 		movt	r0, #:upper16:SDCD1
 443 0034 FFF7FEFF 		bl	sdcConnect
 444 0038 0346     		mov	r3, r0
 445 003a 83F00103 		eor	r3, r3, #1
 446 003e DBB2     		uxtb	r3, r3
 447 0040 002B     		cmp	r3, #0
 448 0042 00F0D782 		beq	.L20
 449              	.LBB2:
 450              		.loc 2 114 0
 451 0046 05AB     		add	r3, sp, #20
 452 0048 1868     		ldr	r0, [r3]
 453 004a 40F20001 		movw	r1, #:lower16:.LC2
 454 004e C0F20001 		movt	r1, #:upper16:.LC2
 455 0052 FFF7FEFF 		bl	chprintf
 456              		.loc 2 115 0
 457 0056 05AB     		add	r3, sp, #20
 458 0058 1868     		ldr	r0, [r3]
 459 005a 40F20001 		movw	r1, #:lower16:.LC3
 460 005e C0F20001 		movt	r1, #:upper16:.LC3
 461 0062 FFF7FEFF 		bl	chprintf
 462              		.loc 2 116 0
ARM GAS  /tmp/ccN64Vaw.s 			page 11


 463 0066 40F20003 		movw	r3, #:lower16:SDCD1
 464 006a C0F20003 		movt	r3, #:upper16:SDCD1
 465 006e 5A6A     		ldr	r2, [r3, #36]
 466 0070 40F20003 		movw	r3, #:lower16:SDCD1
 467 0074 C0F20003 		movt	r3, #:upper16:SDCD1
 468 0078 1C6A     		ldr	r4, [r3, #32]
 469 007a 40F20003 		movw	r3, #:lower16:SDCD1
 470 007e C0F20003 		movt	r3, #:upper16:SDCD1
 471 0082 D869     		ldr	r0, [r3, #28]
 472 0084 40F20003 		movw	r3, #:lower16:SDCD1
 473 0088 C0F20003 		movt	r3, #:upper16:SDCD1
 474 008c 9969     		ldr	r1, [r3, #24]
 475 008e 05AB     		add	r3, sp, #20
 476 0090 0090     		str	r0, [sp]
 477 0092 0191     		str	r1, [sp, #4]
 478 0094 1868     		ldr	r0, [r3]
 479 0096 40F20001 		movw	r1, #:lower16:.LC4
 480 009a C0F20001 		movt	r1, #:upper16:.LC4
 481 009e 2346     		mov	r3, r4
 482 00a0 FFF7FEFF 		bl	chprintf
 483              		.loc 2 119 0
 484 00a4 05AB     		add	r3, sp, #20
 485 00a6 1868     		ldr	r0, [r3]
 486 00a8 40F20001 		movw	r1, #:lower16:.LC5
 487 00ac C0F20001 		movt	r1, #:upper16:.LC5
 488 00b0 FFF7FEFF 		bl	chprintf
 489              		.loc 2 120 0
 490 00b4 6420     		movs	r0, #100
 491 00b6 FFF7FEFF 		bl	chThdSleep
 492              		.loc 2 121 0
 493 00ba 40F20000 		movw	r0, #:lower16:SDCD1
 494 00be C0F20000 		movt	r0, #:upper16:SDCD1
 495 00c2 0021     		movs	r1, #0
 496 00c4 40F20002 		movw	r2, #:lower16:inbuf
 497 00c8 C0F20002 		movt	r2, #:upper16:inbuf
 498 00cc 0123     		movs	r3, #1
 499 00ce FFF7FEFF 		bl	sdcRead
 500 00d2 0346     		mov	r3, r0
 501 00d4 002B     		cmp	r3, #0
 502 00d6 01D0     		beq	.L21
 503              		.loc 2 122 0
 504 00d8 FFF7FEFF 		bl	port_halt
 505              	.L21:
 506              		.loc 2 123 0
 507 00dc 05AB     		add	r3, sp, #20
 508 00de 1868     		ldr	r0, [r3]
 509 00e0 40F20001 		movw	r1, #:lower16:.LC6
 510 00e4 C0F20001 		movt	r1, #:upper16:.LC6
 511 00e8 FFF7FEFF 		bl	chprintf
 512              		.loc 2 124 0
 513 00ec 6420     		movs	r0, #100
 514 00ee FFF7FEFF 		bl	chThdSleep
 515              		.loc 2 127 0
 516 00f2 05AB     		add	r3, sp, #20
 517 00f4 1868     		ldr	r0, [r3]
 518 00f6 40F20001 		movw	r1, #:lower16:.LC7
 519 00fa C0F20001 		movt	r1, #:upper16:.LC7
ARM GAS  /tmp/ccN64Vaw.s 			page 12


 520 00fe FFF7FEFF 		bl	chprintf
 521              		.loc 2 128 0
 522 0102 6420     		movs	r0, #100
 523 0104 FFF7FEFF 		bl	chThdSleep
 524              		.loc 2 129 0
 525 0108 40F20000 		movw	r0, #:lower16:SDCD1
 526 010c C0F20000 		movt	r0, #:upper16:SDCD1
 527 0110 0021     		movs	r1, #0
 528 0112 C64A     		ldr	r2, .L52
 529 0114 0123     		movs	r3, #1
 530 0116 FFF7FEFF 		bl	sdcRead
 531 011a 0346     		mov	r3, r0
 532 011c 002B     		cmp	r3, #0
 533 011e 01D0     		beq	.L22
 534              		.loc 2 130 0
 535 0120 FFF7FEFF 		bl	port_halt
 536              	.L22:
 537              		.loc 2 131 0
 538 0124 40F20000 		movw	r0, #:lower16:SDCD1
 539 0128 C0F20000 		movt	r0, #:upper16:SDCD1
 540 012c 0021     		movs	r1, #0
 541 012e C04A     		ldr	r2, .L52+4
 542 0130 0123     		movs	r3, #1
 543 0132 FFF7FEFF 		bl	sdcRead
 544 0136 0346     		mov	r3, r0
 545 0138 002B     		cmp	r3, #0
 546 013a 01D0     		beq	.L23
 547              		.loc 2 132 0
 548 013c FFF7FEFF 		bl	port_halt
 549              	.L23:
 550              		.loc 2 133 0
 551 0140 40F20000 		movw	r0, #:lower16:SDCD1
 552 0144 C0F20000 		movt	r0, #:upper16:SDCD1
 553 0148 0021     		movs	r1, #0
 554 014a BA4A     		ldr	r2, .L52+8
 555 014c 0123     		movs	r3, #1
 556 014e FFF7FEFF 		bl	sdcRead
 557 0152 0346     		mov	r3, r0
 558 0154 002B     		cmp	r3, #0
 559 0156 01D0     		beq	.L24
 560              		.loc 2 134 0
 561 0158 FFF7FEFF 		bl	port_halt
 562              	.L24:
 563              		.loc 2 135 0
 564 015c 05AB     		add	r3, sp, #20
 565 015e 1868     		ldr	r0, [r3]
 566 0160 40F20001 		movw	r1, #:lower16:.LC6
 567 0164 C0F20001 		movt	r1, #:upper16:.LC6
 568 0168 FFF7FEFF 		bl	chprintf
 569              		.loc 2 136 0
 570 016c 6420     		movs	r0, #100
 571 016e FFF7FEFF 		bl	chThdSleep
 572              		.loc 2 139 0
 573 0172 05AB     		add	r3, sp, #20
 574 0174 1868     		ldr	r0, [r3]
 575 0176 40F20001 		movw	r1, #:lower16:.LC8
 576 017a C0F20001 		movt	r1, #:upper16:.LC8
ARM GAS  /tmp/ccN64Vaw.s 			page 13


 577 017e FFF7FEFF 		bl	chprintf
 578              		.loc 2 140 0
 579 0182 6420     		movs	r0, #100
 580 0184 FFF7FEFF 		bl	chThdSleep
 581              		.loc 2 141 0
 582 0188 5520     		movs	r0, #85
 583 018a FFF7FEFF 		bl	fillbuffers
 584              		.loc 2 143 0
 585 018e 40F20000 		movw	r0, #:lower16:SDCD1
 586 0192 C0F20000 		movt	r0, #:upper16:SDCD1
 587 0196 0021     		movs	r1, #0
 588 0198 40F20002 		movw	r2, #:lower16:inbuf
 589 019c C0F20002 		movt	r2, #:upper16:inbuf
 590 01a0 0823     		movs	r3, #8
 591 01a2 FFF7FEFF 		bl	sdcRead
 592 01a6 0346     		mov	r3, r0
 593 01a8 002B     		cmp	r3, #0
 594 01aa 01D0     		beq	.L25
 595              		.loc 2 144 0
 596 01ac FFF7FEFF 		bl	port_halt
 597              	.L25:
 598              		.loc 2 145 0
 599 01b0 0023     		movs	r3, #0
 600 01b2 A793     		str	r3, [sp, #668]
 601 01b4 24E0     		b	.L26
 602              	.L29:
 603              		.loc 2 146 0
 604 01b6 40F20000 		movw	r0, #:lower16:SDCD1
 605 01ba C0F20000 		movt	r0, #:upper16:SDCD1
 606 01be 0021     		movs	r1, #0
 607 01c0 40F20002 		movw	r2, #:lower16:outbuf
 608 01c4 C0F20002 		movt	r2, #:upper16:outbuf
 609 01c8 0823     		movs	r3, #8
 610 01ca FFF7FEFF 		bl	sdcRead
 611 01ce 0346     		mov	r3, r0
 612 01d0 002B     		cmp	r3, #0
 613 01d2 01D0     		beq	.L27
 614              		.loc 2 147 0
 615 01d4 FFF7FEFF 		bl	port_halt
 616              	.L27:
 617              		.loc 2 148 0
 618 01d8 40F20000 		movw	r0, #:lower16:inbuf
 619 01dc C0F20000 		movt	r0, #:upper16:inbuf
 620 01e0 40F20001 		movw	r1, #:lower16:outbuf
 621 01e4 C0F20001 		movt	r1, #:upper16:outbuf
 622 01e8 4FF48052 		mov	r2, #4096
 623 01ec FFF7FEFF 		bl	memcmp
 624 01f0 0346     		mov	r3, r0
 625 01f2 002B     		cmp	r3, #0
 626 01f4 01D0     		beq	.L28
 627              		.loc 2 149 0
 628 01f6 FFF7FEFF 		bl	port_halt
 629              	.L28:
 630              		.loc 2 145 0
 631 01fa A79B     		ldr	r3, [sp, #668]
 632 01fc 0133     		adds	r3, r3, #1
 633 01fe A793     		str	r3, [sp, #668]
ARM GAS  /tmp/ccN64Vaw.s 			page 14


 634              	.L26:
 635              		.loc 2 145 0 is_stmt 0 discriminator 1
 636 0200 A79B     		ldr	r3, [sp, #668]
 637 0202 B3F57A7F 		cmp	r3, #1000
 638 0206 D6D3     		bcc	.L29
 639              		.loc 2 151 0 is_stmt 1
 640 0208 05AB     		add	r3, sp, #20
 641 020a 1868     		ldr	r0, [r3]
 642 020c 40F20001 		movw	r1, #:lower16:.LC6
 643 0210 C0F20001 		movt	r1, #:upper16:.LC6
 644 0214 FFF7FEFF 		bl	chprintf
 645              		.loc 2 152 0
 646 0218 6420     		movs	r0, #100
 647 021a FFF7FEFF 		bl	chThdSleep
 648              		.loc 2 155 0
 649 021e 05AB     		add	r3, sp, #20
 650 0220 1868     		ldr	r0, [r3]
 651 0222 40F20001 		movw	r1, #:lower16:.LC9
 652 0226 C0F20001 		movt	r1, #:upper16:.LC9
 653 022a FFF7FEFF 		bl	chprintf
 654              		.loc 2 156 0
 655 022e 6420     		movs	r0, #100
 656 0230 FFF7FEFF 		bl	chThdSleep
 657              		.loc 2 157 0
 658 0234 5520     		movs	r0, #85
 659 0236 FFF7FEFF 		bl	fillbuffers
 660              		.loc 2 159 0
 661 023a 40F20000 		movw	r0, #:lower16:SDCD1
 662 023e C0F20000 		movt	r0, #:upper16:SDCD1
 663 0242 0021     		movs	r1, #0
 664 0244 794A     		ldr	r2, .L52
 665 0246 0823     		movs	r3, #8
 666 0248 FFF7FEFF 		bl	sdcRead
 667 024c 0346     		mov	r3, r0
 668 024e 002B     		cmp	r3, #0
 669 0250 01D0     		beq	.L30
 670              		.loc 2 160 0
 671 0252 FFF7FEFF 		bl	port_halt
 672              	.L30:
 673              		.loc 2 161 0
 674 0256 0023     		movs	r3, #0
 675 0258 A793     		str	r3, [sp, #668]
 676 025a 21E0     		b	.L31
 677              	.L34:
 678              		.loc 2 162 0
 679 025c 40F20000 		movw	r0, #:lower16:SDCD1
 680 0260 C0F20000 		movt	r0, #:upper16:SDCD1
 681 0264 0021     		movs	r1, #0
 682 0266 744A     		ldr	r2, .L52+12
 683 0268 0823     		movs	r3, #8
 684 026a FFF7FEFF 		bl	sdcRead
 685 026e 0346     		mov	r3, r0
 686 0270 002B     		cmp	r3, #0
 687 0272 01D0     		beq	.L32
 688              		.loc 2 163 0
 689 0274 FFF7FEFF 		bl	port_halt
 690              	.L32:
ARM GAS  /tmp/ccN64Vaw.s 			page 15


 691              		.loc 2 164 0
 692 0278 40F20000 		movw	r0, #:lower16:inbuf
 693 027c C0F20000 		movt	r0, #:upper16:inbuf
 694 0280 40F20001 		movw	r1, #:lower16:outbuf
 695 0284 C0F20001 		movt	r1, #:upper16:outbuf
 696 0288 4FF48052 		mov	r2, #4096
 697 028c FFF7FEFF 		bl	memcmp
 698 0290 0346     		mov	r3, r0
 699 0292 002B     		cmp	r3, #0
 700 0294 01D0     		beq	.L33
 701              		.loc 2 165 0
 702 0296 FFF7FEFF 		bl	port_halt
 703              	.L33:
 704              		.loc 2 161 0
 705 029a A79B     		ldr	r3, [sp, #668]
 706 029c 0133     		adds	r3, r3, #1
 707 029e A793     		str	r3, [sp, #668]
 708              	.L31:
 709              		.loc 2 161 0 is_stmt 0 discriminator 1
 710 02a0 A79B     		ldr	r3, [sp, #668]
 711 02a2 B3F57A7F 		cmp	r3, #1000
 712 02a6 D9D3     		bcc	.L34
 713              		.loc 2 167 0 is_stmt 1
 714 02a8 05AB     		add	r3, sp, #20
 715 02aa 1868     		ldr	r0, [r3]
 716 02ac 40F20001 		movw	r1, #:lower16:.LC6
 717 02b0 C0F20001 		movt	r1, #:upper16:.LC6
 718 02b4 FFF7FEFF 		bl	chprintf
 719              		.loc 2 168 0
 720 02b8 6420     		movs	r0, #100
 721 02ba FFF7FEFF 		bl	chThdSleep
 722              		.loc 2 215 0
 723 02be 40F20003 		movw	r3, #:lower16:.LC10
 724 02c2 C0F20003 		movt	r3, #:upper16:.LC10
 725 02c6 9DAC     		add	r4, sp, #628
 726 02c8 1D46     		mov	r5, r3
 727 02ca 0FCD     		ldmia	r5!, {r0, r1, r2, r3}
 728 02cc 0FC4     		stmia	r4!, {r0, r1, r2, r3}
 729 02ce 2B68     		ldr	r3, [r5]
 730 02d0 2360     		str	r3, [r4]
 731              		.loc 2 217 0
 732 02d2 05AB     		add	r3, sp, #20
 733 02d4 1868     		ldr	r0, [r3]
 734 02d6 40F20001 		movw	r1, #:lower16:.LC11
 735 02da C0F20001 		movt	r1, #:upper16:.LC11
 736 02de FFF7FEFF 		bl	chprintf
 737              		.loc 2 218 0
 738 02e2 6420     		movs	r0, #100
 739 02e4 FFF7FEFF 		bl	chThdSleep
 740              		.loc 2 219 0
 741 02e8 0020     		movs	r0, #0
 742 02ea 40F20001 		movw	r1, #:lower16:SDC_FS
 743 02ee C0F20001 		movt	r1, #:upper16:SDC_FS
 744 02f2 FFF7FEFF 		bl	f_mount
 745 02f6 0346     		mov	r3, r0
 746 02f8 8DF89B32 		strb	r3, [sp, #667]
 747              		.loc 2 220 0
ARM GAS  /tmp/ccN64Vaw.s 			page 16


 748 02fc 9DF89B32 		ldrb	r3, [sp, #667]	@ zero_extendqisi2
 749 0300 002B     		cmp	r3, #0
 750 0302 02D0     		beq	.L35
 751              		.loc 2 221 0
 752 0304 FFF7FEFF 		bl	port_halt
 753 0308 0DE0     		b	.L36
 754              	.L35:
 755              		.loc 2 224 0
 756 030a 40F20003 		movw	r3, #:lower16:fs_ready
 757 030e C0F20003 		movt	r3, #:upper16:fs_ready
 758 0312 0122     		movs	r2, #1
 759 0314 1A70     		strb	r2, [r3]
 760              		.loc 2 225 0
 761 0316 05AB     		add	r3, sp, #20
 762 0318 1868     		ldr	r0, [r3]
 763 031a 40F20001 		movw	r1, #:lower16:.LC2
 764 031e C0F20001 		movt	r1, #:upper16:.LC2
 765 0322 FFF7FEFF 		bl	chprintf
 766              	.L36:
 767              		.loc 2 242 0
 768 0326 05AB     		add	r3, sp, #20
 769 0328 1868     		ldr	r0, [r3]
 770 032a 40F20001 		movw	r1, #:lower16:.LC12
 771 032e C0F20001 		movt	r1, #:upper16:.LC12
 772 0332 FFF7FEFF 		bl	chprintf
 773              		.loc 2 243 0
 774 0336 6420     		movs	r0, #100
 775 0338 FFF7FEFF 		bl	chThdSleep
 776              		.loc 2 244 0
 777 033c A5AA     		add	r2, sp, #660
 778 033e A4AB     		add	r3, sp, #656
 779 0340 40F20000 		movw	r0, #:lower16:.LC13
 780 0344 C0F20000 		movt	r0, #:upper16:.LC13
 781 0348 1146     		mov	r1, r2
 782 034a 1A46     		mov	r2, r3
 783 034c FFF7FEFF 		bl	f_getfree
 784 0350 0346     		mov	r3, r0
 785 0352 8DF89B32 		strb	r3, [sp, #667]
 786              		.loc 2 245 0
 787 0356 9DF89B32 		ldrb	r3, [sp, #667]	@ zero_extendqisi2
 788 035a 002B     		cmp	r3, #0
 789 035c 01D0     		beq	.L37
 790              		.loc 2 246 0
 791 035e FFF7FEFF 		bl	port_halt
 792              	.L37:
 793              		.loc 2 248 0
 794 0362 05AB     		add	r3, sp, #20
 795 0364 1868     		ldr	r0, [r3]
 796 0366 40F20001 		movw	r1, #:lower16:.LC2
 797 036a C0F20001 		movt	r1, #:upper16:.LC2
 798 036e FFF7FEFF 		bl	chprintf
 799              		.loc 2 249 0
 800 0372 A59A     		ldr	r2, [sp, #660]
 801              		.loc 2 251 0
 802 0374 40F20003 		movw	r3, #:lower16:SDC_FS
 803 0378 C0F20003 		movt	r3, #:upper16:SDC_FS
 804 037c 9B78     		ldrb	r3, [r3, #2]	@ zero_extendqisi2
ARM GAS  /tmp/ccN64Vaw.s 			page 17


 805              		.loc 2 249 0
 806 037e 1C46     		mov	r4, r3
 807              		.loc 2 252 0
 808 0380 40F20003 		movw	r3, #:lower16:SDC_FS
 809 0384 C0F20003 		movt	r3, #:upper16:SDC_FS
 810 0388 9B78     		ldrb	r3, [r3, #2]	@ zero_extendqisi2
 811 038a A599     		ldr	r1, [sp, #660]
 812 038c 01FB03F3 		mul	r3, r1, r3
 813              		.loc 2 249 0
 814 0390 5902     		lsls	r1, r3, #9
 815 0392 05AB     		add	r3, sp, #20
 816 0394 0091     		str	r1, [sp]
 817 0396 1868     		ldr	r0, [r3]
 818 0398 40F20001 		movw	r1, #:lower16:.LC14
 819 039c C0F20001 		movt	r1, #:upper16:.LC14
 820 03a0 2346     		mov	r3, r4
 821 03a2 FFF7FEFF 		bl	chprintf
 822              		.loc 2 255 0
 823 03a6 05AB     		add	r3, sp, #20
 824 03a8 1868     		ldr	r0, [r3]
 825 03aa 40F20001 		movw	r1, #:lower16:.LC15
 826 03ae C0F20001 		movt	r1, #:upper16:.LC15
 827 03b2 FFF7FEFF 		bl	chprintf
 828              		.loc 2 256 0
 829 03b6 6420     		movs	r0, #100
 830 03b8 FFF7FEFF 		bl	chThdSleep
 831              		.loc 2 257 0
 832 03bc 0FAB     		add	r3, sp, #60
 833 03be 1846     		mov	r0, r3
 834 03c0 40F20001 		movw	r1, #:lower16:.LC16
 835 03c4 C0F20001 		movt	r1, #:upper16:.LC16
 836 03c8 1222     		movs	r2, #18
 837 03ca FFF7FEFF 		bl	f_open
 838 03ce 0346     		mov	r3, r0
 839 03d0 8DF89B32 		strb	r3, [sp, #667]
 840              		.loc 2 258 0
 841 03d4 9DF89B32 		ldrb	r3, [sp, #667]	@ zero_extendqisi2
 842 03d8 002B     		cmp	r3, #0
 843 03da 01D0     		beq	.L38
 844              		.loc 2 259 0
 845 03dc FFF7FEFF 		bl	port_halt
 846              	.L38:
 847              		.loc 2 261 0
 848 03e0 05AB     		add	r3, sp, #20
 849 03e2 1868     		ldr	r0, [r3]
 850 03e4 40F20001 		movw	r1, #:lower16:.LC2
 851 03e8 C0F20001 		movt	r1, #:upper16:.LC2
 852 03ec FFF7FEFF 		bl	chprintf
 853              		.loc 2 262 0
 854 03f0 05AB     		add	r3, sp, #20
 855 03f2 1868     		ldr	r0, [r3]
 856 03f4 40F20001 		movw	r1, #:lower16:.LC17
 857 03f8 C0F20001 		movt	r1, #:upper16:.LC17
 858 03fc FFF7FEFF 		bl	chprintf
 859              		.loc 2 263 0
 860 0400 6420     		movs	r0, #100
 861 0402 FFF7FEFF 		bl	chThdSleep
ARM GAS  /tmp/ccN64Vaw.s 			page 18


 862              		.loc 2 264 0
 863 0406 0FA9     		add	r1, sp, #60
 864 0408 9DAA     		add	r2, sp, #628
 865 040a A3AB     		add	r3, sp, #652
 866 040c 0846     		mov	r0, r1
 867 040e 1146     		mov	r1, r2
 868 0410 1422     		movs	r2, #20
 869 0412 FFF7FEFF 		bl	f_write
 870 0416 0346     		mov	r3, r0
 871 0418 8DF89B32 		strb	r3, [sp, #667]
 872              		.loc 2 265 0
 873 041c 9DF89B32 		ldrb	r3, [sp, #667]	@ zero_extendqisi2
 874 0420 002B     		cmp	r3, #0
 875 0422 0BD0     		beq	.L39
 876              		.loc 2 266 0
 877 0424 FFF7FEFF 		bl	port_halt
 878 0428 10E0     		b	.L40
 879              	.L53:
 880 042a 00BF     		.align	2
 881              	.L52:
 882 042c 01000000 		.word	inbuf+1
 883 0430 02000000 		.word	inbuf+2
 884 0434 03000000 		.word	inbuf+3
 885 0438 01000000 		.word	outbuf+1
 886              	.L39:
 887              		.loc 2 269 0
 888 043c 05AB     		add	r3, sp, #20
 889 043e 1868     		ldr	r0, [r3]
 890 0440 40F20001 		movw	r1, #:lower16:.LC2
 891 0444 C0F20001 		movt	r1, #:upper16:.LC2
 892 0448 FFF7FEFF 		bl	chprintf
 893              	.L40:
 894              		.loc 2 271 0
 895 044c 05AB     		add	r3, sp, #20
 896 044e 1868     		ldr	r0, [r3]
 897 0450 40F20001 		movw	r1, #:lower16:.LC18
 898 0454 C0F20001 		movt	r1, #:upper16:.LC18
 899 0458 FFF7FEFF 		bl	chprintf
 900              		.loc 2 272 0
 901 045c 0FAB     		add	r3, sp, #60
 902 045e 1846     		mov	r0, r3
 903 0460 FFF7FEFF 		bl	f_close
 904 0464 0346     		mov	r3, r0
 905 0466 8DF89B32 		strb	r3, [sp, #667]
 906              		.loc 2 273 0
 907 046a 9DF89B32 		ldrb	r3, [sp, #667]	@ zero_extendqisi2
 908 046e 002B     		cmp	r3, #0
 909 0470 02D0     		beq	.L41
 910              		.loc 2 274 0
 911 0472 FFF7FEFF 		bl	port_halt
 912 0476 07E0     		b	.L42
 913              	.L41:
 914              		.loc 2 277 0
 915 0478 05AB     		add	r3, sp, #20
 916 047a 1868     		ldr	r0, [r3]
 917 047c 40F20001 		movw	r1, #:lower16:.LC2
 918 0480 C0F20001 		movt	r1, #:upper16:.LC2
ARM GAS  /tmp/ccN64Vaw.s 			page 19


 919 0484 FFF7FEFF 		bl	chprintf
 920              	.L42:
 921              		.loc 2 279 0
 922 0488 05AB     		add	r3, sp, #20
 923 048a 1868     		ldr	r0, [r3]
 924 048c 40F20001 		movw	r1, #:lower16:.LC19
 925 0490 C0F20001 		movt	r1, #:upper16:.LC19
 926 0494 FFF7FEFF 		bl	chprintf
 927              		.loc 2 280 0
 928 0498 07AB     		add	r3, sp, #28
 929 049a 40F20000 		movw	r0, #:lower16:.LC16
 930 049e C0F20000 		movt	r0, #:upper16:.LC16
 931 04a2 1946     		mov	r1, r3
 932 04a4 FFF7FEFF 		bl	f_stat
 933 04a8 0346     		mov	r3, r0
 934 04aa 8DF89B32 		strb	r3, [sp, #667]
 935              		.loc 2 281 0
 936 04ae 6420     		movs	r0, #100
 937 04b0 FFF7FEFF 		bl	chThdSleep
 938              		.loc 2 282 0
 939 04b4 9DF89B32 		ldrb	r3, [sp, #667]	@ zero_extendqisi2
 940 04b8 002B     		cmp	r3, #0
 941 04ba 02D0     		beq	.L43
 942              		.loc 2 283 0
 943 04bc FFF7FEFF 		bl	port_halt
 944 04c0 0EE0     		b	.L44
 945              	.L43:
 946              		.loc 2 286 0
 947 04c2 07AB     		add	r3, sp, #28
 948 04c4 1B68     		ldr	r3, [r3]
 949 04c6 142B     		cmp	r3, #20
 950 04c8 08D1     		bne	.L45
 951              		.loc 2 287 0
 952 04ca 05AB     		add	r3, sp, #20
 953 04cc 1868     		ldr	r0, [r3]
 954 04ce 40F20001 		movw	r1, #:lower16:.LC2
 955 04d2 C0F20001 		movt	r1, #:upper16:.LC2
 956 04d6 FFF7FEFF 		bl	chprintf
 957 04da 01E0     		b	.L44
 958              	.L45:
 959              		.loc 2 289 0
 960 04dc FFF7FEFF 		bl	port_halt
 961              	.L44:
 962              		.loc 2 292 0
 963 04e0 05AB     		add	r3, sp, #20
 964 04e2 1868     		ldr	r0, [r3]
 965 04e4 40F20001 		movw	r1, #:lower16:.LC20
 966 04e8 C0F20001 		movt	r1, #:upper16:.LC20
 967 04ec FFF7FEFF 		bl	chprintf
 968              		.loc 2 293 0
 969 04f0 0FAB     		add	r3, sp, #60
 970 04f2 1846     		mov	r0, r3
 971 04f4 40F20001 		movw	r1, #:lower16:.LC16
 972 04f8 C0F20001 		movt	r1, #:upper16:.LC16
 973 04fc 0122     		movs	r2, #1
 974 04fe FFF7FEFF 		bl	f_open
 975 0502 0346     		mov	r3, r0
ARM GAS  /tmp/ccN64Vaw.s 			page 20


 976 0504 8DF89B32 		strb	r3, [sp, #667]
 977              		.loc 2 294 0
 978 0508 6420     		movs	r0, #100
 979 050a FFF7FEFF 		bl	chThdSleep
 980              		.loc 2 295 0
 981 050e 9DF89B32 		ldrb	r3, [sp, #667]	@ zero_extendqisi2
 982 0512 002B     		cmp	r3, #0
 983 0514 01D0     		beq	.L46
 984              		.loc 2 296 0
 985 0516 FFF7FEFF 		bl	port_halt
 986              	.L46:
 987              		.loc 2 299 0
 988 051a 0FA9     		add	r1, sp, #60
 989 051c 98AA     		add	r2, sp, #608
 990 051e A2AB     		add	r3, sp, #648
 991 0520 0846     		mov	r0, r1
 992 0522 1146     		mov	r1, r2
 993 0524 1422     		movs	r2, #20
 994 0526 FFF7FEFF 		bl	f_read
 995 052a 0346     		mov	r3, r0
 996 052c 8DF89B32 		strb	r3, [sp, #667]
 997              		.loc 2 300 0
 998 0530 9DF89B32 		ldrb	r3, [sp, #667]	@ zero_extendqisi2
 999 0534 002B     		cmp	r3, #0
 1000 0536 02D0     		beq	.L47
 1001              		.loc 2 301 0
 1002 0538 FFF7FEFF 		bl	port_halt
 1003 053c 14E0     		b	.L48
 1004              	.L47:
 1005              		.loc 2 304 0
 1006 053e 9DAA     		add	r2, sp, #628
 1007 0540 98AB     		add	r3, sp, #608
 1008 0542 1046     		mov	r0, r2
 1009 0544 1946     		mov	r1, r3
 1010 0546 1422     		movs	r2, #20
 1011 0548 FFF7FEFF 		bl	memcmp
 1012 054c 0346     		mov	r3, r0
 1013 054e 002B     		cmp	r3, #0
 1014 0550 02D0     		beq	.L49
 1015              		.loc 2 305 0
 1016 0552 FFF7FEFF 		bl	port_halt
 1017 0556 07E0     		b	.L48
 1018              	.L49:
 1019              		.loc 2 308 0
 1020 0558 05AB     		add	r3, sp, #20
 1021 055a 1868     		ldr	r0, [r3]
 1022 055c 40F20001 		movw	r1, #:lower16:.LC2
 1023 0560 C0F20001 		movt	r1, #:upper16:.LC2
 1024 0564 FFF7FEFF 		bl	chprintf
 1025              	.L48:
 1026              		.loc 2 312 0
 1027 0568 05AB     		add	r3, sp, #20
 1028 056a 1868     		ldr	r0, [r3]
 1029 056c 40F20001 		movw	r1, #:lower16:.LC21
 1030 0570 C0F20001 		movt	r1, #:upper16:.LC21
 1031 0574 FFF7FEFF 		bl	chprintf
 1032              		.loc 2 313 0
ARM GAS  /tmp/ccN64Vaw.s 			page 21


 1033 0578 0020     		movs	r0, #0
 1034 057a 0021     		movs	r1, #0
 1035 057c FFF7FEFF 		bl	f_mount
 1036              		.loc 2 314 0
 1037 0580 05AB     		add	r3, sp, #20
 1038 0582 1868     		ldr	r0, [r3]
 1039 0584 40F20001 		movw	r1, #:lower16:.LC2
 1040 0588 C0F20001 		movt	r1, #:upper16:.LC2
 1041 058c FFF7FEFF 		bl	chprintf
 1042              		.loc 2 316 0
 1043 0590 05AB     		add	r3, sp, #20
 1044 0592 1868     		ldr	r0, [r3]
 1045 0594 40F20001 		movw	r1, #:lower16:.LC22
 1046 0598 C0F20001 		movt	r1, #:upper16:.LC22
 1047 059c FFF7FEFF 		bl	chprintf
 1048              		.loc 2 317 0
 1049 05a0 6420     		movs	r0, #100
 1050 05a2 FFF7FEFF 		bl	chThdSleep
 1051              		.loc 2 318 0
 1052 05a6 40F20000 		movw	r0, #:lower16:SDCD1
 1053 05aa C0F20000 		movt	r0, #:upper16:SDCD1
 1054 05ae FFF7FEFF 		bl	sdcDisconnect
 1055 05b2 0346     		mov	r3, r0
 1056 05b4 002B     		cmp	r3, #0
 1057 05b6 01D0     		beq	.L50
 1058              		.loc 2 319 0
 1059 05b8 FFF7FEFF 		bl	port_halt
 1060              	.L50:
 1061              		.loc 2 320 0
 1062 05bc 05AB     		add	r3, sp, #20
 1063 05be 1868     		ldr	r0, [r3]
 1064 05c0 40F20001 		movw	r1, #:lower16:.LC6
 1065 05c4 C0F20001 		movt	r1, #:upper16:.LC6
 1066 05c8 FFF7FEFF 		bl	chprintf
 1067              		.loc 2 321 0
 1068 05cc 05AB     		add	r3, sp, #20
 1069 05ce 1868     		ldr	r0, [r3]
 1070 05d0 40F20001 		movw	r1, #:lower16:.LC23
 1071 05d4 C0F20001 		movt	r1, #:upper16:.LC23
 1072 05d8 FFF7FEFF 		bl	chprintf
 1073              		.loc 2 322 0
 1074 05dc 05AB     		add	r3, sp, #20
 1075 05de 1868     		ldr	r0, [r3]
 1076 05e0 40F20001 		movw	r1, #:lower16:.LC24
 1077 05e4 C0F20001 		movt	r1, #:upper16:.LC24
 1078 05e8 FFF7FEFF 		bl	chprintf
 1079              		.loc 2 323 0
 1080 05ec 6420     		movs	r0, #100
 1081 05ee FFF7FEFF 		bl	chThdSleep
 1082              	.LBE2:
 1083 05f2 01E0     		b	.L19
 1084              	.L20:
 1085              		.loc 2 326 0
 1086 05f4 FFF7FEFF 		bl	port_halt
 1087              	.L19:
 1088              		.loc 2 328 0
 1089 05f8 0DF5297D 		add	sp, sp, #676
ARM GAS  /tmp/ccN64Vaw.s 			page 22


 1090              		@ sp needed
 1091 05fc 30BD     		pop	{r4, r5, pc}
 1092              		.cfi_endproc
 1093              	.LFE122:
 1094              		.size	cmd_sdiotest, .-cmd_sdiotest
 1095 05fe 00BF     		.section	.rodata.sdccfg,"a",%progbits
 1096              		.align	2
 1097              		.type	sdccfg, %object
 1098              		.size	sdccfg, 4
 1099              	sdccfg:
 1100 0000 00000000 		.space	4
 1101              		.section	.data.ser_cfg,"aw",%progbits
 1102              		.align	2
 1103              		.type	ser_cfg, %object
 1104              		.size	ser_cfg, 12
 1105              	ser_cfg:
 1106 0000 00960000 		.word	38400
 1107 0004 0000     		.short	0
 1108 0006 0000     		.short	0
 1109 0008 0000     		.short	0
 1110 000a 0000     		.space	2
 1111              		.section	.rodata
 1112              		.align	2
 1113              	.LC25:
 1114 02b8 7364696F 		.ascii	"sdiotest\000"
 1114      74657374 
 1114      00
 1115              		.section	.rodata.commands,"a",%progbits
 1116              		.align	2
 1117              		.type	commands, %object
 1118              		.size	commands, 16
 1119              	commands:
 1120 0000 B8020000 		.word	.LC25
 1121 0004 00000000 		.word	cmd_sdiotest
 1122 0008 00000000 		.word	0
 1123 000c 00000000 		.word	0
 1124              		.section	.rodata.shell_cfg1,"a",%progbits
 1125              		.align	2
 1126              		.type	shell_cfg1, %object
 1127              		.size	shell_cfg1, 8
 1128              	shell_cfg1:
 1129 0000 00000000 		.word	SD2
 1130 0004 00000000 		.word	commands
 1131              		.section	.rodata
 1132 02c1 000000   		.align	2
 1133              	.LC26:
 1134 02c4 68656C6C 		.ascii	"hello\000"
 1134      6F00
 1135 02ca 0000     		.section	.text.main,"ax",%progbits
 1136              		.align	2
 1137              		.p2align 4,,15
 1138              		.global	main
 1139              		.thumb
 1140              		.thumb_func
 1141              		.type	main, %function
 1142              	main:
 1143              	.LFB123:
ARM GAS  /tmp/ccN64Vaw.s 			page 23


 1144              		.loc 2 359 0
 1145              		.cfi_startproc
 1146              		@ args = 0, pretend = 0, frame = 0
 1147              		@ frame_needed = 0, uses_anonymous_args = 0
 1148 0000 08B5     		push	{r3, lr}
 1149              		.cfi_def_cfa_offset 8
 1150              		.cfi_offset 3, -8
 1151              		.cfi_offset 14, -4
 1152              		.loc 2 360 0
 1153 0002 FFF7FEFF 		bl	halInit
 1154              		.loc 2 361 0
 1155 0006 FFF7FEFF 		bl	chSysInit
 1156              		.loc 2 364 0
 1157 000a 40F20000 		movw	r0, #:lower16:SD2
 1158 000e C0F20000 		movt	r0, #:upper16:SD2
 1159 0012 40F20001 		movw	r1, #:lower16:ser_cfg
 1160 0016 C0F20001 		movt	r1, #:upper16:ser_cfg
 1161 001a FFF7FEFF 		bl	sdStart
 1162              		.loc 2 365 0
 1163 001e 4FF44060 		mov	r0, #3072
 1164 0022 C4F20200 		movt	r0, 16386
 1165 0026 0421     		movs	r1, #4
 1166 0028 40F28232 		movw	r2, #898
 1167 002c FFF7FEFF 		bl	_pal_lld_setgroupmode
 1168              		.loc 2 366 0
 1169 0030 4FF44060 		mov	r0, #3072
 1170 0034 C4F20200 		movt	r0, 16386
 1171 0038 0821     		movs	r1, #8
 1172 003a 40F28232 		movw	r2, #898
 1173 003e FFF7FEFF 		bl	_pal_lld_setgroupmode
 1174              		.loc 2 367 0
 1175 0042 40F20000 		movw	r0, #:lower16:SD2
 1176 0046 C0F20000 		movt	r0, #:upper16:SD2
 1177 004a 40F20001 		movw	r1, #:lower16:.LC26
 1178 004e C0F20001 		movt	r1, #:upper16:.LC26
 1179 0052 FFF7FEFF 		bl	chprintf
 1180              		.loc 2 369 0
 1181 0056 FFF7FEFF 		bl	shellInit
 1182              		.loc 2 371 0
 1183 005a 40F20000 		movw	r0, #:lower16:shell_cfg1
 1184 005e C0F20000 		movt	r0, #:upper16:shell_cfg1
 1185 0062 40F20001 		movw	r1, #:lower16:waShell.7318
 1186 0066 C0F20001 		movt	r1, #:upper16:waShell.7318
 1187 006a 4FF40B62 		mov	r2, #2224
 1188 006e 4023     		movs	r3, #64
 1189 0070 FFF7FEFF 		bl	shellCreateStatic
 1190              		.loc 2 376 0
 1191 0074 40F20000 		movw	r0, #:lower16:SDCD1
 1192 0078 C0F20000 		movt	r0, #:upper16:SDCD1
 1193 007c 40F20001 		movw	r1, #:lower16:sdccfg
 1194 0080 C0F20001 		movt	r1, #:upper16:sdccfg
 1195 0084 FFF7FEFF 		bl	sdcStart
 1196              	.L55:
 1197              		.loc 2 383 0 discriminator 1
 1198 0088 4FF48063 		mov	r3, #1024
 1199 008c C4F20203 		movt	r3, 16386
 1200 0090 4FF48062 		mov	r2, #1024
ARM GAS  /tmp/ccN64Vaw.s 			page 24


 1201 0094 C4F20202 		movt	r2, 16386
 1202 0098 5269     		ldr	r2, [r2, #20]
 1203 009a 82F48052 		eor	r2, r2, #4096
 1204 009e 5A61     		str	r2, [r3, #20]
 1205              		.loc 2 384 0 discriminator 1
 1206 00a0 6420     		movs	r0, #100
 1207 00a2 FFF7FEFF 		bl	chThdSleep
 1208              		.loc 2 385 0 discriminator 1
 1209 00a6 EFE7     		b	.L55
 1210              		.cfi_endproc
 1211              	.LFE123:
 1212              		.size	main, .-main
 1213 00a8 AFF30080 		.section	.bss.waShell.7318,"aw",%nobits
 1213      AFF30080 
 1214              		.align	3
 1215              		.type	waShell.7318, %object
 1216              		.size	waShell.7318, 2224
 1217              	waShell.7318:
 1218 0000 00000000 		.space	2224
 1218      00000000 
 1218      00000000 
 1218      00000000 
 1218      00000000 
 1219              		.text
 1220              	.Letext0:
 1221              		.file 3 "/usr/lib/gcc/arm-none-eabi/4.8.2/include/stddef.h"
 1222              		.file 4 "/usr/arm-none-eabi/include/machine/_default_types.h"
 1223              		.file 5 "/usr/arm-none-eabi/include/stdint.h"
 1224              		.file 6 "../../../os/ports/GCC/ARMCMx/chtypes.h"
 1225              		.file 7 "../../../os/kernel/include/chlists.h"
 1226              		.file 8 "../../../os/kernel/include/chthreads.h"
 1227              		.file 9 "../../../os/ports/GCC/ARMCMx/chcore_v7m.h"
 1228              		.file 10 "../../../os/kernel/include/chmtx.h"
 1229              		.file 11 "../../../os/kernel/include/chevents.h"
 1230              		.file 12 "../../../os/kernel/include/chqueues.h"
 1231              		.file 13 "../../../os/kernel/include/chstreams.h"
 1232              		.file 14 "../../../os/hal/platforms/STM32F4xx/stm32f4xx.h"
 1233              		.file 15 "../../../os/hal/platforms/STM32F4xx/stm32_dma.h"
 1234              		.file 16 "../../../os/hal/include/io_block.h"
 1235              		.file 17 "../../../os/hal/platforms/STM32/GPIOv2/pal_lld.h"
 1236              		.file 18 "../../../os/hal/include/serial.h"
 1237              		.file 19 "../../../os/hal/platforms/STM32/USARTv1/serial_lld.h"
 1238              		.file 20 "../../../os/hal/platforms/STM32/sdc_lld.h"
 1239              		.file 21 "../../../os/various/shell.h"
 1240              		.file 22 "/usr/lib/gcc/arm-none-eabi/4.8.2/include/stdarg.h"
 1241              		.file 23 "<built-in>"
 1242              		.file 24 "../../../ext/fatfs/src/integer.h"
 1243              		.file 25 "../../../ext/fatfs/src/ff.h"
 1244              		.file 26 "../../../os/ports/common/ARMCMx/CMSIS/include/core_cm4.h"