ARM GAS  /tmp/ccNRG6Q1.s 			page 1


   1              		.syntax unified
   2              		.cpu cortex-m4
   3              		.fpu softvfp
   4              		.eabi_attribute 20, 1
   5              		.eabi_attribute 21, 1
   6              		.eabi_attribute 23, 3
   7              		.eabi_attribute 24, 1
   8              		.eabi_attribute 25, 1
   9              		.eabi_attribute 26, 1
  10              		.eabi_attribute 30, 6
  11              		.eabi_attribute 34, 1
  12              		.eabi_attribute 18, 4
  13              		.thumb
  14              		.file	"sdc_lld.c"
  15              		.text
  16              	.Ltext0:
  17              		.cfi_sections	.debug_frame
  18              		.global	SDCD1
  19              		.section	.bss.SDCD1,"aw",%nobits
  20              		.align	2
  21              		.type	SDCD1, %object
  22              		.size	SDCD1, 76
  23              	SDCD1:
  24 0000 00000000 		.space	76
  24      00000000 
  24      00000000 
  24      00000000 
  24      00000000 
  25              		.section	.bss.u,"aw",%nobits
  26              		.align	2
  27              		.type	u, %object
  28              		.size	u, 512
  29              	u:
  30 0000 00000000 		.space	512
  30      00000000 
  30      00000000 
  30      00000000 
  30      00000000 
  31              		.section	.text.sdc_lld_prepare_read,"ax",%progbits
  32              		.align	2
  33              		.p2align 4,,15
  34              		.thumb
  35              		.thumb_func
  36              		.type	sdc_lld_prepare_read, %function
  37              	sdc_lld_prepare_read:
  38              	.LFB118:
  39              		.file 1 "../../../os/hal/platforms/STM32/sdc_lld.c"
  40              		.loc 1 84 0
  41              		.cfi_startproc
  42              		@ args = 0, pretend = 0, frame = 16
  43              		@ frame_needed = 0, uses_anonymous_args = 0
  44 0000 00B5     		push	{lr}
  45              		.cfi_def_cfa_offset 4
  46              		.cfi_offset 14, -4
  47 0002 85B0     		sub	sp, sp, #20
  48              		.cfi_def_cfa_offset 24
  49 0004 0390     		str	r0, [sp, #12]
ARM GAS  /tmp/ccNRG6Q1.s 			page 2


  50 0006 0291     		str	r1, [sp, #8]
  51 0008 0192     		str	r2, [sp, #4]
  52 000a 0093     		str	r3, [sp]
  53              		.loc 1 88 0
  54 000c 039B     		ldr	r3, [sp, #12]
  55 000e 1B6B     		ldr	r3, [r3, #48]
  56 0010 03F01003 		and	r3, r3, #16
  57 0014 002B     		cmp	r3, #0
  58 0016 02D1     		bne	.L2
  59              		.loc 1 89 0
  60 0018 029B     		ldr	r3, [sp, #8]
  61 001a 5B02     		lsls	r3, r3, #9
  62 001c 0293     		str	r3, [sp, #8]
  63              	.L2:
  64              		.loc 1 91 0
  65 001e 019B     		ldr	r3, [sp, #4]
  66 0020 012B     		cmp	r3, #1
  67 0022 13D9     		bls	.L3
  68              		.loc 1 93 0
  69 0024 0398     		ldr	r0, [sp, #12]
  70 0026 1221     		movs	r1, #18
  71 0028 029A     		ldr	r2, [sp, #8]
  72 002a 009B     		ldr	r3, [sp]
  73 002c FFF7FEFF 		bl	sdc_lld_send_cmd_short_crc
  74 0030 0346     		mov	r3, r0
  75 0032 002B     		cmp	r3, #0
  76 0034 08D1     		bne	.L4
  77              		.loc 1 94 0
  78 0036 009B     		ldr	r3, [sp]
  79 0038 1A68     		ldr	r2, [r3]
  80 003a 4EF20803 		movw	r3, #57352
  81 003e CFF6FF53 		movt	r3, 65023
  82 0042 1340     		ands	r3, r3, r2
  83 0044 002B     		cmp	r3, #0
  84 0046 15D0     		beq	.L5
  85              	.L4:
  86              		.loc 1 95 0
  87 0048 0123     		movs	r3, #1
  88 004a 14E0     		b	.L6
  89              	.L3:
  90              		.loc 1 99 0
  91 004c 0398     		ldr	r0, [sp, #12]
  92 004e 1121     		movs	r1, #17
  93 0050 029A     		ldr	r2, [sp, #8]
  94 0052 009B     		ldr	r3, [sp]
  95 0054 FFF7FEFF 		bl	sdc_lld_send_cmd_short_crc
  96 0058 0346     		mov	r3, r0
  97 005a 002B     		cmp	r3, #0
  98 005c 08D1     		bne	.L7
  99              		.loc 1 100 0
 100 005e 009B     		ldr	r3, [sp]
 101 0060 1A68     		ldr	r2, [r3]
 102 0062 4EF20803 		movw	r3, #57352
 103 0066 CFF6FF53 		movt	r3, 65023
 104 006a 1340     		ands	r3, r3, r2
 105 006c 002B     		cmp	r3, #0
 106 006e 01D0     		beq	.L5
ARM GAS  /tmp/ccNRG6Q1.s 			page 3


 107              	.L7:
 108              		.loc 1 101 0
 109 0070 0123     		movs	r3, #1
 110 0072 00E0     		b	.L6
 111              	.L5:
 112              		.loc 1 104 0
 113 0074 0023     		movs	r3, #0
 114              	.L6:
 115              		.loc 1 105 0
 116 0076 1846     		mov	r0, r3
 117 0078 05B0     		add	sp, sp, #20
 118              		@ sp needed
 119 007a 5DF804FB 		ldr	pc, [sp], #4
 120              		.cfi_endproc
 121              	.LFE118:
 122              		.size	sdc_lld_prepare_read, .-sdc_lld_prepare_read
 123 007e 00BF     		.section	.text.sdc_lld_prepare_write,"ax",%progbits
 124              		.align	2
 125              		.p2align 4,,15
 126              		.thumb
 127              		.thumb_func
 128              		.type	sdc_lld_prepare_write, %function
 129              	sdc_lld_prepare_write:
 130              	.LFB119:
 131              		.loc 1 122 0
 132              		.cfi_startproc
 133              		@ args = 0, pretend = 0, frame = 16
 134              		@ frame_needed = 0, uses_anonymous_args = 0
 135 0000 00B5     		push	{lr}
 136              		.cfi_def_cfa_offset 4
 137              		.cfi_offset 14, -4
 138 0002 85B0     		sub	sp, sp, #20
 139              		.cfi_def_cfa_offset 24
 140 0004 0390     		str	r0, [sp, #12]
 141 0006 0291     		str	r1, [sp, #8]
 142 0008 0192     		str	r2, [sp, #4]
 143 000a 0093     		str	r3, [sp]
 144              		.loc 1 126 0
 145 000c 039B     		ldr	r3, [sp, #12]
 146 000e 1B6B     		ldr	r3, [r3, #48]
 147 0010 03F01003 		and	r3, r3, #16
 148 0014 002B     		cmp	r3, #0
 149 0016 02D1     		bne	.L9
 150              		.loc 1 127 0
 151 0018 029B     		ldr	r3, [sp, #8]
 152 001a 5B02     		lsls	r3, r3, #9
 153 001c 0293     		str	r3, [sp, #8]
 154              	.L9:
 155              		.loc 1 129 0
 156 001e 019B     		ldr	r3, [sp, #4]
 157 0020 012B     		cmp	r3, #1
 158 0022 13D9     		bls	.L10
 159              		.loc 1 131 0
 160 0024 0398     		ldr	r0, [sp, #12]
 161 0026 1921     		movs	r1, #25
 162 0028 029A     		ldr	r2, [sp, #8]
 163 002a 009B     		ldr	r3, [sp]
ARM GAS  /tmp/ccNRG6Q1.s 			page 4


 164 002c FFF7FEFF 		bl	sdc_lld_send_cmd_short_crc
 165 0030 0346     		mov	r3, r0
 166 0032 002B     		cmp	r3, #0
 167 0034 08D1     		bne	.L11
 168              		.loc 1 132 0
 169 0036 009B     		ldr	r3, [sp]
 170 0038 1A68     		ldr	r2, [r3]
 171 003a 4EF20803 		movw	r3, #57352
 172 003e CFF6FF53 		movt	r3, 65023
 173 0042 1340     		ands	r3, r3, r2
 174 0044 002B     		cmp	r3, #0
 175 0046 15D0     		beq	.L12
 176              	.L11:
 177              		.loc 1 133 0
 178 0048 0123     		movs	r3, #1
 179 004a 14E0     		b	.L13
 180              	.L10:
 181              		.loc 1 137 0
 182 004c 0398     		ldr	r0, [sp, #12]
 183 004e 1821     		movs	r1, #24
 184 0050 029A     		ldr	r2, [sp, #8]
 185 0052 009B     		ldr	r3, [sp]
 186 0054 FFF7FEFF 		bl	sdc_lld_send_cmd_short_crc
 187 0058 0346     		mov	r3, r0
 188 005a 002B     		cmp	r3, #0
 189 005c 08D1     		bne	.L14
 190              		.loc 1 138 0
 191 005e 009B     		ldr	r3, [sp]
 192 0060 1A68     		ldr	r2, [r3]
 193 0062 4EF20803 		movw	r3, #57352
 194 0066 CFF6FF53 		movt	r3, 65023
 195 006a 1340     		ands	r3, r3, r2
 196 006c 002B     		cmp	r3, #0
 197 006e 01D0     		beq	.L12
 198              	.L14:
 199              		.loc 1 139 0
 200 0070 0123     		movs	r3, #1
 201 0072 00E0     		b	.L13
 202              	.L12:
 203              		.loc 1 142 0
 204 0074 0023     		movs	r3, #0
 205              	.L13:
 206              		.loc 1 143 0
 207 0076 1846     		mov	r0, r3
 208 0078 05B0     		add	sp, sp, #20
 209              		@ sp needed
 210 007a 5DF804FB 		ldr	pc, [sp], #4
 211              		.cfi_endproc
 212              	.LFE119:
 213              		.size	sdc_lld_prepare_write, .-sdc_lld_prepare_write
 214 007e 00BF     		.section	.rodata
 215              		.align	2
 216              	.LC0:
 217 0000 7364635F 		.ascii	"sdc_lld_start_data_transaction(), #1\000"
 217      6C6C645F 
 217      73746172 
 217      745F6461 
ARM GAS  /tmp/ccNRG6Q1.s 			page 5


 217      74615F74 
 218 0025 000000   		.align	2
 219              	.LC1:
 220 0028 7364635F 		.ascii	"sdc_lld_start_data_transaction(), #2\000"
 220      6C6C645F 
 220      73746172 
 220      745F6461 
 220      74615F74 
 221              		.section	.text.sdc_lld_wait_transaction_end,"ax",%progbits
 222              		.align	2
 223              		.p2align 4,,15
 224              		.thumb
 225              		.thumb_func
 226              		.type	sdc_lld_wait_transaction_end, %function
 227              	sdc_lld_wait_transaction_end:
 228              	.LFB120:
 229              		.loc 1 157 0
 230              		.cfi_startproc
 231              		@ args = 0, pretend = 0, frame = 16
 232              		@ frame_needed = 0, uses_anonymous_args = 0
 233 0000 00B5     		push	{lr}
 234              		.cfi_def_cfa_offset 4
 235              		.cfi_offset 14, -4
 236 0002 85B0     		sub	sp, sp, #20
 237              		.cfi_def_cfa_offset 24
 238 0004 0390     		str	r0, [sp, #12]
 239 0006 0291     		str	r1, [sp, #8]
 240 0008 0192     		str	r2, [sp, #4]
 241              	.LBB2:
 242              		.loc 1 161 0
 243 000a 2023     		movs	r3, #32
 244              	@ 161 "../../../os/hal/platforms/STM32/sdc_lld.c" 1
 245 000c 83F31188 		msr     BASEPRI, r3
 246              	@ 0 "" 2
 247              		.thumb
 248              	.LBE2:
 249 0010 FFF7FEFF 		bl	dbg_check_lock
 250              		.loc 1 162 0
 251 0014 4FF43053 		mov	r3, #11264
 252 0018 C4F20103 		movt	r3, 16385
 253 001c DB6B     		ldr	r3, [r3, #60]
 254 001e 002B     		cmp	r3, #0
 255 0020 1DD0     		beq	.L16
 256              		.loc 1 163 0
 257 0022 039B     		ldr	r3, [sp, #12]
 258 0024 DB6B     		ldr	r3, [r3, #60]
 259 0026 002B     		cmp	r3, #0
 260 0028 05D0     		beq	.L17
 261              		.loc 1 163 0 is_stmt 0 discriminator 1
 262 002a 40F20000 		movw	r0, #:lower16:.LC0
 263 002e C0F20000 		movt	r0, #:upper16:.LC0
 264 0032 FFF7FEFF 		bl	chDbgPanic
 265              	.L17:
 266              		.loc 1 165 0 is_stmt 1
 267 0036 40F20003 		movw	r3, #:lower16:rlist
 268 003a C0F20003 		movt	r3, #:upper16:rlist
 269 003e 9A69     		ldr	r2, [r3, #24]
ARM GAS  /tmp/ccNRG6Q1.s 			page 6


 270 0040 039B     		ldr	r3, [sp, #12]
 271 0042 DA63     		str	r2, [r3, #60]
 272              		.loc 1 166 0
 273 0044 0220     		movs	r0, #2
 274 0046 FFF7FEFF 		bl	chSchGoSleepS
 275              		.loc 1 167 0
 276 004a 039B     		ldr	r3, [sp, #12]
 277 004c DB6B     		ldr	r3, [r3, #60]
 278 004e 002B     		cmp	r3, #0
 279 0050 05D0     		beq	.L16
 280              		.loc 1 167 0 is_stmt 0 discriminator 1
 281 0052 40F20000 		movw	r0, #:lower16:.LC1
 282 0056 C0F20000 		movt	r0, #:upper16:.LC1
 283 005a FFF7FEFF 		bl	chDbgPanic
 284              	.L16:
 285              		.loc 1 170 0 is_stmt 1
 286 005e 4FF43053 		mov	r3, #11264
 287 0062 C4F20103 		movt	r3, 16385
 288 0066 5B6B     		ldr	r3, [r3, #52]
 289 0068 03F48073 		and	r3, r3, #256
 290 006c 002B     		cmp	r3, #0
 291 006e 06D1     		bne	.L18
 292              		.loc 1 171 0
 293 0070 FFF7FEFF 		bl	dbg_check_unlock
 294              	.LBB3:
 295 0074 0023     		movs	r3, #0
 296              	@ 171 "../../../os/hal/platforms/STM32/sdc_lld.c" 1
 297 0076 83F31188 		msr     BASEPRI, r3
 298              	@ 0 "" 2
 299              		.thumb
 300              	.LBE3:
 301              		.loc 1 172 0
 302 007a 0123     		movs	r3, #1
 303 007c 32E0     		b	.L19
 304              	.L18:
 305              		.loc 1 177 0
 306 007e 00BF     		nop
 307              	.L20:
 308              		.loc 1 177 0 is_stmt 0 discriminator 1
 309 0080 039B     		ldr	r3, [sp, #12]
 310 0082 5B6C     		ldr	r3, [r3, #68]
 311 0084 1B68     		ldr	r3, [r3]
 312 0086 1B68     		ldr	r3, [r3]
 313 0088 03F00103 		and	r3, r3, #1
 314 008c 002B     		cmp	r3, #0
 315 008e F7D1     		bne	.L20
 316              		.loc 1 181 0 is_stmt 1
 317 0090 039B     		ldr	r3, [sp, #12]
 318 0092 5B6C     		ldr	r3, [r3, #68]
 319 0094 5B68     		ldr	r3, [r3, #4]
 320 0096 039A     		ldr	r2, [sp, #12]
 321 0098 526C     		ldr	r2, [r2, #68]
 322 009a 127A     		ldrb	r2, [r2, #8]	@ zero_extendqisi2
 323 009c 3D21     		movs	r1, #61
 324 009e 01FA02F2 		lsl	r2, r1, r2
 325 00a2 1A60     		str	r2, [r3]
 326              		.loc 1 183 0
ARM GAS  /tmp/ccNRG6Q1.s 			page 7


 327 00a4 4FF43053 		mov	r3, #11264
 328 00a8 C4F20103 		movt	r3, 16385
 329 00ac 40F2FF72 		movw	r2, #2047
 330 00b0 C0F2C002 		movt	r2, 192
 331 00b4 9A63     		str	r2, [r3, #56]
 332              		.loc 1 184 0
 333 00b6 4FF43053 		mov	r3, #11264
 334 00ba C4F20103 		movt	r3, 16385
 335 00be 0022     		movs	r2, #0
 336 00c0 DA62     		str	r2, [r3, #44]
 337              		.loc 1 185 0
 338 00c2 FFF7FEFF 		bl	dbg_check_unlock
 339              	.LBB4:
 340 00c6 0023     		movs	r3, #0
 341              	@ 185 "../../../os/hal/platforms/STM32/sdc_lld.c" 1
 342 00c8 83F31188 		msr     BASEPRI, r3
 343              	@ 0 "" 2
 344              		.thumb
 345              	.LBE4:
 346              		.loc 1 201 0
 347 00cc 029B     		ldr	r3, [sp, #8]
 348 00ce 012B     		cmp	r3, #1
 349 00d0 07D9     		bls	.L21
 350              		.loc 1 202 0
 351 00d2 0398     		ldr	r0, [sp, #12]
 352 00d4 0C21     		movs	r1, #12
 353 00d6 0022     		movs	r2, #0
 354 00d8 019B     		ldr	r3, [sp, #4]
 355 00da FFF7FEFF 		bl	sdc_lld_send_cmd_short_crc
 356 00de 0346     		mov	r3, r0
 357 00e0 00E0     		b	.L19
 358              	.L21:
 359              		.loc 1 204 0
 360 00e2 0023     		movs	r3, #0
 361              	.L19:
 362              		.loc 1 205 0
 363 00e4 1846     		mov	r0, r3
 364 00e6 05B0     		add	sp, sp, #20
 365              		@ sp needed
 366 00e8 5DF804FB 		ldr	pc, [sp], #4
 367              		.cfi_endproc
 368              	.LFE120:
 369              		.size	sdc_lld_wait_transaction_end, .-sdc_lld_wait_transaction_end
 370 00ec AFF30080 		.section	.text.sdc_lld_collect_errors,"ax",%progbits
 371              		.align	2
 372              		.p2align 4,,15
 373              		.thumb
 374              		.thumb_func
 375              		.type	sdc_lld_collect_errors, %function
 376              	sdc_lld_collect_errors:
 377              	.LFB121:
 378              		.loc 1 215 0
 379              		.cfi_startproc
 380              		@ args = 0, pretend = 0, frame = 16
 381              		@ frame_needed = 0, uses_anonymous_args = 0
 382              		@ link register save eliminated.
 383 0000 84B0     		sub	sp, sp, #16
ARM GAS  /tmp/ccNRG6Q1.s 			page 8


 384              		.cfi_def_cfa_offset 16
 385 0002 0190     		str	r0, [sp, #4]
 386 0004 0091     		str	r1, [sp]
 387              		.loc 1 216 0
 388 0006 0023     		movs	r3, #0
 389 0008 0393     		str	r3, [sp, #12]
 390              		.loc 1 218 0
 391 000a 009B     		ldr	r3, [sp]
 392 000c 03F00103 		and	r3, r3, #1
 393 0010 002B     		cmp	r3, #0
 394 0012 03D0     		beq	.L23
 395              		.loc 1 219 0
 396 0014 039B     		ldr	r3, [sp, #12]
 397 0016 43F00103 		orr	r3, r3, #1
 398 001a 0393     		str	r3, [sp, #12]
 399              	.L23:
 400              		.loc 1 220 0
 401 001c 009B     		ldr	r3, [sp]
 402 001e 03F00203 		and	r3, r3, #2
 403 0022 002B     		cmp	r3, #0
 404 0024 03D0     		beq	.L24
 405              		.loc 1 221 0
 406 0026 039B     		ldr	r3, [sp, #12]
 407 0028 43F00203 		orr	r3, r3, #2
 408 002c 0393     		str	r3, [sp, #12]
 409              	.L24:
 410              		.loc 1 222 0
 411 002e 009B     		ldr	r3, [sp]
 412 0030 03F00403 		and	r3, r3, #4
 413 0034 002B     		cmp	r3, #0
 414 0036 03D0     		beq	.L25
 415              		.loc 1 223 0
 416 0038 039B     		ldr	r3, [sp, #12]
 417 003a 43F00803 		orr	r3, r3, #8
 418 003e 0393     		str	r3, [sp, #12]
 419              	.L25:
 420              		.loc 1 224 0
 421 0040 009B     		ldr	r3, [sp]
 422 0042 03F00803 		and	r3, r3, #8
 423 0046 002B     		cmp	r3, #0
 424 0048 03D0     		beq	.L26
 425              		.loc 1 225 0
 426 004a 039B     		ldr	r3, [sp, #12]
 427 004c 43F00403 		orr	r3, r3, #4
 428 0050 0393     		str	r3, [sp, #12]
 429              	.L26:
 430              		.loc 1 226 0
 431 0052 009B     		ldr	r3, [sp]
 432 0054 03F01003 		and	r3, r3, #16
 433 0058 002B     		cmp	r3, #0
 434 005a 03D0     		beq	.L27
 435              		.loc 1 227 0
 436 005c 039B     		ldr	r3, [sp, #12]
 437 005e 43F01003 		orr	r3, r3, #16
 438 0062 0393     		str	r3, [sp, #12]
 439              	.L27:
 440              		.loc 1 228 0
ARM GAS  /tmp/ccNRG6Q1.s 			page 9


 441 0064 009B     		ldr	r3, [sp]
 442 0066 03F02003 		and	r3, r3, #32
 443 006a 002B     		cmp	r3, #0
 444 006c 03D0     		beq	.L28
 445              		.loc 1 229 0
 446 006e 039B     		ldr	r3, [sp, #12]
 447 0070 43F02003 		orr	r3, r3, #32
 448 0074 0393     		str	r3, [sp, #12]
 449              	.L28:
 450              		.loc 1 230 0
 451 0076 009B     		ldr	r3, [sp]
 452 0078 03F40073 		and	r3, r3, #512
 453 007c 002B     		cmp	r3, #0
 454 007e 03D0     		beq	.L29
 455              		.loc 1 231 0
 456 0080 039B     		ldr	r3, [sp, #12]
 457 0082 43F04003 		orr	r3, r3, #64
 458 0086 0393     		str	r3, [sp, #12]
 459              	.L29:
 460              		.loc 1 233 0
 461 0088 019B     		ldr	r3, [sp, #4]
 462 008a 5A6B     		ldr	r2, [r3, #52]
 463 008c 039B     		ldr	r3, [sp, #12]
 464 008e 1A43     		orrs	r2, r2, r3
 465 0090 019B     		ldr	r3, [sp, #4]
 466 0092 5A63     		str	r2, [r3, #52]
 467              		.loc 1 234 0
 468 0094 04B0     		add	sp, sp, #16
 469              		@ sp needed
 470 0096 7047     		bx	lr
 471              		.cfi_endproc
 472              	.LFE121:
 473              		.size	sdc_lld_collect_errors, .-sdc_lld_collect_errors
 474 0098 AFF30080 		.section	.text.sdc_lld_error_cleanup,"ax",%progbits
 474      AFF30080 
 475              		.align	2
 476              		.p2align 4,,15
 477              		.thumb
 478              		.thumb_func
 479              		.type	sdc_lld_error_cleanup, %function
 480              	sdc_lld_error_cleanup:
 481              	.LFB122:
 482              		.loc 1 247 0
 483              		.cfi_startproc
 484              		@ args = 0, pretend = 0, frame = 24
 485              		@ frame_needed = 0, uses_anonymous_args = 0
 486 0000 00B5     		push	{lr}
 487              		.cfi_def_cfa_offset 4
 488              		.cfi_offset 14, -4
 489 0002 87B0     		sub	sp, sp, #28
 490              		.cfi_def_cfa_offset 32
 491 0004 0390     		str	r0, [sp, #12]
 492 0006 0291     		str	r1, [sp, #8]
 493 0008 0192     		str	r2, [sp, #4]
 494              		.loc 1 248 0
 495 000a 4FF43053 		mov	r3, #11264
 496 000e C4F20103 		movt	r3, 16385
ARM GAS  /tmp/ccNRG6Q1.s 			page 10


 497 0012 5B6B     		ldr	r3, [r3, #52]
 498 0014 0593     		str	r3, [sp, #20]
 499              		.loc 1 250 0
 500 0016 039B     		ldr	r3, [sp, #12]
 501 0018 5B6C     		ldr	r3, [r3, #68]
 502 001a 5B68     		ldr	r3, [r3, #4]
 503 001c 039A     		ldr	r2, [sp, #12]
 504 001e 526C     		ldr	r2, [r2, #68]
 505 0020 127A     		ldrb	r2, [r2, #8]	@ zero_extendqisi2
 506 0022 3D21     		movs	r1, #61
 507 0024 01FA02F2 		lsl	r2, r1, r2
 508 0028 1A60     		str	r2, [r3]
 509              		.loc 1 251 0
 510 002a 039B     		ldr	r3, [sp, #12]
 511 002c 5B6C     		ldr	r3, [r3, #68]
 512 002e 1B68     		ldr	r3, [r3]
 513 0030 039A     		ldr	r2, [sp, #12]
 514 0032 526C     		ldr	r2, [r2, #68]
 515 0034 1268     		ldr	r2, [r2]
 516 0036 1268     		ldr	r2, [r2]
 517 0038 22F01F02 		bic	r2, r2, #31
 518 003c 1A60     		str	r2, [r3]
 519 003e 00BF     		nop
 520              	.L31:
 521              		.loc 1 251 0 is_stmt 0 discriminator 1
 522 0040 039B     		ldr	r3, [sp, #12]
 523 0042 5B6C     		ldr	r3, [r3, #68]
 524 0044 1B68     		ldr	r3, [r3]
 525 0046 1B68     		ldr	r3, [r3]
 526 0048 03F00103 		and	r3, r3, #1
 527 004c 002B     		cmp	r3, #0
 528 004e F7D1     		bne	.L31
 529              		.loc 1 251 0 discriminator 2
 530 0050 039B     		ldr	r3, [sp, #12]
 531 0052 5B6C     		ldr	r3, [r3, #68]
 532 0054 5B68     		ldr	r3, [r3, #4]
 533 0056 039A     		ldr	r2, [sp, #12]
 534 0058 526C     		ldr	r2, [r2, #68]
 535 005a 127A     		ldrb	r2, [r2, #8]	@ zero_extendqisi2
 536 005c 3D21     		movs	r1, #61
 537 005e 01FA02F2 		lsl	r2, r1, r2
 538 0062 1A60     		str	r2, [r3]
 539              		.loc 1 252 0 is_stmt 1 discriminator 2
 540 0064 4FF43053 		mov	r3, #11264
 541 0068 C4F20103 		movt	r3, 16385
 542 006c 40F2FF72 		movw	r2, #2047
 543 0070 C0F2C002 		movt	r2, 192
 544 0074 9A63     		str	r2, [r3, #56]
 545              		.loc 1 253 0 discriminator 2
 546 0076 4FF43053 		mov	r3, #11264
 547 007a C4F20103 		movt	r3, 16385
 548 007e 0022     		movs	r2, #0
 549 0080 DA63     		str	r2, [r3, #60]
 550              		.loc 1 254 0 discriminator 2
 551 0082 4FF43053 		mov	r3, #11264
 552 0086 C4F20103 		movt	r3, 16385
 553 008a 0022     		movs	r2, #0
ARM GAS  /tmp/ccNRG6Q1.s 			page 11


 554 008c DA62     		str	r2, [r3, #44]
 555              		.loc 1 255 0 discriminator 2
 556 008e 0398     		ldr	r0, [sp, #12]
 557 0090 0599     		ldr	r1, [sp, #20]
 558 0092 FFF7FEFF 		bl	sdc_lld_collect_errors
 559              		.loc 1 256 0 discriminator 2
 560 0096 029B     		ldr	r3, [sp, #8]
 561 0098 012B     		cmp	r3, #1
 562 009a 05D9     		bls	.L30
 563              		.loc 1 257 0
 564 009c 0398     		ldr	r0, [sp, #12]
 565 009e 0C21     		movs	r1, #12
 566 00a0 0022     		movs	r2, #0
 567 00a2 019B     		ldr	r3, [sp, #4]
 568 00a4 FFF7FEFF 		bl	sdc_lld_send_cmd_short_crc
 569              	.L30:
 570              		.loc 1 258 0
 571 00a8 07B0     		add	sp, sp, #28
 572              		@ sp needed
 573 00aa 5DF804FB 		ldr	pc, [sp], #4
 574              		.cfi_endproc
 575              	.LFE122:
 576              		.size	sdc_lld_error_cleanup, .-sdc_lld_error_cleanup
 577 00ae 00BF     		.section	.text.Vector104,"ax",%progbits
 578              		.align	2
 579              		.p2align 4,,15
 580              		.global	Vector104
 581              		.thumb
 582              		.thumb_func
 583              		.type	Vector104, %function
 584              	Vector104:
 585              	.LFB123:
 586              		.loc 1 274 0
 587              		.cfi_startproc
 588              		@ args = 0, pretend = 0, frame = 0
 589              		@ frame_needed = 0, uses_anonymous_args = 0
 590 0000 08B5     		push	{r3, lr}
 591              		.cfi_def_cfa_offset 8
 592              		.cfi_offset 3, -8
 593              		.cfi_offset 14, -4
 594              		.loc 1 276 0
 595 0002 FFF7FEFF 		bl	dbg_check_enter_isr
 596              	.LBB5:
 597              		.loc 1 278 0
 598 0006 2023     		movs	r3, #32
 599              	@ 278 "../../../os/hal/platforms/STM32/sdc_lld.c" 1
 600 0008 83F31188 		msr     BASEPRI, r3
 601              	@ 0 "" 2
 602              		.thumb
 603              	.LBE5:
 604 000c FFF7FEFF 		bl	dbg_check_lock_from_isr
 605              		.loc 1 282 0
 606 0010 4FF43053 		mov	r3, #11264
 607 0014 C4F20103 		movt	r3, 16385
 608 0018 0022     		movs	r2, #0
 609 001a DA63     		str	r2, [r3, #60]
 610              		.loc 1 284 0
ARM GAS  /tmp/ccNRG6Q1.s 			page 12


 611 001c 40F20003 		movw	r3, #:lower16:SDCD1
 612 0020 C0F20003 		movt	r3, #:upper16:SDCD1
 613 0024 DB6B     		ldr	r3, [r3, #60]
 614 0026 002B     		cmp	r3, #0
 615 0028 0DD0     		beq	.L34
 616              		.loc 1 285 0
 617 002a 40F20003 		movw	r3, #:lower16:SDCD1
 618 002e C0F20003 		movt	r3, #:upper16:SDCD1
 619 0032 DB6B     		ldr	r3, [r3, #60]
 620 0034 1846     		mov	r0, r3
 621 0036 FFF7FEFF 		bl	chSchReadyI
 622              		.loc 1 286 0
 623 003a 40F20003 		movw	r3, #:lower16:SDCD1
 624 003e C0F20003 		movt	r3, #:upper16:SDCD1
 625 0042 0022     		movs	r2, #0
 626 0044 DA63     		str	r2, [r3, #60]
 627              	.L34:
 628              		.loc 1 289 0
 629 0046 FFF7FEFF 		bl	dbg_check_unlock_from_isr
 630              	.LBB6:
 631 004a 0023     		movs	r3, #0
 632              	@ 289 "../../../os/hal/platforms/STM32/sdc_lld.c" 1
 633 004c 83F31188 		msr     BASEPRI, r3
 634              	@ 0 "" 2
 635              		.thumb
 636              	.LBE6:
 637              		.loc 1 291 0
 638 0050 FFF7FEFF 		bl	dbg_check_leave_isr
 639 0054 FFF7FEFF 		bl	_port_irq_epilogue
 640              		.loc 1 292 0
 641 0058 08BD     		pop	{r3, pc}
 642              		.cfi_endproc
 643              	.LFE123:
 644              		.size	Vector104, .-Vector104
 645 005a 00BFAFF3 		.section	.text.sdc_lld_init,"ax",%progbits
 645      0080
 646              		.align	2
 647              		.p2align 4,,15
 648              		.global	sdc_lld_init
 649              		.thumb
 650              		.thumb_func
 651              		.type	sdc_lld_init, %function
 652              	sdc_lld_init:
 653              	.LFB124:
 654              		.loc 1 303 0
 655              		.cfi_startproc
 656              		@ args = 0, pretend = 0, frame = 0
 657              		@ frame_needed = 0, uses_anonymous_args = 0
 658 0000 08B5     		push	{r3, lr}
 659              		.cfi_def_cfa_offset 8
 660              		.cfi_offset 3, -8
 661              		.cfi_offset 14, -4
 662              		.loc 1 305 0
 663 0002 40F20000 		movw	r0, #:lower16:SDCD1
 664 0006 C0F20000 		movt	r0, #:upper16:SDCD1
 665 000a FFF7FEFF 		bl	sdcObjectInit
 666              		.loc 1 306 0
ARM GAS  /tmp/ccNRG6Q1.s 			page 13


 667 000e 40F20003 		movw	r3, #:lower16:SDCD1
 668 0012 C0F20003 		movt	r3, #:upper16:SDCD1
 669 0016 0022     		movs	r2, #0
 670 0018 DA63     		str	r2, [r3, #60]
 671              		.loc 1 307 0
 672 001a 40F20003 		movw	r3, #:lower16:SDCD1
 673 001e C0F20003 		movt	r3, #:upper16:SDCD1
 674 0022 064A     		ldr	r2, .L36
 675 0024 5A64     		str	r2, [r3, #68]
 676              		.loc 1 309 0
 677 0026 40F20003 		movw	r3, #:lower16:SDCD1
 678 002a C0F20003 		movt	r3, #:upper16:SDCD1
 679 002e 4FF43052 		mov	r2, #11264
 680 0032 C4F20102 		movt	r2, 16385
 681 0036 9A64     		str	r2, [r3, #72]
 682              		.loc 1 311 0
 683 0038 08BD     		pop	{r3, pc}
 684              	.L37:
 685 003a 00BF     		.align	2
 686              	.L36:
 687 003c 84000000 		.word	_stm32_dma_streams+132
 688              		.cfi_endproc
 689              	.LFE124:
 690              		.size	sdc_lld_init, .-sdc_lld_init
 691              		.section	.rodata
 692 004d 000000   		.align	2
 693              	.LC2:
 694 0050 7364635F 		.ascii	"sdc_lld_start(), #1\000"
 694      6C6C645F 
 694      73746172 
 694      7428292C 
 694      20233100 
 695              		.section	.text.sdc_lld_start,"ax",%progbits
 696              		.align	2
 697              		.p2align 4,,15
 698              		.global	sdc_lld_start
 699              		.thumb
 700              		.thumb_func
 701              		.type	sdc_lld_start, %function
 702              	sdc_lld_start:
 703              	.LFB125:
 704              		.loc 1 320 0
 705              		.cfi_startproc
 706              		@ args = 0, pretend = 0, frame = 16
 707              		@ frame_needed = 0, uses_anonymous_args = 0
 708 0000 00B5     		push	{lr}
 709              		.cfi_def_cfa_offset 4
 710              		.cfi_offset 14, -4
 711 0002 85B0     		sub	sp, sp, #20
 712              		.cfi_def_cfa_offset 24
 713 0004 0190     		str	r0, [sp, #4]
 714              		.loc 1 322 0
 715 0006 019A     		ldr	r2, [sp, #4]
 716 0008 4FF4A843 		mov	r3, #21504
 717 000c C0F60303 		movt	r3, 2051
 718 0010 1364     		str	r3, [r2, #64]
 719              		.loc 1 329 0
ARM GAS  /tmp/ccNRG6Q1.s 			page 14


 720 0012 019B     		ldr	r3, [sp, #4]
 721 0014 1B6C     		ldr	r3, [r3, #64]
 722 0016 43F42003 		orr	r3, r3, #10485760
 723 001a 43F02003 		orr	r3, r3, #32
 724 001e 019A     		ldr	r2, [sp, #4]
 725 0020 1364     		str	r3, [r2, #64]
 726              		.loc 1 334 0
 727 0022 019B     		ldr	r3, [sp, #4]
 728 0024 1B79     		ldrb	r3, [r3, #4]	@ zero_extendqisi2
 729 0026 012B     		cmp	r3, #1
 730 0028 31D1     		bne	.L39
 731              	.LBB7:
 732              		.loc 1 337 0
 733 002a 019B     		ldr	r3, [sp, #4]
 734 002c 5B6C     		ldr	r3, [r3, #68]
 735 002e 1846     		mov	r0, r3
 736 0030 0921     		movs	r1, #9
 737 0032 0022     		movs	r2, #0
 738 0034 0023     		movs	r3, #0
 739 0036 FFF7FEFF 		bl	dmaStreamAllocate
 740 003a 0346     		mov	r3, r0
 741 003c 8DF80F30 		strb	r3, [sp, #15]
 742              		.loc 1 338 0
 743 0040 9DF80F30 		ldrb	r3, [sp, #15]	@ zero_extendqisi2
 744 0044 002B     		cmp	r3, #0
 745 0046 05D0     		beq	.L40
 746              		.loc 1 338 0 is_stmt 0 discriminator 1
 747 0048 40F20000 		movw	r0, #:lower16:.LC2
 748 004c C0F20000 		movt	r0, #:upper16:.LC2
 749 0050 FFF7FEFF 		bl	chDbgPanic
 750              	.L40:
 751              		.loc 1 339 0 is_stmt 1
 752 0054 019B     		ldr	r3, [sp, #4]
 753 0056 5B6C     		ldr	r3, [r3, #68]
 754 0058 1A68     		ldr	r2, [r3]
 755 005a 4FF43253 		mov	r3, #11392
 756 005e C4F20103 		movt	r3, 16385
 757 0062 9360     		str	r3, [r2, #8]
 758              		.loc 1 341 0
 759 0064 019B     		ldr	r3, [sp, #4]
 760 0066 5B6C     		ldr	r3, [r3, #68]
 761 0068 1B68     		ldr	r3, [r3]
 762 006a 0722     		movs	r2, #7
 763 006c 5A61     		str	r2, [r3, #20]
 764              		.loc 1 343 0
 765 006e 3120     		movs	r0, #49
 766 0070 9021     		movs	r1, #144
 767 0072 FFF7FEFF 		bl	nvicEnableVector
 768              		.loc 1 345 0
 769 0076 4FF46053 		mov	r3, #14336
 770 007a C4F20203 		movt	r3, 16386
 771 007e 4FF46052 		mov	r2, #14336
 772 0082 C4F20202 		movt	r2, 16386
 773 0086 526C     		ldr	r2, [r2, #68]
 774 0088 42F40062 		orr	r2, r2, #2048
 775 008c 5A64     		str	r2, [r3, #68]
 776              	.L39:
ARM GAS  /tmp/ccNRG6Q1.s 			page 15


 777              	.LBE7:
 778              		.loc 1 349 0
 779 008e 4FF43053 		mov	r3, #11264
 780 0092 C4F20103 		movt	r3, 16385
 781 0096 0022     		movs	r2, #0
 782 0098 1A60     		str	r2, [r3]
 783              		.loc 1 350 0
 784 009a 4FF43053 		mov	r3, #11264
 785 009e C4F20103 		movt	r3, 16385
 786 00a2 0022     		movs	r2, #0
 787 00a4 5A60     		str	r2, [r3, #4]
 788              		.loc 1 351 0
 789 00a6 4FF43053 		mov	r3, #11264
 790 00aa C4F20103 		movt	r3, 16385
 791 00ae 0022     		movs	r2, #0
 792 00b0 DA62     		str	r2, [r3, #44]
 793              		.loc 1 352 0
 794 00b2 4FF43053 		mov	r3, #11264
 795 00b6 C4F20103 		movt	r3, 16385
 796 00ba 0022     		movs	r2, #0
 797 00bc 5A62     		str	r2, [r3, #36]
 798              		.loc 1 353 0
 799 00be 05B0     		add	sp, sp, #20
 800              		@ sp needed
 801 00c0 5DF804FB 		ldr	pc, [sp], #4
 802              		.cfi_endproc
 803              	.LFE125:
 804              		.size	sdc_lld_start, .-sdc_lld_start
 805 00c4 AFF30080 		.section	.text.sdc_lld_stop,"ax",%progbits
 805      AFF30080 
 805      AFF30080 
 806              		.align	2
 807              		.p2align 4,,15
 808              		.global	sdc_lld_stop
 809              		.thumb
 810              		.thumb_func
 811              		.type	sdc_lld_stop, %function
 812              	sdc_lld_stop:
 813              	.LFB126:
 814              		.loc 1 362 0
 815              		.cfi_startproc
 816              		@ args = 0, pretend = 0, frame = 8
 817              		@ frame_needed = 0, uses_anonymous_args = 0
 818 0000 00B5     		push	{lr}
 819              		.cfi_def_cfa_offset 4
 820              		.cfi_offset 14, -4
 821 0002 83B0     		sub	sp, sp, #12
 822              		.cfi_def_cfa_offset 16
 823 0004 0190     		str	r0, [sp, #4]
 824              		.loc 1 364 0
 825 0006 019B     		ldr	r3, [sp, #4]
 826 0008 1B79     		ldrb	r3, [r3, #4]	@ zero_extendqisi2
 827 000a 012B     		cmp	r3, #1
 828 000c 2BD0     		beq	.L41
 829              		.loc 1 367 0
 830 000e 4FF43053 		mov	r3, #11264
 831 0012 C4F20103 		movt	r3, 16385
ARM GAS  /tmp/ccNRG6Q1.s 			page 16


 832 0016 0022     		movs	r2, #0
 833 0018 1A60     		str	r2, [r3]
 834              		.loc 1 368 0
 835 001a 4FF43053 		mov	r3, #11264
 836 001e C4F20103 		movt	r3, 16385
 837 0022 0022     		movs	r2, #0
 838 0024 5A60     		str	r2, [r3, #4]
 839              		.loc 1 369 0
 840 0026 4FF43053 		mov	r3, #11264
 841 002a C4F20103 		movt	r3, 16385
 842 002e 0022     		movs	r2, #0
 843 0030 DA62     		str	r2, [r3, #44]
 844              		.loc 1 370 0
 845 0032 4FF43053 		mov	r3, #11264
 846 0036 C4F20103 		movt	r3, 16385
 847 003a 0022     		movs	r2, #0
 848 003c 5A62     		str	r2, [r3, #36]
 849              		.loc 1 373 0
 850 003e 3120     		movs	r0, #49
 851 0040 FFF7FEFF 		bl	nvicDisableVector
 852              		.loc 1 374 0
 853 0044 019B     		ldr	r3, [sp, #4]
 854 0046 5B6C     		ldr	r3, [r3, #68]
 855 0048 1846     		mov	r0, r3
 856 004a FFF7FEFF 		bl	dmaStreamRelease
 857              		.loc 1 375 0
 858 004e 4FF46053 		mov	r3, #14336
 859 0052 C4F20203 		movt	r3, 16386
 860 0056 4FF46052 		mov	r2, #14336
 861 005a C4F20202 		movt	r2, 16386
 862 005e 526C     		ldr	r2, [r2, #68]
 863 0060 22F40062 		bic	r2, r2, #2048
 864 0064 5A64     		str	r2, [r3, #68]
 865              	.L41:
 866              		.loc 1 377 0
 867 0066 03B0     		add	sp, sp, #12
 868              		@ sp needed
 869 0068 5DF804FB 		ldr	pc, [sp], #4
 870              		.cfi_endproc
 871              	.LFE126:
 872              		.size	sdc_lld_stop, .-sdc_lld_stop
 873 006c AFF30080 		.section	.text.sdc_lld_start_clk,"ax",%progbits
 874              		.align	2
 875              		.p2align 4,,15
 876              		.global	sdc_lld_start_clk
 877              		.thumb
 878              		.thumb_func
 879              		.type	sdc_lld_start_clk, %function
 880              	sdc_lld_start_clk:
 881              	.LFB127:
 882              		.loc 1 386 0
 883              		.cfi_startproc
 884              		@ args = 0, pretend = 0, frame = 8
 885              		@ frame_needed = 0, uses_anonymous_args = 0
 886 0000 00B5     		push	{lr}
 887              		.cfi_def_cfa_offset 4
 888              		.cfi_offset 14, -4
ARM GAS  /tmp/ccNRG6Q1.s 			page 17


 889 0002 83B0     		sub	sp, sp, #12
 890              		.cfi_def_cfa_offset 16
 891 0004 0190     		str	r0, [sp, #4]
 892              		.loc 1 391 0
 893 0006 4FF43053 		mov	r3, #11264
 894 000a C4F20103 		movt	r3, 16385
 895 000e 7822     		movs	r2, #120
 896 0010 5A60     		str	r2, [r3, #4]
 897              		.loc 1 392 0
 898 0012 4FF43053 		mov	r3, #11264
 899 0016 C4F20103 		movt	r3, 16385
 900 001a 4FF43052 		mov	r2, #11264
 901 001e C4F20102 		movt	r2, 16385
 902 0022 1268     		ldr	r2, [r2]
 903 0024 42F00302 		orr	r2, r2, #3
 904 0028 1A60     		str	r2, [r3]
 905              		.loc 1 393 0
 906 002a 4FF43053 		mov	r3, #11264
 907 002e C4F20103 		movt	r3, 16385
 908 0032 4FF43052 		mov	r2, #11264
 909 0036 C4F20102 		movt	r2, 16385
 910 003a 5268     		ldr	r2, [r2, #4]
 911 003c 42F48072 		orr	r2, r2, #256
 912 0040 5A60     		str	r2, [r3, #4]
 913              		.loc 1 396 0
 914 0042 0A20     		movs	r0, #10
 915 0044 FFF7FEFF 		bl	chThdSleep
 916              		.loc 1 397 0
 917 0048 03B0     		add	sp, sp, #12
 918              		@ sp needed
 919 004a 5DF804FB 		ldr	pc, [sp], #4
 920              		.cfi_endproc
 921              	.LFE127:
 922              		.size	sdc_lld_start_clk, .-sdc_lld_start_clk
 923 004e 00BF     		.section	.text.sdc_lld_set_data_clk,"ax",%progbits
 924              		.align	2
 925              		.p2align 4,,15
 926              		.global	sdc_lld_set_data_clk
 927              		.thumb
 928              		.thumb_func
 929              		.type	sdc_lld_set_data_clk, %function
 930              	sdc_lld_set_data_clk:
 931              	.LFB128:
 932              		.loc 1 406 0
 933              		.cfi_startproc
 934              		@ args = 0, pretend = 0, frame = 8
 935              		@ frame_needed = 0, uses_anonymous_args = 0
 936              		@ link register save eliminated.
 937 0000 82B0     		sub	sp, sp, #8
 938              		.cfi_def_cfa_offset 8
 939 0002 0190     		str	r0, [sp, #4]
 940              		.loc 1 410 0
 941 0004 4FF43053 		mov	r3, #11264
 942 0008 C4F20103 		movt	r3, 16385
 943 000c 4FF43052 		mov	r2, #11264
 944 0010 C4F20102 		movt	r2, 16385
 945 0014 5268     		ldr	r2, [r2, #4]
ARM GAS  /tmp/ccNRG6Q1.s 			page 18


 946 0016 22F0FF02 		bic	r2, r2, #255
 947 001a 5A60     		str	r2, [r3, #4]
 948              		.loc 1 411 0
 949 001c 02B0     		add	sp, sp, #8
 950              		@ sp needed
 951 001e 7047     		bx	lr
 952              		.cfi_endproc
 953              	.LFE128:
 954              		.size	sdc_lld_set_data_clk, .-sdc_lld_set_data_clk
 955              		.section	.text.sdc_lld_stop_clk,"ax",%progbits
 956              		.align	2
 957              		.p2align 4,,15
 958              		.global	sdc_lld_stop_clk
 959              		.thumb
 960              		.thumb_func
 961              		.type	sdc_lld_stop_clk, %function
 962              	sdc_lld_stop_clk:
 963              	.LFB129:
 964              		.loc 1 420 0
 965              		.cfi_startproc
 966              		@ args = 0, pretend = 0, frame = 8
 967              		@ frame_needed = 0, uses_anonymous_args = 0
 968              		@ link register save eliminated.
 969 0000 82B0     		sub	sp, sp, #8
 970              		.cfi_def_cfa_offset 8
 971 0002 0190     		str	r0, [sp, #4]
 972              		.loc 1 424 0
 973 0004 4FF43053 		mov	r3, #11264
 974 0008 C4F20103 		movt	r3, 16385
 975 000c 0022     		movs	r2, #0
 976 000e 5A60     		str	r2, [r3, #4]
 977              		.loc 1 425 0
 978 0010 4FF43053 		mov	r3, #11264
 979 0014 C4F20103 		movt	r3, 16385
 980 0018 0022     		movs	r2, #0
 981 001a 1A60     		str	r2, [r3]
 982              		.loc 1 426 0
 983 001c 02B0     		add	sp, sp, #8
 984              		@ sp needed
 985 001e 7047     		bx	lr
 986              		.cfi_endproc
 987              	.LFE129:
 988              		.size	sdc_lld_stop_clk, .-sdc_lld_stop_clk
 989              		.section	.text.sdc_lld_set_bus_mode,"ax",%progbits
 990              		.align	2
 991              		.p2align 4,,15
 992              		.global	sdc_lld_set_bus_mode
 993              		.thumb
 994              		.thumb_func
 995              		.type	sdc_lld_set_bus_mode, %function
 996              	sdc_lld_set_bus_mode:
 997              	.LFB130:
 998              		.loc 1 436 0
 999              		.cfi_startproc
 1000              		@ args = 0, pretend = 0, frame = 16
 1001              		@ frame_needed = 0, uses_anonymous_args = 0
 1002              		@ link register save eliminated.
ARM GAS  /tmp/ccNRG6Q1.s 			page 19


 1003 0000 84B0     		sub	sp, sp, #16
 1004              		.cfi_def_cfa_offset 16
 1005 0002 0190     		str	r0, [sp, #4]
 1006 0004 0B46     		mov	r3, r1
 1007 0006 8DF80330 		strb	r3, [sp, #3]
 1008              		.loc 1 437 0
 1009 000a 4FF43053 		mov	r3, #11264
 1010 000e C4F20103 		movt	r3, 16385
 1011 0012 5B68     		ldr	r3, [r3, #4]
 1012 0014 23F4C053 		bic	r3, r3, #6144
 1013 0018 0393     		str	r3, [sp, #12]
 1014              		.loc 1 441 0
 1015 001a 9DF80330 		ldrb	r3, [sp, #3]	@ zero_extendqisi2
 1016 001e 012B     		cmp	r3, #1
 1017 0020 0AD0     		beq	.L48
 1018 0022 022B     		cmp	r3, #2
 1019 0024 11D0     		beq	.L49
 1020 0026 002B     		cmp	r3, #0
 1021 0028 18D1     		bne	.L46
 1022              		.loc 1 443 0
 1023 002a 4FF43053 		mov	r3, #11264
 1024 002e C4F20103 		movt	r3, 16385
 1025 0032 039A     		ldr	r2, [sp, #12]
 1026 0034 5A60     		str	r2, [r3, #4]
 1027              		.loc 1 444 0
 1028 0036 11E0     		b	.L46
 1029              	.L48:
 1030              		.loc 1 446 0
 1031 0038 4FF43053 		mov	r3, #11264
 1032 003c C4F20103 		movt	r3, 16385
 1033 0040 039A     		ldr	r2, [sp, #12]
 1034 0042 42F40062 		orr	r2, r2, #2048
 1035 0046 5A60     		str	r2, [r3, #4]
 1036              		.loc 1 447 0
 1037 0048 08E0     		b	.L46
 1038              	.L49:
 1039              		.loc 1 449 0
 1040 004a 4FF43053 		mov	r3, #11264
 1041 004e C4F20103 		movt	r3, 16385
 1042 0052 039A     		ldr	r2, [sp, #12]
 1043 0054 42F48052 		orr	r2, r2, #4096
 1044 0058 5A60     		str	r2, [r3, #4]
 1045              		.loc 1 450 0
 1046 005a 00BF     		nop
 1047              	.L46:
 1048              		.loc 1 452 0
 1049 005c 04B0     		add	sp, sp, #16
 1050              		@ sp needed
 1051 005e 7047     		bx	lr
 1052              		.cfi_endproc
 1053              	.LFE130:
 1054              		.size	sdc_lld_set_bus_mode, .-sdc_lld_set_bus_mode
 1055              		.section	.text.sdc_lld_send_cmd_none,"ax",%progbits
 1056              		.align	2
 1057              		.p2align 4,,15
 1058              		.global	sdc_lld_send_cmd_none
 1059              		.thumb
ARM GAS  /tmp/ccNRG6Q1.s 			page 20


 1060              		.thumb_func
 1061              		.type	sdc_lld_send_cmd_none, %function
 1062              	sdc_lld_send_cmd_none:
 1063              	.LFB131:
 1064              		.loc 1 463 0
 1065              		.cfi_startproc
 1066              		@ args = 0, pretend = 0, frame = 16
 1067              		@ frame_needed = 0, uses_anonymous_args = 0
 1068              		@ link register save eliminated.
 1069 0000 84B0     		sub	sp, sp, #16
 1070              		.cfi_def_cfa_offset 16
 1071 0002 0390     		str	r0, [sp, #12]
 1072 0004 0B46     		mov	r3, r1
 1073 0006 0192     		str	r2, [sp, #4]
 1074 0008 8DF80B30 		strb	r3, [sp, #11]
 1075              		.loc 1 467 0
 1076 000c 4FF43053 		mov	r3, #11264
 1077 0010 C4F20103 		movt	r3, 16385
 1078 0014 019A     		ldr	r2, [sp, #4]
 1079 0016 9A60     		str	r2, [r3, #8]
 1080              		.loc 1 468 0
 1081 0018 4FF43053 		mov	r3, #11264
 1082 001c C4F20103 		movt	r3, 16385
 1083 0020 9DF80B20 		ldrb	r2, [sp, #11]	@ zero_extendqisi2
 1084 0024 42F48062 		orr	r2, r2, #1024
 1085 0028 DA60     		str	r2, [r3, #12]
 1086              		.loc 1 469 0
 1087 002a 00BF     		nop
 1088              	.L52:
 1089              		.loc 1 469 0 is_stmt 0 discriminator 1
 1090 002c 4FF43053 		mov	r3, #11264
 1091 0030 C4F20103 		movt	r3, 16385
 1092 0034 5B6B     		ldr	r3, [r3, #52]
 1093 0036 03F08003 		and	r3, r3, #128
 1094 003a 002B     		cmp	r3, #0
 1095 003c F6D0     		beq	.L52
 1096              		.loc 1 471 0 is_stmt 1
 1097 003e 4FF43053 		mov	r3, #11264
 1098 0042 C4F20103 		movt	r3, 16385
 1099 0046 8022     		movs	r2, #128
 1100 0048 9A63     		str	r2, [r3, #56]
 1101              		.loc 1 472 0
 1102 004a 04B0     		add	sp, sp, #16
 1103              		@ sp needed
 1104 004c 7047     		bx	lr
 1105              		.cfi_endproc
 1106              	.LFE131:
 1107              		.size	sdc_lld_send_cmd_none, .-sdc_lld_send_cmd_none
 1108 004e 00BF     		.section	.text.sdc_lld_send_cmd_short,"ax",%progbits
 1109              		.align	2
 1110              		.p2align 4,,15
 1111              		.global	sdc_lld_send_cmd_short
 1112              		.thumb
 1113              		.thumb_func
 1114              		.type	sdc_lld_send_cmd_short, %function
 1115              	sdc_lld_send_cmd_short:
 1116              	.LFB132:
ARM GAS  /tmp/ccNRG6Q1.s 			page 21


 1117              		.loc 1 490 0
 1118              		.cfi_startproc
 1119              		@ args = 0, pretend = 0, frame = 24
 1120              		@ frame_needed = 0, uses_anonymous_args = 0
 1121 0000 00B5     		push	{lr}
 1122              		.cfi_def_cfa_offset 4
 1123              		.cfi_offset 14, -4
 1124 0002 87B0     		sub	sp, sp, #28
 1125              		.cfi_def_cfa_offset 32
 1126 0004 0390     		str	r0, [sp, #12]
 1127 0006 0192     		str	r2, [sp, #4]
 1128 0008 0093     		str	r3, [sp]
 1129 000a 0B46     		mov	r3, r1
 1130 000c 8DF80B30 		strb	r3, [sp, #11]
 1131              		.loc 1 495 0
 1132 0010 4FF43053 		mov	r3, #11264
 1133 0014 C4F20103 		movt	r3, 16385
 1134 0018 019A     		ldr	r2, [sp, #4]
 1135 001a 9A60     		str	r2, [r3, #8]
 1136              		.loc 1 496 0
 1137 001c 4FF43053 		mov	r3, #11264
 1138 0020 C4F20103 		movt	r3, 16385
 1139 0024 9DF80B20 		ldrb	r2, [sp, #11]
 1140 0028 42F04002 		orr	r2, r2, #64
 1141 002c D2B2     		uxtb	r2, r2
 1142 002e 42F48062 		orr	r2, r2, #1024
 1143 0032 DA60     		str	r2, [r3, #12]
 1144              		.loc 1 497 0
 1145 0034 00BF     		nop
 1146              	.L54:
 1147              		.loc 1 497 0 is_stmt 0 discriminator 1
 1148 0036 4FF43053 		mov	r3, #11264
 1149 003a C4F20103 		movt	r3, 16385
 1150 003e 5B6B     		ldr	r3, [r3, #52]
 1151 0040 0593     		str	r3, [sp, #20]
 1152 0042 059B     		ldr	r3, [sp, #20]
 1153 0044 03F04503 		and	r3, r3, #69
 1154 0048 002B     		cmp	r3, #0
 1155 004a F4D0     		beq	.L54
 1156              		.loc 1 500 0 is_stmt 1
 1157 004c 4FF43053 		mov	r3, #11264
 1158 0050 C4F20103 		movt	r3, 16385
 1159 0054 059A     		ldr	r2, [sp, #20]
 1160 0056 9A63     		str	r2, [r3, #56]
 1161              		.loc 1 501 0
 1162 0058 059B     		ldr	r3, [sp, #20]
 1163 005a 03F00403 		and	r3, r3, #4
 1164 005e 002B     		cmp	r3, #0
 1165 0060 05D0     		beq	.L55
 1166              		.loc 1 502 0
 1167 0062 0398     		ldr	r0, [sp, #12]
 1168 0064 0599     		ldr	r1, [sp, #20]
 1169 0066 FFF7FEFF 		bl	sdc_lld_collect_errors
 1170              		.loc 1 503 0
 1171 006a 0123     		movs	r3, #1
 1172 006c 07E0     		b	.L56
 1173              	.L55:
ARM GAS  /tmp/ccNRG6Q1.s 			page 22


 1174              		.loc 1 505 0
 1175 006e 4FF43053 		mov	r3, #11264
 1176 0072 C4F20103 		movt	r3, 16385
 1177 0076 5A69     		ldr	r2, [r3, #20]
 1178 0078 009B     		ldr	r3, [sp]
 1179 007a 1A60     		str	r2, [r3]
 1180              		.loc 1 506 0
 1181 007c 0023     		movs	r3, #0
 1182              	.L56:
 1183              		.loc 1 507 0
 1184 007e 1846     		mov	r0, r3
 1185 0080 07B0     		add	sp, sp, #28
 1186              		@ sp needed
 1187 0082 5DF804FB 		ldr	pc, [sp], #4
 1188              		.cfi_endproc
 1189              	.LFE132:
 1190              		.size	sdc_lld_send_cmd_short, .-sdc_lld_send_cmd_short
 1191 0086 00BFAFF3 		.section	.text.sdc_lld_send_cmd_short_crc,"ax",%progbits
 1191      0080AFF3 
 1191      0080
 1192              		.align	2
 1193              		.p2align 4,,15
 1194              		.global	sdc_lld_send_cmd_short_crc
 1195              		.thumb
 1196              		.thumb_func
 1197              		.type	sdc_lld_send_cmd_short_crc, %function
 1198              	sdc_lld_send_cmd_short_crc:
 1199              	.LFB133:
 1200              		.loc 1 524 0
 1201              		.cfi_startproc
 1202              		@ args = 0, pretend = 0, frame = 24
 1203              		@ frame_needed = 0, uses_anonymous_args = 0
 1204 0000 00B5     		push	{lr}
 1205              		.cfi_def_cfa_offset 4
 1206              		.cfi_offset 14, -4
 1207 0002 87B0     		sub	sp, sp, #28
 1208              		.cfi_def_cfa_offset 32
 1209 0004 0390     		str	r0, [sp, #12]
 1210 0006 0192     		str	r2, [sp, #4]
 1211 0008 0093     		str	r3, [sp]
 1212 000a 0B46     		mov	r3, r1
 1213 000c 8DF80B30 		strb	r3, [sp, #11]
 1214              		.loc 1 529 0
 1215 0010 4FF43053 		mov	r3, #11264
 1216 0014 C4F20103 		movt	r3, 16385
 1217 0018 019A     		ldr	r2, [sp, #4]
 1218 001a 9A60     		str	r2, [r3, #8]
 1219              		.loc 1 530 0
 1220 001c 4FF43053 		mov	r3, #11264
 1221 0020 C4F20103 		movt	r3, 16385
 1222 0024 9DF80B20 		ldrb	r2, [sp, #11]
 1223 0028 42F04002 		orr	r2, r2, #64
 1224 002c D2B2     		uxtb	r2, r2
 1225 002e 42F48062 		orr	r2, r2, #1024
 1226 0032 DA60     		str	r2, [r3, #12]
 1227              		.loc 1 531 0
 1228 0034 00BF     		nop
ARM GAS  /tmp/ccNRG6Q1.s 			page 23


 1229              	.L58:
 1230              		.loc 1 531 0 is_stmt 0 discriminator 1
 1231 0036 4FF43053 		mov	r3, #11264
 1232 003a C4F20103 		movt	r3, 16385
 1233 003e 5B6B     		ldr	r3, [r3, #52]
 1234 0040 0593     		str	r3, [sp, #20]
 1235 0042 059B     		ldr	r3, [sp, #20]
 1236 0044 03F04503 		and	r3, r3, #69
 1237 0048 002B     		cmp	r3, #0
 1238 004a F4D0     		beq	.L58
 1239              		.loc 1 534 0 is_stmt 1
 1240 004c 4FF43053 		mov	r3, #11264
 1241 0050 C4F20103 		movt	r3, 16385
 1242 0054 059A     		ldr	r2, [sp, #20]
 1243 0056 9A63     		str	r2, [r3, #56]
 1244              		.loc 1 535 0
 1245 0058 059B     		ldr	r3, [sp, #20]
 1246 005a 03F00503 		and	r3, r3, #5
 1247 005e 002B     		cmp	r3, #0
 1248 0060 05D0     		beq	.L59
 1249              		.loc 1 536 0
 1250 0062 0398     		ldr	r0, [sp, #12]
 1251 0064 0599     		ldr	r1, [sp, #20]
 1252 0066 FFF7FEFF 		bl	sdc_lld_collect_errors
 1253              		.loc 1 537 0
 1254 006a 0123     		movs	r3, #1
 1255 006c 07E0     		b	.L60
 1256              	.L59:
 1257              		.loc 1 539 0
 1258 006e 4FF43053 		mov	r3, #11264
 1259 0072 C4F20103 		movt	r3, 16385
 1260 0076 5A69     		ldr	r2, [r3, #20]
 1261 0078 009B     		ldr	r3, [sp]
 1262 007a 1A60     		str	r2, [r3]
 1263              		.loc 1 540 0
 1264 007c 0023     		movs	r3, #0
 1265              	.L60:
 1266              		.loc 1 541 0
 1267 007e 1846     		mov	r0, r3
 1268 0080 07B0     		add	sp, sp, #28
 1269              		@ sp needed
 1270 0082 5DF804FB 		ldr	pc, [sp], #4
 1271              		.cfi_endproc
 1272              	.LFE133:
 1273              		.size	sdc_lld_send_cmd_short_crc, .-sdc_lld_send_cmd_short_crc
 1274 0086 00BFAFF3 		.section	.text.sdc_lld_send_cmd_long_crc,"ax",%progbits
 1274      0080AFF3 
 1274      0080
 1275              		.align	2
 1276              		.p2align 4,,15
 1277              		.global	sdc_lld_send_cmd_long_crc
 1278              		.thumb
 1279              		.thumb_func
 1280              		.type	sdc_lld_send_cmd_long_crc, %function
 1281              	sdc_lld_send_cmd_long_crc:
 1282              	.LFB134:
 1283              		.loc 1 558 0
ARM GAS  /tmp/ccNRG6Q1.s 			page 24


 1284              		.cfi_startproc
 1285              		@ args = 0, pretend = 0, frame = 24
 1286              		@ frame_needed = 0, uses_anonymous_args = 0
 1287 0000 00B5     		push	{lr}
 1288              		.cfi_def_cfa_offset 4
 1289              		.cfi_offset 14, -4
 1290 0002 87B0     		sub	sp, sp, #28
 1291              		.cfi_def_cfa_offset 32
 1292 0004 0390     		str	r0, [sp, #12]
 1293 0006 0192     		str	r2, [sp, #4]
 1294 0008 0093     		str	r3, [sp]
 1295 000a 0B46     		mov	r3, r1
 1296 000c 8DF80B30 		strb	r3, [sp, #11]
 1297              		.loc 1 563 0
 1298 0010 4FF43053 		mov	r3, #11264
 1299 0014 C4F20103 		movt	r3, 16385
 1300 0018 019A     		ldr	r2, [sp, #4]
 1301 001a 9A60     		str	r2, [r3, #8]
 1302              		.loc 1 564 0
 1303 001c 4FF43053 		mov	r3, #11264
 1304 0020 C4F20103 		movt	r3, 16385
 1305 0024 9DF80B20 		ldrb	r2, [sp, #11]
 1306 0028 62F03F02 		orn	r2, r2, #63
 1307 002c D2B2     		uxtb	r2, r2
 1308 002e 42F48062 		orr	r2, r2, #1024
 1309 0032 DA60     		str	r2, [r3, #12]
 1310              		.loc 1 566 0
 1311 0034 00BF     		nop
 1312              	.L62:
 1313              		.loc 1 566 0 is_stmt 0 discriminator 1
 1314 0036 4FF43053 		mov	r3, #11264
 1315 003a C4F20103 		movt	r3, 16385
 1316 003e 5B6B     		ldr	r3, [r3, #52]
 1317 0040 0593     		str	r3, [sp, #20]
 1318 0042 059B     		ldr	r3, [sp, #20]
 1319 0044 03F04503 		and	r3, r3, #69
 1320 0048 002B     		cmp	r3, #0
 1321 004a F4D0     		beq	.L62
 1322              		.loc 1 569 0 is_stmt 1
 1323 004c 4FF43053 		mov	r3, #11264
 1324 0050 C4F20103 		movt	r3, 16385
 1325 0054 059A     		ldr	r2, [sp, #20]
 1326 0056 9A63     		str	r2, [r3, #56]
 1327              		.loc 1 570 0
 1328 0058 059B     		ldr	r3, [sp, #20]
 1329 005a 03F03F03 		and	r3, r3, #63
 1330 005e 002B     		cmp	r3, #0
 1331 0060 05D0     		beq	.L63
 1332              		.loc 1 571 0
 1333 0062 0398     		ldr	r0, [sp, #12]
 1334 0064 0599     		ldr	r1, [sp, #20]
 1335 0066 FFF7FEFF 		bl	sdc_lld_collect_errors
 1336              		.loc 1 572 0
 1337 006a 0123     		movs	r3, #1
 1338 006c 22E0     		b	.L64
 1339              	.L63:
 1340              		.loc 1 575 0
ARM GAS  /tmp/ccNRG6Q1.s 			page 25


 1341 006e 009A     		ldr	r2, [sp]
 1342 0070 131D     		adds	r3, r2, #4
 1343 0072 0093     		str	r3, [sp]
 1344 0074 4FF43053 		mov	r3, #11264
 1345 0078 C4F20103 		movt	r3, 16385
 1346 007c 1B6A     		ldr	r3, [r3, #32]
 1347 007e 1360     		str	r3, [r2]
 1348              		.loc 1 576 0
 1349 0080 009A     		ldr	r2, [sp]
 1350 0082 131D     		adds	r3, r2, #4
 1351 0084 0093     		str	r3, [sp]
 1352 0086 4FF43053 		mov	r3, #11264
 1353 008a C4F20103 		movt	r3, 16385
 1354 008e DB69     		ldr	r3, [r3, #28]
 1355 0090 1360     		str	r3, [r2]
 1356              		.loc 1 577 0
 1357 0092 009A     		ldr	r2, [sp]
 1358 0094 131D     		adds	r3, r2, #4
 1359 0096 0093     		str	r3, [sp]
 1360 0098 4FF43053 		mov	r3, #11264
 1361 009c C4F20103 		movt	r3, 16385
 1362 00a0 9B69     		ldr	r3, [r3, #24]
 1363 00a2 1360     		str	r3, [r2]
 1364              		.loc 1 578 0
 1365 00a4 4FF43053 		mov	r3, #11264
 1366 00a8 C4F20103 		movt	r3, 16385
 1367 00ac 5A69     		ldr	r2, [r3, #20]
 1368 00ae 009B     		ldr	r3, [sp]
 1369 00b0 1A60     		str	r2, [r3]
 1370              		.loc 1 579 0
 1371 00b2 0023     		movs	r3, #0
 1372              	.L64:
 1373              		.loc 1 580 0
 1374 00b4 1846     		mov	r0, r3
 1375 00b6 07B0     		add	sp, sp, #28
 1376              		@ sp needed
 1377 00b8 5DF804FB 		ldr	pc, [sp], #4
 1378              		.cfi_endproc
 1379              	.LFE134:
 1380              		.size	sdc_lld_send_cmd_long_crc, .-sdc_lld_send_cmd_long_crc
 1381 00bc AFF30080 		.section	.rodata
 1382              		.align	2
 1383              	.LC3:
 1384 0064 226D6178 		.ascii	"\"max transaction size\"()\000"
 1384      20747261 
 1384      6E736163 
 1384      74696F6E 
 1384      2073697A 
 1385 007d 000000   		.section	.text.sdc_lld_read_aligned,"ax",%progbits
 1386              		.align	2
 1387              		.p2align 4,,15
 1388              		.global	sdc_lld_read_aligned
 1389              		.thumb
 1390              		.thumb_func
 1391              		.type	sdc_lld_read_aligned, %function
 1392              	sdc_lld_read_aligned:
 1393              	.LFB135:
ARM GAS  /tmp/ccNRG6Q1.s 			page 26


 1394              		.loc 1 597 0
 1395              		.cfi_startproc
 1396              		@ args = 0, pretend = 0, frame = 24
 1397              		@ frame_needed = 0, uses_anonymous_args = 0
 1398 0000 00B5     		push	{lr}
 1399              		.cfi_def_cfa_offset 4
 1400              		.cfi_offset 14, -4
 1401 0002 87B0     		sub	sp, sp, #28
 1402              		.cfi_def_cfa_offset 32
 1403 0004 0390     		str	r0, [sp, #12]
 1404 0006 0291     		str	r1, [sp, #8]
 1405 0008 0192     		str	r2, [sp, #4]
 1406 000a 0093     		str	r3, [sp]
 1407              		.loc 1 600 0
 1408 000c 009B     		ldr	r3, [sp]
 1409 000e B3F5004F 		cmp	r3, #32768
 1410 0012 05D3     		bcc	.L66
 1411              		.loc 1 600 0 is_stmt 0 discriminator 1
 1412 0014 40F20000 		movw	r0, #:lower16:.LC3
 1413 0018 C0F20000 		movt	r0, #:upper16:.LC3
 1414 001c FFF7FEFF 		bl	chDbgPanic
 1415              	.L66:
 1416              		.loc 1 602 0 is_stmt 1
 1417 0020 4FF43053 		mov	r3, #11264
 1418 0024 C4F20103 		movt	r3, 16385
 1419 0028 4DF2C042 		movw	r2, #54464
 1420 002c C0F20102 		movt	r2, 1
 1421 0030 5A62     		str	r2, [r3, #36]
 1422              		.loc 1 605 0
 1423 0032 0398     		ldr	r0, [sp, #12]
 1424 0034 FFF7FEFF 		bl	_sdc_wait_for_transfer_state
 1425 0038 0346     		mov	r3, r0
 1426 003a 002B     		cmp	r3, #0
 1427 003c 01D0     		beq	.L67
 1428              		.loc 1 606 0
 1429 003e 0123     		movs	r3, #1
 1430 0040 55E0     		b	.L72
 1431              	.L67:
 1432              		.loc 1 609 0
 1433 0042 039B     		ldr	r3, [sp, #12]
 1434 0044 5B6C     		ldr	r3, [r3, #68]
 1435 0046 1B68     		ldr	r3, [r3]
 1436 0048 019A     		ldr	r2, [sp, #4]
 1437 004a DA60     		str	r2, [r3, #12]
 1438              		.loc 1 610 0
 1439 004c 039B     		ldr	r3, [sp, #12]
 1440 004e 5B6C     		ldr	r3, [r3, #68]
 1441 0050 1B68     		ldr	r3, [r3]
 1442 0052 009A     		ldr	r2, [sp]
 1443 0054 5202     		lsls	r2, r2, #9
 1444 0056 9208     		lsrs	r2, r2, #2
 1445 0058 5A60     		str	r2, [r3, #4]
 1446              		.loc 1 612 0
 1447 005a 039B     		ldr	r3, [sp, #12]
 1448 005c 5B6C     		ldr	r3, [r3, #68]
 1449 005e 1B68     		ldr	r3, [r3]
 1450 0060 039A     		ldr	r2, [sp, #12]
ARM GAS  /tmp/ccNRG6Q1.s 			page 27


 1451 0062 126C     		ldr	r2, [r2, #64]
 1452 0064 1A60     		str	r2, [r3]
 1453              		.loc 1 613 0
 1454 0066 039B     		ldr	r3, [sp, #12]
 1455 0068 5B6C     		ldr	r3, [r3, #68]
 1456 006a 1B68     		ldr	r3, [r3]
 1457 006c 039A     		ldr	r2, [sp, #12]
 1458 006e 526C     		ldr	r2, [r2, #68]
 1459 0070 1268     		ldr	r2, [r2]
 1460 0072 1268     		ldr	r2, [r2]
 1461 0074 42F00102 		orr	r2, r2, #1
 1462 0078 1A60     		str	r2, [r3]
 1463              		.loc 1 616 0
 1464 007a 4FF43053 		mov	r3, #11264
 1465 007e C4F20103 		movt	r3, 16385
 1466 0082 40F2FF72 		movw	r2, #2047
 1467 0086 C0F2C002 		movt	r2, 192
 1468 008a 9A63     		str	r2, [r3, #56]
 1469              		.loc 1 617 0
 1470 008c 4FF43053 		mov	r3, #11264
 1471 0090 C4F20103 		movt	r3, 16385
 1472 0094 40F22A32 		movw	r2, #810
 1473 0098 DA63     		str	r2, [r3, #60]
 1474              		.loc 1 622 0
 1475 009a 4FF43053 		mov	r3, #11264
 1476 009e C4F20103 		movt	r3, 16385
 1477 00a2 009A     		ldr	r2, [sp]
 1478 00a4 5202     		lsls	r2, r2, #9
 1479 00a6 9A62     		str	r2, [r3, #40]
 1480              		.loc 1 625 0
 1481 00a8 4FF43053 		mov	r3, #11264
 1482 00ac C4F20103 		movt	r3, 16385
 1483 00b0 9B22     		movs	r2, #155
 1484 00b2 DA62     		str	r2, [r3, #44]
 1485              		.loc 1 632 0
 1486 00b4 05AB     		add	r3, sp, #20
 1487 00b6 0398     		ldr	r0, [sp, #12]
 1488 00b8 0299     		ldr	r1, [sp, #8]
 1489 00ba 009A     		ldr	r2, [sp]
 1490 00bc FFF7FEFF 		bl	sdc_lld_prepare_read
 1491 00c0 0346     		mov	r3, r0
 1492 00c2 002B     		cmp	r3, #0
 1493 00c4 00D0     		beq	.L69
 1494              		.loc 1 633 0
 1495 00c6 0BE0     		b	.L70
 1496              	.L69:
 1497              		.loc 1 634 0
 1498 00c8 05AB     		add	r3, sp, #20
 1499 00ca 0398     		ldr	r0, [sp, #12]
 1500 00cc 0099     		ldr	r1, [sp]
 1501 00ce 1A46     		mov	r2, r3
 1502 00d0 FFF7FEFF 		bl	sdc_lld_wait_transaction_end
 1503 00d4 0346     		mov	r3, r0
 1504 00d6 002B     		cmp	r3, #0
 1505 00d8 00D0     		beq	.L71
 1506              		.loc 1 635 0
 1507 00da 01E0     		b	.L70
ARM GAS  /tmp/ccNRG6Q1.s 			page 28


 1508              	.L71:
 1509              		.loc 1 637 0
 1510 00dc 0023     		movs	r3, #0
 1511 00de 06E0     		b	.L72
 1512              	.L70:
 1513              		.loc 1 640 0
 1514 00e0 05AB     		add	r3, sp, #20
 1515 00e2 0398     		ldr	r0, [sp, #12]
 1516 00e4 0099     		ldr	r1, [sp]
 1517 00e6 1A46     		mov	r2, r3
 1518 00e8 FFF7FEFF 		bl	sdc_lld_error_cleanup
 1519              		.loc 1 641 0
 1520 00ec 0123     		movs	r3, #1
 1521              	.L72:
 1522              		.loc 1 642 0
 1523 00ee 1846     		mov	r0, r3
 1524 00f0 07B0     		add	sp, sp, #28
 1525              		@ sp needed
 1526 00f2 5DF804FB 		ldr	pc, [sp], #4
 1527              		.cfi_endproc
 1528              	.LFE135:
 1529              		.size	sdc_lld_read_aligned, .-sdc_lld_read_aligned
 1530 00f6 00BFAFF3 		.section	.text.sdc_lld_write_aligned,"ax",%progbits
 1530      0080AFF3 
 1530      0080
 1531              		.align	2
 1532              		.p2align 4,,15
 1533              		.global	sdc_lld_write_aligned
 1534              		.thumb
 1535              		.thumb_func
 1536              		.type	sdc_lld_write_aligned, %function
 1537              	sdc_lld_write_aligned:
 1538              	.LFB136:
 1539              		.loc 1 659 0
 1540              		.cfi_startproc
 1541              		@ args = 0, pretend = 0, frame = 24
 1542              		@ frame_needed = 0, uses_anonymous_args = 0
 1543 0000 00B5     		push	{lr}
 1544              		.cfi_def_cfa_offset 4
 1545              		.cfi_offset 14, -4
 1546 0002 87B0     		sub	sp, sp, #28
 1547              		.cfi_def_cfa_offset 32
 1548 0004 0390     		str	r0, [sp, #12]
 1549 0006 0291     		str	r1, [sp, #8]
 1550 0008 0192     		str	r2, [sp, #4]
 1551 000a 0093     		str	r3, [sp]
 1552              		.loc 1 662 0
 1553 000c 009B     		ldr	r3, [sp]
 1554 000e B3F5004F 		cmp	r3, #32768
 1555 0012 05D3     		bcc	.L74
 1556              		.loc 1 662 0 is_stmt 0 discriminator 1
 1557 0014 40F20000 		movw	r0, #:lower16:.LC3
 1558 0018 C0F20000 		movt	r0, #:upper16:.LC3
 1559 001c FFF7FEFF 		bl	chDbgPanic
 1560              	.L74:
 1561              		.loc 1 664 0 is_stmt 1
 1562 0020 4FF43053 		mov	r3, #11264
ARM GAS  /tmp/ccNRG6Q1.s 			page 29


 1563 0024 C4F20103 		movt	r3, 16385
 1564 0028 48F68052 		movw	r2, #36224
 1565 002c C0F25B02 		movt	r2, 91
 1566 0030 5A62     		str	r2, [r3, #36]
 1567              		.loc 1 667 0
 1568 0032 0398     		ldr	r0, [sp, #12]
 1569 0034 FFF7FEFF 		bl	_sdc_wait_for_transfer_state
 1570 0038 0346     		mov	r3, r0
 1571 003a 002B     		cmp	r3, #0
 1572 003c 01D0     		beq	.L75
 1573              		.loc 1 668 0
 1574 003e 0123     		movs	r3, #1
 1575 0040 57E0     		b	.L80
 1576              	.L75:
 1577              		.loc 1 671 0
 1578 0042 039B     		ldr	r3, [sp, #12]
 1579 0044 5B6C     		ldr	r3, [r3, #68]
 1580 0046 1B68     		ldr	r3, [r3]
 1581 0048 019A     		ldr	r2, [sp, #4]
 1582 004a DA60     		str	r2, [r3, #12]
 1583              		.loc 1 672 0
 1584 004c 039B     		ldr	r3, [sp, #12]
 1585 004e 5B6C     		ldr	r3, [r3, #68]
 1586 0050 1B68     		ldr	r3, [r3]
 1587 0052 009A     		ldr	r2, [sp]
 1588 0054 5202     		lsls	r2, r2, #9
 1589 0056 9208     		lsrs	r2, r2, #2
 1590 0058 5A60     		str	r2, [r3, #4]
 1591              		.loc 1 674 0
 1592 005a 039B     		ldr	r3, [sp, #12]
 1593 005c 5B6C     		ldr	r3, [r3, #68]
 1594 005e 1B68     		ldr	r3, [r3]
 1595 0060 039A     		ldr	r2, [sp, #12]
 1596 0062 126C     		ldr	r2, [r2, #64]
 1597 0064 42F04002 		orr	r2, r2, #64
 1598 0068 1A60     		str	r2, [r3]
 1599              		.loc 1 675 0
 1600 006a 039B     		ldr	r3, [sp, #12]
 1601 006c 5B6C     		ldr	r3, [r3, #68]
 1602 006e 1B68     		ldr	r3, [r3]
 1603 0070 039A     		ldr	r2, [sp, #12]
 1604 0072 526C     		ldr	r2, [r2, #68]
 1605 0074 1268     		ldr	r2, [r2]
 1606 0076 1268     		ldr	r2, [r2]
 1607 0078 42F00102 		orr	r2, r2, #1
 1608 007c 1A60     		str	r2, [r3]
 1609              		.loc 1 678 0
 1610 007e 4FF43053 		mov	r3, #11264
 1611 0082 C4F20103 		movt	r3, 16385
 1612 0086 40F2FF72 		movw	r2, #2047
 1613 008a C0F2C002 		movt	r2, 192
 1614 008e 9A63     		str	r2, [r3, #56]
 1615              		.loc 1 679 0
 1616 0090 4FF43053 		mov	r3, #11264
 1617 0094 C4F20103 		movt	r3, 16385
 1618 0098 40F21A32 		movw	r2, #794
 1619 009c DA63     		str	r2, [r3, #60]
ARM GAS  /tmp/ccNRG6Q1.s 			page 30


 1620              		.loc 1 684 0
 1621 009e 4FF43053 		mov	r3, #11264
 1622 00a2 C4F20103 		movt	r3, 16385
 1623 00a6 009A     		ldr	r2, [sp]
 1624 00a8 5202     		lsls	r2, r2, #9
 1625 00aa 9A62     		str	r2, [r3, #40]
 1626              		.loc 1 687 0
 1627 00ac 05AB     		add	r3, sp, #20
 1628 00ae 0398     		ldr	r0, [sp, #12]
 1629 00b0 0299     		ldr	r1, [sp, #8]
 1630 00b2 009A     		ldr	r2, [sp]
 1631 00b4 FFF7FEFF 		bl	sdc_lld_prepare_write
 1632 00b8 0346     		mov	r3, r0
 1633 00ba 002B     		cmp	r3, #0
 1634 00bc 00D0     		beq	.L77
 1635              		.loc 1 688 0
 1636 00be 11E0     		b	.L78
 1637              	.L77:
 1638              		.loc 1 691 0
 1639 00c0 4FF43053 		mov	r3, #11264
 1640 00c4 C4F20103 		movt	r3, 16385
 1641 00c8 9922     		movs	r2, #153
 1642 00ca DA62     		str	r2, [r3, #44]
 1643              		.loc 1 695 0
 1644 00cc 05AB     		add	r3, sp, #20
 1645 00ce 0398     		ldr	r0, [sp, #12]
 1646 00d0 0099     		ldr	r1, [sp]
 1647 00d2 1A46     		mov	r2, r3
 1648 00d4 FFF7FEFF 		bl	sdc_lld_wait_transaction_end
 1649 00d8 0346     		mov	r3, r0
 1650 00da 002B     		cmp	r3, #0
 1651 00dc 00D0     		beq	.L79
 1652              		.loc 1 696 0
 1653 00de 01E0     		b	.L78
 1654              	.L79:
 1655              		.loc 1 698 0
 1656 00e0 0023     		movs	r3, #0
 1657 00e2 06E0     		b	.L80
 1658              	.L78:
 1659              		.loc 1 701 0
 1660 00e4 05AB     		add	r3, sp, #20
 1661 00e6 0398     		ldr	r0, [sp, #12]
 1662 00e8 0099     		ldr	r1, [sp]
 1663 00ea 1A46     		mov	r2, r3
 1664 00ec FFF7FEFF 		bl	sdc_lld_error_cleanup
 1665              		.loc 1 702 0
 1666 00f0 0123     		movs	r3, #1
 1667              	.L80:
 1668              		.loc 1 703 0
 1669 00f2 1846     		mov	r0, r3
 1670 00f4 07B0     		add	sp, sp, #28
 1671              		@ sp needed
 1672 00f6 5DF804FB 		ldr	pc, [sp], #4
 1673              		.cfi_endproc
 1674              	.LFE136:
 1675              		.size	sdc_lld_write_aligned, .-sdc_lld_write_aligned
 1676 00fa 00BFAFF3 		.section	.text.sdc_lld_read,"ax",%progbits
ARM GAS  /tmp/ccNRG6Q1.s 			page 31


 1676      0080
 1677              		.align	2
 1678              		.p2align 4,,15
 1679              		.global	sdc_lld_read
 1680              		.thumb
 1681              		.thumb_func
 1682              		.type	sdc_lld_read, %function
 1683              	sdc_lld_read:
 1684              	.LFB137:
 1685              		.loc 1 720 0
 1686              		.cfi_startproc
 1687              		@ args = 0, pretend = 0, frame = 24
 1688              		@ frame_needed = 0, uses_anonymous_args = 0
 1689 0000 00B5     		push	{lr}
 1690              		.cfi_def_cfa_offset 4
 1691              		.cfi_offset 14, -4
 1692 0002 87B0     		sub	sp, sp, #28
 1693              		.cfi_def_cfa_offset 32
 1694 0004 0390     		str	r0, [sp, #12]
 1695 0006 0291     		str	r1, [sp, #8]
 1696 0008 0192     		str	r2, [sp, #4]
 1697 000a 0093     		str	r3, [sp]
 1698              		.loc 1 723 0
 1699 000c 019B     		ldr	r3, [sp, #4]
 1700 000e 03F00303 		and	r3, r3, #3
 1701 0012 002B     		cmp	r3, #0
 1702 0014 2ED0     		beq	.L82
 1703              	.LBB8:
 1704              		.loc 1 725 0
 1705 0016 0023     		movs	r3, #0
 1706 0018 0593     		str	r3, [sp, #20]
 1707 001a 25E0     		b	.L83
 1708              	.L86:
 1709              		.loc 1 726 0
 1710 001c 0398     		ldr	r0, [sp, #12]
 1711 001e 0299     		ldr	r1, [sp, #8]
 1712 0020 40F20002 		movw	r2, #:lower16:u
 1713 0024 C0F20002 		movt	r2, #:upper16:u
 1714 0028 0123     		movs	r3, #1
 1715 002a FFF7FEFF 		bl	sdc_lld_read_aligned
 1716 002e 0346     		mov	r3, r0
 1717 0030 002B     		cmp	r3, #0
 1718 0032 01D0     		beq	.L84
 1719              		.loc 1 727 0
 1720 0034 0123     		movs	r3, #1
 1721 0036 24E0     		b	.L85
 1722              	.L84:
 1723              		.loc 1 728 0
 1724 0038 019A     		ldr	r2, [sp, #4]
 1725 003a 40F20003 		movw	r3, #:lower16:u
 1726 003e C0F20003 		movt	r3, #:upper16:u
 1727 0042 1146     		mov	r1, r2
 1728 0044 1A46     		mov	r2, r3
 1729 0046 4FF40073 		mov	r3, #512
 1730 004a 0846     		mov	r0, r1
 1731 004c 1146     		mov	r1, r2
 1732 004e 1A46     		mov	r2, r3
ARM GAS  /tmp/ccNRG6Q1.s 			page 32


 1733 0050 FFF7FEFF 		bl	memcpy
 1734              		.loc 1 729 0
 1735 0054 019B     		ldr	r3, [sp, #4]
 1736 0056 03F50073 		add	r3, r3, #512
 1737 005a 0193     		str	r3, [sp, #4]
 1738              		.loc 1 730 0
 1739 005c 029B     		ldr	r3, [sp, #8]
 1740 005e 0133     		adds	r3, r3, #1
 1741 0060 0293     		str	r3, [sp, #8]
 1742              		.loc 1 725 0
 1743 0062 059B     		ldr	r3, [sp, #20]
 1744 0064 0133     		adds	r3, r3, #1
 1745 0066 0593     		str	r3, [sp, #20]
 1746              	.L83:
 1747              		.loc 1 725 0 is_stmt 0 discriminator 1
 1748 0068 059A     		ldr	r2, [sp, #20]
 1749 006a 009B     		ldr	r3, [sp]
 1750 006c 9A42     		cmp	r2, r3
 1751 006e D5D3     		bcc	.L86
 1752              		.loc 1 732 0 is_stmt 1
 1753 0070 0023     		movs	r3, #0
 1754 0072 06E0     		b	.L85
 1755              	.L82:
 1756              	.LBE8:
 1757              		.loc 1 735 0
 1758 0074 0398     		ldr	r0, [sp, #12]
 1759 0076 0299     		ldr	r1, [sp, #8]
 1760 0078 019A     		ldr	r2, [sp, #4]
 1761 007a 009B     		ldr	r3, [sp]
 1762 007c FFF7FEFF 		bl	sdc_lld_read_aligned
 1763 0080 0346     		mov	r3, r0
 1764              	.L85:
 1765              		.loc 1 736 0
 1766 0082 1846     		mov	r0, r3
 1767 0084 07B0     		add	sp, sp, #28
 1768              		@ sp needed
 1769 0086 5DF804FB 		ldr	pc, [sp], #4
 1770              		.cfi_endproc
 1771              	.LFE137:
 1772              		.size	sdc_lld_read, .-sdc_lld_read
 1773 008a 00BFAFF3 		.section	.text.sdc_lld_write,"ax",%progbits
 1773      0080
 1774              		.align	2
 1775              		.p2align 4,,15
 1776              		.global	sdc_lld_write
 1777              		.thumb
 1778              		.thumb_func
 1779              		.type	sdc_lld_write, %function
 1780              	sdc_lld_write:
 1781              	.LFB138:
 1782              		.loc 1 753 0
 1783              		.cfi_startproc
 1784              		@ args = 0, pretend = 0, frame = 24
 1785              		@ frame_needed = 0, uses_anonymous_args = 0
 1786 0000 00B5     		push	{lr}
 1787              		.cfi_def_cfa_offset 4
 1788              		.cfi_offset 14, -4
ARM GAS  /tmp/ccNRG6Q1.s 			page 33


 1789 0002 87B0     		sub	sp, sp, #28
 1790              		.cfi_def_cfa_offset 32
 1791 0004 0390     		str	r0, [sp, #12]
 1792 0006 0291     		str	r1, [sp, #8]
 1793 0008 0192     		str	r2, [sp, #4]
 1794 000a 0093     		str	r3, [sp]
 1795              		.loc 1 756 0
 1796 000c 019B     		ldr	r3, [sp, #4]
 1797 000e 03F00303 		and	r3, r3, #3
 1798 0012 002B     		cmp	r3, #0
 1799 0014 2DD0     		beq	.L88
 1800              	.LBB9:
 1801              		.loc 1 758 0
 1802 0016 0023     		movs	r3, #0
 1803 0018 0593     		str	r3, [sp, #20]
 1804 001a 24E0     		b	.L89
 1805              	.L92:
 1806              		.loc 1 759 0
 1807 001c 40F20003 		movw	r3, #:lower16:u
 1808 0020 C0F20003 		movt	r3, #:upper16:u
 1809 0024 019A     		ldr	r2, [sp, #4]
 1810 0026 1946     		mov	r1, r3
 1811 0028 4FF40073 		mov	r3, #512
 1812 002c 0846     		mov	r0, r1
 1813 002e 1146     		mov	r1, r2
 1814 0030 1A46     		mov	r2, r3
 1815 0032 FFF7FEFF 		bl	memcpy
 1816              		.loc 1 760 0
 1817 0036 019B     		ldr	r3, [sp, #4]
 1818 0038 03F50073 		add	r3, r3, #512
 1819 003c 0193     		str	r3, [sp, #4]
 1820              		.loc 1 761 0
 1821 003e 0398     		ldr	r0, [sp, #12]
 1822 0040 0299     		ldr	r1, [sp, #8]
 1823 0042 40F20002 		movw	r2, #:lower16:u
 1824 0046 C0F20002 		movt	r2, #:upper16:u
 1825 004a 0123     		movs	r3, #1
 1826 004c FFF7FEFF 		bl	sdc_lld_write_aligned
 1827 0050 0346     		mov	r3, r0
 1828 0052 002B     		cmp	r3, #0
 1829 0054 01D0     		beq	.L90
 1830              		.loc 1 762 0
 1831 0056 0123     		movs	r3, #1
 1832 0058 12E0     		b	.L91
 1833              	.L90:
 1834              		.loc 1 763 0
 1835 005a 029B     		ldr	r3, [sp, #8]
 1836 005c 0133     		adds	r3, r3, #1
 1837 005e 0293     		str	r3, [sp, #8]
 1838              		.loc 1 758 0
 1839 0060 059B     		ldr	r3, [sp, #20]
 1840 0062 0133     		adds	r3, r3, #1
 1841 0064 0593     		str	r3, [sp, #20]
 1842              	.L89:
 1843              		.loc 1 758 0 is_stmt 0 discriminator 1
 1844 0066 059A     		ldr	r2, [sp, #20]
 1845 0068 009B     		ldr	r3, [sp]
ARM GAS  /tmp/ccNRG6Q1.s 			page 34


 1846 006a 9A42     		cmp	r2, r3
 1847 006c D6D3     		bcc	.L92
 1848              		.loc 1 765 0 is_stmt 1
 1849 006e 0023     		movs	r3, #0
 1850 0070 06E0     		b	.L91
 1851              	.L88:
 1852              	.LBE9:
 1853              		.loc 1 768 0
 1854 0072 0398     		ldr	r0, [sp, #12]
 1855 0074 0299     		ldr	r1, [sp, #8]
 1856 0076 019A     		ldr	r2, [sp, #4]
 1857 0078 009B     		ldr	r3, [sp]
 1858 007a FFF7FEFF 		bl	sdc_lld_write_aligned
 1859 007e 0346     		mov	r3, r0
 1860              	.L91:
 1861              		.loc 1 769 0
 1862 0080 1846     		mov	r0, r3
 1863 0082 07B0     		add	sp, sp, #28
 1864              		@ sp needed
 1865 0084 5DF804FB 		ldr	pc, [sp], #4
 1866              		.cfi_endproc
 1867              	.LFE138:
 1868              		.size	sdc_lld_write, .-sdc_lld_write
 1869 0088 AFF30080 		.section	.text.sdc_lld_sync,"ax",%progbits
 1869      AFF30080 
 1870              		.align	2
 1871              		.p2align 4,,15
 1872              		.global	sdc_lld_sync
 1873              		.thumb
 1874              		.thumb_func
 1875              		.type	sdc_lld_sync, %function
 1876              	sdc_lld_sync:
 1877              	.LFB139:
 1878              		.loc 1 782 0
 1879              		.cfi_startproc
 1880              		@ args = 0, pretend = 0, frame = 8
 1881              		@ frame_needed = 0, uses_anonymous_args = 0
 1882              		@ link register save eliminated.
 1883 0000 82B0     		sub	sp, sp, #8
 1884              		.cfi_def_cfa_offset 8
 1885 0002 0190     		str	r0, [sp, #4]
 1886              		.loc 1 786 0
 1887 0004 0023     		movs	r3, #0
 1888              		.loc 1 787 0
 1889 0006 1846     		mov	r0, r3
 1890 0008 02B0     		add	sp, sp, #8
 1891              		@ sp needed
 1892 000a 7047     		bx	lr
 1893              		.cfi_endproc
 1894              	.LFE139:
 1895              		.size	sdc_lld_sync, .-sdc_lld_sync
 1896 000c AFF30080 		.text
 1897              	.Letext0:
 1898              		.file 2 "/usr/arm-none-eabi/include/machine/_default_types.h"
 1899              		.file 3 "/usr/arm-none-eabi/include/stdint.h"
 1900              		.file 4 "../../../os/ports/GCC/ARMCMx/chtypes.h"
 1901              		.file 5 "../../../os/kernel/include/chlists.h"
ARM GAS  /tmp/ccNRG6Q1.s 			page 35


 1902              		.file 6 "../../../os/kernel/include/chthreads.h"
 1903              		.file 7 "../../../os/ports/GCC/ARMCMx/chcore_v7m.h"
 1904              		.file 8 "../../../os/kernel/include/chschd.h"
 1905              		.file 9 "../../../os/kernel/include/chmtx.h"
 1906              		.file 10 "../../../os/hal/platforms/STM32F4xx/stm32f4xx.h"
 1907              		.file 11 "../../../os/hal/platforms/STM32F4xx/stm32_dma.h"
 1908              		.file 12 "../../../os/hal/include/io_block.h"
 1909              		.file 13 "../../../os/hal/platforms/STM32/sdc_lld.h"
 1910              		.file 14 "../../../os/ports/common/ARMCMx/CMSIS/include/core_cm4.h"