ARM GAS  /tmp/ccnZjqzL.s 			page 1


   1              		.syntax unified
   2              		.cpu cortex-m4
   3              		.fpu softvfp
   4              		.eabi_attribute 20, 1
   5              		.eabi_attribute 21, 1
   6              		.eabi_attribute 23, 3
   7              		.eabi_attribute 24, 1
   8              		.eabi_attribute 25, 1
   9              		.eabi_attribute 26, 1
  10              		.eabi_attribute 30, 6
  11              		.eabi_attribute 34, 1
  12              		.eabi_attribute 18, 4
  13              		.thumb
  14              		.file	"shell.c"
  15              		.text
  16              	.Ltext0:
  17              		.cfi_sections	.debug_frame
  18              		.section	.text.chprintf,"ax",%progbits
  19              		.align	2
  20              		.p2align 4,,15
  21              		.thumb
  22              		.thumb_func
  23              		.type	chprintf, %function
  24              	chprintf:
  25              	.LFB118:
  26              		.file 1 "../../../os/various/chprintf.h"
  27              		.loc 1 69 0
  28              		.cfi_startproc
  29              		@ args = 4, pretend = 12, frame = 16
  30              		@ frame_needed = 0, uses_anonymous_args = 1
  31 0000 0EB4     		push	{r1, r2, r3}
  32              		.cfi_def_cfa_offset 12
  33              		.cfi_offset 1, -12
  34              		.cfi_offset 2, -8
  35              		.cfi_offset 3, -4
  36 0002 00B5     		push	{lr}
  37              		.cfi_def_cfa_offset 16
  38              		.cfi_offset 14, -16
  39 0004 84B0     		sub	sp, sp, #16
  40              		.cfi_def_cfa_offset 32
  41 0006 0190     		str	r0, [sp, #4]
  42              		.loc 1 72 0
  43 0008 06AB     		add	r3, sp, #24
  44 000a 0393     		str	r3, [sp, #12]
  45              		.loc 1 73 0
  46 000c 0198     		ldr	r0, [sp, #4]
  47 000e 0599     		ldr	r1, [sp, #20]
  48 0010 039A     		ldr	r2, [sp, #12]
  49 0012 FFF7FEFF 		bl	chvprintf
  50              		.loc 1 75 0
  51 0016 04B0     		add	sp, sp, #16
  52              		@ sp needed
  53 0018 5DF804EB 		ldr	lr, [sp], #4
  54 001c 03B0     		add	sp, sp, #12
  55 001e 7047     		bx	lr
  56              		.cfi_endproc
  57              	.LFE118:
ARM GAS  /tmp/ccnZjqzL.s 			page 2


  58              		.size	chprintf, .-chprintf
  59              		.global	shell_terminated
  60              		.section	.bss.shell_terminated,"aw",%nobits
  61              		.align	2
  62              		.type	shell_terminated, %object
  63              		.size	shell_terminated, 4
  64              	shell_terminated:
  65 0000 00000000 		.space	4
  66              		.section	.text._strtok,"ax",%progbits
  67              		.align	2
  68              		.p2align 4,,15
  69              		.thumb
  70              		.thumb_func
  71              		.type	_strtok, %function
  72              	_strtok:
  73              	.LFB119:
  74              		.file 2 "../../../os/various/shell.c"
  75              		.loc 2 37 0
  76              		.cfi_startproc
  77              		@ args = 0, pretend = 0, frame = 24
  78              		@ frame_needed = 0, uses_anonymous_args = 0
  79 0000 00B5     		push	{lr}
  80              		.cfi_def_cfa_offset 4
  81              		.cfi_offset 14, -4
  82 0002 87B0     		sub	sp, sp, #28
  83              		.cfi_def_cfa_offset 32
  84 0004 0390     		str	r0, [sp, #12]
  85 0006 0291     		str	r1, [sp, #8]
  86 0008 0192     		str	r2, [sp, #4]
  87              		.loc 2 39 0
  88 000a 039B     		ldr	r3, [sp, #12]
  89 000c 002B     		cmp	r3, #0
  90 000e 02D0     		beq	.L3
  91              		.loc 2 40 0
  92 0010 019B     		ldr	r3, [sp, #4]
  93 0012 039A     		ldr	r2, [sp, #12]
  94 0014 1A60     		str	r2, [r3]
  95              	.L3:
  96              		.loc 2 41 0
  97 0016 019B     		ldr	r3, [sp, #4]
  98 0018 1B68     		ldr	r3, [r3]
  99 001a 0593     		str	r3, [sp, #20]
 100              		.loc 2 43 0
 101 001c 059B     		ldr	r3, [sp, #20]
 102 001e 002B     		cmp	r3, #0
 103 0020 01D1     		bne	.L4
 104              		.loc 2 44 0
 105 0022 0023     		movs	r3, #0
 106 0024 20E0     		b	.L5
 107              	.L4:
 108              		.loc 2 46 0
 109 0026 0598     		ldr	r0, [sp, #20]
 110 0028 0299     		ldr	r1, [sp, #8]
 111 002a FFF7FEFF 		bl	strspn
 112 002e 0346     		mov	r3, r0
 113 0030 059A     		ldr	r2, [sp, #20]
 114 0032 1344     		add	r3, r3, r2
ARM GAS  /tmp/ccnZjqzL.s 			page 3


 115 0034 0593     		str	r3, [sp, #20]
 116              		.loc 2 47 0
 117 0036 0598     		ldr	r0, [sp, #20]
 118 0038 0299     		ldr	r1, [sp, #8]
 119 003a FFF7FEFF 		bl	strpbrk
 120 003e 0246     		mov	r2, r0
 121 0040 019B     		ldr	r3, [sp, #4]
 122 0042 1A60     		str	r2, [r3]
 123              		.loc 2 48 0
 124 0044 019B     		ldr	r3, [sp, #4]
 125 0046 1B68     		ldr	r3, [r3]
 126 0048 002B     		cmp	r3, #0
 127 004a 06D0     		beq	.L6
 128              		.loc 2 49 0
 129 004c 019B     		ldr	r3, [sp, #4]
 130 004e 1B68     		ldr	r3, [r3]
 131 0050 591C     		adds	r1, r3, #1
 132 0052 019A     		ldr	r2, [sp, #4]
 133 0054 1160     		str	r1, [r2]
 134 0056 0022     		movs	r2, #0
 135 0058 1A70     		strb	r2, [r3]
 136              	.L6:
 137              		.loc 2 51 0
 138 005a 059B     		ldr	r3, [sp, #20]
 139 005c 1B78     		ldrb	r3, [r3]	@ zero_extendqisi2
 140 005e 002B     		cmp	r3, #0
 141 0060 01D0     		beq	.L7
 142              		.loc 2 51 0 is_stmt 0 discriminator 1
 143 0062 059B     		ldr	r3, [sp, #20]
 144 0064 00E0     		b	.L8
 145              	.L7:
 146              		.loc 2 51 0 discriminator 2
 147 0066 0023     		movs	r3, #0
 148              	.L8:
 149              	.L5:
 150              		.loc 2 52 0 is_stmt 1
 151 0068 1846     		mov	r0, r3
 152 006a 07B0     		add	sp, sp, #28
 153              		@ sp needed
 154 006c 5DF804FB 		ldr	pc, [sp], #4
 155              		.cfi_endproc
 156              	.LFE119:
 157              		.size	_strtok, .-_strtok
 158              		.section	.rodata
 159              		.align	2
 160              	.LC0:
 161 0000 55736167 		.ascii	"Usage: %s\015\012\000"
 161      653A2025 
 161      730D0A00 
 162              		.section	.text.usage,"ax",%progbits
 163              		.align	2
 164              		.p2align 4,,15
 165              		.thumb
 166              		.thumb_func
 167              		.type	usage, %function
 168              	usage:
 169              	.LFB120:
ARM GAS  /tmp/ccnZjqzL.s 			page 4


 170              		.loc 2 54 0
 171              		.cfi_startproc
 172              		@ args = 0, pretend = 0, frame = 8
 173              		@ frame_needed = 0, uses_anonymous_args = 0
 174 0000 00B5     		push	{lr}
 175              		.cfi_def_cfa_offset 4
 176              		.cfi_offset 14, -4
 177 0002 83B0     		sub	sp, sp, #12
 178              		.cfi_def_cfa_offset 16
 179 0004 0190     		str	r0, [sp, #4]
 180 0006 0091     		str	r1, [sp]
 181              		.loc 2 56 0
 182 0008 0198     		ldr	r0, [sp, #4]
 183 000a 40F20001 		movw	r1, #:lower16:.LC0
 184 000e C0F20001 		movt	r1, #:upper16:.LC0
 185 0012 009A     		ldr	r2, [sp]
 186 0014 FFF7FEFF 		bl	chprintf
 187              		.loc 2 57 0
 188 0018 03B0     		add	sp, sp, #12
 189              		@ sp needed
 190 001a 5DF804FB 		ldr	pc, [sp], #4
 191              		.cfi_endproc
 192              	.LFE120:
 193              		.size	usage, .-usage
 194 001e 00BF     		.section	.rodata
 195              		.align	2
 196              	.LC1:
 197 000c 25732000 		.ascii	"%s \000"
 198              		.section	.text.list_commands,"ax",%progbits
 199              		.align	2
 200              		.p2align 4,,15
 201              		.thumb
 202              		.thumb_func
 203              		.type	list_commands, %function
 204              	list_commands:
 205              	.LFB121:
 206              		.loc 2 59 0
 207              		.cfi_startproc
 208              		@ args = 0, pretend = 0, frame = 8
 209              		@ frame_needed = 0, uses_anonymous_args = 0
 210 0000 00B5     		push	{lr}
 211              		.cfi_def_cfa_offset 4
 212              		.cfi_offset 14, -4
 213 0002 83B0     		sub	sp, sp, #12
 214              		.cfi_def_cfa_offset 16
 215 0004 0190     		str	r0, [sp, #4]
 216 0006 0091     		str	r1, [sp]
 217              		.loc 2 61 0
 218 0008 0CE0     		b	.L11
 219              	.L12:
 220              		.loc 2 62 0
 221 000a 009B     		ldr	r3, [sp]
 222 000c 1B68     		ldr	r3, [r3]
 223 000e 0198     		ldr	r0, [sp, #4]
 224 0010 40F20001 		movw	r1, #:lower16:.LC1
 225 0014 C0F20001 		movt	r1, #:upper16:.LC1
 226 0018 1A46     		mov	r2, r3
ARM GAS  /tmp/ccnZjqzL.s 			page 5


 227 001a FFF7FEFF 		bl	chprintf
 228              		.loc 2 63 0
 229 001e 009B     		ldr	r3, [sp]
 230 0020 0833     		adds	r3, r3, #8
 231 0022 0093     		str	r3, [sp]
 232              	.L11:
 233              		.loc 2 61 0 discriminator 1
 234 0024 009B     		ldr	r3, [sp]
 235 0026 1B68     		ldr	r3, [r3]
 236 0028 002B     		cmp	r3, #0
 237 002a EED1     		bne	.L12
 238              		.loc 2 65 0
 239 002c 03B0     		add	sp, sp, #12
 240              		@ sp needed
 241 002e 5DF804FB 		ldr	pc, [sp], #4
 242              		.cfi_endproc
 243              	.LFE121:
 244              		.size	list_commands, .-list_commands
 245 0032 00BFAFF3 		.section	.rodata
 245      0080AFF3 
 245      0080AFF3 
 245      0080
 246              		.align	2
 247              	.LC2:
 248 0010 696E666F 		.ascii	"info\000"
 248      00
 249 0015 000000   		.align	2
 250              	.LC3:
 251 0018 4B65726E 		.ascii	"Kernel:       %s\015\012\000"
 251      656C3A20 
 251      20202020 
 251      20202573 
 251      0D0A00
 252 002b 00       		.align	2
 253              	.LC4:
 254 002c 322E362E 		.ascii	"2.6.3\000"
 254      3300
 255 0032 0000     		.align	2
 256              	.LC5:
 257 0034 436F6D70 		.ascii	"Compiler:     %s\015\012\000"
 257      696C6572 
 257      3A202020 
 257      20202573 
 257      0D0A00
 258 0047 00       		.align	2
 259              	.LC6:
 260 0048 47434320 		.ascii	"GCC 4.8.2\000"
 260      342E382E 
 260      3200
 261 0052 0000     		.align	2
 262              	.LC7:
 263 0054 41726368 		.ascii	"Architecture: %s\015\012\000"
 263      69746563 
 263      74757265 
 263      3A202573 
 263      0D0A00
 264 0067 00       		.align	2
ARM GAS  /tmp/ccnZjqzL.s 			page 6


 265              	.LC8:
 266 0068 41524D76 		.ascii	"ARMv7-ME\000"
 266      372D4D45 
 266      00
 267 0071 000000   		.align	2
 268              	.LC9:
 269 0074 436F7265 		.ascii	"Core Variant: %s\015\012\000"
 269      20566172 
 269      69616E74 
 269      3A202573 
 269      0D0A00
 270 0087 00       		.align	2
 271              	.LC10:
 272 0088 436F7274 		.ascii	"Cortex-M4\000"
 272      65782D4D 
 272      3400
 273 0092 0000     		.align	2
 274              	.LC11:
 275 0094 506F7274 		.ascii	"Port Info:    %s\015\012\000"
 275      20496E66 
 275      6F3A2020 
 275      20202573 
 275      0D0A00
 276 00a7 00       		.align	2
 277              	.LC12:
 278 00a8 41647661 		.ascii	"Advanced kernel mode\000"
 278      6E636564 
 278      206B6572 
 278      6E656C20 
 278      6D6F6465 
 279 00bd 000000   		.align	2
 280              	.LC13:
 281 00c0 506C6174 		.ascii	"Platform:     %s\015\012\000"
 281      666F726D 
 281      3A202020 
 281      20202573 
 281      0D0A00
 282 00d3 00       		.align	2
 283              	.LC14:
 284 00d4 53544D33 		.ascii	"STM32F407/F417 High Performance with DSP and FPU\000"
 284      32463430 
 284      372F4634 
 284      31372048 
 284      69676820 
 285 0105 000000   		.align	2
 286              	.LC15:
 287 0108 426F6172 		.ascii	"Board:        %s\015\012\000"
 287      643A2020 
 287      20202020 
 287      20202573 
 287      0D0A00
 288 011b 00       		.align	2
 289              	.LC16:
 290 011c 53544D69 		.ascii	"STMicroelectronics STM32F4-Discovery\000"
 290      63726F65 
 290      6C656374 
 290      726F6E69 
ARM GAS  /tmp/ccnZjqzL.s 			page 7


 290      63732053 
 291 0141 000000   		.align	2
 292              	.LC17:
 293 0144 4275696C 		.ascii	"Build time:   %s%s%s\015\012\000"
 293      64207469 
 293      6D653A20 
 293      20202573 
 293      25732573 
 294 015b 00       		.align	2
 295              	.LC18:
 296 015c 41707220 		.ascii	"Apr 10 2014\000"
 296      31302032 
 296      30313400 
 297              		.align	2
 298              	.LC19:
 299 0168 202D2000 		.ascii	" - \000"
 300              		.align	2
 301              	.LC20:
 302 016c 32313A30 		.ascii	"21:03:53\000"
 302      333A3533 
 302      00
 303              		.section	.text.cmd_info,"ax",%progbits
 304              		.align	2
 305              		.p2align 4,,15
 306              		.thumb
 307              		.thumb_func
 308              		.type	cmd_info, %function
 309              	cmd_info:
 310              	.LFB122:
 311              		.loc 2 67 0
 312              		.cfi_startproc
 313              		@ args = 0, pretend = 0, frame = 16
 314              		@ frame_needed = 0, uses_anonymous_args = 0
 315 0000 00B5     		push	{lr}
 316              		.cfi_def_cfa_offset 4
 317              		.cfi_offset 14, -4
 318 0002 87B0     		sub	sp, sp, #28
 319              		.cfi_def_cfa_offset 32
 320 0004 0590     		str	r0, [sp, #20]
 321 0006 0491     		str	r1, [sp, #16]
 322 0008 0392     		str	r2, [sp, #12]
 323              		.loc 2 70 0
 324 000a 049B     		ldr	r3, [sp, #16]
 325 000c 002B     		cmp	r3, #0
 326 000e 07DD     		ble	.L14
 327              		.loc 2 71 0
 328 0010 0598     		ldr	r0, [sp, #20]
 329 0012 40F20001 		movw	r1, #:lower16:.LC2
 330 0016 C0F20001 		movt	r1, #:upper16:.LC2
 331 001a FFF7FEFF 		bl	usage
 332              		.loc 2 72 0
 333 001e 60E0     		b	.L13
 334              	.L14:
 335              		.loc 2 75 0
 336 0020 0598     		ldr	r0, [sp, #20]
 337 0022 40F20001 		movw	r1, #:lower16:.LC3
 338 0026 C0F20001 		movt	r1, #:upper16:.LC3
ARM GAS  /tmp/ccnZjqzL.s 			page 8


 339 002a 40F20002 		movw	r2, #:lower16:.LC4
 340 002e C0F20002 		movt	r2, #:upper16:.LC4
 341 0032 FFF7FEFF 		bl	chprintf
 342              		.loc 2 77 0
 343 0036 0598     		ldr	r0, [sp, #20]
 344 0038 40F20001 		movw	r1, #:lower16:.LC5
 345 003c C0F20001 		movt	r1, #:upper16:.LC5
 346 0040 40F20002 		movw	r2, #:lower16:.LC6
 347 0044 C0F20002 		movt	r2, #:upper16:.LC6
 348 0048 FFF7FEFF 		bl	chprintf
 349              		.loc 2 79 0
 350 004c 0598     		ldr	r0, [sp, #20]
 351 004e 40F20001 		movw	r1, #:lower16:.LC7
 352 0052 C0F20001 		movt	r1, #:upper16:.LC7
 353 0056 40F20002 		movw	r2, #:lower16:.LC8
 354 005a C0F20002 		movt	r2, #:upper16:.LC8
 355 005e FFF7FEFF 		bl	chprintf
 356              		.loc 2 81 0
 357 0062 0598     		ldr	r0, [sp, #20]
 358 0064 40F20001 		movw	r1, #:lower16:.LC9
 359 0068 C0F20001 		movt	r1, #:upper16:.LC9
 360 006c 40F20002 		movw	r2, #:lower16:.LC10
 361 0070 C0F20002 		movt	r2, #:upper16:.LC10
 362 0074 FFF7FEFF 		bl	chprintf
 363              		.loc 2 84 0
 364 0078 0598     		ldr	r0, [sp, #20]
 365 007a 40F20001 		movw	r1, #:lower16:.LC11
 366 007e C0F20001 		movt	r1, #:upper16:.LC11
 367 0082 40F20002 		movw	r2, #:lower16:.LC12
 368 0086 C0F20002 		movt	r2, #:upper16:.LC12
 369 008a FFF7FEFF 		bl	chprintf
 370              		.loc 2 87 0
 371 008e 0598     		ldr	r0, [sp, #20]
 372 0090 40F20001 		movw	r1, #:lower16:.LC13
 373 0094 C0F20001 		movt	r1, #:upper16:.LC13
 374 0098 40F20002 		movw	r2, #:lower16:.LC14
 375 009c C0F20002 		movt	r2, #:upper16:.LC14
 376 00a0 FFF7FEFF 		bl	chprintf
 377              		.loc 2 90 0
 378 00a4 0598     		ldr	r0, [sp, #20]
 379 00a6 40F20001 		movw	r1, #:lower16:.LC15
 380 00aa C0F20001 		movt	r1, #:upper16:.LC15
 381 00ae 40F20002 		movw	r2, #:lower16:.LC16
 382 00b2 C0F20002 		movt	r2, #:upper16:.LC16
 383 00b6 FFF7FEFF 		bl	chprintf
 384              		.loc 2 94 0
 385 00ba 40F20003 		movw	r3, #:lower16:.LC20
 386 00be C0F20003 		movt	r3, #:upper16:.LC20
 387 00c2 0093     		str	r3, [sp]
 388 00c4 0598     		ldr	r0, [sp, #20]
 389 00c6 40F20001 		movw	r1, #:lower16:.LC17
 390 00ca C0F20001 		movt	r1, #:upper16:.LC17
 391 00ce 40F20002 		movw	r2, #:lower16:.LC18
 392 00d2 C0F20002 		movt	r2, #:upper16:.LC18
 393 00d6 40F20003 		movw	r3, #:lower16:.LC19
 394 00da C0F20003 		movt	r3, #:upper16:.LC19
 395 00de FFF7FEFF 		bl	chprintf
ARM GAS  /tmp/ccnZjqzL.s 			page 9


 396              	.L13:
 397              		.loc 2 97 0
 398 00e2 07B0     		add	sp, sp, #28
 399              		@ sp needed
 400 00e4 5DF804FB 		ldr	pc, [sp], #4
 401              		.cfi_endproc
 402              	.LFE122:
 403              		.size	cmd_info, .-cmd_info
 404 00e8 AFF30080 		.section	.rodata
 404      AFF30080 
 405 0175 000000   		.align	2
 406              	.LC21:
 407 0178 73797374 		.ascii	"systime\000"
 407      696D6500 
 408              		.align	2
 409              	.LC22:
 410 0180 256C750D 		.ascii	"%lu\015\012\000"
 410      0A00
 411              		.section	.text.cmd_systime,"ax",%progbits
 412              		.align	2
 413              		.p2align 4,,15
 414              		.thumb
 415              		.thumb_func
 416              		.type	cmd_systime, %function
 417              	cmd_systime:
 418              	.LFB123:
 419              		.loc 2 99 0
 420              		.cfi_startproc
 421              		@ args = 0, pretend = 0, frame = 16
 422              		@ frame_needed = 0, uses_anonymous_args = 0
 423 0000 00B5     		push	{lr}
 424              		.cfi_def_cfa_offset 4
 425              		.cfi_offset 14, -4
 426 0002 85B0     		sub	sp, sp, #20
 427              		.cfi_def_cfa_offset 24
 428 0004 0390     		str	r0, [sp, #12]
 429 0006 0291     		str	r1, [sp, #8]
 430 0008 0192     		str	r2, [sp, #4]
 431              		.loc 2 102 0
 432 000a 029B     		ldr	r3, [sp, #8]
 433 000c 002B     		cmp	r3, #0
 434 000e 07DD     		ble	.L17
 435              		.loc 2 103 0
 436 0010 0398     		ldr	r0, [sp, #12]
 437 0012 40F20001 		movw	r1, #:lower16:.LC21
 438 0016 C0F20001 		movt	r1, #:upper16:.LC21
 439 001a FFF7FEFF 		bl	usage
 440              		.loc 2 104 0
 441 001e 0CE0     		b	.L16
 442              	.L17:
 443              		.loc 2 106 0
 444 0020 40F20003 		movw	r3, #:lower16:vtlist
 445 0024 C0F20003 		movt	r3, #:upper16:vtlist
 446 0028 DB68     		ldr	r3, [r3, #12]
 447 002a 0398     		ldr	r0, [sp, #12]
 448 002c 40F20001 		movw	r1, #:lower16:.LC22
 449 0030 C0F20001 		movt	r1, #:upper16:.LC22
ARM GAS  /tmp/ccnZjqzL.s 			page 10


 450 0034 1A46     		mov	r2, r3
 451 0036 FFF7FEFF 		bl	chprintf
 452              	.L16:
 453              		.loc 2 107 0
 454 003a 05B0     		add	sp, sp, #20
 455              		@ sp needed
 456 003c 5DF804FB 		ldr	pc, [sp], #4
 457              		.cfi_endproc
 458              	.LFE123:
 459              		.size	cmd_systime, .-cmd_systime
 460              		.section	.data.local_commands,"aw",%progbits
 461              		.align	2
 462              		.type	local_commands, %object
 463              		.size	local_commands, 24
 464              	local_commands:
 465 0000 10000000 		.word	.LC2
 466 0004 00000000 		.word	cmd_info
 467 0008 78010000 		.word	.LC21
 468 000c 00000000 		.word	cmd_systime
 469 0010 00000000 		.word	0
 470 0014 00000000 		.word	0
 471              		.section	.text.cmdexec,"ax",%progbits
 472              		.align	2
 473              		.p2align 4,,15
 474              		.thumb
 475              		.thumb_func
 476              		.type	cmdexec, %function
 477              	cmdexec:
 478              	.LFB124:
 479              		.loc 2 119 0
 480              		.cfi_startproc
 481              		@ args = 4, pretend = 0, frame = 16
 482              		@ frame_needed = 0, uses_anonymous_args = 0
 483 0000 00B5     		push	{lr}
 484              		.cfi_def_cfa_offset 4
 485              		.cfi_offset 14, -4
 486 0002 85B0     		sub	sp, sp, #20
 487              		.cfi_def_cfa_offset 24
 488 0004 0390     		str	r0, [sp, #12]
 489 0006 0291     		str	r1, [sp, #8]
 490 0008 0192     		str	r2, [sp, #4]
 491 000a 0093     		str	r3, [sp]
 492              		.loc 2 121 0
 493 000c 13E0     		b	.L20
 494              	.L23:
 495              		.loc 2 122 0
 496 000e 039B     		ldr	r3, [sp, #12]
 497 0010 1B68     		ldr	r3, [r3]
 498 0012 1846     		mov	r0, r3
 499 0014 0199     		ldr	r1, [sp, #4]
 500 0016 FFF7FEFF 		bl	strcasecmp
 501 001a 0346     		mov	r3, r0
 502 001c 002B     		cmp	r3, #0
 503 001e 07D1     		bne	.L21
 504              		.loc 2 123 0
 505 0020 039B     		ldr	r3, [sp, #12]
 506 0022 5B68     		ldr	r3, [r3, #4]
ARM GAS  /tmp/ccnZjqzL.s 			page 11


 507 0024 0298     		ldr	r0, [sp, #8]
 508 0026 0099     		ldr	r1, [sp]
 509 0028 069A     		ldr	r2, [sp, #24]
 510 002a 9847     		blx	r3
 511              		.loc 2 124 0
 512 002c 0023     		movs	r3, #0
 513 002e 07E0     		b	.L22
 514              	.L21:
 515              		.loc 2 126 0
 516 0030 039B     		ldr	r3, [sp, #12]
 517 0032 0833     		adds	r3, r3, #8
 518 0034 0393     		str	r3, [sp, #12]
 519              	.L20:
 520              		.loc 2 121 0 discriminator 1
 521 0036 039B     		ldr	r3, [sp, #12]
 522 0038 1B68     		ldr	r3, [r3]
 523 003a 002B     		cmp	r3, #0
 524 003c E7D1     		bne	.L23
 525              		.loc 2 128 0
 526 003e 0123     		movs	r3, #1
 527              	.L22:
 528              		.loc 2 129 0
 529 0040 1846     		mov	r0, r3
 530 0042 05B0     		add	sp, sp, #20
 531              		@ sp needed
 532 0044 5DF804FB 		ldr	pc, [sp], #4
 533              		.cfi_endproc
 534              	.LFE124:
 535              		.size	cmdexec, .-cmdexec
 536 0048 AFF30080 		.section	.rodata
 536      AFF30080 
 537 0186 0000     		.align	2
 538              	.LC23:
 539 0188 7368656C 		.ascii	"shell\000"
 539      6C00
 540 018e 0000     		.align	2
 541              	.LC24:
 542 0190 0D0A4368 		.ascii	"\015\012ChibiOS/RT Shell\015\012\000"
 542      6962694F 
 542      532F5254 
 542      20536865 
 542      6C6C0D0A 
 543 01a5 000000   		.align	2
 544              	.LC25:
 545 01a8 63683E20 		.ascii	"ch> \000"
 545      00
 546 01ad 000000   		.align	2
 547              	.LC26:
 548 01b0 0D0A6C6F 		.ascii	"\015\012logout\000"
 548      676F7574 
 548      00
 549 01b9 000000   		.align	2
 550              	.LC27:
 551 01bc 200900   		.ascii	" \011\000"
 552 01bf 00       		.align	2
 553              	.LC28:
 554 01c0 746F6F20 		.ascii	"too many arguments\015\012\000"
ARM GAS  /tmp/ccnZjqzL.s 			page 12


 554      6D616E79 
 554      20617267 
 554      756D656E 
 554      74730D0A 
 555 01d5 000000   		.align	2
 556              	.LC29:
 557 01d8 65786974 		.ascii	"exit\000"
 557      00
 558 01dd 000000   		.align	2
 559              	.LC30:
 560 01e0 68656C70 		.ascii	"help\000"
 560      00
 561 01e5 000000   		.align	2
 562              	.LC31:
 563 01e8 436F6D6D 		.ascii	"Commands: help exit \000"
 563      616E6473 
 563      3A206865 
 563      6C702065 
 563      78697420 
 564 01fd 000000   		.align	2
 565              	.LC32:
 566 0200 0D0A00   		.ascii	"\015\012\000"
 567 0203 00       		.align	2
 568              	.LC33:
 569 0204 257300   		.ascii	"%s\000"
 570 0207 00       		.align	2
 571              	.LC34:
 572 0208 203F0D0A 		.ascii	" ?\015\012\000"
 572      00
 573              		.section	.text.shell_thread,"ax",%progbits
 574              		.align	2
 575              		.p2align 4,,15
 576              		.thumb
 577              		.thumb_func
 578              		.type	shell_thread, %function
 579              	shell_thread:
 580              	.LFB125:
 581              		.loc 2 141 0
 582              		.cfi_startproc
 583              		@ args = 0, pretend = 0, frame = 120
 584              		@ frame_needed = 0, uses_anonymous_args = 0
 585 0000 00B5     		push	{lr}
 586              		.cfi_def_cfa_offset 4
 587              		.cfi_offset 14, -4
 588 0002 A1B0     		sub	sp, sp, #132
 589              		.cfi_def_cfa_offset 136
 590 0004 0390     		str	r0, [sp, #12]
 591              		.loc 2 143 0
 592 0006 039B     		ldr	r3, [sp, #12]
 593 0008 1B68     		ldr	r3, [r3]
 594 000a 1D93     		str	r3, [sp, #116]
 595              		.loc 2 144 0
 596 000c 039B     		ldr	r3, [sp, #12]
 597 000e 5B68     		ldr	r3, [r3, #4]
 598 0010 1C93     		str	r3, [sp, #112]
 599              		.loc 2 148 0
 600 0012 40F20003 		movw	r3, #:lower16:rlist
ARM GAS  /tmp/ccnZjqzL.s 			page 13


 601 0016 C0F20003 		movt	r3, #:upper16:rlist
 602 001a 9A69     		ldr	r2, [r3, #24]
 603 001c 40F20003 		movw	r3, #:lower16:.LC23
 604 0020 C0F20003 		movt	r3, #:upper16:.LC23
 605 0024 9361     		str	r3, [r2, #24]
 606              		.loc 2 149 0
 607 0026 1D98     		ldr	r0, [sp, #116]
 608 0028 40F20001 		movw	r1, #:lower16:.LC24
 609 002c C0F20001 		movt	r1, #:upper16:.LC24
 610 0030 FFF7FEFF 		bl	chprintf
 611              	.L38:
 612              		.loc 2 151 0
 613 0034 1D98     		ldr	r0, [sp, #116]
 614 0036 40F20001 		movw	r1, #:lower16:.LC25
 615 003a C0F20001 		movt	r1, #:upper16:.LC25
 616 003e FFF7FEFF 		bl	chprintf
 617              		.loc 2 152 0
 618 0042 0AAB     		add	r3, sp, #40
 619 0044 1D98     		ldr	r0, [sp, #116]
 620 0046 1946     		mov	r1, r3
 621 0048 4022     		movs	r2, #64
 622 004a FFF7FEFF 		bl	shellGetLine
 623 004e 0346     		mov	r3, r0
 624 0050 002B     		cmp	r3, #0
 625 0052 07D0     		beq	.L25
 626              		.loc 2 153 0
 627 0054 1D98     		ldr	r0, [sp, #116]
 628 0056 40F20001 		movw	r1, #:lower16:.LC26
 629 005a C0F20001 		movt	r1, #:upper16:.LC26
 630 005e FFF7FEFF 		bl	chprintf
 631              		.loc 2 154 0
 632 0062 B1E0     		b	.L26
 633              	.L25:
 634              		.loc 2 156 0
 635 0064 0AAA     		add	r2, sp, #40
 636 0066 1AAB     		add	r3, sp, #104
 637 0068 1046     		mov	r0, r2
 638 006a 40F20001 		movw	r1, #:lower16:.LC27
 639 006e C0F20001 		movt	r1, #:upper16:.LC27
 640 0072 1A46     		mov	r2, r3
 641 0074 FFF7FEFF 		bl	_strtok
 642 0078 1B90     		str	r0, [sp, #108]
 643              		.loc 2 157 0
 644 007a 1B9B     		ldr	r3, [sp, #108]
 645 007c 1E93     		str	r3, [sp, #120]
 646              		.loc 2 158 0
 647 007e 0023     		movs	r3, #0
 648 0080 1F93     		str	r3, [sp, #124]
 649              		.loc 2 159 0
 650 0082 15E0     		b	.L27
 651              	.L30:
 652              		.loc 2 160 0
 653 0084 1F9B     		ldr	r3, [sp, #124]
 654 0086 032B     		cmp	r3, #3
 655 0088 09DD     		ble	.L28
 656              		.loc 2 161 0
 657 008a 1D98     		ldr	r0, [sp, #116]
ARM GAS  /tmp/ccnZjqzL.s 			page 14


 658 008c 40F20001 		movw	r1, #:lower16:.LC28
 659 0090 C0F20001 		movt	r1, #:upper16:.LC28
 660 0094 FFF7FEFF 		bl	chprintf
 661              		.loc 2 162 0
 662 0098 0023     		movs	r3, #0
 663 009a 1E93     		str	r3, [sp, #120]
 664              		.loc 2 163 0
 665 009c 15E0     		b	.L29
 666              	.L28:
 667              		.loc 2 165 0
 668 009e 1F9B     		ldr	r3, [sp, #124]
 669 00a0 5A1C     		adds	r2, r3, #1
 670 00a2 1F92     		str	r2, [sp, #124]
 671 00a4 9B00     		lsls	r3, r3, #2
 672 00a6 20AA     		add	r2, sp, #128
 673 00a8 1344     		add	r3, r3, r2
 674 00aa 1B9A     		ldr	r2, [sp, #108]
 675 00ac 43F86C2C 		str	r2, [r3, #-108]
 676              	.L27:
 677              		.loc 2 159 0 discriminator 1
 678 00b0 1AAB     		add	r3, sp, #104
 679 00b2 0020     		movs	r0, #0
 680 00b4 40F20001 		movw	r1, #:lower16:.LC27
 681 00b8 C0F20001 		movt	r1, #:upper16:.LC27
 682 00bc 1A46     		mov	r2, r3
 683 00be FFF7FEFF 		bl	_strtok
 684 00c2 1B90     		str	r0, [sp, #108]
 685 00c4 1B9B     		ldr	r3, [sp, #108]
 686 00c6 002B     		cmp	r3, #0
 687 00c8 DCD1     		bne	.L30
 688              	.L29:
 689              		.loc 2 167 0
 690 00ca 1F9B     		ldr	r3, [sp, #124]
 691 00cc 9B00     		lsls	r3, r3, #2
 692 00ce 20AA     		add	r2, sp, #128
 693 00d0 1344     		add	r3, r3, r2
 694 00d2 0022     		movs	r2, #0
 695 00d4 43F86C2C 		str	r2, [r3, #-108]
 696              		.loc 2 168 0
 697 00d8 1E9B     		ldr	r3, [sp, #120]
 698 00da 002B     		cmp	r3, #0
 699 00dc 73D0     		beq	.L31
 700              		.loc 2 169 0
 701 00de 1E98     		ldr	r0, [sp, #120]
 702 00e0 40F20001 		movw	r1, #:lower16:.LC29
 703 00e4 C0F20001 		movt	r1, #:upper16:.LC29
 704 00e8 FFF7FEFF 		bl	strcasecmp
 705 00ec 0346     		mov	r3, r0
 706 00ee 002B     		cmp	r3, #0
 707 00f0 0BD1     		bne	.L32
 708              		.loc 2 170 0
 709 00f2 1F9B     		ldr	r3, [sp, #124]
 710 00f4 002B     		cmp	r3, #0
 711 00f6 07DD     		ble	.L33
 712              		.loc 2 171 0
 713 00f8 1D98     		ldr	r0, [sp, #116]
 714 00fa 40F20001 		movw	r1, #:lower16:.LC29
ARM GAS  /tmp/ccnZjqzL.s 			page 15


 715 00fe C0F20001 		movt	r1, #:upper16:.LC29
 716 0102 FFF7FEFF 		bl	usage
 717              		.loc 2 172 0
 718 0106 5EE0     		b	.L31
 719              	.L33:
 720              		.loc 2 174 0
 721 0108 5EE0     		b	.L26
 722              	.L32:
 723              		.loc 2 176 0
 724 010a 1E98     		ldr	r0, [sp, #120]
 725 010c 40F20001 		movw	r1, #:lower16:.LC30
 726 0110 C0F20001 		movt	r1, #:upper16:.LC30
 727 0114 FFF7FEFF 		bl	strcasecmp
 728 0118 0346     		mov	r3, r0
 729 011a 002B     		cmp	r3, #0
 730 011c 27D1     		bne	.L34
 731              		.loc 2 177 0
 732 011e 1F9B     		ldr	r3, [sp, #124]
 733 0120 002B     		cmp	r3, #0
 734 0122 07DD     		ble	.L35
 735              		.loc 2 178 0
 736 0124 1D98     		ldr	r0, [sp, #116]
 737 0126 40F20001 		movw	r1, #:lower16:.LC30
 738 012a C0F20001 		movt	r1, #:upper16:.LC30
 739 012e FFF7FEFF 		bl	usage
 740              		.loc 2 179 0
 741 0132 48E0     		b	.L31
 742              	.L35:
 743              		.loc 2 181 0
 744 0134 1D98     		ldr	r0, [sp, #116]
 745 0136 40F20001 		movw	r1, #:lower16:.LC31
 746 013a C0F20001 		movt	r1, #:upper16:.LC31
 747 013e FFF7FEFF 		bl	chprintf
 748              		.loc 2 182 0
 749 0142 1D98     		ldr	r0, [sp, #116]
 750 0144 40F20001 		movw	r1, #:lower16:local_commands
 751 0148 C0F20001 		movt	r1, #:upper16:local_commands
 752 014c FFF7FEFF 		bl	list_commands
 753              		.loc 2 183 0
 754 0150 1C9B     		ldr	r3, [sp, #112]
 755 0152 002B     		cmp	r3, #0
 756 0154 03D0     		beq	.L36
 757              		.loc 2 184 0
 758 0156 1D98     		ldr	r0, [sp, #116]
 759 0158 1C99     		ldr	r1, [sp, #112]
 760 015a FFF7FEFF 		bl	list_commands
 761              	.L36:
 762              		.loc 2 185 0
 763 015e 1D98     		ldr	r0, [sp, #116]
 764 0160 40F20001 		movw	r1, #:lower16:.LC32
 765 0164 C0F20001 		movt	r1, #:upper16:.LC32
 766 0168 FFF7FEFF 		bl	chprintf
 767 016c 2BE0     		b	.L31
 768              	.L34:
 769              		.loc 2 187 0
 770 016e 05AB     		add	r3, sp, #20
 771 0170 0093     		str	r3, [sp]
ARM GAS  /tmp/ccnZjqzL.s 			page 16


 772 0172 40F20000 		movw	r0, #:lower16:local_commands
 773 0176 C0F20000 		movt	r0, #:upper16:local_commands
 774 017a 1D99     		ldr	r1, [sp, #116]
 775 017c 1E9A     		ldr	r2, [sp, #120]
 776 017e 1F9B     		ldr	r3, [sp, #124]
 777 0180 FFF7FEFF 		bl	cmdexec
 778 0184 0346     		mov	r3, r0
 779 0186 002B     		cmp	r3, #0
 780 0188 1DD0     		beq	.L31
 781              		.loc 2 187 0 is_stmt 0 discriminator 1
 782 018a 1C9B     		ldr	r3, [sp, #112]
 783 018c 002B     		cmp	r3, #0
 784 018e 0AD0     		beq	.L37
 785              		.loc 2 188 0 is_stmt 1
 786 0190 05AB     		add	r3, sp, #20
 787 0192 0093     		str	r3, [sp]
 788 0194 1C98     		ldr	r0, [sp, #112]
 789 0196 1D99     		ldr	r1, [sp, #116]
 790 0198 1E9A     		ldr	r2, [sp, #120]
 791 019a 1F9B     		ldr	r3, [sp, #124]
 792 019c FFF7FEFF 		bl	cmdexec
 793 01a0 0346     		mov	r3, r0
 794 01a2 002B     		cmp	r3, #0
 795 01a4 0FD0     		beq	.L31
 796              	.L37:
 797              		.loc 2 189 0
 798 01a6 1D98     		ldr	r0, [sp, #116]
 799 01a8 40F20001 		movw	r1, #:lower16:.LC33
 800 01ac C0F20001 		movt	r1, #:upper16:.LC33
 801 01b0 1E9A     		ldr	r2, [sp, #120]
 802 01b2 FFF7FEFF 		bl	chprintf
 803              		.loc 2 190 0
 804 01b6 1D98     		ldr	r0, [sp, #116]
 805 01b8 40F20001 		movw	r1, #:lower16:.LC34
 806 01bc C0F20001 		movt	r1, #:upper16:.LC34
 807 01c0 FFF7FEFF 		bl	chprintf
 808              		.loc 2 193 0
 809 01c4 36E7     		b	.L38
 810              	.L31:
 811 01c6 35E7     		b	.L38
 812              	.L26:
 813              		.loc 2 194 0
 814 01c8 0020     		movs	r0, #0
 815 01ca FFF7FEFF 		bl	shellExit
 816              		.loc 2 196 0
 817 01ce 0023     		movs	r3, #0
 818              		.loc 2 197 0
 819 01d0 1846     		mov	r0, r3
 820 01d2 21B0     		add	sp, sp, #132
 821              		@ sp needed
 822 01d4 5DF804FB 		ldr	pc, [sp], #4
 823              		.cfi_endproc
 824              	.LFE125:
 825              		.size	shell_thread, .-shell_thread
 826 01d8 AFF30080 		.section	.text.shellInit,"ax",%progbits
 826      AFF30080 
 827              		.align	2
ARM GAS  /tmp/ccnZjqzL.s 			page 17


 828              		.p2align 4,,15
 829              		.global	shellInit
 830              		.thumb
 831              		.thumb_func
 832              		.type	shellInit, %function
 833              	shellInit:
 834              	.LFB126:
 835              		.loc 2 204 0
 836              		.cfi_startproc
 837              		@ args = 0, pretend = 0, frame = 0
 838              		@ frame_needed = 0, uses_anonymous_args = 0
 839              		@ link register save eliminated.
 840              		.loc 2 206 0
 841 0000 40F20003 		movw	r3, #:lower16:shell_terminated
 842 0004 C0F20003 		movt	r3, #:upper16:shell_terminated
 843 0008 40F20002 		movw	r2, #:lower16:shell_terminated
 844 000c C0F20002 		movt	r2, #:upper16:shell_terminated
 845 0010 1A60     		str	r2, [r3]
 846              		.loc 2 207 0
 847 0012 7047     		bx	lr
 848              		.cfi_endproc
 849              	.LFE126:
 850              		.size	shellInit, .-shellInit
 851 0014 AFF30080 		.section	.text.shellExit,"ax",%progbits
 851      AFF30080 
 851      AFF30080 
 852              		.align	2
 853              		.p2align 4,,15
 854              		.global	shellExit
 855              		.thumb
 856              		.thumb_func
 857              		.type	shellExit, %function
 858              	shellExit:
 859              	.LFB127:
 860              		.loc 2 218 0
 861              		.cfi_startproc
 862              		@ args = 0, pretend = 0, frame = 8
 863              		@ frame_needed = 0, uses_anonymous_args = 0
 864 0000 00B5     		push	{lr}
 865              		.cfi_def_cfa_offset 4
 866              		.cfi_offset 14, -4
 867 0002 83B0     		sub	sp, sp, #12
 868              		.cfi_def_cfa_offset 16
 869 0004 0190     		str	r0, [sp, #4]
 870              	.LBB2:
 871              		.loc 2 222 0
 872 0006 2023     		movs	r3, #32
 873              	@ 222 "../../../os/various/shell.c" 1
 874 0008 83F31188 		msr     BASEPRI, r3
 875              	@ 0 "" 2
 876              		.thumb
 877              	.LBE2:
 878 000c FFF7FEFF 		bl	dbg_check_lock
 879              		.loc 2 223 0
 880 0010 40F20000 		movw	r0, #:lower16:shell_terminated
 881 0014 C0F20000 		movt	r0, #:upper16:shell_terminated
 882 0018 0021     		movs	r1, #0
ARM GAS  /tmp/ccnZjqzL.s 			page 18


 883 001a FFF7FEFF 		bl	chEvtBroadcastFlagsI
 884              		.loc 2 224 0
 885 001e 0198     		ldr	r0, [sp, #4]
 886 0020 FFF7FEFF 		bl	chThdExitS
 887              		.loc 2 225 0
 888 0024 03B0     		add	sp, sp, #12
 889              		@ sp needed
 890 0026 5DF804FB 		ldr	pc, [sp], #4
 891              		.cfi_endproc
 892              	.LFE127:
 893              		.size	shellExit, .-shellExit
 894 002a 00BFAFF3 		.section	.text.shellCreate,"ax",%progbits
 894      0080
 895              		.align	2
 896              		.p2align 4,,15
 897              		.global	shellCreate
 898              		.thumb
 899              		.thumb_func
 900              		.type	shellCreate, %function
 901              	shellCreate:
 902              	.LFB128:
 903              		.loc 2 240 0
 904              		.cfi_startproc
 905              		@ args = 0, pretend = 0, frame = 16
 906              		@ frame_needed = 0, uses_anonymous_args = 0
 907 0000 00B5     		push	{lr}
 908              		.cfi_def_cfa_offset 4
 909              		.cfi_offset 14, -4
 910 0002 87B0     		sub	sp, sp, #28
 911              		.cfi_def_cfa_offset 32
 912 0004 0590     		str	r0, [sp, #20]
 913 0006 0491     		str	r1, [sp, #16]
 914 0008 0392     		str	r2, [sp, #12]
 915              		.loc 2 242 0
 916 000a 059B     		ldr	r3, [sp, #20]
 917 000c 0093     		str	r3, [sp]
 918 000e 0020     		movs	r0, #0
 919 0010 0499     		ldr	r1, [sp, #16]
 920 0012 039A     		ldr	r2, [sp, #12]
 921 0014 40F20003 		movw	r3, #:lower16:shell_thread
 922 0018 C0F20003 		movt	r3, #:upper16:shell_thread
 923 001c FFF7FEFF 		bl	chThdCreateFromHeap
 924 0020 0346     		mov	r3, r0
 925              		.loc 2 243 0
 926 0022 1846     		mov	r0, r3
 927 0024 07B0     		add	sp, sp, #28
 928              		@ sp needed
 929 0026 5DF804FB 		ldr	pc, [sp], #4
 930              		.cfi_endproc
 931              	.LFE128:
 932              		.size	shellCreate, .-shellCreate
 933 002a 00BFAFF3 		.section	.text.shellCreateStatic,"ax",%progbits
 933      0080
 934              		.align	2
 935              		.p2align 4,,15
 936              		.global	shellCreateStatic
 937              		.thumb
ARM GAS  /tmp/ccnZjqzL.s 			page 19


 938              		.thumb_func
 939              		.type	shellCreateStatic, %function
 940              	shellCreateStatic:
 941              	.LFB129:
 942              		.loc 2 258 0
 943              		.cfi_startproc
 944              		@ args = 0, pretend = 0, frame = 16
 945              		@ frame_needed = 0, uses_anonymous_args = 0
 946 0000 00B5     		push	{lr}
 947              		.cfi_def_cfa_offset 4
 948              		.cfi_offset 14, -4
 949 0002 87B0     		sub	sp, sp, #28
 950              		.cfi_def_cfa_offset 32
 951 0004 0590     		str	r0, [sp, #20]
 952 0006 0491     		str	r1, [sp, #16]
 953 0008 0392     		str	r2, [sp, #12]
 954 000a 0293     		str	r3, [sp, #8]
 955              		.loc 2 260 0
 956 000c 059B     		ldr	r3, [sp, #20]
 957 000e 0093     		str	r3, [sp]
 958 0010 0498     		ldr	r0, [sp, #16]
 959 0012 0399     		ldr	r1, [sp, #12]
 960 0014 029A     		ldr	r2, [sp, #8]
 961 0016 40F20003 		movw	r3, #:lower16:shell_thread
 962 001a C0F20003 		movt	r3, #:upper16:shell_thread
 963 001e FFF7FEFF 		bl	chThdCreateStatic
 964 0022 0346     		mov	r3, r0
 965              		.loc 2 261 0
 966 0024 1846     		mov	r0, r3
 967 0026 07B0     		add	sp, sp, #28
 968              		@ sp needed
 969 0028 5DF804FB 		ldr	pc, [sp], #4
 970              		.cfi_endproc
 971              	.LFE129:
 972              		.size	shellCreateStatic, .-shellCreateStatic
 973 002c AFF30080 		.section	.rodata
 974 020d 000000   		.align	2
 975              	.LC35:
 976 0210 5E4400   		.ascii	"^D\000"
 977 0213 00       		.section	.text.shellGetLine,"ax",%progbits
 978              		.align	2
 979              		.p2align 4,,15
 980              		.global	shellGetLine
 981              		.thumb
 982              		.thumb_func
 983              		.type	shellGetLine, %function
 984              	shellGetLine:
 985              	.LFB130:
 986              		.loc 2 275 0
 987              		.cfi_startproc
 988              		@ args = 0, pretend = 0, frame = 24
 989              		@ frame_needed = 0, uses_anonymous_args = 0
 990 0000 00B5     		push	{lr}
 991              		.cfi_def_cfa_offset 4
 992              		.cfi_offset 14, -4
 993 0002 87B0     		sub	sp, sp, #28
 994              		.cfi_def_cfa_offset 32
ARM GAS  /tmp/ccnZjqzL.s 			page 20


 995 0004 0390     		str	r0, [sp, #12]
 996 0006 0291     		str	r1, [sp, #8]
 997 0008 0192     		str	r2, [sp, #4]
 998              		.loc 2 276 0
 999 000a 029B     		ldr	r3, [sp, #8]
 1000 000c 0593     		str	r3, [sp, #20]
 1001              	.L58:
 1002              	.LBB3:
 1003              		.loc 2 281 0
 1004 000e 039B     		ldr	r3, [sp, #12]
 1005 0010 1B68     		ldr	r3, [r3]
 1006 0012 5B68     		ldr	r3, [r3, #4]
 1007 0014 0DF11302 		add	r2, sp, #19
 1008 0018 0398     		ldr	r0, [sp, #12]
 1009 001a 1146     		mov	r1, r2
 1010 001c 0122     		movs	r2, #1
 1011 001e 9847     		blx	r3
 1012 0020 0346     		mov	r3, r0
 1013 0022 002B     		cmp	r3, #0
 1014 0024 01D1     		bne	.L47
 1015              		.loc 2 282 0
 1016 0026 0123     		movs	r3, #1
 1017 0028 5BE0     		b	.L57
 1018              	.L47:
 1019              		.loc 2 283 0
 1020 002a 9DF81330 		ldrb	r3, [sp, #19]	@ zero_extendqisi2
 1021 002e 042B     		cmp	r3, #4
 1022 0030 08D1     		bne	.L49
 1023              		.loc 2 284 0
 1024 0032 0398     		ldr	r0, [sp, #12]
 1025 0034 40F20001 		movw	r1, #:lower16:.LC35
 1026 0038 C0F20001 		movt	r1, #:upper16:.LC35
 1027 003c FFF7FEFF 		bl	chprintf
 1028              		.loc 2 285 0
 1029 0040 0123     		movs	r3, #1
 1030 0042 4EE0     		b	.L57
 1031              	.L49:
 1032              		.loc 2 287 0
 1033 0044 9DF81330 		ldrb	r3, [sp, #19]	@ zero_extendqisi2
 1034 0048 082B     		cmp	r3, #8
 1035 004a 1ED1     		bne	.L50
 1036              		.loc 2 288 0
 1037 004c 059A     		ldr	r2, [sp, #20]
 1038 004e 029B     		ldr	r3, [sp, #8]
 1039 0050 9A42     		cmp	r2, r3
 1040 0052 19D0     		beq	.L51
 1041              		.loc 2 289 0
 1042 0054 039B     		ldr	r3, [sp, #12]
 1043 0056 1B68     		ldr	r3, [r3]
 1044 0058 9B68     		ldr	r3, [r3, #8]
 1045 005a 9DF81320 		ldrb	r2, [sp, #19]	@ zero_extendqisi2
 1046 005e 0398     		ldr	r0, [sp, #12]
 1047 0060 1146     		mov	r1, r2
 1048 0062 9847     		blx	r3
 1049              		.loc 2 290 0
 1050 0064 039B     		ldr	r3, [sp, #12]
 1051 0066 1B68     		ldr	r3, [r3]
ARM GAS  /tmp/ccnZjqzL.s 			page 21


 1052 0068 9B68     		ldr	r3, [r3, #8]
 1053 006a 0398     		ldr	r0, [sp, #12]
 1054 006c 2021     		movs	r1, #32
 1055 006e 9847     		blx	r3
 1056              		.loc 2 291 0
 1057 0070 039B     		ldr	r3, [sp, #12]
 1058 0072 1B68     		ldr	r3, [r3]
 1059 0074 9B68     		ldr	r3, [r3, #8]
 1060 0076 9DF81320 		ldrb	r2, [sp, #19]	@ zero_extendqisi2
 1061 007a 0398     		ldr	r0, [sp, #12]
 1062 007c 1146     		mov	r1, r2
 1063 007e 9847     		blx	r3
 1064              		.loc 2 292 0
 1065 0080 059B     		ldr	r3, [sp, #20]
 1066 0082 013B     		subs	r3, r3, #1
 1067 0084 0593     		str	r3, [sp, #20]
 1068              		.loc 2 294 0
 1069 0086 2BE0     		b	.L56
 1070              	.L51:
 1071 0088 2AE0     		b	.L56
 1072              	.L50:
 1073              		.loc 2 296 0
 1074 008a 9DF81330 		ldrb	r3, [sp, #19]	@ zero_extendqisi2
 1075 008e 0D2B     		cmp	r3, #13
 1076 0090 0BD1     		bne	.L53
 1077              		.loc 2 297 0
 1078 0092 0398     		ldr	r0, [sp, #12]
 1079 0094 40F20001 		movw	r1, #:lower16:.LC32
 1080 0098 C0F20001 		movt	r1, #:upper16:.LC32
 1081 009c FFF7FEFF 		bl	chprintf
 1082              		.loc 2 298 0
 1083 00a0 059B     		ldr	r3, [sp, #20]
 1084 00a2 0022     		movs	r2, #0
 1085 00a4 1A70     		strb	r2, [r3]
 1086              		.loc 2 299 0
 1087 00a6 0023     		movs	r3, #0
 1088 00a8 1BE0     		b	.L57
 1089              	.L53:
 1090              		.loc 2 301 0
 1091 00aa 9DF81330 		ldrb	r3, [sp, #19]	@ zero_extendqisi2
 1092 00ae 1F2B     		cmp	r3, #31
 1093 00b0 00D8     		bhi	.L54
 1094              		.loc 2 302 0
 1095 00b2 15E0     		b	.L56
 1096              	.L54:
 1097              		.loc 2 303 0
 1098 00b4 019B     		ldr	r3, [sp, #4]
 1099 00b6 013B     		subs	r3, r3, #1
 1100 00b8 029A     		ldr	r2, [sp, #8]
 1101 00ba 1A44     		add	r2, r2, r3
 1102 00bc 059B     		ldr	r3, [sp, #20]
 1103 00be 9A42     		cmp	r2, r3
 1104 00c0 0ED9     		bls	.L56
 1105              		.loc 2 304 0
 1106 00c2 039B     		ldr	r3, [sp, #12]
 1107 00c4 1B68     		ldr	r3, [r3]
 1108 00c6 9B68     		ldr	r3, [r3, #8]
ARM GAS  /tmp/ccnZjqzL.s 			page 22


 1109 00c8 9DF81320 		ldrb	r2, [sp, #19]	@ zero_extendqisi2
 1110 00cc 0398     		ldr	r0, [sp, #12]
 1111 00ce 1146     		mov	r1, r2
 1112 00d0 9847     		blx	r3
 1113              		.loc 2 305 0
 1114 00d2 059B     		ldr	r3, [sp, #20]
 1115 00d4 5A1C     		adds	r2, r3, #1
 1116 00d6 0592     		str	r2, [sp, #20]
 1117 00d8 9DF81320 		ldrb	r2, [sp, #19]	@ zero_extendqisi2
 1118 00dc 1A70     		strb	r2, [r3]
 1119              	.LBE3:
 1120              		.loc 2 307 0
 1121 00de 96E7     		b	.L58
 1122              	.L56:
 1123 00e0 95E7     		b	.L58
 1124              	.L57:
 1125              		.loc 2 308 0
 1126 00e2 1846     		mov	r0, r3
 1127 00e4 07B0     		add	sp, sp, #28
 1128              		@ sp needed
 1129 00e6 5DF804FB 		ldr	pc, [sp], #4
 1130              		.cfi_endproc
 1131              	.LFE130:
 1132              		.size	shellGetLine, .-shellGetLine
 1133 00ea 00BFAFF3 		.text
 1133      0080
 1134              	.Letext0:
 1135              		.file 3 "/usr/lib/gcc/arm-none-eabi/4.8.2/include/stddef.h"
 1136              		.file 4 "/usr/arm-none-eabi/include/machine/_default_types.h"
 1137              		.file 5 "/usr/arm-none-eabi/include/stdint.h"
 1138              		.file 6 "../../../os/ports/GCC/ARMCMx/chtypes.h"
 1139              		.file 7 "../../../os/kernel/include/chlists.h"
 1140              		.file 8 "../../../os/kernel/include/chthreads.h"
 1141              		.file 9 "../../../os/ports/GCC/ARMCMx/chcore_v7m.h"
 1142              		.file 10 "../../../os/kernel/include/chvt.h"
 1143              		.file 11 "../../../os/kernel/include/chschd.h"
 1144              		.file 12 "../../../os/kernel/include/chmtx.h"
 1145              		.file 13 "../../../os/kernel/include/chevents.h"
 1146              		.file 14 "../../../os/kernel/include/chstreams.h"
 1147              		.file 15 "../../../os/various/shell.h"
 1148              		.file 16 "/usr/lib/gcc/arm-none-eabi/4.8.2/include/stdarg.h"
 1149              		.file 17 "<built-in>"
 1150              		.file 18 "../../../os/ports/common/ARMCMx/CMSIS/include/core_cm4.h"