ARM GAS  /tmp/cc6nBpmr.s 			page 1


   1              		.syntax unified
   2              		.cpu cortex-m4
   3              		.fpu softvfp
   4              		.eabi_attribute 20, 1
   5              		.eabi_attribute 21, 1
   6              		.eabi_attribute 23, 3
   7              		.eabi_attribute 24, 1
   8              		.eabi_attribute 25, 1
   9              		.eabi_attribute 26, 1
  10              		.eabi_attribute 30, 2
  11              		.eabi_attribute 34, 1
  12              		.eabi_attribute 18, 4
  13              		.thumb
  14              		.file	"main.c"
  15              		.text
  16              	.Ltext0:
  17              		.cfi_sections	.debug_frame
  18              		.section	.text.chprintf.constprop.0,"ax",%progbits
  19              		.align	2
  20              		.p2align 4,,15
  21              		.thumb
  22              		.thumb_func
  23              		.type	chprintf.constprop.0, %function
  24              	chprintf.constprop.0:
  25              	.LFB121:
  26              		.file 1 "../../os/various/chprintf.h"
  27              		.loc 1 69 0
  28              		.cfi_startproc
  29              		@ args = 4, pretend = 12, frame = 8
  30              		@ frame_needed = 0, uses_anonymous_args = 1
  31              	.LVL0:
  32 0000 0EB4     		push	{r1, r2, r3}
  33              		.cfi_def_cfa_offset 12
  34              		.cfi_offset 1, -12
  35              		.cfi_offset 2, -8
  36              		.cfi_offset 3, -4
  37 0002 00B5     		push	{lr}
  38              		.cfi_def_cfa_offset 16
  39              		.cfi_offset 14, -16
  40 0004 82B0     		sub	sp, sp, #8
  41              		.cfi_def_cfa_offset 24
  42              		.loc 1 69 0
  43 0006 03AB     		add	r3, sp, #12
  44              		.loc 1 73 0
  45 0008 40F20000 		movw	r0, #:lower16:SD2
  46              	.LVL1:
  47              		.loc 1 69 0
  48 000c 53F8041B 		ldr	r1, [r3], #4
  49              		.loc 1 73 0
  50 0010 C0F20000 		movt	r0, #:upper16:SD2
  51 0014 1A46     		mov	r2, r3
  52              		.loc 1 72 0
  53 0016 0193     		str	r3, [sp, #4]
  54              		.loc 1 73 0
  55 0018 FFF7FEFF 		bl	chvprintf
  56              	.LVL2:
  57              		.loc 1 75 0
ARM GAS  /tmp/cc6nBpmr.s 			page 2


  58 001c 02B0     		add	sp, sp, #8
  59              		@ sp needed
  60 001e 5DF804EB 		ldr	lr, [sp], #4
  61 0022 03B0     		add	sp, sp, #12
  62 0024 7047     		bx	lr
  63              		.cfi_endproc
  64              	.LFE121:
  65              		.size	chprintf.constprop.0, .-chprintf.constprop.0
  66 0026 00BFAFF3 		.section	.text.print_msg,"ax",%progbits
  66      0080AFF3 
  66      0080
  67              		.align	2
  68              		.p2align 4,,15
  69              		.global	print_msg
  70              		.thumb
  71              		.thumb_func
  72              		.type	print_msg, %function
  73              	print_msg:
  74              	.LFB119:
  75              		.file 2 "main.c"
  76              		.loc 2 29 0
  77              		.cfi_startproc
  78              		@ args = 0, pretend = 0, frame = 0
  79              		@ frame_needed = 0, uses_anonymous_args = 0
  80              		@ link register save eliminated.
  81              	.LVL3:
  82              		.loc 2 31 0
  83 0000 40F20000 		movw	r0, #:lower16:SD2
  84              	.LVL4:
  85 0004 40F20001 		movw	r1, #:lower16:.LC0
  86 0008 C0F20000 		movt	r0, #:upper16:SD2
  87 000c C0F20001 		movt	r1, #:upper16:.LC0
  88 0010 FFF7FEBF 		b	chprintf.constprop.0
  89              	.LVL5:
  90              		.cfi_endproc
  91              	.LFE119:
  92              		.size	print_msg, .-print_msg
  93 0014 AFF30080 		.section	.text.startup.main,"ax",%progbits
  93      AFF30080 
  93      AFF30080 
  94              		.align	2
  95              		.p2align 4,,15
  96              		.global	main
  97              		.thumb
  98              		.thumb_func
  99              		.type	main, %function
 100              	main:
 101              	.LFB120:
 102              		.loc 2 36 0
 103              		.cfi_startproc
 104              		@ args = 0, pretend = 0, frame = 0
 105              		@ frame_needed = 0, uses_anonymous_args = 0
 106 0000 70B5     		push	{r4, r5, r6, lr}
 107              		.cfi_def_cfa_offset 16
 108              		.cfi_offset 4, -16
 109              		.cfi_offset 5, -12
 110              		.cfi_offset 6, -8
ARM GAS  /tmp/cc6nBpmr.s 			page 3


 111              		.cfi_offset 14, -4
 112 0002 82B0     		sub	sp, sp, #8
 113              		.cfi_def_cfa_offset 24
 114              		.loc 2 37 0
 115 0004 FFF7FEFF 		bl	halInit
 116              	.LVL6:
 117              		.loc 2 40 0
 118 0008 0025     		movs	r5, #0
 119              		.loc 2 38 0
 120 000a FFF7FEFF 		bl	chSysInit
 121              	.LVL7:
 122              		.loc 2 43 0
 123 000e 40F20004 		movw	r4, #:lower16:SD2
 124              		.loc 2 40 0
 125 0012 40F20000 		movw	r0, #:lower16:.LANCHOR0
 126 0016 40F20001 		movw	r1, #:lower16:.LANCHOR1
 127 001a 40F20003 		movw	r3, #:lower16:print_msg
 128 001e C0F20003 		movt	r3, #:upper16:print_msg
 129              		.loc 2 43 0
 130 0022 C0F20004 		movt	r4, #:upper16:SD2
 131              		.loc 2 40 0
 132 0026 0422     		movs	r2, #4
 133 0028 0095     		str	r5, [sp]
 134 002a C0F20000 		movt	r0, #:upper16:.LANCHOR0
 135 002e C0F20001 		movt	r1, #:upper16:.LANCHOR1
 136              		.loc 2 44 0
 137 0032 2E46     		mov	r6, r5
 138              		.loc 2 40 0
 139 0034 FFF7FEFF 		bl	chOQInit
 140              	.LVL8:
 141              		.loc 2 44 0
 142 0038 C4F20206 		movt	r6, 16386
 143              		.loc 2 43 0
 144 003c 2046     		mov	r0, r4
 145 003e 2946     		mov	r1, r5
 146 0040 FFF7FEFF 		bl	sdStart
 147              	.LVL9:
 148              		.loc 2 44 0
 149 0044 3046     		mov	r0, r6
 150 0046 0421     		movs	r1, #4
 151 0048 40F28232 		movw	r2, #898
 152 004c FFF7FEFF 		bl	_pal_lld_setgroupmode
 153              	.LVL10:
 154              		.loc 2 45 0
 155 0050 0821     		movs	r1, #8
 156 0052 3046     		mov	r0, r6
 157 0054 40F28232 		movw	r2, #898
 158 0058 FFF7FEFF 		bl	_pal_lld_setgroupmode
 159              	.LVL11:
 160              		.loc 2 47 0
 161 005c 4FF44063 		mov	r3, #3072
 162 0060 C4F20203 		movt	r3, 16386
 163 0064 4FF40052 		mov	r2, #8192
 164 0068 1A83     		strh	r2, [r3, #24]	@ movhi
 165              		.loc 2 48 0
 166 006a FFF7FEFF 		bl	cls
 167              	.LVL12:
ARM GAS  /tmp/cc6nBpmr.s 			page 4


 168              		.loc 2 49 0
 169 006e FFF7FEFF 		bl	puttop
 170              	.LVL13:
 171              		.loc 2 51 0
 172 0072 40F20001 		movw	r1, #:lower16:.LC1
 173 0076 40F20002 		movw	r2, #:lower16:.LC2
 174 007a C0F20002 		movt	r2, #:upper16:.LC2
 175 007e 2046     		mov	r0, r4
 176 0080 C0F20001 		movt	r1, #:upper16:.LC1
 177 0084 FFF7FEFF 		bl	chprintf.constprop.0
 178              	.LVL14:
 179              		.loc 2 53 0
 180 0088 1320     		movs	r0, #19
 181 008a FFF7FEFF 		bl	movv
 182              	.LVL15:
 183              		.loc 2 54 0
 184 008e 40F20001 		movw	r1, #:lower16:.LC3
 185 0092 2046     		mov	r0, r4
 186 0094 C0F20001 		movt	r1, #:upper16:.LC3
 187 0098 FFF7FEFF 		bl	chprintf.constprop.0
 188              	.LVL16:
 189              		.loc 2 55 0
 190 009c 40F20001 		movw	r1, #:lower16:.LC4
 191 00a0 2046     		mov	r0, r4
 192 00a2 C0F20001 		movt	r1, #:upper16:.LC4
 193 00a6 FFF7FEFF 		bl	chprintf.constprop.0
 194              	.LVL17:
 195              		.loc 2 59 0
 196 00aa 2846     		mov	r0, r5
 197 00ac 02B0     		add	sp, sp, #8
 198              		@ sp needed
 199 00ae 70BD     		pop	{r4, r5, r6, pc}
 200              		.cfi_endproc
 201              	.LFE120:
 202              		.size	main, .-main
 203              		.global	OQUEUE
 204              		.global	buff
 205              		.section	.data.OQUEUE,"aw",%progbits
 206              		.align	2
 207              		.set	.LANCHOR0,. + 0
 208              		.type	OQUEUE, %object
 209              		.size	OQUEUE, 36
 210              	OQUEUE:
 211 0000 00000000 		.word	OQUEUE
 212 0004 00000000 		.word	OQUEUE
 213 0008 04000000 		.word	4
 214 000c 00000000 		.word	buff
 215 0010 04000000 		.word	buff+4
 216 0014 00000000 		.word	buff
 217 0018 00000000 		.word	buff
 218 001c 00000000 		.word	print_msg
 219 0020 00000000 		.word	0
 220              		.section	.rodata.str1.4,"aMS",%progbits,1
 221              		.align	2
 222              	.LC0:
 223 0000 71756575 		.ascii	"queue full\015\012\000"
 223      65206675 
ARM GAS  /tmp/cc6nBpmr.s 			page 5


 223      6C6C0D0A 
 223      00
 224 000d 000000   		.space	3
 225              	.LC1:
 226 0010 57656C63 		.ascii	"Welcome to ChibiOS-%s\015\012\000"
 226      6F6D6520 
 226      746F2043 
 226      68696269 
 226      4F532D25 
 227              	.LC2:
 228 0028 322E362E 		.ascii	"2.6.3\000"
 228      3300
 229 002e 0000     		.space	2
 230              	.LC3:
 231 0030 54687265 		.ascii	"Thread Information\015\012\000"
 231      61642049 
 231      6E666F72 
 231      6D617469 
 231      6F6E0D0A 
 232 0045 000000   		.space	3
 233              	.LC4:
 234 0048 54485245 		.ascii	"THREAD NAME\011\011\011THREAD PRIO\011THREAD TICKS\011"
 234      4144204E 
 234      414D4509 
 234      09095448 
 234      52454144 
 235 006f 54485245 		.ascii	"THREAD_STATE\000"
 235      41445F53 
 235      54415445 
 235      00
 236              		.section	.bss.buff,"aw",%nobits
 237              		.align	2
 238              		.set	.LANCHOR1,. + 0
 239              		.type	buff, %object
 240              		.size	buff, 32
 241              	buff:
 242 0000 00000000 		.space	32
 242      00000000 
 242      00000000 
 242      00000000 
 242      00000000 
 243              		.text
 244              	.Letext0:
 245              		.file 3 "/usr/lib/gcc/arm-none-eabi/4.8.2/include/stddef.h"
 246              		.file 4 "/usr/arm-none-eabi/include/machine/_default_types.h"
 247              		.file 5 "/usr/arm-none-eabi/include/stdint.h"
 248              		.file 6 "../../os/ports/GCC/ARMCMx/chtypes.h"
 249              		.file 7 "../../os/kernel/include/chlists.h"
 250              		.file 8 "../../os/kernel/include/chthreads.h"
 251              		.file 9 "../../os/ports/GCC/ARMCMx/chcore_v7m.h"
 252              		.file 10 "../../os/kernel/include/chmtx.h"
 253              		.file 11 "../../os/kernel/include/chevents.h"
 254              		.file 12 "../../os/kernel/include/chqueues.h"
 255              		.file 13 "../../os/kernel/include/chstreams.h"
 256              		.file 14 "../../os/hal/platforms/STM32F4xx/stm32f4xx.h"
 257              		.file 15 "../../os/hal/platforms/STM32/GPIOv2/pal_lld.h"
 258              		.file 16 "../../os/hal/include/serial.h"
ARM GAS  /tmp/cc6nBpmr.s 			page 6


 259              		.file 17 "../../os/hal/platforms/STM32/USARTv1/serial_lld.h"
 260              		.file 18 "/usr/lib/gcc/arm-none-eabi/4.8.2/include/stdarg.h"
 261              		.file 19 "<built-in>"
 262              		.file 20 "../../os/ports/common/ARMCMx/CMSIS/include/core_cm4.h"
 263              		.file 21 "../../os/hal/include/hal.h"
 264              		.file 22 "../../os/kernel/include/chsys.h"
 265              		.file 23 "pretty.h"