ARM GAS  /tmp/cc6nBpmr.s 			page 1


   1              		.syntax unified
   2              		.cpu cortex-m4
   3              		.fpu softvfp
   4              		.eabi_attribute 20, 1
   5              		.eabi_attribute 21, 1
   6              		.eabi_attribute 23, 3
   7              		.eabi_attribute 24, 1
   8              		.eabi_attribute 25, 1
   9              		.eabi_attribute 26, 1
  10              		.eabi_attribute 30, 2
  11              		.eabi_attribute 34, 1
  12              		.eabi_attribute 18, 4
  13              		.thumb
  14              		.file	"main.c"
  15              		.text
  16              	.Ltext0:
  17              		.cfi_sections	.debug_frame
  18              		.section	.text.chprintf.constprop.0,"ax",%progbits
  19              		.align	2
  20              		.p2align 4,,15
  21              		.thumb
  22              		.thumb_func
  23              		.type	chprintf.constprop.0, %function
  24              	chprintf.constprop.0:
  25              	.LFB121:
  26              		.file 1 "../../os/various/chprintf.h"
  27              		.loc 1 69 0
  28              		.cfi_startproc
  29              		@ args = 4, pretend = 12, frame = 8
  30              		@ frame_needed = 0, uses_anonymous_args = 1
  31              	.LVL0:
  32 0000 0EB4     		push	{r1, r2, r3}
  33              		.cfi_def_cfa_offset 12
  34              		.cfi_offset 1, -12
  35              		.cfi_offset 2, -8
  36              		.cfi_offset 3, -4
  37 0002 00B5     		push	{lr}
  38              		.cfi_def_cfa_offset 16
  39              		.cfi_offset 14, -16
  40 0004 82B0     		sub	sp, sp, #8
  41              		.cfi_def_cfa_offset 24
  42              		.loc 1 69 0
  43 0006 03AB     		add	r3, sp, #12
  44              		.loc 1 73 0
  45 0008 40F20000 		movw	r0, #:lower16:SD2
  46              	.LVL1:
  47              		.loc 1 69 0
  48 000c 53F8041B 		ldr	r1, [r3], #4
  49              		.loc 1 73 0
  50 0010 C0F20000 		movt	r0, #:upper16:SD2
  51 0014 1A46     		mov	r2, r3
  52              		.loc 1 72 0
  53 0016 0193     		str	r3, [sp, #4]
  54              		.loc 1 73 0
  55 0018 FFF7FEFF 		bl	chvprintf
  56              	.LVL2:
  57              		.loc 1 75 0
ARM GAS  /tmp/cc6nBpmr.s 			page 2


  58 001c 02B0     		add	sp, sp, #8
  59              		@ sp needed
  60 001e 5DF804EB 		ldr	lr, [sp], #4
  61 0022 03B0     		add	sp, sp, #12
  62 0024 7047     		bx	lr
  63              		.cfi_endproc
  64              	.LFE121:
  65              		.size	chprintf.constprop.0, .-chprintf.constprop.0
  66 0026 00BFAFF3 		.section	.text.print_msg,"ax",%progbits
  66      0080AFF3 
  66      0080
  67              		.align	2
  68              		.p2align 4,,15
  69              		.global	print_msg
  70              		.thumb
  71              		.thumb_func
  72              		.type	print_msg, %function
  73              	print_msg:
  74              	.LFB119:
  75              		.file 2 "main.c"
  76              		.loc 2 29 0
  77              		.cfi_startproc
  78              		@ args = 0, pretend = 0, frame = 0
  79              		@ frame_needed = 0, uses_anonymous_args = 0
  80              		@ link register save eliminated.
  81              	.LVL3:
  82              		.loc 2 31 0
  83 0000 40F20000 		movw	r0, #:lower16:SD2
  84              	.LVL4:
  85 0004 40F20001 		movw	r1, #:lower16:.LC0
  86 0008 C0F20000 		movt	r0, #:upper16:SD2
  87 000c C0F20001 		movt	r1, #:upper16:.LC0
  88 0010 FFF7FEBF 		b	chprintf.constprop.0
  89              	.LVL5:
  90              		.cfi_endproc
  91              	.LFE119:
  92              		.size	print_msg, .-print_msg
  93 0014 AFF30080 		.section	.text.startup.main,"ax",%progbits
  93      AFF30080 
  93      AFF30080 
  94              		.align	2
  95              		.p2align 4,,15
  96              		.global	main
  97              		.thumb
  98              		.thumb_func
  99              		.type	main, %function
 100              	main:
 101              	.LFB120:
 102              		.loc 2 36 0
 103              		.cfi_startproc
 104              		@ args = 0, pretend = 0, frame = 0
 105              		@ frame_needed = 0, uses_anonymous_args = 0
 106 0000 70B5     		push	{r4, r5, r6, lr}
 107              		.cfi_def_cfa_offset 16
 108              		.cfi_offset 4, -16
 109              		.cfi_offset 5, -12
 110              		.cfi_offset 6, -8
ARM GAS  /tmp/cc6nBpmr.s 			page 3


 111              		.cfi_offset 14, -4
 112 0002 82B0     		sub	sp, sp, #8
 113              		.cfi_def_cfa_offset 24
 114              		.loc 2 37 0
 115 0004 FFF7FEFF 		bl	halInit
 116              	.LVL6:
 117              		.loc 2 40 0
 118 0008 0025     		movs	r5, #0
 119              		.loc 2 38 0
 120 000a FFF7FEFF 		bl	chSysInit
 121              	.LVL7:
 122              		.loc 2 43 0
 123 000e 40F20004 		movw	r4, #:lower16:SD2
 124              		.loc 2 40 0
 125 0012 40F20000 		movw	r0, #:lower16:.LANCHOR0
 126 0016 40F20001 		movw	r1, #:lower16:.LANCHOR1
 127 001a 40F20003 		movw	r3, #:lower16:print_msg
 128 001e C0F20003 		movt	r3, #:upper16:print_msg
 129              		.loc 2 43 0
 130 0022 C0F20004 		movt	r4, #:upper16:SD2
 131              		.loc 2 40 0
 132 0026 0422     		movs	r2, #4
 133 0028 0095     		str	r5, [sp]
 134 002a C0F20000 		movt	r0, #:upper16:.LANCHOR0
 135 002e C0F20001 		movt	r1, #:upper16:.LANCHOR1
 136              		.loc 2 44 0
 137 0032 2E46     		mov	r6, r5
 138              		.loc 2 40 0
 139 0034 FFF7FEFF 		bl	chOQInit
 140              	.LVL8:
 141              		.loc 2 44 0
 142 0038 C4F20206 		movt	r6, 16386
 143              		.loc 2 43 0
 144 003c 2046     		mov	r0, r4
 145 003e 2946     		mov	r1, r5
 146 0040 FFF7FEFF 		bl	sdStart
 147              	.LVL9:
 148              		.loc 2 44 0
 149 0044 3046     		mov	r0, r6
 150 0046 0421     		movs	r1, #4
 151 0048 40F28232 		movw	r2, #898
 152 004c FFF7FEFF 		bl	_pal_lld_setgroupmode
 153              	.LVL10:
 154              		.loc 2 45 0
 155 0050 0821     		movs	r1, #8
 156 0052 3046     		mov	r0, r6
 157 0054 40F28232 		movw	r2, #898
 158 0058 FFF7FEFF 		bl	_pal_lld_setgroupmode
 159              	.LVL11:
 160              		.loc 2 47 0
 161 005c 4FF44063 		mov	r3, #3072
 162 0060 C4F20203 		movt	r3, 16386
 163 0064 4FF40052 		mov	r2, #8192
 164 0068 1A83     		strh	r2, [r3, #24]	@ movhi
 165              		.loc 2 48 0
 166 006a FFF7FEFF 		bl	cls
 167              	.LVL12:
ARM GAS  /tmp/cc6nBpmr.s 			page 4


 168              		.loc 2 49 0
 169 006e FFF7FEFF 		bl	puttop
 170              	.LVL13:
 171              		.loc 2 51 0
 172 0072 40F20001 		movw	r1, #:lower16:.LC1
 173 0076 40F20002 		movw	r2, #:lower16:.LC2
 174 007a C0F20002 		movt	r2, #:upper16:.LC2
 175 007e 2046     		mov	r0, r4
 176 0080 C0F20001 		movt	r1, #:upper16:.LC1
 177 0084 FFF7FEFF 		bl	chprintf.constprop.0
 178              	.LVL14:
 179              		.loc 2 53 0
 180 0088 1320     		movs	r0, #19
 181 008a FFF7FEFF 		bl	movv
 182              	.LVL15:
 183              		.loc 2 54 0
 184 008e 40F20001 		movw	r1, #:lower16:.LC3
 185 0092 2046     		mov	r0, r4
 186 0094 C0F20001 		movt	r1, #:upper16:.LC3
 187 0098 FFF7FEFF 		bl	chprintf.constprop.0
 188              	.LVL16:
 189              		.loc 2 55 0
 190 009c 40F20001 		movw	r1, #:lower16:.LC4
 191 00a0 2046     		mov	r0, r4
 192 00a2 C0F20001 		movt	r1, #:upper16:.LC4
 193 00a6 FFF7FEFF 		bl	chprintf.constprop.0
 194              	.LVL17:
 195              		.loc 2 59 0
 196 00aa 2846     		mov	r0, r5
 197 00ac 02B0     		add	sp, sp, #8
 198              		@ sp needed
 199 00ae 70BD     		pop	{r4, r5, r6, pc}
 200              		.cfi_endproc
 201              	.LFE120:
 202              		.size	main, .-main
 203              		.global	OQUEUE
 204              		.global	buff
 205              		.section	.data.OQUEUE,"aw",%progbits
 206              		.align	2
 207              		.set	.LANCHOR0,. + 0
 208              		.type	OQUEUE, %object
 209              		.size	OQUEUE, 36
 210              	OQUEUE:
 211 0000 00000000 		.word	OQUEUE
 212 0004 00000000 		.word	OQUEUE
 213 0008 04000000 		.word	4
 214 000c 00000000 		.word	buff
 215 0010 04000000 		.word	buff+4
 216 0014 00000000 		.word	buff
 217 0018 00000000 		.word	buff
 218 001c 00000000 		.word	print_msg
 219 0020 00000000 		.word	0
 220              		.section	.rodata.str1.4,"aMS",%progbits,1
 221              		.align	2
 222              	.LC0:
 223 0000 71756575 		.ascii	"queue full\015\012\000"
 223      65206675 
ARM GAS  /tmp/cc6nBpmr.s 			page 5


 223      6C6C0D0A 
 223      00
 224 000d 000000   		.space	3
 225              	.LC1:
 226 0010 57656C63 		.ascii	"Welcome to ChibiOS-%s\015\012\000"
 226      6F6D6520 
 226      746F2043 
 226      68696269 
 226      4F532D25 
 227              	.LC2:
 228 0028 322E362E 		.ascii	"2.6.3\000"
 228      3300
 229 002e 0000     		.space	2
 230              	.LC3:
 231 0030 54687265 		.ascii	"Thread Information\015\012\000"
 231      61642049 
 231      6E666F72 
 231      6D617469 
 231      6F6E0D0A 
 232 0045 000000   		.space	3
 233              	.LC4:
 234 0048 54485245 		.ascii	"THREAD NAME\011\011\011THREAD PRIO\011THREAD TICKS\011"
 234      4144204E 
 234      414D4509 
 234      09095448 
 234      52454144 
 235 006f 54485245 		.ascii	"THREAD_STATE\000"
 235      41445F53 
 235      54415445 
 235      00
 236              		.section	.bss.buff,"aw",%nobits
 237              		.align	2
 238              		.set	.LANCHOR1,. + 0
 239              		.type	buff, %object
 240              		.size	buff, 32
 241              	buff:
 242 0000 00000000 		.space	32
 242      00000000 
 242      00000000 
 242      00000000 
 242      00000000 
 243              		.text
 244              	.Letext0:
 245              		.file 3 "/usr/lib/gcc/arm-none-eabi/4.8.2/include/stddef.h"
 246              		.file 4 "/usr/arm-none-eabi/include/machine/_default_types.h"
 247              		.file 5 "/usr/arm-none-eabi/include/stdint.h"
 248              		.file 6 "../../os/ports/GCC/ARMCMx/chtypes.h"
 249              		.file 7 "../../os/kernel/include/chlists.h"
 250              		.file 8 "../../os/kernel/include/chthreads.h"
 251              		.file 9 "../../os/ports/GCC/ARMCMx/chcore_v7m.h"
 252              		.file 10 "../../os/kernel/include/chmtx.h"
 253              		.file 11 "../../os/kernel/include/chevents.h"
 254              		.file 12 "../../os/kernel/include/chqueues.h"
 255              		.file 13 "../../os/kernel/include/chstreams.h"
 256              		.file 14 "../../os/hal/platforms/STM32F4xx/stm32f4xx.h"
 257              		.file 15 "../../os/hal/platforms/STM32/GPIOv2/pal_lld.h"
 258              		.file 16 "../../os/hal/include/serial.h"
ARM GAS  /tmp/cc6nBpmr.s 			page 6


 259              		.file 17 "../../os/hal/platforms/STM32/USARTv1/serial_lld.h"
 260              		.file 18 "/usr/lib/gcc/arm-none-eabi/4.8.2/include/stdarg.h"
 261              		.file 19 "<built-in>"
 262              		.file 20 "../../os/ports/common/ARMCMx/CMSIS/include/core_cm4.h"
 263              		.file 21 "../../os/hal/include/hal.h"
 264              		.file 22 "../../os/kernel/include/chsys.h"
 265              		.file 23 "pretty.h"
 266              		.section	.debug_info,"",%progbits
 267              	.Ldebug_info0:
 268 0000 C00C0000 		.4byte	0xcc0
 269 0004 0400     		.2byte	0x4
 270 0006 00000000 		.4byte	.Ldebug_abbrev0
 271 000a 04       		.byte	0x4
 272 000b 01       		.uleb128 0x1
 273 000c 49000000 		.4byte	.LASF140
 274 0010 01       		.byte	0x1
 275 0011 4B030000 		.4byte	.LASF141
 276 0015 64030000 		.4byte	.LASF142
 277 0019 00000000 		.4byte	.Ldebug_ranges0+0
 278 001d 00000000 		.4byte	0
 279 0021 00000000 		.4byte	.Ldebug_line0
 280 0025 02       		.uleb128 0x2
 281 0026 04       		.byte	0x4
 282 0027 05       		.byte	0x5
 283 0028 696E7400 		.ascii	"int\000"
 284 002c 03       		.uleb128 0x3
 285 002d 09000000 		.4byte	.LASF2
 286 0031 03       		.byte	0x3
 287 0032 D4       		.byte	0xd4
 288 0033 37000000 		.4byte	0x37
 289 0037 04       		.uleb128 0x4
 290 0038 04       		.byte	0x4
 291 0039 07       		.byte	0x7
 292 003a 1E020000 		.4byte	.LASF0
 293 003e 04       		.uleb128 0x4
 294 003f 01       		.byte	0x1
 295 0040 06       		.byte	0x6
 296 0041 44010000 		.4byte	.LASF1
 297 0045 03       		.uleb128 0x3
 298 0046 23000000 		.4byte	.LASF3
 299 004a 04       		.byte	0x4
 300 004b 1C       		.byte	0x1c
 301 004c 50000000 		.4byte	0x50
 302 0050 04       		.uleb128 0x4
 303 0051 01       		.byte	0x1
 304 0052 08       		.byte	0x8
 305 0053 15040000 		.4byte	.LASF4
 306 0057 04       		.uleb128 0x4
 307 0058 02       		.byte	0x2
 308 0059 05       		.byte	0x5
 309 005a 42040000 		.4byte	.LASF5
 310 005e 03       		.uleb128 0x3
 311 005f 1F050000 		.4byte	.LASF6
 312 0063 04       		.byte	0x4
 313 0064 26       		.byte	0x26
 314 0065 69000000 		.4byte	0x69
 315 0069 04       		.uleb128 0x4
ARM GAS  /tmp/cc6nBpmr.s 			page 7


 316 006a 02       		.byte	0x2
 317 006b 07       		.byte	0x7
 318 006c 82020000 		.4byte	.LASF7
 319 0070 03       		.uleb128 0x3
 320 0071 46050000 		.4byte	.LASF8
 321 0075 04       		.byte	0x4
 322 0076 37       		.byte	0x37
 323 0077 7B000000 		.4byte	0x7b
 324 007b 04       		.uleb128 0x4
 325 007c 04       		.byte	0x4
 326 007d 05       		.byte	0x5
 327 007e 8E010000 		.4byte	.LASF9
 328 0082 03       		.uleb128 0x3
 329 0083 D9010000 		.4byte	.LASF10
 330 0087 04       		.byte	0x4
 331 0088 38       		.byte	0x38
 332 0089 8D000000 		.4byte	0x8d
 333 008d 04       		.uleb128 0x4
 334 008e 04       		.byte	0x4
 335 008f 07       		.byte	0x7
 336 0090 FB040000 		.4byte	.LASF11
 337 0094 04       		.uleb128 0x4
 338 0095 08       		.byte	0x8
 339 0096 05       		.byte	0x5
 340 0097 36010000 		.4byte	.LASF12
 341 009b 04       		.uleb128 0x4
 342 009c 08       		.byte	0x8
 343 009d 07       		.byte	0x7
 344 009e EC000000 		.4byte	.LASF13
 345 00a2 03       		.uleb128 0x3
 346 00a3 B5050000 		.4byte	.LASF14
 347 00a7 05       		.byte	0x5
 348 00a8 2A       		.byte	0x2a
 349 00a9 45000000 		.4byte	0x45
 350 00ad 03       		.uleb128 0x3
 351 00ae 2B020000 		.4byte	.LASF15
 352 00b2 05       		.byte	0x5
 353 00b3 36       		.byte	0x36
 354 00b4 5E000000 		.4byte	0x5e
 355 00b8 03       		.uleb128 0x3
 356 00b9 0D040000 		.4byte	.LASF16
 357 00bd 05       		.byte	0x5
 358 00be 41       		.byte	0x41
 359 00bf 70000000 		.4byte	0x70
 360 00c3 03       		.uleb128 0x3
 361 00c4 8E050000 		.4byte	.LASF17
 362 00c8 05       		.byte	0x5
 363 00c9 42       		.byte	0x42
 364 00ca 82000000 		.4byte	0x82
 365 00ce 04       		.uleb128 0x4
 366 00cf 01       		.byte	0x1
 367 00d0 02       		.byte	0x2
 368 00d1 07040000 		.4byte	.LASF18
 369 00d5 03       		.uleb128 0x3
 370 00d6 B7020000 		.4byte	.LASF19
 371 00da 06       		.byte	0x6
 372 00db 2C       		.byte	0x2c
ARM GAS  /tmp/cc6nBpmr.s 			page 8


 373 00dc A2000000 		.4byte	0xa2
 374 00e0 03       		.uleb128 0x3
 375 00e1 97010000 		.4byte	.LASF20
 376 00e5 06       		.byte	0x6
 377 00e6 2D       		.byte	0x2d
 378 00e7 A2000000 		.4byte	0xa2
 379 00eb 03       		.uleb128 0x3
 380 00ec AC030000 		.4byte	.LASF21
 381 00f0 06       		.byte	0x6
 382 00f1 2E       		.byte	0x2e
 383 00f2 A2000000 		.4byte	0xa2
 384 00f6 03       		.uleb128 0x3
 385 00f7 79010000 		.4byte	.LASF22
 386 00fb 06       		.byte	0x6
 387 00fc 2F       		.byte	0x2f
 388 00fd A2000000 		.4byte	0xa2
 389 0101 03       		.uleb128 0x3
 390 0102 F7030000 		.4byte	.LASF23
 391 0106 06       		.byte	0x6
 392 0107 30       		.byte	0x30
 393 0108 C3000000 		.4byte	0xc3
 394 010c 03       		.uleb128 0x3
 395 010d 95020000 		.4byte	.LASF24
 396 0111 06       		.byte	0x6
 397 0112 31       		.byte	0x31
 398 0113 B8000000 		.4byte	0xb8
 399 0117 03       		.uleb128 0x3
 400 0118 CB020000 		.4byte	.LASF25
 401 011c 06       		.byte	0x6
 402 011d 33       		.byte	0x33
 403 011e C3000000 		.4byte	0xc3
 404 0122 03       		.uleb128 0x3
 405 0123 AF040000 		.4byte	.LASF26
 406 0127 06       		.byte	0x6
 407 0128 34       		.byte	0x34
 408 0129 C3000000 		.4byte	0xc3
 409 012d 03       		.uleb128 0x3
 410 012e 31050000 		.4byte	.LASF27
 411 0132 06       		.byte	0x6
 412 0133 35       		.byte	0x35
 413 0134 C3000000 		.4byte	0xc3
 414 0138 03       		.uleb128 0x3
 415 0139 A3040000 		.4byte	.LASF28
 416 013d 07       		.byte	0x7
 417 013e 2A       		.byte	0x2a
 418 013f 43010000 		.4byte	0x143
 419 0143 05       		.uleb128 0x5
 420 0144 A3040000 		.4byte	.LASF28
 421 0148 48       		.byte	0x48
 422 0149 08       		.byte	0x8
 423 014a 5E       		.byte	0x5e
 424 014b 40020000 		.4byte	0x240
 425 014f 06       		.uleb128 0x6
 426 0150 6C040000 		.4byte	.LASF29
 427 0154 08       		.byte	0x8
 428 0155 5F       		.byte	0x5f
 429 0156 61020000 		.4byte	0x261
ARM GAS  /tmp/cc6nBpmr.s 			page 9


 430 015a 00       		.byte	0
 431 015b 06       		.uleb128 0x6
 432 015c E6030000 		.4byte	.LASF30
 433 0160 08       		.byte	0x8
 434 0161 61       		.byte	0x61
 435 0162 61020000 		.4byte	0x261
 436 0166 04       		.byte	0x4
 437 0167 06       		.uleb128 0x6
 438 0168 1F010000 		.4byte	.LASF31
 439 016c 08       		.byte	0x8
 440 016d 63       		.byte	0x63
 441 016e 01010000 		.4byte	0x101
 442 0172 08       		.byte	0x8
 443 0173 06       		.uleb128 0x6
 444 0174 FF050000 		.4byte	.LASF32
 445 0178 08       		.byte	0x8
 446 0179 64       		.byte	0x64
 447 017a 1B030000 		.4byte	0x31b
 448 017e 0C       		.byte	0xc
 449 017f 06       		.uleb128 0x6
 450 0180 C9010000 		.4byte	.LASF33
 451 0184 08       		.byte	0x8
 452 0185 66       		.byte	0x66
 453 0186 61020000 		.4byte	0x261
 454 018a 10       		.byte	0x10
 455 018b 06       		.uleb128 0x6
 456 018c 36030000 		.4byte	.LASF34
 457 0190 08       		.byte	0x8
 458 0191 67       		.byte	0x67
 459 0192 61020000 		.4byte	0x261
 460 0196 14       		.byte	0x14
 461 0197 06       		.uleb128 0x6
 462 0198 9D050000 		.4byte	.LASF35
 463 019c 08       		.byte	0x8
 464 019d 6E       		.byte	0x6e
 465 019e 36040000 		.4byte	0x436
 466 01a2 18       		.byte	0x18
 467 01a3 06       		.uleb128 0x6
 468 01a4 4C040000 		.4byte	.LASF36
 469 01a8 08       		.byte	0x8
 470 01a9 79       		.byte	0x79
 471 01aa E0000000 		.4byte	0xe0
 472 01ae 1C       		.byte	0x1c
 473 01af 06       		.uleb128 0x6
 474 01b0 8B040000 		.4byte	.LASF37
 475 01b4 08       		.byte	0x8
 476 01b5 7D       		.byte	0x7d
 477 01b6 D5000000 		.4byte	0xd5
 478 01ba 1D       		.byte	0x1d
 479 01bb 06       		.uleb128 0x6
 480 01bc AA010000 		.4byte	.LASF38
 481 01c0 08       		.byte	0x8
 482 01c1 82       		.byte	0x82
 483 01c2 EB000000 		.4byte	0xeb
 484 01c6 1E       		.byte	0x1e
 485 01c7 06       		.uleb128 0x6
 486 01c8 54040000 		.4byte	.LASF39
ARM GAS  /tmp/cc6nBpmr.s 			page 10


 487 01cc 08       		.byte	0x8
 488 01cd 88       		.byte	0x88
 489 01ce F6000000 		.4byte	0xf6
 490 01d2 1F       		.byte	0x1f
 491 01d3 06       		.uleb128 0x6
 492 01d4 44020000 		.4byte	.LASF40
 493 01d8 08       		.byte	0x8
 494 01d9 8F       		.byte	0x8f
 495 01da 48030000 		.4byte	0x348
 496 01de 20       		.byte	0x20
 497 01df 07       		.uleb128 0x7
 498 01e0 705F7500 		.ascii	"p_u\000"
 499 01e4 08       		.byte	0x8
 500 01e5 B4       		.byte	0xb4
 501 01e6 01040000 		.4byte	0x401
 502 01ea 24       		.byte	0x24
 503 01eb 06       		.uleb128 0x6
 504 01ec 05060000 		.4byte	.LASF41
 505 01f0 08       		.byte	0x8
 506 01f1 B9       		.byte	0xb9
 507 01f2 87020000 		.4byte	0x287
 508 01f6 28       		.byte	0x28
 509 01f7 06       		.uleb128 0x6
 510 01f8 52020000 		.4byte	.LASF42
 511 01fc 08       		.byte	0x8
 512 01fd BF       		.byte	0xbf
 513 01fe 67020000 		.4byte	0x267
 514 0202 2C       		.byte	0x2c
 515 0203 06       		.uleb128 0x6
 516 0204 E3050000 		.4byte	.LASF43
 517 0208 08       		.byte	0x8
 518 0209 C3       		.byte	0xc3
 519 020a 0C010000 		.4byte	0x10c
 520 020e 34       		.byte	0x34
 521 020f 06       		.uleb128 0x6
 522 0210 BB040000 		.4byte	.LASF44
 523 0214 08       		.byte	0x8
 524 0215 C9       		.byte	0xc9
 525 0216 17010000 		.4byte	0x117
 526 021a 38       		.byte	0x38
 527 021b 06       		.uleb128 0x6
 528 021c 38040000 		.4byte	.LASF45
 529 0220 08       		.byte	0x8
 530 0221 D0       		.byte	0xd0
 531 0222 48040000 		.4byte	0x448
 532 0226 3C       		.byte	0x3c
 533 0227 06       		.uleb128 0x6
 534 0228 3B050000 		.4byte	.LASF46
 535 022c 08       		.byte	0x8
 536 022d D4       		.byte	0xd4
 537 022e 01010000 		.4byte	0x101
 538 0232 40       		.byte	0x40
 539 0233 06       		.uleb128 0x6
 540 0234 64010000 		.4byte	.LASF47
 541 0238 08       		.byte	0x8
 542 0239 DA       		.byte	0xda
 543 023a 9D020000 		.4byte	0x29d
ARM GAS  /tmp/cc6nBpmr.s 			page 11


 544 023e 44       		.byte	0x44
 545 023f 00       		.byte	0
 546 0240 08       		.uleb128 0x8
 547 0241 08       		.byte	0x8
 548 0242 07       		.byte	0x7
 549 0243 61       		.byte	0x61
 550 0244 61020000 		.4byte	0x261
 551 0248 06       		.uleb128 0x6
 552 0249 6C040000 		.4byte	.LASF29
 553 024d 07       		.byte	0x7
 554 024e 62       		.byte	0x62
 555 024f 61020000 		.4byte	0x261
 556 0253 00       		.byte	0
 557 0254 06       		.uleb128 0x6
 558 0255 E6030000 		.4byte	.LASF30
 559 0259 07       		.byte	0x7
 560 025a 64       		.byte	0x64
 561 025b 61020000 		.4byte	0x261
 562 025f 04       		.byte	0x4
 563 0260 00       		.byte	0
 564 0261 09       		.uleb128 0x9
 565 0262 04       		.byte	0x4
 566 0263 38010000 		.4byte	0x138
 567 0267 03       		.uleb128 0x3
 568 0268 3E030000 		.4byte	.LASF48
 569 026c 07       		.byte	0x7
 570 026d 66       		.byte	0x66
 571 026e 40020000 		.4byte	0x240
 572 0272 08       		.uleb128 0x8
 573 0273 04       		.byte	0x4
 574 0274 07       		.byte	0x7
 575 0275 6B       		.byte	0x6b
 576 0276 87020000 		.4byte	0x287
 577 027a 06       		.uleb128 0x6
 578 027b 6C040000 		.4byte	.LASF29
 579 027f 07       		.byte	0x7
 580 0280 6D       		.byte	0x6d
 581 0281 61020000 		.4byte	0x261
 582 0285 00       		.byte	0
 583 0286 00       		.byte	0
 584 0287 03       		.uleb128 0x3
 585 0288 BF020000 		.4byte	.LASF49
 586 028c 07       		.byte	0x7
 587 028d 70       		.byte	0x70
 588 028e 72020000 		.4byte	0x272
 589 0292 03       		.uleb128 0x3
 590 0293 E4010000 		.4byte	.LASF50
 591 0297 09       		.byte	0x9
 592 0298 E5       		.byte	0xe5
 593 0299 9D020000 		.4byte	0x29d
 594 029d 0A       		.uleb128 0xa
 595 029e 04       		.byte	0x4
 596 029f 0B       		.uleb128 0xb
 597 02a0 7E050000 		.4byte	.LASF51
 598 02a4 24       		.byte	0x24
 599 02a5 09       		.byte	0x9
 600 02a6 0C01     		.2byte	0x10c
ARM GAS  /tmp/cc6nBpmr.s 			page 12


 601 02a8 1B030000 		.4byte	0x31b
 602 02ac 0C       		.uleb128 0xc
 603 02ad 723400   		.ascii	"r4\000"
 604 02b0 09       		.byte	0x9
 605 02b1 1F01     		.2byte	0x11f
 606 02b3 92020000 		.4byte	0x292
 607 02b7 00       		.byte	0
 608 02b8 0C       		.uleb128 0xc
 609 02b9 723500   		.ascii	"r5\000"
 610 02bc 09       		.byte	0x9
 611 02bd 2001     		.2byte	0x120
 612 02bf 92020000 		.4byte	0x292
 613 02c3 04       		.byte	0x4
 614 02c4 0C       		.uleb128 0xc
 615 02c5 723600   		.ascii	"r6\000"
 616 02c8 09       		.byte	0x9
 617 02c9 2101     		.2byte	0x121
 618 02cb 92020000 		.4byte	0x292
 619 02cf 08       		.byte	0x8
 620 02d0 0C       		.uleb128 0xc
 621 02d1 723700   		.ascii	"r7\000"
 622 02d4 09       		.byte	0x9
 623 02d5 2201     		.2byte	0x122
 624 02d7 92020000 		.4byte	0x292
 625 02db 0C       		.byte	0xc
 626 02dc 0C       		.uleb128 0xc
 627 02dd 723800   		.ascii	"r8\000"
 628 02e0 09       		.byte	0x9
 629 02e1 2301     		.2byte	0x123
 630 02e3 92020000 		.4byte	0x292
 631 02e7 10       		.byte	0x10
 632 02e8 0C       		.uleb128 0xc
 633 02e9 723900   		.ascii	"r9\000"
 634 02ec 09       		.byte	0x9
 635 02ed 2401     		.2byte	0x124
 636 02ef 92020000 		.4byte	0x292
 637 02f3 14       		.byte	0x14
 638 02f4 0C       		.uleb128 0xc
 639 02f5 72313000 		.ascii	"r10\000"
 640 02f9 09       		.byte	0x9
 641 02fa 2501     		.2byte	0x125
 642 02fc 92020000 		.4byte	0x292
 643 0300 18       		.byte	0x18
 644 0301 0C       		.uleb128 0xc
 645 0302 72313100 		.ascii	"r11\000"
 646 0306 09       		.byte	0x9
 647 0307 2601     		.2byte	0x126
 648 0309 92020000 		.4byte	0x292
 649 030d 1C       		.byte	0x1c
 650 030e 0C       		.uleb128 0xc
 651 030f 6C7200   		.ascii	"lr\000"
 652 0312 09       		.byte	0x9
 653 0313 2701     		.2byte	0x127
 654 0315 92020000 		.4byte	0x292
 655 0319 20       		.byte	0x20
 656 031a 00       		.byte	0
 657 031b 0B       		.uleb128 0xb
ARM GAS  /tmp/cc6nBpmr.s 			page 13


 658 031c 60050000 		.4byte	.LASF52
 659 0320 04       		.byte	0x4
 660 0321 09       		.byte	0x9
 661 0322 3101     		.2byte	0x131
 662 0324 36030000 		.4byte	0x336
 663 0328 0C       		.uleb128 0xc
 664 0329 72313300 		.ascii	"r13\000"
 665 032d 09       		.byte	0x9
 666 032e 3201     		.2byte	0x132
 667 0330 36030000 		.4byte	0x336
 668 0334 00       		.byte	0
 669 0335 00       		.byte	0
 670 0336 09       		.uleb128 0x9
 671 0337 04       		.byte	0x4
 672 0338 9F020000 		.4byte	0x29f
 673 033c 0D       		.uleb128 0xd
 674 033d C3000000 		.4byte	0xc3
 675 0341 04       		.uleb128 0x4
 676 0342 04       		.byte	0x4
 677 0343 07       		.byte	0x7
 678 0344 0A030000 		.4byte	.LASF53
 679 0348 0D       		.uleb128 0xd
 680 0349 2D010000 		.4byte	0x12d
 681 034d 05       		.uleb128 0x5
 682 034e 19030000 		.4byte	.LASF54
 683 0352 10       		.byte	0x10
 684 0353 0A       		.byte	0xa
 685 0354 2C       		.byte	0x2c
 686 0355 7E030000 		.4byte	0x37e
 687 0359 06       		.uleb128 0x6
 688 035a 6C010000 		.4byte	.LASF55
 689 035e 0A       		.byte	0xa
 690 035f 2D       		.byte	0x2d
 691 0360 67020000 		.4byte	0x267
 692 0364 00       		.byte	0
 693 0365 06       		.uleb128 0x6
 694 0366 F7050000 		.4byte	.LASF56
 695 036a 0A       		.byte	0xa
 696 036b 2F       		.byte	0x2f
 697 036c 61020000 		.4byte	0x261
 698 0370 08       		.byte	0x8
 699 0371 06       		.uleb128 0x6
 700 0372 2A050000 		.4byte	.LASF57
 701 0376 0A       		.byte	0xa
 702 0377 31       		.byte	0x31
 703 0378 7E030000 		.4byte	0x37e
 704 037c 0C       		.byte	0xc
 705 037d 00       		.byte	0
 706 037e 09       		.uleb128 0x9
 707 037f 04       		.byte	0x4
 708 0380 4D030000 		.4byte	0x34d
 709 0384 03       		.uleb128 0x3
 710 0385 19030000 		.4byte	.LASF54
 711 0389 0A       		.byte	0xa
 712 038a 33       		.byte	0x33
 713 038b 4D030000 		.4byte	0x34d
 714 038f 03       		.uleb128 0x3
ARM GAS  /tmp/cc6nBpmr.s 			page 14


 715 0390 C7050000 		.4byte	.LASF58
 716 0394 0B       		.byte	0xb
 717 0395 2C       		.byte	0x2c
 718 0396 9A030000 		.4byte	0x39a
 719 039a 05       		.uleb128 0x5
 720 039b C7050000 		.4byte	.LASF58
 721 039f 10       		.byte	0x10
 722 03a0 0B       		.byte	0xb
 723 03a1 31       		.byte	0x31
 724 03a2 D7030000 		.4byte	0x3d7
 725 03a6 06       		.uleb128 0x6
 726 03a7 93040000 		.4byte	.LASF59
 727 03ab 0B       		.byte	0xb
 728 03ac 32       		.byte	0x32
 729 03ad D7030000 		.4byte	0x3d7
 730 03b1 00       		.byte	0
 731 03b2 06       		.uleb128 0x6
 732 03b3 23040000 		.4byte	.LASF60
 733 03b7 0B       		.byte	0xb
 734 03b8 35       		.byte	0x35
 735 03b9 61020000 		.4byte	0x261
 736 03bd 04       		.byte	0x4
 737 03be 06       		.uleb128 0x6
 738 03bf 2E030000 		.4byte	.LASF61
 739 03c3 0B       		.byte	0xb
 740 03c4 37       		.byte	0x37
 741 03c5 17010000 		.4byte	0x117
 742 03c9 08       		.byte	0x8
 743 03ca 06       		.uleb128 0x6
 744 03cb 2F040000 		.4byte	.LASF62
 745 03cf 0B       		.byte	0xb
 746 03d0 3A       		.byte	0x3a
 747 03d1 22010000 		.4byte	0x122
 748 03d5 0C       		.byte	0xc
 749 03d6 00       		.byte	0
 750 03d7 09       		.uleb128 0x9
 751 03d8 04       		.byte	0x4
 752 03d9 8F030000 		.4byte	0x38f
 753 03dd 05       		.uleb128 0x5
 754 03de F7010000 		.4byte	.LASF63
 755 03e2 04       		.byte	0x4
 756 03e3 0B       		.byte	0xb
 757 03e4 41       		.byte	0x41
 758 03e5 F6030000 		.4byte	0x3f6
 759 03e9 06       		.uleb128 0x6
 760 03ea A4050000 		.4byte	.LASF64
 761 03ee 0B       		.byte	0xb
 762 03ef 42       		.byte	0x42
 763 03f0 D7030000 		.4byte	0x3d7
 764 03f4 00       		.byte	0
 765 03f5 00       		.byte	0
 766 03f6 03       		.uleb128 0x3
 767 03f7 F7010000 		.4byte	.LASF63
 768 03fb 0B       		.byte	0xb
 769 03fc 45       		.byte	0x45
 770 03fd DD030000 		.4byte	0x3dd
 771 0401 0E       		.uleb128 0xe
ARM GAS  /tmp/cc6nBpmr.s 			page 15


 772 0402 04       		.byte	0x4
 773 0403 08       		.byte	0x8
 774 0404 96       		.byte	0x96
 775 0405 36040000 		.4byte	0x436
 776 0409 0F       		.uleb128 0xf
 777 040a 10000000 		.4byte	.LASF65
 778 040e 08       		.byte	0x8
 779 040f 9D       		.byte	0x9d
 780 0410 0C010000 		.4byte	0x10c
 781 0414 0F       		.uleb128 0xf
 782 0415 09010000 		.4byte	.LASF66
 783 0419 08       		.byte	0x8
 784 041a A4       		.byte	0xa4
 785 041b 0C010000 		.4byte	0x10c
 786 041f 0F       		.uleb128 0xf
 787 0420 D5050000 		.4byte	.LASF67
 788 0424 08       		.byte	0x8
 789 0425 AB       		.byte	0xab
 790 0426 9D020000 		.4byte	0x29d
 791 042a 0F       		.uleb128 0xf
 792 042b 65040000 		.4byte	.LASF68
 793 042f 08       		.byte	0x8
 794 0430 B2       		.byte	0xb2
 795 0431 17010000 		.4byte	0x117
 796 0435 00       		.byte	0
 797 0436 09       		.uleb128 0x9
 798 0437 04       		.byte	0x4
 799 0438 3C040000 		.4byte	0x43c
 800 043c 10       		.uleb128 0x10
 801 043d 41040000 		.4byte	0x441
 802 0441 04       		.uleb128 0x4
 803 0442 01       		.byte	0x1
 804 0443 08       		.byte	0x8
 805 0444 12050000 		.4byte	.LASF69
 806 0448 09       		.uleb128 0x9
 807 0449 04       		.byte	0x4
 808 044a 84030000 		.4byte	0x384
 809 044e 09       		.uleb128 0x9
 810 044f 04       		.byte	0x4
 811 0450 54040000 		.4byte	0x454
 812 0454 11       		.uleb128 0x11
 813 0455 0C010000 		.4byte	0x10c
 814 0459 63040000 		.4byte	0x463
 815 045d 12       		.uleb128 0x12
 816 045e 9D020000 		.4byte	0x29d
 817 0462 00       		.byte	0
 818 0463 03       		.uleb128 0x3
 819 0464 F2020000 		.4byte	.LASF70
 820 0468 0C       		.byte	0xc
 821 0469 37       		.byte	0x37
 822 046a 6E040000 		.4byte	0x46e
 823 046e 05       		.uleb128 0x5
 824 046f F2020000 		.4byte	.LASF70
 825 0473 24       		.byte	0x24
 826 0474 0C       		.byte	0xc
 827 0475 45       		.byte	0x45
 828 0476 DB040000 		.4byte	0x4db
ARM GAS  /tmp/cc6nBpmr.s 			page 16


 829 047a 06       		.uleb128 0x6
 830 047b 2C010000 		.4byte	.LASF71
 831 047f 0C       		.byte	0xc
 832 0480 46       		.byte	0x46
 833 0481 67020000 		.4byte	0x267
 834 0485 00       		.byte	0
 835 0486 06       		.uleb128 0x6
 836 0487 DA040000 		.4byte	.LASF72
 837 048b 0C       		.byte	0xc
 838 048c 47       		.byte	0x47
 839 048d 2C000000 		.4byte	0x2c
 840 0491 08       		.byte	0x8
 841 0492 06       		.uleb128 0x6
 842 0493 B1010000 		.4byte	.LASF73
 843 0497 0C       		.byte	0xc
 844 0498 48       		.byte	0x48
 845 0499 FD040000 		.4byte	0x4fd
 846 049d 0C       		.byte	0xc
 847 049e 06       		.uleb128 0x6
 848 049f 97050000 		.4byte	.LASF74
 849 04a3 0C       		.byte	0xc
 850 04a4 49       		.byte	0x49
 851 04a5 FD040000 		.4byte	0x4fd
 852 04a9 10       		.byte	0x10
 853 04aa 06       		.uleb128 0x6
 854 04ab BA010000 		.4byte	.LASF75
 855 04af 0C       		.byte	0xc
 856 04b0 4B       		.byte	0x4b
 857 04b1 FD040000 		.4byte	0x4fd
 858 04b5 14       		.byte	0x14
 859 04b6 06       		.uleb128 0x6
 860 04b7 FF030000 		.4byte	.LASF76
 861 04bb 0C       		.byte	0xc
 862 04bc 4C       		.byte	0x4c
 863 04bd FD040000 		.4byte	0x4fd
 864 04c1 18       		.byte	0x18
 865 04c2 06       		.uleb128 0x6
 866 04c3 AC050000 		.4byte	.LASF77
 867 04c7 0C       		.byte	0xc
 868 04c8 4D       		.byte	0x4d
 869 04c9 DB040000 		.4byte	0x4db
 870 04cd 1C       		.byte	0x1c
 871 04ce 06       		.uleb128 0x6
 872 04cf C2010000 		.4byte	.LASF78
 873 04d3 0C       		.byte	0xc
 874 04d4 4E       		.byte	0x4e
 875 04d5 9D020000 		.4byte	0x29d
 876 04d9 20       		.byte	0x20
 877 04da 00       		.byte	0
 878 04db 03       		.uleb128 0x3
 879 04dc E8020000 		.4byte	.LASF79
 880 04e0 0C       		.byte	0xc
 881 04e1 3A       		.byte	0x3a
 882 04e2 E6040000 		.4byte	0x4e6
 883 04e6 09       		.uleb128 0x9
 884 04e7 04       		.byte	0x4
 885 04e8 EC040000 		.4byte	0x4ec
ARM GAS  /tmp/cc6nBpmr.s 			page 17


 886 04ec 13       		.uleb128 0x13
 887 04ed F7040000 		.4byte	0x4f7
 888 04f1 12       		.uleb128 0x12
 889 04f2 F7040000 		.4byte	0x4f7
 890 04f6 00       		.byte	0
 891 04f7 09       		.uleb128 0x9
 892 04f8 04       		.byte	0x4
 893 04f9 63040000 		.4byte	0x463
 894 04fd 09       		.uleb128 0x9
 895 04fe 04       		.byte	0x4
 896 04ff A2000000 		.4byte	0xa2
 897 0503 03       		.uleb128 0x3
 898 0504 D7020000 		.4byte	.LASF80
 899 0508 0C       		.byte	0xc
 900 0509 82       		.byte	0x82
 901 050a 63040000 		.4byte	0x463
 902 050e 03       		.uleb128 0x3
 903 050f 17000000 		.4byte	.LASF81
 904 0513 0C       		.byte	0xc
 905 0514 F5       		.byte	0xf5
 906 0515 63040000 		.4byte	0x463
 907 0519 05       		.uleb128 0x5
 908 051a 73040000 		.4byte	.LASF82
 909 051e 10       		.byte	0x10
 910 051f 0D       		.byte	0xd
 911 0520 48       		.byte	0x48
 912 0521 56050000 		.4byte	0x556
 913 0525 06       		.uleb128 0x6
 914 0526 FF020000 		.4byte	.LASF83
 915 052a 0D       		.byte	0xd
 916 052b 49       		.byte	0x49
 917 052c 7A050000 		.4byte	0x57a
 918 0530 00       		.byte	0
 919 0531 06       		.uleb128 0x6
 920 0532 0D050000 		.4byte	.LASF84
 921 0536 0D       		.byte	0xd
 922 0537 49       		.byte	0x49
 923 0538 99050000 		.4byte	0x599
 924 053c 04       		.byte	0x4
 925 053d 07       		.uleb128 0x7
 926 053e 70757400 		.ascii	"put\000"
 927 0542 0D       		.byte	0xd
 928 0543 49       		.byte	0x49
 929 0544 B3050000 		.4byte	0x5b3
 930 0548 08       		.byte	0x8
 931 0549 07       		.uleb128 0x7
 932 054a 67657400 		.ascii	"get\000"
 933 054e 0D       		.byte	0xd
 934 054f 49       		.byte	0x49
 935 0550 4E040000 		.4byte	0x44e
 936 0554 0C       		.byte	0xc
 937 0555 00       		.byte	0
 938 0556 11       		.uleb128 0x11
 939 0557 2C000000 		.4byte	0x2c
 940 055b 6F050000 		.4byte	0x56f
 941 055f 12       		.uleb128 0x12
 942 0560 9D020000 		.4byte	0x29d
ARM GAS  /tmp/cc6nBpmr.s 			page 18


 943 0564 12       		.uleb128 0x12
 944 0565 6F050000 		.4byte	0x56f
 945 0569 12       		.uleb128 0x12
 946 056a 2C000000 		.4byte	0x2c
 947 056e 00       		.byte	0
 948 056f 09       		.uleb128 0x9
 949 0570 04       		.byte	0x4
 950 0571 75050000 		.4byte	0x575
 951 0575 10       		.uleb128 0x10
 952 0576 A2000000 		.4byte	0xa2
 953 057a 09       		.uleb128 0x9
 954 057b 04       		.byte	0x4
 955 057c 56050000 		.4byte	0x556
 956 0580 11       		.uleb128 0x11
 957 0581 2C000000 		.4byte	0x2c
 958 0585 99050000 		.4byte	0x599
 959 0589 12       		.uleb128 0x12
 960 058a 9D020000 		.4byte	0x29d
 961 058e 12       		.uleb128 0x12
 962 058f FD040000 		.4byte	0x4fd
 963 0593 12       		.uleb128 0x12
 964 0594 2C000000 		.4byte	0x2c
 965 0598 00       		.byte	0
 966 0599 09       		.uleb128 0x9
 967 059a 04       		.byte	0x4
 968 059b 80050000 		.4byte	0x580
 969 059f 11       		.uleb128 0x11
 970 05a0 0C010000 		.4byte	0x10c
 971 05a4 B3050000 		.4byte	0x5b3
 972 05a8 12       		.uleb128 0x12
 973 05a9 9D020000 		.4byte	0x29d
 974 05ad 12       		.uleb128 0x12
 975 05ae A2000000 		.4byte	0xa2
 976 05b2 00       		.byte	0
 977 05b3 09       		.uleb128 0x9
 978 05b4 04       		.byte	0x4
 979 05b5 9F050000 		.4byte	0x59f
 980 05b9 08       		.uleb128 0x8
 981 05ba 04       		.byte	0x4
 982 05bb 0D       		.byte	0xd
 983 05bc 51       		.byte	0x51
 984 05bd CE050000 		.4byte	0x5ce
 985 05c1 07       		.uleb128 0x7
 986 05c2 766D7400 		.ascii	"vmt\000"
 987 05c6 0D       		.byte	0xd
 988 05c7 53       		.byte	0x53
 989 05c8 CE050000 		.4byte	0x5ce
 990 05cc 00       		.byte	0
 991 05cd 00       		.byte	0
 992 05ce 09       		.uleb128 0x9
 993 05cf 04       		.byte	0x4
 994 05d0 D4050000 		.4byte	0x5d4
 995 05d4 10       		.uleb128 0x10
 996 05d5 19050000 		.4byte	0x519
 997 05d9 03       		.uleb128 0x3
 998 05da 03020000 		.4byte	.LASF85
 999 05de 0D       		.byte	0xd
ARM GAS  /tmp/cc6nBpmr.s 			page 19


 1000 05df 55       		.byte	0x55
 1001 05e0 B9050000 		.4byte	0x5b9
 1002 05e4 0D       		.uleb128 0xd
 1003 05e5 AD000000 		.4byte	0xad
 1004 05e9 0D       		.uleb128 0xd
 1005 05ea B8000000 		.4byte	0xb8
 1006 05ee 14       		.uleb128 0x14
 1007 05ef 1C       		.byte	0x1c
 1008 05f0 0E       		.byte	0xe
 1009 05f1 2905     		.2byte	0x529
 1010 05f3 AC060000 		.4byte	0x6ac
 1011 05f7 0C       		.uleb128 0xc
 1012 05f8 535200   		.ascii	"SR\000"
 1013 05fb 0E       		.byte	0xe
 1014 05fc 2B05     		.2byte	0x52b
 1015 05fe E4050000 		.4byte	0x5e4
 1016 0602 00       		.byte	0
 1017 0603 15       		.uleb128 0x15
 1018 0604 B4030000 		.4byte	.LASF86
 1019 0608 0E       		.byte	0xe
 1020 0609 2C05     		.2byte	0x52c
 1021 060b AD000000 		.4byte	0xad
 1022 060f 02       		.byte	0x2
 1023 0610 0C       		.uleb128 0xc
 1024 0611 445200   		.ascii	"DR\000"
 1025 0614 0E       		.byte	0xe
 1026 0615 2D05     		.2byte	0x52d
 1027 0617 E4050000 		.4byte	0x5e4
 1028 061b 04       		.byte	0x4
 1029 061c 15       		.uleb128 0x15
 1030 061d BE030000 		.4byte	.LASF87
 1031 0621 0E       		.byte	0xe
 1032 0622 2E05     		.2byte	0x52e
 1033 0624 AD000000 		.4byte	0xad
 1034 0628 06       		.byte	0x6
 1035 0629 0C       		.uleb128 0xc
 1036 062a 42525200 		.ascii	"BRR\000"
 1037 062e 0E       		.byte	0xe
 1038 062f 2F05     		.2byte	0x52f
 1039 0631 E4050000 		.4byte	0x5e4
 1040 0635 08       		.byte	0x8
 1041 0636 15       		.uleb128 0x15
 1042 0637 C8030000 		.4byte	.LASF88
 1043 063b 0E       		.byte	0xe
 1044 063c 3005     		.2byte	0x530
 1045 063e AD000000 		.4byte	0xad
 1046 0642 0A       		.byte	0xa
 1047 0643 0C       		.uleb128 0xc
 1048 0644 43523100 		.ascii	"CR1\000"
 1049 0648 0E       		.byte	0xe
 1050 0649 3105     		.2byte	0x531
 1051 064b E4050000 		.4byte	0x5e4
 1052 064f 0C       		.byte	0xc
 1053 0650 15       		.uleb128 0x15
 1054 0651 D2030000 		.4byte	.LASF89
 1055 0655 0E       		.byte	0xe
 1056 0656 3205     		.2byte	0x532
ARM GAS  /tmp/cc6nBpmr.s 			page 20


 1057 0658 AD000000 		.4byte	0xad
 1058 065c 0E       		.byte	0xe
 1059 065d 0C       		.uleb128 0xc
 1060 065e 43523200 		.ascii	"CR2\000"
 1061 0662 0E       		.byte	0xe
 1062 0663 3305     		.2byte	0x533
 1063 0665 E4050000 		.4byte	0x5e4
 1064 0669 10       		.byte	0x10
 1065 066a 15       		.uleb128 0x15
 1066 066b DC030000 		.4byte	.LASF90
 1067 066f 0E       		.byte	0xe
 1068 0670 3405     		.2byte	0x534
 1069 0672 AD000000 		.4byte	0xad
 1070 0676 12       		.byte	0x12
 1071 0677 0C       		.uleb128 0xc
 1072 0678 43523300 		.ascii	"CR3\000"
 1073 067c 0E       		.byte	0xe
 1074 067d 3505     		.2byte	0x535
 1075 067f E4050000 		.4byte	0x5e4
 1076 0683 14       		.byte	0x14
 1077 0684 15       		.uleb128 0x15
 1078 0685 D0040000 		.4byte	.LASF91
 1079 0689 0E       		.byte	0xe
 1080 068a 3605     		.2byte	0x536
 1081 068c AD000000 		.4byte	0xad
 1082 0690 16       		.byte	0x16
 1083 0691 15       		.uleb128 0x15
 1084 0692 5F010000 		.4byte	.LASF92
 1085 0696 0E       		.byte	0xe
 1086 0697 3705     		.2byte	0x537
 1087 0699 E4050000 		.4byte	0x5e4
 1088 069d 18       		.byte	0x18
 1089 069e 15       		.uleb128 0x15
 1090 069f ED030000 		.4byte	.LASF93
 1091 06a3 0E       		.byte	0xe
 1092 06a4 3805     		.2byte	0x538
 1093 06a6 AD000000 		.4byte	0xad
 1094 06aa 1A       		.byte	0x1a
 1095 06ab 00       		.byte	0
 1096 06ac 16       		.uleb128 0x16
 1097 06ad A2020000 		.4byte	.LASF94
 1098 06b1 0E       		.byte	0xe
 1099 06b2 3905     		.2byte	0x539
 1100 06b4 EE050000 		.4byte	0x5ee
 1101 06b8 11       		.uleb128 0x11
 1102 06b9 0C010000 		.4byte	0x10c
 1103 06bd D1060000 		.4byte	0x6d1
 1104 06c1 12       		.uleb128 0x12
 1105 06c2 9D020000 		.4byte	0x29d
 1106 06c6 12       		.uleb128 0x12
 1107 06c7 A2000000 		.4byte	0xa2
 1108 06cb 12       		.uleb128 0x12
 1109 06cc 2D010000 		.4byte	0x12d
 1110 06d0 00       		.byte	0
 1111 06d1 09       		.uleb128 0x9
 1112 06d2 04       		.byte	0x4
 1113 06d3 B8060000 		.4byte	0x6b8
ARM GAS  /tmp/cc6nBpmr.s 			page 21


 1114 06d7 11       		.uleb128 0x11
 1115 06d8 0C010000 		.4byte	0x10c
 1116 06dc EB060000 		.4byte	0x6eb
 1117 06e0 12       		.uleb128 0x12
 1118 06e1 9D020000 		.4byte	0x29d
 1119 06e5 12       		.uleb128 0x12
 1120 06e6 2D010000 		.4byte	0x12d
 1121 06ea 00       		.byte	0
 1122 06eb 09       		.uleb128 0x9
 1123 06ec 04       		.byte	0x4
 1124 06ed D7060000 		.4byte	0x6d7
 1125 06f1 11       		.uleb128 0x11
 1126 06f2 2C000000 		.4byte	0x2c
 1127 06f6 0F070000 		.4byte	0x70f
 1128 06fa 12       		.uleb128 0x12
 1129 06fb 9D020000 		.4byte	0x29d
 1130 06ff 12       		.uleb128 0x12
 1131 0700 6F050000 		.4byte	0x56f
 1132 0704 12       		.uleb128 0x12
 1133 0705 2C000000 		.4byte	0x2c
 1134 0709 12       		.uleb128 0x12
 1135 070a 2D010000 		.4byte	0x12d
 1136 070e 00       		.byte	0
 1137 070f 09       		.uleb128 0x9
 1138 0710 04       		.byte	0x4
 1139 0711 F1060000 		.4byte	0x6f1
 1140 0715 11       		.uleb128 0x11
 1141 0716 2C000000 		.4byte	0x2c
 1142 071a 33070000 		.4byte	0x733
 1143 071e 12       		.uleb128 0x12
 1144 071f 9D020000 		.4byte	0x29d
 1145 0723 12       		.uleb128 0x12
 1146 0724 FD040000 		.4byte	0x4fd
 1147 0728 12       		.uleb128 0x12
 1148 0729 2C000000 		.4byte	0x2c
 1149 072d 12       		.uleb128 0x12
 1150 072e 2D010000 		.4byte	0x12d
 1151 0732 00       		.byte	0
 1152 0733 09       		.uleb128 0x9
 1153 0734 04       		.byte	0x4
 1154 0735 15070000 		.4byte	0x715
 1155 0739 08       		.uleb128 0x8
 1156 073a 04       		.byte	0x4
 1157 073b 0F       		.byte	0xf
 1158 073c 96       		.byte	0x96
 1159 073d 5A070000 		.4byte	0x75a
 1160 0741 07       		.uleb128 0x7
 1161 0742 73657400 		.ascii	"set\000"
 1162 0746 0F       		.byte	0xf
 1163 0747 97       		.byte	0x97
 1164 0748 AD000000 		.4byte	0xad
 1165 074c 00       		.byte	0
 1166 074d 06       		.uleb128 0x6
 1167 074e 13030000 		.4byte	.LASF95
 1168 0752 0F       		.byte	0xf
 1169 0753 98       		.byte	0x98
 1170 0754 AD000000 		.4byte	0xad
ARM GAS  /tmp/cc6nBpmr.s 			page 22


 1171 0758 02       		.byte	0x2
 1172 0759 00       		.byte	0
 1173 075a 0E       		.uleb128 0xe
 1174 075b 04       		.byte	0x4
 1175 075c 0F       		.byte	0xf
 1176 075d 94       		.byte	0x94
 1177 075e 75070000 		.4byte	0x775
 1178 0762 17       		.uleb128 0x17
 1179 0763 5700     		.ascii	"W\000"
 1180 0765 0F       		.byte	0xf
 1181 0766 95       		.byte	0x95
 1182 0767 C3000000 		.4byte	0xc3
 1183 076b 17       		.uleb128 0x17
 1184 076c 4800     		.ascii	"H\000"
 1185 076e 0F       		.byte	0xf
 1186 076f 99       		.byte	0x99
 1187 0770 39070000 		.4byte	0x739
 1188 0774 00       		.byte	0
 1189 0775 08       		.uleb128 0x8
 1190 0776 28       		.byte	0x28
 1191 0777 0F       		.byte	0xf
 1192 0778 8C       		.byte	0x8c
 1193 0779 F6070000 		.4byte	0x7f6
 1194 077d 06       		.uleb128 0x6
 1195 077e E6000000 		.4byte	.LASF96
 1196 0782 0F       		.byte	0xf
 1197 0783 8E       		.byte	0x8e
 1198 0784 3C030000 		.4byte	0x33c
 1199 0788 00       		.byte	0
 1200 0789 06       		.uleb128 0x6
 1201 078a 2D000000 		.4byte	.LASF97
 1202 078e 0F       		.byte	0xf
 1203 078f 8F       		.byte	0x8f
 1204 0790 3C030000 		.4byte	0x33c
 1205 0794 04       		.byte	0x4
 1206 0795 06       		.uleb128 0x6
 1207 0796 D1010000 		.4byte	.LASF98
 1208 079a 0F       		.byte	0xf
 1209 079b 90       		.byte	0x90
 1210 079c 3C030000 		.4byte	0x33c
 1211 07a0 08       		.byte	0x8
 1212 07a1 06       		.uleb128 0x6
 1213 07a2 03010000 		.4byte	.LASF99
 1214 07a6 0F       		.byte	0xf
 1215 07a7 91       		.byte	0x91
 1216 07a8 3C030000 		.4byte	0x33c
 1217 07ac 0C       		.byte	0xc
 1218 07ad 07       		.uleb128 0x7
 1219 07ae 49445200 		.ascii	"IDR\000"
 1220 07b2 0F       		.byte	0xf
 1221 07b3 92       		.byte	0x92
 1222 07b4 3C030000 		.4byte	0x33c
 1223 07b8 10       		.byte	0x10
 1224 07b9 07       		.uleb128 0x7
 1225 07ba 4F445200 		.ascii	"ODR\000"
 1226 07be 0F       		.byte	0xf
 1227 07bf 93       		.byte	0x93
ARM GAS  /tmp/cc6nBpmr.s 			page 23


 1228 07c0 3C030000 		.4byte	0x33c
 1229 07c4 14       		.byte	0x14
 1230 07c5 06       		.uleb128 0x6
 1231 07c6 50010000 		.4byte	.LASF100
 1232 07ca 0F       		.byte	0xf
 1233 07cb 9A       		.byte	0x9a
 1234 07cc F6070000 		.4byte	0x7f6
 1235 07d0 18       		.byte	0x18
 1236 07d1 06       		.uleb128 0x6
 1237 07d2 AA040000 		.4byte	.LASF101
 1238 07d6 0F       		.byte	0xf
 1239 07d7 9B       		.byte	0x9b
 1240 07d8 3C030000 		.4byte	0x33c
 1241 07dc 1C       		.byte	0x1c
 1242 07dd 06       		.uleb128 0x6
 1243 07de 5F030000 		.4byte	.LASF102
 1244 07e2 0F       		.byte	0xf
 1245 07e3 9C       		.byte	0x9c
 1246 07e4 3C030000 		.4byte	0x33c
 1247 07e8 20       		.byte	0x20
 1248 07e9 06       		.uleb128 0x6
 1249 07ea 72020000 		.4byte	.LASF103
 1250 07ee 0F       		.byte	0xf
 1251 07ef 9D       		.byte	0x9d
 1252 07f0 3C030000 		.4byte	0x33c
 1253 07f4 24       		.byte	0x24
 1254 07f5 00       		.byte	0
 1255 07f6 0D       		.uleb128 0xd
 1256 07f7 5A070000 		.4byte	0x75a
 1257 07fb 03       		.uleb128 0x3
 1258 07fc 5D020000 		.4byte	.LASF104
 1259 0800 0F       		.byte	0xf
 1260 0801 9E       		.byte	0x9e
 1261 0802 75070000 		.4byte	0x775
 1262 0806 03       		.uleb128 0x3
 1263 0807 3C000000 		.4byte	.LASF105
 1264 080b 0F       		.byte	0xf
 1265 080c F0       		.byte	0xf0
 1266 080d C3000000 		.4byte	0xc3
 1267 0811 03       		.uleb128 0x3
 1268 0812 EE050000 		.4byte	.LASF106
 1269 0816 0F       		.byte	0xf
 1270 0817 F5       		.byte	0xf5
 1271 0818 C3000000 		.4byte	0xc3
 1272 081c 03       		.uleb128 0x3
 1273 081d 50050000 		.4byte	.LASF107
 1274 0821 0F       		.byte	0xf
 1275 0822 FD       		.byte	0xfd
 1276 0823 27080000 		.4byte	0x827
 1277 0827 09       		.uleb128 0x9
 1278 0828 04       		.byte	0x4
 1279 0829 FB070000 		.4byte	0x7fb
 1280 082d 18       		.uleb128 0x18
 1281 082e 01       		.byte	0x1
 1282 082f 10       		.byte	0x10
 1283 0830 64       		.byte	0x64
 1284 0831 48080000 		.4byte	0x848
ARM GAS  /tmp/cc6nBpmr.s 			page 24


 1285 0835 19       		.uleb128 0x19
 1286 0836 C6040000 		.4byte	.LASF108
 1287 083a 00       		.sleb128 0
 1288 083b 19       		.uleb128 0x19
 1289 083c 9B040000 		.4byte	.LASF109
 1290 0840 01       		.sleb128 1
 1291 0841 19       		.uleb128 0x19
 1292 0842 85050000 		.4byte	.LASF110
 1293 0846 02       		.sleb128 2
 1294 0847 00       		.byte	0
 1295 0848 03       		.uleb128 0x3
 1296 0849 E4040000 		.4byte	.LASF111
 1297 084d 10       		.byte	0x10
 1298 084e 68       		.byte	0x68
 1299 084f 2D080000 		.4byte	0x82d
 1300 0853 03       		.uleb128 0x3
 1301 0854 EE040000 		.4byte	.LASF112
 1302 0858 10       		.byte	0x10
 1303 0859 6D       		.byte	0x6d
 1304 085a 5E080000 		.4byte	0x85e
 1305 085e 05       		.uleb128 0x5
 1306 085f EE040000 		.4byte	.LASF112
 1307 0863 78       		.byte	0x78
 1308 0864 10       		.byte	0x10
 1309 0865 87       		.byte	0x87
 1310 0866 C9080000 		.4byte	0x8c9
 1311 086a 07       		.uleb128 0x7
 1312 086b 766D7400 		.ascii	"vmt\000"
 1313 086f 10       		.byte	0x10
 1314 0870 89       		.byte	0x89
 1315 0871 7A090000 		.4byte	0x97a
 1316 0875 00       		.byte	0
 1317 0876 06       		.uleb128 0x6
 1318 0877 7C020000 		.4byte	.LASF113
 1319 087b 10       		.byte	0x10
 1320 087c 8A       		.byte	0x8a
 1321 087d F6030000 		.4byte	0x3f6
 1322 0881 04       		.byte	0x4
 1323 0882 06       		.uleb128 0x6
 1324 0883 88010000 		.4byte	.LASF114
 1325 0887 10       		.byte	0x10
 1326 0888 8A       		.byte	0x8a
 1327 0889 48080000 		.4byte	0x848
 1328 088d 08       		.byte	0x8
 1329 088e 06       		.uleb128 0x6
 1330 088f 4B020000 		.4byte	.LASF115
 1331 0893 10       		.byte	0x10
 1332 0894 8A       		.byte	0x8a
 1333 0895 03050000 		.4byte	0x503
 1334 0899 0C       		.byte	0xc
 1335 089a 06       		.uleb128 0x6
 1336 089b 9B020000 		.4byte	.LASF116
 1337 089f 10       		.byte	0x10
 1338 08a0 8A       		.byte	0x8a
 1339 08a1 0E050000 		.4byte	0x50e
 1340 08a5 30       		.byte	0x30
 1341 08a6 07       		.uleb128 0x7
ARM GAS  /tmp/cc6nBpmr.s 			page 25


 1342 08a7 696200   		.ascii	"ib\000"
 1343 08aa 10       		.byte	0x10
 1344 08ab 8A       		.byte	0x8a
 1345 08ac 85090000 		.4byte	0x985
 1346 08b0 54       		.byte	0x54
 1347 08b1 07       		.uleb128 0x7
 1348 08b2 6F6200   		.ascii	"ob\000"
 1349 08b5 10       		.byte	0x10
 1350 08b6 8A       		.byte	0x8a
 1351 08b7 85090000 		.4byte	0x985
 1352 08bb 64       		.byte	0x64
 1353 08bc 06       		.uleb128 0x6
 1354 08bd 18020000 		.4byte	.LASF117
 1355 08c1 10       		.byte	0x10
 1356 08c2 8A       		.byte	0x8a
 1357 08c3 95090000 		.4byte	0x995
 1358 08c7 74       		.byte	0x74
 1359 08c8 00       		.byte	0
 1360 08c9 08       		.uleb128 0x8
 1361 08ca 0C       		.byte	0xc
 1362 08cb 11       		.byte	0x11
 1363 08cc D7       		.byte	0xd7
 1364 08cd 02090000 		.4byte	0x902
 1365 08d1 06       		.uleb128 0x6
 1366 08d2 E2020000 		.4byte	.LASF118
 1367 08d6 11       		.byte	0x11
 1368 08d7 DB       		.byte	0xdb
 1369 08d8 C3000000 		.4byte	0xc3
 1370 08dc 00       		.byte	0
 1371 08dd 07       		.uleb128 0x7
 1372 08de 63723100 		.ascii	"cr1\000"
 1373 08e2 11       		.byte	0x11
 1374 08e3 E0       		.byte	0xe0
 1375 08e4 AD000000 		.4byte	0xad
 1376 08e8 04       		.byte	0x4
 1377 08e9 07       		.uleb128 0x7
 1378 08ea 63723200 		.ascii	"cr2\000"
 1379 08ee 11       		.byte	0x11
 1380 08ef E4       		.byte	0xe4
 1381 08f0 AD000000 		.4byte	0xad
 1382 08f4 06       		.byte	0x6
 1383 08f5 07       		.uleb128 0x7
 1384 08f6 63723300 		.ascii	"cr3\000"
 1385 08fa 11       		.byte	0x11
 1386 08fb E8       		.byte	0xe8
 1387 08fc AD000000 		.4byte	0xad
 1388 0900 08       		.byte	0x8
 1389 0901 00       		.byte	0
 1390 0902 03       		.uleb128 0x3
 1391 0903 52030000 		.4byte	.LASF119
 1392 0907 11       		.byte	0x11
 1393 0908 E9       		.byte	0xe9
 1394 0909 C9080000 		.4byte	0x8c9
 1395 090d 05       		.uleb128 0x5
 1396 090e 34020000 		.4byte	.LASF120
 1397 0912 20       		.byte	0x20
 1398 0913 10       		.byte	0x10
ARM GAS  /tmp/cc6nBpmr.s 			page 26


 1399 0914 7C       		.byte	0x7c
 1400 0915 7A090000 		.4byte	0x97a
 1401 0919 06       		.uleb128 0x6
 1402 091a FF020000 		.4byte	.LASF83
 1403 091e 10       		.byte	0x10
 1404 091f 7D       		.byte	0x7d
 1405 0920 7A050000 		.4byte	0x57a
 1406 0924 00       		.byte	0
 1407 0925 06       		.uleb128 0x6
 1408 0926 0D050000 		.4byte	.LASF84
 1409 092a 10       		.byte	0x10
 1410 092b 7D       		.byte	0x7d
 1411 092c 99050000 		.4byte	0x599
 1412 0930 04       		.byte	0x4
 1413 0931 07       		.uleb128 0x7
 1414 0932 70757400 		.ascii	"put\000"
 1415 0936 10       		.byte	0x10
 1416 0937 7D       		.byte	0x7d
 1417 0938 B3050000 		.4byte	0x5b3
 1418 093c 08       		.byte	0x8
 1419 093d 07       		.uleb128 0x7
 1420 093e 67657400 		.ascii	"get\000"
 1421 0942 10       		.byte	0x10
 1422 0943 7D       		.byte	0x7d
 1423 0944 4E040000 		.4byte	0x44e
 1424 0948 0C       		.byte	0xc
 1425 0949 06       		.uleb128 0x6
 1426 094a 05030000 		.4byte	.LASF121
 1427 094e 10       		.byte	0x10
 1428 094f 7D       		.byte	0x7d
 1429 0950 D1060000 		.4byte	0x6d1
 1430 0954 10       		.byte	0x10
 1431 0955 06       		.uleb128 0x6
 1432 0956 77020000 		.4byte	.LASF122
 1433 095a 10       		.byte	0x10
 1434 095b 7D       		.byte	0x7d
 1435 095c EB060000 		.4byte	0x6eb
 1436 0960 14       		.byte	0x14
 1437 0961 06       		.uleb128 0x6
 1438 0962 B0020000 		.4byte	.LASF123
 1439 0966 10       		.byte	0x10
 1440 0967 7D       		.byte	0x7d
 1441 0968 0F070000 		.4byte	0x70f
 1442 096c 18       		.byte	0x18
 1443 096d 06       		.uleb128 0x6
 1444 096e 26010000 		.4byte	.LASF124
 1445 0972 10       		.byte	0x10
 1446 0973 7D       		.byte	0x7d
 1447 0974 33070000 		.4byte	0x733
 1448 0978 1C       		.byte	0x1c
 1449 0979 00       		.byte	0
 1450 097a 09       		.uleb128 0x9
 1451 097b 04       		.byte	0x4
 1452 097c 80090000 		.4byte	0x980
 1453 0980 10       		.uleb128 0x10
 1454 0981 0D090000 		.4byte	0x90d
 1455 0985 1A       		.uleb128 0x1a
ARM GAS  /tmp/cc6nBpmr.s 			page 27


 1456 0986 A2000000 		.4byte	0xa2
 1457 098a 95090000 		.4byte	0x995
 1458 098e 1B       		.uleb128 0x1b
 1459 098f 41030000 		.4byte	0x341
 1460 0993 0F       		.byte	0xf
 1461 0994 00       		.byte	0
 1462 0995 09       		.uleb128 0x9
 1463 0996 04       		.byte	0x4
 1464 0997 AC060000 		.4byte	0x6ac
 1465 099b 03       		.uleb128 0x3
 1466 099c 1F030000 		.4byte	.LASF125
 1467 09a0 12       		.byte	0x12
 1468 09a1 28       		.byte	0x28
 1469 09a2 A6090000 		.4byte	0x9a6
 1470 09a6 05       		.uleb128 0x5
 1471 09a7 A0010000 		.4byte	.LASF126
 1472 09ab 04       		.byte	0x4
 1473 09ac 13       		.byte	0x13
 1474 09ad 00       		.byte	0
 1475 09ae BD090000 		.4byte	0x9bd
 1476 09b2 1C       		.uleb128 0x1c
 1477 09b3 5B050000 		.4byte	.LASF127
 1478 09b7 9D020000 		.4byte	0x29d
 1479 09bb 00       		.byte	0
 1480 09bc 00       		.byte	0
 1481 09bd 03       		.uleb128 0x3
 1482 09be 34000000 		.4byte	.LASF128
 1483 09c2 12       		.byte	0x12
 1484 09c3 62       		.byte	0x62
 1485 09c4 9B090000 		.4byte	0x99b
 1486 09c8 1D       		.uleb128 0x1d
 1487 09c9 0F060000 		.4byte	.LASF143
 1488 09cd 01       		.byte	0x1
 1489 09ce 45       		.byte	0x45
 1490 09cf 03       		.byte	0x3
 1491 09d0 F6090000 		.4byte	0x9f6
 1492 09d4 1E       		.uleb128 0x1e
 1493 09d5 63687000 		.ascii	"chp\000"
 1494 09d9 01       		.byte	0x1
 1495 09da 45       		.byte	0x45
 1496 09db F6090000 		.4byte	0x9f6
 1497 09df 1E       		.uleb128 0x1e
 1498 09e0 666D7400 		.ascii	"fmt\000"
 1499 09e4 01       		.byte	0x1
 1500 09e5 45       		.byte	0x45
 1501 09e6 36040000 		.4byte	0x436
 1502 09ea 1F       		.uleb128 0x1f
 1503 09eb 20       		.uleb128 0x20
 1504 09ec 617000   		.ascii	"ap\000"
 1505 09ef 01       		.byte	0x1
 1506 09f0 46       		.byte	0x46
 1507 09f1 BD090000 		.4byte	0x9bd
 1508 09f5 00       		.byte	0
 1509 09f6 09       		.uleb128 0x9
 1510 09f7 04       		.byte	0x4
 1511 09f8 D9050000 		.4byte	0x5d9
 1512 09fc 21       		.uleb128 0x21
ARM GAS  /tmp/cc6nBpmr.s 			page 28


 1513 09fd C8090000 		.4byte	0x9c8
 1514 0a01 00000000 		.4byte	.LFB121
 1515 0a05 26000000 		.4byte	.LFE121-.LFB121
 1516 0a09 01       		.uleb128 0x1
 1517 0a0a 9C       		.byte	0x9c
 1518 0a0b 460A0000 		.4byte	0xa46
 1519 0a0f 22       		.uleb128 0x22
 1520 0a10 D4090000 		.4byte	0x9d4
 1521 0a14 00000000 		.4byte	.LLST0
 1522 0a18 23       		.uleb128 0x23
 1523 0a19 DF090000 		.4byte	0x9df
 1524 0a1d 02       		.uleb128 0x2
 1525 0a1e 91       		.byte	0x91
 1526 0a1f 74       		.sleb128 -12
 1527 0a20 1F       		.uleb128 0x1f
 1528 0a21 24       		.uleb128 0x24
 1529 0a22 EB090000 		.4byte	0x9eb
 1530 0a26 02       		.uleb128 0x2
 1531 0a27 91       		.byte	0x91
 1532 0a28 6C       		.sleb128 -20
 1533 0a29 25       		.uleb128 0x25
 1534 0a2a D4090000 		.4byte	0x9d4
 1535 0a2e 26       		.uleb128 0x26
 1536 0a2f 1C000000 		.4byte	.LVL2
 1537 0a33 030C0000 		.4byte	0xc03
 1538 0a37 27       		.uleb128 0x27
 1539 0a38 01       		.uleb128 0x1
 1540 0a39 52       		.byte	0x52
 1541 0a3a 02       		.uleb128 0x2
 1542 0a3b 91       		.byte	0x91
 1543 0a3c 60       		.sleb128 -32
 1544 0a3d 27       		.uleb128 0x27
 1545 0a3e 01       		.uleb128 0x1
 1546 0a3f 51       		.byte	0x51
 1547 0a40 03       		.uleb128 0x3
 1548 0a41 91       		.byte	0x91
 1549 0a42 5C       		.sleb128 -36
 1550 0a43 06       		.byte	0x6
 1551 0a44 00       		.byte	0
 1552 0a45 00       		.byte	0
 1553 0a46 28       		.uleb128 0x28
 1554 0a47 ED010000 		.4byte	.LASF144
 1555 0a4b 02       		.byte	0x2
 1556 0a4c 1D       		.byte	0x1d
 1557 0a4d 00000000 		.4byte	.LFB119
 1558 0a51 14000000 		.4byte	.LFE119-.LFB119
 1559 0a55 01       		.uleb128 0x1
 1560 0a56 9C       		.byte	0x9c
 1561 0a57 7D0A0000 		.4byte	0xa7d
 1562 0a5b 29       		.uleb128 0x29
 1563 0a5c 717000   		.ascii	"qp\000"
 1564 0a5f 02       		.byte	0x2
 1565 0a60 1D       		.byte	0x1d
 1566 0a61 F7040000 		.4byte	0x4f7
 1567 0a65 21000000 		.4byte	.LLST1
 1568 0a69 2A       		.uleb128 0x2a
 1569 0a6a 14000000 		.4byte	.LVL5
ARM GAS  /tmp/cc6nBpmr.s 			page 29


 1570 0a6e FC090000 		.4byte	0x9fc
 1571 0a72 27       		.uleb128 0x27
 1572 0a73 01       		.uleb128 0x1
 1573 0a74 51       		.byte	0x51
 1574 0a75 05       		.uleb128 0x5
 1575 0a76 03       		.byte	0x3
 1576 0a77 00000000 		.4byte	.LC0
 1577 0a7b 00       		.byte	0
 1578 0a7c 00       		.byte	0
 1579 0a7d 2B       		.uleb128 0x2b
 1580 0a7e E9050000 		.4byte	.LASF145
 1581 0a82 02       		.byte	0x2
 1582 0a83 24       		.byte	0x24
 1583 0a84 25000000 		.4byte	0x25
 1584 0a88 00000000 		.4byte	.LFB120
 1585 0a8c B0000000 		.4byte	.LFE120-.LFB120
 1586 0a90 01       		.uleb128 0x1
 1587 0a91 9C       		.byte	0x9c
 1588 0a92 B90B0000 		.4byte	0xbb9
 1589 0a96 2C       		.uleb128 0x2c
 1590 0a97 08000000 		.4byte	.LVL6
 1591 0a9b 1E0C0000 		.4byte	0xc1e
 1592 0a9f 2C       		.uleb128 0x2c
 1593 0aa0 0E000000 		.4byte	.LVL7
 1594 0aa4 250C0000 		.4byte	0xc25
 1595 0aa8 2D       		.uleb128 0x2d
 1596 0aa9 38000000 		.4byte	.LVL8
 1597 0aad 2C0C0000 		.4byte	0xc2c
 1598 0ab1 DD0A0000 		.4byte	0xadd
 1599 0ab5 27       		.uleb128 0x27
 1600 0ab6 01       		.uleb128 0x1
 1601 0ab7 53       		.byte	0x53
 1602 0ab8 05       		.uleb128 0x5
 1603 0ab9 03       		.byte	0x3
 1604 0aba 00000000 		.4byte	print_msg
 1605 0abe 27       		.uleb128 0x27
 1606 0abf 01       		.uleb128 0x1
 1607 0ac0 52       		.byte	0x52
 1608 0ac1 01       		.uleb128 0x1
 1609 0ac2 34       		.byte	0x34
 1610 0ac3 27       		.uleb128 0x27
 1611 0ac4 01       		.uleb128 0x1
 1612 0ac5 51       		.byte	0x51
 1613 0ac6 05       		.uleb128 0x5
 1614 0ac7 03       		.byte	0x3
 1615 0ac8 00000000 		.4byte	.LANCHOR1
 1616 0acc 27       		.uleb128 0x27
 1617 0acd 01       		.uleb128 0x1
 1618 0ace 50       		.byte	0x50
 1619 0acf 05       		.uleb128 0x5
 1620 0ad0 03       		.byte	0x3
 1621 0ad1 00000000 		.4byte	.LANCHOR0
 1622 0ad5 27       		.uleb128 0x27
 1623 0ad6 02       		.uleb128 0x2
 1624 0ad7 7D       		.byte	0x7d
 1625 0ad8 00       		.sleb128 0
 1626 0ad9 02       		.uleb128 0x2
ARM GAS  /tmp/cc6nBpmr.s 			page 30


 1627 0ada 75       		.byte	0x75
 1628 0adb 00       		.sleb128 0
 1629 0adc 00       		.byte	0
 1630 0add 2D       		.uleb128 0x2d
 1631 0ade 44000000 		.4byte	.LVL9
 1632 0ae2 580C0000 		.4byte	0xc58
 1633 0ae6 F70A0000 		.4byte	0xaf7
 1634 0aea 27       		.uleb128 0x27
 1635 0aeb 01       		.uleb128 0x1
 1636 0aec 51       		.byte	0x51
 1637 0aed 02       		.uleb128 0x2
 1638 0aee 75       		.byte	0x75
 1639 0aef 00       		.sleb128 0
 1640 0af0 27       		.uleb128 0x27
 1641 0af1 01       		.uleb128 0x1
 1642 0af2 50       		.byte	0x50
 1643 0af3 02       		.uleb128 0x2
 1644 0af4 74       		.byte	0x74
 1645 0af5 00       		.sleb128 0
 1646 0af6 00       		.byte	0
 1647 0af7 2D       		.uleb128 0x2d
 1648 0af8 50000000 		.4byte	.LVL10
 1649 0afc 800C0000 		.4byte	0xc80
 1650 0b00 170B0000 		.4byte	0xb17
 1651 0b04 27       		.uleb128 0x27
 1652 0b05 01       		.uleb128 0x1
 1653 0b06 52       		.byte	0x52
 1654 0b07 03       		.uleb128 0x3
 1655 0b08 0A       		.byte	0xa
 1656 0b09 8203     		.2byte	0x382
 1657 0b0b 27       		.uleb128 0x27
 1658 0b0c 01       		.uleb128 0x1
 1659 0b0d 51       		.byte	0x51
 1660 0b0e 01       		.uleb128 0x1
 1661 0b0f 34       		.byte	0x34
 1662 0b10 27       		.uleb128 0x27
 1663 0b11 01       		.uleb128 0x1
 1664 0b12 50       		.byte	0x50
 1665 0b13 02       		.uleb128 0x2
 1666 0b14 76       		.byte	0x76
 1667 0b15 00       		.sleb128 0
 1668 0b16 00       		.byte	0
 1669 0b17 2D       		.uleb128 0x2d
 1670 0b18 5C000000 		.4byte	.LVL11
 1671 0b1c 800C0000 		.4byte	0xc80
 1672 0b20 370B0000 		.4byte	0xb37
 1673 0b24 27       		.uleb128 0x27
 1674 0b25 01       		.uleb128 0x1
 1675 0b26 52       		.byte	0x52
 1676 0b27 03       		.uleb128 0x3
 1677 0b28 0A       		.byte	0xa
 1678 0b29 8203     		.2byte	0x382
 1679 0b2b 27       		.uleb128 0x27
 1680 0b2c 01       		.uleb128 0x1
 1681 0b2d 51       		.byte	0x51
 1682 0b2e 01       		.uleb128 0x1
 1683 0b2f 38       		.byte	0x38
ARM GAS  /tmp/cc6nBpmr.s 			page 31


 1684 0b30 27       		.uleb128 0x27
 1685 0b31 01       		.uleb128 0x1
 1686 0b32 50       		.byte	0x50
 1687 0b33 02       		.uleb128 0x2
 1688 0b34 76       		.byte	0x76
 1689 0b35 00       		.sleb128 0
 1690 0b36 00       		.byte	0
 1691 0b37 2C       		.uleb128 0x2c
 1692 0b38 6E000000 		.4byte	.LVL12
 1693 0b3c 9C0C0000 		.4byte	0xc9c
 1694 0b40 2C       		.uleb128 0x2c
 1695 0b41 72000000 		.4byte	.LVL13
 1696 0b45 A70C0000 		.4byte	0xca7
 1697 0b49 2D       		.uleb128 0x2d
 1698 0b4a 88000000 		.4byte	.LVL14
 1699 0b4e FC090000 		.4byte	0x9fc
 1700 0b52 6F0B0000 		.4byte	0xb6f
 1701 0b56 27       		.uleb128 0x27
 1702 0b57 01       		.uleb128 0x1
 1703 0b58 52       		.byte	0x52
 1704 0b59 05       		.uleb128 0x5
 1705 0b5a 03       		.byte	0x3
 1706 0b5b 28000000 		.4byte	.LC2
 1707 0b5f 27       		.uleb128 0x27
 1708 0b60 01       		.uleb128 0x1
 1709 0b61 51       		.byte	0x51
 1710 0b62 05       		.uleb128 0x5
 1711 0b63 03       		.byte	0x3
 1712 0b64 10000000 		.4byte	.LC1
 1713 0b68 27       		.uleb128 0x27
 1714 0b69 01       		.uleb128 0x1
 1715 0b6a 50       		.byte	0x50
 1716 0b6b 02       		.uleb128 0x2
 1717 0b6c 74       		.byte	0x74
 1718 0b6d 00       		.sleb128 0
 1719 0b6e 00       		.byte	0
 1720 0b6f 2D       		.uleb128 0x2d
 1721 0b70 8E000000 		.4byte	.LVL15
 1722 0b74 B20C0000 		.4byte	0xcb2
 1723 0b78 820B0000 		.4byte	0xb82
 1724 0b7c 27       		.uleb128 0x27
 1725 0b7d 01       		.uleb128 0x1
 1726 0b7e 50       		.byte	0x50
 1727 0b7f 01       		.uleb128 0x1
 1728 0b80 43       		.byte	0x43
 1729 0b81 00       		.byte	0
 1730 0b82 2D       		.uleb128 0x2d
 1731 0b83 9C000000 		.4byte	.LVL16
 1732 0b87 FC090000 		.4byte	0x9fc
 1733 0b8b 9F0B0000 		.4byte	0xb9f
 1734 0b8f 27       		.uleb128 0x27
 1735 0b90 01       		.uleb128 0x1
 1736 0b91 51       		.byte	0x51
 1737 0b92 05       		.uleb128 0x5
 1738 0b93 03       		.byte	0x3
 1739 0b94 30000000 		.4byte	.LC3
 1740 0b98 27       		.uleb128 0x27
ARM GAS  /tmp/cc6nBpmr.s 			page 32


 1741 0b99 01       		.uleb128 0x1
 1742 0b9a 50       		.byte	0x50
 1743 0b9b 02       		.uleb128 0x2
 1744 0b9c 74       		.byte	0x74
 1745 0b9d 00       		.sleb128 0
 1746 0b9e 00       		.byte	0
 1747 0b9f 26       		.uleb128 0x26
 1748 0ba0 AA000000 		.4byte	.LVL17
 1749 0ba4 FC090000 		.4byte	0x9fc
 1750 0ba8 27       		.uleb128 0x27
 1751 0ba9 01       		.uleb128 0x1
 1752 0baa 51       		.byte	0x51
 1753 0bab 05       		.uleb128 0x5
 1754 0bac 03       		.byte	0x3
 1755 0bad 48000000 		.4byte	.LC4
 1756 0bb1 27       		.uleb128 0x27
 1757 0bb2 01       		.uleb128 0x1
 1758 0bb3 50       		.byte	0x50
 1759 0bb4 02       		.uleb128 0x2
 1760 0bb5 74       		.byte	0x74
 1761 0bb6 00       		.sleb128 0
 1762 0bb7 00       		.byte	0
 1763 0bb8 00       		.byte	0
 1764 0bb9 2E       		.uleb128 0x2e
 1765 0bba 12010000 		.4byte	.LASF129
 1766 0bbe 14       		.byte	0x14
 1767 0bbf 9806     		.2byte	0x698
 1768 0bc1 E9050000 		.4byte	0x5e9
 1769 0bc5 2F       		.uleb128 0x2f
 1770 0bc6 53443200 		.ascii	"SD2\000"
 1771 0bca 11       		.byte	0x11
 1772 0bcb 1201     		.2byte	0x112
 1773 0bcd 53080000 		.4byte	0x853
 1774 0bd1 1A       		.uleb128 0x1a
 1775 0bd2 A2000000 		.4byte	0xa2
 1776 0bd6 E10B0000 		.4byte	0xbe1
 1777 0bda 1B       		.uleb128 0x1b
 1778 0bdb 41030000 		.4byte	0x341
 1779 0bdf 1F       		.byte	0x1f
 1780 0be0 00       		.byte	0
 1781 0be1 30       		.uleb128 0x30
 1782 0be2 83010000 		.4byte	.LASF130
 1783 0be6 02       		.byte	0x2
 1784 0be7 1A       		.byte	0x1a
 1785 0be8 D10B0000 		.4byte	0xbd1
 1786 0bec 05       		.uleb128 0x5
 1787 0bed 03       		.byte	0x3
 1788 0bee 00000000 		.4byte	buff
 1789 0bf2 30       		.uleb128 0x30
 1790 0bf3 5E040000 		.4byte	.LASF131
 1791 0bf7 02       		.byte	0x2
 1792 0bf8 22       		.byte	0x22
 1793 0bf9 0E050000 		.4byte	0x50e
 1794 0bfd 05       		.uleb128 0x5
 1795 0bfe 03       		.byte	0x3
 1796 0bff 00000000 		.4byte	OQUEUE
 1797 0c03 31       		.uleb128 0x31
ARM GAS  /tmp/cc6nBpmr.s 			page 33


 1798 0c04 BD050000 		.4byte	.LASF134
 1799 0c08 01       		.byte	0x1
 1800 0c09 28       		.byte	0x28
 1801 0c0a 1E0C0000 		.4byte	0xc1e
 1802 0c0e 12       		.uleb128 0x12
 1803 0c0f F6090000 		.4byte	0x9f6
 1804 0c13 12       		.uleb128 0x12
 1805 0c14 36040000 		.4byte	0x436
 1806 0c18 12       		.uleb128 0x12
 1807 0c19 BD090000 		.4byte	0x9bd
 1808 0c1d 00       		.byte	0
 1809 0c1e 32       		.uleb128 0x32
 1810 0c1f 6A020000 		.4byte	.LASF132
 1811 0c23 15       		.byte	0x15
 1812 0c24 D0       		.byte	0xd0
 1813 0c25 32       		.uleb128 0x32
 1814 0c26 55010000 		.4byte	.LASF133
 1815 0c2a 16       		.byte	0x16
 1816 0c2b F6       		.byte	0xf6
 1817 0c2c 33       		.uleb128 0x33
 1818 0c2d 00000000 		.4byte	.LASF135
 1819 0c31 0C       		.byte	0xc
 1820 0c32 6A01     		.2byte	0x16a
 1821 0c34 520C0000 		.4byte	0xc52
 1822 0c38 12       		.uleb128 0x12
 1823 0c39 520C0000 		.4byte	0xc52
 1824 0c3d 12       		.uleb128 0x12
 1825 0c3e FD040000 		.4byte	0x4fd
 1826 0c42 12       		.uleb128 0x12
 1827 0c43 2C000000 		.4byte	0x2c
 1828 0c47 12       		.uleb128 0x12
 1829 0c48 DB040000 		.4byte	0x4db
 1830 0c4c 12       		.uleb128 0x12
 1831 0c4d 9D020000 		.4byte	0x29d
 1832 0c51 00       		.byte	0
 1833 0c52 09       		.uleb128 0x9
 1834 0c53 04       		.byte	0x4
 1835 0c54 0E050000 		.4byte	0x50e
 1836 0c58 33       		.uleb128 0x33
 1837 0c59 17050000 		.4byte	.LASF136
 1838 0c5d 10       		.byte	0x10
 1839 0c5e 3701     		.2byte	0x137
 1840 0c60 6F0C0000 		.4byte	0xc6f
 1841 0c64 12       		.uleb128 0x12
 1842 0c65 6F0C0000 		.4byte	0xc6f
 1843 0c69 12       		.uleb128 0x12
 1844 0c6a 750C0000 		.4byte	0xc75
 1845 0c6e 00       		.byte	0
 1846 0c6f 09       		.uleb128 0x9
 1847 0c70 04       		.byte	0x4
 1848 0c71 53080000 		.4byte	0x853
 1849 0c75 09       		.uleb128 0x9
 1850 0c76 04       		.byte	0x4
 1851 0c77 7B0C0000 		.4byte	0xc7b
 1852 0c7b 10       		.uleb128 0x10
 1853 0c7c 02090000 		.4byte	0x902
 1854 0c80 33       		.uleb128 0x33
ARM GAS  /tmp/cc6nBpmr.s 			page 34


 1855 0c81 68050000 		.4byte	.LASF137
 1856 0c85 0F       		.byte	0xf
 1857 0c86 C201     		.2byte	0x1c2
 1858 0c88 9C0C0000 		.4byte	0xc9c
 1859 0c8c 12       		.uleb128 0x12
 1860 0c8d 1C080000 		.4byte	0x81c
 1861 0c91 12       		.uleb128 0x12
 1862 0c92 06080000 		.4byte	0x806
 1863 0c96 12       		.uleb128 0x12
 1864 0c97 11080000 		.4byte	0x811
 1865 0c9b 00       		.byte	0
 1866 0c9c 34       		.uleb128 0x34
 1867 0c9d 636C7300 		.ascii	"cls\000"
 1868 0ca1 17       		.byte	0x17
 1869 0ca2 12       		.byte	0x12
 1870 0ca3 25000000 		.4byte	0x25
 1871 0ca7 35       		.uleb128 0x35
 1872 0ca8 DC050000 		.4byte	.LASF138
 1873 0cac 17       		.byte	0x17
 1874 0cad 09       		.byte	0x9
 1875 0cae 25000000 		.4byte	0x25
 1876 0cb2 36       		.uleb128 0x36
 1877 0cb3 74010000 		.4byte	.LASF139
 1878 0cb7 17       		.byte	0x17
 1879 0cb8 0C       		.byte	0xc
 1880 0cb9 25000000 		.4byte	0x25
 1881 0cbd 12       		.uleb128 0x12
 1882 0cbe 25000000 		.4byte	0x25
 1883 0cc2 00       		.byte	0
 1884 0cc3 00       		.byte	0
 1885              		.section	.debug_abbrev,"",%progbits
 1886              	.Ldebug_abbrev0:
 1887 0000 01       		.uleb128 0x1
 1888 0001 11       		.uleb128 0x11
 1889 0002 01       		.byte	0x1
 1890 0003 25       		.uleb128 0x25
 1891 0004 0E       		.uleb128 0xe
 1892 0005 13       		.uleb128 0x13
 1893 0006 0B       		.uleb128 0xb
 1894 0007 03       		.uleb128 0x3
 1895 0008 0E       		.uleb128 0xe
 1896 0009 1B       		.uleb128 0x1b
 1897 000a 0E       		.uleb128 0xe
 1898 000b 55       		.uleb128 0x55
 1899 000c 17       		.uleb128 0x17
 1900 000d 11       		.uleb128 0x11
 1901 000e 01       		.uleb128 0x1
 1902 000f 10       		.uleb128 0x10
 1903 0010 17       		.uleb128 0x17
 1904 0011 00       		.byte	0
 1905 0012 00       		.byte	0
 1906 0013 02       		.uleb128 0x2
 1907 0014 24       		.uleb128 0x24
 1908 0015 00       		.byte	0
 1909 0016 0B       		.uleb128 0xb
 1910 0017 0B       		.uleb128 0xb
 1911 0018 3E       		.uleb128 0x3e
ARM GAS  /tmp/cc6nBpmr.s 			page 35


 1912 0019 0B       		.uleb128 0xb
 1913 001a 03       		.uleb128 0x3
 1914 001b 08       		.uleb128 0x8
 1915 001c 00       		.byte	0
 1916 001d 00       		.byte	0
 1917 001e 03       		.uleb128 0x3
 1918 001f 16       		.uleb128 0x16
 1919 0020 00       		.byte	0
 1920 0021 03       		.uleb128 0x3
 1921 0022 0E       		.uleb128 0xe
 1922 0023 3A       		.uleb128 0x3a
 1923 0024 0B       		.uleb128 0xb
 1924 0025 3B       		.uleb128 0x3b
 1925 0026 0B       		.uleb128 0xb
 1926 0027 49       		.uleb128 0x49
 1927 0028 13       		.uleb128 0x13
 1928 0029 00       		.byte	0
 1929 002a 00       		.byte	0
 1930 002b 04       		.uleb128 0x4
 1931 002c 24       		.uleb128 0x24
 1932 002d 00       		.byte	0
 1933 002e 0B       		.uleb128 0xb
 1934 002f 0B       		.uleb128 0xb
 1935 0030 3E       		.uleb128 0x3e
 1936 0031 0B       		.uleb128 0xb
 1937 0032 03       		.uleb128 0x3
 1938 0033 0E       		.uleb128 0xe
 1939 0034 00       		.byte	0
 1940 0035 00       		.byte	0
 1941 0036 05       		.uleb128 0x5
 1942 0037 13       		.uleb128 0x13
 1943 0038 01       		.byte	0x1
 1944 0039 03       		.uleb128 0x3
 1945 003a 0E       		.uleb128 0xe
 1946 003b 0B       		.uleb128 0xb
 1947 003c 0B       		.uleb128 0xb
 1948 003d 3A       		.uleb128 0x3a
 1949 003e 0B       		.uleb128 0xb
 1950 003f 3B       		.uleb128 0x3b
 1951 0040 0B       		.uleb128 0xb
 1952 0041 01       		.uleb128 0x1
 1953 0042 13       		.uleb128 0x13
 1954 0043 00       		.byte	0
 1955 0044 00       		.byte	0
 1956 0045 06       		.uleb128 0x6
 1957 0046 0D       		.uleb128 0xd
 1958 0047 00       		.byte	0
 1959 0048 03       		.uleb128 0x3
 1960 0049 0E       		.uleb128 0xe
 1961 004a 3A       		.uleb128 0x3a
 1962 004b 0B       		.uleb128 0xb
 1963 004c 3B       		.uleb128 0x3b
 1964 004d 0B       		.uleb128 0xb
 1965 004e 49       		.uleb128 0x49
 1966 004f 13       		.uleb128 0x13
 1967 0050 38       		.uleb128 0x38
 1968 0051 0B       		.uleb128 0xb
ARM GAS  /tmp/cc6nBpmr.s 			page 36


 1969 0052 00       		.byte	0
 1970 0053 00       		.byte	0
 1971 0054 07       		.uleb128 0x7
 1972 0055 0D       		.uleb128 0xd
 1973 0056 00       		.byte	0
 1974 0057 03       		.uleb128 0x3
 1975 0058 08       		.uleb128 0x8
 1976 0059 3A       		.uleb128 0x3a
 1977 005a 0B       		.uleb128 0xb
 1978 005b 3B       		.uleb128 0x3b
 1979 005c 0B       		.uleb128 0xb
 1980 005d 49       		.uleb128 0x49
 1981 005e 13       		.uleb128 0x13
 1982 005f 38       		.uleb128 0x38
 1983 0060 0B       		.uleb128 0xb
 1984 0061 00       		.byte	0
 1985 0062 00       		.byte	0
 1986 0063 08       		.uleb128 0x8
 1987 0064 13       		.uleb128 0x13
 1988 0065 01       		.byte	0x1
 1989 0066 0B       		.uleb128 0xb
 1990 0067 0B       		.uleb128 0xb
 1991 0068 3A       		.uleb128 0x3a
 1992 0069 0B       		.uleb128 0xb
 1993 006a 3B       		.uleb128 0x3b
 1994 006b 0B       		.uleb128 0xb
 1995 006c 01       		.uleb128 0x1
 1996 006d 13       		.uleb128 0x13
 1997 006e 00       		.byte	0
 1998 006f 00       		.byte	0
 1999 0070 09       		.uleb128 0x9
 2000 0071 0F       		.uleb128 0xf
 2001 0072 00       		.byte	0
 2002 0073 0B       		.uleb128 0xb
 2003 0074 0B       		.uleb128 0xb
 2004 0075 49       		.uleb128 0x49
 2005 0076 13       		.uleb128 0x13
 2006 0077 00       		.byte	0
 2007 0078 00       		.byte	0
 2008 0079 0A       		.uleb128 0xa
 2009 007a 0F       		.uleb128 0xf
 2010 007b 00       		.byte	0
 2011 007c 0B       		.uleb128 0xb
 2012 007d 0B       		.uleb128 0xb
 2013 007e 00       		.byte	0
 2014 007f 00       		.byte	0
 2015 0080 0B       		.uleb128 0xb
 2016 0081 13       		.uleb128 0x13
 2017 0082 01       		.byte	0x1
 2018 0083 03       		.uleb128 0x3
 2019 0084 0E       		.uleb128 0xe
 2020 0085 0B       		.uleb128 0xb
 2021 0086 0B       		.uleb128 0xb
 2022 0087 3A       		.uleb128 0x3a
 2023 0088 0B       		.uleb128 0xb
 2024 0089 3B       		.uleb128 0x3b
 2025 008a 05       		.uleb128 0x5
ARM GAS  /tmp/cc6nBpmr.s 			page 37


 2026 008b 01       		.uleb128 0x1
 2027 008c 13       		.uleb128 0x13
 2028 008d 00       		.byte	0
 2029 008e 00       		.byte	0
 2030 008f 0C       		.uleb128 0xc
 2031 0090 0D       		.uleb128 0xd
 2032 0091 00       		.byte	0
 2033 0092 03       		.uleb128 0x3
 2034 0093 08       		.uleb128 0x8
 2035 0094 3A       		.uleb128 0x3a
 2036 0095 0B       		.uleb128 0xb
 2037 0096 3B       		.uleb128 0x3b
 2038 0097 05       		.uleb128 0x5
 2039 0098 49       		.uleb128 0x49
 2040 0099 13       		.uleb128 0x13
 2041 009a 38       		.uleb128 0x38
 2042 009b 0B       		.uleb128 0xb
 2043 009c 00       		.byte	0
 2044 009d 00       		.byte	0
 2045 009e 0D       		.uleb128 0xd
 2046 009f 35       		.uleb128 0x35
 2047 00a0 00       		.byte	0
 2048 00a1 49       		.uleb128 0x49
 2049 00a2 13       		.uleb128 0x13
 2050 00a3 00       		.byte	0
 2051 00a4 00       		.byte	0
 2052 00a5 0E       		.uleb128 0xe
 2053 00a6 17       		.uleb128 0x17
 2054 00a7 01       		.byte	0x1
 2055 00a8 0B       		.uleb128 0xb
 2056 00a9 0B       		.uleb128 0xb
 2057 00aa 3A       		.uleb128 0x3a
 2058 00ab 0B       		.uleb128 0xb
 2059 00ac 3B       		.uleb128 0x3b
 2060 00ad 0B       		.uleb128 0xb
 2061 00ae 01       		.uleb128 0x1
 2062 00af 13       		.uleb128 0x13
 2063 00b0 00       		.byte	0
 2064 00b1 00       		.byte	0
 2065 00b2 0F       		.uleb128 0xf
 2066 00b3 0D       		.uleb128 0xd
 2067 00b4 00       		.byte	0
 2068 00b5 03       		.uleb128 0x3
 2069 00b6 0E       		.uleb128 0xe
 2070 00b7 3A       		.uleb128 0x3a
 2071 00b8 0B       		.uleb128 0xb
 2072 00b9 3B       		.uleb128 0x3b
 2073 00ba 0B       		.uleb128 0xb
 2074 00bb 49       		.uleb128 0x49
 2075 00bc 13       		.uleb128 0x13
 2076 00bd 00       		.byte	0
 2077 00be 00       		.byte	0
 2078 00bf 10       		.uleb128 0x10
 2079 00c0 26       		.uleb128 0x26
 2080 00c1 00       		.byte	0
 2081 00c2 49       		.uleb128 0x49
 2082 00c3 13       		.uleb128 0x13
ARM GAS  /tmp/cc6nBpmr.s 			page 38


 2083 00c4 00       		.byte	0
 2084 00c5 00       		.byte	0
 2085 00c6 11       		.uleb128 0x11
 2086 00c7 15       		.uleb128 0x15
 2087 00c8 01       		.byte	0x1
 2088 00c9 27       		.uleb128 0x27
 2089 00ca 19       		.uleb128 0x19
 2090 00cb 49       		.uleb128 0x49
 2091 00cc 13       		.uleb128 0x13
 2092 00cd 01       		.uleb128 0x1
 2093 00ce 13       		.uleb128 0x13
 2094 00cf 00       		.byte	0
 2095 00d0 00       		.byte	0
 2096 00d1 12       		.uleb128 0x12
 2097 00d2 05       		.uleb128 0x5
 2098 00d3 00       		.byte	0
 2099 00d4 49       		.uleb128 0x49
 2100 00d5 13       		.uleb128 0x13
 2101 00d6 00       		.byte	0
 2102 00d7 00       		.byte	0
 2103 00d8 13       		.uleb128 0x13
 2104 00d9 15       		.uleb128 0x15
 2105 00da 01       		.byte	0x1
 2106 00db 27       		.uleb128 0x27
 2107 00dc 19       		.uleb128 0x19
 2108 00dd 01       		.uleb128 0x1
 2109 00de 13       		.uleb128 0x13
 2110 00df 00       		.byte	0
 2111 00e0 00       		.byte	0
 2112 00e1 14       		.uleb128 0x14
 2113 00e2 13       		.uleb128 0x13
 2114 00e3 01       		.byte	0x1
 2115 00e4 0B       		.uleb128 0xb
 2116 00e5 0B       		.uleb128 0xb
 2117 00e6 3A       		.uleb128 0x3a
 2118 00e7 0B       		.uleb128 0xb
 2119 00e8 3B       		.uleb128 0x3b
 2120 00e9 05       		.uleb128 0x5
 2121 00ea 01       		.uleb128 0x1
 2122 00eb 13       		.uleb128 0x13
 2123 00ec 00       		.byte	0
 2124 00ed 00       		.byte	0
 2125 00ee 15       		.uleb128 0x15
 2126 00ef 0D       		.uleb128 0xd
 2127 00f0 00       		.byte	0
 2128 00f1 03       		.uleb128 0x3
 2129 00f2 0E       		.uleb128 0xe
 2130 00f3 3A       		.uleb128 0x3a
 2131 00f4 0B       		.uleb128 0xb
 2132 00f5 3B       		.uleb128 0x3b
 2133 00f6 05       		.uleb128 0x5
 2134 00f7 49       		.uleb128 0x49
 2135 00f8 13       		.uleb128 0x13
 2136 00f9 38       		.uleb128 0x38
 2137 00fa 0B       		.uleb128 0xb
 2138 00fb 00       		.byte	0
 2139 00fc 00       		.byte	0
ARM GAS  /tmp/cc6nBpmr.s 			page 39


 2140 00fd 16       		.uleb128 0x16
 2141 00fe 16       		.uleb128 0x16
 2142 00ff 00       		.byte	0
 2143 0100 03       		.uleb128 0x3
 2144 0101 0E       		.uleb128 0xe
 2145 0102 3A       		.uleb128 0x3a
 2146 0103 0B       		.uleb128 0xb
 2147 0104 3B       		.uleb128 0x3b
 2148 0105 05       		.uleb128 0x5
 2149 0106 49       		.uleb128 0x49
 2150 0107 13       		.uleb128 0x13
 2151 0108 00       		.byte	0
 2152 0109 00       		.byte	0
 2153 010a 17       		.uleb128 0x17
 2154 010b 0D       		.uleb128 0xd
 2155 010c 00       		.byte	0
 2156 010d 03       		.uleb128 0x3
 2157 010e 08       		.uleb128 0x8
 2158 010f 3A       		.uleb128 0x3a
 2159 0110 0B       		.uleb128 0xb
 2160 0111 3B       		.uleb128 0x3b
 2161 0112 0B       		.uleb128 0xb
 2162 0113 49       		.uleb128 0x49
 2163 0114 13       		.uleb128 0x13
 2164 0115 00       		.byte	0
 2165 0116 00       		.byte	0
 2166 0117 18       		.uleb128 0x18
 2167 0118 04       		.uleb128 0x4
 2168 0119 01       		.byte	0x1
 2169 011a 0B       		.uleb128 0xb
 2170 011b 0B       		.uleb128 0xb
 2171 011c 3A       		.uleb128 0x3a
 2172 011d 0B       		.uleb128 0xb
 2173 011e 3B       		.uleb128 0x3b
 2174 011f 0B       		.uleb128 0xb
 2175 0120 01       		.uleb128 0x1
 2176 0121 13       		.uleb128 0x13
 2177 0122 00       		.byte	0
 2178 0123 00       		.byte	0
 2179 0124 19       		.uleb128 0x19
 2180 0125 28       		.uleb128 0x28
 2181 0126 00       		.byte	0
 2182 0127 03       		.uleb128 0x3
 2183 0128 0E       		.uleb128 0xe
 2184 0129 1C       		.uleb128 0x1c
 2185 012a 0D       		.uleb128 0xd
 2186 012b 00       		.byte	0
 2187 012c 00       		.byte	0
 2188 012d 1A       		.uleb128 0x1a
 2189 012e 01       		.uleb128 0x1
 2190 012f 01       		.byte	0x1
 2191 0130 49       		.uleb128 0x49
 2192 0131 13       		.uleb128 0x13
 2193 0132 01       		.uleb128 0x1
 2194 0133 13       		.uleb128 0x13
 2195 0134 00       		.byte	0
 2196 0135 00       		.byte	0
ARM GAS  /tmp/cc6nBpmr.s 			page 40


 2197 0136 1B       		.uleb128 0x1b
 2198 0137 21       		.uleb128 0x21
 2199 0138 00       		.byte	0
 2200 0139 49       		.uleb128 0x49
 2201 013a 13       		.uleb128 0x13
 2202 013b 2F       		.uleb128 0x2f
 2203 013c 0B       		.uleb128 0xb
 2204 013d 00       		.byte	0
 2205 013e 00       		.byte	0
 2206 013f 1C       		.uleb128 0x1c
 2207 0140 0D       		.uleb128 0xd
 2208 0141 00       		.byte	0
 2209 0142 03       		.uleb128 0x3
 2210 0143 0E       		.uleb128 0xe
 2211 0144 49       		.uleb128 0x49
 2212 0145 13       		.uleb128 0x13
 2213 0146 38       		.uleb128 0x38
 2214 0147 0B       		.uleb128 0xb
 2215 0148 34       		.uleb128 0x34
 2216 0149 19       		.uleb128 0x19
 2217 014a 00       		.byte	0
 2218 014b 00       		.byte	0
 2219 014c 1D       		.uleb128 0x1d
 2220 014d 2E       		.uleb128 0x2e
 2221 014e 01       		.byte	0x1
 2222 014f 03       		.uleb128 0x3
 2223 0150 0E       		.uleb128 0xe
 2224 0151 3A       		.uleb128 0x3a
 2225 0152 0B       		.uleb128 0xb
 2226 0153 3B       		.uleb128 0x3b
 2227 0154 0B       		.uleb128 0xb
 2228 0155 27       		.uleb128 0x27
 2229 0156 19       		.uleb128 0x19
 2230 0157 20       		.uleb128 0x20
 2231 0158 0B       		.uleb128 0xb
 2232 0159 01       		.uleb128 0x1
 2233 015a 13       		.uleb128 0x13
 2234 015b 00       		.byte	0
 2235 015c 00       		.byte	0
 2236 015d 1E       		.uleb128 0x1e
 2237 015e 05       		.uleb128 0x5
 2238 015f 00       		.byte	0
 2239 0160 03       		.uleb128 0x3
 2240 0161 08       		.uleb128 0x8
 2241 0162 3A       		.uleb128 0x3a
 2242 0163 0B       		.uleb128 0xb
 2243 0164 3B       		.uleb128 0x3b
 2244 0165 0B       		.uleb128 0xb
 2245 0166 49       		.uleb128 0x49
 2246 0167 13       		.uleb128 0x13
 2247 0168 00       		.byte	0
 2248 0169 00       		.byte	0
 2249 016a 1F       		.uleb128 0x1f
 2250 016b 18       		.uleb128 0x18
 2251 016c 00       		.byte	0
 2252 016d 00       		.byte	0
 2253 016e 00       		.byte	0
ARM GAS  /tmp/cc6nBpmr.s 			page 41


 2254 016f 20       		.uleb128 0x20
 2255 0170 34       		.uleb128 0x34
 2256 0171 00       		.byte	0
 2257 0172 03       		.uleb128 0x3
 2258 0173 08       		.uleb128 0x8
 2259 0174 3A       		.uleb128 0x3a
 2260 0175 0B       		.uleb128 0xb
 2261 0176 3B       		.uleb128 0x3b
 2262 0177 0B       		.uleb128 0xb
 2263 0178 49       		.uleb128 0x49
 2264 0179 13       		.uleb128 0x13
 2265 017a 00       		.byte	0
 2266 017b 00       		.byte	0
 2267 017c 21       		.uleb128 0x21
 2268 017d 2E       		.uleb128 0x2e
 2269 017e 01       		.byte	0x1
 2270 017f 31       		.uleb128 0x31
 2271 0180 13       		.uleb128 0x13
 2272 0181 11       		.uleb128 0x11
 2273 0182 01       		.uleb128 0x1
 2274 0183 12       		.uleb128 0x12
 2275 0184 06       		.uleb128 0x6
 2276 0185 40       		.uleb128 0x40
 2277 0186 18       		.uleb128 0x18
 2278 0187 9742     		.uleb128 0x2117
 2279 0189 19       		.uleb128 0x19
 2280 018a 01       		.uleb128 0x1
 2281 018b 13       		.uleb128 0x13
 2282 018c 00       		.byte	0
 2283 018d 00       		.byte	0
 2284 018e 22       		.uleb128 0x22
 2285 018f 05       		.uleb128 0x5
 2286 0190 00       		.byte	0
 2287 0191 31       		.uleb128 0x31
 2288 0192 13       		.uleb128 0x13
 2289 0193 02       		.uleb128 0x2
 2290 0194 17       		.uleb128 0x17
 2291 0195 00       		.byte	0
 2292 0196 00       		.byte	0
 2293 0197 23       		.uleb128 0x23
 2294 0198 05       		.uleb128 0x5
 2295 0199 00       		.byte	0
 2296 019a 31       		.uleb128 0x31
 2297 019b 13       		.uleb128 0x13
 2298 019c 02       		.uleb128 0x2
 2299 019d 18       		.uleb128 0x18
 2300 019e 00       		.byte	0
 2301 019f 00       		.byte	0
 2302 01a0 24       		.uleb128 0x24
 2303 01a1 34       		.uleb128 0x34
 2304 01a2 00       		.byte	0
 2305 01a3 31       		.uleb128 0x31
 2306 01a4 13       		.uleb128 0x13
 2307 01a5 02       		.uleb128 0x2
 2308 01a6 18       		.uleb128 0x18
 2309 01a7 00       		.byte	0
 2310 01a8 00       		.byte	0
ARM GAS  /tmp/cc6nBpmr.s 			page 42


 2311 01a9 25       		.uleb128 0x25
 2312 01aa 05       		.uleb128 0x5
 2313 01ab 00       		.byte	0
 2314 01ac 31       		.uleb128 0x31
 2315 01ad 13       		.uleb128 0x13
 2316 01ae 00       		.byte	0
 2317 01af 00       		.byte	0
 2318 01b0 26       		.uleb128 0x26
 2319 01b1 898201   		.uleb128 0x4109
 2320 01b4 01       		.byte	0x1
 2321 01b5 11       		.uleb128 0x11
 2322 01b6 01       		.uleb128 0x1
 2323 01b7 31       		.uleb128 0x31
 2324 01b8 13       		.uleb128 0x13
 2325 01b9 00       		.byte	0
 2326 01ba 00       		.byte	0
 2327 01bb 27       		.uleb128 0x27
 2328 01bc 8A8201   		.uleb128 0x410a
 2329 01bf 00       		.byte	0
 2330 01c0 02       		.uleb128 0x2
 2331 01c1 18       		.uleb128 0x18
 2332 01c2 9142     		.uleb128 0x2111
 2333 01c4 18       		.uleb128 0x18
 2334 01c5 00       		.byte	0
 2335 01c6 00       		.byte	0
 2336 01c7 28       		.uleb128 0x28
 2337 01c8 2E       		.uleb128 0x2e
 2338 01c9 01       		.byte	0x1
 2339 01ca 3F       		.uleb128 0x3f
 2340 01cb 19       		.uleb128 0x19
 2341 01cc 03       		.uleb128 0x3
 2342 01cd 0E       		.uleb128 0xe
 2343 01ce 3A       		.uleb128 0x3a
 2344 01cf 0B       		.uleb128 0xb
 2345 01d0 3B       		.uleb128 0x3b
 2346 01d1 0B       		.uleb128 0xb
 2347 01d2 27       		.uleb128 0x27
 2348 01d3 19       		.uleb128 0x19
 2349 01d4 11       		.uleb128 0x11
 2350 01d5 01       		.uleb128 0x1
 2351 01d6 12       		.uleb128 0x12
 2352 01d7 06       		.uleb128 0x6
 2353 01d8 40       		.uleb128 0x40
 2354 01d9 18       		.uleb128 0x18
 2355 01da 9742     		.uleb128 0x2117
 2356 01dc 19       		.uleb128 0x19
 2357 01dd 01       		.uleb128 0x1
 2358 01de 13       		.uleb128 0x13
 2359 01df 00       		.byte	0
 2360 01e0 00       		.byte	0
 2361 01e1 29       		.uleb128 0x29
 2362 01e2 05       		.uleb128 0x5
 2363 01e3 00       		.byte	0
 2364 01e4 03       		.uleb128 0x3
 2365 01e5 08       		.uleb128 0x8
 2366 01e6 3A       		.uleb128 0x3a
 2367 01e7 0B       		.uleb128 0xb
ARM GAS  /tmp/cc6nBpmr.s 			page 43


 2368 01e8 3B       		.uleb128 0x3b
 2369 01e9 0B       		.uleb128 0xb
 2370 01ea 49       		.uleb128 0x49
 2371 01eb 13       		.uleb128 0x13
 2372 01ec 02       		.uleb128 0x2
 2373 01ed 17       		.uleb128 0x17
 2374 01ee 00       		.byte	0
 2375 01ef 00       		.byte	0
 2376 01f0 2A       		.uleb128 0x2a
 2377 01f1 898201   		.uleb128 0x4109
 2378 01f4 01       		.byte	0x1
 2379 01f5 11       		.uleb128 0x11
 2380 01f6 01       		.uleb128 0x1
 2381 01f7 9542     		.uleb128 0x2115
 2382 01f9 19       		.uleb128 0x19
 2383 01fa 31       		.uleb128 0x31
 2384 01fb 13       		.uleb128 0x13
 2385 01fc 00       		.byte	0
 2386 01fd 00       		.byte	0
 2387 01fe 2B       		.uleb128 0x2b
 2388 01ff 2E       		.uleb128 0x2e
 2389 0200 01       		.byte	0x1
 2390 0201 3F       		.uleb128 0x3f
 2391 0202 19       		.uleb128 0x19
 2392 0203 03       		.uleb128 0x3
 2393 0204 0E       		.uleb128 0xe
 2394 0205 3A       		.uleb128 0x3a
 2395 0206 0B       		.uleb128 0xb
 2396 0207 3B       		.uleb128 0x3b
 2397 0208 0B       		.uleb128 0xb
 2398 0209 27       		.uleb128 0x27
 2399 020a 19       		.uleb128 0x19
 2400 020b 49       		.uleb128 0x49
 2401 020c 13       		.uleb128 0x13
 2402 020d 11       		.uleb128 0x11
 2403 020e 01       		.uleb128 0x1
 2404 020f 12       		.uleb128 0x12
 2405 0210 06       		.uleb128 0x6
 2406 0211 40       		.uleb128 0x40
 2407 0212 18       		.uleb128 0x18
 2408 0213 9742     		.uleb128 0x2117
 2409 0215 19       		.uleb128 0x19
 2410 0216 01       		.uleb128 0x1
 2411 0217 13       		.uleb128 0x13
 2412 0218 00       		.byte	0
 2413 0219 00       		.byte	0
 2414 021a 2C       		.uleb128 0x2c
 2415 021b 898201   		.uleb128 0x4109
 2416 021e 00       		.byte	0
 2417 021f 11       		.uleb128 0x11
 2418 0220 01       		.uleb128 0x1
 2419 0221 31       		.uleb128 0x31
 2420 0222 13       		.uleb128 0x13
 2421 0223 00       		.byte	0
 2422 0224 00       		.byte	0
 2423 0225 2D       		.uleb128 0x2d
 2424 0226 898201   		.uleb128 0x4109
ARM GAS  /tmp/cc6nBpmr.s 			page 44


 2425 0229 01       		.byte	0x1
 2426 022a 11       		.uleb128 0x11
 2427 022b 01       		.uleb128 0x1
 2428 022c 31       		.uleb128 0x31
 2429 022d 13       		.uleb128 0x13
 2430 022e 01       		.uleb128 0x1
 2431 022f 13       		.uleb128 0x13
 2432 0230 00       		.byte	0
 2433 0231 00       		.byte	0
 2434 0232 2E       		.uleb128 0x2e
 2435 0233 34       		.uleb128 0x34
 2436 0234 00       		.byte	0
 2437 0235 03       		.uleb128 0x3
 2438 0236 0E       		.uleb128 0xe
 2439 0237 3A       		.uleb128 0x3a
 2440 0238 0B       		.uleb128 0xb
 2441 0239 3B       		.uleb128 0x3b
 2442 023a 05       		.uleb128 0x5
 2443 023b 49       		.uleb128 0x49
 2444 023c 13       		.uleb128 0x13
 2445 023d 3F       		.uleb128 0x3f
 2446 023e 19       		.uleb128 0x19
 2447 023f 3C       		.uleb128 0x3c
 2448 0240 19       		.uleb128 0x19
 2449 0241 00       		.byte	0
 2450 0242 00       		.byte	0
 2451 0243 2F       		.uleb128 0x2f
 2452 0244 34       		.uleb128 0x34
 2453 0245 00       		.byte	0
 2454 0246 03       		.uleb128 0x3
 2455 0247 08       		.uleb128 0x8
 2456 0248 3A       		.uleb128 0x3a
 2457 0249 0B       		.uleb128 0xb
 2458 024a 3B       		.uleb128 0x3b
 2459 024b 05       		.uleb128 0x5
 2460 024c 49       		.uleb128 0x49
 2461 024d 13       		.uleb128 0x13
 2462 024e 3F       		.uleb128 0x3f
 2463 024f 19       		.uleb128 0x19
 2464 0250 3C       		.uleb128 0x3c
 2465 0251 19       		.uleb128 0x19
 2466 0252 00       		.byte	0
 2467 0253 00       		.byte	0
 2468 0254 30       		.uleb128 0x30
 2469 0255 34       		.uleb128 0x34
 2470 0256 00       		.byte	0
 2471 0257 03       		.uleb128 0x3
 2472 0258 0E       		.uleb128 0xe
 2473 0259 3A       		.uleb128 0x3a
 2474 025a 0B       		.uleb128 0xb
 2475 025b 3B       		.uleb128 0x3b
 2476 025c 0B       		.uleb128 0xb
 2477 025d 49       		.uleb128 0x49
 2478 025e 13       		.uleb128 0x13
 2479 025f 3F       		.uleb128 0x3f
 2480 0260 19       		.uleb128 0x19
 2481 0261 02       		.uleb128 0x2
ARM GAS  /tmp/cc6nBpmr.s 			page 45


 2482 0262 18       		.uleb128 0x18
 2483 0263 00       		.byte	0
 2484 0264 00       		.byte	0
 2485 0265 31       		.uleb128 0x31
 2486 0266 2E       		.uleb128 0x2e
 2487 0267 01       		.byte	0x1
 2488 0268 3F       		.uleb128 0x3f
 2489 0269 19       		.uleb128 0x19
 2490 026a 03       		.uleb128 0x3
 2491 026b 0E       		.uleb128 0xe
 2492 026c 3A       		.uleb128 0x3a
 2493 026d 0B       		.uleb128 0xb
 2494 026e 3B       		.uleb128 0x3b
 2495 026f 0B       		.uleb128 0xb
 2496 0270 27       		.uleb128 0x27
 2497 0271 19       		.uleb128 0x19
 2498 0272 3C       		.uleb128 0x3c
 2499 0273 19       		.uleb128 0x19
 2500 0274 01       		.uleb128 0x1
 2501 0275 13       		.uleb128 0x13
 2502 0276 00       		.byte	0
 2503 0277 00       		.byte	0
 2504 0278 32       		.uleb128 0x32
 2505 0279 2E       		.uleb128 0x2e
 2506 027a 00       		.byte	0
 2507 027b 3F       		.uleb128 0x3f
 2508 027c 19       		.uleb128 0x19
 2509 027d 03       		.uleb128 0x3
 2510 027e 0E       		.uleb128 0xe
 2511 027f 3A       		.uleb128 0x3a
 2512 0280 0B       		.uleb128 0xb
 2513 0281 3B       		.uleb128 0x3b
 2514 0282 0B       		.uleb128 0xb
 2515 0283 27       		.uleb128 0x27
 2516 0284 19       		.uleb128 0x19
 2517 0285 3C       		.uleb128 0x3c
 2518 0286 19       		.uleb128 0x19
 2519 0287 00       		.byte	0
 2520 0288 00       		.byte	0
 2521 0289 33       		.uleb128 0x33
 2522 028a 2E       		.uleb128 0x2e
 2523 028b 01       		.byte	0x1
 2524 028c 3F       		.uleb128 0x3f
 2525 028d 19       		.uleb128 0x19
 2526 028e 03       		.uleb128 0x3
 2527 028f 0E       		.uleb128 0xe
 2528 0290 3A       		.uleb128 0x3a
 2529 0291 0B       		.uleb128 0xb
 2530 0292 3B       		.uleb128 0x3b
 2531 0293 05       		.uleb128 0x5
 2532 0294 27       		.uleb128 0x27
 2533 0295 19       		.uleb128 0x19
 2534 0296 3C       		.uleb128 0x3c
 2535 0297 19       		.uleb128 0x19
 2536 0298 01       		.uleb128 0x1
 2537 0299 13       		.uleb128 0x13
 2538 029a 00       		.byte	0
ARM GAS  /tmp/cc6nBpmr.s 			page 46


 2539 029b 00       		.byte	0
 2540 029c 34       		.uleb128 0x34
 2541 029d 2E       		.uleb128 0x2e
 2542 029e 00       		.byte	0
 2543 029f 3F       		.uleb128 0x3f
 2544 02a0 19       		.uleb128 0x19
 2545 02a1 03       		.uleb128 0x3
 2546 02a2 08       		.uleb128 0x8
 2547 02a3 3A       		.uleb128 0x3a
 2548 02a4 0B       		.uleb128 0xb
 2549 02a5 3B       		.uleb128 0x3b
 2550 02a6 0B       		.uleb128 0xb
 2551 02a7 27       		.uleb128 0x27
 2552 02a8 19       		.uleb128 0x19
 2553 02a9 49       		.uleb128 0x49
 2554 02aa 13       		.uleb128 0x13
 2555 02ab 3C       		.uleb128 0x3c
 2556 02ac 19       		.uleb128 0x19
 2557 02ad 00       		.byte	0
 2558 02ae 00       		.byte	0
 2559 02af 35       		.uleb128 0x35
 2560 02b0 2E       		.uleb128 0x2e
 2561 02b1 00       		.byte	0
 2562 02b2 3F       		.uleb128 0x3f
 2563 02b3 19       		.uleb128 0x19
 2564 02b4 03       		.uleb128 0x3
 2565 02b5 0E       		.uleb128 0xe
 2566 02b6 3A       		.uleb128 0x3a
 2567 02b7 0B       		.uleb128 0xb
 2568 02b8 3B       		.uleb128 0x3b
 2569 02b9 0B       		.uleb128 0xb
 2570 02ba 27       		.uleb128 0x27
 2571 02bb 19       		.uleb128 0x19
 2572 02bc 49       		.uleb128 0x49
 2573 02bd 13       		.uleb128 0x13
 2574 02be 3C       		.uleb128 0x3c
 2575 02bf 19       		.uleb128 0x19
 2576 02c0 00       		.byte	0
 2577 02c1 00       		.byte	0
 2578 02c2 36       		.uleb128 0x36
 2579 02c3 2E       		.uleb128 0x2e
 2580 02c4 01       		.byte	0x1
 2581 02c5 3F       		.uleb128 0x3f
 2582 02c6 19       		.uleb128 0x19
 2583 02c7 03       		.uleb128 0x3
 2584 02c8 0E       		.uleb128 0xe
 2585 02c9 3A       		.uleb128 0x3a
 2586 02ca 0B       		.uleb128 0xb
 2587 02cb 3B       		.uleb128 0x3b
 2588 02cc 0B       		.uleb128 0xb
 2589 02cd 27       		.uleb128 0x27
 2590 02ce 19       		.uleb128 0x19
 2591 02cf 49       		.uleb128 0x49
 2592 02d0 13       		.uleb128 0x13
 2593 02d1 3C       		.uleb128 0x3c
 2594 02d2 19       		.uleb128 0x19
 2595 02d3 00       		.byte	0
ARM GAS  /tmp/cc6nBpmr.s 			page 47


 2596 02d4 00       		.byte	0
 2597 02d5 00       		.byte	0
 2598              		.section	.debug_loc,"",%progbits
 2599              	.Ldebug_loc0:
 2600              	.LLST0:
 2601 0000 00000000 		.4byte	.LVL0
 2602 0004 0C000000 		.4byte	.LVL1
 2603 0008 0100     		.2byte	0x1
 2604 000a 50       		.byte	0x50
 2605 000b 0C000000 		.4byte	.LVL1
 2606 000f 26000000 		.4byte	.LFE121
 2607 0013 0400     		.2byte	0x4
 2608 0015 F3       		.byte	0xf3
 2609 0016 01       		.uleb128 0x1
 2610 0017 50       		.byte	0x50
 2611 0018 9F       		.byte	0x9f
 2612 0019 00000000 		.4byte	0
 2613 001d 00000000 		.4byte	0
 2614              	.LLST1:
 2615 0021 00000000 		.4byte	.LVL3
 2616 0025 04000000 		.4byte	.LVL4
 2617 0029 0100     		.2byte	0x1
 2618 002b 50       		.byte	0x50
 2619 002c 04000000 		.4byte	.LVL4
 2620 0030 14000000 		.4byte	.LFE119
 2621 0034 0400     		.2byte	0x4
 2622 0036 F3       		.byte	0xf3
 2623 0037 01       		.uleb128 0x1
 2624 0038 50       		.byte	0x50
 2625 0039 9F       		.byte	0x9f
 2626 003a 00000000 		.4byte	0
 2627 003e 00000000 		.4byte	0
 2628              		.section	.debug_aranges,"",%progbits
 2629 0000 2C000000 		.4byte	0x2c
 2630 0004 0200     		.2byte	0x2
 2631 0006 00000000 		.4byte	.Ldebug_info0
 2632 000a 04       		.byte	0x4
 2633 000b 00       		.byte	0
 2634 000c 0000     		.2byte	0
 2635 000e 0000     		.2byte	0
 2636 0010 00000000 		.4byte	.LFB121
 2637 0014 26000000 		.4byte	.LFE121-.LFB121
 2638 0018 00000000 		.4byte	.LFB119
 2639 001c 14000000 		.4byte	.LFE119-.LFB119
 2640 0020 00000000 		.4byte	.LFB120
 2641 0024 B0000000 		.4byte	.LFE120-.LFB120
 2642 0028 00000000 		.4byte	0
 2643 002c 00000000 		.4byte	0
 2644              		.section	.debug_ranges,"",%progbits
 2645              	.Ldebug_ranges0:
 2646 0000 00000000 		.4byte	.LFB121
 2647 0004 26000000 		.4byte	.LFE121
 2648 0008 00000000 		.4byte	.LFB119
 2649 000c 14000000 		.4byte	.LFE119
 2650 0010 00000000 		.4byte	.LFB120
 2651 0014 B0000000 		.4byte	.LFE120
 2652 0018 00000000 		.4byte	0
ARM GAS  /tmp/cc6nBpmr.s 			page 48


 2653 001c 00000000 		.4byte	0
 2654              		.section	.debug_line,"",%progbits
 2655              	.Ldebug_line0:
 2656 0000 EF020000 		.section	.debug_str,"MS",%progbits,1
 2656      02009A02 
 2656      00000201 
 2656      FB0E0D00 
 2656      01010101 
 2657              	.LASF135:
 2658 0000 63684F51 		.ascii	"chOQInit\000"
 2658      496E6974 
 2658      00
 2659              	.LASF2:
 2660 0009 73697A65 		.ascii	"size_t\000"
 2660      5F7400
 2661              	.LASF65:
 2662 0010 7264796D 		.ascii	"rdymsg\000"
 2662      736700
 2663              	.LASF81:
 2664 0017 4F757470 		.ascii	"OutputQueue\000"
 2664      75745175 
 2664      65756500 
 2665              	.LASF3:
 2666 0023 5F5F7569 		.ascii	"__uint8_t\000"
 2666      6E74385F 
 2666      7400
 2667              	.LASF97:
 2668 002d 4F545950 		.ascii	"OTYPER\000"
 2668      455200
 2669              	.LASF128:
 2670 0034 76615F6C 		.ascii	"va_list\000"
 2670      69737400 
 2671              	.LASF105:
 2672 003c 696F706F 		.ascii	"ioportmask_t\000"
 2672      72746D61 
 2672      736B5F74 
 2672      00
 2673              	.LASF140:
 2674 0049 474E5520 		.ascii	"GNU C 4.8.2 -mcpu=cortex-m4 -mno-thumb-interwork -m"
 2674      4320342E 
 2674      382E3220 
 2674      2D6D6370 
 2674      753D636F 
 2675 007c 7468756D 		.ascii	"thumb -ggdb -O2 -fomit-frame-pointer -falign-functi"
 2675      62202D67 
 2675      67646220 
 2675      2D4F3220 
 2675      2D666F6D 
 2676 00af 6F6E733D 		.ascii	"ons=16 -ffunction-sections -fdata-sections -fno-com"
 2676      3136202D 
 2676      6666756E 
 2676      6374696F 
 2676      6E2D7365 
 2677 00e2 6D6F6E00 		.ascii	"mon\000"
 2678              	.LASF96:
 2679 00e6 4D4F4445 		.ascii	"MODER\000"
 2679      5200
ARM GAS  /tmp/cc6nBpmr.s 			page 49


 2680              	.LASF13:
 2681 00ec 6C6F6E67 		.ascii	"long long unsigned int\000"
 2681      206C6F6E 
 2681      6720756E 
 2681      7369676E 
 2681      65642069 
 2682              	.LASF99:
 2683 0103 50555044 		.ascii	"PUPDR\000"
 2683      5200
 2684              	.LASF66:
 2685 0109 65786974 		.ascii	"exitcode\000"
 2685      636F6465 
 2685      00
 2686              	.LASF129:
 2687 0112 49544D5F 		.ascii	"ITM_RxBuffer\000"
 2687      52784275 
 2687      66666572 
 2687      00
 2688              	.LASF31:
 2689 011f 705F7072 		.ascii	"p_prio\000"
 2689      696F00
 2690              	.LASF124:
 2691 0126 72656164 		.ascii	"readt\000"
 2691      7400
 2692              	.LASF71:
 2693 012c 715F7761 		.ascii	"q_waiting\000"
 2693      6974696E 
 2693      6700
 2694              	.LASF12:
 2695 0136 6C6F6E67 		.ascii	"long long int\000"
 2695      206C6F6E 
 2695      6720696E 
 2695      7400
 2696              	.LASF1:
 2697 0144 7369676E 		.ascii	"signed char\000"
 2697      65642063 
 2697      68617200 
 2698              	.LASF100:
 2699 0150 42535252 		.ascii	"BSRR\000"
 2699      00
 2700              	.LASF133:
 2701 0155 63685379 		.ascii	"chSysInit\000"
 2701      73496E69 
 2701      7400
 2702              	.LASF92:
 2703 015f 47545052 		.ascii	"GTPR\000"
 2703      00
 2704              	.LASF47:
 2705 0164 705F6D70 		.ascii	"p_mpool\000"
 2705      6F6F6C00 
 2706              	.LASF55:
 2707 016c 6D5F7175 		.ascii	"m_queue\000"
 2707      65756500 
 2708              	.LASF139:
 2709 0174 6D6F7676 		.ascii	"movv\000"
 2709      00
 2710              	.LASF22:
ARM GAS  /tmp/cc6nBpmr.s 			page 50


 2711 0179 74736C69 		.ascii	"tslices_t\000"
 2711      6365735F 
 2711      7400
 2712              	.LASF130:
 2713 0183 62756666 		.ascii	"buff\000"
 2713      00
 2714              	.LASF114:
 2715 0188 73746174 		.ascii	"state\000"
 2715      6500
 2716              	.LASF9:
 2717 018e 6C6F6E67 		.ascii	"long int\000"
 2717      20696E74 
 2717      00
 2718              	.LASF20:
 2719 0197 74737461 		.ascii	"tstate_t\000"
 2719      74655F74 
 2719      00
 2720              	.LASF126:
 2721 01a0 5F5F7661 		.ascii	"__va_list\000"
 2721      5F6C6973 
 2721      7400
 2722              	.LASF38:
 2723 01aa 705F7265 		.ascii	"p_refs\000"
 2723      667300
 2724              	.LASF73:
 2725 01b1 715F6275 		.ascii	"q_buffer\000"
 2725      66666572 
 2725      00
 2726              	.LASF75:
 2727 01ba 715F7772 		.ascii	"q_wrptr\000"
 2727      70747200 
 2728              	.LASF78:
 2729 01c2 715F6C69 		.ascii	"q_link\000"
 2729      6E6B00
 2730              	.LASF33:
 2731 01c9 705F6E65 		.ascii	"p_newer\000"
 2731      77657200 
 2732              	.LASF98:
 2733 01d1 4F535045 		.ascii	"OSPEEDR\000"
 2733      45445200 
 2734              	.LASF10:
 2735 01d9 5F5F7569 		.ascii	"__uint32_t\000"
 2735      6E743332 
 2735      5F7400
 2736              	.LASF50:
 2737 01e4 72656761 		.ascii	"regarm_t\000"
 2737      726D5F74 
 2737      00
 2738              	.LASF144:
 2739 01ed 7072696E 		.ascii	"print_msg\000"
 2739      745F6D73 
 2739      6700
 2740              	.LASF63:
 2741 01f7 4576656E 		.ascii	"EventSource\000"
 2741      74536F75 
 2741      72636500 
 2742              	.LASF85:
ARM GAS  /tmp/cc6nBpmr.s 			page 51


 2743 0203 42617365 		.ascii	"BaseSequentialStream\000"
 2743      53657175 
 2743      656E7469 
 2743      616C5374 
 2743      7265616D 
 2744              	.LASF117:
 2745 0218 75736172 		.ascii	"usart\000"
 2745      7400
 2746              	.LASF0:
 2747 021e 756E7369 		.ascii	"unsigned int\000"
 2747      676E6564 
 2747      20696E74 
 2747      00
 2748              	.LASF15:
 2749 022b 75696E74 		.ascii	"uint16_t\000"
 2749      31365F74 
 2749      00
 2750              	.LASF120:
 2751 0234 53657269 		.ascii	"SerialDriverVMT\000"
 2751      616C4472 
 2751      69766572 
 2751      564D5400 
 2752              	.LASF40:
 2753 0244 705F7469 		.ascii	"p_time\000"
 2753      6D6500
 2754              	.LASF115:
 2755 024b 69717565 		.ascii	"iqueue\000"
 2755      756500
 2756              	.LASF42:
 2757 0252 705F6D73 		.ascii	"p_msgqueue\000"
 2757      67717565 
 2757      756500
 2758              	.LASF104:
 2759 025d 4750494F 		.ascii	"GPIO_TypeDef\000"
 2759      5F547970 
 2759      65446566 
 2759      00
 2760              	.LASF132:
 2761 026a 68616C49 		.ascii	"halInit\000"
 2761      6E697400 
 2762              	.LASF103:
 2763 0272 41465248 		.ascii	"AFRH\000"
 2763      00
 2764              	.LASF122:
 2765 0277 67657474 		.ascii	"gett\000"
 2765      00
 2766              	.LASF113:
 2767 027c 6576656E 		.ascii	"event\000"
 2767      7400
 2768              	.LASF7:
 2769 0282 73686F72 		.ascii	"short unsigned int\000"
 2769      7420756E 
 2769      7369676E 
 2769      65642069 
 2769      6E7400
 2770              	.LASF24:
 2771 0295 6D73675F 		.ascii	"msg_t\000"
ARM GAS  /tmp/cc6nBpmr.s 			page 52


 2771      7400
 2772              	.LASF116:
 2773 029b 6F717565 		.ascii	"oqueue\000"
 2773      756500
 2774              	.LASF94:
 2775 02a2 55534152 		.ascii	"USART_TypeDef\000"
 2775      545F5479 
 2775      70654465 
 2775      6600
 2776              	.LASF123:
 2777 02b0 77726974 		.ascii	"writet\000"
 2777      657400
 2778              	.LASF19:
 2779 02b7 746D6F64 		.ascii	"tmode_t\000"
 2779      655F7400 
 2780              	.LASF49:
 2781 02bf 54687265 		.ascii	"ThreadsList\000"
 2781      6164734C 
 2781      69737400 
 2782              	.LASF25:
 2783 02cb 6576656E 		.ascii	"eventmask_t\000"
 2783      746D6173 
 2783      6B5F7400 
 2784              	.LASF80:
 2785 02d7 496E7075 		.ascii	"InputQueue\000"
 2785      74517565 
 2785      756500
 2786              	.LASF118:
 2787 02e2 73706565 		.ascii	"speed\000"
 2787      6400
 2788              	.LASF79:
 2789 02e8 716E6F74 		.ascii	"qnotify_t\000"
 2789      6966795F 
 2789      7400
 2790              	.LASF70:
 2791 02f2 47656E65 		.ascii	"GenericQueue\000"
 2791      72696351 
 2791      75657565 
 2791      00
 2792              	.LASF83:
 2793 02ff 77726974 		.ascii	"write\000"
 2793      6500
 2794              	.LASF121:
 2795 0305 70757474 		.ascii	"putt\000"
 2795      00
 2796              	.LASF53:
 2797 030a 73697A65 		.ascii	"sizetype\000"
 2797      74797065 
 2797      00
 2798              	.LASF95:
 2799 0313 636C6561 		.ascii	"clear\000"
 2799      7200
 2800              	.LASF54:
 2801 0319 4D757465 		.ascii	"Mutex\000"
 2801      7800
 2802              	.LASF125:
 2803 031f 5F5F676E 		.ascii	"__gnuc_va_list\000"
ARM GAS  /tmp/cc6nBpmr.s 			page 53


 2803      75635F76 
 2803      615F6C69 
 2803      737400
 2804              	.LASF61:
 2805 032e 656C5F6D 		.ascii	"el_mask\000"
 2805      61736B00 
 2806              	.LASF34:
 2807 0336 705F6F6C 		.ascii	"p_older\000"
 2807      64657200 
 2808              	.LASF48:
 2809 033e 54687265 		.ascii	"ThreadsQueue\000"
 2809      61647351 
 2809      75657565 
 2809      00
 2810              	.LASF141:
 2811 034b 6D61696E 		.ascii	"main.c\000"
 2811      2E6300
 2812              	.LASF119:
 2813 0352 53657269 		.ascii	"SerialConfig\000"
 2813      616C436F 
 2813      6E666967 
 2813      00
 2814              	.LASF102:
 2815 035f 4146524C 		.ascii	"AFRL\000"
 2815      00
 2816              	.LASF142:
 2817 0364 2F686F6D 		.ascii	"/home/ece497/vbox-shared/mplayer/ChibiOS-RT-stable_"
 2817      652F6563 
 2817      65343937 
 2817      2F76626F 
 2817      782D7368 
 2818 0397 322E362E 		.ascii	"2.6.x/demos/IO_QUEUE\000"
 2818      782F6465 
 2818      6D6F732F 
 2818      494F5F51 
 2818      55455545 
 2819              	.LASF21:
 2820 03ac 74726566 		.ascii	"trefs_t\000"
 2820      735F7400 
 2821              	.LASF86:
 2822 03b4 52455345 		.ascii	"RESERVED0\000"
 2822      52564544 
 2822      3000
 2823              	.LASF87:
 2824 03be 52455345 		.ascii	"RESERVED1\000"
 2824      52564544 
 2824      3100
 2825              	.LASF88:
 2826 03c8 52455345 		.ascii	"RESERVED2\000"
 2826      52564544 
 2826      3200
 2827              	.LASF89:
 2828 03d2 52455345 		.ascii	"RESERVED3\000"
 2828      52564544 
 2828      3300
 2829              	.LASF90:
 2830 03dc 52455345 		.ascii	"RESERVED4\000"
ARM GAS  /tmp/cc6nBpmr.s 			page 54


 2830      52564544 
 2830      3400
 2831              	.LASF30:
 2832 03e6 705F7072 		.ascii	"p_prev\000"
 2832      657600
 2833              	.LASF93:
 2834 03ed 52455345 		.ascii	"RESERVED6\000"
 2834      52564544 
 2834      3600
 2835              	.LASF23:
 2836 03f7 74707269 		.ascii	"tprio_t\000"
 2836      6F5F7400 
 2837              	.LASF76:
 2838 03ff 715F7264 		.ascii	"q_rdptr\000"
 2838      70747200 
 2839              	.LASF18:
 2840 0407 5F426F6F 		.ascii	"_Bool\000"
 2840      6C00
 2841              	.LASF16:
 2842 040d 696E7433 		.ascii	"int32_t\000"
 2842      325F7400 
 2843              	.LASF4:
 2844 0415 756E7369 		.ascii	"unsigned char\000"
 2844      676E6564 
 2844      20636861 
 2844      7200
 2845              	.LASF60:
 2846 0423 656C5F6C 		.ascii	"el_listener\000"
 2846      69737465 
 2846      6E657200 
 2847              	.LASF62:
 2848 042f 656C5F66 		.ascii	"el_flags\000"
 2848      6C616773 
 2848      00
 2849              	.LASF45:
 2850 0438 705F6D74 		.ascii	"p_mtxlist\000"
 2850      786C6973 
 2850      7400
 2851              	.LASF5:
 2852 0442 73686F72 		.ascii	"short int\000"
 2852      7420696E 
 2852      7400
 2853              	.LASF36:
 2854 044c 705F7374 		.ascii	"p_state\000"
 2854      61746500 
 2855              	.LASF39:
 2856 0454 705F7072 		.ascii	"p_preempt\000"
 2856      65656D70 
 2856      7400
 2857              	.LASF131:
 2858 045e 4F515545 		.ascii	"OQUEUE\000"
 2858      554500
 2859              	.LASF68:
 2860 0465 65776D61 		.ascii	"ewmask\000"
 2860      736B00
 2861              	.LASF29:
 2862 046c 705F6E65 		.ascii	"p_next\000"
ARM GAS  /tmp/cc6nBpmr.s 			page 55


 2862      787400
 2863              	.LASF82:
 2864 0473 42617365 		.ascii	"BaseSequentialStreamVMT\000"
 2864      53657175 
 2864      656E7469 
 2864      616C5374 
 2864      7265616D 
 2865              	.LASF37:
 2866 048b 705F666C 		.ascii	"p_flags\000"
 2866      61677300 
 2867              	.LASF59:
 2868 0493 656C5F6E 		.ascii	"el_next\000"
 2868      65787400 
 2869              	.LASF109:
 2870 049b 53445F53 		.ascii	"SD_STOP\000"
 2870      544F5000 
 2871              	.LASF28:
 2872 04a3 54687265 		.ascii	"Thread\000"
 2872      616400
 2873              	.LASF101:
 2874 04aa 4C434B52 		.ascii	"LCKR\000"
 2874      00
 2875              	.LASF26:
 2876 04af 666C6167 		.ascii	"flagsmask_t\000"
 2876      736D6173 
 2876      6B5F7400 
 2877              	.LASF44:
 2878 04bb 705F6570 		.ascii	"p_epending\000"
 2878      656E6469 
 2878      6E6700
 2879              	.LASF108:
 2880 04c6 53445F55 		.ascii	"SD_UNINIT\000"
 2880      4E494E49 
 2880      5400
 2881              	.LASF91:
 2882 04d0 52455345 		.ascii	"RESERVED5\000"
 2882      52564544 
 2882      3500
 2883              	.LASF72:
 2884 04da 715F636F 		.ascii	"q_counter\000"
 2884      756E7465 
 2884      7200
 2885              	.LASF111:
 2886 04e4 73647374 		.ascii	"sdstate_t\000"
 2886      6174655F 
 2886      7400
 2887              	.LASF112:
 2888 04ee 53657269 		.ascii	"SerialDriver\000"
 2888      616C4472 
 2888      69766572 
 2888      00
 2889              	.LASF11:
 2890 04fb 6C6F6E67 		.ascii	"long unsigned int\000"
 2890      20756E73 
 2890      69676E65 
 2890      6420696E 
 2890      7400
ARM GAS  /tmp/cc6nBpmr.s 			page 56


 2891              	.LASF84:
 2892 050d 72656164 		.ascii	"read\000"
 2892      00
 2893              	.LASF69:
 2894 0512 63686172 		.ascii	"char\000"
 2894      00
 2895              	.LASF136:
 2896 0517 73645374 		.ascii	"sdStart\000"
 2896      61727400 
 2897              	.LASF6:
 2898 051f 5F5F7569 		.ascii	"__uint16_t\000"
 2898      6E743136 
 2898      5F7400
 2899              	.LASF57:
 2900 052a 6D5F6E65 		.ascii	"m_next\000"
 2900      787400
 2901              	.LASF27:
 2902 0531 73797374 		.ascii	"systime_t\000"
 2902      696D655F 
 2902      7400
 2903              	.LASF46:
 2904 053b 705F7265 		.ascii	"p_realprio\000"
 2904      616C7072 
 2904      696F00
 2905              	.LASF8:
 2906 0546 5F5F696E 		.ascii	"__int32_t\000"
 2906      7433325F 
 2906      7400
 2907              	.LASF107:
 2908 0550 696F706F 		.ascii	"ioportid_t\000"
 2908      72746964 
 2908      5F7400
 2909              	.LASF127:
 2910 055b 5F5F6170 		.ascii	"__ap\000"
 2910      00
 2911              	.LASF52:
 2912 0560 636F6E74 		.ascii	"context\000"
 2912      65787400 
 2913              	.LASF137:
 2914 0568 5F70616C 		.ascii	"_pal_lld_setgroupmode\000"
 2914      5F6C6C64 
 2914      5F736574 
 2914      67726F75 
 2914      706D6F64 
 2915              	.LASF51:
 2916 057e 696E7463 		.ascii	"intctx\000"
 2916      747800
 2917              	.LASF110:
 2918 0585 53445F52 		.ascii	"SD_READY\000"
 2918      45414459 
 2918      00
 2919              	.LASF17:
 2920 058e 75696E74 		.ascii	"uint32_t\000"
 2920      33325F74 
 2920      00
 2921              	.LASF74:
 2922 0597 715F746F 		.ascii	"q_top\000"
ARM GAS  /tmp/cc6nBpmr.s 			page 57


 2922      7000
 2923              	.LASF35:
 2924 059d 705F6E61 		.ascii	"p_name\000"
 2924      6D6500
 2925              	.LASF64:
 2926 05a4 65735F6E 		.ascii	"es_next\000"
 2926      65787400 
 2927              	.LASF77:
 2928 05ac 715F6E6F 		.ascii	"q_notify\000"
 2928      74696679 
 2928      00
 2929              	.LASF14:
 2930 05b5 75696E74 		.ascii	"uint8_t\000"
 2930      385F7400 
 2931              	.LASF134:
 2932 05bd 63687670 		.ascii	"chvprintf\000"
 2932      72696E74 
 2932      6600
 2933              	.LASF58:
 2934 05c7 4576656E 		.ascii	"EventListener\000"
 2934      744C6973 
 2934      74656E65 
 2934      7200
 2935              	.LASF67:
 2936 05d5 77746F62 		.ascii	"wtobjp\000"
 2936      6A7000
 2937              	.LASF138:
 2938 05dc 70757474 		.ascii	"puttop\000"
 2938      6F7000
 2939              	.LASF43:
 2940 05e3 705F6D73 		.ascii	"p_msg\000"
 2940      6700
 2941              	.LASF145:
 2942 05e9 6D61696E 		.ascii	"main\000"
 2942      00
 2943              	.LASF106:
 2944 05ee 696F6D6F 		.ascii	"iomode_t\000"
 2944      64655F74 
 2944      00
 2945              	.LASF56:
 2946 05f7 6D5F6F77 		.ascii	"m_owner\000"
 2946      6E657200 
 2947              	.LASF32:
 2948 05ff 705F6374 		.ascii	"p_ctx\000"
 2948      7800
 2949              	.LASF41:
 2950 0605 705F7761 		.ascii	"p_waiting\000"
 2950      6974696E 
 2950      6700
 2951              	.LASF143:
 2952 060f 63687072 		.ascii	"chprintf\000"
 2952      696E7466 
 2952      00
 2953              		.ident	"GCC: (Arch Repository) 4.8.2"
ARM GAS  /tmp/cc6nBpmr.s 			page 58


DEFINED SYMBOLS
                            *ABS*:0000000000000000 main.c
     /tmp/cc6nBpmr.s:19     .text.chprintf.constprop.0:0000000000000000 $t
     /tmp/cc6nBpmr.s:24     .text.chprintf.constprop.0:0000000000000000 chprintf.constprop.0
     /tmp/cc6nBpmr.s:67     .text.print_msg:0000000000000000 $t
     /tmp/cc6nBpmr.s:73     .text.print_msg:0000000000000000 print_msg
     /tmp/cc6nBpmr.s:222    .rodata.str1.4:0000000000000000 .LC0
     /tmp/cc6nBpmr.s:94     .text.startup.main:0000000000000000 $t
     /tmp/cc6nBpmr.s:100    .text.startup.main:0000000000000000 main
     /tmp/cc6nBpmr.s:207    .data.OQUEUE:0000000000000000 .LANCHOR0
     /tmp/cc6nBpmr.s:238    .bss.buff:0000000000000000 .LANCHOR1
     /tmp/cc6nBpmr.s:225    .rodata.str1.4:0000000000000010 .LC1
     /tmp/cc6nBpmr.s:227    .rodata.str1.4:0000000000000028 .LC2
     /tmp/cc6nBpmr.s:230    .rodata.str1.4:0000000000000030 .LC3
     /tmp/cc6nBpmr.s:233    .rodata.str1.4:0000000000000048 .LC4
     /tmp/cc6nBpmr.s:210    .data.OQUEUE:0000000000000000 OQUEUE
     /tmp/cc6nBpmr.s:241    .bss.buff:0000000000000000 buff
     /tmp/cc6nBpmr.s:206    .data.OQUEUE:0000000000000000 $d
     /tmp/cc6nBpmr.s:221    .rodata.str1.4:0000000000000000 $d
     /tmp/cc6nBpmr.s:237    .bss.buff:0000000000000000 $d
                     .debug_frame:0000000000000010 $d

UNDEFINED SYMBOLS
SD2
chvprintf
halInit
chSysInit
chOQInit
sdStart
_pal_lld_setgroupmode
cls
puttop
movv
