ARM GAS  /tmp/ccIdPd4y.s 			page 1


   1              		.syntax unified
   2              		.cpu cortex-m4
   3              		.fpu softvfp
   4              		.eabi_attribute 20, 1
   5              		.eabi_attribute 21, 1
   6              		.eabi_attribute 23, 3
   7              		.eabi_attribute 24, 1
   8              		.eabi_attribute 25, 1
   9              		.eabi_attribute 26, 1
  10              		.eabi_attribute 30, 2
  11              		.eabi_attribute 34, 1
  12              		.eabi_attribute 18, 4
  13              		.thumb
  14              		.file	"mmc_spi.c"
  15              		.text
  16              	.Ltext0:
  17              		.cfi_sections	.debug_frame
  18              		.section	.text.mmcGetInfo,"ax",%progbits
  19              		.align	2
  20              		.p2align 4,,15
  21              		.global	mmcGetInfo
  22              		.thumb
  23              		.thumb_func
  24              		.type	mmcGetInfo, %function
  25              	mmcGetInfo:
  26              	.LFB142:
  27              		.file 1 "../../os/hal/src/mmc_spi.c"
  28              		.loc 1 825 0
  29              		.cfi_startproc
  30              		@ args = 0, pretend = 0, frame = 0
  31              		@ frame_needed = 0, uses_anonymous_args = 0
  32              		@ link register save eliminated.
  33              	.LVL0:
  34              		.loc 1 829 0
  35 0000 0379     		ldrb	r3, [r0, #4]	@ zero_extendqisi2
  36 0002 052B     		cmp	r3, #5
  37              		.loc 1 832 0
  38 0004 01BF     		itttt	eq
  39 0006 836A     		ldreq	r3, [r0, #40]
  40              		.loc 1 833 0
  41 0008 4FF40072 		moveq	r2, #512
  42              		.loc 1 835 0
  43 000c 0020     		moveq	r0, #0
  44              	.LVL1:
  45              		.loc 1 833 0
  46 000e 81E80C00 		stmiaeq	r1, {r2, r3}
  47              		.loc 1 830 0
  48 0012 18BF     		it	ne
  49 0014 0120     		movne	r0, #1
  50              		.loc 1 836 0
  51 0016 7047     		bx	lr
  52              		.cfi_endproc
  53              	.LFE142:
  54              		.size	mmcGetInfo, .-mmcGetInfo
  55 0018 AFF30080 		.section	.text.wait.isra.0,"ax",%progbits
  55      AFF30080 
  56              		.align	2
ARM GAS  /tmp/ccIdPd4y.s 			page 2


  57              		.p2align 4,,15
  58              		.thumb
  59              		.thumb_func
  60              		.type	wait.isra.0, %function
  61              	wait.isra.0:
  62              	.LFB144:
  63              		.loc 1 164 0
  64              		.cfi_startproc
  65              		@ args = 0, pretend = 0, frame = 8
  66              		@ frame_needed = 0, uses_anonymous_args = 0
  67              	.LVL2:
  68 0000 30B5     		push	{r4, r5, lr}
  69              		.cfi_def_cfa_offset 12
  70              		.cfi_offset 4, -12
  71              		.cfi_offset 5, -8
  72              		.cfi_offset 14, -4
  73 0002 0546     		mov	r5, r0
  74 0004 83B0     		sub	sp, sp, #12
  75              		.cfi_def_cfa_offset 24
  76              		.loc 1 164 0
  77 0006 1024     		movs	r4, #16
  78              	.LVL3:
  79              	.L7:
  80              		.loc 1 169 0
  81 0008 2B68     		ldr	r3, [r5]
  82 000a 0121     		movs	r1, #1
  83 000c 1868     		ldr	r0, [r3]
  84 000e 01AA     		add	r2, sp, #4
  85 0010 FFF7FEFF 		bl	spiReceive
  86              	.LVL4:
  87              		.loc 1 170 0
  88 0014 9DF80430 		ldrb	r3, [sp, #4]	@ zero_extendqisi2
  89 0018 FF2B     		cmp	r3, #255
  90 001a 0FD0     		beq	.L4
  91              		.loc 1 168 0
  92 001c 013C     		subs	r4, r4, #1
  93              	.LVL5:
  94 001e F3D1     		bne	.L7
  95 0020 02E0     		b	.L9
  96              	.L18:
  97              		.loc 1 180 0
  98 0022 0120     		movs	r0, #1
  99 0024 FFF7FEFF 		bl	chThdSleep
 100              	.LVL6:
 101              	.L9:
 102              		.loc 1 175 0
 103 0028 2B68     		ldr	r3, [r5]
 104 002a 0121     		movs	r1, #1
 105 002c 1868     		ldr	r0, [r3]
 106 002e 01AA     		add	r2, sp, #4
 107 0030 FFF7FEFF 		bl	spiReceive
 108              	.LVL7:
 109              		.loc 1 176 0
 110 0034 9DF80430 		ldrb	r3, [sp, #4]	@ zero_extendqisi2
 111 0038 FF2B     		cmp	r3, #255
 112 003a F2D1     		bne	.L18
 113              	.LVL8:
ARM GAS  /tmp/ccIdPd4y.s 			page 3


 114              	.L4:
 115              		.loc 1 183 0
 116 003c 03B0     		add	sp, sp, #12
 117              		@ sp needed
 118 003e 30BD     		pop	{r4, r5, pc}
 119              		.cfi_endproc
 120              	.LFE144:
 121              		.size	wait.isra.0, .-wait.isra.0
 122              		.section	.text.send_hdr,"ax",%progbits
 123              		.align	2
 124              		.p2align 4,,15
 125              		.thumb
 126              		.thumb_func
 127              		.type	send_hdr, %function
 128              	send_hdr:
 129              	.LFB122:
 130              		.loc 1 194 0
 131              		.cfi_startproc
 132              		@ args = 0, pretend = 0, frame = 8
 133              		@ frame_needed = 0, uses_anonymous_args = 0
 134              	.LVL9:
 135 0000 70B5     		push	{r4, r5, r6, lr}
 136              		.cfi_def_cfa_offset 16
 137              		.cfi_offset 4, -16
 138              		.cfi_offset 5, -12
 139              		.cfi_offset 6, -8
 140              		.cfi_offset 14, -4
 141 0002 1546     		mov	r5, r2
 142 0004 82B0     		sub	sp, sp, #8
 143              		.cfi_def_cfa_offset 24
 144              		.loc 1 194 0
 145 0006 0C46     		mov	r4, r1
 146 0008 0646     		mov	r6, r0
 147              		.loc 1 198 0
 148 000a 2C30     		adds	r0, r0, #44
 149              	.LVL10:
 150 000c FFF7FEFF 		bl	wait.isra.0
 151              	.LVL11:
 152              		.loc 1 202 0
 153 0010 2A0C     		lsrs	r2, r5, #16
 154              		.loc 1 203 0
 155 0012 2B0A     		lsrs	r3, r5, #8
 156              		.loc 1 200 0
 157 0014 44F04001 		orr	r1, r4, #64
 158              		.loc 1 201 0
 159 0018 280E     		lsrs	r0, r5, #24
 160 001a 40F20004 		movw	r4, #:lower16:.LANCHOR0
 161              		.loc 1 204 0
 162 001e 8DF80450 		strb	r5, [sp, #4]
 163              	.LVL12:
 164              		.loc 1 202 0
 165 0022 8DF80220 		strb	r2, [sp, #2]
 166              		.loc 1 203 0
 167 0026 8DF80330 		strb	r3, [sp, #3]
 168              		.loc 1 200 0
 169 002a 8DF80010 		strb	r1, [sp]
 170              		.loc 1 201 0
ARM GAS  /tmp/ccIdPd4y.s 			page 4


 171 002e 8DF80100 		strb	r0, [sp, #1]
 172 0032 6B46     		mov	r3, sp
 173 0034 C0F20004 		movt	r4, #:upper16:.LANCHOR0
 174 0038 01AD     		add	r5, sp, #4
 175              	.LVL13:
 176              		.loc 1 204 0
 177 003a 0022     		movs	r2, #0
 178 003c 01E0     		b	.L21
 179              	.LVL14:
 180              	.L23:
 181 003e 13F8011F 		ldrb	r1, [r3, #1]!	@ zero_extendqisi2
 182              	.LVL15:
 183              	.L21:
 184              	.LBB7:
 185              	.LBB8:
 186              		.loc 1 153 0
 187 0042 81EA4202 		eor	r2, r1, r2, lsl #1
 188              	.LVL16:
 189              		.loc 1 152 0
 190 0046 AB42     		cmp	r3, r5
 191              		.loc 1 153 0
 192 0048 A25C     		ldrb	r2, [r4, r2]	@ zero_extendqisi2
 193              	.LVL17:
 194              		.loc 1 152 0
 195 004a F8D1     		bne	.L23
 196              	.LBE8:
 197              	.LBE7:
 198              		.loc 1 206 0
 199 004c 5200     		lsls	r2, r2, #1
 200              	.LVL18:
 201              		.loc 1 208 0
 202 004e F36A     		ldr	r3, [r6, #44]
 203              	.LVL19:
 204              		.loc 1 206 0
 205 0050 42F00102 		orr	r2, r2, #1
 206 0054 8DF80520 		strb	r2, [sp, #5]
 207              		.loc 1 208 0
 208 0058 1868     		ldr	r0, [r3]
 209 005a 6A46     		mov	r2, sp
 210 005c 0621     		movs	r1, #6
 211 005e FFF7FEFF 		bl	spiSend
 212              	.LVL20:
 213              		.loc 1 209 0
 214 0062 02B0     		add	sp, sp, #8
 215              		@ sp needed
 216 0064 70BD     		pop	{r4, r5, r6, pc}
 217              		.cfi_endproc
 218              	.LFE122:
 219              		.size	send_hdr, .-send_hdr
 220 0066 00BFAFF3 		.section	.text.recvr1.isra.1,"ax",%progbits
 220      0080AFF3 
 220      0080
 221              		.align	2
 222              		.p2align 4,,15
 223              		.thumb
 224              		.thumb_func
 225              		.type	recvr1.isra.1, %function
ARM GAS  /tmp/ccIdPd4y.s 			page 5


 226              	recvr1.isra.1:
 227              	.LFB145:
 228              		.loc 1 220 0
 229              		.cfi_startproc
 230              		@ args = 0, pretend = 0, frame = 8
 231              		@ frame_needed = 0, uses_anonymous_args = 0
 232              	.LVL21:
 233 0000 30B5     		push	{r4, r5, lr}
 234              		.cfi_def_cfa_offset 12
 235              		.cfi_offset 4, -12
 236              		.cfi_offset 5, -8
 237              		.cfi_offset 14, -4
 238 0002 0546     		mov	r5, r0
 239 0004 83B0     		sub	sp, sp, #12
 240              		.cfi_def_cfa_offset 24
 241              		.loc 1 220 0
 242 0006 0924     		movs	r4, #9
 243              	.LVL22:
 244              	.L26:
 245              		.loc 1 225 0
 246 0008 2B68     		ldr	r3, [r5]
 247 000a 0121     		movs	r1, #1
 248 000c 1868     		ldr	r0, [r3]
 249 000e 01AA     		add	r2, sp, #4
 250 0010 FFF7FEFF 		bl	spiReceive
 251              	.LVL23:
 252              		.loc 1 226 0
 253 0014 9DF80400 		ldrb	r0, [sp, #4]	@ zero_extendqisi2
 254 0018 FF28     		cmp	r0, #255
 255 001a 01D1     		bne	.L25
 256              		.loc 1 224 0
 257 001c 013C     		subs	r4, r4, #1
 258              	.LVL24:
 259 001e F3D1     		bne	.L26
 260              	.LVL25:
 261              	.L25:
 262              		.loc 1 230 0
 263 0020 03B0     		add	sp, sp, #12
 264              		@ sp needed
 265 0022 30BD     		pop	{r4, r5, pc}
 266              		.cfi_endproc
 267              	.LFE145:
 268              		.size	recvr1.isra.1, .-recvr1.isra.1
 269 0024 AFF30080 		.section	.text.send_command_R3,"ax",%progbits
 269      AFF30080 
 269      AFF30080 
 270              		.align	2
 271              		.p2align 4,,15
 272              		.thumb
 273              		.thumb_func
 274              		.type	send_command_R3, %function
 275              	send_command_R3:
 276              	.LFB126:
 277              		.loc 1 286 0
 278              		.cfi_startproc
 279              		@ args = 0, pretend = 0, frame = 0
 280              		@ frame_needed = 0, uses_anonymous_args = 0
ARM GAS  /tmp/ccIdPd4y.s 			page 6


 281              	.LVL26:
 282 0000 F8B5     		push	{r3, r4, r5, r6, r7, lr}
 283              		.cfi_def_cfa_offset 24
 284              		.cfi_offset 3, -24
 285              		.cfi_offset 4, -20
 286              		.cfi_offset 5, -16
 287              		.cfi_offset 6, -12
 288              		.cfi_offset 7, -8
 289              		.cfi_offset 14, -4
 290              		.loc 1 286 0
 291 0002 0446     		mov	r4, r0
 292              		.loc 1 289 0
 293 0004 C06A     		ldr	r0, [r0, #44]
 294              	.LVL27:
 295              		.loc 1 286 0
 296 0006 0F46     		mov	r7, r1
 297 0008 1546     		mov	r5, r2
 298              		.loc 1 289 0
 299 000a 0068     		ldr	r0, [r0]
 300              		.loc 1 286 0
 301 000c 1E46     		mov	r6, r3
 302              		.loc 1 289 0
 303 000e FFF7FEFF 		bl	spiSelect
 304              	.LVL28:
 305              		.loc 1 290 0
 306 0012 3946     		mov	r1, r7
 307 0014 2A46     		mov	r2, r5
 308 0016 2046     		mov	r0, r4
 309 0018 FFF7FEFF 		bl	send_hdr
 310              	.LVL29:
 311              	.LBB11:
 312              	.LBB12:
 313              		.loc 1 245 0
 314 001c 04F12C00 		add	r0, r4, #44
 315 0020 FFF7FEFF 		bl	recvr1.isra.1
 316              	.LVL30:
 317              		.loc 1 246 0
 318 0024 E16A     		ldr	r1, [r4, #44]
 319              		.loc 1 245 0
 320 0026 0546     		mov	r5, r0
 321              	.LVL31:
 322              		.loc 1 246 0
 323 0028 3246     		mov	r2, r6
 324 002a 0868     		ldr	r0, [r1]
 325              	.LVL32:
 326 002c 0421     		movs	r1, #4
 327 002e FFF7FEFF 		bl	spiReceive
 328              	.LVL33:
 329              	.LBE12:
 330              	.LBE11:
 331              		.loc 1 292 0
 332 0032 E36A     		ldr	r3, [r4, #44]
 333 0034 1868     		ldr	r0, [r3]
 334 0036 FFF7FEFF 		bl	spiUnselect
 335              	.LVL34:
 336              		.loc 1 294 0
 337 003a 2846     		mov	r0, r5
ARM GAS  /tmp/ccIdPd4y.s 			page 7


 338 003c F8BD     		pop	{r3, r4, r5, r6, r7, pc}
 339              		.cfi_endproc
 340              	.LFE126:
 341              		.size	send_command_R3, .-send_command_R3
 342 003e 00BF     		.section	.text.send_command_R1,"ax",%progbits
 343              		.align	2
 344              		.p2align 4,,15
 345              		.thumb
 346              		.thumb_func
 347              		.type	send_command_R1, %function
 348              	send_command_R1:
 349              	.LFB125:
 350              		.loc 1 262 0
 351              		.cfi_startproc
 352              		@ args = 0, pretend = 0, frame = 0
 353              		@ frame_needed = 0, uses_anonymous_args = 0
 354              	.LVL35:
 355              		.loc 1 265 0
 356 0000 C36A     		ldr	r3, [r0, #44]
 357              		.loc 1 262 0
 358 0002 70B5     		push	{r4, r5, r6, lr}
 359              		.cfi_def_cfa_offset 16
 360              		.cfi_offset 4, -16
 361              		.cfi_offset 5, -12
 362              		.cfi_offset 6, -8
 363              		.cfi_offset 14, -4
 364              		.loc 1 262 0
 365 0004 0446     		mov	r4, r0
 366 0006 0E46     		mov	r6, r1
 367              		.loc 1 265 0
 368 0008 1868     		ldr	r0, [r3]
 369              	.LVL36:
 370              		.loc 1 262 0
 371 000a 1546     		mov	r5, r2
 372              		.loc 1 265 0
 373 000c FFF7FEFF 		bl	spiSelect
 374              	.LVL37:
 375              		.loc 1 266 0
 376 0010 2A46     		mov	r2, r5
 377 0012 3146     		mov	r1, r6
 378 0014 2046     		mov	r0, r4
 379 0016 FFF7FEFF 		bl	send_hdr
 380              	.LVL38:
 381              		.loc 1 267 0
 382 001a 04F12C00 		add	r0, r4, #44
 383 001e FFF7FEFF 		bl	recvr1.isra.1
 384              	.LVL39:
 385              		.loc 1 268 0
 386 0022 E36A     		ldr	r3, [r4, #44]
 387              		.loc 1 267 0
 388 0024 0546     		mov	r5, r0
 389              	.LVL40:
 390              		.loc 1 268 0
 391 0026 1868     		ldr	r0, [r3]
 392              	.LVL41:
 393 0028 FFF7FEFF 		bl	spiUnselect
 394              	.LVL42:
ARM GAS  /tmp/ccIdPd4y.s 			page 8


 395              		.loc 1 270 0
 396 002c 2846     		mov	r0, r5
 397 002e 70BD     		pop	{r4, r5, r6, pc}
 398              		.cfi_endproc
 399              	.LFE125:
 400              		.size	send_command_R1, .-send_command_R1
 401              		.section	.text.read_CxD,"ax",%progbits
 402              		.align	2
 403              		.p2align 4,,15
 404              		.thumb
 405              		.thumb_func
 406              		.type	read_CxD, %function
 407              	read_CxD:
 408              	.LFB127:
 409              		.loc 1 308 0
 410              		.cfi_startproc
 411              		@ args = 0, pretend = 0, frame = 16
 412              		@ frame_needed = 0, uses_anonymous_args = 0
 413              	.LVL43:
 414 0000 F0B5     		push	{r4, r5, r6, r7, lr}
 415              		.cfi_def_cfa_offset 20
 416              		.cfi_offset 4, -20
 417              		.cfi_offset 5, -16
 418              		.cfi_offset 6, -12
 419              		.cfi_offset 7, -8
 420              		.cfi_offset 14, -4
 421              		.loc 1 312 0
 422 0002 C36A     		ldr	r3, [r0, #44]
 423              		.loc 1 308 0
 424 0004 85B0     		sub	sp, sp, #20
 425              		.cfi_def_cfa_offset 40
 426              		.loc 1 308 0
 427 0006 0546     		mov	r5, r0
 428 0008 0C46     		mov	r4, r1
 429              		.loc 1 312 0
 430 000a 1868     		ldr	r0, [r3]
 431              	.LVL44:
 432              		.loc 1 308 0
 433 000c 1646     		mov	r6, r2
 434              		.loc 1 312 0
 435 000e FFF7FEFF 		bl	spiSelect
 436              	.LVL45:
 437              		.loc 1 313 0
 438 0012 2146     		mov	r1, r4
 439 0014 2846     		mov	r0, r5
 440 0016 0022     		movs	r2, #0
 441 0018 FFF7FEFF 		bl	send_hdr
 442              	.LVL46:
 443              		.loc 1 314 0
 444 001c 05F12C00 		add	r0, r5, #44
 445 0020 FFF7FEFF 		bl	recvr1.isra.1
 446              	.LVL47:
 447 0024 42F21074 		movw	r4, #10000
 448 0028 10B1     		cbz	r0, .L38
 449 002a 31E0     		b	.L43
 450              	.LVL48:
 451              	.L35:
ARM GAS  /tmp/ccIdPd4y.s 			page 9


 452              		.loc 1 320 0
 453 002c 013C     		subs	r4, r4, #1
 454              	.LVL49:
 455 002e 36D0     		beq	.L42
 456              	.LVL50:
 457              	.L38:
 458              		.loc 1 321 0
 459 0030 EB6A     		ldr	r3, [r5, #44]
 460 0032 0121     		movs	r1, #1
 461 0034 1868     		ldr	r0, [r3]
 462 0036 6A46     		mov	r2, sp
 463 0038 FFF7FEFF 		bl	spiReceive
 464              	.LVL51:
 465              		.loc 1 322 0
 466 003c 9DF80030 		ldrb	r3, [sp]	@ zero_extendqisi2
 467 0040 FE2B     		cmp	r3, #254
 468 0042 F3D1     		bne	.L35
 469              	.LBB13:
 470              		.loc 1 325 0
 471 0044 EB6A     		ldr	r3, [r5, #44]
 472 0046 1021     		movs	r1, #16
 473 0048 1868     		ldr	r0, [r3]
 474 004a 6A46     		mov	r2, sp
 475 004c FFF7FEFF 		bl	spiReceive
 476              	.LVL52:
 477              		.loc 1 326 0
 478 0050 6B46     		mov	r3, sp
 479              		.loc 1 327 0
 480 0052 06F10C01 		add	r1, r6, #12
 481              	.LVL53:
 482 0056 321F     		subs	r2, r6, #4
 483              	.LVL54:
 484              	.L37:
 485              		.loc 1 328 0 discriminator 2
 486 0058 5878     		ldrb	r0, [r3, #1]	@ zero_extendqisi2
 487 005a 1F78     		ldrb	r7, [r3]	@ zero_extendqisi2
 488              		.loc 1 329 0 discriminator 2
 489 005c DE78     		ldrb	r6, [r3, #3]	@ zero_extendqisi2
 490 005e 9C78     		ldrb	r4, [r3, #2]	@ zero_extendqisi2
 491              		.loc 1 328 0 discriminator 2
 492 0060 0004     		lsls	r0, r0, #16
 493 0062 40EA0760 		orr	r0, r0, r7, lsl #24
 494 0066 3043     		orrs	r0, r0, r6
 495              		.loc 1 329 0 discriminator 2
 496 0068 40EA0420 		orr	r0, r0, r4, lsl #8
 497              		.loc 1 328 0 discriminator 2
 498 006c 41F80409 		str	r0, [r1], #-4
 499              	.LVL55:
 500              		.loc 1 327 0 discriminator 2
 501 0070 9142     		cmp	r1, r2
 502              		.loc 1 330 0 discriminator 2
 503 0072 03F10403 		add	r3, r3, #4
 504              	.LVL56:
 505              		.loc 1 327 0 discriminator 2
 506 0076 EFD1     		bne	.L37
 507              		.loc 1 334 0
 508 0078 EB6A     		ldr	r3, [r5, #44]
ARM GAS  /tmp/ccIdPd4y.s 			page 10


 509              	.LVL57:
 510 007a 0221     		movs	r1, #2
 511              	.LVL58:
 512 007c 1868     		ldr	r0, [r3]
 513 007e FFF7FEFF 		bl	spiIgnore
 514              	.LVL59:
 515              		.loc 1 335 0
 516 0082 EB6A     		ldr	r3, [r5, #44]
 517 0084 1868     		ldr	r0, [r3]
 518 0086 FFF7FEFF 		bl	spiUnselect
 519              	.LVL60:
 520              		.loc 1 337 0
 521 008a 0020     		movs	r0, #0
 522              	.LBE13:
 523              		.loc 1 341 0
 524 008c 05B0     		add	sp, sp, #20
 525              		@ sp needed
 526 008e F0BD     		pop	{r4, r5, r6, r7, pc}
 527              	.LVL61:
 528              	.L43:
 529              		.loc 1 315 0
 530 0090 EB6A     		ldr	r3, [r5, #44]
 531 0092 1868     		ldr	r0, [r3]
 532 0094 FFF7FEFF 		bl	spiUnselect
 533              	.LVL62:
 534              		.loc 1 316 0
 535 0098 0120     		movs	r0, #1
 536              		.loc 1 341 0
 537 009a 05B0     		add	sp, sp, #20
 538              		@ sp needed
 539 009c F0BD     		pop	{r4, r5, r6, r7, pc}
 540              	.LVL63:
 541              	.L42:
 542              		.loc 1 340 0
 543 009e 0120     		movs	r0, #1
 544              		.loc 1 341 0
 545 00a0 05B0     		add	sp, sp, #20
 546              		@ sp needed
 547 00a2 F0BD     		pop	{r4, r5, r6, r7, pc}
 548              		.cfi_endproc
 549              	.LFE127:
 550              		.size	read_CxD, .-read_CxD
 551 00a4 AFF30080 		.section	.text.mmcConnect,"ax",%progbits
 551      AFF30080 
 551      AFF30080 
 552              		.align	2
 553              		.p2align 4,,15
 554              		.global	mmcConnect
 555              		.thumb
 556              		.thumb_func
 557              		.type	mmcConnect, %function
 558              	mmcConnect:
 559              	.LFB133:
 560              		.loc 1 447 0
 561              		.cfi_startproc
 562              		@ args = 0, pretend = 0, frame = 8
 563              		@ frame_needed = 0, uses_anonymous_args = 0
ARM GAS  /tmp/ccIdPd4y.s 			page 11


 564              	.LVL64:
 565 0000 70B5     		push	{r4, r5, r6, lr}
 566              		.cfi_def_cfa_offset 16
 567              		.cfi_offset 4, -16
 568              		.cfi_offset 5, -12
 569              		.cfi_offset 6, -8
 570              		.cfi_offset 14, -4
 571              		.loc 1 460 0
 572 0002 C36A     		ldr	r3, [r0, #44]
 573              		.loc 1 457 0
 574 0004 0322     		movs	r2, #3
 575              		.loc 1 447 0
 576 0006 0546     		mov	r5, r0
 577              		.loc 1 457 0
 578 0008 0271     		strb	r2, [r0, #4]
 579              		.loc 1 447 0
 580 000a 82B0     		sub	sp, sp, #8
 581              		.cfi_def_cfa_offset 24
 582              		.loc 1 460 0
 583 000c 93E80300 		ldmia	r3, {r0, r1}
 584              	.LVL65:
 585 0010 FFF7FEFF 		bl	spiStart
 586              	.LVL66:
 587              		.loc 1 461 0
 588 0014 EB6A     		ldr	r3, [r5, #44]
 589 0016 1021     		movs	r1, #16
 590 0018 1868     		ldr	r0, [r3]
 591 001a FFF7FEFF 		bl	spiIgnore
 592              	.LVL67:
 593 001e 0A24     		movs	r4, #10
 594 0020 02E0     		b	.L47
 595              	.LVL68:
 596              	.L75:
 597              		.loc 1 470 0
 598 0022 0A20     		movs	r0, #10
 599 0024 FFF7FEFF 		bl	chThdSleep
 600              	.LVL69:
 601              	.L47:
 602              		.loc 1 466 0
 603 0028 0021     		movs	r1, #0
 604 002a 0A46     		mov	r2, r1
 605 002c 2846     		mov	r0, r5
 606 002e FFF7FEFF 		bl	send_command_R1
 607              	.LVL70:
 608 0032 0128     		cmp	r0, #1
 609 0034 0AD0     		beq	.L45
 610              		.loc 1 468 0
 611 0036 013C     		subs	r4, r4, #1
 612              	.LVL71:
 613 0038 F3D1     		bne	.L75
 614              	.LVL72:
 615              	.L46:
 616              	.LDL1:
 617              		.loc 1 537 0
 618 003a EB6A     		ldr	r3, [r5, #44]
 619 003c 1868     		ldr	r0, [r3]
 620 003e FFF7FEFF 		bl	spiStop
ARM GAS  /tmp/ccIdPd4y.s 			page 12


 621              	.LVL73:
 622              		.loc 1 538 0
 623 0042 0223     		movs	r3, #2
 624 0044 2B71     		strb	r3, [r5, #4]
 625              		.loc 1 539 0
 626 0046 0120     		movs	r0, #1
 627              	.L58:
 628              		.loc 1 540 0
 629 0048 02B0     		add	sp, sp, #8
 630              		@ sp needed
 631 004a 70BD     		pop	{r4, r5, r6, pc}
 632              	.LVL74:
 633              	.L45:
 634              		.loc 1 477 0
 635 004c 01AB     		add	r3, sp, #4
 636 004e 2846     		mov	r0, r5
 637 0050 0821     		movs	r1, #8
 638 0052 4FF4D572 		mov	r2, #426
 639 0056 FFF7FEFF 		bl	send_command_R3
 640              	.LVL75:
 641 005a 0528     		cmp	r0, #5
 642 005c 25D0     		beq	.L49
 643 005e 6424     		movs	r4, #100
 644              	.LVL76:
 645 0060 04E0     		b	.L54
 646              	.LVL77:
 647              	.L53:
 648              		.loc 1 488 0
 649 0062 013C     		subs	r4, r4, #1
 650              	.LVL78:
 651 0064 E9D0     		beq	.L46
 652              		.loc 1 490 0
 653 0066 0A20     		movs	r0, #10
 654 0068 FFF7FEFF 		bl	chThdSleep
 655              	.LVL79:
 656              	.L54:
 657              		.loc 1 483 0
 658 006c 2846     		mov	r0, r5
 659 006e 3721     		movs	r1, #55
 660 0070 0022     		movs	r2, #0
 661 0072 FFF7FEFF 		bl	send_command_R1
 662              	.LVL80:
 663 0076 0128     		cmp	r0, #1
 664 0078 0646     		mov	r6, r0
 665 007a F2D1     		bne	.L53
 666              		.loc 1 484 0 discriminator 1
 667 007c 4FF4D572 		mov	r2, #426
 668 0080 C4F20002 		movt	r2, 16384
 669 0084 2846     		mov	r0, r5
 670 0086 2921     		movs	r1, #41
 671 0088 01AB     		add	r3, sp, #4
 672 008a FFF7FEFF 		bl	send_command_R3
 673              	.LVL81:
 674              		.loc 1 483 0 discriminator 1
 675 008e 0028     		cmp	r0, #0
 676 0090 E7D1     		bne	.L53
 677              		.loc 1 494 0
ARM GAS  /tmp/ccIdPd4y.s 			page 13


 678 0092 0246     		mov	r2, r0
 679 0094 01AB     		add	r3, sp, #4
 680 0096 2846     		mov	r0, r5
 681 0098 3A21     		movs	r1, #58
 682 009a FFF7FEFF 		bl	send_command_R3
 683              	.LVL82:
 684              		.loc 1 497 0
 685 009e 9DF80430 		ldrb	r3, [sp, #4]	@ zero_extendqisi2
 686 00a2 5B06     		lsls	r3, r3, #25
 687              		.loc 1 498 0
 688 00a4 48BF     		it	mi
 689 00a6 85F83060 		strbmi	r6, [r5, #48]
 690              	.LVL83:
 691              	.L49:
 692              		.loc 1 477 0
 693 00aa 6424     		movs	r4, #100
 694 00ac 05E0     		b	.L57
 695              	.LVL84:
 696              	.L76:
 697              	.LBB14:
 698              		.loc 1 507 0
 699 00ae 012B     		cmp	r3, #1
 700 00b0 C3D1     		bne	.L46
 701              		.loc 1 509 0
 702 00b2 013C     		subs	r4, r4, #1
 703              	.LVL85:
 704 00b4 C1D0     		beq	.L46
 705              		.loc 1 511 0
 706 00b6 FFF7FEFF 		bl	chThdSleep
 707              	.LVL86:
 708              	.L57:
 709              		.loc 1 504 0
 710 00ba 2846     		mov	r0, r5
 711 00bc 0121     		movs	r1, #1
 712 00be 0022     		movs	r2, #0
 713 00c0 FFF7FEFF 		bl	send_command_R1
 714              	.LVL87:
 715              		.loc 1 505 0
 716 00c4 0346     		mov	r3, r0
 717              		.loc 1 511 0
 718 00c6 0A20     		movs	r0, #10
 719              	.LVL88:
 720              		.loc 1 505 0
 721 00c8 002B     		cmp	r3, #0
 722 00ca F0D1     		bne	.L76
 723              	.LBE14:
 724              		.loc 1 515 0
 725 00cc EB6A     		ldr	r3, [r5, #44]
 726 00ce 1868     		ldr	r0, [r3]
 727 00d0 9968     		ldr	r1, [r3, #8]
 728 00d2 FFF7FEFF 		bl	spiStart
 729              	.LVL89:
 730              		.loc 1 518 0
 731 00d6 2846     		mov	r0, r5
 732 00d8 1021     		movs	r1, #16
 733 00da 4FF40072 		mov	r2, #512
 734 00de FFF7FEFF 		bl	send_command_R1
ARM GAS  /tmp/ccIdPd4y.s 			page 14


 735              	.LVL90:
 736 00e2 0028     		cmp	r0, #0
 737 00e4 A9D1     		bne	.L46
 738              		.loc 1 523 0
 739 00e6 05F11804 		add	r4, r5, #24
 740              	.LVL91:
 741 00ea 2246     		mov	r2, r4
 742 00ec 2846     		mov	r0, r5
 743 00ee 0921     		movs	r1, #9
 744 00f0 FFF7FEFF 		bl	read_CxD
 745              	.LVL92:
 746 00f4 0028     		cmp	r0, #0
 747 00f6 A0D1     		bne	.L46
 748              		.loc 1 525 0
 749 00f8 2046     		mov	r0, r4
 750 00fa FFF7FEFF 		bl	mmcsdGetCapacity
 751              	.LVL93:
 752 00fe A862     		str	r0, [r5, #40]
 753              		.loc 1 526 0
 754 0100 0028     		cmp	r0, #0
 755 0102 9AD0     		beq	.L46
 756              		.loc 1 529 0
 757 0104 2846     		mov	r0, r5
 758 0106 0A21     		movs	r1, #10
 759 0108 05F10802 		add	r2, r5, #8
 760 010c FFF7FEFF 		bl	read_CxD
 761              	.LVL94:
 762 0110 0028     		cmp	r0, #0
 763 0112 92D1     		bne	.L46
 764              		.loc 1 532 0
 765 0114 0523     		movs	r3, #5
 766 0116 2B71     		strb	r3, [r5, #4]
 767              		.loc 1 533 0
 768 0118 96E7     		b	.L58
 769              		.cfi_endproc
 770              	.LFE133:
 771              		.size	mmcConnect, .-mmcConnect
 772 011a 00BFAFF3 		.section	.text.sync.isra.2,"ax",%progbits
 772      0080
 773              		.align	2
 774              		.p2align 4,,15
 775              		.thumb
 776              		.thumb_func
 777              		.type	sync.isra.2, %function
 778              	sync.isra.2:
 779              	.LFB146:
 780              		.loc 1 350 0
 781              		.cfi_startproc
 782              		@ args = 0, pretend = 0, frame = 8
 783              		@ frame_needed = 0, uses_anonymous_args = 0
 784              	.LVL95:
 785 0000 10B5     		push	{r4, lr}
 786              		.cfi_def_cfa_offset 8
 787              		.cfi_offset 4, -8
 788              		.cfi_offset 14, -4
 789              		.loc 1 353 0
 790 0002 0368     		ldr	r3, [r0]
ARM GAS  /tmp/ccIdPd4y.s 			page 15


 791              		.loc 1 350 0
 792 0004 0446     		mov	r4, r0
 793 0006 82B0     		sub	sp, sp, #8
 794              		.cfi_def_cfa_offset 16
 795              		.loc 1 353 0
 796 0008 1868     		ldr	r0, [r3]
 797 000a FFF7FEFF 		bl	spiSelect
 798              	.LVL96:
 799 000e 02E0     		b	.L79
 800              	.L80:
 801              		.loc 1 359 0
 802 0010 0120     		movs	r0, #1
 803 0012 FFF7FEFF 		bl	chThdSleep
 804              	.LVL97:
 805              	.L79:
 806              		.loc 1 355 0
 807 0016 2368     		ldr	r3, [r4]
 808 0018 0121     		movs	r1, #1
 809 001a 1868     		ldr	r0, [r3]
 810 001c 01AA     		add	r2, sp, #4
 811 001e FFF7FEFF 		bl	spiReceive
 812              	.LVL98:
 813              		.loc 1 356 0
 814 0022 9DF80430 		ldrb	r3, [sp, #4]	@ zero_extendqisi2
 815 0026 FF2B     		cmp	r3, #255
 816 0028 F2D1     		bne	.L80
 817              		.loc 1 362 0
 818 002a 2368     		ldr	r3, [r4]
 819 002c 1868     		ldr	r0, [r3]
 820 002e FFF7FEFF 		bl	spiUnselect
 821              	.LVL99:
 822              		.loc 1 363 0
 823 0032 02B0     		add	sp, sp, #8
 824              		@ sp needed
 825 0034 10BD     		pop	{r4, pc}
 826              		.cfi_endproc
 827              	.LFE146:
 828              		.size	sync.isra.2, .-sync.isra.2
 829 0036 00BFAFF3 		.section	.text.mmcDisconnect,"ax",%progbits
 829      0080AFF3 
 829      0080
 830              		.align	2
 831              		.p2align 4,,15
 832              		.global	mmcDisconnect
 833              		.thumb
 834              		.thumb_func
 835              		.type	mmcDisconnect, %function
 836              	mmcDisconnect:
 837              	.LFB134:
 838              		.loc 1 554 0
 839              		.cfi_startproc
 840              		@ args = 0, pretend = 0, frame = 0
 841              		@ frame_needed = 0, uses_anonymous_args = 0
 842              	.LVL100:
 843 0000 38B5     		push	{r3, r4, r5, lr}
 844              		.cfi_def_cfa_offset 16
 845              		.cfi_offset 3, -16
ARM GAS  /tmp/ccIdPd4y.s 			page 16


 846              		.cfi_offset 4, -12
 847              		.cfi_offset 5, -8
 848              		.cfi_offset 14, -4
 849              		.loc 1 554 0
 850 0002 0446     		mov	r4, r0
 851              	.LBB22:
 852              		.loc 1 558 0
 853 0004 2023     		movs	r3, #32
 854              	@ 558 "../../os/hal/src/mmc_spi.c" 1
 855 0006 83F31188 		msr     BASEPRI, r3
 856              	@ 0 "" 2
 857              		.thumb
 858              	.LBE22:
 859              		.loc 1 561 0
 860 000a 0379     		ldrb	r3, [r0, #4]	@ zero_extendqisi2
 861 000c 022B     		cmp	r3, #2
 862 000e 16D0     		beq	.L84
 863              	.LVL101:
 864              	.LBB23:
 865              	.LBB24:
 866              		.loc 1 565 0
 867 0010 0423     		movs	r3, #4
 868 0012 0371     		strb	r3, [r0, #4]
 869              	.LBB25:
 870              		.loc 1 566 0
 871 0014 0023     		movs	r3, #0
 872              	@ 566 "../../os/hal/src/mmc_spi.c" 1
 873 0016 83F31188 		msr     BASEPRI, r3
 874              	@ 0 "" 2
 875              		.thumb
 876              	.LBE25:
 877              		.loc 1 569 0
 878 001a 0546     		mov	r5, r0
 879 001c 55F82C3F 		ldr	r3, [r5, #44]!
 880 0020 9968     		ldr	r1, [r3, #8]
 881 0022 1868     		ldr	r0, [r3]
 882              	.LVL102:
 883 0024 FFF7FEFF 		bl	spiStart
 884              	.LVL103:
 885              		.loc 1 570 0
 886 0028 2846     		mov	r0, r5
 887 002a FFF7FEFF 		bl	sync.isra.2
 888              	.LVL104:
 889              		.loc 1 572 0
 890 002e E36A     		ldr	r3, [r4, #44]
 891 0030 1868     		ldr	r0, [r3]
 892 0032 FFF7FEFF 		bl	spiStop
 893              	.LVL105:
 894              		.loc 1 573 0
 895 0036 0223     		movs	r3, #2
 896 0038 2371     		strb	r3, [r4, #4]
 897              	.LBE24:
 898              	.LBE23:
 899              		.loc 1 575 0
 900 003a 0020     		movs	r0, #0
 901 003c 38BD     		pop	{r3, r4, r5, pc}
 902              	.LVL106:
ARM GAS  /tmp/ccIdPd4y.s 			page 17


 903              	.L84:
 904              	.LBB26:
 905              		.loc 1 562 0
 906 003e 0023     		movs	r3, #0
 907              	@ 562 "../../os/hal/src/mmc_spi.c" 1
 908 0040 83F31188 		msr     BASEPRI, r3
 909              	@ 0 "" 2
 910              		.thumb
 911              	.LBE26:
 912              		.loc 1 575 0
 913 0044 0020     		movs	r0, #0
 914              	.LVL107:
 915 0046 38BD     		pop	{r3, r4, r5, pc}
 916              		.cfi_endproc
 917              	.LFE134:
 918              		.size	mmcDisconnect, .-mmcDisconnect
 919 0048 AFF30080 		.section	.text.mmcSync,"ax",%progbits
 919      AFF30080 
 920              		.align	2
 921              		.p2align 4,,15
 922              		.global	mmcSync
 923              		.thumb
 924              		.thumb_func
 925              		.type	mmcSync, %function
 926              	mmcSync:
 927              	.LFB141:
 928              		.loc 1 795 0
 929              		.cfi_startproc
 930              		@ args = 0, pretend = 0, frame = 0
 931              		@ frame_needed = 0, uses_anonymous_args = 0
 932              	.LVL108:
 933 0000 70B5     		push	{r4, r5, r6, lr}
 934              		.cfi_def_cfa_offset 16
 935              		.cfi_offset 4, -16
 936              		.cfi_offset 5, -12
 937              		.cfi_offset 6, -8
 938              		.cfi_offset 14, -4
 939              		.loc 1 799 0
 940 0002 0579     		ldrb	r5, [r0, #4]	@ zero_extendqisi2
 941 0004 052D     		cmp	r5, #5
 942              		.loc 1 795 0
 943 0006 0446     		mov	r4, r0
 944              		.loc 1 799 0
 945 0008 01D0     		beq	.L88
 946              		.loc 1 800 0
 947 000a 0120     		movs	r0, #1
 948              	.LVL109:
 949              		.loc 1 811 0
 950 000c 70BD     		pop	{r4, r5, r6, pc}
 951              	.LVL110:
 952              	.L88:
 953              	.LBB29:
 954              	.LBB30:
 955              		.loc 1 805 0
 956 000e 0646     		mov	r6, r0
 957              		.loc 1 803 0
 958 0010 0822     		movs	r2, #8
ARM GAS  /tmp/ccIdPd4y.s 			page 18


 959              		.loc 1 805 0
 960 0012 56F82C3F 		ldr	r3, [r6, #44]!
 961              		.loc 1 803 0
 962 0016 0271     		strb	r2, [r0, #4]
 963              		.loc 1 805 0
 964 0018 9968     		ldr	r1, [r3, #8]
 965 001a 1868     		ldr	r0, [r3]
 966              	.LVL111:
 967 001c FFF7FEFF 		bl	spiStart
 968              	.LVL112:
 969              		.loc 1 806 0
 970 0020 3046     		mov	r0, r6
 971 0022 FFF7FEFF 		bl	sync.isra.2
 972              	.LVL113:
 973              		.loc 1 809 0
 974 0026 2571     		strb	r5, [r4, #4]
 975 0028 0020     		movs	r0, #0
 976 002a 70BD     		pop	{r4, r5, r6, pc}
 977              	.LBE30:
 978              	.LBE29:
 979              		.cfi_endproc
 980              	.LFE141:
 981              		.size	mmcSync, .-mmcSync
 982 002c AFF30080 		.section	.text.mmcInit,"ax",%progbits
 983              		.align	2
 984              		.p2align 4,,15
 985              		.global	mmcInit
 986              		.thumb
 987              		.thumb_func
 988              		.type	mmcInit, %function
 989              	mmcInit:
 990              	.LFB129:
 991              		.loc 1 376 0
 992              		.cfi_startproc
 993              		@ args = 0, pretend = 0, frame = 0
 994              		@ frame_needed = 0, uses_anonymous_args = 0
 995              		@ link register save eliminated.
 996 0000 7047     		bx	lr
 997              		.cfi_endproc
 998              	.LFE129:
 999              		.size	mmcInit, .-mmcInit
 1000 0002 00BFAFF3 		.section	.text.mmcObjectInit,"ax",%progbits
 1000      0080AFF3 
 1000      0080AFF3 
 1000      0080
 1001              		.align	2
 1002              		.p2align 4,,15
 1003              		.global	mmcObjectInit
 1004              		.thumb
 1005              		.thumb_func
 1006              		.type	mmcObjectInit, %function
 1007              	mmcObjectInit:
 1008              	.LFB130:
 1009              		.loc 1 387 0
 1010              		.cfi_startproc
 1011              		@ args = 0, pretend = 0, frame = 0
 1012              		@ frame_needed = 0, uses_anonymous_args = 0
ARM GAS  /tmp/ccIdPd4y.s 			page 19


 1013              		@ link register save eliminated.
 1014              	.LVL114:
 1015              		.loc 1 389 0
 1016 0000 40F20003 		movw	r3, #:lower16:.LANCHOR1
 1017              		.loc 1 391 0
 1018 0004 0022     		movs	r2, #0
 1019              		.loc 1 389 0
 1020 0006 C0F20003 		movt	r3, #:upper16:.LANCHOR1
 1021              		.loc 1 390 0
 1022 000a 0121     		movs	r1, #1
 1023              		.loc 1 389 0
 1024 000c 0360     		str	r3, [r0]
 1025              		.loc 1 390 0
 1026 000e 0171     		strb	r1, [r0, #4]
 1027              		.loc 1 391 0
 1028 0010 C262     		str	r2, [r0, #44]
 1029              		.loc 1 392 0
 1030 0012 80F83020 		strb	r2, [r0, #48]
 1031 0016 7047     		bx	lr
 1032              		.cfi_endproc
 1033              	.LFE130:
 1034              		.size	mmcObjectInit, .-mmcObjectInit
 1035 0018 AFF30080 		.section	.text.mmcStart,"ax",%progbits
 1035      AFF30080 
 1036              		.align	2
 1037              		.p2align 4,,15
 1038              		.global	mmcStart
 1039              		.thumb
 1040              		.thumb_func
 1041              		.type	mmcStart, %function
 1042              	mmcStart:
 1043              	.LFB131:
 1044              		.loc 1 403 0
 1045              		.cfi_startproc
 1046              		@ args = 0, pretend = 0, frame = 0
 1047              		@ frame_needed = 0, uses_anonymous_args = 0
 1048              		@ link register save eliminated.
 1049              	.LVL115:
 1050              		.loc 1 410 0
 1051 0000 0223     		movs	r3, #2
 1052              		.loc 1 409 0
 1053 0002 C162     		str	r1, [r0, #44]
 1054              		.loc 1 410 0
 1055 0004 0371     		strb	r3, [r0, #4]
 1056 0006 7047     		bx	lr
 1057              		.cfi_endproc
 1058              	.LFE131:
 1059              		.size	mmcStart, .-mmcStart
 1060 0008 AFF30080 		.section	.text.mmcStop,"ax",%progbits
 1060      AFF30080 
 1061              		.align	2
 1062              		.p2align 4,,15
 1063              		.global	mmcStop
 1064              		.thumb
 1065              		.thumb_func
 1066              		.type	mmcStop, %function
 1067              	mmcStop:
ARM GAS  /tmp/ccIdPd4y.s 			page 20


 1068              	.LFB132:
 1069              		.loc 1 420 0
 1070              		.cfi_startproc
 1071              		@ args = 0, pretend = 0, frame = 0
 1072              		@ frame_needed = 0, uses_anonymous_args = 0
 1073              	.LVL116:
 1074 0000 10B5     		push	{r4, lr}
 1075              		.cfi_def_cfa_offset 8
 1076              		.cfi_offset 4, -8
 1077              		.cfi_offset 14, -4
 1078              		.loc 1 426 0
 1079 0002 C36A     		ldr	r3, [r0, #44]
 1080              		.loc 1 420 0
 1081 0004 0446     		mov	r4, r0
 1082              		.loc 1 426 0
 1083 0006 1868     		ldr	r0, [r3]
 1084              	.LVL117:
 1085 0008 FFF7FEFF 		bl	spiStop
 1086              	.LVL118:
 1087              		.loc 1 427 0
 1088 000c 0123     		movs	r3, #1
 1089 000e 2371     		strb	r3, [r4, #4]
 1090 0010 10BD     		pop	{r4, pc}
 1091              		.cfi_endproc
 1092              	.LFE132:
 1093              		.size	mmcStop, .-mmcStop
 1094 0012 00BFAFF3 		.section	.text.mmcStartSequentialRead,"ax",%progbits
 1094      0080AFF3 
 1094      0080AFF3 
 1094      0080
 1095              		.align	2
 1096              		.p2align 4,,15
 1097              		.global	mmcStartSequentialRead
 1098              		.thumb
 1099              		.thumb_func
 1100              		.type	mmcStartSequentialRead, %function
 1101              	mmcStartSequentialRead:
 1102              	.LFB135:
 1103              		.loc 1 589 0
 1104              		.cfi_startproc
 1105              		@ args = 0, pretend = 0, frame = 0
 1106              		@ frame_needed = 0, uses_anonymous_args = 0
 1107              	.LVL119:
 1108 0000 38B5     		push	{r3, r4, r5, lr}
 1109              		.cfi_def_cfa_offset 16
 1110              		.cfi_offset 3, -16
 1111              		.cfi_offset 4, -12
 1112              		.cfi_offset 5, -8
 1113              		.cfi_offset 14, -4
 1114              		.loc 1 600 0
 1115 0002 C36A     		ldr	r3, [r0, #44]
 1116              		.loc 1 589 0
 1117 0004 0446     		mov	r4, r0
 1118              		.loc 1 596 0
 1119 0006 0622     		movs	r2, #6
 1120 0008 0271     		strb	r2, [r0, #4]
 1121              		.loc 1 589 0
ARM GAS  /tmp/ccIdPd4y.s 			page 21


 1122 000a 0D46     		mov	r5, r1
 1123              		.loc 1 600 0
 1124 000c 1868     		ldr	r0, [r3]
 1125              	.LVL120:
 1126 000e 9968     		ldr	r1, [r3, #8]
 1127              	.LVL121:
 1128 0010 FFF7FEFF 		bl	spiStart
 1129              	.LVL122:
 1130              		.loc 1 601 0
 1131 0014 E36A     		ldr	r3, [r4, #44]
 1132 0016 1868     		ldr	r0, [r3]
 1133 0018 FFF7FEFF 		bl	spiSelect
 1134              	.LVL123:
 1135              		.loc 1 603 0
 1136 001c 94F83030 		ldrb	r3, [r4, #48]	@ zero_extendqisi2
 1137 0020 8BB1     		cbz	r3, .L94
 1138              		.loc 1 604 0
 1139 0022 2A46     		mov	r2, r5
 1140 0024 2046     		mov	r0, r4
 1141 0026 1221     		movs	r1, #18
 1142 0028 FFF7FEFF 		bl	send_hdr
 1143              	.LVL124:
 1144              	.L95:
 1145              		.loc 1 608 0
 1146 002c 04F12C00 		add	r0, r4, #44
 1147 0030 FFF7FEFF 		bl	recvr1.isra.1
 1148              	.LVL125:
 1149 0034 30B1     		cbz	r0, .L96
 1150              		.loc 1 609 0
 1151 0036 E36A     		ldr	r3, [r4, #44]
 1152 0038 1868     		ldr	r0, [r3]
 1153 003a FFF7FEFF 		bl	spiStop
 1154              	.LVL126:
 1155              		.loc 1 610 0
 1156 003e 0523     		movs	r3, #5
 1157 0040 2371     		strb	r3, [r4, #4]
 1158              		.loc 1 611 0
 1159 0042 0120     		movs	r0, #1
 1160              	.L96:
 1161              		.loc 1 614 0
 1162 0044 38BD     		pop	{r3, r4, r5, pc}
 1163              	.LVL127:
 1164              	.L94:
 1165              		.loc 1 606 0
 1166 0046 6A02     		lsls	r2, r5, #9
 1167 0048 2046     		mov	r0, r4
 1168 004a 1221     		movs	r1, #18
 1169 004c FFF7FEFF 		bl	send_hdr
 1170              	.LVL128:
 1171 0050 ECE7     		b	.L95
 1172              		.cfi_endproc
 1173              	.LFE135:
 1174              		.size	mmcStartSequentialRead, .-mmcStartSequentialRead
 1175 0052 00BFAFF3 		.section	.text.mmcSequentialRead,"ax",%progbits
 1175      0080AFF3 
 1175      0080AFF3 
 1175      0080
ARM GAS  /tmp/ccIdPd4y.s 			page 22


 1176              		.align	2
 1177              		.p2align 4,,15
 1178              		.global	mmcSequentialRead
 1179              		.thumb
 1180              		.thumb_func
 1181              		.type	mmcSequentialRead, %function
 1182              	mmcSequentialRead:
 1183              	.LFB136:
 1184              		.loc 1 628 0
 1185              		.cfi_startproc
 1186              		@ args = 0, pretend = 0, frame = 0
 1187              		@ frame_needed = 0, uses_anonymous_args = 0
 1188              	.LVL129:
 1189              		.loc 1 633 0
 1190 0000 0379     		ldrb	r3, [r0, #4]	@ zero_extendqisi2
 1191 0002 062B     		cmp	r3, #6
 1192              		.loc 1 628 0
 1193 0004 70B5     		push	{r4, r5, r6, lr}
 1194              		.cfi_def_cfa_offset 16
 1195              		.cfi_offset 4, -16
 1196              		.cfi_offset 5, -12
 1197              		.cfi_offset 6, -8
 1198              		.cfi_offset 14, -4
 1199              		.loc 1 628 0
 1200 0006 0646     		mov	r6, r0
 1201 0008 0D46     		mov	r5, r1
 1202              		.loc 1 633 0
 1203 000a 01D0     		beq	.L104
 1204              		.loc 1 634 0
 1205 000c 0120     		movs	r0, #1
 1206              	.LVL130:
 1207              		.loc 1 650 0
 1208 000e 70BD     		pop	{r4, r5, r6, pc}
 1209              	.LVL131:
 1210              	.L104:
 1211              		.loc 1 633 0
 1212 0010 42F21074 		movw	r4, #10000
 1213 0014 01E0     		b	.L102
 1214              	.LVL132:
 1215              	.L100:
 1216              		.loc 1 636 0
 1217 0016 013C     		subs	r4, r4, #1
 1218              	.LVL133:
 1219 0018 16D0     		beq	.L105
 1220              	.LVL134:
 1221              	.L102:
 1222              		.loc 1 637 0
 1223 001a F36A     		ldr	r3, [r6, #44]
 1224 001c 0121     		movs	r1, #1
 1225 001e 1868     		ldr	r0, [r3]
 1226 0020 2A46     		mov	r2, r5
 1227 0022 FFF7FEFF 		bl	spiReceive
 1228              	.LVL135:
 1229              		.loc 1 638 0
 1230 0026 2B78     		ldrb	r3, [r5]	@ zero_extendqisi2
 1231 0028 FE2B     		cmp	r3, #254
 1232 002a F4D1     		bne	.L100
ARM GAS  /tmp/ccIdPd4y.s 			page 23


 1233              		.loc 1 639 0
 1234 002c F36A     		ldr	r3, [r6, #44]
 1235 002e 2A46     		mov	r2, r5
 1236 0030 1868     		ldr	r0, [r3]
 1237 0032 4FF40071 		mov	r1, #512
 1238 0036 FFF7FEFF 		bl	spiReceive
 1239              	.LVL136:
 1240              		.loc 1 641 0
 1241 003a F36A     		ldr	r3, [r6, #44]
 1242 003c 0221     		movs	r1, #2
 1243 003e 1868     		ldr	r0, [r3]
 1244 0040 FFF7FEFF 		bl	spiIgnore
 1245              	.LVL137:
 1246              		.loc 1 642 0
 1247 0044 0020     		movs	r0, #0
 1248 0046 70BD     		pop	{r4, r5, r6, pc}
 1249              	.LVL138:
 1250              	.L105:
 1251              		.loc 1 646 0
 1252 0048 F36A     		ldr	r3, [r6, #44]
 1253 004a 1868     		ldr	r0, [r3]
 1254 004c FFF7FEFF 		bl	spiUnselect
 1255              	.LVL139:
 1256              		.loc 1 647 0
 1257 0050 F36A     		ldr	r3, [r6, #44]
 1258 0052 1868     		ldr	r0, [r3]
 1259 0054 FFF7FEFF 		bl	spiStop
 1260              	.LVL140:
 1261              		.loc 1 648 0
 1262 0058 0523     		movs	r3, #5
 1263 005a 3371     		strb	r3, [r6, #4]
 1264              		.loc 1 649 0
 1265 005c 0120     		movs	r0, #1
 1266 005e 70BD     		pop	{r4, r5, r6, pc}
 1267              		.cfi_endproc
 1268              	.LFE136:
 1269              		.size	mmcSequentialRead, .-mmcSequentialRead
 1270              		.section	.text.mmcStopSequentialRead,"ax",%progbits
 1271              		.align	2
 1272              		.p2align 4,,15
 1273              		.global	mmcStopSequentialRead
 1274              		.thumb
 1275              		.thumb_func
 1276              		.type	mmcStopSequentialRead, %function
 1277              	mmcStopSequentialRead:
 1278              	.LFB137:
 1279              		.loc 1 663 0
 1280              		.cfi_startproc
 1281              		@ args = 0, pretend = 0, frame = 0
 1282              		@ frame_needed = 0, uses_anonymous_args = 0
 1283              	.LVL141:
 1284 0000 38B5     		push	{r3, r4, r5, lr}
 1285              		.cfi_def_cfa_offset 16
 1286              		.cfi_offset 3, -16
 1287              		.cfi_offset 4, -12
 1288              		.cfi_offset 5, -8
 1289              		.cfi_offset 14, -4
ARM GAS  /tmp/ccIdPd4y.s 			page 24


 1290              		.loc 1 669 0
 1291 0002 0379     		ldrb	r3, [r0, #4]	@ zero_extendqisi2
 1292 0004 062B     		cmp	r3, #6
 1293              		.loc 1 663 0
 1294 0006 0446     		mov	r4, r0
 1295              		.loc 1 669 0
 1296 0008 01D0     		beq	.L109
 1297              		.loc 1 670 0
 1298 000a 0120     		movs	r0, #1
 1299              	.LVL142:
 1300              		.loc 1 681 0
 1301 000c 38BD     		pop	{r3, r4, r5, pc}
 1302              	.LVL143:
 1303              	.L109:
 1304              		.loc 1 672 0
 1305 000e 0546     		mov	r5, r0
 1306 0010 40F20002 		movw	r2, #:lower16:.LANCHOR2
 1307 0014 55F82C3F 		ldr	r3, [r5, #44]!
 1308 0018 C0F20002 		movt	r2, #:upper16:.LANCHOR2
 1309 001c 1868     		ldr	r0, [r3]
 1310              	.LVL144:
 1311 001e 0721     		movs	r1, #7
 1312 0020 FFF7FEFF 		bl	spiSend
 1313              	.LVL145:
 1314              		.loc 1 675 0
 1315 0024 2846     		mov	r0, r5
 1316 0026 FFF7FEFF 		bl	recvr1.isra.1
 1317              	.LVL146:
 1318              		.loc 1 678 0
 1319 002a E36A     		ldr	r3, [r4, #44]
 1320 002c 1868     		ldr	r0, [r3]
 1321 002e FFF7FEFF 		bl	spiUnselect
 1322              	.LVL147:
 1323              		.loc 1 679 0
 1324 0032 0523     		movs	r3, #5
 1325 0034 2371     		strb	r3, [r4, #4]
 1326              		.loc 1 680 0
 1327 0036 0020     		movs	r0, #0
 1328 0038 38BD     		pop	{r3, r4, r5, pc}
 1329              		.cfi_endproc
 1330              	.LFE137:
 1331              		.size	mmcStopSequentialRead, .-mmcStopSequentialRead
 1332 003a 00BFAFF3 		.section	.text.mmc_read,"ax",%progbits
 1332      0080
 1333              		.align	2
 1334              		.p2align 4,,15
 1335              		.thumb
 1336              		.thumb_func
 1337              		.type	mmc_read, %function
 1338              	mmc_read:
 1339              	.LFB118:
 1340              		.loc 1 111 0
 1341              		.cfi_startproc
 1342              		@ args = 0, pretend = 0, frame = 0
 1343              		@ frame_needed = 0, uses_anonymous_args = 0
 1344              	.LVL148:
 1345 0000 70B5     		push	{r4, r5, r6, lr}
ARM GAS  /tmp/ccIdPd4y.s 			page 25


 1346              		.cfi_def_cfa_offset 16
 1347              		.cfi_offset 4, -16
 1348              		.cfi_offset 5, -12
 1349              		.cfi_offset 6, -8
 1350              		.cfi_offset 14, -4
 1351              		.loc 1 111 0
 1352 0002 1446     		mov	r4, r2
 1353 0004 1D46     		mov	r5, r3
 1354 0006 0646     		mov	r6, r0
 1355              		.loc 1 113 0
 1356 0008 FFF7FEFF 		bl	mmcStartSequentialRead
 1357              	.LVL149:
 1358 000c 58B9     		cbnz	r0, .L112
 1359              		.loc 1 115 0 discriminator 1
 1360 000e 15B9     		cbnz	r5, .L116
 1361 0010 0BE0     		b	.L115
 1362              	.LVL150:
 1363              	.L120:
 1364              		.loc 1 115 0 is_stmt 0
 1365 0012 013D     		subs	r5, r5, #1
 1366              	.LVL151:
 1367 0014 09D0     		beq	.L115
 1368              	.LVL152:
 1369              	.L116:
 1370              		.loc 1 116 0 is_stmt 1
 1371 0016 2146     		mov	r1, r4
 1372 0018 3046     		mov	r0, r6
 1373 001a FFF7FEFF 		bl	mmcSequentialRead
 1374              	.LVL153:
 1375              		.loc 1 118 0
 1376 001e 04F50074 		add	r4, r4, #512
 1377              	.LVL154:
 1378              		.loc 1 116 0
 1379 0022 0028     		cmp	r0, #0
 1380 0024 F5D0     		beq	.L120
 1381              	.LVL155:
 1382              	.L112:
 1383              		.loc 1 124 0
 1384 0026 0120     		movs	r0, #1
 1385 0028 70BD     		pop	{r4, r5, r6, pc}
 1386              	.LVL156:
 1387              	.L115:
 1388              	.LBB33:
 1389              	.LBB34:
 1390              		.loc 1 121 0
 1391 002a 3046     		mov	r0, r6
 1392              	.LBE34:
 1393              	.LBE33:
 1394              		.loc 1 124 0
 1395 002c BDE87040 		pop	{r4, r5, r6, lr}
 1396              	.LVL157:
 1397              	.LBB36:
 1398              	.LBB35:
 1399              		.loc 1 121 0
 1400 0030 FFF7FEBF 		b	mmcStopSequentialRead
 1401              	.LVL158:
 1402              	.LBE35:
ARM GAS  /tmp/ccIdPd4y.s 			page 26


 1403              	.LBE36:
 1404              		.cfi_endproc
 1405              	.LFE118:
 1406              		.size	mmc_read, .-mmc_read
 1407 0034 AFF30080 		.section	.text.mmcStartSequentialWrite,"ax",%progbits
 1407      AFF30080 
 1407      AFF30080 
 1408              		.align	2
 1409              		.p2align 4,,15
 1410              		.global	mmcStartSequentialWrite
 1411              		.thumb
 1412              		.thumb_func
 1413              		.type	mmcStartSequentialWrite, %function
 1414              	mmcStartSequentialWrite:
 1415              	.LFB138:
 1416              		.loc 1 695 0
 1417              		.cfi_startproc
 1418              		@ args = 0, pretend = 0, frame = 0
 1419              		@ frame_needed = 0, uses_anonymous_args = 0
 1420              	.LVL159:
 1421 0000 38B5     		push	{r3, r4, r5, lr}
 1422              		.cfi_def_cfa_offset 16
 1423              		.cfi_offset 3, -16
 1424              		.cfi_offset 4, -12
 1425              		.cfi_offset 5, -8
 1426              		.cfi_offset 14, -4
 1427              		.loc 1 704 0
 1428 0002 C36A     		ldr	r3, [r0, #44]
 1429              		.loc 1 695 0
 1430 0004 0446     		mov	r4, r0
 1431              		.loc 1 702 0
 1432 0006 0722     		movs	r2, #7
 1433 0008 0271     		strb	r2, [r0, #4]
 1434              		.loc 1 695 0
 1435 000a 0D46     		mov	r5, r1
 1436              		.loc 1 704 0
 1437 000c 1868     		ldr	r0, [r3]
 1438              	.LVL160:
 1439 000e 9968     		ldr	r1, [r3, #8]
 1440              	.LVL161:
 1441 0010 FFF7FEFF 		bl	spiStart
 1442              	.LVL162:
 1443              		.loc 1 705 0
 1444 0014 E36A     		ldr	r3, [r4, #44]
 1445 0016 1868     		ldr	r0, [r3]
 1446 0018 FFF7FEFF 		bl	spiSelect
 1447              	.LVL163:
 1448              		.loc 1 706 0
 1449 001c 94F83030 		ldrb	r3, [r4, #48]	@ zero_extendqisi2
 1450 0020 8BB1     		cbz	r3, .L122
 1451              		.loc 1 707 0
 1452 0022 2A46     		mov	r2, r5
 1453 0024 2046     		mov	r0, r4
 1454 0026 1921     		movs	r1, #25
 1455 0028 FFF7FEFF 		bl	send_hdr
 1456              	.LVL164:
 1457              	.L123:
ARM GAS  /tmp/ccIdPd4y.s 			page 27


 1458              		.loc 1 712 0
 1459 002c 04F12C00 		add	r0, r4, #44
 1460 0030 FFF7FEFF 		bl	recvr1.isra.1
 1461              	.LVL165:
 1462 0034 30B1     		cbz	r0, .L124
 1463              		.loc 1 713 0
 1464 0036 E36A     		ldr	r3, [r4, #44]
 1465 0038 1868     		ldr	r0, [r3]
 1466 003a FFF7FEFF 		bl	spiStop
 1467              	.LVL166:
 1468              		.loc 1 714 0
 1469 003e 0523     		movs	r3, #5
 1470 0040 2371     		strb	r3, [r4, #4]
 1471              		.loc 1 715 0
 1472 0042 0120     		movs	r0, #1
 1473              	.L124:
 1474              		.loc 1 718 0
 1475 0044 38BD     		pop	{r3, r4, r5, pc}
 1476              	.LVL167:
 1477              	.L122:
 1478              		.loc 1 709 0
 1479 0046 6A02     		lsls	r2, r5, #9
 1480 0048 2046     		mov	r0, r4
 1481 004a 1921     		movs	r1, #25
 1482 004c FFF7FEFF 		bl	send_hdr
 1483              	.LVL168:
 1484 0050 ECE7     		b	.L123
 1485              		.cfi_endproc
 1486              	.LFE138:
 1487              		.size	mmcStartSequentialWrite, .-mmcStartSequentialWrite
 1488 0052 00BFAFF3 		.section	.text.mmcSequentialWrite,"ax",%progbits
 1488      0080AFF3 
 1488      0080AFF3 
 1488      0080
 1489              		.align	2
 1490              		.p2align 4,,15
 1491              		.global	mmcSequentialWrite
 1492              		.thumb
 1493              		.thumb_func
 1494              		.type	mmcSequentialWrite, %function
 1495              	mmcSequentialWrite:
 1496              	.LFB139:
 1497              		.loc 1 732 0
 1498              		.cfi_startproc
 1499              		@ args = 0, pretend = 0, frame = 8
 1500              		@ frame_needed = 0, uses_anonymous_args = 0
 1501              	.LVL169:
 1502 0000 30B5     		push	{r4, r5, lr}
 1503              		.cfi_def_cfa_offset 12
 1504              		.cfi_offset 4, -12
 1505              		.cfi_offset 5, -8
 1506              		.cfi_offset 14, -4
 1507              		.loc 1 738 0
 1508 0002 0379     		ldrb	r3, [r0, #4]	@ zero_extendqisi2
 1509 0004 072B     		cmp	r3, #7
 1510              		.loc 1 732 0
 1511 0006 0446     		mov	r4, r0
ARM GAS  /tmp/ccIdPd4y.s 			page 28


 1512 0008 83B0     		sub	sp, sp, #12
 1513              		.cfi_def_cfa_offset 24
 1514              		.loc 1 732 0
 1515 000a 0D46     		mov	r5, r1
 1516              		.loc 1 739 0
 1517 000c 18BF     		it	ne
 1518 000e 0120     		movne	r0, #1
 1519              	.LVL170:
 1520              		.loc 1 738 0
 1521 0010 01D0     		beq	.L130
 1522              	.LVL171:
 1523              	.L127:
 1524              		.loc 1 755 0
 1525 0012 03B0     		add	sp, sp, #12
 1526              		@ sp needed
 1527 0014 30BD     		pop	{r4, r5, pc}
 1528              	.LVL172:
 1529              	.L130:
 1530              		.loc 1 741 0
 1531 0016 E36A     		ldr	r3, [r4, #44]
 1532 0018 40F20002 		movw	r2, #:lower16:.LANCHOR3
 1533 001c 1868     		ldr	r0, [r3]
 1534 001e C0F20002 		movt	r2, #:upper16:.LANCHOR3
 1535 0022 0221     		movs	r1, #2
 1536              	.LVL173:
 1537 0024 FFF7FEFF 		bl	spiSend
 1538              	.LVL174:
 1539              		.loc 1 742 0
 1540 0028 E36A     		ldr	r3, [r4, #44]
 1541 002a 2A46     		mov	r2, r5
 1542 002c 1868     		ldr	r0, [r3]
 1543 002e 4FF40071 		mov	r1, #512
 1544 0032 FFF7FEFF 		bl	spiSend
 1545              	.LVL175:
 1546              		.loc 1 743 0
 1547 0036 E36A     		ldr	r3, [r4, #44]
 1548 0038 0221     		movs	r1, #2
 1549 003a 1868     		ldr	r0, [r3]
 1550 003c FFF7FEFF 		bl	spiIgnore
 1551              	.LVL176:
 1552              		.loc 1 744 0
 1553 0040 E36A     		ldr	r3, [r4, #44]
 1554 0042 0121     		movs	r1, #1
 1555 0044 1868     		ldr	r0, [r3]
 1556 0046 01AA     		add	r2, sp, #4
 1557 0048 FFF7FEFF 		bl	spiReceive
 1558              	.LVL177:
 1559              		.loc 1 745 0
 1560 004c 9DF80430 		ldrb	r3, [sp, #4]	@ zero_extendqisi2
 1561 0050 03F01F03 		and	r3, r3, #31
 1562 0054 052B     		cmp	r3, #5
 1563 0056 0CD0     		beq	.L131
 1564              		.loc 1 751 0
 1565 0058 E36A     		ldr	r3, [r4, #44]
 1566 005a 1868     		ldr	r0, [r3]
 1567 005c FFF7FEFF 		bl	spiUnselect
 1568              	.LVL178:
ARM GAS  /tmp/ccIdPd4y.s 			page 29


 1569              		.loc 1 752 0
 1570 0060 E36A     		ldr	r3, [r4, #44]
 1571 0062 1868     		ldr	r0, [r3]
 1572 0064 FFF7FEFF 		bl	spiStop
 1573              	.LVL179:
 1574              		.loc 1 753 0
 1575 0068 0523     		movs	r3, #5
 1576              		.loc 1 754 0
 1577 006a 0120     		movs	r0, #1
 1578              		.loc 1 753 0
 1579 006c 2371     		strb	r3, [r4, #4]
 1580              		.loc 1 755 0
 1581 006e 03B0     		add	sp, sp, #12
 1582              		@ sp needed
 1583 0070 30BD     		pop	{r4, r5, pc}
 1584              	.LVL180:
 1585              	.L131:
 1586              		.loc 1 746 0
 1587 0072 04F12C00 		add	r0, r4, #44
 1588 0076 FFF7FEFF 		bl	wait.isra.0
 1589              	.LVL181:
 1590              		.loc 1 747 0
 1591 007a 0020     		movs	r0, #0
 1592 007c C9E7     		b	.L127
 1593              		.cfi_endproc
 1594              	.LFE139:
 1595              		.size	mmcSequentialWrite, .-mmcSequentialWrite
 1596 007e 00BF     		.section	.text.mmcStopSequentialWrite,"ax",%progbits
 1597              		.align	2
 1598              		.p2align 4,,15
 1599              		.global	mmcStopSequentialWrite
 1600              		.thumb
 1601              		.thumb_func
 1602              		.type	mmcStopSequentialWrite, %function
 1603              	mmcStopSequentialWrite:
 1604              	.LFB140:
 1605              		.loc 1 768 0
 1606              		.cfi_startproc
 1607              		@ args = 0, pretend = 0, frame = 0
 1608              		@ frame_needed = 0, uses_anonymous_args = 0
 1609              	.LVL182:
 1610              		.loc 1 773 0
 1611 0000 0379     		ldrb	r3, [r0, #4]	@ zero_extendqisi2
 1612 0002 072B     		cmp	r3, #7
 1613              		.loc 1 768 0
 1614 0004 10B5     		push	{r4, lr}
 1615              		.cfi_def_cfa_offset 8
 1616              		.cfi_offset 4, -8
 1617              		.cfi_offset 14, -4
 1618              		.loc 1 768 0
 1619 0006 0446     		mov	r4, r0
 1620              		.loc 1 773 0
 1621 0008 01D0     		beq	.L135
 1622              		.loc 1 774 0
 1623 000a 0120     		movs	r0, #1
 1624              	.LVL183:
 1625              		.loc 1 782 0
ARM GAS  /tmp/ccIdPd4y.s 			page 30


 1626 000c 10BD     		pop	{r4, pc}
 1627              	.LVL184:
 1628              	.L135:
 1629              		.loc 1 776 0
 1630 000e C36A     		ldr	r3, [r0, #44]
 1631 0010 40F20002 		movw	r2, #:lower16:.LANCHOR4
 1632 0014 1868     		ldr	r0, [r3]
 1633              	.LVL185:
 1634 0016 C0F20002 		movt	r2, #:upper16:.LANCHOR4
 1635 001a 0221     		movs	r1, #2
 1636 001c FFF7FEFF 		bl	spiSend
 1637              	.LVL186:
 1638              		.loc 1 777 0
 1639 0020 E36A     		ldr	r3, [r4, #44]
 1640 0022 1868     		ldr	r0, [r3]
 1641 0024 FFF7FEFF 		bl	spiUnselect
 1642              	.LVL187:
 1643              		.loc 1 780 0
 1644 0028 0523     		movs	r3, #5
 1645 002a 2371     		strb	r3, [r4, #4]
 1646              		.loc 1 781 0
 1647 002c 0020     		movs	r0, #0
 1648 002e 10BD     		pop	{r4, pc}
 1649              		.cfi_endproc
 1650              	.LFE140:
 1651              		.size	mmcStopSequentialWrite, .-mmcStopSequentialWrite
 1652              		.section	.text.mmc_write,"ax",%progbits
 1653              		.align	2
 1654              		.p2align 4,,15
 1655              		.thumb
 1656              		.thumb_func
 1657              		.type	mmc_write, %function
 1658              	mmc_write:
 1659              	.LFB119:
 1660              		.loc 1 127 0
 1661              		.cfi_startproc
 1662              		@ args = 0, pretend = 0, frame = 0
 1663              		@ frame_needed = 0, uses_anonymous_args = 0
 1664              	.LVL188:
 1665 0000 70B5     		push	{r4, r5, r6, lr}
 1666              		.cfi_def_cfa_offset 16
 1667              		.cfi_offset 4, -16
 1668              		.cfi_offset 5, -12
 1669              		.cfi_offset 6, -8
 1670              		.cfi_offset 14, -4
 1671              		.loc 1 127 0
 1672 0002 1446     		mov	r4, r2
 1673 0004 1D46     		mov	r5, r3
 1674 0006 0646     		mov	r6, r0
 1675              		.loc 1 129 0
 1676 0008 FFF7FEFF 		bl	mmcStartSequentialWrite
 1677              	.LVL189:
 1678 000c 58B9     		cbnz	r0, .L138
 1679              		.loc 1 131 0 discriminator 1
 1680 000e 15B9     		cbnz	r5, .L142
 1681 0010 0BE0     		b	.L141
 1682              	.LVL190:
ARM GAS  /tmp/ccIdPd4y.s 			page 31


 1683              	.L146:
 1684              		.loc 1 131 0 is_stmt 0
 1685 0012 013D     		subs	r5, r5, #1
 1686              	.LVL191:
 1687 0014 09D0     		beq	.L141
 1688              	.LVL192:
 1689              	.L142:
 1690              		.loc 1 132 0 is_stmt 1
 1691 0016 2146     		mov	r1, r4
 1692 0018 3046     		mov	r0, r6
 1693 001a FFF7FEFF 		bl	mmcSequentialWrite
 1694              	.LVL193:
 1695              		.loc 1 134 0
 1696 001e 04F50074 		add	r4, r4, #512
 1697              	.LVL194:
 1698              		.loc 1 132 0
 1699 0022 0028     		cmp	r0, #0
 1700 0024 F5D0     		beq	.L146
 1701              	.LVL195:
 1702              	.L138:
 1703              		.loc 1 140 0
 1704 0026 0120     		movs	r0, #1
 1705 0028 70BD     		pop	{r4, r5, r6, pc}
 1706              	.LVL196:
 1707              	.L141:
 1708              	.LBB39:
 1709              	.LBB40:
 1710              		.loc 1 137 0
 1711 002a 3046     		mov	r0, r6
 1712              	.LBE40:
 1713              	.LBE39:
 1714              		.loc 1 140 0
 1715 002c BDE87040 		pop	{r4, r5, r6, lr}
 1716              	.LVL197:
 1717              	.LBB42:
 1718              	.LBB41:
 1719              		.loc 1 137 0
 1720 0030 FFF7FEBF 		b	mmcStopSequentialWrite
 1721              	.LVL198:
 1722              	.LBE41:
 1723              	.LBE42:
 1724              		.cfi_endproc
 1725              	.LFE119:
 1726              		.size	mmc_write, .-mmc_write
 1727 0034 AFF30080 		.section	.text.mmcErase,"ax",%progbits
 1727      AFF30080 
 1727      AFF30080 
 1728              		.align	2
 1729              		.p2align 4,,15
 1730              		.global	mmcErase
 1731              		.thumb
 1732              		.thumb_func
 1733              		.type	mmcErase, %function
 1734              	mmcErase:
 1735              	.LFB143:
 1736              		.loc 1 851 0
 1737              		.cfi_startproc
ARM GAS  /tmp/ccIdPd4y.s 			page 32


 1738              		@ args = 0, pretend = 0, frame = 0
 1739              		@ frame_needed = 0, uses_anonymous_args = 0
 1740              	.LVL199:
 1741 0000 38B5     		push	{r3, r4, r5, lr}
 1742              		.cfi_def_cfa_offset 16
 1743              		.cfi_offset 3, -16
 1744              		.cfi_offset 4, -12
 1745              		.cfi_offset 5, -8
 1746              		.cfi_offset 14, -4
 1747              		.loc 1 851 0
 1748 0002 0446     		mov	r4, r0
 1749              		.loc 1 856 0
 1750 0004 0720     		movs	r0, #7
 1751              	.LVL200:
 1752              		.loc 1 859 0
 1753 0006 94F83030 		ldrb	r3, [r4, #48]	@ zero_extendqisi2
 1754              		.loc 1 856 0
 1755 000a 2071     		strb	r0, [r4, #4]
 1756              		.loc 1 851 0
 1757 000c 1546     		mov	r5, r2
 1758              		.loc 1 859 0
 1759 000e 0BB9     		cbnz	r3, .L148
 1760              		.loc 1 860 0
 1761 0010 4902     		lsls	r1, r1, #9
 1762              	.LVL201:
 1763              		.loc 1 861 0
 1764 0012 5502     		lsls	r5, r2, #9
 1765              	.LVL202:
 1766              	.L148:
 1767              		.loc 1 864 0
 1768 0014 0A46     		mov	r2, r1
 1769 0016 2046     		mov	r0, r4
 1770 0018 2021     		movs	r1, #32
 1771              	.LVL203:
 1772 001a FFF7FEFF 		bl	send_command_R1
 1773              	.LVL204:
 1774 001e 28B9     		cbnz	r0, .L149
 1775              		.loc 1 867 0
 1776 0020 2A46     		mov	r2, r5
 1777 0022 2046     		mov	r0, r4
 1778 0024 2121     		movs	r1, #33
 1779 0026 FFF7FEFF 		bl	send_command_R1
 1780              	.LVL205:
 1781 002a 38B1     		cbz	r0, .L151
 1782              	.L149:
 1783              	.LDL2:
 1784              		.loc 1 878 0
 1785 002c E36A     		ldr	r3, [r4, #44]
 1786 002e 1868     		ldr	r0, [r3]
 1787 0030 FFF7FEFF 		bl	spiStop
 1788              	.LVL206:
 1789              		.loc 1 879 0
 1790 0034 0523     		movs	r3, #5
 1791 0036 2371     		strb	r3, [r4, #4]
 1792              		.loc 1 880 0
 1793 0038 0120     		movs	r0, #1
 1794              		.loc 1 881 0
ARM GAS  /tmp/ccIdPd4y.s 			page 33


 1795 003a 38BD     		pop	{r3, r4, r5, pc}
 1796              	.LVL207:
 1797              	.L151:
 1798              		.loc 1 870 0
 1799 003c 0246     		mov	r2, r0
 1800 003e 2621     		movs	r1, #38
 1801 0040 2046     		mov	r0, r4
 1802 0042 FFF7FEFF 		bl	send_command_R1
 1803              	.LVL208:
 1804 0046 0028     		cmp	r0, #0
 1805 0048 F0D1     		bne	.L149
 1806              		.loc 1 873 0
 1807 004a 0523     		movs	r3, #5
 1808 004c 2371     		strb	r3, [r4, #4]
 1809              		.loc 1 874 0
 1810 004e 38BD     		pop	{r3, r4, r5, pc}
 1811              		.cfi_endproc
 1812              	.LFE143:
 1813              		.size	mmcErase, .-mmcErase
 1814              		.section	.rodata.stopcmd.7174,"a",%progbits
 1815              		.align	2
 1816              		.set	.LANCHOR2,. + 0
 1817              		.type	stopcmd.7174, %object
 1818              		.size	stopcmd.7174, 7
 1819              	stopcmd.7174:
 1820 0000 4C       		.byte	76
 1821 0001 00       		.byte	0
 1822 0002 00       		.byte	0
 1823 0003 00       		.byte	0
 1824 0004 00       		.byte	0
 1825 0005 01       		.byte	1
 1826 0006 FF       		.byte	-1
 1827 0007 00       		.section	.rodata.crc7_lookup_table,"a",%progbits
 1828              		.align	2
 1829              		.set	.LANCHOR0,. + 0
 1830              		.type	crc7_lookup_table, %object
 1831              		.size	crc7_lookup_table, 256
 1832              	crc7_lookup_table:
 1833 0000 00       		.byte	0
 1834 0001 09       		.byte	9
 1835 0002 12       		.byte	18
 1836 0003 1B       		.byte	27
 1837 0004 24       		.byte	36
 1838 0005 2D       		.byte	45
 1839 0006 36       		.byte	54
 1840 0007 3F       		.byte	63
 1841 0008 48       		.byte	72
 1842 0009 41       		.byte	65
 1843 000a 5A       		.byte	90
 1844 000b 53       		.byte	83
 1845 000c 6C       		.byte	108
 1846 000d 65       		.byte	101
 1847 000e 7E       		.byte	126
 1848 000f 77       		.byte	119
 1849 0010 19       		.byte	25
 1850 0011 10       		.byte	16
 1851 0012 0B       		.byte	11
ARM GAS  /tmp/ccIdPd4y.s 			page 34


 1852 0013 02       		.byte	2
 1853 0014 3D       		.byte	61
 1854 0015 34       		.byte	52
 1855 0016 2F       		.byte	47
 1856 0017 26       		.byte	38
 1857 0018 51       		.byte	81
 1858 0019 58       		.byte	88
 1859 001a 43       		.byte	67
 1860 001b 4A       		.byte	74
 1861 001c 75       		.byte	117
 1862 001d 7C       		.byte	124
 1863 001e 67       		.byte	103
 1864 001f 6E       		.byte	110
 1865 0020 32       		.byte	50
 1866 0021 3B       		.byte	59
 1867 0022 20       		.byte	32
 1868 0023 29       		.byte	41
 1869 0024 16       		.byte	22
 1870 0025 1F       		.byte	31
 1871 0026 04       		.byte	4
 1872 0027 0D       		.byte	13
 1873 0028 7A       		.byte	122
 1874 0029 73       		.byte	115
 1875 002a 68       		.byte	104
 1876 002b 61       		.byte	97
 1877 002c 5E       		.byte	94
 1878 002d 57       		.byte	87
 1879 002e 4C       		.byte	76
 1880 002f 45       		.byte	69
 1881 0030 2B       		.byte	43
 1882 0031 22       		.byte	34
 1883 0032 39       		.byte	57
 1884 0033 30       		.byte	48
 1885 0034 0F       		.byte	15
 1886 0035 06       		.byte	6
 1887 0036 1D       		.byte	29
 1888 0037 14       		.byte	20
 1889 0038 63       		.byte	99
 1890 0039 6A       		.byte	106
 1891 003a 71       		.byte	113
 1892 003b 78       		.byte	120
 1893 003c 47       		.byte	71
 1894 003d 4E       		.byte	78
 1895 003e 55       		.byte	85
 1896 003f 5C       		.byte	92
 1897 0040 64       		.byte	100
 1898 0041 6D       		.byte	109
 1899 0042 76       		.byte	118
 1900 0043 7F       		.byte	127
 1901 0044 40       		.byte	64
 1902 0045 49       		.byte	73
 1903 0046 52       		.byte	82
 1904 0047 5B       		.byte	91
 1905 0048 2C       		.byte	44
 1906 0049 25       		.byte	37
 1907 004a 3E       		.byte	62
 1908 004b 37       		.byte	55
ARM GAS  /tmp/ccIdPd4y.s 			page 35


 1909 004c 08       		.byte	8
 1910 004d 01       		.byte	1
 1911 004e 1A       		.byte	26
 1912 004f 13       		.byte	19
 1913 0050 7D       		.byte	125
 1914 0051 74       		.byte	116
 1915 0052 6F       		.byte	111
 1916 0053 66       		.byte	102
 1917 0054 59       		.byte	89
 1918 0055 50       		.byte	80
 1919 0056 4B       		.byte	75
 1920 0057 42       		.byte	66
 1921 0058 35       		.byte	53
 1922 0059 3C       		.byte	60
 1923 005a 27       		.byte	39
 1924 005b 2E       		.byte	46
 1925 005c 11       		.byte	17
 1926 005d 18       		.byte	24
 1927 005e 03       		.byte	3
 1928 005f 0A       		.byte	10
 1929 0060 56       		.byte	86
 1930 0061 5F       		.byte	95
 1931 0062 44       		.byte	68
 1932 0063 4D       		.byte	77
 1933 0064 72       		.byte	114
 1934 0065 7B       		.byte	123
 1935 0066 60       		.byte	96
 1936 0067 69       		.byte	105
 1937 0068 1E       		.byte	30
 1938 0069 17       		.byte	23
 1939 006a 0C       		.byte	12
 1940 006b 05       		.byte	5
 1941 006c 3A       		.byte	58
 1942 006d 33       		.byte	51
 1943 006e 28       		.byte	40
 1944 006f 21       		.byte	33
 1945 0070 4F       		.byte	79
 1946 0071 46       		.byte	70
 1947 0072 5D       		.byte	93
 1948 0073 54       		.byte	84
 1949 0074 6B       		.byte	107
 1950 0075 62       		.byte	98
 1951 0076 79       		.byte	121
 1952 0077 70       		.byte	112
 1953 0078 07       		.byte	7
 1954 0079 0E       		.byte	14
 1955 007a 15       		.byte	21
 1956 007b 1C       		.byte	28
 1957 007c 23       		.byte	35
 1958 007d 2A       		.byte	42
 1959 007e 31       		.byte	49
 1960 007f 38       		.byte	56
 1961 0080 41       		.byte	65
 1962 0081 48       		.byte	72
 1963 0082 53       		.byte	83
 1964 0083 5A       		.byte	90
 1965 0084 65       		.byte	101
ARM GAS  /tmp/ccIdPd4y.s 			page 36


 1966 0085 6C       		.byte	108
 1967 0086 77       		.byte	119
 1968 0087 7E       		.byte	126
 1969 0088 09       		.byte	9
 1970 0089 00       		.byte	0
 1971 008a 1B       		.byte	27
 1972 008b 12       		.byte	18
 1973 008c 2D       		.byte	45
 1974 008d 24       		.byte	36
 1975 008e 3F       		.byte	63
 1976 008f 36       		.byte	54
 1977 0090 58       		.byte	88
 1978 0091 51       		.byte	81
 1979 0092 4A       		.byte	74
 1980 0093 43       		.byte	67
 1981 0094 7C       		.byte	124
 1982 0095 75       		.byte	117
 1983 0096 6E       		.byte	110
 1984 0097 67       		.byte	103
 1985 0098 10       		.byte	16
 1986 0099 19       		.byte	25
 1987 009a 02       		.byte	2
 1988 009b 0B       		.byte	11
 1989 009c 34       		.byte	52
 1990 009d 3D       		.byte	61
 1991 009e 26       		.byte	38
 1992 009f 2F       		.byte	47
 1993 00a0 73       		.byte	115
 1994 00a1 7A       		.byte	122
 1995 00a2 61       		.byte	97
 1996 00a3 68       		.byte	104
 1997 00a4 57       		.byte	87
 1998 00a5 5E       		.byte	94
 1999 00a6 45       		.byte	69
 2000 00a7 4C       		.byte	76
 2001 00a8 3B       		.byte	59
 2002 00a9 32       		.byte	50
 2003 00aa 29       		.byte	41
 2004 00ab 20       		.byte	32
 2005 00ac 1F       		.byte	31
 2006 00ad 16       		.byte	22
 2007 00ae 0D       		.byte	13
 2008 00af 04       		.byte	4
 2009 00b0 6A       		.byte	106
 2010 00b1 63       		.byte	99
 2011 00b2 78       		.byte	120
 2012 00b3 71       		.byte	113
 2013 00b4 4E       		.byte	78
 2014 00b5 47       		.byte	71
 2015 00b6 5C       		.byte	92
 2016 00b7 55       		.byte	85
 2017 00b8 22       		.byte	34
 2018 00b9 2B       		.byte	43
 2019 00ba 30       		.byte	48
 2020 00bb 39       		.byte	57
 2021 00bc 06       		.byte	6
 2022 00bd 0F       		.byte	15
ARM GAS  /tmp/ccIdPd4y.s 			page 37


 2023 00be 14       		.byte	20
 2024 00bf 1D       		.byte	29
 2025 00c0 25       		.byte	37
 2026 00c1 2C       		.byte	44
 2027 00c2 37       		.byte	55
 2028 00c3 3E       		.byte	62
 2029 00c4 01       		.byte	1
 2030 00c5 08       		.byte	8
 2031 00c6 13       		.byte	19
 2032 00c7 1A       		.byte	26
 2033 00c8 6D       		.byte	109
 2034 00c9 64       		.byte	100
 2035 00ca 7F       		.byte	127
 2036 00cb 76       		.byte	118
 2037 00cc 49       		.byte	73
 2038 00cd 40       		.byte	64
 2039 00ce 5B       		.byte	91
 2040 00cf 52       		.byte	82
 2041 00d0 3C       		.byte	60
 2042 00d1 35       		.byte	53
 2043 00d2 2E       		.byte	46
 2044 00d3 27       		.byte	39
 2045 00d4 18       		.byte	24
 2046 00d5 11       		.byte	17
 2047 00d6 0A       		.byte	10
 2048 00d7 03       		.byte	3
 2049 00d8 74       		.byte	116
 2050 00d9 7D       		.byte	125
 2051 00da 66       		.byte	102
 2052 00db 6F       		.byte	111
 2053 00dc 50       		.byte	80
 2054 00dd 59       		.byte	89
 2055 00de 42       		.byte	66
 2056 00df 4B       		.byte	75
 2057 00e0 17       		.byte	23
 2058 00e1 1E       		.byte	30
 2059 00e2 05       		.byte	5
 2060 00e3 0C       		.byte	12
 2061 00e4 33       		.byte	51
 2062 00e5 3A       		.byte	58
 2063 00e6 21       		.byte	33
 2064 00e7 28       		.byte	40
 2065 00e8 5F       		.byte	95
 2066 00e9 56       		.byte	86
 2067 00ea 4D       		.byte	77
 2068 00eb 44       		.byte	68
 2069 00ec 7B       		.byte	123
 2070 00ed 72       		.byte	114
 2071 00ee 69       		.byte	105
 2072 00ef 60       		.byte	96
 2073 00f0 0E       		.byte	14
 2074 00f1 07       		.byte	7
 2075 00f2 1C       		.byte	28
 2076 00f3 15       		.byte	21
 2077 00f4 2A       		.byte	42
 2078 00f5 23       		.byte	35
 2079 00f6 38       		.byte	56
ARM GAS  /tmp/ccIdPd4y.s 			page 38


 2080 00f7 31       		.byte	49
 2081 00f8 46       		.byte	70
 2082 00f9 4F       		.byte	79
 2083 00fa 54       		.byte	84
 2084 00fb 5D       		.byte	93
 2085 00fc 62       		.byte	98
 2086 00fd 6B       		.byte	107
 2087 00fe 70       		.byte	112
 2088 00ff 79       		.byte	121
 2089              		.section	.rodata.start.7183,"a",%progbits
 2090              		.align	2
 2091              		.set	.LANCHOR3,. + 0
 2092              		.type	start.7183, %object
 2093              		.size	start.7183, 2
 2094              	start.7183:
 2095 0000 FF       		.byte	-1
 2096 0001 FC       		.byte	-4
 2097 0002 0000     		.section	.rodata.mmc_vmt,"a",%progbits
 2098              		.align	2
 2099              		.set	.LANCHOR1,. + 0
 2100              		.type	mmc_vmt, %object
 2101              		.size	mmc_vmt, 32
 2102              	mmc_vmt:
 2103 0000 00000000 		.word	mmc_lld_is_card_inserted
 2104 0004 00000000 		.word	mmc_lld_is_write_protected
 2105 0008 00000000 		.word	mmcConnect
 2106 000c 00000000 		.word	mmcDisconnect
 2107 0010 00000000 		.word	mmc_read
 2108 0014 00000000 		.word	mmc_write
 2109 0018 00000000 		.word	mmcSync
 2110 001c 00000000 		.word	mmcGetInfo
 2111              		.section	.rodata.stop.7188,"a",%progbits
 2112              		.align	2
 2113              		.set	.LANCHOR4,. + 0
 2114              		.type	stop.7188, %object
 2115              		.size	stop.7188, 2
 2116              	stop.7188:
 2117 0000 FD       		.byte	-3
 2118 0001 FF       		.byte	-1
 2119 0002 0000     		.text
 2120              	.Letext0:
 2121              		.file 2 "/usr/lib/gcc/arm-none-eabi/4.8.2/include/stddef.h"
 2122              		.file 3 "/usr/arm-none-eabi/include/machine/_default_types.h"
 2123              		.file 4 "/usr/arm-none-eabi/include/stdint.h"
 2124              		.file 5 "../../os/ports/GCC/ARMCMx/chtypes.h"
 2125              		.file 6 "../../os/kernel/include/chlists.h"
 2126              		.file 7 "../../os/kernel/include/chthreads.h"
 2127              		.file 8 "../../os/ports/GCC/ARMCMx/chcore_v7m.h"
 2128              		.file 9 "../../os/kernel/include/chmtx.h"
 2129              		.file 10 "../../os/hal/platforms/STM32F4xx/stm32f4xx.h"
 2130              		.file 11 "../../os/hal/platforms/STM32F4xx/stm32_dma.h"
 2131              		.file 12 "../../os/hal/include/io_block.h"
 2132              		.file 13 "../../os/hal/platforms/STM32/GPIOv2/pal_lld.h"
 2133              		.file 14 "../../os/hal/include/spi.h"
 2134              		.file 15 "../../os/hal/platforms/STM32/SPIv1/spi_lld.h"
 2135              		.file 16 "../../os/hal/include/mmc_spi.h"
 2136              		.file 17 "../../os/hal/include/mmcsd.h"
ARM GAS  /tmp/ccIdPd4y.s 			page 39


 2137              		.file 18 "../../os/ports/common/ARMCMx/CMSIS/include/core_cm4.h"