ARM GAS  /tmp/cccNzPOP.s 			page 1


   1              		.syntax unified
   2              		.cpu cortex-m4
   3              		.fpu softvfp
   4              		.eabi_attribute 20, 1
   5              		.eabi_attribute 21, 1
   6              		.eabi_attribute 23, 3
   7              		.eabi_attribute 24, 1
   8              		.eabi_attribute 25, 1
   9              		.eabi_attribute 26, 1
  10              		.eabi_attribute 30, 2
  11              		.eabi_attribute 34, 1
  12              		.eabi_attribute 18, 4
  13              		.thumb
  14              		.file	"pretty.c"
  15              		.text
  16              	.Ltext0:
  17              		.cfi_sections	.debug_frame
  18              		.section	.text.chprintf.constprop.0,"ax",%progbits
  19              		.align	2
  20              		.p2align 4,,15
  21              		.thumb
  22              		.thumb_func
  23              		.type	chprintf.constprop.0, %function
  24              	chprintf.constprop.0:
  25              	.LFB127:
  26              		.file 1 "../../os/various/chprintf.h"
  27              		.loc 1 69 0
  28              		.cfi_startproc
  29              		@ args = 4, pretend = 12, frame = 8
  30              		@ frame_needed = 0, uses_anonymous_args = 1
  31              	.LVL0:
  32 0000 0EB4     		push	{r1, r2, r3}
  33              		.cfi_def_cfa_offset 12
  34              		.cfi_offset 1, -12
  35              		.cfi_offset 2, -8
  36              		.cfi_offset 3, -4
  37 0002 00B5     		push	{lr}
  38              		.cfi_def_cfa_offset 16
  39              		.cfi_offset 14, -16
  40 0004 82B0     		sub	sp, sp, #8
  41              		.cfi_def_cfa_offset 24
  42              		.loc 1 69 0
  43 0006 03AB     		add	r3, sp, #12
  44              		.loc 1 73 0
  45 0008 40F20000 		movw	r0, #:lower16:SD2
  46              	.LVL1:
  47              		.loc 1 69 0
  48 000c 53F8041B 		ldr	r1, [r3], #4
  49              		.loc 1 73 0
  50 0010 C0F20000 		movt	r0, #:upper16:SD2
  51 0014 1A46     		mov	r2, r3
  52              		.loc 1 72 0
  53 0016 0193     		str	r3, [sp, #4]
  54              		.loc 1 73 0
  55 0018 FFF7FEFF 		bl	chvprintf
  56              	.LVL2:
  57              		.loc 1 75 0
ARM GAS  /tmp/cccNzPOP.s 			page 2


  58 001c 02B0     		add	sp, sp, #8
  59              		@ sp needed
  60 001e 5DF804EB 		ldr	lr, [sp], #4
  61 0022 03B0     		add	sp, sp, #12
  62 0024 7047     		bx	lr
  63              		.cfi_endproc
  64              	.LFE127:
  65              		.size	chprintf.constprop.0, .-chprintf.constprop.0
  66 0026 00BFAFF3 		.section	.text.puttop,"ax",%progbits
  66      0080AFF3 
  66      0080
  67              		.align	2
  68              		.p2align 4,,15
  69              		.global	puttop
  70              		.thumb
  71              		.thumb_func
  72              		.type	puttop, %function
  73              	puttop:
  74              	.LFB119:
  75              		.file 2 "pretty.c"
  76              		.loc 2 15 0
  77              		.cfi_startproc
  78              		@ args = 0, pretend = 0, frame = 0
  79              		@ frame_needed = 0, uses_anonymous_args = 0
  80 0000 08B5     		push	{r3, lr}
  81              		.cfi_def_cfa_offset 8
  82              		.cfi_offset 3, -8
  83              		.cfi_offset 14, -4
  84              		.loc 2 16 0
  85 0002 40F20000 		movw	r0, #:lower16:SD2
  86 0006 40F20001 		movw	r1, #:lower16:.LC0
  87 000a C0F20000 		movt	r0, #:upper16:SD2
  88 000e C0F20001 		movt	r1, #:upper16:.LC0
  89 0012 1B22     		movs	r2, #27
  90 0014 FFF7FEFF 		bl	chprintf.constprop.0
  91              	.LVL3:
  92              		.loc 2 18 0
  93 0018 0020     		movs	r0, #0
  94 001a 08BD     		pop	{r3, pc}
  95              		.cfi_endproc
  96              	.LFE119:
  97              		.size	puttop, .-puttop
  98 001c AFF30080 		.section	.text.movv,"ax",%progbits
  99              		.align	2
 100              		.p2align 4,,15
 101              		.global	movv
 102              		.thumb
 103              		.thumb_func
 104              		.type	movv, %function
 105              	movv:
 106              	.LFB120:
 107              		.loc 2 22 0
 108              		.cfi_startproc
 109              		@ args = 0, pretend = 0, frame = 0
 110              		@ frame_needed = 0, uses_anonymous_args = 0
 111              	.LVL4:
 112 0000 08B5     		push	{r3, lr}
ARM GAS  /tmp/cccNzPOP.s 			page 3


 113              		.cfi_def_cfa_offset 8
 114              		.cfi_offset 3, -8
 115              		.cfi_offset 14, -4
 116              		.loc 2 23 0
 117 0002 031E     		subs	r3, r0, #0
 118              		.loc 2 24 0
 119 0004 B8BF     		it	lt
 120 0006 40F20001 		movwlt	r1, #:lower16:.LC1
 121 000a 40F20000 		movw	r0, #:lower16:SD2
 122              	.LVL5:
 123              		.loc 2 26 0
 124 000e ABBF     		itete	ge
 125 0010 40F20001 		movwge	r1, #:lower16:.LC2
 126              		.loc 2 24 0
 127 0014 C0F20000 		movtlt	r0, #:upper16:SD2
 128              		.loc 2 26 0
 129 0018 C0F20000 		movtge	r0, #:upper16:SD2
 130              		.loc 2 24 0
 131 001c C0F20001 		movtlt	r1, #:upper16:.LC1
 132              		.loc 2 26 0
 133 0020 A8BF     		it	ge
 134 0022 C0F20001 		movtge	r1, #:upper16:.LC2
 135 0026 1B22     		movs	r2, #27
 136 0028 FFF7FEFF 		bl	chprintf.constprop.0
 137              	.LVL6:
 138              		.loc 2 28 0
 139 002c 0020     		movs	r0, #0
 140 002e 08BD     		pop	{r3, pc}
 141              		.cfi_endproc
 142              	.LFE120:
 143              		.size	movv, .-movv
 144              		.section	.text.movh,"ax",%progbits
 145              		.align	2
 146              		.p2align 4,,15
 147              		.global	movh
 148              		.thumb
 149              		.thumb_func
 150              		.type	movh, %function
 151              	movh:
 152              	.LFB121:
 153              		.loc 2 32 0
 154              		.cfi_startproc
 155              		@ args = 0, pretend = 0, frame = 0
 156              		@ frame_needed = 0, uses_anonymous_args = 0
 157              	.LVL7:
 158 0000 08B5     		push	{r3, lr}
 159              		.cfi_def_cfa_offset 8
 160              		.cfi_offset 3, -8
 161              		.cfi_offset 14, -4
 162              		.loc 2 33 0
 163 0002 031E     		subs	r3, r0, #0
 164              		.loc 2 34 0
 165 0004 B8BF     		it	lt
 166 0006 40F20001 		movwlt	r1, #:lower16:.LC3
 167 000a 40F20000 		movw	r0, #:lower16:SD2
 168              	.LVL8:
 169              		.loc 2 36 0
ARM GAS  /tmp/cccNzPOP.s 			page 4


 170 000e ABBF     		itete	ge
 171 0010 40F20001 		movwge	r1, #:lower16:.LC4
 172              		.loc 2 34 0
 173 0014 C0F20000 		movtlt	r0, #:upper16:SD2
 174              		.loc 2 36 0
 175 0018 C0F20000 		movtge	r0, #:upper16:SD2
 176              		.loc 2 34 0
 177 001c C0F20001 		movtlt	r1, #:upper16:.LC3
 178              		.loc 2 36 0
 179 0020 A8BF     		it	ge
 180 0022 C0F20001 		movtge	r1, #:upper16:.LC4
 181 0026 1B22     		movs	r2, #27
 182 0028 FFF7FEFF 		bl	chprintf.constprop.0
 183              	.LVL9:
 184              		.loc 2 38 0
 185 002c 0020     		movs	r0, #0
 186 002e 08BD     		pop	{r3, pc}
 187              		.cfi_endproc
 188              	.LFE121:
 189              		.size	movh, .-movh
 190              		.section	.text.cls,"ax",%progbits
 191              		.align	2
 192              		.p2align 4,,15
 193              		.global	cls
 194              		.thumb
 195              		.thumb_func
 196              		.type	cls, %function
 197              	cls:
 198              	.LFB122:
 199              		.loc 2 42 0
 200              		.cfi_startproc
 201              		@ args = 0, pretend = 0, frame = 0
 202              		@ frame_needed = 0, uses_anonymous_args = 0
 203 0000 08B5     		push	{r3, lr}
 204              		.cfi_def_cfa_offset 8
 205              		.cfi_offset 3, -8
 206              		.cfi_offset 14, -4
 207              		.loc 2 43 0
 208 0002 40F20000 		movw	r0, #:lower16:SD2
 209 0006 40F20001 		movw	r1, #:lower16:.LC5
 210 000a C0F20000 		movt	r0, #:upper16:SD2
 211 000e C0F20001 		movt	r1, #:upper16:.LC5
 212 0012 1B22     		movs	r2, #27
 213 0014 FFF7FEFF 		bl	chprintf.constprop.0
 214              	.LVL10:
 215              		.loc 2 45 0
 216 0018 0020     		movs	r0, #0
 217 001a 08BD     		pop	{r3, pc}
 218              		.cfi_endproc
 219              	.LFE122:
 220              		.size	cls, .-cls
 221 001c AFF30080 		.section	.text.putcursor,"ax",%progbits
 222              		.align	2
 223              		.p2align 4,,15
 224              		.global	putcursor
 225              		.thumb
 226              		.thumb_func
ARM GAS  /tmp/cccNzPOP.s 			page 5


 227              		.type	putcursor, %function
 228              	putcursor:
 229              	.LFB123:
 230              		.loc 2 49 0
 231              		.cfi_startproc
 232              		@ args = 0, pretend = 0, frame = 0
 233              		@ frame_needed = 0, uses_anonymous_args = 0
 234              	.LVL11:
 235 0000 10B5     		push	{r4, lr}
 236              		.cfi_def_cfa_offset 8
 237              		.cfi_offset 4, -8
 238              		.cfi_offset 14, -4
 239 0002 82B0     		sub	sp, sp, #8
 240              		.cfi_def_cfa_offset 16
 241              		.loc 2 50 0
 242 0004 40F20004 		movw	r4, #:lower16:SD2
 243 0008 0091     		str	r1, [sp]
 244 000a C0F20004 		movt	r4, #:upper16:SD2
 245 000e 40F20001 		movw	r1, #:lower16:.LC6
 246              	.LVL12:
 247 0012 431E     		subs	r3, r0, #1
 248 0014 1B22     		movs	r2, #27
 249 0016 2046     		mov	r0, r4
 250              	.LVL13:
 251 0018 C0F20001 		movt	r1, #:upper16:.LC6
 252 001c FFF7FEFF 		bl	chprintf.constprop.0
 253              	.LVL14:
 254              		.loc 2 51 0
 255 0020 40F20001 		movw	r1, #:lower16:.LC7
 256 0024 2046     		mov	r0, r4
 257 0026 C0F20001 		movt	r1, #:upper16:.LC7
 258 002a FFF7FEFF 		bl	chprintf.constprop.0
 259              	.LVL15:
 260              		.loc 2 53 0
 261 002e 0020     		movs	r0, #0
 262 0030 02B0     		add	sp, sp, #8
 263              		@ sp needed
 264 0032 10BD     		pop	{r4, pc}
 265              		.cfi_endproc
 266              	.LFE123:
 267              		.size	putcursor, .-putcursor
 268 0034 AFF30080 		.section	.text.clclr,"ax",%progbits
 268      AFF30080 
 268      AFF30080 
 269              		.align	2
 270              		.p2align 4,,15
 271              		.global	clclr
 272              		.thumb
 273              		.thumb_func
 274              		.type	clclr, %function
 275              	clclr:
 276              	.LFB124:
 277              		.loc 2 57 0
 278              		.cfi_startproc
 279              		@ args = 0, pretend = 0, frame = 0
 280              		@ frame_needed = 0, uses_anonymous_args = 0
 281 0000 08B5     		push	{r3, lr}
ARM GAS  /tmp/cccNzPOP.s 			page 6


 282              		.cfi_def_cfa_offset 8
 283              		.cfi_offset 3, -8
 284              		.cfi_offset 14, -4
 285              		.loc 2 58 0
 286 0002 40F20000 		movw	r0, #:lower16:SD2
 287 0006 40F20001 		movw	r1, #:lower16:.LC8
 288 000a C0F20000 		movt	r0, #:upper16:SD2
 289 000e C0F20001 		movt	r1, #:upper16:.LC8
 290 0012 1B22     		movs	r2, #27
 291 0014 FFF7FEFF 		bl	chprintf.constprop.0
 292              	.LVL16:
 293              		.loc 2 60 0
 294 0018 0020     		movs	r0, #0
 295 001a 08BD     		pop	{r3, pc}
 296              		.cfi_endproc
 297              	.LFE124:
 298              		.size	clclr, .-clclr
 299 001c AFF30080 		.section	.text.set_text_color,"ax",%progbits
 300              		.align	2
 301              		.p2align 4,,15
 302              		.global	set_text_color
 303              		.thumb
 304              		.thumb_func
 305              		.type	set_text_color, %function
 306              	set_text_color:
 307              	.LFB125:
 308              		.loc 2 63 0
 309              		.cfi_startproc
 310              		@ args = 0, pretend = 0, frame = 0
 311              		@ frame_needed = 0, uses_anonymous_args = 0
 312              	.LVL17:
 313 0000 08B5     		push	{r3, lr}
 314              		.cfi_def_cfa_offset 8
 315              		.cfi_offset 3, -8
 316              		.cfi_offset 14, -4
 317              		.loc 2 64 0
 318 0002 40F20001 		movw	r1, #:lower16:.LC9
 319              		.loc 2 63 0
 320 0006 0346     		mov	r3, r0
 321              		.loc 2 64 0
 322 0008 40F20000 		movw	r0, #:lower16:SD2
 323              	.LVL18:
 324 000c C0F20000 		movt	r0, #:upper16:SD2
 325 0010 C0F20001 		movt	r1, #:upper16:.LC9
 326 0014 1B22     		movs	r2, #27
 327 0016 FFF7FEFF 		bl	chprintf.constprop.0
 328              	.LVL19:
 329              		.loc 2 66 0
 330 001a 0020     		movs	r0, #0
 331 001c 08BD     		pop	{r3, pc}
 332              		.cfi_endproc
 333              	.LFE125:
 334              		.size	set_text_color, .-set_text_color
 335 001e 00BF     		.section	.text.unset_text_color,"ax",%progbits
 336              		.align	2
 337              		.p2align 4,,15
 338              		.global	unset_text_color
ARM GAS  /tmp/cccNzPOP.s 			page 7


 339              		.thumb
 340              		.thumb_func
 341              		.type	unset_text_color, %function
 342              	unset_text_color:
 343              	.LFB126:
 344              		.loc 2 68 0
 345              		.cfi_startproc
 346              		@ args = 0, pretend = 0, frame = 0
 347              		@ frame_needed = 0, uses_anonymous_args = 0
 348              	.LVL20:
 349 0000 08B5     		push	{r3, lr}
 350              		.cfi_def_cfa_offset 8
 351              		.cfi_offset 3, -8
 352              		.cfi_offset 14, -4
 353              		.loc 2 69 0
 354 0002 40F20001 		movw	r1, #:lower16:.LC10
 355              		.loc 2 68 0
 356 0006 0346     		mov	r3, r0
 357              		.loc 2 69 0
 358 0008 40F20000 		movw	r0, #:lower16:SD2
 359              	.LVL21:
 360 000c C0F20000 		movt	r0, #:upper16:SD2
 361 0010 C0F20001 		movt	r1, #:upper16:.LC10
 362 0014 1B22     		movs	r2, #27
 363 0016 FFF7FEFF 		bl	chprintf.constprop.0
 364              	.LVL22:
 365              		.loc 2 71 0
 366 001a 0020     		movs	r0, #0
 367 001c 08BD     		pop	{r3, pc}
 368              		.cfi_endproc
 369              	.LFE126:
 370              		.size	unset_text_color, .-unset_text_color
 371 001e 00BF     		.section	.rodata.str1.4,"aMS",%progbits,1
 372              		.align	2
 373              	.LC0:
 374 0000 25635B48 		.ascii	"%c[H\000"
 374      00
 375 0005 000000   		.space	3
 376              	.LC1:
 377 0008 25635B25 		.ascii	"%c[%dA\000"
 377      644100
 378 000f 00       		.space	1
 379              	.LC2:
 380 0010 25635B25 		.ascii	"%c[%dB\000"
 380      644200
 381 0017 00       		.space	1
 382              	.LC3:
 383 0018 25635B25 		.ascii	"%c[%dD\000"
 383      644400
 384 001f 00       		.space	1
 385              	.LC4:
 386 0020 25635B25 		.ascii	"%c[%dC\000"
 386      644300
 387 0027 00       		.space	1
 388              	.LC5:
 389 0028 25635B32 		.ascii	"%c[2J\000"
 389      4A00
ARM GAS  /tmp/cccNzPOP.s 			page 8


 390 002e 0000     		.space	2
 391              	.LC6:
 392 0030 25635B25 		.ascii	"%c[%d;%dH\000"
 392      643B2564 
 392      4800
 393 003a 0000     		.space	2
 394              	.LC7:
 395 003c 0A00     		.ascii	"\012\000"
 396 003e 0000     		.space	2
 397              	.LC8:
 398 0040 25635B30 		.ascii	"%c[0K\000"
 398      4B00
 399 0046 0000     		.space	2
 400              	.LC9:
 401 0048 25635B25 		.ascii	"%c[%dm\000"
 401      646D00
 402 004f 00       		.space	1
 403              	.LC10:
 404 0050 25635B32 		.ascii	"%c[2%dm\000"
 404      25646D00 
 405              		.text
 406              	.Letext0:
 407              		.file 3 "/usr/lib/gcc/arm-none-eabi/4.8.2/include/stddef.h"
 408              		.file 4 "/usr/arm-none-eabi/include/machine/_default_types.h"
 409              		.file 5 "/usr/arm-none-eabi/include/stdint.h"
 410              		.file 6 "../../os/ports/GCC/ARMCMx/chtypes.h"
 411              		.file 7 "../../os/kernel/include/chlists.h"
 412              		.file 8 "../../os/kernel/include/chthreads.h"
 413              		.file 9 "../../os/ports/GCC/ARMCMx/chcore_v7m.h"
 414              		.file 10 "../../os/kernel/include/chmtx.h"
 415              		.file 11 "../../os/kernel/include/chevents.h"
 416              		.file 12 "../../os/kernel/include/chqueues.h"
 417              		.file 13 "../../os/kernel/include/chstreams.h"
 418              		.file 14 "../../os/hal/platforms/STM32F4xx/stm32f4xx.h"
 419              		.file 15 "../../os/hal/include/serial.h"
 420              		.file 16 "/usr/lib/gcc/arm-none-eabi/4.8.2/include/stdarg.h"
 421              		.file 17 "<built-in>"
 422              		.file 18 "../../os/ports/common/ARMCMx/CMSIS/include/core_cm4.h"
 423              		.file 19 "../../os/hal/platforms/STM32/USARTv1/serial_lld.h"