ARM GAS  /tmp/cccNzPOP.s 			page 1


   1              		.syntax unified
   2              		.cpu cortex-m4
   3              		.fpu softvfp
   4              		.eabi_attribute 20, 1
   5              		.eabi_attribute 21, 1
   6              		.eabi_attribute 23, 3
   7              		.eabi_attribute 24, 1
   8              		.eabi_attribute 25, 1
   9              		.eabi_attribute 26, 1
  10              		.eabi_attribute 30, 2
  11              		.eabi_attribute 34, 1
  12              		.eabi_attribute 18, 4
  13              		.thumb
  14              		.file	"pretty.c"
  15              		.text
  16              	.Ltext0:
  17              		.cfi_sections	.debug_frame
  18              		.section	.text.chprintf.constprop.0,"ax",%progbits
  19              		.align	2
  20              		.p2align 4,,15
  21              		.thumb
  22              		.thumb_func
  23              		.type	chprintf.constprop.0, %function
  24              	chprintf.constprop.0:
  25              	.LFB127:
  26              		.file 1 "../../os/various/chprintf.h"
  27              		.loc 1 69 0
  28              		.cfi_startproc
  29              		@ args = 4, pretend = 12, frame = 8
  30              		@ frame_needed = 0, uses_anonymous_args = 1
  31              	.LVL0:
  32 0000 0EB4     		push	{r1, r2, r3}
  33              		.cfi_def_cfa_offset 12
  34              		.cfi_offset 1, -12
  35              		.cfi_offset 2, -8
  36              		.cfi_offset 3, -4
  37 0002 00B5     		push	{lr}
  38              		.cfi_def_cfa_offset 16
  39              		.cfi_offset 14, -16
  40 0004 82B0     		sub	sp, sp, #8
  41              		.cfi_def_cfa_offset 24
  42              		.loc 1 69 0
  43 0006 03AB     		add	r3, sp, #12
  44              		.loc 1 73 0
  45 0008 40F20000 		movw	r0, #:lower16:SD2
  46              	.LVL1:
  47              		.loc 1 69 0
  48 000c 53F8041B 		ldr	r1, [r3], #4
  49              		.loc 1 73 0
  50 0010 C0F20000 		movt	r0, #:upper16:SD2
  51 0014 1A46     		mov	r2, r3
  52              		.loc 1 72 0
  53 0016 0193     		str	r3, [sp, #4]
  54              		.loc 1 73 0
  55 0018 FFF7FEFF 		bl	chvprintf
  56              	.LVL2:
  57              		.loc 1 75 0
ARM GAS  /tmp/cccNzPOP.s 			page 2


  58 001c 02B0     		add	sp, sp, #8
  59              		@ sp needed
  60 001e 5DF804EB 		ldr	lr, [sp], #4
  61 0022 03B0     		add	sp, sp, #12
  62 0024 7047     		bx	lr
  63              		.cfi_endproc
  64              	.LFE127:
  65              		.size	chprintf.constprop.0, .-chprintf.constprop.0
  66 0026 00BFAFF3 		.section	.text.puttop,"ax",%progbits
  66      0080AFF3 
  66      0080
  67              		.align	2
  68              		.p2align 4,,15
  69              		.global	puttop
  70              		.thumb
  71              		.thumb_func
  72              		.type	puttop, %function
  73              	puttop:
  74              	.LFB119:
  75              		.file 2 "pretty.c"
  76              		.loc 2 15 0
  77              		.cfi_startproc
  78              		@ args = 0, pretend = 0, frame = 0
  79              		@ frame_needed = 0, uses_anonymous_args = 0
  80 0000 08B5     		push	{r3, lr}
  81              		.cfi_def_cfa_offset 8
  82              		.cfi_offset 3, -8
  83              		.cfi_offset 14, -4
  84              		.loc 2 16 0
  85 0002 40F20000 		movw	r0, #:lower16:SD2
  86 0006 40F20001 		movw	r1, #:lower16:.LC0
  87 000a C0F20000 		movt	r0, #:upper16:SD2
  88 000e C0F20001 		movt	r1, #:upper16:.LC0
  89 0012 1B22     		movs	r2, #27
  90 0014 FFF7FEFF 		bl	chprintf.constprop.0
  91              	.LVL3:
  92              		.loc 2 18 0
  93 0018 0020     		movs	r0, #0
  94 001a 08BD     		pop	{r3, pc}
  95              		.cfi_endproc
  96              	.LFE119:
  97              		.size	puttop, .-puttop
  98 001c AFF30080 		.section	.text.movv,"ax",%progbits
  99              		.align	2
 100              		.p2align 4,,15
 101              		.global	movv
 102              		.thumb
 103              		.thumb_func
 104              		.type	movv, %function
 105              	movv:
 106              	.LFB120:
 107              		.loc 2 22 0
 108              		.cfi_startproc
 109              		@ args = 0, pretend = 0, frame = 0
 110              		@ frame_needed = 0, uses_anonymous_args = 0
 111              	.LVL4:
 112 0000 08B5     		push	{r3, lr}
ARM GAS  /tmp/cccNzPOP.s 			page 3


 113              		.cfi_def_cfa_offset 8
 114              		.cfi_offset 3, -8
 115              		.cfi_offset 14, -4
 116              		.loc 2 23 0
 117 0002 031E     		subs	r3, r0, #0
 118              		.loc 2 24 0
 119 0004 B8BF     		it	lt
 120 0006 40F20001 		movwlt	r1, #:lower16:.LC1
 121 000a 40F20000 		movw	r0, #:lower16:SD2
 122              	.LVL5:
 123              		.loc 2 26 0
 124 000e ABBF     		itete	ge
 125 0010 40F20001 		movwge	r1, #:lower16:.LC2
 126              		.loc 2 24 0
 127 0014 C0F20000 		movtlt	r0, #:upper16:SD2
 128              		.loc 2 26 0
 129 0018 C0F20000 		movtge	r0, #:upper16:SD2
 130              		.loc 2 24 0
 131 001c C0F20001 		movtlt	r1, #:upper16:.LC1
 132              		.loc 2 26 0
 133 0020 A8BF     		it	ge
 134 0022 C0F20001 		movtge	r1, #:upper16:.LC2
 135 0026 1B22     		movs	r2, #27
 136 0028 FFF7FEFF 		bl	chprintf.constprop.0
 137              	.LVL6:
 138              		.loc 2 28 0
 139 002c 0020     		movs	r0, #0
 140 002e 08BD     		pop	{r3, pc}
 141              		.cfi_endproc
 142              	.LFE120:
 143              		.size	movv, .-movv
 144              		.section	.text.movh,"ax",%progbits
 145              		.align	2
 146              		.p2align 4,,15
 147              		.global	movh
 148              		.thumb
 149              		.thumb_func
 150              		.type	movh, %function
 151              	movh:
 152              	.LFB121:
 153              		.loc 2 32 0
 154              		.cfi_startproc
 155              		@ args = 0, pretend = 0, frame = 0
 156              		@ frame_needed = 0, uses_anonymous_args = 0
 157              	.LVL7:
 158 0000 08B5     		push	{r3, lr}
 159              		.cfi_def_cfa_offset 8
 160              		.cfi_offset 3, -8
 161              		.cfi_offset 14, -4
 162              		.loc 2 33 0
 163 0002 031E     		subs	r3, r0, #0
 164              		.loc 2 34 0
 165 0004 B8BF     		it	lt
 166 0006 40F20001 		movwlt	r1, #:lower16:.LC3
 167 000a 40F20000 		movw	r0, #:lower16:SD2
 168              	.LVL8:
 169              		.loc 2 36 0
ARM GAS  /tmp/cccNzPOP.s 			page 4


 170 000e ABBF     		itete	ge
 171 0010 40F20001 		movwge	r1, #:lower16:.LC4
 172              		.loc 2 34 0
 173 0014 C0F20000 		movtlt	r0, #:upper16:SD2
 174              		.loc 2 36 0
 175 0018 C0F20000 		movtge	r0, #:upper16:SD2
 176              		.loc 2 34 0
 177 001c C0F20001 		movtlt	r1, #:upper16:.LC3
 178              		.loc 2 36 0
 179 0020 A8BF     		it	ge
 180 0022 C0F20001 		movtge	r1, #:upper16:.LC4
 181 0026 1B22     		movs	r2, #27
 182 0028 FFF7FEFF 		bl	chprintf.constprop.0
 183              	.LVL9:
 184              		.loc 2 38 0
 185 002c 0020     		movs	r0, #0
 186 002e 08BD     		pop	{r3, pc}
 187              		.cfi_endproc
 188              	.LFE121:
 189              		.size	movh, .-movh
 190              		.section	.text.cls,"ax",%progbits
 191              		.align	2
 192              		.p2align 4,,15
 193              		.global	cls
 194              		.thumb
 195              		.thumb_func
 196              		.type	cls, %function
 197              	cls:
 198              	.LFB122:
 199              		.loc 2 42 0
 200              		.cfi_startproc
 201              		@ args = 0, pretend = 0, frame = 0
 202              		@ frame_needed = 0, uses_anonymous_args = 0
 203 0000 08B5     		push	{r3, lr}
 204              		.cfi_def_cfa_offset 8
 205              		.cfi_offset 3, -8
 206              		.cfi_offset 14, -4
 207              		.loc 2 43 0
 208 0002 40F20000 		movw	r0, #:lower16:SD2
 209 0006 40F20001 		movw	r1, #:lower16:.LC5
 210 000a C0F20000 		movt	r0, #:upper16:SD2
 211 000e C0F20001 		movt	r1, #:upper16:.LC5
 212 0012 1B22     		movs	r2, #27
 213 0014 FFF7FEFF 		bl	chprintf.constprop.0
 214              	.LVL10:
 215              		.loc 2 45 0
 216 0018 0020     		movs	r0, #0
 217 001a 08BD     		pop	{r3, pc}
 218              		.cfi_endproc
 219              	.LFE122:
 220              		.size	cls, .-cls
 221 001c AFF30080 		.section	.text.putcursor,"ax",%progbits
 222              		.align	2
 223              		.p2align 4,,15
 224              		.global	putcursor
 225              		.thumb
 226              		.thumb_func
ARM GAS  /tmp/cccNzPOP.s 			page 5


 227              		.type	putcursor, %function
 228              	putcursor:
 229              	.LFB123:
 230              		.loc 2 49 0
 231              		.cfi_startproc
 232              		@ args = 0, pretend = 0, frame = 0
 233              		@ frame_needed = 0, uses_anonymous_args = 0
 234              	.LVL11:
 235 0000 10B5     		push	{r4, lr}
 236              		.cfi_def_cfa_offset 8
 237              		.cfi_offset 4, -8
 238              		.cfi_offset 14, -4
 239 0002 82B0     		sub	sp, sp, #8
 240              		.cfi_def_cfa_offset 16
 241              		.loc 2 50 0
 242 0004 40F20004 		movw	r4, #:lower16:SD2
 243 0008 0091     		str	r1, [sp]
 244 000a C0F20004 		movt	r4, #:upper16:SD2
 245 000e 40F20001 		movw	r1, #:lower16:.LC6
 246              	.LVL12:
 247 0012 431E     		subs	r3, r0, #1
 248 0014 1B22     		movs	r2, #27
 249 0016 2046     		mov	r0, r4
 250              	.LVL13:
 251 0018 C0F20001 		movt	r1, #:upper16:.LC6
 252 001c FFF7FEFF 		bl	chprintf.constprop.0
 253              	.LVL14:
 254              		.loc 2 51 0
 255 0020 40F20001 		movw	r1, #:lower16:.LC7
 256 0024 2046     		mov	r0, r4
 257 0026 C0F20001 		movt	r1, #:upper16:.LC7
 258 002a FFF7FEFF 		bl	chprintf.constprop.0
 259              	.LVL15:
 260              		.loc 2 53 0
 261 002e 0020     		movs	r0, #0
 262 0030 02B0     		add	sp, sp, #8
 263              		@ sp needed
 264 0032 10BD     		pop	{r4, pc}
 265              		.cfi_endproc
 266              	.LFE123:
 267              		.size	putcursor, .-putcursor
 268 0034 AFF30080 		.section	.text.clclr,"ax",%progbits
 268      AFF30080 
 268      AFF30080 
 269              		.align	2
 270              		.p2align 4,,15
 271              		.global	clclr
 272              		.thumb
 273              		.thumb_func
 274              		.type	clclr, %function
 275              	clclr:
 276              	.LFB124:
 277              		.loc 2 57 0
 278              		.cfi_startproc
 279              		@ args = 0, pretend = 0, frame = 0
 280              		@ frame_needed = 0, uses_anonymous_args = 0
 281 0000 08B5     		push	{r3, lr}
ARM GAS  /tmp/cccNzPOP.s 			page 6


 282              		.cfi_def_cfa_offset 8
 283              		.cfi_offset 3, -8
 284              		.cfi_offset 14, -4
 285              		.loc 2 58 0
 286 0002 40F20000 		movw	r0, #:lower16:SD2
 287 0006 40F20001 		movw	r1, #:lower16:.LC8
 288 000a C0F20000 		movt	r0, #:upper16:SD2
 289 000e C0F20001 		movt	r1, #:upper16:.LC8
 290 0012 1B22     		movs	r2, #27
 291 0014 FFF7FEFF 		bl	chprintf.constprop.0
 292              	.LVL16:
 293              		.loc 2 60 0
 294 0018 0020     		movs	r0, #0
 295 001a 08BD     		pop	{r3, pc}
 296              		.cfi_endproc
 297              	.LFE124:
 298              		.size	clclr, .-clclr
 299 001c AFF30080 		.section	.text.set_text_color,"ax",%progbits
 300              		.align	2
 301              		.p2align 4,,15
 302              		.global	set_text_color
 303              		.thumb
 304              		.thumb_func
 305              		.type	set_text_color, %function
 306              	set_text_color:
 307              	.LFB125:
 308              		.loc 2 63 0
 309              		.cfi_startproc
 310              		@ args = 0, pretend = 0, frame = 0
 311              		@ frame_needed = 0, uses_anonymous_args = 0
 312              	.LVL17:
 313 0000 08B5     		push	{r3, lr}
 314              		.cfi_def_cfa_offset 8
 315              		.cfi_offset 3, -8
 316              		.cfi_offset 14, -4
 317              		.loc 2 64 0
 318 0002 40F20001 		movw	r1, #:lower16:.LC9
 319              		.loc 2 63 0
 320 0006 0346     		mov	r3, r0
 321              		.loc 2 64 0
 322 0008 40F20000 		movw	r0, #:lower16:SD2
 323              	.LVL18:
 324 000c C0F20000 		movt	r0, #:upper16:SD2
 325 0010 C0F20001 		movt	r1, #:upper16:.LC9
 326 0014 1B22     		movs	r2, #27
 327 0016 FFF7FEFF 		bl	chprintf.constprop.0
 328              	.LVL19:
 329              		.loc 2 66 0
 330 001a 0020     		movs	r0, #0
 331 001c 08BD     		pop	{r3, pc}
 332              		.cfi_endproc
 333              	.LFE125:
 334              		.size	set_text_color, .-set_text_color
 335 001e 00BF     		.section	.text.unset_text_color,"ax",%progbits
 336              		.align	2
 337              		.p2align 4,,15
 338              		.global	unset_text_color
ARM GAS  /tmp/cccNzPOP.s 			page 7


 339              		.thumb
 340              		.thumb_func
 341              		.type	unset_text_color, %function
 342              	unset_text_color:
 343              	.LFB126:
 344              		.loc 2 68 0
 345              		.cfi_startproc
 346              		@ args = 0, pretend = 0, frame = 0
 347              		@ frame_needed = 0, uses_anonymous_args = 0
 348              	.LVL20:
 349 0000 08B5     		push	{r3, lr}
 350              		.cfi_def_cfa_offset 8
 351              		.cfi_offset 3, -8
 352              		.cfi_offset 14, -4
 353              		.loc 2 69 0
 354 0002 40F20001 		movw	r1, #:lower16:.LC10
 355              		.loc 2 68 0
 356 0006 0346     		mov	r3, r0
 357              		.loc 2 69 0
 358 0008 40F20000 		movw	r0, #:lower16:SD2
 359              	.LVL21:
 360 000c C0F20000 		movt	r0, #:upper16:SD2
 361 0010 C0F20001 		movt	r1, #:upper16:.LC10
 362 0014 1B22     		movs	r2, #27
 363 0016 FFF7FEFF 		bl	chprintf.constprop.0
 364              	.LVL22:
 365              		.loc 2 71 0
 366 001a 0020     		movs	r0, #0
 367 001c 08BD     		pop	{r3, pc}
 368              		.cfi_endproc
 369              	.LFE126:
 370              		.size	unset_text_color, .-unset_text_color
 371 001e 00BF     		.section	.rodata.str1.4,"aMS",%progbits,1
 372              		.align	2
 373              	.LC0:
 374 0000 25635B48 		.ascii	"%c[H\000"
 374      00
 375 0005 000000   		.space	3
 376              	.LC1:
 377 0008 25635B25 		.ascii	"%c[%dA\000"
 377      644100
 378 000f 00       		.space	1
 379              	.LC2:
 380 0010 25635B25 		.ascii	"%c[%dB\000"
 380      644200
 381 0017 00       		.space	1
 382              	.LC3:
 383 0018 25635B25 		.ascii	"%c[%dD\000"
 383      644400
 384 001f 00       		.space	1
 385              	.LC4:
 386 0020 25635B25 		.ascii	"%c[%dC\000"
 386      644300
 387 0027 00       		.space	1
 388              	.LC5:
 389 0028 25635B32 		.ascii	"%c[2J\000"
 389      4A00
ARM GAS  /tmp/cccNzPOP.s 			page 8


 390 002e 0000     		.space	2
 391              	.LC6:
 392 0030 25635B25 		.ascii	"%c[%d;%dH\000"
 392      643B2564 
 392      4800
 393 003a 0000     		.space	2
 394              	.LC7:
 395 003c 0A00     		.ascii	"\012\000"
 396 003e 0000     		.space	2
 397              	.LC8:
 398 0040 25635B30 		.ascii	"%c[0K\000"
 398      4B00
 399 0046 0000     		.space	2
 400              	.LC9:
 401 0048 25635B25 		.ascii	"%c[%dm\000"
 401      646D00
 402 004f 00       		.space	1
 403              	.LC10:
 404 0050 25635B32 		.ascii	"%c[2%dm\000"
 404      25646D00 
 405              		.text
 406              	.Letext0:
 407              		.file 3 "/usr/lib/gcc/arm-none-eabi/4.8.2/include/stddef.h"
 408              		.file 4 "/usr/arm-none-eabi/include/machine/_default_types.h"
 409              		.file 5 "/usr/arm-none-eabi/include/stdint.h"
 410              		.file 6 "../../os/ports/GCC/ARMCMx/chtypes.h"
 411              		.file 7 "../../os/kernel/include/chlists.h"
 412              		.file 8 "../../os/kernel/include/chthreads.h"
 413              		.file 9 "../../os/ports/GCC/ARMCMx/chcore_v7m.h"
 414              		.file 10 "../../os/kernel/include/chmtx.h"
 415              		.file 11 "../../os/kernel/include/chevents.h"
 416              		.file 12 "../../os/kernel/include/chqueues.h"
 417              		.file 13 "../../os/kernel/include/chstreams.h"
 418              		.file 14 "../../os/hal/platforms/STM32F4xx/stm32f4xx.h"
 419              		.file 15 "../../os/hal/include/serial.h"
 420              		.file 16 "/usr/lib/gcc/arm-none-eabi/4.8.2/include/stdarg.h"
 421              		.file 17 "<built-in>"
 422              		.file 18 "../../os/ports/common/ARMCMx/CMSIS/include/core_cm4.h"
 423              		.file 19 "../../os/hal/platforms/STM32/USARTv1/serial_lld.h"
 424              		.section	.debug_info,"",%progbits
 425              	.Ldebug_info0:
 426 0000 5D0B0000 		.4byte	0xb5d
 427 0004 0400     		.2byte	0x4
 428 0006 00000000 		.4byte	.Ldebug_abbrev0
 429 000a 04       		.byte	0x4
 430 000b 01       		.uleb128 0x1
 431 000c 36000000 		.4byte	.LASF123
 432 0010 01       		.byte	0x1
 433 0011 F6030000 		.4byte	.LASF124
 434 0015 FE020000 		.4byte	.LASF125
 435 0019 00000000 		.4byte	.Ldebug_ranges0+0
 436 001d 00000000 		.4byte	0
 437 0021 00000000 		.4byte	.Ldebug_line0
 438 0025 02       		.uleb128 0x2
 439 0026 04       		.byte	0x4
 440 0027 05       		.byte	0x5
 441 0028 696E7400 		.ascii	"int\000"
ARM GAS  /tmp/cccNzPOP.s 			page 9


 442 002c 03       		.uleb128 0x3
 443 002d 00000000 		.4byte	.LASF2
 444 0031 03       		.byte	0x3
 445 0032 D4       		.byte	0xd4
 446 0033 37000000 		.4byte	0x37
 447 0037 04       		.uleb128 0x4
 448 0038 04       		.byte	0x4
 449 0039 07       		.byte	0x7
 450 003a D2010000 		.4byte	.LASF0
 451 003e 04       		.uleb128 0x4
 452 003f 01       		.byte	0x1
 453 0040 06       		.byte	0x6
 454 0041 20010000 		.4byte	.LASF1
 455 0045 03       		.uleb128 0x3
 456 0046 1A000000 		.4byte	.LASF3
 457 004a 04       		.byte	0x4
 458 004b 1C       		.byte	0x1c
 459 004c 50000000 		.4byte	0x50
 460 0050 04       		.uleb128 0x4
 461 0051 01       		.byte	0x1
 462 0052 08       		.byte	0x8
 463 0053 AF030000 		.4byte	.LASF4
 464 0057 04       		.uleb128 0x4
 465 0058 02       		.byte	0x2
 466 0059 05       		.byte	0x5
 467 005a E4030000 		.4byte	.LASF5
 468 005e 03       		.uleb128 0x3
 469 005f A9040000 		.4byte	.LASF6
 470 0063 04       		.byte	0x4
 471 0064 26       		.byte	0x26
 472 0065 69000000 		.4byte	0x69
 473 0069 04       		.uleb128 0x4
 474 006a 02       		.byte	0x2
 475 006b 07       		.byte	0x7
 476 006c 15020000 		.4byte	.LASF7
 477 0070 03       		.uleb128 0x3
 478 0071 D0040000 		.4byte	.LASF8
 479 0075 04       		.byte	0x4
 480 0076 37       		.byte	0x37
 481 0077 7B000000 		.4byte	0x7b
 482 007b 04       		.uleb128 0x4
 483 007c 04       		.byte	0x4
 484 007d 05       		.byte	0x5
 485 007e 4E010000 		.4byte	.LASF9
 486 0082 03       		.uleb128 0x3
 487 0083 91010000 		.4byte	.LASF10
 488 0087 04       		.byte	0x4
 489 0088 38       		.byte	0x38
 490 0089 8D000000 		.4byte	0x8d
 491 008d 04       		.uleb128 0x4
 492 008e 04       		.byte	0x4
 493 008f 07       		.byte	0x7
 494 0090 8D040000 		.4byte	.LASF11
 495 0094 04       		.uleb128 0x4
 496 0095 08       		.byte	0x8
 497 0096 05       		.byte	0x5
 498 0097 12010000 		.4byte	.LASF12
ARM GAS  /tmp/cccNzPOP.s 			page 10


 499 009b 04       		.uleb128 0x4
 500 009c 08       		.byte	0x8
 501 009d 07       		.byte	0x7
 502 009e D3000000 		.4byte	.LASF13
 503 00a2 03       		.uleb128 0x3
 504 00a3 2D050000 		.4byte	.LASF14
 505 00a7 05       		.byte	0x5
 506 00a8 2A       		.byte	0x2a
 507 00a9 45000000 		.4byte	0x45
 508 00ad 03       		.uleb128 0x3
 509 00ae DF010000 		.4byte	.LASF15
 510 00b2 05       		.byte	0x5
 511 00b3 36       		.byte	0x36
 512 00b4 5E000000 		.4byte	0x5e
 513 00b8 03       		.uleb128 0x3
 514 00b9 A7030000 		.4byte	.LASF16
 515 00bd 05       		.byte	0x5
 516 00be 41       		.byte	0x41
 517 00bf 70000000 		.4byte	0x70
 518 00c3 03       		.uleb128 0x3
 519 00c4 6D040000 		.4byte	.LASF17
 520 00c8 05       		.byte	0x5
 521 00c9 42       		.byte	0x42
 522 00ca 82000000 		.4byte	0x82
 523 00ce 04       		.uleb128 0x4
 524 00cf 01       		.byte	0x1
 525 00d0 02       		.byte	0x2
 526 00d1 A1030000 		.4byte	.LASF18
 527 00d5 03       		.uleb128 0x3
 528 00d6 54050000 		.4byte	.LASF19
 529 00da 06       		.byte	0x6
 530 00db 2C       		.byte	0x2c
 531 00dc A2000000 		.4byte	0xa2
 532 00e0 03       		.uleb128 0x3
 533 00e1 57010000 		.4byte	.LASF20
 534 00e5 06       		.byte	0x6
 535 00e6 2D       		.byte	0x2d
 536 00e7 A2000000 		.4byte	0xa2
 537 00eb 03       		.uleb128 0x3
 538 00ec 46030000 		.4byte	.LASF21
 539 00f0 06       		.byte	0x6
 540 00f1 2E       		.byte	0x2e
 541 00f2 A2000000 		.4byte	0xa2
 542 00f6 03       		.uleb128 0x3
 543 00f7 3E010000 		.4byte	.LASF22
 544 00fb 06       		.byte	0x6
 545 00fc 2F       		.byte	0x2f
 546 00fd A2000000 		.4byte	0xa2
 547 0101 03       		.uleb128 0x3
 548 0102 91030000 		.4byte	.LASF23
 549 0106 06       		.byte	0x6
 550 0107 30       		.byte	0x30
 551 0108 C3000000 		.4byte	0xc3
 552 010c 03       		.uleb128 0x3
 553 010d 28020000 		.4byte	.LASF24
 554 0111 06       		.byte	0x6
 555 0112 31       		.byte	0x31
ARM GAS  /tmp/cccNzPOP.s 			page 11


 556 0113 B8000000 		.4byte	0xb8
 557 0117 03       		.uleb128 0x3
 558 0118 76020000 		.4byte	.LASF25
 559 011c 06       		.byte	0x6
 560 011d 33       		.byte	0x33
 561 011e C3000000 		.4byte	0xc3
 562 0122 03       		.uleb128 0x3
 563 0123 F7040000 		.4byte	.LASF26
 564 0127 06       		.byte	0x6
 565 0128 34       		.byte	0x34
 566 0129 C3000000 		.4byte	0xc3
 567 012d 03       		.uleb128 0x3
 568 012e BB040000 		.4byte	.LASF27
 569 0132 06       		.byte	0x6
 570 0133 35       		.byte	0x35
 571 0134 C3000000 		.4byte	0xc3
 572 0138 03       		.uleb128 0x3
 573 0139 3D040000 		.4byte	.LASF28
 574 013d 07       		.byte	0x7
 575 013e 2A       		.byte	0x2a
 576 013f 43010000 		.4byte	0x143
 577 0143 05       		.uleb128 0x5
 578 0144 3D040000 		.4byte	.LASF28
 579 0148 48       		.byte	0x48
 580 0149 08       		.byte	0x8
 581 014a 5E       		.byte	0x5e
 582 014b 40020000 		.4byte	0x240
 583 014f 06       		.uleb128 0x6
 584 0150 06040000 		.4byte	.LASF29
 585 0154 08       		.byte	0x8
 586 0155 5F       		.byte	0x5f
 587 0156 61020000 		.4byte	0x261
 588 015a 00       		.byte	0
 589 015b 06       		.uleb128 0x6
 590 015c 80030000 		.4byte	.LASF30
 591 0160 08       		.byte	0x8
 592 0161 61       		.byte	0x61
 593 0162 61020000 		.4byte	0x261
 594 0166 04       		.byte	0x4
 595 0167 06       		.uleb128 0x6
 596 0168 00010000 		.4byte	.LASF31
 597 016c 08       		.byte	0x8
 598 016d 63       		.byte	0x63
 599 016e 01010000 		.4byte	0x101
 600 0172 08       		.byte	0x8
 601 0173 06       		.uleb128 0x6
 602 0174 72050000 		.4byte	.LASF32
 603 0178 08       		.byte	0x8
 604 0179 64       		.byte	0x64
 605 017a 1B030000 		.4byte	0x31b
 606 017e 0C       		.byte	0xc
 607 017f 06       		.uleb128 0x6
 608 0180 89010000 		.4byte	.LASF33
 609 0184 08       		.byte	0x8
 610 0185 66       		.byte	0x66
 611 0186 61020000 		.4byte	0x261
 612 018a 10       		.byte	0x10
ARM GAS  /tmp/cccNzPOP.s 			page 12


 613 018b 06       		.uleb128 0x6
 614 018c DF020000 		.4byte	.LASF34
 615 0190 08       		.byte	0x8
 616 0191 67       		.byte	0x67
 617 0192 61020000 		.4byte	0x261
 618 0196 14       		.byte	0x14
 619 0197 06       		.uleb128 0x6
 620 0198 0F050000 		.4byte	.LASF35
 621 019c 08       		.byte	0x8
 622 019d 6E       		.byte	0x6e
 623 019e 31040000 		.4byte	0x431
 624 01a2 18       		.byte	0x18
 625 01a3 06       		.uleb128 0x6
 626 01a4 EE030000 		.4byte	.LASF36
 627 01a8 08       		.byte	0x8
 628 01a9 79       		.byte	0x79
 629 01aa E0000000 		.4byte	0xe0
 630 01ae 1C       		.byte	0x1c
 631 01af 06       		.uleb128 0x6
 632 01b0 25040000 		.4byte	.LASF37
 633 01b4 08       		.byte	0x8
 634 01b5 7D       		.byte	0x7d
 635 01b6 D5000000 		.4byte	0xd5
 636 01ba 1D       		.byte	0x1d
 637 01bb 06       		.uleb128 0x6
 638 01bc 6A010000 		.4byte	.LASF38
 639 01c0 08       		.byte	0x8
 640 01c1 82       		.byte	0x82
 641 01c2 EB000000 		.4byte	0xeb
 642 01c6 1E       		.byte	0x1e
 643 01c7 06       		.uleb128 0x6
 644 01c8 F4020000 		.4byte	.LASF39
 645 01cc 08       		.byte	0x8
 646 01cd 88       		.byte	0x88
 647 01ce F6000000 		.4byte	0xf6
 648 01d2 1F       		.byte	0x1f
 649 01d3 06       		.uleb128 0x6
 650 01d4 82010000 		.4byte	.LASF40
 651 01d8 08       		.byte	0x8
 652 01d9 8F       		.byte	0x8f
 653 01da 43030000 		.4byte	0x343
 654 01de 20       		.byte	0x20
 655 01df 07       		.uleb128 0x7
 656 01e0 705F7500 		.ascii	"p_u\000"
 657 01e4 08       		.byte	0x8
 658 01e5 B4       		.byte	0xb4
 659 01e6 FC030000 		.4byte	0x3fc
 660 01ea 24       		.byte	0x24
 661 01eb 06       		.uleb128 0x6
 662 01ec 78050000 		.4byte	.LASF41
 663 01f0 08       		.byte	0x8
 664 01f1 B9       		.byte	0xb9
 665 01f2 87020000 		.4byte	0x287
 666 01f6 28       		.byte	0x28
 667 01f7 06       		.uleb128 0x6
 668 01f8 FF010000 		.4byte	.LASF42
 669 01fc 08       		.byte	0x8
ARM GAS  /tmp/cccNzPOP.s 			page 13


 670 01fd BF       		.byte	0xbf
 671 01fe 67020000 		.4byte	0x267
 672 0202 2C       		.byte	0x2c
 673 0203 06       		.uleb128 0x6
 674 0204 27050000 		.4byte	.LASF43
 675 0208 08       		.byte	0x8
 676 0209 C3       		.byte	0xc3
 677 020a 0C010000 		.4byte	0x10c
 678 020e 34       		.byte	0x34
 679 020f 06       		.uleb128 0x6
 680 0210 4E040000 		.4byte	.LASF44
 681 0214 08       		.byte	0x8
 682 0215 C9       		.byte	0xc9
 683 0216 17010000 		.4byte	0x117
 684 021a 38       		.byte	0x38
 685 021b 06       		.uleb128 0x6
 686 021c DA030000 		.4byte	.LASF45
 687 0220 08       		.byte	0x8
 688 0221 D0       		.byte	0xd0
 689 0222 43040000 		.4byte	0x443
 690 0226 3C       		.byte	0x3c
 691 0227 06       		.uleb128 0x6
 692 0228 C5040000 		.4byte	.LASF46
 693 022c 08       		.byte	0x8
 694 022d D4       		.byte	0xd4
 695 022e 01010000 		.4byte	0x101
 696 0232 40       		.byte	0x40
 697 0233 06       		.uleb128 0x6
 698 0234 31010000 		.4byte	.LASF47
 699 0238 08       		.byte	0x8
 700 0239 DA       		.byte	0xda
 701 023a 9D020000 		.4byte	0x29d
 702 023e 44       		.byte	0x44
 703 023f 00       		.byte	0
 704 0240 08       		.uleb128 0x8
 705 0241 08       		.byte	0x8
 706 0242 07       		.byte	0x7
 707 0243 61       		.byte	0x61
 708 0244 61020000 		.4byte	0x261
 709 0248 06       		.uleb128 0x6
 710 0249 06040000 		.4byte	.LASF29
 711 024d 07       		.byte	0x7
 712 024e 62       		.byte	0x62
 713 024f 61020000 		.4byte	0x261
 714 0253 00       		.byte	0
 715 0254 06       		.uleb128 0x6
 716 0255 80030000 		.4byte	.LASF30
 717 0259 07       		.byte	0x7
 718 025a 64       		.byte	0x64
 719 025b 61020000 		.4byte	0x261
 720 025f 04       		.byte	0x4
 721 0260 00       		.byte	0
 722 0261 09       		.uleb128 0x9
 723 0262 04       		.byte	0x4
 724 0263 38010000 		.4byte	0x138
 725 0267 03       		.uleb128 0x3
 726 0268 E7020000 		.4byte	.LASF48
ARM GAS  /tmp/cccNzPOP.s 			page 14


 727 026c 07       		.byte	0x7
 728 026d 66       		.byte	0x66
 729 026e 40020000 		.4byte	0x240
 730 0272 08       		.uleb128 0x8
 731 0273 04       		.byte	0x4
 732 0274 07       		.byte	0x7
 733 0275 6B       		.byte	0x6b
 734 0276 87020000 		.4byte	0x287
 735 027a 06       		.uleb128 0x6
 736 027b 06040000 		.4byte	.LASF29
 737 027f 07       		.byte	0x7
 738 0280 6D       		.byte	0x6d
 739 0281 61020000 		.4byte	0x261
 740 0285 00       		.byte	0
 741 0286 00       		.byte	0
 742 0287 03       		.uleb128 0x3
 743 0288 6A020000 		.4byte	.LASF49
 744 028c 07       		.byte	0x7
 745 028d 70       		.byte	0x70
 746 028e 72020000 		.4byte	0x272
 747 0292 03       		.uleb128 0x3
 748 0293 9C010000 		.4byte	.LASF50
 749 0297 09       		.byte	0x9
 750 0298 E5       		.byte	0xe5
 751 0299 9D020000 		.4byte	0x29d
 752 029d 0A       		.uleb128 0xa
 753 029e 04       		.byte	0x4
 754 029f 0B       		.uleb128 0xb
 755 02a0 E7040000 		.4byte	.LASF51
 756 02a4 24       		.byte	0x24
 757 02a5 09       		.byte	0x9
 758 02a6 0C01     		.2byte	0x10c
 759 02a8 1B030000 		.4byte	0x31b
 760 02ac 0C       		.uleb128 0xc
 761 02ad 723400   		.ascii	"r4\000"
 762 02b0 09       		.byte	0x9
 763 02b1 1F01     		.2byte	0x11f
 764 02b3 92020000 		.4byte	0x292
 765 02b7 00       		.byte	0
 766 02b8 0C       		.uleb128 0xc
 767 02b9 723500   		.ascii	"r5\000"
 768 02bc 09       		.byte	0x9
 769 02bd 2001     		.2byte	0x120
 770 02bf 92020000 		.4byte	0x292
 771 02c3 04       		.byte	0x4
 772 02c4 0C       		.uleb128 0xc
 773 02c5 723600   		.ascii	"r6\000"
 774 02c8 09       		.byte	0x9
 775 02c9 2101     		.2byte	0x121
 776 02cb 92020000 		.4byte	0x292
 777 02cf 08       		.byte	0x8
 778 02d0 0C       		.uleb128 0xc
 779 02d1 723700   		.ascii	"r7\000"
 780 02d4 09       		.byte	0x9
 781 02d5 2201     		.2byte	0x122
 782 02d7 92020000 		.4byte	0x292
 783 02db 0C       		.byte	0xc
ARM GAS  /tmp/cccNzPOP.s 			page 15


 784 02dc 0C       		.uleb128 0xc
 785 02dd 723800   		.ascii	"r8\000"
 786 02e0 09       		.byte	0x9
 787 02e1 2301     		.2byte	0x123
 788 02e3 92020000 		.4byte	0x292
 789 02e7 10       		.byte	0x10
 790 02e8 0C       		.uleb128 0xc
 791 02e9 723900   		.ascii	"r9\000"
 792 02ec 09       		.byte	0x9
 793 02ed 2401     		.2byte	0x124
 794 02ef 92020000 		.4byte	0x292
 795 02f3 14       		.byte	0x14
 796 02f4 0C       		.uleb128 0xc
 797 02f5 72313000 		.ascii	"r10\000"
 798 02f9 09       		.byte	0x9
 799 02fa 2501     		.2byte	0x125
 800 02fc 92020000 		.4byte	0x292
 801 0300 18       		.byte	0x18
 802 0301 0C       		.uleb128 0xc
 803 0302 72313100 		.ascii	"r11\000"
 804 0306 09       		.byte	0x9
 805 0307 2601     		.2byte	0x126
 806 0309 92020000 		.4byte	0x292
 807 030d 1C       		.byte	0x1c
 808 030e 0C       		.uleb128 0xc
 809 030f 6C7200   		.ascii	"lr\000"
 810 0312 09       		.byte	0x9
 811 0313 2701     		.2byte	0x127
 812 0315 92020000 		.4byte	0x292
 813 0319 20       		.byte	0x20
 814 031a 00       		.byte	0
 815 031b 0B       		.uleb128 0xb
 816 031c DF040000 		.4byte	.LASF52
 817 0320 04       		.byte	0x4
 818 0321 09       		.byte	0x9
 819 0322 3101     		.2byte	0x131
 820 0324 36030000 		.4byte	0x336
 821 0328 0C       		.uleb128 0xc
 822 0329 72313300 		.ascii	"r13\000"
 823 032d 09       		.byte	0x9
 824 032e 3201     		.2byte	0x132
 825 0330 36030000 		.4byte	0x336
 826 0334 00       		.byte	0
 827 0335 00       		.byte	0
 828 0336 09       		.uleb128 0x9
 829 0337 04       		.byte	0x4
 830 0338 9F020000 		.4byte	0x29f
 831 033c 04       		.uleb128 0x4
 832 033d 04       		.byte	0x4
 833 033e 07       		.byte	0x7
 834 033f AF020000 		.4byte	.LASF53
 835 0343 0D       		.uleb128 0xd
 836 0344 2D010000 		.4byte	0x12d
 837 0348 05       		.uleb128 0x5
 838 0349 C2020000 		.4byte	.LASF54
 839 034d 10       		.byte	0x10
 840 034e 0A       		.byte	0xa
ARM GAS  /tmp/cccNzPOP.s 			page 16


 841 034f 2C       		.byte	0x2c
 842 0350 79030000 		.4byte	0x379
 843 0354 06       		.uleb128 0x6
 844 0355 BD030000 		.4byte	.LASF55
 845 0359 0A       		.byte	0xa
 846 035a 2D       		.byte	0x2d
 847 035b 67020000 		.4byte	0x267
 848 035f 00       		.byte	0
 849 0360 06       		.uleb128 0x6
 850 0361 6A050000 		.4byte	.LASF56
 851 0365 0A       		.byte	0xa
 852 0366 2F       		.byte	0x2f
 853 0367 61020000 		.4byte	0x261
 854 036b 08       		.byte	0x8
 855 036c 06       		.uleb128 0x6
 856 036d B4040000 		.4byte	.LASF57
 857 0371 0A       		.byte	0xa
 858 0372 31       		.byte	0x31
 859 0373 79030000 		.4byte	0x379
 860 0377 0C       		.byte	0xc
 861 0378 00       		.byte	0
 862 0379 09       		.uleb128 0x9
 863 037a 04       		.byte	0x4
 864 037b 48030000 		.4byte	0x348
 865 037f 03       		.uleb128 0x3
 866 0380 C2020000 		.4byte	.LASF54
 867 0384 0A       		.byte	0xa
 868 0385 33       		.byte	0x33
 869 0386 48030000 		.4byte	0x348
 870 038a 03       		.uleb128 0x3
 871 038b 3F050000 		.4byte	.LASF58
 872 038f 0B       		.byte	0xb
 873 0390 2C       		.byte	0x2c
 874 0391 95030000 		.4byte	0x395
 875 0395 05       		.uleb128 0x5
 876 0396 3F050000 		.4byte	.LASF58
 877 039a 10       		.byte	0x10
 878 039b 0B       		.byte	0xb
 879 039c 31       		.byte	0x31
 880 039d D2030000 		.4byte	0x3d2
 881 03a1 06       		.uleb128 0x6
 882 03a2 2D040000 		.4byte	.LASF59
 883 03a6 0B       		.byte	0xb
 884 03a7 32       		.byte	0x32
 885 03a8 D2030000 		.4byte	0x3d2
 886 03ac 00       		.byte	0
 887 03ad 06       		.uleb128 0x6
 888 03ae C5030000 		.4byte	.LASF60
 889 03b2 0B       		.byte	0xb
 890 03b3 35       		.byte	0x35
 891 03b4 61020000 		.4byte	0x261
 892 03b8 04       		.byte	0x4
 893 03b9 06       		.uleb128 0x6
 894 03ba D7020000 		.4byte	.LASF61
 895 03be 0B       		.byte	0xb
 896 03bf 37       		.byte	0x37
 897 03c0 17010000 		.4byte	0x117
ARM GAS  /tmp/cccNzPOP.s 			page 17


 898 03c4 08       		.byte	0x8
 899 03c5 06       		.uleb128 0x6
 900 03c6 D1030000 		.4byte	.LASF62
 901 03ca 0B       		.byte	0xb
 902 03cb 3A       		.byte	0x3a
 903 03cc 22010000 		.4byte	0x122
 904 03d0 0C       		.byte	0xc
 905 03d1 00       		.byte	0
 906 03d2 09       		.uleb128 0x9
 907 03d3 04       		.byte	0x4
 908 03d4 8A030000 		.4byte	0x38a
 909 03d8 05       		.uleb128 0x5
 910 03d9 A5010000 		.4byte	.LASF63
 911 03dd 04       		.byte	0x4
 912 03de 0B       		.byte	0xb
 913 03df 41       		.byte	0x41
 914 03e0 F1030000 		.4byte	0x3f1
 915 03e4 06       		.uleb128 0x6
 916 03e5 16050000 		.4byte	.LASF64
 917 03e9 0B       		.byte	0xb
 918 03ea 42       		.byte	0x42
 919 03eb D2030000 		.4byte	0x3d2
 920 03ef 00       		.byte	0
 921 03f0 00       		.byte	0
 922 03f1 03       		.uleb128 0x3
 923 03f2 A5010000 		.4byte	.LASF63
 924 03f6 0B       		.byte	0xb
 925 03f7 45       		.byte	0x45
 926 03f8 D8030000 		.4byte	0x3d8
 927 03fc 0E       		.uleb128 0xe
 928 03fd 04       		.byte	0x4
 929 03fe 08       		.byte	0x8
 930 03ff 96       		.byte	0x96
 931 0400 31040000 		.4byte	0x431
 932 0404 0F       		.uleb128 0xf
 933 0405 07000000 		.4byte	.LASF65
 934 0409 08       		.byte	0x8
 935 040a 9D       		.byte	0x9d
 936 040b 0C010000 		.4byte	0x10c
 937 040f 0F       		.uleb128 0xf
 938 0410 EA000000 		.4byte	.LASF66
 939 0414 08       		.byte	0x8
 940 0415 A4       		.byte	0xa4
 941 0416 0C010000 		.4byte	0x10c
 942 041a 0F       		.uleb128 0xf
 943 041b 4D050000 		.4byte	.LASF67
 944 041f 08       		.byte	0x8
 945 0420 AB       		.byte	0xab
 946 0421 9D020000 		.4byte	0x29d
 947 0425 0F       		.uleb128 0xf
 948 0426 FF030000 		.4byte	.LASF68
 949 042a 08       		.byte	0x8
 950 042b B2       		.byte	0xb2
 951 042c 17010000 		.4byte	0x117
 952 0430 00       		.byte	0
 953 0431 09       		.uleb128 0x9
 954 0432 04       		.byte	0x4
ARM GAS  /tmp/cccNzPOP.s 			page 18


 955 0433 37040000 		.4byte	0x437
 956 0437 10       		.uleb128 0x10
 957 0438 3C040000 		.4byte	0x43c
 958 043c 04       		.uleb128 0x4
 959 043d 01       		.byte	0x1
 960 043e 08       		.byte	0x8
 961 043f A4040000 		.4byte	.LASF69
 962 0443 09       		.uleb128 0x9
 963 0444 04       		.byte	0x4
 964 0445 7F030000 		.4byte	0x37f
 965 0449 09       		.uleb128 0x9
 966 044a 04       		.byte	0x4
 967 044b 4F040000 		.4byte	0x44f
 968 044f 11       		.uleb128 0x11
 969 0450 0C010000 		.4byte	0x10c
 970 0454 5E040000 		.4byte	0x45e
 971 0458 12       		.uleb128 0x12
 972 0459 9D020000 		.4byte	0x29d
 973 045d 00       		.byte	0
 974 045e 03       		.uleb128 0x3
 975 045f 97020000 		.4byte	.LASF70
 976 0463 0C       		.byte	0xc
 977 0464 37       		.byte	0x37
 978 0465 69040000 		.4byte	0x469
 979 0469 05       		.uleb128 0x5
 980 046a 97020000 		.4byte	.LASF70
 981 046e 24       		.byte	0x24
 982 046f 0C       		.byte	0xc
 983 0470 45       		.byte	0x45
 984 0471 D6040000 		.4byte	0x4d6
 985 0475 06       		.uleb128 0x6
 986 0476 2C000000 		.4byte	.LASF71
 987 047a 0C       		.byte	0xc
 988 047b 46       		.byte	0x46
 989 047c 67020000 		.4byte	0x267
 990 0480 00       		.byte	0
 991 0481 06       		.uleb128 0x6
 992 0482 B8020000 		.4byte	.LASF72
 993 0486 0C       		.byte	0xc
 994 0487 47       		.byte	0x47
 995 0488 2C000000 		.4byte	0x2c
 996 048c 08       		.byte	0x8
 997 048d 06       		.uleb128 0x6
 998 048e 71010000 		.4byte	.LASF73
 999 0492 0C       		.byte	0xc
 1000 0493 48       		.byte	0x48
 1001 0494 F8040000 		.4byte	0x4f8
 1002 0498 0C       		.byte	0xc
 1003 0499 06       		.uleb128 0x6
 1004 049a 09050000 		.4byte	.LASF74
 1005 049e 0C       		.byte	0xc
 1006 049f 49       		.byte	0x49
 1007 04a0 F8040000 		.4byte	0x4f8
 1008 04a4 10       		.byte	0x10
 1009 04a5 06       		.uleb128 0x6
 1010 04a6 7A010000 		.4byte	.LASF75
 1011 04aa 0C       		.byte	0xc
ARM GAS  /tmp/cccNzPOP.s 			page 19


 1012 04ab 4B       		.byte	0x4b
 1013 04ac F8040000 		.4byte	0x4f8
 1014 04b0 14       		.byte	0x14
 1015 04b1 06       		.uleb128 0x6
 1016 04b2 99030000 		.4byte	.LASF76
 1017 04b6 0C       		.byte	0xc
 1018 04b7 4C       		.byte	0x4c
 1019 04b8 F8040000 		.4byte	0x4f8
 1020 04bc 18       		.byte	0x18
 1021 04bd 06       		.uleb128 0x6
 1022 04be 1E050000 		.4byte	.LASF77
 1023 04c2 0C       		.byte	0xc
 1024 04c3 4D       		.byte	0x4d
 1025 04c4 D6040000 		.4byte	0x4d6
 1026 04c8 1C       		.byte	0x1c
 1027 04c9 06       		.uleb128 0x6
 1028 04ca 63050000 		.4byte	.LASF78
 1029 04ce 0C       		.byte	0xc
 1030 04cf 4E       		.byte	0x4e
 1031 04d0 9D020000 		.4byte	0x29d
 1032 04d4 20       		.byte	0x20
 1033 04d5 00       		.byte	0
 1034 04d6 03       		.uleb128 0x3
 1035 04d7 8D020000 		.4byte	.LASF79
 1036 04db 0C       		.byte	0xc
 1037 04dc 3A       		.byte	0x3a
 1038 04dd E1040000 		.4byte	0x4e1
 1039 04e1 09       		.uleb128 0x9
 1040 04e2 04       		.byte	0x4
 1041 04e3 E7040000 		.4byte	0x4e7
 1042 04e7 13       		.uleb128 0x13
 1043 04e8 F2040000 		.4byte	0x4f2
 1044 04ec 12       		.uleb128 0x12
 1045 04ed F2040000 		.4byte	0x4f2
 1046 04f1 00       		.byte	0
 1047 04f2 09       		.uleb128 0x9
 1048 04f3 04       		.byte	0x4
 1049 04f4 5E040000 		.4byte	0x45e
 1050 04f8 09       		.uleb128 0x9
 1051 04f9 04       		.byte	0x4
 1052 04fa A2000000 		.4byte	0xa2
 1053 04fe 03       		.uleb128 0x3
 1054 04ff 82020000 		.4byte	.LASF80
 1055 0503 0C       		.byte	0xc
 1056 0504 82       		.byte	0x82
 1057 0505 5E040000 		.4byte	0x45e
 1058 0509 03       		.uleb128 0x3
 1059 050a 0E000000 		.4byte	.LASF81
 1060 050e 0C       		.byte	0xc
 1061 050f F5       		.byte	0xf5
 1062 0510 5E040000 		.4byte	0x45e
 1063 0514 05       		.uleb128 0x5
 1064 0515 0D040000 		.4byte	.LASF82
 1065 0519 10       		.byte	0x10
 1066 051a 0D       		.byte	0xd
 1067 051b 48       		.byte	0x48
 1068 051c 51050000 		.4byte	0x551
ARM GAS  /tmp/cccNzPOP.s 			page 20


 1069 0520 06       		.uleb128 0x6
 1070 0521 A4020000 		.4byte	.LASF83
 1071 0525 0D       		.byte	0xd
 1072 0526 49       		.byte	0x49
 1073 0527 75050000 		.4byte	0x575
 1074 052b 00       		.byte	0
 1075 052c 06       		.uleb128 0x6
 1076 052d 9F040000 		.4byte	.LASF84
 1077 0531 0D       		.byte	0xd
 1078 0532 49       		.byte	0x49
 1079 0533 94050000 		.4byte	0x594
 1080 0537 04       		.byte	0x4
 1081 0538 07       		.uleb128 0x7
 1082 0539 70757400 		.ascii	"put\000"
 1083 053d 0D       		.byte	0xd
 1084 053e 49       		.byte	0x49
 1085 053f AE050000 		.4byte	0x5ae
 1086 0543 08       		.byte	0x8
 1087 0544 07       		.uleb128 0x7
 1088 0545 67657400 		.ascii	"get\000"
 1089 0549 0D       		.byte	0xd
 1090 054a 49       		.byte	0x49
 1091 054b 49040000 		.4byte	0x449
 1092 054f 0C       		.byte	0xc
 1093 0550 00       		.byte	0
 1094 0551 11       		.uleb128 0x11
 1095 0552 2C000000 		.4byte	0x2c
 1096 0556 6A050000 		.4byte	0x56a
 1097 055a 12       		.uleb128 0x12
 1098 055b 9D020000 		.4byte	0x29d
 1099 055f 12       		.uleb128 0x12
 1100 0560 6A050000 		.4byte	0x56a
 1101 0564 12       		.uleb128 0x12
 1102 0565 2C000000 		.4byte	0x2c
 1103 0569 00       		.byte	0
 1104 056a 09       		.uleb128 0x9
 1105 056b 04       		.byte	0x4
 1106 056c 70050000 		.4byte	0x570
 1107 0570 10       		.uleb128 0x10
 1108 0571 A2000000 		.4byte	0xa2
 1109 0575 09       		.uleb128 0x9
 1110 0576 04       		.byte	0x4
 1111 0577 51050000 		.4byte	0x551
 1112 057b 11       		.uleb128 0x11
 1113 057c 2C000000 		.4byte	0x2c
 1114 0580 94050000 		.4byte	0x594
 1115 0584 12       		.uleb128 0x12
 1116 0585 9D020000 		.4byte	0x29d
 1117 0589 12       		.uleb128 0x12
 1118 058a F8040000 		.4byte	0x4f8
 1119 058e 12       		.uleb128 0x12
 1120 058f 2C000000 		.4byte	0x2c
 1121 0593 00       		.byte	0
 1122 0594 09       		.uleb128 0x9
 1123 0595 04       		.byte	0x4
 1124 0596 7B050000 		.4byte	0x57b
 1125 059a 11       		.uleb128 0x11
ARM GAS  /tmp/cccNzPOP.s 			page 21


 1126 059b 0C010000 		.4byte	0x10c
 1127 059f AE050000 		.4byte	0x5ae
 1128 05a3 12       		.uleb128 0x12
 1129 05a4 9D020000 		.4byte	0x29d
 1130 05a8 12       		.uleb128 0x12
 1131 05a9 A2000000 		.4byte	0xa2
 1132 05ad 00       		.byte	0
 1133 05ae 09       		.uleb128 0x9
 1134 05af 04       		.byte	0x4
 1135 05b0 9A050000 		.4byte	0x59a
 1136 05b4 08       		.uleb128 0x8
 1137 05b5 04       		.byte	0x4
 1138 05b6 0D       		.byte	0xd
 1139 05b7 51       		.byte	0x51
 1140 05b8 C9050000 		.4byte	0x5c9
 1141 05bc 07       		.uleb128 0x7
 1142 05bd 766D7400 		.ascii	"vmt\000"
 1143 05c1 0D       		.byte	0xd
 1144 05c2 53       		.byte	0x53
 1145 05c3 C9050000 		.4byte	0x5c9
 1146 05c7 00       		.byte	0
 1147 05c8 00       		.byte	0
 1148 05c9 09       		.uleb128 0x9
 1149 05ca 04       		.byte	0x4
 1150 05cb CF050000 		.4byte	0x5cf
 1151 05cf 10       		.uleb128 0x10
 1152 05d0 14050000 		.4byte	0x514
 1153 05d4 03       		.uleb128 0x3
 1154 05d5 B1010000 		.4byte	.LASF85
 1155 05d9 0D       		.byte	0xd
 1156 05da 55       		.byte	0x55
 1157 05db B4050000 		.4byte	0x5b4
 1158 05df 0D       		.uleb128 0xd
 1159 05e0 AD000000 		.4byte	0xad
 1160 05e4 0D       		.uleb128 0xd
 1161 05e5 B8000000 		.4byte	0xb8
 1162 05e9 14       		.uleb128 0x14
 1163 05ea 1C       		.byte	0x1c
 1164 05eb 0E       		.byte	0xe
 1165 05ec 2905     		.2byte	0x529
 1166 05ee A7060000 		.4byte	0x6a7
 1167 05f2 0C       		.uleb128 0xc
 1168 05f3 535200   		.ascii	"SR\000"
 1169 05f6 0E       		.byte	0xe
 1170 05f7 2B05     		.2byte	0x52b
 1171 05f9 DF050000 		.4byte	0x5df
 1172 05fd 00       		.byte	0
 1173 05fe 15       		.uleb128 0x15
 1174 05ff 4E030000 		.4byte	.LASF86
 1175 0603 0E       		.byte	0xe
 1176 0604 2C05     		.2byte	0x52c
 1177 0606 AD000000 		.4byte	0xad
 1178 060a 02       		.byte	0x2
 1179 060b 0C       		.uleb128 0xc
 1180 060c 445200   		.ascii	"DR\000"
 1181 060f 0E       		.byte	0xe
 1182 0610 2D05     		.2byte	0x52d
ARM GAS  /tmp/cccNzPOP.s 			page 22


 1183 0612 DF050000 		.4byte	0x5df
 1184 0616 04       		.byte	0x4
 1185 0617 15       		.uleb128 0x15
 1186 0618 58030000 		.4byte	.LASF87
 1187 061c 0E       		.byte	0xe
 1188 061d 2E05     		.2byte	0x52e
 1189 061f AD000000 		.4byte	0xad
 1190 0623 06       		.byte	0x6
 1191 0624 0C       		.uleb128 0xc
 1192 0625 42525200 		.ascii	"BRR\000"
 1193 0629 0E       		.byte	0xe
 1194 062a 2F05     		.2byte	0x52f
 1195 062c DF050000 		.4byte	0x5df
 1196 0630 08       		.byte	0x8
 1197 0631 15       		.uleb128 0x15
 1198 0632 62030000 		.4byte	.LASF88
 1199 0636 0E       		.byte	0xe
 1200 0637 3005     		.2byte	0x530
 1201 0639 AD000000 		.4byte	0xad
 1202 063d 0A       		.byte	0xa
 1203 063e 0C       		.uleb128 0xc
 1204 063f 43523100 		.ascii	"CR1\000"
 1205 0643 0E       		.byte	0xe
 1206 0644 3105     		.2byte	0x531
 1207 0646 DF050000 		.4byte	0x5df
 1208 064a 0C       		.byte	0xc
 1209 064b 15       		.uleb128 0x15
 1210 064c 6C030000 		.4byte	.LASF89
 1211 0650 0E       		.byte	0xe
 1212 0651 3205     		.2byte	0x532
 1213 0653 AD000000 		.4byte	0xad
 1214 0657 0E       		.byte	0xe
 1215 0658 0C       		.uleb128 0xc
 1216 0659 43523200 		.ascii	"CR2\000"
 1217 065d 0E       		.byte	0xe
 1218 065e 3305     		.2byte	0x533
 1219 0660 DF050000 		.4byte	0x5df
 1220 0664 10       		.byte	0x10
 1221 0665 15       		.uleb128 0x15
 1222 0666 76030000 		.4byte	.LASF90
 1223 066a 0E       		.byte	0xe
 1224 066b 3405     		.2byte	0x534
 1225 066d AD000000 		.4byte	0xad
 1226 0671 12       		.byte	0x12
 1227 0672 0C       		.uleb128 0xc
 1228 0673 43523300 		.ascii	"CR3\000"
 1229 0677 0E       		.byte	0xe
 1230 0678 3505     		.2byte	0x535
 1231 067a DF050000 		.4byte	0x5df
 1232 067e 14       		.byte	0x14
 1233 067f 15       		.uleb128 0x15
 1234 0680 63040000 		.4byte	.LASF91
 1235 0684 0E       		.byte	0xe
 1236 0685 3605     		.2byte	0x536
 1237 0687 AD000000 		.4byte	0xad
 1238 068b 16       		.byte	0x16
 1239 068c 15       		.uleb128 0x15
ARM GAS  /tmp/cccNzPOP.s 			page 23


 1240 068d 2C010000 		.4byte	.LASF92
 1241 0691 0E       		.byte	0xe
 1242 0692 3705     		.2byte	0x537
 1243 0694 DF050000 		.4byte	0x5df
 1244 0698 18       		.byte	0x18
 1245 0699 15       		.uleb128 0x15
 1246 069a 87030000 		.4byte	.LASF93
 1247 069e 0E       		.byte	0xe
 1248 069f 3805     		.2byte	0x538
 1249 06a1 AD000000 		.4byte	0xad
 1250 06a5 1A       		.byte	0x1a
 1251 06a6 00       		.byte	0
 1252 06a7 16       		.uleb128 0x16
 1253 06a8 46020000 		.4byte	.LASF94
 1254 06ac 0E       		.byte	0xe
 1255 06ad 3905     		.2byte	0x539
 1256 06af E9050000 		.4byte	0x5e9
 1257 06b3 11       		.uleb128 0x11
 1258 06b4 0C010000 		.4byte	0x10c
 1259 06b8 CC060000 		.4byte	0x6cc
 1260 06bc 12       		.uleb128 0x12
 1261 06bd 9D020000 		.4byte	0x29d
 1262 06c1 12       		.uleb128 0x12
 1263 06c2 A2000000 		.4byte	0xa2
 1264 06c6 12       		.uleb128 0x12
 1265 06c7 2D010000 		.4byte	0x12d
 1266 06cb 00       		.byte	0
 1267 06cc 09       		.uleb128 0x9
 1268 06cd 04       		.byte	0x4
 1269 06ce B3060000 		.4byte	0x6b3
 1270 06d2 11       		.uleb128 0x11
 1271 06d3 0C010000 		.4byte	0x10c
 1272 06d7 E6060000 		.4byte	0x6e6
 1273 06db 12       		.uleb128 0x12
 1274 06dc 9D020000 		.4byte	0x29d
 1275 06e0 12       		.uleb128 0x12
 1276 06e1 2D010000 		.4byte	0x12d
 1277 06e5 00       		.byte	0
 1278 06e6 09       		.uleb128 0x9
 1279 06e7 04       		.byte	0x4
 1280 06e8 D2060000 		.4byte	0x6d2
 1281 06ec 11       		.uleb128 0x11
 1282 06ed 2C000000 		.4byte	0x2c
 1283 06f1 0A070000 		.4byte	0x70a
 1284 06f5 12       		.uleb128 0x12
 1285 06f6 9D020000 		.4byte	0x29d
 1286 06fa 12       		.uleb128 0x12
 1287 06fb 6A050000 		.4byte	0x56a
 1288 06ff 12       		.uleb128 0x12
 1289 0700 2C000000 		.4byte	0x2c
 1290 0704 12       		.uleb128 0x12
 1291 0705 2D010000 		.4byte	0x12d
 1292 0709 00       		.byte	0
 1293 070a 09       		.uleb128 0x9
 1294 070b 04       		.byte	0x4
 1295 070c EC060000 		.4byte	0x6ec
 1296 0710 11       		.uleb128 0x11
ARM GAS  /tmp/cccNzPOP.s 			page 24


 1297 0711 2C000000 		.4byte	0x2c
 1298 0715 2E070000 		.4byte	0x72e
 1299 0719 12       		.uleb128 0x12
 1300 071a 9D020000 		.4byte	0x29d
 1301 071e 12       		.uleb128 0x12
 1302 071f F8040000 		.4byte	0x4f8
 1303 0723 12       		.uleb128 0x12
 1304 0724 2C000000 		.4byte	0x2c
 1305 0728 12       		.uleb128 0x12
 1306 0729 2D010000 		.4byte	0x12d
 1307 072d 00       		.byte	0
 1308 072e 09       		.uleb128 0x9
 1309 072f 04       		.byte	0x4
 1310 0730 10070000 		.4byte	0x710
 1311 0734 17       		.uleb128 0x17
 1312 0735 01       		.byte	0x1
 1313 0736 0F       		.byte	0xf
 1314 0737 64       		.byte	0x64
 1315 0738 4F070000 		.4byte	0x74f
 1316 073c 18       		.uleb128 0x18
 1317 073d 59040000 		.4byte	.LASF95
 1318 0741 00       		.sleb128 0
 1319 0742 18       		.uleb128 0x18
 1320 0743 35040000 		.4byte	.LASF96
 1321 0747 01       		.sleb128 1
 1322 0748 18       		.uleb128 0x18
 1323 0749 EE040000 		.4byte	.LASF97
 1324 074d 02       		.sleb128 2
 1325 074e 00       		.byte	0
 1326 074f 03       		.uleb128 0x3
 1327 0750 76040000 		.4byte	.LASF98
 1328 0754 0F       		.byte	0xf
 1329 0755 68       		.byte	0x68
 1330 0756 34070000 		.4byte	0x734
 1331 075a 03       		.uleb128 0x3
 1332 075b 80040000 		.4byte	.LASF99
 1333 075f 0F       		.byte	0xf
 1334 0760 6D       		.byte	0x6d
 1335 0761 65070000 		.4byte	0x765
 1336 0765 05       		.uleb128 0x5
 1337 0766 80040000 		.4byte	.LASF99
 1338 076a 78       		.byte	0x78
 1339 076b 0F       		.byte	0xf
 1340 076c 87       		.byte	0x87
 1341 076d D0070000 		.4byte	0x7d0
 1342 0771 07       		.uleb128 0x7
 1343 0772 766D7400 		.ascii	"vmt\000"
 1344 0776 0F       		.byte	0xf
 1345 0777 89       		.byte	0x89
 1346 0778 3D080000 		.4byte	0x83d
 1347 077c 00       		.byte	0
 1348 077d 06       		.uleb128 0x6
 1349 077e 0F020000 		.4byte	.LASF100
 1350 0782 0F       		.byte	0xf
 1351 0783 8A       		.byte	0x8a
 1352 0784 F1030000 		.4byte	0x3f1
 1353 0788 04       		.byte	0x4
ARM GAS  /tmp/cccNzPOP.s 			page 25


 1354 0789 06       		.uleb128 0x6
 1355 078a 48010000 		.4byte	.LASF101
 1356 078e 0F       		.byte	0xf
 1357 078f 8A       		.byte	0x8a
 1358 0790 4F070000 		.4byte	0x74f
 1359 0794 08       		.byte	0x8
 1360 0795 06       		.uleb128 0x6
 1361 0796 F8010000 		.4byte	.LASF102
 1362 079a 0F       		.byte	0xf
 1363 079b 8A       		.byte	0x8a
 1364 079c FE040000 		.4byte	0x4fe
 1365 07a0 0C       		.byte	0xc
 1366 07a1 06       		.uleb128 0x6
 1367 07a2 2E020000 		.4byte	.LASF103
 1368 07a6 0F       		.byte	0xf
 1369 07a7 8A       		.byte	0x8a
 1370 07a8 09050000 		.4byte	0x509
 1371 07ac 30       		.byte	0x30
 1372 07ad 07       		.uleb128 0x7
 1373 07ae 696200   		.ascii	"ib\000"
 1374 07b1 0F       		.byte	0xf
 1375 07b2 8A       		.byte	0x8a
 1376 07b3 48080000 		.4byte	0x848
 1377 07b7 54       		.byte	0x54
 1378 07b8 07       		.uleb128 0x7
 1379 07b9 6F6200   		.ascii	"ob\000"
 1380 07bc 0F       		.byte	0xf
 1381 07bd 8A       		.byte	0x8a
 1382 07be 48080000 		.4byte	0x848
 1383 07c2 64       		.byte	0x64
 1384 07c3 06       		.uleb128 0x6
 1385 07c4 CC010000 		.4byte	.LASF104
 1386 07c8 0F       		.byte	0xf
 1387 07c9 8A       		.byte	0x8a
 1388 07ca 58080000 		.4byte	0x858
 1389 07ce 74       		.byte	0x74
 1390 07cf 00       		.byte	0
 1391 07d0 05       		.uleb128 0x5
 1392 07d1 E8010000 		.4byte	.LASF105
 1393 07d5 20       		.byte	0x20
 1394 07d6 0F       		.byte	0xf
 1395 07d7 7C       		.byte	0x7c
 1396 07d8 3D080000 		.4byte	0x83d
 1397 07dc 06       		.uleb128 0x6
 1398 07dd A4020000 		.4byte	.LASF83
 1399 07e1 0F       		.byte	0xf
 1400 07e2 7D       		.byte	0x7d
 1401 07e3 75050000 		.4byte	0x575
 1402 07e7 00       		.byte	0
 1403 07e8 06       		.uleb128 0x6
 1404 07e9 9F040000 		.4byte	.LASF84
 1405 07ed 0F       		.byte	0xf
 1406 07ee 7D       		.byte	0x7d
 1407 07ef 94050000 		.4byte	0x594
 1408 07f3 04       		.byte	0x4
 1409 07f4 07       		.uleb128 0x7
 1410 07f5 70757400 		.ascii	"put\000"
ARM GAS  /tmp/cccNzPOP.s 			page 26


 1411 07f9 0F       		.byte	0xf
 1412 07fa 7D       		.byte	0x7d
 1413 07fb AE050000 		.4byte	0x5ae
 1414 07ff 08       		.byte	0x8
 1415 0800 07       		.uleb128 0x7
 1416 0801 67657400 		.ascii	"get\000"
 1417 0805 0F       		.byte	0xf
 1418 0806 7D       		.byte	0x7d
 1419 0807 49040000 		.4byte	0x449
 1420 080b 0C       		.byte	0xc
 1421 080c 06       		.uleb128 0x6
 1422 080d AA020000 		.4byte	.LASF106
 1423 0811 0F       		.byte	0xf
 1424 0812 7D       		.byte	0x7d
 1425 0813 CC060000 		.4byte	0x6cc
 1426 0817 10       		.byte	0x10
 1427 0818 06       		.uleb128 0x6
 1428 0819 0A020000 		.4byte	.LASF107
 1429 081d 0F       		.byte	0xf
 1430 081e 7D       		.byte	0x7d
 1431 081f E6060000 		.4byte	0x6e6
 1432 0823 14       		.byte	0x14
 1433 0824 06       		.uleb128 0x6
 1434 0825 54020000 		.4byte	.LASF108
 1435 0829 0F       		.byte	0xf
 1436 082a 7D       		.byte	0x7d
 1437 082b 0A070000 		.4byte	0x70a
 1438 082f 18       		.byte	0x18
 1439 0830 06       		.uleb128 0x6
 1440 0831 07010000 		.4byte	.LASF109
 1441 0835 0F       		.byte	0xf
 1442 0836 7D       		.byte	0x7d
 1443 0837 2E070000 		.4byte	0x72e
 1444 083b 1C       		.byte	0x1c
 1445 083c 00       		.byte	0
 1446 083d 09       		.uleb128 0x9
 1447 083e 04       		.byte	0x4
 1448 083f 43080000 		.4byte	0x843
 1449 0843 10       		.uleb128 0x10
 1450 0844 D0070000 		.4byte	0x7d0
 1451 0848 19       		.uleb128 0x19
 1452 0849 A2000000 		.4byte	0xa2
 1453 084d 58080000 		.4byte	0x858
 1454 0851 1A       		.uleb128 0x1a
 1455 0852 3C030000 		.4byte	0x33c
 1456 0856 0F       		.byte	0xf
 1457 0857 00       		.byte	0
 1458 0858 09       		.uleb128 0x9
 1459 0859 04       		.byte	0x4
 1460 085a A7060000 		.4byte	0x6a7
 1461 085e 03       		.uleb128 0x3
 1462 085f C8020000 		.4byte	.LASF110
 1463 0863 10       		.byte	0x10
 1464 0864 28       		.byte	0x28
 1465 0865 69080000 		.4byte	0x869
 1466 0869 05       		.uleb128 0x5
 1467 086a 60010000 		.4byte	.LASF111
ARM GAS  /tmp/cccNzPOP.s 			page 27


 1468 086e 04       		.byte	0x4
 1469 086f 11       		.byte	0x11
 1470 0870 00       		.byte	0
 1471 0871 80080000 		.4byte	0x880
 1472 0875 1B       		.uleb128 0x1b
 1473 0876 DA040000 		.4byte	.LASF112
 1474 087a 9D020000 		.4byte	0x29d
 1475 087e 00       		.byte	0
 1476 087f 00       		.byte	0
 1477 0880 03       		.uleb128 0x3
 1478 0881 24000000 		.4byte	.LASF113
 1479 0885 10       		.byte	0x10
 1480 0886 62       		.byte	0x62
 1481 0887 5E080000 		.4byte	0x85e
 1482 088b 1C       		.uleb128 0x1c
 1483 088c 82050000 		.4byte	.LASF126
 1484 0890 01       		.byte	0x1
 1485 0891 45       		.byte	0x45
 1486 0892 03       		.byte	0x3
 1487 0893 B9080000 		.4byte	0x8b9
 1488 0897 1D       		.uleb128 0x1d
 1489 0898 63687000 		.ascii	"chp\000"
 1490 089c 01       		.byte	0x1
 1491 089d 45       		.byte	0x45
 1492 089e B9080000 		.4byte	0x8b9
 1493 08a2 1D       		.uleb128 0x1d
 1494 08a3 666D7400 		.ascii	"fmt\000"
 1495 08a7 01       		.byte	0x1
 1496 08a8 45       		.byte	0x45
 1497 08a9 31040000 		.4byte	0x431
 1498 08ad 1E       		.uleb128 0x1e
 1499 08ae 1F       		.uleb128 0x1f
 1500 08af 617000   		.ascii	"ap\000"
 1501 08b2 01       		.byte	0x1
 1502 08b3 46       		.byte	0x46
 1503 08b4 80080000 		.4byte	0x880
 1504 08b8 00       		.byte	0
 1505 08b9 09       		.uleb128 0x9
 1506 08ba 04       		.byte	0x4
 1507 08bb D4050000 		.4byte	0x5d4
 1508 08bf 20       		.uleb128 0x20
 1509 08c0 8B080000 		.4byte	0x88b
 1510 08c4 00000000 		.4byte	.LFB127
 1511 08c8 26000000 		.4byte	.LFE127-.LFB127
 1512 08cc 01       		.uleb128 0x1
 1513 08cd 9C       		.byte	0x9c
 1514 08ce 09090000 		.4byte	0x909
 1515 08d2 21       		.uleb128 0x21
 1516 08d3 97080000 		.4byte	0x897
 1517 08d7 00000000 		.4byte	.LLST0
 1518 08db 22       		.uleb128 0x22
 1519 08dc A2080000 		.4byte	0x8a2
 1520 08e0 02       		.uleb128 0x2
 1521 08e1 91       		.byte	0x91
 1522 08e2 74       		.sleb128 -12
 1523 08e3 1E       		.uleb128 0x1e
 1524 08e4 23       		.uleb128 0x23
ARM GAS  /tmp/cccNzPOP.s 			page 28


 1525 08e5 AE080000 		.4byte	0x8ae
 1526 08e9 02       		.uleb128 0x2
 1527 08ea 91       		.byte	0x91
 1528 08eb 6C       		.sleb128 -20
 1529 08ec 24       		.uleb128 0x24
 1530 08ed 97080000 		.4byte	0x897
 1531 08f1 25       		.uleb128 0x25
 1532 08f2 1C000000 		.4byte	.LVL2
 1533 08f6 490B0000 		.4byte	0xb49
 1534 08fa 26       		.uleb128 0x26
 1535 08fb 01       		.uleb128 0x1
 1536 08fc 52       		.byte	0x52
 1537 08fd 02       		.uleb128 0x2
 1538 08fe 91       		.byte	0x91
 1539 08ff 60       		.sleb128 -32
 1540 0900 26       		.uleb128 0x26
 1541 0901 01       		.uleb128 0x1
 1542 0902 51       		.byte	0x51
 1543 0903 03       		.uleb128 0x3
 1544 0904 91       		.byte	0x91
 1545 0905 5C       		.sleb128 -36
 1546 0906 06       		.byte	0x6
 1547 0907 00       		.byte	0
 1548 0908 00       		.byte	0
 1549 0909 27       		.uleb128 0x27
 1550 090a 5C050000 		.4byte	.LASF114
 1551 090e 02       		.byte	0x2
 1552 090f 0E       		.byte	0xe
 1553 0910 25000000 		.4byte	0x25
 1554 0914 00000000 		.4byte	.LFB119
 1555 0918 1C000000 		.4byte	.LFE119-.LFB119
 1556 091c 01       		.uleb128 0x1
 1557 091d 9C       		.byte	0x9c
 1558 091e 3B090000 		.4byte	0x93b
 1559 0922 25       		.uleb128 0x25
 1560 0923 18000000 		.4byte	.LVL3
 1561 0927 BF080000 		.4byte	0x8bf
 1562 092b 26       		.uleb128 0x26
 1563 092c 01       		.uleb128 0x1
 1564 092d 52       		.byte	0x52
 1565 092e 01       		.uleb128 0x1
 1566 092f 4B       		.byte	0x4b
 1567 0930 26       		.uleb128 0x26
 1568 0931 01       		.uleb128 0x1
 1569 0932 51       		.byte	0x51
 1570 0933 05       		.uleb128 0x5
 1571 0934 03       		.byte	0x3
 1572 0935 00000000 		.4byte	.LC0
 1573 0939 00       		.byte	0
 1574 093a 00       		.byte	0
 1575 093b 27       		.uleb128 0x27
 1576 093c 39010000 		.4byte	.LASF115
 1577 0940 02       		.byte	0x2
 1578 0941 15       		.byte	0x15
 1579 0942 25000000 		.4byte	0x25
 1580 0946 00000000 		.4byte	.LFB120
 1581 094a 30000000 		.4byte	.LFE120-.LFB120
ARM GAS  /tmp/cccNzPOP.s 			page 29


 1582 094e 01       		.uleb128 0x1
 1583 094f 9C       		.byte	0x9c
 1584 0950 7A090000 		.4byte	0x97a
 1585 0954 28       		.uleb128 0x28
 1586 0955 726F7700 		.ascii	"row\000"
 1587 0959 02       		.byte	0x2
 1588 095a 15       		.byte	0x15
 1589 095b 25000000 		.4byte	0x25
 1590 095f 21000000 		.4byte	.LLST1
 1591 0963 25       		.uleb128 0x25
 1592 0964 2C000000 		.4byte	.LVL6
 1593 0968 BF080000 		.4byte	0x8bf
 1594 096c 26       		.uleb128 0x26
 1595 096d 01       		.uleb128 0x1
 1596 096e 53       		.byte	0x53
 1597 096f 03       		.uleb128 0x3
 1598 0970 F3       		.byte	0xf3
 1599 0971 01       		.uleb128 0x1
 1600 0972 50       		.byte	0x50
 1601 0973 26       		.uleb128 0x26
 1602 0974 01       		.uleb128 0x1
 1603 0975 52       		.byte	0x52
 1604 0976 01       		.uleb128 0x1
 1605 0977 4B       		.byte	0x4b
 1606 0978 00       		.byte	0
 1607 0979 00       		.byte	0
 1608 097a 27       		.uleb128 0x27
 1609 097b 0D010000 		.4byte	.LASF116
 1610 097f 02       		.byte	0x2
 1611 0980 1F       		.byte	0x1f
 1612 0981 25000000 		.4byte	0x25
 1613 0985 00000000 		.4byte	.LFB121
 1614 0989 30000000 		.4byte	.LFE121-.LFB121
 1615 098d 01       		.uleb128 0x1
 1616 098e 9C       		.byte	0x9c
 1617 098f B9090000 		.4byte	0x9b9
 1618 0993 28       		.uleb128 0x28
 1619 0994 636F6C00 		.ascii	"col\000"
 1620 0998 02       		.byte	0x2
 1621 0999 1F       		.byte	0x1f
 1622 099a 25000000 		.4byte	0x25
 1623 099e 4D000000 		.4byte	.LLST2
 1624 09a2 25       		.uleb128 0x25
 1625 09a3 2C000000 		.4byte	.LVL9
 1626 09a7 BF080000 		.4byte	0x8bf
 1627 09ab 26       		.uleb128 0x26
 1628 09ac 01       		.uleb128 0x1
 1629 09ad 53       		.byte	0x53
 1630 09ae 03       		.uleb128 0x3
 1631 09af F3       		.byte	0xf3
 1632 09b0 01       		.uleb128 0x1
 1633 09b1 50       		.byte	0x50
 1634 09b2 26       		.uleb128 0x26
 1635 09b3 01       		.uleb128 0x1
 1636 09b4 52       		.byte	0x52
 1637 09b5 01       		.uleb128 0x1
 1638 09b6 4B       		.byte	0x4b
ARM GAS  /tmp/cccNzPOP.s 			page 30


 1639 09b7 00       		.byte	0
 1640 09b8 00       		.byte	0
 1641 09b9 29       		.uleb128 0x29
 1642 09ba 636C7300 		.ascii	"cls\000"
 1643 09be 02       		.byte	0x2
 1644 09bf 29       		.byte	0x29
 1645 09c0 25000000 		.4byte	0x25
 1646 09c4 00000000 		.4byte	.LFB122
 1647 09c8 1C000000 		.4byte	.LFE122-.LFB122
 1648 09cc 01       		.uleb128 0x1
 1649 09cd 9C       		.byte	0x9c
 1650 09ce EB090000 		.4byte	0x9eb
 1651 09d2 25       		.uleb128 0x25
 1652 09d3 18000000 		.4byte	.LVL10
 1653 09d7 BF080000 		.4byte	0x8bf
 1654 09db 26       		.uleb128 0x26
 1655 09dc 01       		.uleb128 0x1
 1656 09dd 52       		.byte	0x52
 1657 09de 01       		.uleb128 0x1
 1658 09df 4B       		.byte	0x4b
 1659 09e0 26       		.uleb128 0x26
 1660 09e1 01       		.uleb128 0x1
 1661 09e2 51       		.byte	0x51
 1662 09e3 05       		.uleb128 0x5
 1663 09e4 03       		.byte	0x3
 1664 09e5 28000000 		.4byte	.LC5
 1665 09e9 00       		.byte	0
 1666 09ea 00       		.byte	0
 1667 09eb 27       		.uleb128 0x27
 1668 09ec 44040000 		.4byte	.LASF117
 1669 09f0 02       		.byte	0x2
 1670 09f1 30       		.byte	0x30
 1671 09f2 25000000 		.4byte	0x25
 1672 09f6 00000000 		.4byte	.LFB123
 1673 09fa 34000000 		.4byte	.LFE123-.LFB123
 1674 09fe 01       		.uleb128 0x1
 1675 09ff 9C       		.byte	0x9c
 1676 0a00 6F0A0000 		.4byte	0xa6f
 1677 0a04 28       		.uleb128 0x28
 1678 0a05 726F7700 		.ascii	"row\000"
 1679 0a09 02       		.byte	0x2
 1680 0a0a 30       		.byte	0x30
 1681 0a0b 25000000 		.4byte	0x25
 1682 0a0f 79000000 		.4byte	.LLST3
 1683 0a13 28       		.uleb128 0x28
 1684 0a14 636F6C00 		.ascii	"col\000"
 1685 0a18 02       		.byte	0x2
 1686 0a19 30       		.byte	0x30
 1687 0a1a 25000000 		.4byte	0x25
 1688 0a1e A7000000 		.4byte	.LLST4
 1689 0a22 2A       		.uleb128 0x2a
 1690 0a23 20000000 		.4byte	.LVL14
 1691 0a27 BF080000 		.4byte	0x8bf
 1692 0a2b 550A0000 		.4byte	0xa55
 1693 0a2f 26       		.uleb128 0x26
 1694 0a30 01       		.uleb128 0x1
 1695 0a31 53       		.byte	0x53
ARM GAS  /tmp/cccNzPOP.s 			page 31


 1696 0a32 05       		.uleb128 0x5
 1697 0a33 F3       		.byte	0xf3
 1698 0a34 01       		.uleb128 0x1
 1699 0a35 50       		.byte	0x50
 1700 0a36 31       		.byte	0x31
 1701 0a37 1C       		.byte	0x1c
 1702 0a38 26       		.uleb128 0x26
 1703 0a39 01       		.uleb128 0x1
 1704 0a3a 52       		.byte	0x52
 1705 0a3b 01       		.uleb128 0x1
 1706 0a3c 4B       		.byte	0x4b
 1707 0a3d 26       		.uleb128 0x26
 1708 0a3e 01       		.uleb128 0x1
 1709 0a3f 51       		.byte	0x51
 1710 0a40 05       		.uleb128 0x5
 1711 0a41 03       		.byte	0x3
 1712 0a42 30000000 		.4byte	.LC6
 1713 0a46 26       		.uleb128 0x26
 1714 0a47 01       		.uleb128 0x1
 1715 0a48 50       		.byte	0x50
 1716 0a49 02       		.uleb128 0x2
 1717 0a4a 74       		.byte	0x74
 1718 0a4b 00       		.sleb128 0
 1719 0a4c 26       		.uleb128 0x26
 1720 0a4d 02       		.uleb128 0x2
 1721 0a4e 7D       		.byte	0x7d
 1722 0a4f 00       		.sleb128 0
 1723 0a50 03       		.uleb128 0x3
 1724 0a51 F3       		.byte	0xf3
 1725 0a52 01       		.uleb128 0x1
 1726 0a53 51       		.byte	0x51
 1727 0a54 00       		.byte	0
 1728 0a55 25       		.uleb128 0x25
 1729 0a56 2E000000 		.4byte	.LVL15
 1730 0a5a BF080000 		.4byte	0x8bf
 1731 0a5e 26       		.uleb128 0x26
 1732 0a5f 01       		.uleb128 0x1
 1733 0a60 51       		.byte	0x51
 1734 0a61 05       		.uleb128 0x5
 1735 0a62 03       		.byte	0x3
 1736 0a63 3C000000 		.4byte	.LC7
 1737 0a67 26       		.uleb128 0x26
 1738 0a68 01       		.uleb128 0x1
 1739 0a69 50       		.byte	0x50
 1740 0a6a 02       		.uleb128 0x2
 1741 0a6b 74       		.byte	0x74
 1742 0a6c 00       		.sleb128 0
 1743 0a6d 00       		.byte	0
 1744 0a6e 00       		.byte	0
 1745 0a6f 27       		.uleb128 0x27
 1746 0a70 C6010000 		.4byte	.LASF118
 1747 0a74 02       		.byte	0x2
 1748 0a75 38       		.byte	0x38
 1749 0a76 25000000 		.4byte	0x25
 1750 0a7a 00000000 		.4byte	.LFB124
 1751 0a7e 1C000000 		.4byte	.LFE124-.LFB124
 1752 0a82 01       		.uleb128 0x1
ARM GAS  /tmp/cccNzPOP.s 			page 32


 1753 0a83 9C       		.byte	0x9c
 1754 0a84 A10A0000 		.4byte	0xaa1
 1755 0a88 25       		.uleb128 0x25
 1756 0a89 18000000 		.4byte	.LVL16
 1757 0a8d BF080000 		.4byte	0x8bf
 1758 0a91 26       		.uleb128 0x26
 1759 0a92 01       		.uleb128 0x1
 1760 0a93 52       		.byte	0x52
 1761 0a94 01       		.uleb128 0x1
 1762 0a95 4B       		.byte	0x4b
 1763 0a96 26       		.uleb128 0x26
 1764 0a97 01       		.uleb128 0x1
 1765 0a98 51       		.byte	0x51
 1766 0a99 05       		.uleb128 0x5
 1767 0a9a 03       		.byte	0x3
 1768 0a9b 40000000 		.4byte	.LC8
 1769 0a9f 00       		.byte	0
 1770 0aa0 00       		.byte	0
 1771 0aa1 27       		.uleb128 0x27
 1772 0aa2 5B020000 		.4byte	.LASF119
 1773 0aa6 02       		.byte	0x2
 1774 0aa7 3E       		.byte	0x3e
 1775 0aa8 25000000 		.4byte	0x25
 1776 0aac 00000000 		.4byte	.LFB125
 1777 0ab0 1E000000 		.4byte	.LFE125-.LFB125
 1778 0ab4 01       		.uleb128 0x1
 1779 0ab5 9C       		.byte	0x9c
 1780 0ab6 E90A0000 		.4byte	0xae9
 1781 0aba 2B       		.uleb128 0x2b
 1782 0abb 03050000 		.4byte	.LASF120
 1783 0abf 02       		.byte	0x2
 1784 0ac0 3E       		.byte	0x3e
 1785 0ac1 25000000 		.4byte	0x25
 1786 0ac5 D4000000 		.4byte	.LLST5
 1787 0ac9 25       		.uleb128 0x25
 1788 0aca 1A000000 		.4byte	.LVL19
 1789 0ace BF080000 		.4byte	0x8bf
 1790 0ad2 26       		.uleb128 0x26
 1791 0ad3 01       		.uleb128 0x1
 1792 0ad4 53       		.byte	0x53
 1793 0ad5 03       		.uleb128 0x3
 1794 0ad6 F3       		.byte	0xf3
 1795 0ad7 01       		.uleb128 0x1
 1796 0ad8 50       		.byte	0x50
 1797 0ad9 26       		.uleb128 0x26
 1798 0ada 01       		.uleb128 0x1
 1799 0adb 52       		.byte	0x52
 1800 0adc 01       		.uleb128 0x1
 1801 0add 4B       		.byte	0x4b
 1802 0ade 26       		.uleb128 0x26
 1803 0adf 01       		.uleb128 0x1
 1804 0ae0 51       		.byte	0x51
 1805 0ae1 05       		.uleb128 0x5
 1806 0ae2 03       		.byte	0x3
 1807 0ae3 48000000 		.4byte	.LC9
 1808 0ae7 00       		.byte	0
 1809 0ae8 00       		.byte	0
ARM GAS  /tmp/cccNzPOP.s 			page 33


 1810 0ae9 27       		.uleb128 0x27
 1811 0aea 35020000 		.4byte	.LASF121
 1812 0aee 02       		.byte	0x2
 1813 0aef 43       		.byte	0x43
 1814 0af0 25000000 		.4byte	0x25
 1815 0af4 00000000 		.4byte	.LFB126
 1816 0af8 1E000000 		.4byte	.LFE126-.LFB126
 1817 0afc 01       		.uleb128 0x1
 1818 0afd 9C       		.byte	0x9c
 1819 0afe 310B0000 		.4byte	0xb31
 1820 0b02 2B       		.uleb128 0x2b
 1821 0b03 03050000 		.4byte	.LASF120
 1822 0b07 02       		.byte	0x2
 1823 0b08 43       		.byte	0x43
 1824 0b09 25000000 		.4byte	0x25
 1825 0b0d 00010000 		.4byte	.LLST6
 1826 0b11 25       		.uleb128 0x25
 1827 0b12 1A000000 		.4byte	.LVL22
 1828 0b16 BF080000 		.4byte	0x8bf
 1829 0b1a 26       		.uleb128 0x26
 1830 0b1b 01       		.uleb128 0x1
 1831 0b1c 53       		.byte	0x53
 1832 0b1d 03       		.uleb128 0x3
 1833 0b1e F3       		.byte	0xf3
 1834 0b1f 01       		.uleb128 0x1
 1835 0b20 50       		.byte	0x50
 1836 0b21 26       		.uleb128 0x26
 1837 0b22 01       		.uleb128 0x1
 1838 0b23 52       		.byte	0x52
 1839 0b24 01       		.uleb128 0x1
 1840 0b25 4B       		.byte	0x4b
 1841 0b26 26       		.uleb128 0x26
 1842 0b27 01       		.uleb128 0x1
 1843 0b28 51       		.byte	0x51
 1844 0b29 05       		.uleb128 0x5
 1845 0b2a 03       		.byte	0x3
 1846 0b2b 50000000 		.4byte	.LC10
 1847 0b2f 00       		.byte	0
 1848 0b30 00       		.byte	0
 1849 0b31 2C       		.uleb128 0x2c
 1850 0b32 F3000000 		.4byte	.LASF122
 1851 0b36 12       		.byte	0x12
 1852 0b37 9806     		.2byte	0x698
 1853 0b39 E4050000 		.4byte	0x5e4
 1854 0b3d 2D       		.uleb128 0x2d
 1855 0b3e 53443200 		.ascii	"SD2\000"
 1856 0b42 13       		.byte	0x13
 1857 0b43 1201     		.2byte	0x112
 1858 0b45 5A070000 		.4byte	0x75a
 1859 0b49 2E       		.uleb128 0x2e
 1860 0b4a 35050000 		.4byte	.LASF127
 1861 0b4e 01       		.byte	0x1
 1862 0b4f 28       		.byte	0x28
 1863 0b50 12       		.uleb128 0x12
 1864 0b51 B9080000 		.4byte	0x8b9
 1865 0b55 12       		.uleb128 0x12
 1866 0b56 31040000 		.4byte	0x431
ARM GAS  /tmp/cccNzPOP.s 			page 34


 1867 0b5a 12       		.uleb128 0x12
 1868 0b5b 80080000 		.4byte	0x880
 1869 0b5f 00       		.byte	0
 1870 0b60 00       		.byte	0
 1871              		.section	.debug_abbrev,"",%progbits
 1872              	.Ldebug_abbrev0:
 1873 0000 01       		.uleb128 0x1
 1874 0001 11       		.uleb128 0x11
 1875 0002 01       		.byte	0x1
 1876 0003 25       		.uleb128 0x25
 1877 0004 0E       		.uleb128 0xe
 1878 0005 13       		.uleb128 0x13
 1879 0006 0B       		.uleb128 0xb
 1880 0007 03       		.uleb128 0x3
 1881 0008 0E       		.uleb128 0xe
 1882 0009 1B       		.uleb128 0x1b
 1883 000a 0E       		.uleb128 0xe
 1884 000b 55       		.uleb128 0x55
 1885 000c 17       		.uleb128 0x17
 1886 000d 11       		.uleb128 0x11
 1887 000e 01       		.uleb128 0x1
 1888 000f 10       		.uleb128 0x10
 1889 0010 17       		.uleb128 0x17
 1890 0011 00       		.byte	0
 1891 0012 00       		.byte	0
 1892 0013 02       		.uleb128 0x2
 1893 0014 24       		.uleb128 0x24
 1894 0015 00       		.byte	0
 1895 0016 0B       		.uleb128 0xb
 1896 0017 0B       		.uleb128 0xb
 1897 0018 3E       		.uleb128 0x3e
 1898 0019 0B       		.uleb128 0xb
 1899 001a 03       		.uleb128 0x3
 1900 001b 08       		.uleb128 0x8
 1901 001c 00       		.byte	0
 1902 001d 00       		.byte	0
 1903 001e 03       		.uleb128 0x3
 1904 001f 16       		.uleb128 0x16
 1905 0020 00       		.byte	0
 1906 0021 03       		.uleb128 0x3
 1907 0022 0E       		.uleb128 0xe
 1908 0023 3A       		.uleb128 0x3a
 1909 0024 0B       		.uleb128 0xb
 1910 0025 3B       		.uleb128 0x3b
 1911 0026 0B       		.uleb128 0xb
 1912 0027 49       		.uleb128 0x49
 1913 0028 13       		.uleb128 0x13
 1914 0029 00       		.byte	0
 1915 002a 00       		.byte	0
 1916 002b 04       		.uleb128 0x4
 1917 002c 24       		.uleb128 0x24
 1918 002d 00       		.byte	0
 1919 002e 0B       		.uleb128 0xb
 1920 002f 0B       		.uleb128 0xb
 1921 0030 3E       		.uleb128 0x3e
 1922 0031 0B       		.uleb128 0xb
 1923 0032 03       		.uleb128 0x3
ARM GAS  /tmp/cccNzPOP.s 			page 35


 1924 0033 0E       		.uleb128 0xe
 1925 0034 00       		.byte	0
 1926 0035 00       		.byte	0
 1927 0036 05       		.uleb128 0x5
 1928 0037 13       		.uleb128 0x13
 1929 0038 01       		.byte	0x1
 1930 0039 03       		.uleb128 0x3
 1931 003a 0E       		.uleb128 0xe
 1932 003b 0B       		.uleb128 0xb
 1933 003c 0B       		.uleb128 0xb
 1934 003d 3A       		.uleb128 0x3a
 1935 003e 0B       		.uleb128 0xb
 1936 003f 3B       		.uleb128 0x3b
 1937 0040 0B       		.uleb128 0xb
 1938 0041 01       		.uleb128 0x1
 1939 0042 13       		.uleb128 0x13
 1940 0043 00       		.byte	0
 1941 0044 00       		.byte	0
 1942 0045 06       		.uleb128 0x6
 1943 0046 0D       		.uleb128 0xd
 1944 0047 00       		.byte	0
 1945 0048 03       		.uleb128 0x3
 1946 0049 0E       		.uleb128 0xe
 1947 004a 3A       		.uleb128 0x3a
 1948 004b 0B       		.uleb128 0xb
 1949 004c 3B       		.uleb128 0x3b
 1950 004d 0B       		.uleb128 0xb
 1951 004e 49       		.uleb128 0x49
 1952 004f 13       		.uleb128 0x13
 1953 0050 38       		.uleb128 0x38
 1954 0051 0B       		.uleb128 0xb
 1955 0052 00       		.byte	0
 1956 0053 00       		.byte	0
 1957 0054 07       		.uleb128 0x7
 1958 0055 0D       		.uleb128 0xd
 1959 0056 00       		.byte	0
 1960 0057 03       		.uleb128 0x3
 1961 0058 08       		.uleb128 0x8
 1962 0059 3A       		.uleb128 0x3a
 1963 005a 0B       		.uleb128 0xb
 1964 005b 3B       		.uleb128 0x3b
 1965 005c 0B       		.uleb128 0xb
 1966 005d 49       		.uleb128 0x49
 1967 005e 13       		.uleb128 0x13
 1968 005f 38       		.uleb128 0x38
 1969 0060 0B       		.uleb128 0xb
 1970 0061 00       		.byte	0
 1971 0062 00       		.byte	0
 1972 0063 08       		.uleb128 0x8
 1973 0064 13       		.uleb128 0x13
 1974 0065 01       		.byte	0x1
 1975 0066 0B       		.uleb128 0xb
 1976 0067 0B       		.uleb128 0xb
 1977 0068 3A       		.uleb128 0x3a
 1978 0069 0B       		.uleb128 0xb
 1979 006a 3B       		.uleb128 0x3b
 1980 006b 0B       		.uleb128 0xb
ARM GAS  /tmp/cccNzPOP.s 			page 36


 1981 006c 01       		.uleb128 0x1
 1982 006d 13       		.uleb128 0x13
 1983 006e 00       		.byte	0
 1984 006f 00       		.byte	0
 1985 0070 09       		.uleb128 0x9
 1986 0071 0F       		.uleb128 0xf
 1987 0072 00       		.byte	0
 1988 0073 0B       		.uleb128 0xb
 1989 0074 0B       		.uleb128 0xb
 1990 0075 49       		.uleb128 0x49
 1991 0076 13       		.uleb128 0x13
 1992 0077 00       		.byte	0
 1993 0078 00       		.byte	0
 1994 0079 0A       		.uleb128 0xa
 1995 007a 0F       		.uleb128 0xf
 1996 007b 00       		.byte	0
 1997 007c 0B       		.uleb128 0xb
 1998 007d 0B       		.uleb128 0xb
 1999 007e 00       		.byte	0
 2000 007f 00       		.byte	0
 2001 0080 0B       		.uleb128 0xb
 2002 0081 13       		.uleb128 0x13
 2003 0082 01       		.byte	0x1
 2004 0083 03       		.uleb128 0x3
 2005 0084 0E       		.uleb128 0xe
 2006 0085 0B       		.uleb128 0xb
 2007 0086 0B       		.uleb128 0xb
 2008 0087 3A       		.uleb128 0x3a
 2009 0088 0B       		.uleb128 0xb
 2010 0089 3B       		.uleb128 0x3b
 2011 008a 05       		.uleb128 0x5
 2012 008b 01       		.uleb128 0x1
 2013 008c 13       		.uleb128 0x13
 2014 008d 00       		.byte	0
 2015 008e 00       		.byte	0
 2016 008f 0C       		.uleb128 0xc
 2017 0090 0D       		.uleb128 0xd
 2018 0091 00       		.byte	0
 2019 0092 03       		.uleb128 0x3
 2020 0093 08       		.uleb128 0x8
 2021 0094 3A       		.uleb128 0x3a
 2022 0095 0B       		.uleb128 0xb
 2023 0096 3B       		.uleb128 0x3b
 2024 0097 05       		.uleb128 0x5
 2025 0098 49       		.uleb128 0x49
 2026 0099 13       		.uleb128 0x13
 2027 009a 38       		.uleb128 0x38
 2028 009b 0B       		.uleb128 0xb
 2029 009c 00       		.byte	0
 2030 009d 00       		.byte	0
 2031 009e 0D       		.uleb128 0xd
 2032 009f 35       		.uleb128 0x35
 2033 00a0 00       		.byte	0
 2034 00a1 49       		.uleb128 0x49
 2035 00a2 13       		.uleb128 0x13
 2036 00a3 00       		.byte	0
 2037 00a4 00       		.byte	0
ARM GAS  /tmp/cccNzPOP.s 			page 37


 2038 00a5 0E       		.uleb128 0xe
 2039 00a6 17       		.uleb128 0x17
 2040 00a7 01       		.byte	0x1
 2041 00a8 0B       		.uleb128 0xb
 2042 00a9 0B       		.uleb128 0xb
 2043 00aa 3A       		.uleb128 0x3a
 2044 00ab 0B       		.uleb128 0xb
 2045 00ac 3B       		.uleb128 0x3b
 2046 00ad 0B       		.uleb128 0xb
 2047 00ae 01       		.uleb128 0x1
 2048 00af 13       		.uleb128 0x13
 2049 00b0 00       		.byte	0
 2050 00b1 00       		.byte	0
 2051 00b2 0F       		.uleb128 0xf
 2052 00b3 0D       		.uleb128 0xd
 2053 00b4 00       		.byte	0
 2054 00b5 03       		.uleb128 0x3
 2055 00b6 0E       		.uleb128 0xe
 2056 00b7 3A       		.uleb128 0x3a
 2057 00b8 0B       		.uleb128 0xb
 2058 00b9 3B       		.uleb128 0x3b
 2059 00ba 0B       		.uleb128 0xb
 2060 00bb 49       		.uleb128 0x49
 2061 00bc 13       		.uleb128 0x13
 2062 00bd 00       		.byte	0
 2063 00be 00       		.byte	0
 2064 00bf 10       		.uleb128 0x10
 2065 00c0 26       		.uleb128 0x26
 2066 00c1 00       		.byte	0
 2067 00c2 49       		.uleb128 0x49
 2068 00c3 13       		.uleb128 0x13
 2069 00c4 00       		.byte	0
 2070 00c5 00       		.byte	0
 2071 00c6 11       		.uleb128 0x11
 2072 00c7 15       		.uleb128 0x15
 2073 00c8 01       		.byte	0x1
 2074 00c9 27       		.uleb128 0x27
 2075 00ca 19       		.uleb128 0x19
 2076 00cb 49       		.uleb128 0x49
 2077 00cc 13       		.uleb128 0x13
 2078 00cd 01       		.uleb128 0x1
 2079 00ce 13       		.uleb128 0x13
 2080 00cf 00       		.byte	0
 2081 00d0 00       		.byte	0
 2082 00d1 12       		.uleb128 0x12
 2083 00d2 05       		.uleb128 0x5
 2084 00d3 00       		.byte	0
 2085 00d4 49       		.uleb128 0x49
 2086 00d5 13       		.uleb128 0x13
 2087 00d6 00       		.byte	0
 2088 00d7 00       		.byte	0
 2089 00d8 13       		.uleb128 0x13
 2090 00d9 15       		.uleb128 0x15
 2091 00da 01       		.byte	0x1
 2092 00db 27       		.uleb128 0x27
 2093 00dc 19       		.uleb128 0x19
 2094 00dd 01       		.uleb128 0x1
ARM GAS  /tmp/cccNzPOP.s 			page 38


 2095 00de 13       		.uleb128 0x13
 2096 00df 00       		.byte	0
 2097 00e0 00       		.byte	0
 2098 00e1 14       		.uleb128 0x14
 2099 00e2 13       		.uleb128 0x13
 2100 00e3 01       		.byte	0x1
 2101 00e4 0B       		.uleb128 0xb
 2102 00e5 0B       		.uleb128 0xb
 2103 00e6 3A       		.uleb128 0x3a
 2104 00e7 0B       		.uleb128 0xb
 2105 00e8 3B       		.uleb128 0x3b
 2106 00e9 05       		.uleb128 0x5
 2107 00ea 01       		.uleb128 0x1
 2108 00eb 13       		.uleb128 0x13
 2109 00ec 00       		.byte	0
 2110 00ed 00       		.byte	0
 2111 00ee 15       		.uleb128 0x15
 2112 00ef 0D       		.uleb128 0xd
 2113 00f0 00       		.byte	0
 2114 00f1 03       		.uleb128 0x3
 2115 00f2 0E       		.uleb128 0xe
 2116 00f3 3A       		.uleb128 0x3a
 2117 00f4 0B       		.uleb128 0xb
 2118 00f5 3B       		.uleb128 0x3b
 2119 00f6 05       		.uleb128 0x5
 2120 00f7 49       		.uleb128 0x49
 2121 00f8 13       		.uleb128 0x13
 2122 00f9 38       		.uleb128 0x38
 2123 00fa 0B       		.uleb128 0xb
 2124 00fb 00       		.byte	0
 2125 00fc 00       		.byte	0
 2126 00fd 16       		.uleb128 0x16
 2127 00fe 16       		.uleb128 0x16
 2128 00ff 00       		.byte	0
 2129 0100 03       		.uleb128 0x3
 2130 0101 0E       		.uleb128 0xe
 2131 0102 3A       		.uleb128 0x3a
 2132 0103 0B       		.uleb128 0xb
 2133 0104 3B       		.uleb128 0x3b
 2134 0105 05       		.uleb128 0x5
 2135 0106 49       		.uleb128 0x49
 2136 0107 13       		.uleb128 0x13
 2137 0108 00       		.byte	0
 2138 0109 00       		.byte	0
 2139 010a 17       		.uleb128 0x17
 2140 010b 04       		.uleb128 0x4
 2141 010c 01       		.byte	0x1
 2142 010d 0B       		.uleb128 0xb
 2143 010e 0B       		.uleb128 0xb
 2144 010f 3A       		.uleb128 0x3a
 2145 0110 0B       		.uleb128 0xb
 2146 0111 3B       		.uleb128 0x3b
 2147 0112 0B       		.uleb128 0xb
 2148 0113 01       		.uleb128 0x1
 2149 0114 13       		.uleb128 0x13
 2150 0115 00       		.byte	0
 2151 0116 00       		.byte	0
ARM GAS  /tmp/cccNzPOP.s 			page 39


 2152 0117 18       		.uleb128 0x18
 2153 0118 28       		.uleb128 0x28
 2154 0119 00       		.byte	0
 2155 011a 03       		.uleb128 0x3
 2156 011b 0E       		.uleb128 0xe
 2157 011c 1C       		.uleb128 0x1c
 2158 011d 0D       		.uleb128 0xd
 2159 011e 00       		.byte	0
 2160 011f 00       		.byte	0
 2161 0120 19       		.uleb128 0x19
 2162 0121 01       		.uleb128 0x1
 2163 0122 01       		.byte	0x1
 2164 0123 49       		.uleb128 0x49
 2165 0124 13       		.uleb128 0x13
 2166 0125 01       		.uleb128 0x1
 2167 0126 13       		.uleb128 0x13
 2168 0127 00       		.byte	0
 2169 0128 00       		.byte	0
 2170 0129 1A       		.uleb128 0x1a
 2171 012a 21       		.uleb128 0x21
 2172 012b 00       		.byte	0
 2173 012c 49       		.uleb128 0x49
 2174 012d 13       		.uleb128 0x13
 2175 012e 2F       		.uleb128 0x2f
 2176 012f 0B       		.uleb128 0xb
 2177 0130 00       		.byte	0
 2178 0131 00       		.byte	0
 2179 0132 1B       		.uleb128 0x1b
 2180 0133 0D       		.uleb128 0xd
 2181 0134 00       		.byte	0
 2182 0135 03       		.uleb128 0x3
 2183 0136 0E       		.uleb128 0xe
 2184 0137 49       		.uleb128 0x49
 2185 0138 13       		.uleb128 0x13
 2186 0139 38       		.uleb128 0x38
 2187 013a 0B       		.uleb128 0xb
 2188 013b 34       		.uleb128 0x34
 2189 013c 19       		.uleb128 0x19
 2190 013d 00       		.byte	0
 2191 013e 00       		.byte	0
 2192 013f 1C       		.uleb128 0x1c
 2193 0140 2E       		.uleb128 0x2e
 2194 0141 01       		.byte	0x1
 2195 0142 03       		.uleb128 0x3
 2196 0143 0E       		.uleb128 0xe
 2197 0144 3A       		.uleb128 0x3a
 2198 0145 0B       		.uleb128 0xb
 2199 0146 3B       		.uleb128 0x3b
 2200 0147 0B       		.uleb128 0xb
 2201 0148 27       		.uleb128 0x27
 2202 0149 19       		.uleb128 0x19
 2203 014a 20       		.uleb128 0x20
 2204 014b 0B       		.uleb128 0xb
 2205 014c 01       		.uleb128 0x1
 2206 014d 13       		.uleb128 0x13
 2207 014e 00       		.byte	0
 2208 014f 00       		.byte	0
ARM GAS  /tmp/cccNzPOP.s 			page 40


 2209 0150 1D       		.uleb128 0x1d
 2210 0151 05       		.uleb128 0x5
 2211 0152 00       		.byte	0
 2212 0153 03       		.uleb128 0x3
 2213 0154 08       		.uleb128 0x8
 2214 0155 3A       		.uleb128 0x3a
 2215 0156 0B       		.uleb128 0xb
 2216 0157 3B       		.uleb128 0x3b
 2217 0158 0B       		.uleb128 0xb
 2218 0159 49       		.uleb128 0x49
 2219 015a 13       		.uleb128 0x13
 2220 015b 00       		.byte	0
 2221 015c 00       		.byte	0
 2222 015d 1E       		.uleb128 0x1e
 2223 015e 18       		.uleb128 0x18
 2224 015f 00       		.byte	0
 2225 0160 00       		.byte	0
 2226 0161 00       		.byte	0
 2227 0162 1F       		.uleb128 0x1f
 2228 0163 34       		.uleb128 0x34
 2229 0164 00       		.byte	0
 2230 0165 03       		.uleb128 0x3
 2231 0166 08       		.uleb128 0x8
 2232 0167 3A       		.uleb128 0x3a
 2233 0168 0B       		.uleb128 0xb
 2234 0169 3B       		.uleb128 0x3b
 2235 016a 0B       		.uleb128 0xb
 2236 016b 49       		.uleb128 0x49
 2237 016c 13       		.uleb128 0x13
 2238 016d 00       		.byte	0
 2239 016e 00       		.byte	0
 2240 016f 20       		.uleb128 0x20
 2241 0170 2E       		.uleb128 0x2e
 2242 0171 01       		.byte	0x1
 2243 0172 31       		.uleb128 0x31
 2244 0173 13       		.uleb128 0x13
 2245 0174 11       		.uleb128 0x11
 2246 0175 01       		.uleb128 0x1
 2247 0176 12       		.uleb128 0x12
 2248 0177 06       		.uleb128 0x6
 2249 0178 40       		.uleb128 0x40
 2250 0179 18       		.uleb128 0x18
 2251 017a 9742     		.uleb128 0x2117
 2252 017c 19       		.uleb128 0x19
 2253 017d 01       		.uleb128 0x1
 2254 017e 13       		.uleb128 0x13
 2255 017f 00       		.byte	0
 2256 0180 00       		.byte	0
 2257 0181 21       		.uleb128 0x21
 2258 0182 05       		.uleb128 0x5
 2259 0183 00       		.byte	0
 2260 0184 31       		.uleb128 0x31
 2261 0185 13       		.uleb128 0x13
 2262 0186 02       		.uleb128 0x2
 2263 0187 17       		.uleb128 0x17
 2264 0188 00       		.byte	0
 2265 0189 00       		.byte	0
ARM GAS  /tmp/cccNzPOP.s 			page 41


 2266 018a 22       		.uleb128 0x22
 2267 018b 05       		.uleb128 0x5
 2268 018c 00       		.byte	0
 2269 018d 31       		.uleb128 0x31
 2270 018e 13       		.uleb128 0x13
 2271 018f 02       		.uleb128 0x2
 2272 0190 18       		.uleb128 0x18
 2273 0191 00       		.byte	0
 2274 0192 00       		.byte	0
 2275 0193 23       		.uleb128 0x23
 2276 0194 34       		.uleb128 0x34
 2277 0195 00       		.byte	0
 2278 0196 31       		.uleb128 0x31
 2279 0197 13       		.uleb128 0x13
 2280 0198 02       		.uleb128 0x2
 2281 0199 18       		.uleb128 0x18
 2282 019a 00       		.byte	0
 2283 019b 00       		.byte	0
 2284 019c 24       		.uleb128 0x24
 2285 019d 05       		.uleb128 0x5
 2286 019e 00       		.byte	0
 2287 019f 31       		.uleb128 0x31
 2288 01a0 13       		.uleb128 0x13
 2289 01a1 00       		.byte	0
 2290 01a2 00       		.byte	0
 2291 01a3 25       		.uleb128 0x25
 2292 01a4 898201   		.uleb128 0x4109
 2293 01a7 01       		.byte	0x1
 2294 01a8 11       		.uleb128 0x11
 2295 01a9 01       		.uleb128 0x1
 2296 01aa 31       		.uleb128 0x31
 2297 01ab 13       		.uleb128 0x13
 2298 01ac 00       		.byte	0
 2299 01ad 00       		.byte	0
 2300 01ae 26       		.uleb128 0x26
 2301 01af 8A8201   		.uleb128 0x410a
 2302 01b2 00       		.byte	0
 2303 01b3 02       		.uleb128 0x2
 2304 01b4 18       		.uleb128 0x18
 2305 01b5 9142     		.uleb128 0x2111
 2306 01b7 18       		.uleb128 0x18
 2307 01b8 00       		.byte	0
 2308 01b9 00       		.byte	0
 2309 01ba 27       		.uleb128 0x27
 2310 01bb 2E       		.uleb128 0x2e
 2311 01bc 01       		.byte	0x1
 2312 01bd 3F       		.uleb128 0x3f
 2313 01be 19       		.uleb128 0x19
 2314 01bf 03       		.uleb128 0x3
 2315 01c0 0E       		.uleb128 0xe
 2316 01c1 3A       		.uleb128 0x3a
 2317 01c2 0B       		.uleb128 0xb
 2318 01c3 3B       		.uleb128 0x3b
 2319 01c4 0B       		.uleb128 0xb
 2320 01c5 27       		.uleb128 0x27
 2321 01c6 19       		.uleb128 0x19
 2322 01c7 49       		.uleb128 0x49
ARM GAS  /tmp/cccNzPOP.s 			page 42


 2323 01c8 13       		.uleb128 0x13
 2324 01c9 11       		.uleb128 0x11
 2325 01ca 01       		.uleb128 0x1
 2326 01cb 12       		.uleb128 0x12
 2327 01cc 06       		.uleb128 0x6
 2328 01cd 40       		.uleb128 0x40
 2329 01ce 18       		.uleb128 0x18
 2330 01cf 9742     		.uleb128 0x2117
 2331 01d1 19       		.uleb128 0x19
 2332 01d2 01       		.uleb128 0x1
 2333 01d3 13       		.uleb128 0x13
 2334 01d4 00       		.byte	0
 2335 01d5 00       		.byte	0
 2336 01d6 28       		.uleb128 0x28
 2337 01d7 05       		.uleb128 0x5
 2338 01d8 00       		.byte	0
 2339 01d9 03       		.uleb128 0x3
 2340 01da 08       		.uleb128 0x8
 2341 01db 3A       		.uleb128 0x3a
 2342 01dc 0B       		.uleb128 0xb
 2343 01dd 3B       		.uleb128 0x3b
 2344 01de 0B       		.uleb128 0xb
 2345 01df 49       		.uleb128 0x49
 2346 01e0 13       		.uleb128 0x13
 2347 01e1 02       		.uleb128 0x2
 2348 01e2 17       		.uleb128 0x17
 2349 01e3 00       		.byte	0
 2350 01e4 00       		.byte	0
 2351 01e5 29       		.uleb128 0x29
 2352 01e6 2E       		.uleb128 0x2e
 2353 01e7 01       		.byte	0x1
 2354 01e8 3F       		.uleb128 0x3f
 2355 01e9 19       		.uleb128 0x19
 2356 01ea 03       		.uleb128 0x3
 2357 01eb 08       		.uleb128 0x8
 2358 01ec 3A       		.uleb128 0x3a
 2359 01ed 0B       		.uleb128 0xb
 2360 01ee 3B       		.uleb128 0x3b
 2361 01ef 0B       		.uleb128 0xb
 2362 01f0 27       		.uleb128 0x27
 2363 01f1 19       		.uleb128 0x19
 2364 01f2 49       		.uleb128 0x49
 2365 01f3 13       		.uleb128 0x13
 2366 01f4 11       		.uleb128 0x11
 2367 01f5 01       		.uleb128 0x1
 2368 01f6 12       		.uleb128 0x12
 2369 01f7 06       		.uleb128 0x6
 2370 01f8 40       		.uleb128 0x40
 2371 01f9 18       		.uleb128 0x18
 2372 01fa 9742     		.uleb128 0x2117
 2373 01fc 19       		.uleb128 0x19
 2374 01fd 01       		.uleb128 0x1
 2375 01fe 13       		.uleb128 0x13
 2376 01ff 00       		.byte	0
 2377 0200 00       		.byte	0
 2378 0201 2A       		.uleb128 0x2a
 2379 0202 898201   		.uleb128 0x4109
ARM GAS  /tmp/cccNzPOP.s 			page 43


 2380 0205 01       		.byte	0x1
 2381 0206 11       		.uleb128 0x11
 2382 0207 01       		.uleb128 0x1
 2383 0208 31       		.uleb128 0x31
 2384 0209 13       		.uleb128 0x13
 2385 020a 01       		.uleb128 0x1
 2386 020b 13       		.uleb128 0x13
 2387 020c 00       		.byte	0
 2388 020d 00       		.byte	0
 2389 020e 2B       		.uleb128 0x2b
 2390 020f 05       		.uleb128 0x5
 2391 0210 00       		.byte	0
 2392 0211 03       		.uleb128 0x3
 2393 0212 0E       		.uleb128 0xe
 2394 0213 3A       		.uleb128 0x3a
 2395 0214 0B       		.uleb128 0xb
 2396 0215 3B       		.uleb128 0x3b
 2397 0216 0B       		.uleb128 0xb
 2398 0217 49       		.uleb128 0x49
 2399 0218 13       		.uleb128 0x13
 2400 0219 02       		.uleb128 0x2
 2401 021a 17       		.uleb128 0x17
 2402 021b 00       		.byte	0
 2403 021c 00       		.byte	0
 2404 021d 2C       		.uleb128 0x2c
 2405 021e 34       		.uleb128 0x34
 2406 021f 00       		.byte	0
 2407 0220 03       		.uleb128 0x3
 2408 0221 0E       		.uleb128 0xe
 2409 0222 3A       		.uleb128 0x3a
 2410 0223 0B       		.uleb128 0xb
 2411 0224 3B       		.uleb128 0x3b
 2412 0225 05       		.uleb128 0x5
 2413 0226 49       		.uleb128 0x49
 2414 0227 13       		.uleb128 0x13
 2415 0228 3F       		.uleb128 0x3f
 2416 0229 19       		.uleb128 0x19
 2417 022a 3C       		.uleb128 0x3c
 2418 022b 19       		.uleb128 0x19
 2419 022c 00       		.byte	0
 2420 022d 00       		.byte	0
 2421 022e 2D       		.uleb128 0x2d
 2422 022f 34       		.uleb128 0x34
 2423 0230 00       		.byte	0
 2424 0231 03       		.uleb128 0x3
 2425 0232 08       		.uleb128 0x8
 2426 0233 3A       		.uleb128 0x3a
 2427 0234 0B       		.uleb128 0xb
 2428 0235 3B       		.uleb128 0x3b
 2429 0236 05       		.uleb128 0x5
 2430 0237 49       		.uleb128 0x49
 2431 0238 13       		.uleb128 0x13
 2432 0239 3F       		.uleb128 0x3f
 2433 023a 19       		.uleb128 0x19
 2434 023b 3C       		.uleb128 0x3c
 2435 023c 19       		.uleb128 0x19
 2436 023d 00       		.byte	0
ARM GAS  /tmp/cccNzPOP.s 			page 44


 2437 023e 00       		.byte	0
 2438 023f 2E       		.uleb128 0x2e
 2439 0240 2E       		.uleb128 0x2e
 2440 0241 01       		.byte	0x1
 2441 0242 3F       		.uleb128 0x3f
 2442 0243 19       		.uleb128 0x19
 2443 0244 03       		.uleb128 0x3
 2444 0245 0E       		.uleb128 0xe
 2445 0246 3A       		.uleb128 0x3a
 2446 0247 0B       		.uleb128 0xb
 2447 0248 3B       		.uleb128 0x3b
 2448 0249 0B       		.uleb128 0xb
 2449 024a 27       		.uleb128 0x27
 2450 024b 19       		.uleb128 0x19
 2451 024c 3C       		.uleb128 0x3c
 2452 024d 19       		.uleb128 0x19
 2453 024e 00       		.byte	0
 2454 024f 00       		.byte	0
 2455 0250 00       		.byte	0
 2456              		.section	.debug_loc,"",%progbits
 2457              	.Ldebug_loc0:
 2458              	.LLST0:
 2459 0000 00000000 		.4byte	.LVL0
 2460 0004 0C000000 		.4byte	.LVL1
 2461 0008 0100     		.2byte	0x1
 2462 000a 50       		.byte	0x50
 2463 000b 0C000000 		.4byte	.LVL1
 2464 000f 26000000 		.4byte	.LFE127
 2465 0013 0400     		.2byte	0x4
 2466 0015 F3       		.byte	0xf3
 2467 0016 01       		.uleb128 0x1
 2468 0017 50       		.byte	0x50
 2469 0018 9F       		.byte	0x9f
 2470 0019 00000000 		.4byte	0
 2471 001d 00000000 		.4byte	0
 2472              	.LLST1:
 2473 0021 00000000 		.4byte	.LVL4
 2474 0025 0E000000 		.4byte	.LVL5
 2475 0029 0100     		.2byte	0x1
 2476 002b 50       		.byte	0x50
 2477 002c 0E000000 		.4byte	.LVL5
 2478 0030 2B000000 		.4byte	.LVL6-1
 2479 0034 0100     		.2byte	0x1
 2480 0036 53       		.byte	0x53
 2481 0037 2B000000 		.4byte	.LVL6-1
 2482 003b 30000000 		.4byte	.LFE120
 2483 003f 0400     		.2byte	0x4
 2484 0041 F3       		.byte	0xf3
 2485 0042 01       		.uleb128 0x1
 2486 0043 50       		.byte	0x50
 2487 0044 9F       		.byte	0x9f
 2488 0045 00000000 		.4byte	0
 2489 0049 00000000 		.4byte	0
 2490              	.LLST2:
 2491 004d 00000000 		.4byte	.LVL7
 2492 0051 0E000000 		.4byte	.LVL8
 2493 0055 0100     		.2byte	0x1
ARM GAS  /tmp/cccNzPOP.s 			page 45


 2494 0057 50       		.byte	0x50
 2495 0058 0E000000 		.4byte	.LVL8
 2496 005c 2B000000 		.4byte	.LVL9-1
 2497 0060 0100     		.2byte	0x1
 2498 0062 53       		.byte	0x53
 2499 0063 2B000000 		.4byte	.LVL9-1
 2500 0067 30000000 		.4byte	.LFE121
 2501 006b 0400     		.2byte	0x4
 2502 006d F3       		.byte	0xf3
 2503 006e 01       		.uleb128 0x1
 2504 006f 50       		.byte	0x50
 2505 0070 9F       		.byte	0x9f
 2506 0071 00000000 		.4byte	0
 2507 0075 00000000 		.4byte	0
 2508              	.LLST3:
 2509 0079 00000000 		.4byte	.LVL11
 2510 007d 18000000 		.4byte	.LVL13
 2511 0081 0100     		.2byte	0x1
 2512 0083 50       		.byte	0x50
 2513 0084 18000000 		.4byte	.LVL13
 2514 0088 1F000000 		.4byte	.LVL14-1
 2515 008c 0300     		.2byte	0x3
 2516 008e 73       		.byte	0x73
 2517 008f 01       		.sleb128 1
 2518 0090 9F       		.byte	0x9f
 2519 0091 1F000000 		.4byte	.LVL14-1
 2520 0095 34000000 		.4byte	.LFE123
 2521 0099 0400     		.2byte	0x4
 2522 009b F3       		.byte	0xf3
 2523 009c 01       		.uleb128 0x1
 2524 009d 50       		.byte	0x50
 2525 009e 9F       		.byte	0x9f
 2526 009f 00000000 		.4byte	0
 2527 00a3 00000000 		.4byte	0
 2528              	.LLST4:
 2529 00a7 00000000 		.4byte	.LVL11
 2530 00ab 12000000 		.4byte	.LVL12
 2531 00af 0100     		.2byte	0x1
 2532 00b1 51       		.byte	0x51
 2533 00b2 12000000 		.4byte	.LVL12
 2534 00b6 1F000000 		.4byte	.LVL14-1
 2535 00ba 0200     		.2byte	0x2
 2536 00bc 7D       		.byte	0x7d
 2537 00bd 00       		.sleb128 0
 2538 00be 1F000000 		.4byte	.LVL14-1
 2539 00c2 34000000 		.4byte	.LFE123
 2540 00c6 0400     		.2byte	0x4
 2541 00c8 F3       		.byte	0xf3
 2542 00c9 01       		.uleb128 0x1
 2543 00ca 51       		.byte	0x51
 2544 00cb 9F       		.byte	0x9f
 2545 00cc 00000000 		.4byte	0
 2546 00d0 00000000 		.4byte	0
 2547              	.LLST5:
 2548 00d4 00000000 		.4byte	.LVL17
 2549 00d8 0C000000 		.4byte	.LVL18
 2550 00dc 0100     		.2byte	0x1
ARM GAS  /tmp/cccNzPOP.s 			page 46


 2551 00de 50       		.byte	0x50
 2552 00df 0C000000 		.4byte	.LVL18
 2553 00e3 19000000 		.4byte	.LVL19-1
 2554 00e7 0100     		.2byte	0x1
 2555 00e9 53       		.byte	0x53
 2556 00ea 19000000 		.4byte	.LVL19-1
 2557 00ee 1E000000 		.4byte	.LFE125
 2558 00f2 0400     		.2byte	0x4
 2559 00f4 F3       		.byte	0xf3
 2560 00f5 01       		.uleb128 0x1
 2561 00f6 50       		.byte	0x50
 2562 00f7 9F       		.byte	0x9f
 2563 00f8 00000000 		.4byte	0
 2564 00fc 00000000 		.4byte	0
 2565              	.LLST6:
 2566 0100 00000000 		.4byte	.LVL20
 2567 0104 0C000000 		.4byte	.LVL21
 2568 0108 0100     		.2byte	0x1
 2569 010a 50       		.byte	0x50
 2570 010b 0C000000 		.4byte	.LVL21
 2571 010f 19000000 		.4byte	.LVL22-1
 2572 0113 0100     		.2byte	0x1
 2573 0115 53       		.byte	0x53
 2574 0116 19000000 		.4byte	.LVL22-1
 2575 011a 1E000000 		.4byte	.LFE126
 2576 011e 0400     		.2byte	0x4
 2577 0120 F3       		.byte	0xf3
 2578 0121 01       		.uleb128 0x1
 2579 0122 50       		.byte	0x50
 2580 0123 9F       		.byte	0x9f
 2581 0124 00000000 		.4byte	0
 2582 0128 00000000 		.4byte	0
 2583              		.section	.debug_aranges,"",%progbits
 2584 0000 5C000000 		.4byte	0x5c
 2585 0004 0200     		.2byte	0x2
 2586 0006 00000000 		.4byte	.Ldebug_info0
 2587 000a 04       		.byte	0x4
 2588 000b 00       		.byte	0
 2589 000c 0000     		.2byte	0
 2590 000e 0000     		.2byte	0
 2591 0010 00000000 		.4byte	.LFB127
 2592 0014 26000000 		.4byte	.LFE127-.LFB127
 2593 0018 00000000 		.4byte	.LFB119
 2594 001c 1C000000 		.4byte	.LFE119-.LFB119
 2595 0020 00000000 		.4byte	.LFB120
 2596 0024 30000000 		.4byte	.LFE120-.LFB120
 2597 0028 00000000 		.4byte	.LFB121
 2598 002c 30000000 		.4byte	.LFE121-.LFB121
 2599 0030 00000000 		.4byte	.LFB122
 2600 0034 1C000000 		.4byte	.LFE122-.LFB122
 2601 0038 00000000 		.4byte	.LFB123
 2602 003c 34000000 		.4byte	.LFE123-.LFB123
 2603 0040 00000000 		.4byte	.LFB124
 2604 0044 1C000000 		.4byte	.LFE124-.LFB124
 2605 0048 00000000 		.4byte	.LFB125
 2606 004c 1E000000 		.4byte	.LFE125-.LFB125
 2607 0050 00000000 		.4byte	.LFB126
ARM GAS  /tmp/cccNzPOP.s 			page 47


 2608 0054 1E000000 		.4byte	.LFE126-.LFB126
 2609 0058 00000000 		.4byte	0
 2610 005c 00000000 		.4byte	0
 2611              		.section	.debug_ranges,"",%progbits
 2612              	.Ldebug_ranges0:
 2613 0000 00000000 		.4byte	.LFB127
 2614 0004 26000000 		.4byte	.LFE127
 2615 0008 00000000 		.4byte	.LFB119
 2616 000c 1C000000 		.4byte	.LFE119
 2617 0010 00000000 		.4byte	.LFB120
 2618 0014 30000000 		.4byte	.LFE120
 2619 0018 00000000 		.4byte	.LFB121
 2620 001c 30000000 		.4byte	.LFE121
 2621 0020 00000000 		.4byte	.LFB122
 2622 0024 1C000000 		.4byte	.LFE122
 2623 0028 00000000 		.4byte	.LFB123
 2624 002c 34000000 		.4byte	.LFE123
 2625 0030 00000000 		.4byte	.LFB124
 2626 0034 1C000000 		.4byte	.LFE124
 2627 0038 00000000 		.4byte	.LFB125
 2628 003c 1E000000 		.4byte	.LFE125
 2629 0040 00000000 		.4byte	.LFB126
 2630 0044 1E000000 		.4byte	.LFE126
 2631 0048 00000000 		.4byte	0
 2632 004c 00000000 		.4byte	0
 2633              		.section	.debug_line,"",%progbits
 2634              	.Ldebug_line0:
 2635 0000 12030000 		.section	.debug_str,"MS",%progbits,1
 2635      02004B02 
 2635      00000201 
 2635      FB0E0D00 
 2635      01010101 
 2636              	.LASF2:
 2637 0000 73697A65 		.ascii	"size_t\000"
 2637      5F7400
 2638              	.LASF65:
 2639 0007 7264796D 		.ascii	"rdymsg\000"
 2639      736700
 2640              	.LASF81:
 2641 000e 4F757470 		.ascii	"OutputQueue\000"
 2641      75745175 
 2641      65756500 
 2642              	.LASF3:
 2643 001a 5F5F7569 		.ascii	"__uint8_t\000"
 2643      6E74385F 
 2643      7400
 2644              	.LASF113:
 2645 0024 76615F6C 		.ascii	"va_list\000"
 2645      69737400 
 2646              	.LASF71:
 2647 002c 715F7761 		.ascii	"q_waiting\000"
 2647      6974696E 
 2647      6700
 2648              	.LASF123:
 2649 0036 474E5520 		.ascii	"GNU C 4.8.2 -mcpu=cortex-m4 -mno-thumb-interwork -m"
 2649      4320342E 
 2649      382E3220 
ARM GAS  /tmp/cccNzPOP.s 			page 48


 2649      2D6D6370 
 2649      753D636F 
 2650 0069 7468756D 		.ascii	"thumb -ggdb -O2 -fomit-frame-pointer -falign-functi"
 2650      62202D67 
 2650      67646220 
 2650      2D4F3220 
 2650      2D666F6D 
 2651 009c 6F6E733D 		.ascii	"ons=16 -ffunction-sections -fdata-sections -fno-com"
 2651      3136202D 
 2651      6666756E 
 2651      6374696F 
 2651      6E2D7365 
 2652 00cf 6D6F6E00 		.ascii	"mon\000"
 2653              	.LASF13:
 2654 00d3 6C6F6E67 		.ascii	"long long unsigned int\000"
 2654      206C6F6E 
 2654      6720756E 
 2654      7369676E 
 2654      65642069 
 2655              	.LASF66:
 2656 00ea 65786974 		.ascii	"exitcode\000"
 2656      636F6465 
 2656      00
 2657              	.LASF122:
 2658 00f3 49544D5F 		.ascii	"ITM_RxBuffer\000"
 2658      52784275 
 2658      66666572 
 2658      00
 2659              	.LASF31:
 2660 0100 705F7072 		.ascii	"p_prio\000"
 2660      696F00
 2661              	.LASF109:
 2662 0107 72656164 		.ascii	"readt\000"
 2662      7400
 2663              	.LASF116:
 2664 010d 6D6F7668 		.ascii	"movh\000"
 2664      00
 2665              	.LASF12:
 2666 0112 6C6F6E67 		.ascii	"long long int\000"
 2666      206C6F6E 
 2666      6720696E 
 2666      7400
 2667              	.LASF1:
 2668 0120 7369676E 		.ascii	"signed char\000"
 2668      65642063 
 2668      68617200 
 2669              	.LASF92:
 2670 012c 47545052 		.ascii	"GTPR\000"
 2670      00
 2671              	.LASF47:
 2672 0131 705F6D70 		.ascii	"p_mpool\000"
 2672      6F6F6C00 
 2673              	.LASF115:
 2674 0139 6D6F7676 		.ascii	"movv\000"
 2674      00
 2675              	.LASF22:
 2676 013e 74736C69 		.ascii	"tslices_t\000"
ARM GAS  /tmp/cccNzPOP.s 			page 49


 2676      6365735F 
 2676      7400
 2677              	.LASF101:
 2678 0148 73746174 		.ascii	"state\000"
 2678      6500
 2679              	.LASF9:
 2680 014e 6C6F6E67 		.ascii	"long int\000"
 2680      20696E74 
 2680      00
 2681              	.LASF20:
 2682 0157 74737461 		.ascii	"tstate_t\000"
 2682      74655F74 
 2682      00
 2683              	.LASF111:
 2684 0160 5F5F7661 		.ascii	"__va_list\000"
 2684      5F6C6973 
 2684      7400
 2685              	.LASF38:
 2686 016a 705F7265 		.ascii	"p_refs\000"
 2686      667300
 2687              	.LASF73:
 2688 0171 715F6275 		.ascii	"q_buffer\000"
 2688      66666572 
 2688      00
 2689              	.LASF75:
 2690 017a 715F7772 		.ascii	"q_wrptr\000"
 2690      70747200 
 2691              	.LASF40:
 2692 0182 705F7469 		.ascii	"p_time\000"
 2692      6D6500
 2693              	.LASF33:
 2694 0189 705F6E65 		.ascii	"p_newer\000"
 2694      77657200 
 2695              	.LASF10:
 2696 0191 5F5F7569 		.ascii	"__uint32_t\000"
 2696      6E743332 
 2696      5F7400
 2697              	.LASF50:
 2698 019c 72656761 		.ascii	"regarm_t\000"
 2698      726D5F74 
 2698      00
 2699              	.LASF63:
 2700 01a5 4576656E 		.ascii	"EventSource\000"
 2700      74536F75 
 2700      72636500 
 2701              	.LASF85:
 2702 01b1 42617365 		.ascii	"BaseSequentialStream\000"
 2702      53657175 
 2702      656E7469 
 2702      616C5374 
 2702      7265616D 
 2703              	.LASF118:
 2704 01c6 636C636C 		.ascii	"clclr\000"
 2704      7200
 2705              	.LASF104:
 2706 01cc 75736172 		.ascii	"usart\000"
 2706      7400
ARM GAS  /tmp/cccNzPOP.s 			page 50


 2707              	.LASF0:
 2708 01d2 756E7369 		.ascii	"unsigned int\000"
 2708      676E6564 
 2708      20696E74 
 2708      00
 2709              	.LASF15:
 2710 01df 75696E74 		.ascii	"uint16_t\000"
 2710      31365F74 
 2710      00
 2711              	.LASF105:
 2712 01e8 53657269 		.ascii	"SerialDriverVMT\000"
 2712      616C4472 
 2712      69766572 
 2712      564D5400 
 2713              	.LASF102:
 2714 01f8 69717565 		.ascii	"iqueue\000"
 2714      756500
 2715              	.LASF42:
 2716 01ff 705F6D73 		.ascii	"p_msgqueue\000"
 2716      67717565 
 2716      756500
 2717              	.LASF107:
 2718 020a 67657474 		.ascii	"gett\000"
 2718      00
 2719              	.LASF100:
 2720 020f 6576656E 		.ascii	"event\000"
 2720      7400
 2721              	.LASF7:
 2722 0215 73686F72 		.ascii	"short unsigned int\000"
 2722      7420756E 
 2722      7369676E 
 2722      65642069 
 2722      6E7400
 2723              	.LASF24:
 2724 0228 6D73675F 		.ascii	"msg_t\000"
 2724      7400
 2725              	.LASF103:
 2726 022e 6F717565 		.ascii	"oqueue\000"
 2726      756500
 2727              	.LASF121:
 2728 0235 756E7365 		.ascii	"unset_text_color\000"
 2728      745F7465 
 2728      78745F63 
 2728      6F6C6F72 
 2728      00
 2729              	.LASF94:
 2730 0246 55534152 		.ascii	"USART_TypeDef\000"
 2730      545F5479 
 2730      70654465 
 2730      6600
 2731              	.LASF108:
 2732 0254 77726974 		.ascii	"writet\000"
 2732      657400
 2733              	.LASF119:
 2734 025b 7365745F 		.ascii	"set_text_color\000"
 2734      74657874 
 2734      5F636F6C 
ARM GAS  /tmp/cccNzPOP.s 			page 51


 2734      6F7200
 2735              	.LASF49:
 2736 026a 54687265 		.ascii	"ThreadsList\000"
 2736      6164734C 
 2736      69737400 
 2737              	.LASF25:
 2738 0276 6576656E 		.ascii	"eventmask_t\000"
 2738      746D6173 
 2738      6B5F7400 
 2739              	.LASF80:
 2740 0282 496E7075 		.ascii	"InputQueue\000"
 2740      74517565 
 2740      756500
 2741              	.LASF79:
 2742 028d 716E6F74 		.ascii	"qnotify_t\000"
 2742      6966795F 
 2742      7400
 2743              	.LASF70:
 2744 0297 47656E65 		.ascii	"GenericQueue\000"
 2744      72696351 
 2744      75657565 
 2744      00
 2745              	.LASF83:
 2746 02a4 77726974 		.ascii	"write\000"
 2746      6500
 2747              	.LASF106:
 2748 02aa 70757474 		.ascii	"putt\000"
 2748      00
 2749              	.LASF53:
 2750 02af 73697A65 		.ascii	"sizetype\000"
 2750      74797065 
 2750      00
 2751              	.LASF72:
 2752 02b8 715F636F 		.ascii	"q_counter\000"
 2752      756E7465 
 2752      7200
 2753              	.LASF54:
 2754 02c2 4D757465 		.ascii	"Mutex\000"
 2754      7800
 2755              	.LASF110:
 2756 02c8 5F5F676E 		.ascii	"__gnuc_va_list\000"
 2756      75635F76 
 2756      615F6C69 
 2756      737400
 2757              	.LASF61:
 2758 02d7 656C5F6D 		.ascii	"el_mask\000"
 2758      61736B00 
 2759              	.LASF34:
 2760 02df 705F6F6C 		.ascii	"p_older\000"
 2760      64657200 
 2761              	.LASF48:
 2762 02e7 54687265 		.ascii	"ThreadsQueue\000"
 2762      61647351 
 2762      75657565 
 2762      00
 2763              	.LASF39:
 2764 02f4 705F7072 		.ascii	"p_preempt\000"
ARM GAS  /tmp/cccNzPOP.s 			page 52


 2764      65656D70 
 2764      7400
 2765              	.LASF125:
 2766 02fe 2F686F6D 		.ascii	"/home/ece497/vbox-shared/mplayer/ChibiOS-RT-stable_"
 2766      652F6563 
 2766      65343937 
 2766      2F76626F 
 2766      782D7368 
 2767 0331 322E362E 		.ascii	"2.6.x/demos/IO_QUEUE\000"
 2767      782F6465 
 2767      6D6F732F 
 2767      494F5F51 
 2767      55455545 
 2768              	.LASF21:
 2769 0346 74726566 		.ascii	"trefs_t\000"
 2769      735F7400 
 2770              	.LASF86:
 2771 034e 52455345 		.ascii	"RESERVED0\000"
 2771      52564544 
 2771      3000
 2772              	.LASF87:
 2773 0358 52455345 		.ascii	"RESERVED1\000"
 2773      52564544 
 2773      3100
 2774              	.LASF88:
 2775 0362 52455345 		.ascii	"RESERVED2\000"
 2775      52564544 
 2775      3200
 2776              	.LASF89:
 2777 036c 52455345 		.ascii	"RESERVED3\000"
 2777      52564544 
 2777      3300
 2778              	.LASF90:
 2779 0376 52455345 		.ascii	"RESERVED4\000"
 2779      52564544 
 2779      3400
 2780              	.LASF30:
 2781 0380 705F7072 		.ascii	"p_prev\000"
 2781      657600
 2782              	.LASF93:
 2783 0387 52455345 		.ascii	"RESERVED6\000"
 2783      52564544 
 2783      3600
 2784              	.LASF23:
 2785 0391 74707269 		.ascii	"tprio_t\000"
 2785      6F5F7400 
 2786              	.LASF76:
 2787 0399 715F7264 		.ascii	"q_rdptr\000"
 2787      70747200 
 2788              	.LASF18:
 2789 03a1 5F426F6F 		.ascii	"_Bool\000"
 2789      6C00
 2790              	.LASF16:
 2791 03a7 696E7433 		.ascii	"int32_t\000"
 2791      325F7400 
 2792              	.LASF4:
 2793 03af 756E7369 		.ascii	"unsigned char\000"
ARM GAS  /tmp/cccNzPOP.s 			page 53


 2793      676E6564 
 2793      20636861 
 2793      7200
 2794              	.LASF55:
 2795 03bd 6D5F7175 		.ascii	"m_queue\000"
 2795      65756500 
 2796              	.LASF60:
 2797 03c5 656C5F6C 		.ascii	"el_listener\000"
 2797      69737465 
 2797      6E657200 
 2798              	.LASF62:
 2799 03d1 656C5F66 		.ascii	"el_flags\000"
 2799      6C616773 
 2799      00
 2800              	.LASF45:
 2801 03da 705F6D74 		.ascii	"p_mtxlist\000"
 2801      786C6973 
 2801      7400
 2802              	.LASF5:
 2803 03e4 73686F72 		.ascii	"short int\000"
 2803      7420696E 
 2803      7400
 2804              	.LASF36:
 2805 03ee 705F7374 		.ascii	"p_state\000"
 2805      61746500 
 2806              	.LASF124:
 2807 03f6 70726574 		.ascii	"pretty.c\000"
 2807      74792E63 
 2807      00
 2808              	.LASF68:
 2809 03ff 65776D61 		.ascii	"ewmask\000"
 2809      736B00
 2810              	.LASF29:
 2811 0406 705F6E65 		.ascii	"p_next\000"
 2811      787400
 2812              	.LASF82:
 2813 040d 42617365 		.ascii	"BaseSequentialStreamVMT\000"
 2813      53657175 
 2813      656E7469 
 2813      616C5374 
 2813      7265616D 
 2814              	.LASF37:
 2815 0425 705F666C 		.ascii	"p_flags\000"
 2815      61677300 
 2816              	.LASF59:
 2817 042d 656C5F6E 		.ascii	"el_next\000"
 2817      65787400 
 2818              	.LASF96:
 2819 0435 53445F53 		.ascii	"SD_STOP\000"
 2819      544F5000 
 2820              	.LASF28:
 2821 043d 54687265 		.ascii	"Thread\000"
 2821      616400
 2822              	.LASF117:
 2823 0444 70757463 		.ascii	"putcursor\000"
 2823      7572736F 
 2823      7200
ARM GAS  /tmp/cccNzPOP.s 			page 54


 2824              	.LASF44:
 2825 044e 705F6570 		.ascii	"p_epending\000"
 2825      656E6469 
 2825      6E6700
 2826              	.LASF95:
 2827 0459 53445F55 		.ascii	"SD_UNINIT\000"
 2827      4E494E49 
 2827      5400
 2828              	.LASF91:
 2829 0463 52455345 		.ascii	"RESERVED5\000"
 2829      52564544 
 2829      3500
 2830              	.LASF17:
 2831 046d 75696E74 		.ascii	"uint32_t\000"
 2831      33325F74 
 2831      00
 2832              	.LASF98:
 2833 0476 73647374 		.ascii	"sdstate_t\000"
 2833      6174655F 
 2833      7400
 2834              	.LASF99:
 2835 0480 53657269 		.ascii	"SerialDriver\000"
 2835      616C4472 
 2835      69766572 
 2835      00
 2836              	.LASF11:
 2837 048d 6C6F6E67 		.ascii	"long unsigned int\000"
 2837      20756E73 
 2837      69676E65 
 2837      6420696E 
 2837      7400
 2838              	.LASF84:
 2839 049f 72656164 		.ascii	"read\000"
 2839      00
 2840              	.LASF69:
 2841 04a4 63686172 		.ascii	"char\000"
 2841      00
 2842              	.LASF6:
 2843 04a9 5F5F7569 		.ascii	"__uint16_t\000"
 2843      6E743136 
 2843      5F7400
 2844              	.LASF57:
 2845 04b4 6D5F6E65 		.ascii	"m_next\000"
 2845      787400
 2846              	.LASF27:
 2847 04bb 73797374 		.ascii	"systime_t\000"
 2847      696D655F 
 2847      7400
 2848              	.LASF46:
 2849 04c5 705F7265 		.ascii	"p_realprio\000"
 2849      616C7072 
 2849      696F00
 2850              	.LASF8:
 2851 04d0 5F5F696E 		.ascii	"__int32_t\000"
 2851      7433325F 
 2851      7400
 2852              	.LASF112:
ARM GAS  /tmp/cccNzPOP.s 			page 55


 2853 04da 5F5F6170 		.ascii	"__ap\000"
 2853      00
 2854              	.LASF52:
 2855 04df 636F6E74 		.ascii	"context\000"
 2855      65787400 
 2856              	.LASF51:
 2857 04e7 696E7463 		.ascii	"intctx\000"
 2857      747800
 2858              	.LASF97:
 2859 04ee 53445F52 		.ascii	"SD_READY\000"
 2859      45414459 
 2859      00
 2860              	.LASF26:
 2861 04f7 666C6167 		.ascii	"flagsmask_t\000"
 2861      736D6173 
 2861      6B5F7400 
 2862              	.LASF120:
 2863 0503 636F6C6F 		.ascii	"color\000"
 2863      7200
 2864              	.LASF74:
 2865 0509 715F746F 		.ascii	"q_top\000"
 2865      7000
 2866              	.LASF35:
 2867 050f 705F6E61 		.ascii	"p_name\000"
 2867      6D6500
 2868              	.LASF64:
 2869 0516 65735F6E 		.ascii	"es_next\000"
 2869      65787400 
 2870              	.LASF77:
 2871 051e 715F6E6F 		.ascii	"q_notify\000"
 2871      74696679 
 2871      00
 2872              	.LASF43:
 2873 0527 705F6D73 		.ascii	"p_msg\000"
 2873      6700
 2874              	.LASF14:
 2875 052d 75696E74 		.ascii	"uint8_t\000"
 2875      385F7400 
 2876              	.LASF127:
 2877 0535 63687670 		.ascii	"chvprintf\000"
 2877      72696E74 
 2877      6600
 2878              	.LASF58:
 2879 053f 4576656E 		.ascii	"EventListener\000"
 2879      744C6973 
 2879      74656E65 
 2879      7200
 2880              	.LASF67:
 2881 054d 77746F62 		.ascii	"wtobjp\000"
 2881      6A7000
 2882              	.LASF19:
 2883 0554 746D6F64 		.ascii	"tmode_t\000"
 2883      655F7400 
 2884              	.LASF114:
 2885 055c 70757474 		.ascii	"puttop\000"
 2885      6F7000
 2886              	.LASF78:
ARM GAS  /tmp/cccNzPOP.s 			page 56


 2887 0563 715F6C69 		.ascii	"q_link\000"
 2887      6E6B00
 2888              	.LASF56:
 2889 056a 6D5F6F77 		.ascii	"m_owner\000"
 2889      6E657200 
 2890              	.LASF32:
 2891 0572 705F6374 		.ascii	"p_ctx\000"
 2891      7800
 2892              	.LASF41:
 2893 0578 705F7761 		.ascii	"p_waiting\000"
 2893      6974696E 
 2893      6700
 2894              	.LASF126:
 2895 0582 63687072 		.ascii	"chprintf\000"
 2895      696E7466 
 2895      00
 2896              		.ident	"GCC: (Arch Repository) 4.8.2"
ARM GAS  /tmp/cccNzPOP.s 			page 57


DEFINED SYMBOLS
                            *ABS*:0000000000000000 pretty.c
     /tmp/cccNzPOP.s:19     .text.chprintf.constprop.0:0000000000000000 $t
     /tmp/cccNzPOP.s:24     .text.chprintf.constprop.0:0000000000000000 chprintf.constprop.0
     /tmp/cccNzPOP.s:67     .text.puttop:0000000000000000 $t
     /tmp/cccNzPOP.s:73     .text.puttop:0000000000000000 puttop
     /tmp/cccNzPOP.s:373    .rodata.str1.4:0000000000000000 .LC0
     /tmp/cccNzPOP.s:99     .text.movv:0000000000000000 $t
     /tmp/cccNzPOP.s:105    .text.movv:0000000000000000 movv
     /tmp/cccNzPOP.s:376    .rodata.str1.4:0000000000000008 .LC1
     /tmp/cccNzPOP.s:379    .rodata.str1.4:0000000000000010 .LC2
     /tmp/cccNzPOP.s:145    .text.movh:0000000000000000 $t
     /tmp/cccNzPOP.s:151    .text.movh:0000000000000000 movh
     /tmp/cccNzPOP.s:382    .rodata.str1.4:0000000000000018 .LC3
     /tmp/cccNzPOP.s:385    .rodata.str1.4:0000000000000020 .LC4
     /tmp/cccNzPOP.s:191    .text.cls:0000000000000000 $t
     /tmp/cccNzPOP.s:197    .text.cls:0000000000000000 cls
     /tmp/cccNzPOP.s:388    .rodata.str1.4:0000000000000028 .LC5
     /tmp/cccNzPOP.s:222    .text.putcursor:0000000000000000 $t
     /tmp/cccNzPOP.s:228    .text.putcursor:0000000000000000 putcursor
     /tmp/cccNzPOP.s:391    .rodata.str1.4:0000000000000030 .LC6
     /tmp/cccNzPOP.s:394    .rodata.str1.4:000000000000003c .LC7
     /tmp/cccNzPOP.s:269    .text.clclr:0000000000000000 $t
     /tmp/cccNzPOP.s:275    .text.clclr:0000000000000000 clclr
     /tmp/cccNzPOP.s:397    .rodata.str1.4:0000000000000040 .LC8
     /tmp/cccNzPOP.s:300    .text.set_text_color:0000000000000000 $t
     /tmp/cccNzPOP.s:306    .text.set_text_color:0000000000000000 set_text_color
     /tmp/cccNzPOP.s:400    .rodata.str1.4:0000000000000048 .LC9
     /tmp/cccNzPOP.s:336    .text.unset_text_color:0000000000000000 $t
     /tmp/cccNzPOP.s:342    .text.unset_text_color:0000000000000000 unset_text_color
     /tmp/cccNzPOP.s:403    .rodata.str1.4:0000000000000050 .LC10
     /tmp/cccNzPOP.s:372    .rodata.str1.4:0000000000000000 $d
                     .debug_frame:0000000000000010 $d

UNDEFINED SYMBOLS
SD2
chvprintf
